; Listing generated by Microsoft (R) Optimizing Compiler Version 19.34.31937.0 

	TITLE	e:\metin2_server\solwaynesf v6\clientvs22\vs_files\userinterface\distribute\markmanager.obj
	.686P
	.XMM
	include listing.inc
	.model	flat

INCLUDELIB OLDNAMES

PUBLIC	??_C@_04KJJCFCK@mark@				; `string'
PUBLIC	??_C@_0BA@BKPHNHHG@mark?1?$CFs_?$CFlu?4tga@	; `string'
PUBLIC	??_C@_0O@OILHOJMF@mark?1?$CFs_index@		; `string'
PUBLIC	??_C@_01KDCPPGHE@r@				; `string'
PUBLIC	??_C@_07HJBKDJLI@?$CFlu?5?$CFlu@		; `string'
PUBLIC	??_C@_01NOFIACDB@w@				; `string'
PUBLIC	??_C@_0DD@DCHMIIOP@MarkManager?3?3SaveMarkData?3?5cann@ ; `string'
PUBLIC	??_C@_06IPGPIAII@?$CFd?5?$CFd?6@		; `string'
PUBLIC	??_C@_0CK@IKDHOBNC@MarkManager?3?3SaveMarkData?3?5inde@ ; `string'
PUBLIC	??_C@_0BA@PBMNNCMH@?$CFs?5Save?5failed?6@	; `string'
PUBLIC	??_C@_0CL@HBDGKDCJ@CGuildMarkManager?3?5cannot?5alloc@ ; `string'
PUBLIC	??_C@_0BL@FIGDHGGB@SaveMark?3?5mark?5id?5alloc?5?$CFu@ ; `string'
PUBLIC	??_C@_0BL@DJLHMKOD@SaveMark?3?5mark?5id?5found?5?$CFu@ ; `string'
PUBLIC	??_C@_0L@GFEFCHNI@imgidx?5?$CFu?5@		; `string'
PUBLIC	??_C@_0P@PFBACHEK@invalid?5idx?5?$CFu@		; `string'
PUBLIC	??_C@_0CD@OFIJIOEB@Cannot?5open?5Symbol?5file?5?$CIname?3?5@ ; `string'
PUBLIC	??_C@_0CG@NOAPOIFA@GuildSymbolUpload?5guildID?5?$CFlu?5S@ ; `string'
PUBLIC	??_R2CGuildMarkManager@@8			; CGuildMarkManager::`RTTI Base Class Array'
PUBLIC	??_R2?$singleton@VCGuildMarkManager@@@@8	; singleton<CGuildMarkManager>::`RTTI Base Class Array'
PUBLIC	??_R1A@?0A@EA@CGuildMarkManager@@8		; CGuildMarkManager::`RTTI Base Class Descriptor at (0,-1,0,64)'
PUBLIC	??_R1A@?0A@EA@?$singleton@VCGuildMarkManager@@@@8 ; singleton<CGuildMarkManager>::`RTTI Base Class Descriptor at (0,-1,0,64)'
PUBLIC	??_R3?$singleton@VCGuildMarkManager@@@@8	; singleton<CGuildMarkManager>::`RTTI Class Hierarchy Descriptor'
PUBLIC	??_R0?AV?$singleton@VCGuildMarkManager@@@@@8	; singleton<CGuildMarkManager> `RTTI Type Descriptor'
PUBLIC	??_R3CGuildMarkManager@@8			; CGuildMarkManager::`RTTI Class Hierarchy Descriptor'
PUBLIC	??_R0?AVCGuildMarkManager@@@8			; CGuildMarkManager `RTTI Type Descriptor'
PUBLIC	??_R4?$singleton@VCGuildMarkManager@@@@6B@	; singleton<CGuildMarkManager>::`RTTI Complete Object Locator'
PUBLIC	??_R4CGuildMarkManager@@6B@			; CGuildMarkManager::`RTTI Complete Object Locator'
PUBLIC	?piecewise_construct@std@@3Upiecewise_construct_t@1@B ; std::piecewise_construct
PUBLIC	??_7?$singleton@VCGuildMarkManager@@@@6B@	; singleton<CGuildMarkManager>::`vftable'
PUBLIC	??_7CGuildMarkManager@@6B@			; CGuildMarkManager::`vftable'
EXTRN	__mkdir:PROC
;	COMDAT ??_7CGuildMarkManager@@6B@
CONST	SEGMENT
??_7CGuildMarkManager@@6B@ DD FLAT:??_R4CGuildMarkManager@@6B@ ; CGuildMarkManager::`vftable'
	DD	FLAT:??_ECGuildMarkManager@@UAEPAXI@Z
CONST	ENDS
;	COMDAT ??_7?$singleton@VCGuildMarkManager@@@@6B@
CONST	SEGMENT
??_7?$singleton@VCGuildMarkManager@@@@6B@ DD FLAT:??_R4?$singleton@VCGuildMarkManager@@@@6B@ ; singleton<CGuildMarkManager>::`vftable'
	DD	FLAT:??_E?$singleton@VCGuildMarkManager@@@@UAEPAXI@Z
CONST	ENDS
;	COMDAT ?piecewise_construct@std@@3Upiecewise_construct_t@1@B
CONST	SEGMENT
?piecewise_construct@std@@3Upiecewise_construct_t@1@B	ORG $+1 ; std::piecewise_construct
CONST	ENDS
;	COMDAT ??_R4CGuildMarkManager@@6B@
rdata$r	SEGMENT
??_R4CGuildMarkManager@@6B@ DD 00H			; CGuildMarkManager::`RTTI Complete Object Locator'
	DD	00H
	DD	00H
	DD	FLAT:??_R0?AVCGuildMarkManager@@@8
	DD	FLAT:??_R3CGuildMarkManager@@8
rdata$r	ENDS
;	COMDAT ??_R4?$singleton@VCGuildMarkManager@@@@6B@
rdata$r	SEGMENT
??_R4?$singleton@VCGuildMarkManager@@@@6B@ DD 00H	; singleton<CGuildMarkManager>::`RTTI Complete Object Locator'
	DD	00H
	DD	00H
	DD	FLAT:??_R0?AV?$singleton@VCGuildMarkManager@@@@@8
	DD	FLAT:??_R3?$singleton@VCGuildMarkManager@@@@8
rdata$r	ENDS
;	COMDAT ??_R0?AVCGuildMarkManager@@@8
data$rs	SEGMENT
??_R0?AVCGuildMarkManager@@@8 DD FLAT:??_7type_info@@6B@ ; CGuildMarkManager `RTTI Type Descriptor'
	DD	00H
	DB	'.?AVCGuildMarkManager@@', 00H
data$rs	ENDS
;	COMDAT ??_R3CGuildMarkManager@@8
rdata$r	SEGMENT
??_R3CGuildMarkManager@@8 DD 00H			; CGuildMarkManager::`RTTI Class Hierarchy Descriptor'
	DD	00H
	DD	02H
	DD	FLAT:??_R2CGuildMarkManager@@8
rdata$r	ENDS
;	COMDAT ??_R0?AV?$singleton@VCGuildMarkManager@@@@@8
data$rs	SEGMENT
??_R0?AV?$singleton@VCGuildMarkManager@@@@@8 DD FLAT:??_7type_info@@6B@ ; singleton<CGuildMarkManager> `RTTI Type Descriptor'
	DD	00H
	DB	'.?AV?$singleton@VCGuildMarkManager@@@@', 00H
data$rs	ENDS
;	COMDAT ??_R3?$singleton@VCGuildMarkManager@@@@8
rdata$r	SEGMENT
??_R3?$singleton@VCGuildMarkManager@@@@8 DD 00H		; singleton<CGuildMarkManager>::`RTTI Class Hierarchy Descriptor'
	DD	00H
	DD	01H
	DD	FLAT:??_R2?$singleton@VCGuildMarkManager@@@@8
rdata$r	ENDS
;	COMDAT ??_R1A@?0A@EA@?$singleton@VCGuildMarkManager@@@@8
rdata$r	SEGMENT
??_R1A@?0A@EA@?$singleton@VCGuildMarkManager@@@@8 DD FLAT:??_R0?AV?$singleton@VCGuildMarkManager@@@@@8 ; singleton<CGuildMarkManager>::`RTTI Base Class Descriptor at (0,-1,0,64)'
	DD	00H
	DD	00H
	DD	0ffffffffH
	DD	00H
	DD	040H
	DD	FLAT:??_R3?$singleton@VCGuildMarkManager@@@@8
rdata$r	ENDS
;	COMDAT ??_R1A@?0A@EA@CGuildMarkManager@@8
rdata$r	SEGMENT
??_R1A@?0A@EA@CGuildMarkManager@@8 DD FLAT:??_R0?AVCGuildMarkManager@@@8 ; CGuildMarkManager::`RTTI Base Class Descriptor at (0,-1,0,64)'
	DD	01H
	DD	00H
	DD	0ffffffffH
	DD	00H
	DD	040H
	DD	FLAT:??_R3CGuildMarkManager@@8
rdata$r	ENDS
;	COMDAT ??_R2?$singleton@VCGuildMarkManager@@@@8
rdata$r	SEGMENT
??_R2?$singleton@VCGuildMarkManager@@@@8 DD FLAT:??_R1A@?0A@EA@?$singleton@VCGuildMarkManager@@@@8 ; singleton<CGuildMarkManager>::`RTTI Base Class Array'
rdata$r	ENDS
;	COMDAT ??_R2CGuildMarkManager@@8
rdata$r	SEGMENT
??_R2CGuildMarkManager@@8 DD FLAT:??_R1A@?0A@EA@CGuildMarkManager@@8 ; CGuildMarkManager::`RTTI Base Class Array'
	DD	FLAT:??_R1A@?0A@EA@?$singleton@VCGuildMarkManager@@@@8
rdata$r	ENDS
;	COMDAT ??_C@_0CG@NOAPOIFA@GuildSymbolUpload?5guildID?5?$CFlu?5S@
CONST	SEGMENT
??_C@_0CG@NOAPOIFA@GuildSymbolUpload?5guildID?5?$CFlu?5S@ DB 'GuildSymbol'
	DB	'Upload guildID %lu Size %d', 00H		; `string'
CONST	ENDS
;	COMDAT ??_C@_0CD@OFIJIOEB@Cannot?5open?5Symbol?5file?5?$CIname?3?5@
CONST	SEGMENT
??_C@_0CD@OFIJIOEB@Cannot?5open?5Symbol?5file?5?$CIname?3?5@ DB 'Cannot o'
	DB	'pen Symbol file (name: %s)', 00H		; `string'
CONST	ENDS
;	COMDAT ??_C@_0P@PFBACHEK@invalid?5idx?5?$CFu@
CONST	SEGMENT
??_C@_0P@PFBACHEK@invalid?5idx?5?$CFu@ DB 'invalid idx %u', 00H ; `string'
CONST	ENDS
;	COMDAT ??_C@_0L@GFEFCHNI@imgidx?5?$CFu?5@
CONST	SEGMENT
??_C@_0L@GFEFCHNI@imgidx?5?$CFu?5@ DB 'imgidx %u ', 00H	; `string'
CONST	ENDS
;	COMDAT ??_C@_0BL@DJLHMKOD@SaveMark?3?5mark?5id?5found?5?$CFu@
CONST	SEGMENT
??_C@_0BL@DJLHMKOD@SaveMark?3?5mark?5id?5found?5?$CFu@ DB 'SaveMark: mark'
	DB	' id found %u', 00H				; `string'
CONST	ENDS
;	COMDAT ??_C@_0BL@FIGDHGGB@SaveMark?3?5mark?5id?5alloc?5?$CFu@
CONST	SEGMENT
??_C@_0BL@FIGDHGGB@SaveMark?3?5mark?5id?5alloc?5?$CFu@ DB 'SaveMark: mark'
	DB	' id alloc %u', 00H				; `string'
CONST	ENDS
;	COMDAT ??_C@_0CL@HBDGKDCJ@CGuildMarkManager?3?5cannot?5alloc@
CONST	SEGMENT
??_C@_0CL@HBDGKDCJ@CGuildMarkManager?3?5cannot?5alloc@ DB 'CGuildMarkMana'
	DB	'ger: cannot alloc mark id %u', 00H		; `string'
CONST	ENDS
;	COMDAT ??_C@_0BA@PBMNNCMH@?$CFs?5Save?5failed?6@
CONST	SEGMENT
??_C@_0BA@PBMNNCMH@?$CFs?5Save?5failed?6@ DB '%s Save failed', 0aH, 00H ; `string'
CONST	ENDS
;	COMDAT ??_C@_0CK@IKDHOBNC@MarkManager?3?3SaveMarkData?3?5inde@
CONST	SEGMENT
??_C@_0CK@IKDHOBNC@MarkManager?3?3SaveMarkData?3?5inde@ DB 'MarkManager::'
	DB	'SaveMarkData: index count %d', 00H		; `string'
CONST	ENDS
;	COMDAT ??_C@_06IPGPIAII@?$CFd?5?$CFd?6@
CONST	SEGMENT
??_C@_06IPGPIAII@?$CFd?5?$CFd?6@ DB '%d %d', 0aH, 00H	; `string'
CONST	ENDS
;	COMDAT ??_C@_0DD@DCHMIIOP@MarkManager?3?3SaveMarkData?3?5cann@
CONST	SEGMENT
??_C@_0DD@DCHMIIOP@MarkManager?3?3SaveMarkData?3?5cann@ DB 'MarkManager::'
	DB	'SaveMarkData: cannot open index file.', 00H	; `string'
CONST	ENDS
;	COMDAT ??_C@_01NOFIACDB@w@
CONST	SEGMENT
??_C@_01NOFIACDB@w@ DB 'w', 00H				; `string'
CONST	ENDS
;	COMDAT ??_C@_07HJBKDJLI@?$CFlu?5?$CFlu@
CONST	SEGMENT
??_C@_07HJBKDJLI@?$CFlu?5?$CFlu@ DB '%lu %lu', 00H	; `string'
CONST	ENDS
;	COMDAT ??_C@_01KDCPPGHE@r@
CONST	SEGMENT
??_C@_01KDCPPGHE@r@ DB 'r', 00H				; `string'
CONST	ENDS
;	COMDAT ??_C@_0O@OILHOJMF@mark?1?$CFs_index@
CONST	SEGMENT
??_C@_0O@OILHOJMF@mark?1?$CFs_index@ DB 'mark/%s_index', 00H ; `string'
CONST	ENDS
;	COMDAT ??_C@_0BA@BKPHNHHG@mark?1?$CFs_?$CFlu?4tga@
CONST	SEGMENT
??_C@_0BA@BKPHNHHG@mark?1?$CFs_?$CFlu?4tga@ DB 'mark/%s_%lu.tga', 00H ; `string'
CONST	ENDS
;	COMDAT ??_C@_04KJJCFCK@mark@
CONST	SEGMENT
??_C@_04KJJCFCK@mark@ DB 'mark', 00H			; `string'
PUBLIC	__snprintf
PUBLIC	__vsnprintf
PUBLIC	_fprintf
PUBLIC	??0?$tuple@$$V@std@@QAE@ABV01@@Z		; std::tuple<>::tuple<>
PUBLIC	??$forward@K@std@@YA$$QAKAAK@Z			; std::forward<unsigned long>
PUBLIC	??$construct_at@EABE$0A@@std@@YAPAEQAEABE@Z	; std::construct_at<unsigned char,unsigned char const &,0>
PUBLIC	??$move@AAV?$tuple@ABK@std@@@std@@YA$$QAV?$tuple@ABK@0@AAV10@@Z ; std::move<std::tuple<unsigned long const &> &>
PUBLIC	??$construct@EABE@?$_Default_allocator_traits@V?$allocator@E@std@@@std@@SAXAAV?$allocator@E@1@QAEABE@Z ; std::_Default_allocator_traits<std::allocator<unsigned char> >::construct<unsigned char,unsigned char const &>
PUBLIC	??$construct_at@E$$V$0A@@std@@YAPAEQAE@Z	; std::construct_at<unsigned char,0>
PUBLIC	??$_Tuple_get@$0A@ABK@std@@YA$$QA_P$$QAV?$tuple@ABK@0@@Z ; std::_Tuple_get<0,unsigned long const &>
PUBLIC	??$?0ABK@?$_Tuple_val@ABK@std@@QAE@ABK@Z	; std::_Tuple_val<unsigned long const &>::_Tuple_val<unsigned long const &><unsigned long const &>
PUBLIC	??$?0U_Exact_args_t@std@@$0A@@?$tuple@$$V@std@@QAE@U_Exact_args_t@1@@Z ; std::tuple<>::tuple<><std::_Exact_args_t,0>
PUBLIC	??$construct_at@PAU?$_Tree_node@U?$pair@$$CBKPAVCGuildMarkImage@@@std@@PAX@std@@AAPAU12@$0A@@std@@YAPAPAU?$_Tree_node@U?$pair@$$CBKPAVCGuildMarkImage@@@std@@PAX@0@QAPAU10@AAPAU10@@Z ; std::construct_at<std::_Tree_node<std::pair<unsigned long const ,CGuildMarkImage *>,void *> *,std::_Tree_node<std::pair<unsigned long const ,CGuildMarkImage *>,void *> * &,0>
PUBLIC	??$_Voidify_iter@PAU?$pair@$$CBKPAVCGuildMarkImage@@@std@@@std@@YAPAXPAU?$pair@$$CBKPAVCGuildMarkImage@@@0@@Z ; std::_Voidify_iter<std::pair<unsigned long const ,CGuildMarkImage *> *>
PUBLIC	??$construct_at@U?$pair@$$CBKPAVCGuildMarkImage@@@std@@U12@$0A@@std@@YAPAU?$pair@$$CBKPAVCGuildMarkImage@@@0@QAU10@$$QAU10@@Z ; std::construct_at<std::pair<unsigned long const ,CGuildMarkImage *>,std::pair<unsigned long const ,CGuildMarkImage *>,0>
PUBLIC	??$_Emplace_reallocate@ABE@?$vector@EV?$allocator@E@std@@@std@@AAEPAEQAEABE@Z ; std::vector<unsigned char,std::allocator<unsigned char> >::_Emplace_reallocate<unsigned char const &>
PUBLIC	??$forward@ABE@std@@YAABEABE@Z			; std::forward<unsigned char const &>
PUBLIC	??$_Voidify_iter@PAE@std@@YAPAXPAE@Z		; std::_Voidify_iter<unsigned char *>
PUBLIC	??$construct_at@EE$0A@@std@@YAPAEQAE$$QAE@Z	; std::construct_at<unsigned char,unsigned char,0>
PUBLIC	??$construct@E$$V@?$_Default_allocator_traits@V?$allocator@E@std@@@std@@SAXAAV?$allocator@E@1@QAE@Z ; std::_Default_allocator_traits<std::allocator<unsigned char> >::construct<unsigned char>
PUBLIC	??$destroy_at@U?$pair@$$CBKPAVCGuildMarkImage@@@std@@@std@@YAXQAU?$pair@$$CBKPAVCGuildMarkImage@@@0@@Z ; std::destroy_at<std::pair<unsigned long const ,CGuildMarkImage *> >
PUBLIC	??$?0U_Exact_args_t@std@@ABK$$V$0A@@?$tuple@ABK@std@@QAE@U_Exact_args_t@1@ABK@Z ; std::tuple<unsigned long const &>::tuple<unsigned long const &><std::_Exact_args_t,unsigned long const &,0>
PUBLIC	??$forward@PAU?$_Tree_node@U?$pair@$$CBKPAVCGuildMarkImage@@@std@@PAX@std@@@std@@YA$$QAPAU?$_Tree_node@U?$pair@$$CBKPAVCGuildMarkImage@@@std@@PAX@0@AAPAU10@@Z ; std::forward<std::_Tree_node<std::pair<unsigned long const ,CGuildMarkImage *>,void *> *>
PUBLIC	??$forward@AAPAU?$_Tree_node@U?$pair@$$CBKPAVCGuildMarkImage@@@std@@PAX@std@@@std@@YAAAPAU?$_Tree_node@U?$pair@$$CBKPAVCGuildMarkImage@@@std@@PAX@0@AAPAU10@@Z ; std::forward<std::_Tree_node<std::pair<unsigned long const ,CGuildMarkImage *>,void *> * &>
PUBLIC	??$_Construct_in_place@PAU?$_Tree_node@U?$pair@$$CBKPAVCGuildMarkImage@@@std@@PAX@std@@AAPAU12@@std@@YAXAAPAU?$_Tree_node@U?$pair@$$CBKPAVCGuildMarkImage@@@std@@PAX@0@0@Z ; std::_Construct_in_place<std::_Tree_node<std::pair<unsigned long const ,CGuildMarkImage *>,void *> *,std::_Tree_node<std::pair<unsigned long const ,CGuildMarkImage *>,void *> * &>
PUBLIC	??$construct@U?$pair@$$CBKPAVCGuildMarkImage@@@std@@U12@@?$_Default_allocator_traits@V?$allocator@U?$_Tree_node@U?$pair@$$CBKPAVCGuildMarkImage@@@std@@PAX@std@@@std@@@std@@SAXAAV?$allocator@U?$_Tree_node@U?$pair@$$CBKPAVCGuildMarkImage@@@std@@PAX@std@@@1@QAU?$pair@$$CBKPAVCGuildMarkImage@@@1@$$QAU31@@Z ; std::_Default_allocator_traits<std::allocator<std::_Tree_node<std::pair<unsigned long const ,CGuildMarkImage *>,void *> > >::construct<std::pair<unsigned long const ,CGuildMarkImage *>,std::pair<unsigned long const ,CGuildMarkImage *> >
PUBLIC	??0?$_Alloc_construct_ptr@V?$allocator@U?$_Tree_node@U?$pair@$$CBKPAVCGuildMarkImage@@@std@@PAX@std@@@std@@@std@@QAE@AAV?$allocator@U?$_Tree_node@U?$pair@$$CBKPAVCGuildMarkImage@@@std@@PAX@std@@@1@@Z ; std::_Alloc_construct_ptr<std::allocator<std::_Tree_node<std::pair<unsigned long const ,CGuildMarkImage *>,void *> > >::_Alloc_construct_ptr<std::allocator<std::_Tree_node<std::pair<unsigned long const ,CGuildMarkImage *>,void *> > >
PUBLIC	?_Allocate@?$_Alloc_construct_ptr@V?$allocator@U?$_Tree_node@U?$pair@$$CBKPAVCGuildMarkImage@@@std@@PAX@std@@@std@@@std@@QAEXXZ ; std::_Alloc_construct_ptr<std::allocator<std::_Tree_node<std::pair<unsigned long const ,CGuildMarkImage *>,void *> > >::_Allocate
PUBLIC	??0?$_Tree_temp_node_alloc@V?$allocator@U?$_Tree_node@U?$pair@$$CBKPAVCGuildMarkImage@@@std@@PAX@std@@@std@@@std@@QAE@AAV?$allocator@U?$_Tree_node@U?$pair@$$CBKPAVCGuildMarkImage@@@std@@PAX@std@@@1@@Z ; std::_Tree_temp_node_alloc<std::allocator<std::_Tree_node<std::pair<unsigned long const ,CGuildMarkImage *>,void *> > >::_Tree_temp_node_alloc<std::allocator<std::_Tree_node<std::pair<unsigned long const ,CGuildMarkImage *>,void *> > >
PUBLIC	??_G?$pair@$$CBKUTGuildSymbol@CGuildMarkManager@@@std@@QAEPAXI@Z ; std::pair<unsigned long const ,CGuildMarkManager::TGuildSymbol>::`scalar deleting destructor'
PUBLIC	??0?$tuple@ABK@std@@QAE@$$QAV01@@Z		; std::tuple<unsigned long const &>::tuple<unsigned long const &>
PUBLIC	??$exchange@PAU?$_Tree_node@U?$pair@$$CBKPAVCGuildMarkImage@@@std@@PAX@std@@$$T@std@@YAPAU?$_Tree_node@U?$pair@$$CBKPAVCGuildMarkImage@@@std@@PAX@0@AAPAU10@$$QA$$T@Z ; std::exchange<std::_Tree_node<std::pair<unsigned long const ,CGuildMarkImage *>,void *> *,std::nullptr_t>
PUBLIC	??1?$pair@$$CBKUTGuildSymbol@CGuildMarkManager@@@std@@QAE@XZ ; std::pair<unsigned long const ,CGuildMarkManager::TGuildSymbol>::~pair<unsigned long const ,CGuildMarkManager::TGuildSymbol>
PUBLIC	??$destroy_at@U?$pair@$$CBKUTGuildSymbol@CGuildMarkManager@@@std@@@std@@YAXQAU?$pair@$$CBKUTGuildSymbol@CGuildMarkManager@@@0@@Z ; std::destroy_at<std::pair<unsigned long const ,CGuildMarkManager::TGuildSymbol> >
PUBLIC	??$_Voidify_iter@PAPAU?$_Tree_node@U?$pair@$$CBKPAVCGuildMarkImage@@@std@@PAX@std@@@std@@YAPAXPAPAU?$_Tree_node@U?$pair@$$CBKPAVCGuildMarkImage@@@std@@PAX@0@@Z ; std::_Voidify_iter<std::_Tree_node<std::pair<unsigned long const ,CGuildMarkImage *>,void *> * *>
PUBLIC	??$construct_at@PAU?$_Tree_node@U?$pair@$$CBKPAVCGuildMarkImage@@@std@@PAX@std@@ABQAU12@$0A@@std@@YAPAPAU?$_Tree_node@U?$pair@$$CBKPAVCGuildMarkImage@@@std@@PAX@0@QAPAU10@ABQAU10@@Z ; std::construct_at<std::_Tree_node<std::pair<unsigned long const ,CGuildMarkImage *>,void *> *,std::_Tree_node<std::pair<unsigned long const ,CGuildMarkImage *>,void *> * const &,0>
PUBLIC	??$forward@ABQAU?$_Tree_node@U?$pair@$$CBKPAVCGuildMarkImage@@@std@@PAX@std@@@std@@YAABQAU?$_Tree_node@U?$pair@$$CBKPAVCGuildMarkImage@@@std@@PAX@0@ABQAU10@@Z ; std::forward<std::_Tree_node<std::pair<unsigned long const ,CGuildMarkImage *>,void *> * const &>
PUBLIC	??$addressof@PAU?$_Tree_node@U?$pair@$$CBKPAVCGuildMarkImage@@@std@@PAX@std@@@std@@YAPAPAU?$_Tree_node@U?$pair@$$CBKPAVCGuildMarkImage@@@std@@PAX@0@AAPAU10@@Z ; std::addressof<std::_Tree_node<std::pair<unsigned long const ,CGuildMarkImage *>,void *> *>
PUBLIC	??$_Voidify_iter@PAPAU?$_Tree_node@U?$pair@$$CBKUTGuildSymbol@CGuildMarkManager@@@std@@PAX@std@@@std@@YAPAXPAPAU?$_Tree_node@U?$pair@$$CBKUTGuildSymbol@CGuildMarkManager@@@std@@PAX@0@@Z ; std::_Voidify_iter<std::_Tree_node<std::pair<unsigned long const ,CGuildMarkManager::TGuildSymbol>,void *> * *>
PUBLIC	??$construct_at@PAU?$_Tree_node@U?$pair@$$CBKUTGuildSymbol@CGuildMarkManager@@@std@@PAX@std@@ABQAU12@$0A@@std@@YAPAPAU?$_Tree_node@U?$pair@$$CBKUTGuildSymbol@CGuildMarkManager@@@std@@PAX@0@QAPAU10@ABQAU10@@Z ; std::construct_at<std::_Tree_node<std::pair<unsigned long const ,CGuildMarkManager::TGuildSymbol>,void *> *,std::_Tree_node<std::pair<unsigned long const ,CGuildMarkManager::TGuildSymbol>,void *> * const &,0>
PUBLIC	??$addressof@PAU?$_Tree_node@U?$pair@$$CBKUTGuildSymbol@CGuildMarkManager@@@std@@PAX@std@@@std@@YAPAPAU?$_Tree_node@U?$pair@$$CBKUTGuildSymbol@CGuildMarkManager@@@std@@PAX@0@AAPAU10@@Z ; std::addressof<std::_Tree_node<std::pair<unsigned long const ,CGuildMarkManager::TGuildSymbol>,void *> *>
PUBLIC	??$construct@EE@?$_Default_allocator_traits@V?$allocator@E@std@@@std@@SAXAAV?$allocator@E@1@QAE$$QAE@Z ; std::_Default_allocator_traits<std::allocator<unsigned char> >::construct<unsigned char,unsigned char>
PUBLIC	??$forward@E@std@@YA$$QAEAAE@Z			; std::forward<unsigned char>
PUBLIC	??$to_address@E@std@@YAPAEQAE@Z			; std::to_address<unsigned char>
PUBLIC	??$_Emplace_back@$$V@?$_Uninitialized_backout_al@V?$allocator@E@std@@@std@@QAEXXZ ; std::_Uninitialized_backout_al<std::allocator<unsigned char> >::_Emplace_back<>
PUBLIC	??$_Zero_range@PAE@std@@YAPAEQAE0@Z		; std::_Zero_range<unsigned char *>
PUBLIC	??$_Destroy_in_place@PAU?$_Tree_node@U?$pair@$$CBKPAVCGuildMarkImage@@@std@@PAX@std@@@std@@YAXAAPAU?$_Tree_node@U?$pair@$$CBKPAVCGuildMarkImage@@@std@@PAX@0@@Z ; std::_Destroy_in_place<std::_Tree_node<std::pair<unsigned long const ,CGuildMarkImage *>,void *> *>
PUBLIC	??$destroy@U?$pair@$$CBKPAVCGuildMarkImage@@@std@@@?$_Default_allocator_traits@V?$allocator@U?$_Tree_node@U?$pair@$$CBKPAVCGuildMarkImage@@@std@@PAX@std@@@std@@@std@@SAXAAV?$allocator@U?$_Tree_node@U?$pair@$$CBKPAVCGuildMarkImage@@@std@@PAX@std@@@1@QAU?$pair@$$CBKPAVCGuildMarkImage@@@1@@Z ; std::_Default_allocator_traits<std::allocator<std::_Tree_node<std::pair<unsigned long const ,CGuildMarkImage *>,void *> > >::destroy<std::pair<unsigned long const ,CGuildMarkImage *> >
PUBLIC	??$_Kfn@$$CBKPAVCGuildMarkImage@@@?$_Tmap_traits@KPAVCGuildMarkImage@@U?$less@K@std@@V?$allocator@U?$pair@$$CBKPAVCGuildMarkImage@@@std@@@3@$0A@@std@@SAABKABU?$pair@$$CBKPAVCGuildMarkImage@@@1@@Z ; std::_Tmap_traits<unsigned long,CGuildMarkImage *,std::less<unsigned long>,std::allocator<std::pair<unsigned long const ,CGuildMarkImage *> >,0>::_Kfn<unsigned long const ,CGuildMarkImage *>
PUBLIC	??$_Freenode@V?$allocator@U?$_Tree_node@U?$pair@$$CBKUTGuildSymbol@CGuildMarkManager@@@std@@PAX@std@@@std@@@?$_Tree_node@U?$pair@$$CBKUTGuildSymbol@CGuildMarkManager@@@std@@PAX@std@@SAXAAV?$allocator@U?$_Tree_node@U?$pair@$$CBKUTGuildSymbol@CGuildMarkManager@@@std@@PAX@std@@@1@PAU01@@Z ; std::_Tree_node<std::pair<unsigned long const ,CGuildMarkManager::TGuildSymbol>,void *>::_Freenode<std::allocator<std::_Tree_node<std::pair<unsigned long const ,CGuildMarkManager::TGuildSymbol>,void *> > >
PUBLIC	??$exchange@PAU?$_Tree_node@U?$pair@$$CBKUTGuildSymbol@CGuildMarkManager@@@std@@PAX@std@@AAPAU12@@std@@YAPAU?$_Tree_node@U?$pair@$$CBKUTGuildSymbol@CGuildMarkManager@@@std@@PAX@0@AAPAU10@0@Z ; std::exchange<std::_Tree_node<std::pair<unsigned long const ,CGuildMarkManager::TGuildSymbol>,void *> *,std::_Tree_node<std::pair<unsigned long const ,CGuildMarkManager::TGuildSymbol>,void *> * &>
PUBLIC	??$forward@ABQAU?$_Tree_node@U?$pair@$$CBKUTGuildSymbol@CGuildMarkManager@@@std@@PAX@std@@@std@@YAABQAU?$_Tree_node@U?$pair@$$CBKUTGuildSymbol@CGuildMarkManager@@@std@@PAX@0@ABQAU10@@Z ; std::forward<std::_Tree_node<std::pair<unsigned long const ,CGuildMarkManager::TGuildSymbol>,void *> * const &>
PUBLIC	??$forward@V?$tuple@$$V@std@@@std@@YA$$QAV?$tuple@$$V@0@AAV10@@Z ; std::forward<std::tuple<> >
PUBLIC	??$forward@V?$tuple@ABK@std@@@std@@YA$$QAV?$tuple@ABK@0@AAV10@@Z ; std::forward<std::tuple<unsigned long const &> >
PUBLIC	??$forward@ABUpiecewise_construct_t@std@@@std@@YAABUpiecewise_construct_t@0@ABU10@@Z ; std::forward<std::piecewise_construct_t const &>
PUBLIC	??$?0ABK$0A@@?$tuple@ABK@std@@QAE@ABK@Z		; std::tuple<unsigned long const &>::tuple<unsigned long const &><unsigned long const &,0>
PUBLIC	??$forward@V?$_Tree_iterator@V?$_Tree_val@U?$_Tree_simple_types@U?$pair@$$CBKPAVCGuildMarkImage@@@std@@@std@@@std@@@std@@@std@@YA$$QAV?$_Tree_iterator@V?$_Tree_val@U?$_Tree_simple_types@U?$pair@$$CBKPAVCGuildMarkImage@@@std@@@std@@@std@@@0@AAV10@@Z ; std::forward<std::_Tree_iterator<std::_Tree_val<std::_Tree_simple_types<std::pair<unsigned long const ,CGuildMarkImage *> > > > >
PUBLIC	??$?0PAU?$_Tree_node@U?$pair@$$CBKPAVCGuildMarkImage@@@std@@PAX@std@@_N$0A@@?$pair@PAU?$_Tree_node@U?$pair@$$CBKPAVCGuildMarkImage@@@std@@PAX@std@@_N@std@@QAE@$$QAPAU?$_Tree_node@U?$pair@$$CBKPAVCGuildMarkImage@@@std@@PAX@1@$$QA_N@Z ; std::pair<std::_Tree_node<std::pair<unsigned long const ,CGuildMarkImage *>,void *> *,bool>::pair<std::_Tree_node<std::pair<unsigned long const ,CGuildMarkImage *>,void *> *,bool><std::_Tree_node<std::pair<unsigned long const ,CGuildMarkImage *>,void *> *,bool,0>
PUBLIC	??$?0AAPAU?$_Tree_node@U?$pair@$$CBKPAVCGuildMarkImage@@@std@@PAX@std@@_N$0A@@?$pair@PAU?$_Tree_node@U?$pair@$$CBKPAVCGuildMarkImage@@@std@@PAX@std@@_N@std@@QAE@AAPAU?$_Tree_node@U?$pair@$$CBKPAVCGuildMarkImage@@@std@@PAX@1@$$QA_N@Z ; std::pair<std::_Tree_node<std::pair<unsigned long const ,CGuildMarkImage *>,void *> *,bool>::pair<std::_Tree_node<std::pair<unsigned long const ,CGuildMarkImage *>,void *> *,bool><std::_Tree_node<std::pair<unsigned long const ,CGuildMarkImage *>,void *> * &,bool,0>
PUBLIC	??$?0U?$pair@$$CBKPAVCGuildMarkImage@@@std@@@?$_Tree_temp_node@V?$allocator@U?$_Tree_node@U?$pair@$$CBKPAVCGuildMarkImage@@@std@@PAX@std@@@std@@@std@@QAE@AAV?$allocator@U?$_Tree_node@U?$pair@$$CBKPAVCGuildMarkImage@@@std@@PAX@std@@@1@PAU?$_Tree_node@U?$pair@$$CBKPAVCGuildMarkImage@@@std@@PAX@1@$$QAU?$pair@$$CBKPAVCGuildMarkImage@@@1@@Z ; std::_Tree_temp_node<std::allocator<std::_Tree_node<std::pair<unsigned long const ,CGuildMarkImage *>,void *> > >::_Tree_temp_node<std::allocator<std::_Tree_node<std::pair<unsigned long const ,CGuildMarkImage *>,void *> > ><std::pair<unsigned long const ,CGuildMarkImage *> >
PUBLIC	??$forward@U?$pair@$$CBKPAVCGuildMarkImage@@@std@@@std@@YA$$QAU?$pair@$$CBKPAVCGuildMarkImage@@@0@AAU10@@Z ; std::forward<std::pair<unsigned long const ,CGuildMarkImage *> >
PUBLIC	?_Get_first@?$_Compressed_pair@V?$allocator@U?$_Tree_node@U?$pair@$$CBKPAVCGuildMarkImage@@@std@@PAX@std@@@std@@V?$_Tree_val@U?$_Tree_simple_types@U?$pair@$$CBKPAVCGuildMarkImage@@@std@@@std@@@2@$00@std@@QBEABV?$allocator@U?$_Tree_node@U?$pair@$$CBKPAVCGuildMarkImage@@@std@@PAX@std@@@2@XZ ; std::_Compressed_pair<std::allocator<std::_Tree_node<std::pair<unsigned long const ,CGuildMarkImage *>,void *> >,std::_Tree_val<std::_Tree_simple_types<std::pair<unsigned long const ,CGuildMarkImage *> > >,1>::_Get_first
PUBLIC	?max_size@?$_Default_allocator_traits@V?$allocator@U?$_Tree_node@U?$pair@$$CBKPAVCGuildMarkImage@@@std@@PAX@std@@@std@@@std@@SAIABV?$allocator@U?$_Tree_node@U?$pair@$$CBKPAVCGuildMarkImage@@@std@@PAX@std@@@2@@Z ; std::_Default_allocator_traits<std::allocator<std::_Tree_node<std::pair<unsigned long const ,CGuildMarkImage *>,void *> > >::max_size
PUBLIC	?_Getal@?$_Tree@V?$_Tmap_traits@KPAVCGuildMarkImage@@U?$less@K@std@@V?$allocator@U?$pair@$$CBKPAVCGuildMarkImage@@@std@@@3@$0A@@std@@@std@@IBEABV?$allocator@U?$_Tree_node@U?$pair@$$CBKPAVCGuildMarkImage@@@std@@PAX@std@@@2@XZ ; std::_Tree<std::_Tmap_traits<unsigned long,CGuildMarkImage *,std::less<unsigned long>,std::allocator<std::pair<unsigned long const ,CGuildMarkImage *> >,0> >::_Getal
PUBLIC	?deallocate@?$allocator@U?$_Tree_node@U?$pair@$$CBKPAVCGuildMarkImage@@@std@@PAX@std@@@std@@QAEXQAU?$_Tree_node@U?$pair@$$CBKPAVCGuildMarkImage@@@std@@PAX@2@I@Z ; std::allocator<std::_Tree_node<std::pair<unsigned long const ,CGuildMarkImage *>,void *> >::deallocate
PUBLIC	?max_size@?$_Tree@V?$_Tmap_traits@KPAVCGuildMarkImage@@U?$less@K@std@@V?$allocator@U?$pair@$$CBKPAVCGuildMarkImage@@@std@@@3@$0A@@std@@@std@@QBEIXZ ; std::_Tree<std::_Tmap_traits<unsigned long,CGuildMarkImage *,std::less<unsigned long>,std::allocator<std::pair<unsigned long const ,CGuildMarkImage *> >,0> >::max_size
PUBLIC	?_Lrotate@?$_Tree_val@U?$_Tree_simple_types@U?$pair@$$CBKPAVCGuildMarkImage@@@std@@@std@@@std@@QAEXPAU?$_Tree_node@U?$pair@$$CBKPAVCGuildMarkImage@@@std@@PAX@2@@Z ; std::_Tree_val<std::_Tree_simple_types<std::pair<unsigned long const ,CGuildMarkImage *> > >::_Lrotate
PUBLIC	?_Rrotate@?$_Tree_val@U?$_Tree_simple_types@U?$pair@$$CBKPAVCGuildMarkImage@@@std@@@std@@@std@@QAEXPAU?$_Tree_node@U?$pair@$$CBKPAVCGuildMarkImage@@@std@@PAX@2@@Z ; std::_Tree_val<std::_Tree_simple_types<std::pair<unsigned long const ,CGuildMarkImage *> > >::_Rrotate
PUBLIC	?_Get_first@?$_Compressed_pair@U?$less@K@std@@V?$_Compressed_pair@V?$allocator@U?$_Tree_node@U?$pair@$$CBKPAVCGuildMarkImage@@@std@@PAX@std@@@std@@V?$_Tree_val@U?$_Tree_simple_types@U?$pair@$$CBKPAVCGuildMarkImage@@@std@@@std@@@2@$00@2@$00@std@@QBEABU?$less@K@2@XZ ; std::_Compressed_pair<std::less<unsigned long>,std::_Compressed_pair<std::allocator<std::_Tree_node<std::pair<unsigned long const ,CGuildMarkImage *>,void *> >,std::_Tree_val<std::_Tree_simple_types<std::pair<unsigned long const ,CGuildMarkImage *> > >,1>,1>::_Get_first
PUBLIC	??1?$_Alloc_construct_ptr@V?$allocator@U?$_Tree_node@U?$pair@$$CBKPAVCGuildMarkImage@@@std@@PAX@std@@@std@@@std@@QAE@XZ ; std::_Alloc_construct_ptr<std::allocator<std::_Tree_node<std::pair<unsigned long const ,CGuildMarkImage *>,void *> > >::~_Alloc_construct_ptr<std::allocator<std::_Tree_node<std::pair<unsigned long const ,CGuildMarkImage *>,void *> > >
PUBLIC	??1?$_Tree_temp_node_alloc@V?$allocator@U?$_Tree_node@U?$pair@$$CBKPAVCGuildMarkImage@@@std@@PAX@std@@@std@@@std@@QAE@XZ ; std::_Tree_temp_node_alloc<std::allocator<std::_Tree_node<std::pair<unsigned long const ,CGuildMarkImage *>,void *> > >::~_Tree_temp_node_alloc<std::allocator<std::_Tree_node<std::pair<unsigned long const ,CGuildMarkImage *>,void *> > >
PUBLIC	?_Calculate_growth@?$vector@EV?$allocator@E@std@@@std@@ABEII@Z ; std::vector<unsigned char,std::allocator<unsigned char> >::_Calculate_growth
PUBLIC	??0?$allocator@U?$_Tree_node@U?$pair@$$CBKPAVCGuildMarkImage@@@std@@PAX@std@@@std@@QAE@XZ ; std::allocator<std::_Tree_node<std::pair<unsigned long const ,CGuildMarkImage *>,void *> >::allocator<std::_Tree_node<std::pair<unsigned long const ,CGuildMarkImage *>,void *> >
PUBLIC	?deallocate@?$_Default_allocator_traits@V?$allocator@U?$_Tree_node@U?$pair@$$CBKPAVCGuildMarkImage@@@std@@PAX@std@@@std@@@std@@SAXAAV?$allocator@U?$_Tree_node@U?$pair@$$CBKPAVCGuildMarkImage@@@std@@PAX@std@@@2@QAU?$_Tree_node@U?$pair@$$CBKPAVCGuildMarkImage@@@std@@PAX@2@I@Z ; std::_Default_allocator_traits<std::allocator<std::_Tree_node<std::pair<unsigned long const ,CGuildMarkImage *>,void *> > >::deallocate
PUBLIC	?_Check_grow_by_1@?$_Tree@V?$_Tmap_traits@KPAVCGuildMarkImage@@U?$less@K@std@@V?$allocator@U?$pair@$$CBKPAVCGuildMarkImage@@@std@@@3@$0A@@std@@@std@@IAEXXZ ; std::_Tree<std::_Tmap_traits<unsigned long,CGuildMarkImage *,std::less<unsigned long>,std::allocator<std::pair<unsigned long const ,CGuildMarkImage *> >,0> >::_Check_grow_by_1
PUBLIC	?_Getcomp@?$_Tree@V?$_Tmap_traits@KPAVCGuildMarkImage@@U?$less@K@std@@V?$allocator@U?$pair@$$CBKPAVCGuildMarkImage@@@std@@@3@$0A@@std@@@std@@IBEABU?$less@K@2@XZ ; std::_Tree<std::_Tmap_traits<unsigned long,CGuildMarkImage *,std::less<unsigned long>,std::allocator<std::pair<unsigned long const ,CGuildMarkImage *> >,0> >::_Getcomp
PUBLIC	??0?$_Tree_val@U?$_Tree_simple_types@U?$pair@$$CBKPAVCGuildMarkImage@@@std@@@std@@@std@@QAE@XZ ; std::_Tree_val<std::_Tree_simple_types<std::pair<unsigned long const ,CGuildMarkImage *> > >::_Tree_val<std::_Tree_simple_types<std::pair<unsigned long const ,CGuildMarkImage *> > >
PUBLIC	?_Insert_node@?$_Tree_val@U?$_Tree_simple_types@U?$pair@$$CBKPAVCGuildMarkImage@@@std@@@std@@@std@@QAEPAU?$_Tree_node@U?$pair@$$CBKPAVCGuildMarkImage@@@std@@PAX@2@U?$_Tree_id@PAU?$_Tree_node@U?$pair@$$CBKPAVCGuildMarkImage@@@std@@PAX@std@@@2@QAU32@@Z ; std::_Tree_val<std::_Tree_simple_types<std::pair<unsigned long const ,CGuildMarkImage *> > >::_Insert_node
PUBLIC	??0?$allocator@U?$_Tree_node@U?$pair@$$CBKUTGuildSymbol@CGuildMarkManager@@@std@@PAX@std@@@std@@QAE@XZ ; std::allocator<std::_Tree_node<std::pair<unsigned long const ,CGuildMarkManager::TGuildSymbol>,void *> >::allocator<std::_Tree_node<std::pair<unsigned long const ,CGuildMarkManager::TGuildSymbol>,void *> >
PUBLIC	?deallocate@?$_Default_allocator_traits@V?$allocator@U?$_Tree_node@U?$pair@$$CBKUTGuildSymbol@CGuildMarkManager@@@std@@PAX@std@@@std@@@std@@SAXAAV?$allocator@U?$_Tree_node@U?$pair@$$CBKUTGuildSymbol@CGuildMarkManager@@@std@@PAX@std@@@2@QAU?$_Tree_node@U?$pair@$$CBKUTGuildSymbol@CGuildMarkManager@@@std@@PAX@2@I@Z ; std::_Default_allocator_traits<std::allocator<std::_Tree_node<std::pair<unsigned long const ,CGuildMarkManager::TGuildSymbol>,void *> > >::deallocate
PUBLIC	??0?$_Tree_val@U?$_Tree_simple_types@U?$pair@$$CBKUTGuildSymbol@CGuildMarkManager@@@std@@@std@@@std@@QAE@XZ ; std::_Tree_val<std::_Tree_simple_types<std::pair<unsigned long const ,CGuildMarkManager::TGuildSymbol> > >::_Tree_val<std::_Tree_simple_types<std::pair<unsigned long const ,CGuildMarkManager::TGuildSymbol> > >
PUBLIC	?_Release@?$_Alloc_construct_ptr@V?$allocator@U?$_Tree_node@U?$pair@$$CBKPAVCGuildMarkImage@@@std@@PAX@std@@@std@@@std@@QAEPAU?$_Tree_node@U?$pair@$$CBKPAVCGuildMarkImage@@@std@@PAX@2@XZ ; std::_Alloc_construct_ptr<std::allocator<std::_Tree_node<std::pair<unsigned long const ,CGuildMarkImage *>,void *> > >::_Release
PUBLIC	??1?$_Tree_temp_node@V?$allocator@U?$_Tree_node@U?$pair@$$CBKPAVCGuildMarkImage@@@std@@PAX@std@@@std@@@std@@QAE@XZ ; std::_Tree_temp_node<std::allocator<std::_Tree_node<std::pair<unsigned long const ,CGuildMarkImage *>,void *> > >::~_Tree_temp_node<std::allocator<std::_Tree_node<std::pair<unsigned long const ,CGuildMarkImage *>,void *> > >
PUBLIC	?_Extract@?$_In_place_key_extract_map@KU?$pair@$$CBKPAVCGuildMarkImage@@@std@@@std@@SAABKABU?$pair@$$CBKPAVCGuildMarkImage@@@2@@Z ; std::_In_place_key_extract_map<unsigned long,std::pair<unsigned long const ,CGuildMarkImage *> >::_Extract
PUBLIC	??$_Get_size_of_n@$0CE@@std@@YAII@Z		; std::_Get_size_of_n<36>
PUBLIC	??$destroy@U?$pair@$$CBKUTGuildSymbol@CGuildMarkManager@@@std@@@?$_Default_allocator_traits@V?$allocator@U?$_Tree_node@U?$pair@$$CBKUTGuildSymbol@CGuildMarkManager@@@std@@PAX@std@@@std@@@std@@SAXAAV?$allocator@U?$_Tree_node@U?$pair@$$CBKUTGuildSymbol@CGuildMarkManager@@@std@@PAX@std@@@1@QAU?$pair@$$CBKUTGuildSymbol@CGuildMarkManager@@@1@@Z ; std::_Default_allocator_traits<std::allocator<std::_Tree_node<std::pair<unsigned long const ,CGuildMarkManager::TGuildSymbol>,void *> > >::destroy<std::pair<unsigned long const ,CGuildMarkManager::TGuildSymbol> >
PUBLIC	??$_Destroy_in_place@PAU?$_Tree_node@U?$pair@$$CBKUTGuildSymbol@CGuildMarkManager@@@std@@PAX@std@@@std@@YAXAAPAU?$_Tree_node@U?$pair@$$CBKUTGuildSymbol@CGuildMarkManager@@@std@@PAX@0@@Z ; std::_Destroy_in_place<std::_Tree_node<std::pair<unsigned long const ,CGuildMarkManager::TGuildSymbol>,void *> *>
PUBLIC	??$_Construct_in_place@PAU?$_Tree_node@U?$pair@$$CBKPAVCGuildMarkImage@@@std@@PAX@std@@ABQAU12@@std@@YAXAAPAU?$_Tree_node@U?$pair@$$CBKPAVCGuildMarkImage@@@std@@PAX@0@ABQAU10@@Z ; std::_Construct_in_place<std::_Tree_node<std::pair<unsigned long const ,CGuildMarkImage *>,void *> *,std::_Tree_node<std::pair<unsigned long const ,CGuildMarkImage *>,void *> * const &>
PUBLIC	??$_Construct_in_place@PAU?$_Tree_node@U?$pair@$$CBKUTGuildSymbol@CGuildMarkManager@@@std@@PAX@std@@ABQAU12@@std@@YAXAAPAU?$_Tree_node@U?$pair@$$CBKUTGuildSymbol@CGuildMarkManager@@@std@@PAX@0@ABQAU10@@Z ; std::_Construct_in_place<std::_Tree_node<std::pair<unsigned long const ,CGuildMarkManager::TGuildSymbol>,void *> *,std::_Tree_node<std::pair<unsigned long const ,CGuildMarkManager::TGuildSymbol>,void *> * const &>
PUBLIC	??$_Emplace_back@E@?$_Uninitialized_backout_al@V?$allocator@E@std@@@std@@QAEX$$QAE@Z ; std::_Uninitialized_backout_al<std::allocator<unsigned char> >::_Emplace_back<unsigned char>
PUBLIC	??$_To_address@PAE@std@@YA?A_PABQAE@Z		; std::_To_address<unsigned char *>
PUBLIC	??$_Copy_memmove@PAEPAE@std@@YAPAEPAE00@Z	; std::_Copy_memmove<unsigned char *,unsigned char *>
PUBLIC	??$_Unfancy@E@std@@YAPAEPAE@Z			; std::_Unfancy<unsigned char>
PUBLIC	??$move@AAE@std@@YA$$QAEAAE@Z			; std::move<unsigned char &>
PUBLIC	??$_Uninitialized_value_construct_n@V?$allocator@E@std@@@std@@YAPAEPAEIAAV?$allocator@E@0@@Z ; std::_Uninitialized_value_construct_n<std::allocator<unsigned char> >
PUBLIC	??$_Resize_reallocate@U_Value_init_tag@std@@@?$vector@EV?$allocator@E@std@@@std@@AAEXIABU_Value_init_tag@1@@Z ; std::vector<unsigned char,std::allocator<unsigned char> >::_Resize_reallocate<std::_Value_init_tag>
PUBLIC	??$_Freenode0@V?$allocator@U?$_Tree_node@U?$pair@$$CBKPAVCGuildMarkImage@@@std@@PAX@std@@@std@@@?$_Tree_node@U?$pair@$$CBKPAVCGuildMarkImage@@@std@@PAX@std@@SAXAAV?$allocator@U?$_Tree_node@U?$pair@$$CBKPAVCGuildMarkImage@@@std@@PAX@std@@@1@PAU01@@Z ; std::_Tree_node<std::pair<unsigned long const ,CGuildMarkImage *>,void *>::_Freenode0<std::allocator<std::_Tree_node<std::pair<unsigned long const ,CGuildMarkImage *>,void *> > >
PUBLIC	??$_Freenode@V?$allocator@U?$_Tree_node@U?$pair@$$CBKPAVCGuildMarkImage@@@std@@PAX@std@@@std@@@?$_Tree_node@U?$pair@$$CBKPAVCGuildMarkImage@@@std@@PAX@std@@SAXAAV?$allocator@U?$_Tree_node@U?$pair@$$CBKPAVCGuildMarkImage@@@std@@PAX@std@@@1@PAU01@@Z ; std::_Tree_node<std::pair<unsigned long const ,CGuildMarkImage *>,void *>::_Freenode<std::allocator<std::_Tree_node<std::pair<unsigned long const ,CGuildMarkImage *>,void *> > >
PUBLIC	??$exchange@PAU?$_Tree_node@U?$pair@$$CBKPAVCGuildMarkImage@@@std@@PAX@std@@AAPAU12@@std@@YAPAU?$_Tree_node@U?$pair@$$CBKPAVCGuildMarkImage@@@std@@PAX@0@AAPAU10@0@Z ; std::exchange<std::_Tree_node<std::pair<unsigned long const ,CGuildMarkImage *>,void *> *,std::_Tree_node<std::pair<unsigned long const ,CGuildMarkImage *>,void *> * &>
PUBLIC	??$_Lower_bound_duplicate@K@?$_Tree@V?$_Tmap_traits@KPAVCGuildMarkImage@@U?$less@K@std@@V?$allocator@U?$pair@$$CBKPAVCGuildMarkImage@@@std@@@3@$0A@@std@@@std@@IBE_NQAU?$_Tree_node@U?$pair@$$CBKPAVCGuildMarkImage@@@std@@PAX@1@ABK@Z ; std::_Tree<std::_Tmap_traits<unsigned long,CGuildMarkImage *,std::less<unsigned long>,std::allocator<std::pair<unsigned long const ,CGuildMarkImage *> >,0> >::_Lower_bound_duplicate<unsigned long>
PUBLIC	??$_Find_lower_bound@K@?$_Tree@V?$_Tmap_traits@KPAVCGuildMarkImage@@U?$less@K@std@@V?$allocator@U?$pair@$$CBKPAVCGuildMarkImage@@@std@@@3@$0A@@std@@@std@@IBE?AU?$_Tree_find_result@PAU?$_Tree_node@U?$pair@$$CBKPAVCGuildMarkImage@@@std@@PAX@std@@@1@ABK@Z ; std::_Tree<std::_Tmap_traits<unsigned long,CGuildMarkImage *,std::less<unsigned long>,std::allocator<std::pair<unsigned long const ,CGuildMarkImage *> >,0> >::_Find_lower_bound<unsigned long>
PUBLIC	??$_Freenode0@V?$allocator@U?$_Tree_node@U?$pair@$$CBKUTGuildSymbol@CGuildMarkManager@@@std@@PAX@std@@@std@@@?$_Tree_node@U?$pair@$$CBKUTGuildSymbol@CGuildMarkManager@@@std@@PAX@std@@SAXAAV?$allocator@U?$_Tree_node@U?$pair@$$CBKUTGuildSymbol@CGuildMarkManager@@@std@@PAX@std@@@1@PAU01@@Z ; std::_Tree_node<std::pair<unsigned long const ,CGuildMarkManager::TGuildSymbol>,void *>::_Freenode0<std::allocator<std::_Tree_node<std::pair<unsigned long const ,CGuildMarkManager::TGuildSymbol>,void *> > >
PUBLIC	??$_Erase_tree@V?$allocator@U?$_Tree_node@U?$pair@$$CBKUTGuildSymbol@CGuildMarkManager@@@std@@PAX@std@@@std@@@?$_Tree_val@U?$_Tree_simple_types@U?$pair@$$CBKUTGuildSymbol@CGuildMarkManager@@@std@@@std@@@std@@QAEXAAV?$allocator@U?$_Tree_node@U?$pair@$$CBKUTGuildSymbol@CGuildMarkManager@@@std@@PAX@std@@@1@PAU?$_Tree_node@U?$pair@$$CBKUTGuildSymbol@CGuildMarkManager@@@std@@PAX@1@@Z ; std::_Tree_val<std::_Tree_simple_types<std::pair<unsigned long const ,CGuildMarkManager::TGuildSymbol> > >::_Erase_tree<std::allocator<std::_Tree_node<std::pair<unsigned long const ,CGuildMarkManager::TGuildSymbol>,void *> > >
PUBLIC	??$forward_as_tuple@$$V@std@@YA?AV?$tuple@$$V@0@XZ ; std::forward_as_tuple<>
PUBLIC	??$forward_as_tuple@ABK@std@@YA?AV?$tuple@ABK@0@ABK@Z ; std::forward_as_tuple<unsigned long const &>
PUBLIC	??$?0V?$_Tree_iterator@V?$_Tree_val@U?$_Tree_simple_types@U?$pair@$$CBKPAVCGuildMarkImage@@@std@@@std@@@std@@@std@@AB_N$0A@@?$pair@V?$_Tree_iterator@V?$_Tree_val@U?$_Tree_simple_types@U?$pair@$$CBKPAVCGuildMarkImage@@@std@@@std@@@std@@@std@@_N@std@@QAE@$$QAV?$_Tree_iterator@V?$_Tree_val@U?$_Tree_simple_types@U?$pair@$$CBKPAVCGuildMarkImage@@@std@@@std@@@std@@@1@AB_N@Z ; std::pair<std::_Tree_iterator<std::_Tree_val<std::_Tree_simple_types<std::pair<unsigned long const ,CGuildMarkImage *> > > >,bool>::pair<std::_Tree_iterator<std::_Tree_val<std::_Tree_simple_types<std::pair<unsigned long const ,CGuildMarkImage *> > > >,bool><std::_Tree_iterator<std::_Tree_val<std::_Tree_simple_types<std::pair<unsigned long const ,CGuildMarkImage *> > > >,bool const &,0>
PUBLIC	??$_Emplace@U?$pair@$$CBKPAVCGuildMarkImage@@@std@@@?$_Tree@V?$_Tmap_traits@KPAVCGuildMarkImage@@U?$less@K@std@@V?$allocator@U?$pair@$$CBKPAVCGuildMarkImage@@@std@@@3@$0A@@std@@@std@@IAE?AU?$pair@PAU?$_Tree_node@U?$pair@$$CBKPAVCGuildMarkImage@@@std@@PAX@std@@_N@1@$$QAU?$pair@$$CBKPAVCGuildMarkImage@@@1@@Z ; std::_Tree<std::_Tmap_traits<unsigned long,CGuildMarkImage *,std::less<unsigned long>,std::allocator<std::pair<unsigned long const ,CGuildMarkImage *> >,0> >::_Emplace<std::pair<unsigned long const ,CGuildMarkImage *> >
PUBLIC	??$move@AAU?$pair@$$CBKPAVCGuildMarkImage@@@std@@@std@@YA$$QAU?$pair@$$CBKPAVCGuildMarkImage@@@0@AAU10@@Z ; std::move<std::pair<unsigned long const ,CGuildMarkImage *> &>
PUBLIC	??$forward@AAPAVCGuildMarkImage@@@std@@YAAAPAVCGuildMarkImage@@AAPAV1@@Z ; std::forward<CGuildMarkImage * &>
PUBLIC	??$?0$$V@?$_Compressed_pair@V?$allocator@U?$_Tree_node@U?$pair@$$CBKPAVCGuildMarkImage@@@std@@PAX@std@@@std@@V?$_Tree_val@U?$_Tree_simple_types@U?$pair@$$CBKPAVCGuildMarkImage@@@std@@@std@@@2@$00@std@@QAE@U_Zero_then_variadic_args_t@1@@Z ; std::_Compressed_pair<std::allocator<std::_Tree_node<std::pair<unsigned long const ,CGuildMarkImage *>,void *> >,std::_Tree_val<std::_Tree_simple_types<std::pair<unsigned long const ,CGuildMarkImage *> > >,1>::_Compressed_pair<std::allocator<std::_Tree_node<std::pair<unsigned long const ,CGuildMarkImage *>,void *> >,std::_Tree_val<std::_Tree_simple_types<std::pair<unsigned long const ,CGuildMarkImage *> > >,1><>
PUBLIC	??$?0$$V@?$_Compressed_pair@V?$allocator@U?$_Tree_node@U?$pair@$$CBKUTGuildSymbol@CGuildMarkManager@@@std@@PAX@std@@@std@@V?$_Tree_val@U?$_Tree_simple_types@U?$pair@$$CBKUTGuildSymbol@CGuildMarkManager@@@std@@@std@@@2@$00@std@@QAE@U_Zero_then_variadic_args_t@1@@Z ; std::_Compressed_pair<std::allocator<std::_Tree_node<std::pair<unsigned long const ,CGuildMarkManager::TGuildSymbol>,void *> >,std::_Tree_val<std::_Tree_simple_types<std::pair<unsigned long const ,CGuildMarkManager::TGuildSymbol> > >,1>::_Compressed_pair<std::allocator<std::_Tree_node<std::pair<unsigned long const ,CGuildMarkManager::TGuildSymbol>,void *> >,std::_Tree_val<std::_Tree_simple_types<std::pair<unsigned long const ,CGuildMarkManager::TGuildSymbol> > >,1><>
PUBLIC	?deallocate@?$allocator@U?$_Tree_node@U?$pair@$$CBKUTGuildSymbol@CGuildMarkManager@@@std@@PAX@std@@@std@@QAEXQAU?$_Tree_node@U?$pair@$$CBKUTGuildSymbol@CGuildMarkManager@@@std@@PAX@2@I@Z ; std::allocator<std::_Tree_node<std::pair<unsigned long const ,CGuildMarkManager::TGuildSymbol>,void *> >::deallocate
PUBLIC	??0?$allocator@E@std@@QAE@XZ			; std::allocator<unsigned char>::allocator<unsigned char>
PUBLIC	?_Orphan_range@?$vector@EV?$allocator@E@std@@@std@@ABEXPAE0@Z ; std::vector<unsigned char,std::allocator<unsigned char> >::_Orphan_range
PUBLIC	??0?$_Vector_val@U?$_Simple_types@E@std@@@std@@QAE@XZ ; std::_Vector_val<std::_Simple_types<unsigned char> >::_Vector_val<std::_Simple_types<unsigned char> >
PUBLIC	?allocate@?$allocator@U?$_Tree_node@U?$pair@$$CBKPAVCGuildMarkImage@@@std@@PAX@std@@@std@@QAEPAU?$_Tree_node@U?$pair@$$CBKPAVCGuildMarkImage@@@std@@PAX@2@I@Z ; std::allocator<std::_Tree_node<std::pair<unsigned long const ,CGuildMarkImage *>,void *> >::allocate
PUBLIC	?allocate@?$allocator@U?$_Tree_node@U?$pair@$$CBKUTGuildSymbol@CGuildMarkManager@@@std@@PAX@std@@@std@@QAEPAU?$_Tree_node@U?$pair@$$CBKUTGuildSymbol@CGuildMarkManager@@@std@@PAX@2@I@Z ; std::allocator<std::_Tree_node<std::pair<unsigned long const ,CGuildMarkManager::TGuildSymbol>,void *> >::allocate
PUBLIC	??0?$_Uninitialized_backout_al@V?$allocator@E@std@@@std@@QAE@PAEAAV?$allocator@E@1@@Z ; std::_Uninitialized_backout_al<std::allocator<unsigned char> >::_Uninitialized_backout_al<std::allocator<unsigned char> >
PUBLIC	??1?$_Uninitialized_backout_al@V?$allocator@E@std@@@std@@QAE@XZ ; std::_Uninitialized_backout_al<std::allocator<unsigned char> >::~_Uninitialized_backout_al<std::allocator<unsigned char> >
PUBLIC	?_Release@?$_Uninitialized_backout_al@V?$allocator@E@std@@@std@@QAEPAEXZ ; std::_Uninitialized_backout_al<std::allocator<unsigned char> >::_Release
PUBLIC	??$_Buyheadnode@V?$allocator@U?$_Tree_node@U?$pair@$$CBKPAVCGuildMarkImage@@@std@@PAX@std@@@std@@@?$_Tree_node@U?$pair@$$CBKPAVCGuildMarkImage@@@std@@PAX@std@@SAPAU01@AAV?$allocator@U?$_Tree_node@U?$pair@$$CBKPAVCGuildMarkImage@@@std@@PAX@std@@@1@@Z ; std::_Tree_node<std::pair<unsigned long const ,CGuildMarkImage *>,void *>::_Buyheadnode<std::allocator<std::_Tree_node<std::pair<unsigned long const ,CGuildMarkImage *>,void *> > >
PUBLIC	??$_Buyheadnode@V?$allocator@U?$_Tree_node@U?$pair@$$CBKUTGuildSymbol@CGuildMarkManager@@@std@@PAX@std@@@std@@@?$_Tree_node@U?$pair@$$CBKUTGuildSymbol@CGuildMarkManager@@@std@@PAX@std@@SAPAU01@AAV?$allocator@U?$_Tree_node@U?$pair@$$CBKUTGuildSymbol@CGuildMarkManager@@@std@@PAX@std@@@1@@Z ; std::_Tree_node<std::pair<unsigned long const ,CGuildMarkManager::TGuildSymbol>,void *>::_Buyheadnode<std::allocator<std::_Tree_node<std::pair<unsigned long const ,CGuildMarkManager::TGuildSymbol>,void *> > >
PUBLIC	??$_Uninitialized_move@PAEV?$allocator@E@std@@@std@@YAPAEQAE0PAEAAV?$allocator@E@0@@Z ; std::_Uninitialized_move<unsigned char *,std::allocator<unsigned char> >
PUBLIC	??$_Get_unwrapped@ABQAE@std@@YA?A_TABQAE@Z	; std::_Get_unwrapped<unsigned char * const &>
PUBLIC	??$?0ABU?$less@K@std@@U_Zero_then_variadic_args_t@1@@?$_Compressed_pair@U?$less@K@std@@V?$_Compressed_pair@V?$allocator@U?$_Tree_node@U?$pair@$$CBKPAVCGuildMarkImage@@@std@@PAX@std@@@std@@V?$_Tree_val@U?$_Tree_simple_types@U?$pair@$$CBKPAVCGuildMarkImage@@@std@@@std@@@2@$00@2@$00@std@@QAE@U_One_then_variadic_args_t@1@ABU?$less@K@1@$$QAU_Zero_then_variadic_args_t@1@@Z ; std::_Compressed_pair<std::less<unsigned long>,std::_Compressed_pair<std::allocator<std::_Tree_node<std::pair<unsigned long const ,CGuildMarkImage *>,void *> >,std::_Tree_val<std::_Tree_simple_types<std::pair<unsigned long const ,CGuildMarkImage *> > >,1>,1>::_Compressed_pair<std::less<unsigned long>,std::_Compressed_pair<std::allocator<std::_Tree_node<std::pair<unsigned long const ,CGuildMarkImage *>,void *> >,std::_Tree_val<std::_Tree_simple_types<std::pair<unsigned long const ,CGuildMarkImage *> > >,1>,1><std::less<unsigned long> const &,std::_Zero_then_variadic_args_t>
PUBLIC	??$addressof@V?$_Tree_val@U?$_Tree_simple_types@U?$pair@$$CBKPAVCGuildMarkImage@@@std@@@std@@@std@@@std@@YAPAV?$_Tree_val@U?$_Tree_simple_types@U?$pair@$$CBKPAVCGuildMarkImage@@@std@@@std@@@0@AAV10@@Z ; std::addressof<std::_Tree_val<std::_Tree_simple_types<std::pair<unsigned long const ,CGuildMarkImage *> > > >
PUBLIC	??$addressof@$$CBV?$_Tree_val@U?$_Tree_simple_types@U?$pair@$$CBKPAVCGuildMarkImage@@@std@@@std@@@std@@@std@@YAPBV?$_Tree_val@U?$_Tree_simple_types@U?$pair@$$CBKPAVCGuildMarkImage@@@std@@@std@@@0@ABV10@@Z ; std::addressof<std::_Tree_val<std::_Tree_simple_types<std::pair<unsigned long const ,CGuildMarkImage *> > > const >
PUBLIC	??$?0ABU?$less@K@std@@U_Zero_then_variadic_args_t@1@@?$_Compressed_pair@U?$less@K@std@@V?$_Compressed_pair@V?$allocator@U?$_Tree_node@U?$pair@$$CBKUTGuildSymbol@CGuildMarkManager@@@std@@PAX@std@@@std@@V?$_Tree_val@U?$_Tree_simple_types@U?$pair@$$CBKUTGuildSymbol@CGuildMarkManager@@@std@@@std@@@2@$00@2@$00@std@@QAE@U_One_then_variadic_args_t@1@ABU?$less@K@1@$$QAU_Zero_then_variadic_args_t@1@@Z ; std::_Compressed_pair<std::less<unsigned long>,std::_Compressed_pair<std::allocator<std::_Tree_node<std::pair<unsigned long const ,CGuildMarkManager::TGuildSymbol>,void *> >,std::_Tree_val<std::_Tree_simple_types<std::pair<unsigned long const ,CGuildMarkManager::TGuildSymbol> > >,1>,1>::_Compressed_pair<std::less<unsigned long>,std::_Compressed_pair<std::allocator<std::_Tree_node<std::pair<unsigned long const ,CGuildMarkManager::TGuildSymbol>,void *> >,std::_Tree_val<std::_Tree_simple_types<std::pair<unsigned long const ,CGuildMarkManager::TGuildSymbol> > >,1>,1><std::less<unsigned long> const &,std::_Zero_then_variadic_args_t>
PUBLIC	??$addressof@V?$_Tree_val@U?$_Tree_simple_types@U?$pair@$$CBKUTGuildSymbol@CGuildMarkManager@@@std@@@std@@@std@@@std@@YAPAV?$_Tree_val@U?$_Tree_simple_types@U?$pair@$$CBKUTGuildSymbol@CGuildMarkManager@@@std@@@std@@@0@AAV10@@Z ; std::addressof<std::_Tree_val<std::_Tree_simple_types<std::pair<unsigned long const ,CGuildMarkManager::TGuildSymbol> > > >
PUBLIC	??$addressof@U?$pair@$$CBKUTGuildSymbol@CGuildMarkManager@@@std@@@std@@YAPAU?$pair@$$CBKUTGuildSymbol@CGuildMarkManager@@@0@AAU10@@Z ; std::addressof<std::pair<unsigned long const ,CGuildMarkManager::TGuildSymbol> >
PUBLIC	??$addressof@U?$pair@$$CBKPAVCGuildMarkImage@@@std@@@std@@YAPAU?$pair@$$CBKPAVCGuildMarkImage@@@0@AAU10@@Z ; std::addressof<std::pair<unsigned long const ,CGuildMarkImage *> >
PUBLIC	??$?0$$V@?$_Compressed_pair@V?$allocator@E@std@@V?$_Vector_val@U?$_Simple_types@E@std@@@2@$00@std@@QAE@U_Zero_then_variadic_args_t@1@@Z ; std::_Compressed_pair<std::allocator<unsigned char>,std::_Vector_val<std::_Simple_types<unsigned char> >,1>::_Compressed_pair<std::allocator<unsigned char>,std::_Vector_val<std::_Simple_types<unsigned char> >,1><>
PUBLIC	??$_Resize@U_Value_init_tag@std@@@?$vector@EV?$allocator@E@std@@@std@@AAEXIABU_Value_init_tag@1@@Z ; std::vector<unsigned char,std::allocator<unsigned char> >::_Resize<std::_Value_init_tag>
PUBLIC	??$_Destroy_range@V?$allocator@E@std@@@std@@YAXPAEQAEAAV?$allocator@E@0@@Z ; std::_Destroy_range<std::allocator<unsigned char> >
PUBLIC	??$_Erase_head@V?$allocator@U?$_Tree_node@U?$pair@$$CBKPAVCGuildMarkImage@@@std@@PAX@std@@@std@@@?$_Tree_val@U?$_Tree_simple_types@U?$pair@$$CBKPAVCGuildMarkImage@@@std@@@std@@@std@@QAEXAAV?$allocator@U?$_Tree_node@U?$pair@$$CBKPAVCGuildMarkImage@@@std@@PAX@std@@@1@@Z ; std::_Tree_val<std::_Tree_simple_types<std::pair<unsigned long const ,CGuildMarkImage *> > >::_Erase_head<std::allocator<std::_Tree_node<std::pair<unsigned long const ,CGuildMarkImage *>,void *> > >
PUBLIC	??$_Erase_tree@V?$allocator@U?$_Tree_node@U?$pair@$$CBKPAVCGuildMarkImage@@@std@@PAX@std@@@std@@@?$_Tree_val@U?$_Tree_simple_types@U?$pair@$$CBKPAVCGuildMarkImage@@@std@@@std@@@std@@QAEXAAV?$allocator@U?$_Tree_node@U?$pair@$$CBKPAVCGuildMarkImage@@@std@@PAX@std@@@1@PAU?$_Tree_node@U?$pair@$$CBKPAVCGuildMarkImage@@@std@@PAX@1@@Z ; std::_Tree_val<std::_Tree_simple_types<std::pair<unsigned long const ,CGuildMarkImage *> > >::_Erase_tree<std::allocator<std::_Tree_node<std::pair<unsigned long const ,CGuildMarkImage *>,void *> > >
PUBLIC	??$_Find@K@?$_Tree@V?$_Tmap_traits@KPAVCGuildMarkImage@@U?$less@K@std@@V?$allocator@U?$pair@$$CBKPAVCGuildMarkImage@@@std@@@3@$0A@@std@@@std@@ABEPAU?$_Tree_node@U?$pair@$$CBKPAVCGuildMarkImage@@@std@@PAX@1@ABK@Z ; std::_Tree<std::_Tmap_traits<unsigned long,CGuildMarkImage *,std::less<unsigned long>,std::allocator<std::pair<unsigned long const ,CGuildMarkImage *> >,0> >::_Find<unsigned long>
PUBLIC	??$_Erase_head@V?$allocator@U?$_Tree_node@U?$pair@$$CBKUTGuildSymbol@CGuildMarkManager@@@std@@PAX@std@@@std@@@?$_Tree_val@U?$_Tree_simple_types@U?$pair@$$CBKUTGuildSymbol@CGuildMarkManager@@@std@@@std@@@std@@QAEXAAV?$allocator@U?$_Tree_node@U?$pair@$$CBKUTGuildSymbol@CGuildMarkManager@@@std@@PAX@std@@@1@@Z ; std::_Tree_val<std::_Tree_simple_types<std::pair<unsigned long const ,CGuildMarkManager::TGuildSymbol> > >::_Erase_head<std::allocator<std::_Tree_node<std::pair<unsigned long const ,CGuildMarkManager::TGuildSymbol>,void *> > >
PUBLIC	??$insert@$0A@$0A@@?$_Tree@V?$_Tmap_traits@KPAVCGuildMarkImage@@U?$less@K@std@@V?$allocator@U?$pair@$$CBKPAVCGuildMarkImage@@@std@@@3@$0A@@std@@@std@@QAE?AU?$pair@V?$_Tree_iterator@V?$_Tree_val@U?$_Tree_simple_types@U?$pair@$$CBKPAVCGuildMarkImage@@@std@@@std@@@std@@@std@@_N@1@$$QAU?$pair@$$CBKPAVCGuildMarkImage@@@1@@Z ; std::_Tree<std::_Tmap_traits<unsigned long,CGuildMarkImage *,std::less<unsigned long>,std::allocator<std::pair<unsigned long const ,CGuildMarkImage *> >,0> >::insert<0,0>
PUBLIC	??$?0AAKAAPAVCGuildMarkImage@@$0A@@?$pair@$$CBKPAVCGuildMarkImage@@@std@@QAE@AAKAAPAVCGuildMarkImage@@@Z ; std::pair<unsigned long const ,CGuildMarkImage *>::pair<unsigned long const ,CGuildMarkImage *><unsigned long &,CGuildMarkImage * &,0>
PUBLIC	?_Get_first@?$_Compressed_pair@V?$allocator@E@std@@V?$_Vector_val@U?$_Simple_types@E@std@@@2@$00@std@@QBEABV?$allocator@E@2@XZ ; std::_Compressed_pair<std::allocator<unsigned char>,std::_Vector_val<std::_Simple_types<unsigned char> >,1>::_Get_first
PUBLIC	?_Min@?$_Tree_val@U?$_Tree_simple_types@U?$pair@$$CBKPAVCGuildMarkImage@@@std@@@std@@@std@@SAPAU?$_Tree_node@U?$pair@$$CBKPAVCGuildMarkImage@@@std@@PAX@2@PAU32@@Z ; std::_Tree_val<std::_Tree_simple_types<std::pair<unsigned long const ,CGuildMarkImage *> > >::_Min
PUBLIC	?deallocate@?$allocator@E@std@@QAEXQAEI@Z	; std::allocator<unsigned char>::deallocate
PUBLIC	?allocate@?$allocator@E@std@@QAEPAEI@Z		; std::allocator<unsigned char>::allocate
PUBLIC	?max_size@?$_Default_allocator_traits@V?$allocator@E@std@@@std@@SAIABV?$allocator@E@2@@Z ; std::_Default_allocator_traits<std::allocator<unsigned char> >::max_size
PUBLIC	?_Change_array@?$vector@EV?$allocator@E@std@@@std@@AAEXQAEII@Z ; std::vector<unsigned char,std::allocator<unsigned char> >::_Change_array
PUBLIC	?_Getal@?$vector@EV?$allocator@E@std@@@std@@ABEABV?$allocator@E@2@XZ ; std::vector<unsigned char,std::allocator<unsigned char> >::_Getal
PUBLIC	?_Get_first@?$_Compressed_pair@V?$allocator@E@std@@V?$_Vector_val@U?$_Simple_types@E@std@@@2@$00@std@@QAEAAV?$allocator@E@2@XZ ; std::_Compressed_pair<std::allocator<unsigned char>,std::_Vector_val<std::_Simple_types<unsigned char> >,1>::_Get_first
PUBLIC	?_Alloc_sentinel_and_proxy@?$_Tree@V?$_Tmap_traits@KPAVCGuildMarkImage@@U?$less@K@std@@V?$allocator@U?$pair@$$CBKPAVCGuildMarkImage@@@std@@@3@$0A@@std@@@std@@IAEXXZ ; std::_Tree<std::_Tmap_traits<unsigned long,CGuildMarkImage *,std::less<unsigned long>,std::allocator<std::pair<unsigned long const ,CGuildMarkImage *> >,0> >::_Alloc_sentinel_and_proxy
PUBLIC	?_Get_first@?$_Compressed_pair@V?$allocator@U?$_Tree_node@U?$pair@$$CBKPAVCGuildMarkImage@@@std@@PAX@std@@@std@@V?$_Tree_val@U?$_Tree_simple_types@U?$pair@$$CBKPAVCGuildMarkImage@@@std@@@std@@@2@$00@std@@QAEAAV?$allocator@U?$_Tree_node@U?$pair@$$CBKPAVCGuildMarkImage@@@std@@PAX@std@@@2@XZ ; std::_Compressed_pair<std::allocator<std::_Tree_node<std::pair<unsigned long const ,CGuildMarkImage *>,void *> >,std::_Tree_val<std::_Tree_simple_types<std::pair<unsigned long const ,CGuildMarkImage *> > >,1>::_Get_first
PUBLIC	?_Alloc_sentinel_and_proxy@?$_Tree@V?$_Tmap_traits@KUTGuildSymbol@CGuildMarkManager@@U?$less@K@std@@V?$allocator@U?$pair@$$CBKUTGuildSymbol@CGuildMarkManager@@@std@@@4@$0A@@std@@@std@@IAEXXZ ; std::_Tree<std::_Tmap_traits<unsigned long,CGuildMarkManager::TGuildSymbol,std::less<unsigned long>,std::allocator<std::pair<unsigned long const ,CGuildMarkManager::TGuildSymbol> >,0> >::_Alloc_sentinel_and_proxy
PUBLIC	?_Get_first@?$_Compressed_pair@V?$allocator@U?$_Tree_node@U?$pair@$$CBKUTGuildSymbol@CGuildMarkManager@@@std@@PAX@std@@@std@@V?$_Tree_val@U?$_Tree_simple_types@U?$pair@$$CBKUTGuildSymbol@CGuildMarkManager@@@std@@@std@@@2@$00@std@@QAEAAV?$allocator@U?$_Tree_node@U?$pair@$$CBKUTGuildSymbol@CGuildMarkManager@@@std@@PAX@std@@@2@XZ ; std::_Compressed_pair<std::allocator<std::_Tree_node<std::pair<unsigned long const ,CGuildMarkManager::TGuildSymbol>,void *> >,std::_Tree_val<std::_Tree_simple_types<std::pair<unsigned long const ,CGuildMarkManager::TGuildSymbol> > >,1>::_Get_first
PUBLIC	??E?$_Tree_unchecked_const_iterator@V?$_Tree_val@U?$_Tree_simple_types@U?$pair@$$CBKPAVCGuildMarkImage@@@std@@@std@@@std@@U_Iterator_base0@2@@std@@QAEAAV01@XZ ; std::_Tree_unchecked_const_iterator<std::_Tree_val<std::_Tree_simple_types<std::pair<unsigned long const ,CGuildMarkImage *> > >,std::_Iterator_base0>::operator++
PUBLIC	??D?$_Tree_const_iterator@V?$_Tree_val@U?$_Tree_simple_types@U?$pair@$$CBKPAVCGuildMarkImage@@@std@@@std@@@std@@@std@@QBEABU?$pair@$$CBKPAVCGuildMarkImage@@@1@XZ ; std::_Tree_const_iterator<std::_Tree_val<std::_Tree_simple_types<std::pair<unsigned long const ,CGuildMarkImage *> > > >::operator*
PUBLIC	?_Reallocate_exactly@?$vector@EV?$allocator@E@std@@@std@@AAEXI@Z ; std::vector<unsigned char,std::allocator<unsigned char> >::_Reallocate_exactly
PUBLIC	?max_size@?$vector@EV?$allocator@E@std@@@std@@QBEIXZ ; std::vector<unsigned char,std::allocator<unsigned char> >::max_size
PUBLIC	?capacity@?$vector@EV?$allocator@E@std@@@std@@QBEIXZ ; std::vector<unsigned char,std::allocator<unsigned char> >::capacity
PUBLIC	?_Tidy@?$vector@EV?$allocator@E@std@@@std@@AAEXXZ ; std::vector<unsigned char,std::allocator<unsigned char> >::_Tidy
PUBLIC	?_Xlength@?$vector@EV?$allocator@E@std@@@std@@CAXXZ ; std::vector<unsigned char,std::allocator<unsigned char> >::_Xlength
PUBLIC	?_Getal@?$vector@EV?$allocator@E@std@@@std@@AAEAAV?$allocator@E@2@XZ ; std::vector<unsigned char,std::allocator<unsigned char> >::_Getal
PUBLIC	??0?$_Tree@V?$_Tmap_traits@KPAVCGuildMarkImage@@U?$less@K@std@@V?$allocator@U?$pair@$$CBKPAVCGuildMarkImage@@@std@@@3@$0A@@std@@@std@@QAE@ABU?$less@K@1@@Z ; std::_Tree<std::_Tmap_traits<unsigned long,CGuildMarkImage *,std::less<unsigned long>,std::allocator<std::pair<unsigned long const ,CGuildMarkImage *> >,0> >::_Tree<std::_Tmap_traits<unsigned long,CGuildMarkImage *,std::less<unsigned long>,std::allocator<std::pair<unsigned long const ,CGuildMarkImage *> >,0> >
PUBLIC	?_Getal@?$_Tree@V?$_Tmap_traits@KPAVCGuildMarkImage@@U?$less@K@std@@V?$allocator@U?$pair@$$CBKPAVCGuildMarkImage@@@std@@@3@$0A@@std@@@std@@IAEAAV?$allocator@U?$_Tree_node@U?$pair@$$CBKPAVCGuildMarkImage@@@std@@PAX@std@@@2@XZ ; std::_Tree<std::_Tmap_traits<unsigned long,CGuildMarkImage *,std::less<unsigned long>,std::allocator<std::pair<unsigned long const ,CGuildMarkImage *> >,0> >::_Getal
PUBLIC	?_Get_scary@?$_Tree@V?$_Tmap_traits@KPAVCGuildMarkImage@@U?$less@K@std@@V?$allocator@U?$pair@$$CBKPAVCGuildMarkImage@@@std@@@3@$0A@@std@@@std@@IAEPAV?$_Tree_val@U?$_Tree_simple_types@U?$pair@$$CBKPAVCGuildMarkImage@@@std@@@std@@@2@XZ ; std::_Tree<std::_Tmap_traits<unsigned long,CGuildMarkImage *,std::less<unsigned long>,std::allocator<std::pair<unsigned long const ,CGuildMarkImage *> >,0> >::_Get_scary
PUBLIC	?_Get_scary@?$_Tree@V?$_Tmap_traits@KPAVCGuildMarkImage@@U?$less@K@std@@V?$allocator@U?$pair@$$CBKPAVCGuildMarkImage@@@std@@@3@$0A@@std@@@std@@IBEPBV?$_Tree_val@U?$_Tree_simple_types@U?$pair@$$CBKPAVCGuildMarkImage@@@std@@@std@@@2@XZ ; std::_Tree<std::_Tmap_traits<unsigned long,CGuildMarkImage *,std::less<unsigned long>,std::allocator<std::pair<unsigned long const ,CGuildMarkImage *> >,0> >::_Get_scary
PUBLIC	?_Orphan_ptr@?$_Tree_val@U?$_Tree_simple_types@U?$pair@$$CBKPAVCGuildMarkImage@@@std@@@std@@@std@@QAEXQAU?$_Tree_node@U?$pair@$$CBKPAVCGuildMarkImage@@@std@@PAX@2@@Z ; std::_Tree_val<std::_Tree_simple_types<std::pair<unsigned long const ,CGuildMarkImage *> > >::_Orphan_ptr
PUBLIC	??0?$_Tree@V?$_Tmap_traits@KUTGuildSymbol@CGuildMarkManager@@U?$less@K@std@@V?$allocator@U?$pair@$$CBKUTGuildSymbol@CGuildMarkManager@@@std@@@4@$0A@@std@@@std@@QAE@ABU?$less@K@1@@Z ; std::_Tree<std::_Tmap_traits<unsigned long,CGuildMarkManager::TGuildSymbol,std::less<unsigned long>,std::allocator<std::pair<unsigned long const ,CGuildMarkManager::TGuildSymbol> >,0> >::_Tree<std::_Tmap_traits<unsigned long,CGuildMarkManager::TGuildSymbol,std::less<unsigned long>,std::allocator<std::pair<unsigned long const ,CGuildMarkManager::TGuildSymbol> >,0> >
PUBLIC	?_Getal@?$_Tree@V?$_Tmap_traits@KUTGuildSymbol@CGuildMarkManager@@U?$less@K@std@@V?$allocator@U?$pair@$$CBKUTGuildSymbol@CGuildMarkManager@@@std@@@4@$0A@@std@@@std@@IAEAAV?$allocator@U?$_Tree_node@U?$pair@$$CBKUTGuildSymbol@CGuildMarkManager@@@std@@PAX@std@@@2@XZ ; std::_Tree<std::_Tmap_traits<unsigned long,CGuildMarkManager::TGuildSymbol,std::less<unsigned long>,std::allocator<std::pair<unsigned long const ,CGuildMarkManager::TGuildSymbol> >,0> >::_Getal
PUBLIC	?_Get_scary@?$_Tree@V?$_Tmap_traits@KUTGuildSymbol@CGuildMarkManager@@U?$less@K@std@@V?$allocator@U?$pair@$$CBKUTGuildSymbol@CGuildMarkManager@@@std@@@4@$0A@@std@@@std@@IAEPAV?$_Tree_val@U?$_Tree_simple_types@U?$pair@$$CBKUTGuildSymbol@CGuildMarkManager@@@std@@@std@@@2@XZ ; std::_Tree<std::_Tmap_traits<unsigned long,CGuildMarkManager::TGuildSymbol,std::less<unsigned long>,std::allocator<std::pair<unsigned long const ,CGuildMarkManager::TGuildSymbol> >,0> >::_Get_scary
PUBLIC	??0?$_Tree_unchecked_const_iterator@V?$_Tree_val@U?$_Tree_simple_types@U?$pair@$$CBKPAVCGuildMarkImage@@@std@@@std@@@std@@U_Iterator_base0@2@@std@@QAE@PAU?$_Tree_node@U?$pair@$$CBKPAVCGuildMarkImage@@@std@@PAX@1@PBV?$_Tree_val@U?$_Tree_simple_types@U?$pair@$$CBKPAVCGuildMarkImage@@@std@@@std@@@1@@Z ; std::_Tree_unchecked_const_iterator<std::_Tree_val<std::_Tree_simple_types<std::pair<unsigned long const ,CGuildMarkImage *> > >,std::_Iterator_base0>::_Tree_unchecked_const_iterator<std::_Tree_val<std::_Tree_simple_types<std::pair<unsigned long const ,CGuildMarkImage *> > >,std::_Iterator_base0>
PUBLIC	??E?$_Tree_const_iterator@V?$_Tree_val@U?$_Tree_simple_types@U?$pair@$$CBKPAVCGuildMarkImage@@@std@@@std@@@std@@@std@@QAEAAV01@XZ ; std::_Tree_const_iterator<std::_Tree_val<std::_Tree_simple_types<std::pair<unsigned long const ,CGuildMarkImage *> > > >::operator++
PUBLIC	??D?$_Tree_iterator@V?$_Tree_val@U?$_Tree_simple_types@U?$pair@$$CBKPAVCGuildMarkImage@@@std@@@std@@@std@@@std@@QBEAAU?$pair@$$CBKPAVCGuildMarkImage@@@1@XZ ; std::_Tree_iterator<std::_Tree_val<std::_Tree_simple_types<std::pair<unsigned long const ,CGuildMarkImage *> > > >::operator*
PUBLIC	?pointer_to@?$pointer_traits@PAU?$pair@$$CBKPAVCGuildMarkImage@@@std@@@std@@SAPAU?$pair@$$CBKPAVCGuildMarkImage@@@2@AAU32@@Z ; std::pointer_traits<std::pair<unsigned long const ,CGuildMarkImage *> *>::pointer_to
PUBLIC	??0?$_Tree_const_iterator@V?$_Tree_val@U?$_Tree_simple_types@U?$pair@$$CBKPAVCGuildMarkImage@@@std@@@std@@@std@@@std@@QAE@PAU?$_Tree_node@U?$pair@$$CBKPAVCGuildMarkImage@@@std@@PAX@1@PBV?$_Tree_val@U?$_Tree_simple_types@U?$pair@$$CBKPAVCGuildMarkImage@@@std@@@std@@@1@@Z ; std::_Tree_const_iterator<std::_Tree_val<std::_Tree_simple_types<std::pair<unsigned long const ,CGuildMarkImage *> > > >::_Tree_const_iterator<std::_Tree_val<std::_Tree_simple_types<std::pair<unsigned long const ,CGuildMarkImage *> > > >
PUBLIC	??_G?$singleton@VCGuildMarkManager@@@@UAEPAXI@Z	; singleton<CGuildMarkManager>::`scalar deleting destructor'
PUBLIC	??0?$_Tree_iterator@V?$_Tree_val@U?$_Tree_simple_types@U?$pair@$$CBKPAVCGuildMarkImage@@@std@@@std@@@std@@@std@@QAE@PAU?$_Tree_node@U?$pair@$$CBKPAVCGuildMarkImage@@@std@@PAX@1@PBV?$_Tree_val@U?$_Tree_simple_types@U?$pair@$$CBKPAVCGuildMarkImage@@@std@@@std@@@1@@Z ; std::_Tree_iterator<std::_Tree_val<std::_Tree_simple_types<std::pair<unsigned long const ,CGuildMarkImage *> > > >::_Tree_iterator<std::_Tree_val<std::_Tree_simple_types<std::pair<unsigned long const ,CGuildMarkImage *> > > >
PUBLIC	??0?$vector@EV?$allocator@E@std@@@std@@QAE@XZ	; std::vector<unsigned char,std::allocator<unsigned char> >::vector<unsigned char,std::allocator<unsigned char> >
PUBLIC	??1?$vector@EV?$allocator@E@std@@@std@@QAE@XZ	; std::vector<unsigned char,std::allocator<unsigned char> >::~vector<unsigned char,std::allocator<unsigned char> >
PUBLIC	?resize@?$vector@EV?$allocator@E@std@@@std@@QAEXI@Z ; std::vector<unsigned char,std::allocator<unsigned char> >::resize
PUBLIC	??0?$singleton@VCGuildMarkManager@@@@QAE@XZ	; singleton<CGuildMarkManager>::singleton<CGuildMarkManager>
PUBLIC	??1?$singleton@VCGuildMarkManager@@@@UAE@XZ	; singleton<CGuildMarkManager>::~singleton<CGuildMarkManager>
PUBLIC	??1?$_Tree@V?$_Tmap_traits@KPAVCGuildMarkImage@@U?$less@K@std@@V?$allocator@U?$pair@$$CBKPAVCGuildMarkImage@@@std@@@3@$0A@@std@@@std@@QAE@XZ ; std::_Tree<std::_Tmap_traits<unsigned long,CGuildMarkImage *,std::less<unsigned long>,std::allocator<std::pair<unsigned long const ,CGuildMarkImage *> >,0> >::~_Tree<std::_Tmap_traits<unsigned long,CGuildMarkImage *,std::less<unsigned long>,std::allocator<std::pair<unsigned long const ,CGuildMarkImage *> >,0> >
PUBLIC	?begin@?$_Tree@V?$_Tmap_traits@KPAVCGuildMarkImage@@U?$less@K@std@@V?$allocator@U?$pair@$$CBKPAVCGuildMarkImage@@@std@@@3@$0A@@std@@@std@@QAE?AV?$_Tree_iterator@V?$_Tree_val@U?$_Tree_simple_types@U?$pair@$$CBKPAVCGuildMarkImage@@@std@@@std@@@std@@@2@XZ ; std::_Tree<std::_Tmap_traits<unsigned long,CGuildMarkImage *,std::less<unsigned long>,std::allocator<std::pair<unsigned long const ,CGuildMarkImage *> >,0> >::begin
PUBLIC	?end@?$_Tree@V?$_Tmap_traits@KPAVCGuildMarkImage@@U?$less@K@std@@V?$allocator@U?$pair@$$CBKPAVCGuildMarkImage@@@std@@@3@$0A@@std@@@std@@QAE?AV?$_Tree_iterator@V?$_Tree_val@U?$_Tree_simple_types@U?$pair@$$CBKPAVCGuildMarkImage@@@std@@@std@@@std@@@2@XZ ; std::_Tree<std::_Tmap_traits<unsigned long,CGuildMarkImage *,std::less<unsigned long>,std::allocator<std::pair<unsigned long const ,CGuildMarkImage *> >,0> >::end
PUBLIC	?size@?$_Tree@V?$_Tmap_traits@KPAVCGuildMarkImage@@U?$less@K@std@@V?$allocator@U?$pair@$$CBKPAVCGuildMarkImage@@@std@@@3@$0A@@std@@@std@@QBEIXZ ; std::_Tree<std::_Tmap_traits<unsigned long,CGuildMarkImage *,std::less<unsigned long>,std::allocator<std::pair<unsigned long const ,CGuildMarkImage *> >,0> >::size
PUBLIC	?clear@?$_Tree@V?$_Tmap_traits@KPAVCGuildMarkImage@@U?$less@K@std@@V?$allocator@U?$pair@$$CBKPAVCGuildMarkImage@@@std@@@3@$0A@@std@@@std@@QAEXXZ ; std::_Tree<std::_Tmap_traits<unsigned long,CGuildMarkImage *,std::less<unsigned long>,std::allocator<std::pair<unsigned long const ,CGuildMarkImage *> >,0> >::clear
PUBLIC	?find@?$_Tree@V?$_Tmap_traits@KPAVCGuildMarkImage@@U?$less@K@std@@V?$allocator@U?$pair@$$CBKPAVCGuildMarkImage@@@std@@@3@$0A@@std@@@std@@QAE?AV?$_Tree_iterator@V?$_Tree_val@U?$_Tree_simple_types@U?$pair@$$CBKPAVCGuildMarkImage@@@std@@@std@@@std@@@2@ABK@Z ; std::_Tree<std::_Tmap_traits<unsigned long,CGuildMarkImage *,std::less<unsigned long>,std::allocator<std::pair<unsigned long const ,CGuildMarkImage *> >,0> >::find
PUBLIC	??0?$map@KPAVCGuildMarkImage@@U?$less@K@std@@V?$allocator@U?$pair@$$CBKPAVCGuildMarkImage@@@std@@@3@@std@@QAE@XZ ; std::map<unsigned long,CGuildMarkImage *,std::less<unsigned long>,std::allocator<std::pair<unsigned long const ,CGuildMarkImage *> > >::map<unsigned long,CGuildMarkImage *,std::less<unsigned long>,std::allocator<std::pair<unsigned long const ,CGuildMarkImage *> > >
PUBLIC	??1?$_Tree@V?$_Tmap_traits@KUTGuildSymbol@CGuildMarkManager@@U?$less@K@std@@V?$allocator@U?$pair@$$CBKUTGuildSymbol@CGuildMarkManager@@@std@@@4@$0A@@std@@@std@@QAE@XZ ; std::_Tree<std::_Tmap_traits<unsigned long,CGuildMarkManager::TGuildSymbol,std::less<unsigned long>,std::allocator<std::pair<unsigned long const ,CGuildMarkManager::TGuildSymbol> >,0> >::~_Tree<std::_Tmap_traits<unsigned long,CGuildMarkManager::TGuildSymbol,std::less<unsigned long>,std::allocator<std::pair<unsigned long const ,CGuildMarkManager::TGuildSymbol> >,0> >
PUBLIC	??0?$map@KUTGuildSymbol@CGuildMarkManager@@U?$less@K@std@@V?$allocator@U?$pair@$$CBKUTGuildSymbol@CGuildMarkManager@@@std@@@4@@std@@QAE@XZ ; std::map<unsigned long,CGuildMarkManager::TGuildSymbol,std::less<unsigned long>,std::allocator<std::pair<unsigned long const ,CGuildMarkManager::TGuildSymbol> > >::map<unsigned long,CGuildMarkManager::TGuildSymbol,std::less<unsigned long>,std::allocator<std::pair<unsigned long const ,CGuildMarkManager::TGuildSymbol> > >
PUBLIC	??8?$_Tree_const_iterator@V?$_Tree_val@U?$_Tree_simple_types@U?$pair@$$CBKPAVCGuildMarkImage@@@std@@@std@@@std@@@std@@QBE_NABV01@@Z ; std::_Tree_const_iterator<std::_Tree_val<std::_Tree_simple_types<std::pair<unsigned long const ,CGuildMarkImage *> > > >::operator==
PUBLIC	??C?$_Tree_iterator@V?$_Tree_val@U?$_Tree_simple_types@U?$pair@$$CBKPAVCGuildMarkImage@@@std@@@std@@@std@@@std@@QBEPAU?$pair@$$CBKPAVCGuildMarkImage@@@1@XZ ; std::_Tree_iterator<std::_Tree_val<std::_Tree_simple_types<std::pair<unsigned long const ,CGuildMarkImage *> > > >::operator->
PUBLIC	??E?$_Tree_iterator@V?$_Tree_val@U?$_Tree_simple_types@U?$pair@$$CBKPAVCGuildMarkImage@@@std@@@std@@@std@@@std@@QAEAAV01@XZ ; std::_Tree_iterator<std::_Tree_val<std::_Tree_simple_types<std::pair<unsigned long const ,CGuildMarkImage *> > > >::operator++
PUBLIC	??1TGuildSymbol@CGuildMarkManager@@QAE@XZ	; CGuildMarkManager::TGuildSymbol::~TGuildSymbol
PUBLIC	?GetMarkID@CGuildMarkManager@@QAEKK@Z		; CGuildMarkManager::GetMarkID
PUBLIC	?__GetImage@CGuildMarkManager@@AAEPAVCGuildMarkImage@@K@Z ; CGuildMarkManager::__GetImage
PUBLIC	?SetMarkPathPrefix@CGuildMarkManager@@QAEXPBD@Z	; CGuildMarkManager::SetMarkPathPrefix
PUBLIC	??1CGuildMarkManager@@UAE@XZ			; CGuildMarkManager::~CGuildMarkManager
PUBLIC	??1?$map@KUTGuildSymbol@CGuildMarkManager@@U?$less@K@std@@V?$allocator@U?$pair@$$CBKUTGuildSymbol@CGuildMarkManager@@@std@@@4@@std@@QAE@XZ ; std::map<unsigned long,CGuildMarkManager::TGuildSymbol,std::less<unsigned long>,std::allocator<std::pair<unsigned long const ,CGuildMarkManager::TGuildSymbol> > >::~map<unsigned long,CGuildMarkManager::TGuildSymbol,std::less<unsigned long>,std::allocator<std::pair<unsigned long const ,CGuildMarkManager::TGuildSymbol> > >
PUBLIC	??1?$map@KPAVCGuildMarkImage@@U?$less@K@std@@V?$allocator@U?$pair@$$CBKPAVCGuildMarkImage@@@std@@@3@@std@@QAE@XZ ; std::map<unsigned long,CGuildMarkImage *,std::less<unsigned long>,std::allocator<std::pair<unsigned long const ,CGuildMarkImage *> > >::~map<unsigned long,CGuildMarkImage *,std::less<unsigned long>,std::allocator<std::pair<unsigned long const ,CGuildMarkImage *> > >
PUBLIC	??_GCGuildMarkManager@@UAEPAXI@Z		; CGuildMarkManager::`scalar deleting destructor'
PUBLIC	??0CGuildMarkManager@@QAE@XZ			; CGuildMarkManager::CGuildMarkManager
PUBLIC	?__DeleteImage@CGuildMarkManager@@AAEXPAVCGuildMarkImage@@@Z ; CGuildMarkManager::__DeleteImage
PUBLIC	?__NewImage@CGuildMarkManager@@AAEPAVCGuildMarkImage@@XZ ; CGuildMarkManager::__NewImage
PUBLIC	?AddMarkIDByGuildID@CGuildMarkManager@@QAE_NKK@Z ; CGuildMarkManager::AddMarkIDByGuildID
PUBLIC	?LoadMarkImages@CGuildMarkManager@@QAEXXZ	; CGuildMarkManager::LoadMarkImages
PUBLIC	?GetBlockCRCList@CGuildMarkManager@@QAE_NKPAK@Z	; CGuildMarkManager::GetBlockCRCList
PUBLIC	?SaveBlockFromCompressedData@CGuildMarkManager@@QAE_NKKPBEK@Z ; CGuildMarkManager::SaveBlockFromCompressedData
PUBLIC	?SaveMarkImage@CGuildMarkManager@@QAEXK@Z	; CGuildMarkManager::SaveMarkImage
PUBLIC	?GetMarkImageFilename@CGuildMarkManager@@QBE_NKAAV?$basic_string@DU?$char_traits@D@std@@V?$allocator@D@2@@std@@@Z ; CGuildMarkManager::GetMarkImageFilename
PUBLIC	?GetMarkImageCount@CGuildMarkManager@@QBEKXZ	; CGuildMarkManager::GetMarkImageCount
EXTRN	??_ECGuildMarkManager@@UAEPAXI@Z:PROC		; CGuildMarkManager::`vector deleting destructor'
EXTRN	??_E?$singleton@VCGuildMarkManager@@@@UAEPAXI@Z:PROC ; singleton<CGuildMarkManager>::`vector deleting destructor'
;	COMDAT xdata$x
xdata$x	SEGMENT
__ehfuncinfo$?SaveMarkImage@CGuildMarkManager@@QAEXK@Z DD 019930522H
	DD	01H
	DD	FLAT:__unwindtable$?SaveMarkImage@CGuildMarkManager@@QAEXK@Z
	DD	2 DUP(00H)
	DD	2 DUP(00H)
	DD	00H
	DD	01H
__unwindtable$?SaveMarkImage@CGuildMarkManager@@QAEXK@Z DD 0ffffffffH
	DD	FLAT:__unwindfunclet$?SaveMarkImage@CGuildMarkManager@@QAEXK@Z$0
xdata$x	ENDS
;	COMDAT xdata$x
xdata$x	SEGMENT
__ehfuncinfo$??0CGuildMarkManager@@QAE@XZ DD 019930522H
	DD	06H
	DD	FLAT:__unwindtable$??0CGuildMarkManager@@QAE@XZ
	DD	2 DUP(00H)
	DD	2 DUP(00H)
	DD	00H
	DD	01H
__unwindtable$??0CGuildMarkManager@@QAE@XZ DD 0ffffffffH
	DD	FLAT:__unwindfunclet$??0CGuildMarkManager@@QAE@XZ$0
	DD	00H
	DD	FLAT:__unwindfunclet$??0CGuildMarkManager@@QAE@XZ$1
	DD	01H
	DD	FLAT:__unwindfunclet$??0CGuildMarkManager@@QAE@XZ$2
	DD	02H
	DD	FLAT:__unwindfunclet$??0CGuildMarkManager@@QAE@XZ$3
	DD	03H
	DD	FLAT:__unwindfunclet$??0CGuildMarkManager@@QAE@XZ$4
	DD	04H
	DD	FLAT:__unwindfunclet$??0CGuildMarkManager@@QAE@XZ$5
xdata$x	ENDS
;	COMDAT xdata$x
xdata$x	SEGMENT
__ehfuncinfo$?__GetImage@CGuildMarkManager@@AAEPAVCGuildMarkImage@@K@Z DD 019930522H
	DD	02H
	DD	FLAT:__unwindtable$?__GetImage@CGuildMarkManager@@AAEPAVCGuildMarkImage@@K@Z
	DD	2 DUP(00H)
	DD	2 DUP(00H)
	DD	00H
	DD	01H
__unwindtable$?__GetImage@CGuildMarkManager@@AAEPAVCGuildMarkImage@@K@Z DD 0ffffffffH
	DD	FLAT:__unwindfunclet$?__GetImage@CGuildMarkManager@@AAEPAVCGuildMarkImage@@K@Z$0
	DD	00H
	DD	FLAT:__unwindfunclet$?__GetImage@CGuildMarkManager@@AAEPAVCGuildMarkImage@@K@Z$7
xdata$x	ENDS
;	COMDAT xdata$x
xdata$x	SEGMENT
__ehfuncinfo$??$insert@$0A@$0A@@?$_Tree@V?$_Tmap_traits@KPAVCGuildMarkImage@@U?$less@K@std@@V?$allocator@U?$pair@$$CBKPAVCGuildMarkImage@@@std@@@3@$0A@@std@@@std@@QAE?AU?$pair@V?$_Tree_iterator@V?$_Tree_val@U?$_Tree_simple_types@U?$pair@$$CBKPAVCGuildMarkImage@@@std@@@std@@@std@@@std@@_N@1@$$QAU?$pair@$$CBKPAVCGuildMarkImage@@@1@@Z DD 019930522H
	DD	01H
	DD	FLAT:__unwindtable$??$insert@$0A@$0A@@?$_Tree@V?$_Tmap_traits@KPAVCGuildMarkImage@@U?$less@K@std@@V?$allocator@U?$pair@$$CBKPAVCGuildMarkImage@@@std@@@3@$0A@@std@@@std@@QAE?AU?$pair@V?$_Tree_iterator@V?$_Tree_val@U?$_Tree_simple_types@U?$pair@$$CBKPAVCGuildMarkImage@@@std@@@std@@@std@@@std@@_N@1@$$QAU?$pair@$$CBKPAVCGuildMarkImage@@@1@@Z
	DD	2 DUP(00H)
	DD	2 DUP(00H)
	DD	00H
	DD	01H
__unwindtable$??$insert@$0A@$0A@@?$_Tree@V?$_Tmap_traits@KPAVCGuildMarkImage@@U?$less@K@std@@V?$allocator@U?$pair@$$CBKPAVCGuildMarkImage@@@std@@@3@$0A@@std@@@std@@QAE?AU?$pair@V?$_Tree_iterator@V?$_Tree_val@U?$_Tree_simple_types@U?$pair@$$CBKPAVCGuildMarkImage@@@std@@@std@@@std@@@std@@_N@1@$$QAU?$pair@$$CBKPAVCGuildMarkImage@@@1@@Z DD 0ffffffffH
	DD	FLAT:__unwindfunclet$??$insert@$0A@$0A@@?$_Tree@V?$_Tmap_traits@KPAVCGuildMarkImage@@U?$less@K@std@@V?$allocator@U?$pair@$$CBKPAVCGuildMarkImage@@@std@@@3@$0A@@std@@@std@@QAE?AU?$pair@V?$_Tree_iterator@V?$_Tree_val@U?$_Tree_simple_types@U?$pair@$$CBKPAVCGuildMarkImage@@@std@@@std@@@std@@@std@@_N@1@$$QAU?$pair@$$CBKPAVCGuildMarkImage@@@1@@Z$2
xdata$x	ENDS
;	COMDAT xdata$x
xdata$x	SEGMENT
__ehfuncinfo$??$_Emplace@U?$pair@$$CBKPAVCGuildMarkImage@@@std@@@?$_Tree@V?$_Tmap_traits@KPAVCGuildMarkImage@@U?$less@K@std@@V?$allocator@U?$pair@$$CBKPAVCGuildMarkImage@@@std@@@3@$0A@@std@@@std@@IAE?AU?$pair@PAU?$_Tree_node@U?$pair@$$CBKPAVCGuildMarkImage@@@std@@PAX@std@@_N@1@$$QAU?$pair@$$CBKPAVCGuildMarkImage@@@1@@Z DD 019930522H
	DD	01H
	DD	FLAT:__unwindtable$??$_Emplace@U?$pair@$$CBKPAVCGuildMarkImage@@@std@@@?$_Tree@V?$_Tmap_traits@KPAVCGuildMarkImage@@U?$less@K@std@@V?$allocator@U?$pair@$$CBKPAVCGuildMarkImage@@@std@@@3@$0A@@std@@@std@@IAE?AU?$pair@PAU?$_Tree_node@U?$pair@$$CBKPAVCGuildMarkImage@@@std@@PAX@std@@_N@1@$$QAU?$pair@$$CBKPAVCGuildMarkImage@@@1@@Z
	DD	2 DUP(00H)
	DD	2 DUP(00H)
	DD	00H
	DD	01H
__unwindtable$??$_Emplace@U?$pair@$$CBKPAVCGuildMarkImage@@@std@@@?$_Tree@V?$_Tmap_traits@KPAVCGuildMarkImage@@U?$less@K@std@@V?$allocator@U?$pair@$$CBKPAVCGuildMarkImage@@@std@@@3@$0A@@std@@@std@@IAE?AU?$pair@PAU?$_Tree_node@U?$pair@$$CBKPAVCGuildMarkImage@@@std@@PAX@std@@_N@1@$$QAU?$pair@$$CBKPAVCGuildMarkImage@@@1@@Z DD 0ffffffffH
	DD	FLAT:__unwindfunclet$??$_Emplace@U?$pair@$$CBKPAVCGuildMarkImage@@@std@@@?$_Tree@V?$_Tmap_traits@KPAVCGuildMarkImage@@U?$less@K@std@@V?$allocator@U?$pair@$$CBKPAVCGuildMarkImage@@@std@@@3@$0A@@std@@@std@@IAE?AU?$pair@PAU?$_Tree_node@U?$pair@$$CBKPAVCGuildMarkImage@@@std@@PAX@std@@_N@1@$$QAU?$pair@$$CBKPAVCGuildMarkImage@@@1@@Z$2
xdata$x	ENDS
;	COMDAT xdata$x
xdata$x	SEGMENT
__ehfuncinfo$??$?0U?$pair@$$CBKPAVCGuildMarkImage@@@std@@@?$_Tree_temp_node@V?$allocator@U?$_Tree_node@U?$pair@$$CBKPAVCGuildMarkImage@@@std@@PAX@std@@@std@@@std@@QAE@AAV?$allocator@U?$_Tree_node@U?$pair@$$CBKPAVCGuildMarkImage@@@std@@PAX@std@@@1@PAU?$_Tree_node@U?$pair@$$CBKPAVCGuildMarkImage@@@std@@PAX@1@$$QAU?$pair@$$CBKPAVCGuildMarkImage@@@1@@Z DD 019930522H
	DD	01H
	DD	FLAT:__unwindtable$??$?0U?$pair@$$CBKPAVCGuildMarkImage@@@std@@@?$_Tree_temp_node@V?$allocator@U?$_Tree_node@U?$pair@$$CBKPAVCGuildMarkImage@@@std@@PAX@std@@@std@@@std@@QAE@AAV?$allocator@U?$_Tree_node@U?$pair@$$CBKPAVCGuildMarkImage@@@std@@PAX@std@@@1@PAU?$_Tree_node@U?$pair@$$CBKPAVCGuildMarkImage@@@std@@PAX@1@$$QAU?$pair@$$CBKPAVCGuildMarkImage@@@1@@Z
	DD	2 DUP(00H)
	DD	2 DUP(00H)
	DD	00H
	DD	01H
__unwindtable$??$?0U?$pair@$$CBKPAVCGuildMarkImage@@@std@@@?$_Tree_temp_node@V?$allocator@U?$_Tree_node@U?$pair@$$CBKPAVCGuildMarkImage@@@std@@PAX@std@@@std@@@std@@QAE@AAV?$allocator@U?$_Tree_node@U?$pair@$$CBKPAVCGuildMarkImage@@@std@@PAX@std@@@1@PAU?$_Tree_node@U?$pair@$$CBKPAVCGuildMarkImage@@@std@@PAX@1@$$QAU?$pair@$$CBKPAVCGuildMarkImage@@@1@@Z DD 0ffffffffH
	DD	FLAT:__unwindfunclet$??$?0U?$pair@$$CBKPAVCGuildMarkImage@@@std@@@?$_Tree_temp_node@V?$allocator@U?$_Tree_node@U?$pair@$$CBKPAVCGuildMarkImage@@@std@@PAX@std@@@std@@@std@@QAE@AAV?$allocator@U?$_Tree_node@U?$pair@$$CBKPAVCGuildMarkImage@@@std@@PAX@std@@@1@PAU?$_Tree_node@U?$pair@$$CBKPAVCGuildMarkImage@@@std@@PAX@1@$$QAU?$pair@$$CBKPAVCGuildMarkImage@@@1@@Z$1
xdata$x	ENDS
;	COMDAT xdata$x
xdata$x	SEGMENT
__ehfuncinfo$??0?$_Tree_temp_node_alloc@V?$allocator@U?$_Tree_node@U?$pair@$$CBKPAVCGuildMarkImage@@@std@@PAX@std@@@std@@@std@@QAE@AAV?$allocator@U?$_Tree_node@U?$pair@$$CBKPAVCGuildMarkImage@@@std@@PAX@std@@@1@@Z DD 019930522H
	DD	01H
	DD	FLAT:__unwindtable$??0?$_Tree_temp_node_alloc@V?$allocator@U?$_Tree_node@U?$pair@$$CBKPAVCGuildMarkImage@@@std@@PAX@std@@@std@@@std@@QAE@AAV?$allocator@U?$_Tree_node@U?$pair@$$CBKPAVCGuildMarkImage@@@std@@PAX@std@@@1@@Z
	DD	2 DUP(00H)
	DD	2 DUP(00H)
	DD	00H
	DD	01H
__unwindtable$??0?$_Tree_temp_node_alloc@V?$allocator@U?$_Tree_node@U?$pair@$$CBKPAVCGuildMarkImage@@@std@@PAX@std@@@std@@@std@@QAE@AAV?$allocator@U?$_Tree_node@U?$pair@$$CBKPAVCGuildMarkImage@@@std@@PAX@std@@@1@@Z DD 0ffffffffH
	DD	FLAT:__unwindfunclet$??0?$_Tree_temp_node_alloc@V?$allocator@U?$_Tree_node@U?$pair@$$CBKPAVCGuildMarkImage@@@std@@PAX@std@@@std@@@std@@QAE@AAV?$allocator@U?$_Tree_node@U?$pair@$$CBKPAVCGuildMarkImage@@@std@@PAX@std@@@1@@Z$0
; Function compile flags: /Ogtp
; File E:\Metin2_server\SolWayneSF v6\ClientVS22\source\UserInterface\MarkManager.cpp
;	COMDAT ?GetMarkImageCount@CGuildMarkManager@@QBEKXZ
_TEXT	SEGMENT
?GetMarkImageCount@CGuildMarkManager@@QBEKXZ PROC	; CGuildMarkManager::GetMarkImageCount, COMDAT
; _this$ = ecx

; 195  : 	return m_mapIdx_Image.size();

  00000	8b 41 08	 mov	 eax, DWORD PTR [ecx+8]

; 196  : }

  00003	c3		 ret	 0
?GetMarkImageCount@CGuildMarkManager@@QBEKXZ ENDP	; CGuildMarkManager::GetMarkImageCount
_TEXT	ENDS
; Function compile flags: /Ogtp
; File E:\Metin2_server\SolWayneSF v6\ClientVS22\source\UserInterface\MarkManager.cpp
; File C:\Program Files\Microsoft Visual Studio\2022\Community\VC\Tools\MSVC\14.34.31933\include\xstring
; File E:\Metin2_server\SolWayneSF v6\ClientVS22\source\UserInterface\MarkManager.cpp
; File C:\Program Files\Microsoft Visual Studio\2022\Community\VC\Tools\MSVC\14.34.31933\include\xstring
; File E:\Metin2_server\SolWayneSF v6\ClientVS22\source\UserInterface\MarkManager.cpp
; File C:\Program Files\Microsoft Visual Studio\2022\Community\VC\Tools\MSVC\14.34.31933\include\xstring
; File E:\Metin2_server\SolWayneSF v6\ClientVS22\source\UserInterface\MarkManager.cpp
;	COMDAT ?GetMarkImageFilename@CGuildMarkManager@@QBE_NKAAV?$basic_string@DU?$char_traits@D@std@@V?$allocator@D@2@@std@@@Z
_TEXT	SEGMENT
_buf$ = -68						; size = 64
__$ArrayPad$ = -4					; size = 4
_imgIdx$ = 8						; size = 4
_path$ = 12						; size = 4
?GetMarkImageFilename@CGuildMarkManager@@QBE_NKAAV?$basic_string@DU?$char_traits@D@std@@V?$allocator@D@2@@std@@@Z PROC ; CGuildMarkManager::GetMarkImageFilename, COMDAT
; _this$ = ecx

; 42   : {

  00000	55		 push	 ebp
  00001	8b ec		 mov	 ebp, esp
  00003	83 ec 44	 sub	 esp, 68			; 00000044H
  00006	a1 00 00 00 00	 mov	 eax, DWORD PTR ___security_cookie
  0000b	33 c5		 xor	 eax, ebp
  0000d	89 45 fc	 mov	 DWORD PTR __$ArrayPad$[ebp], eax

; 43   : 	if (imgIdx >= MAX_IMAGE_COUNT)

  00010	8b 55 08	 mov	 edx, DWORD PTR _imgIdx$[ebp]
  00013	56		 push	 esi
  00014	8b 75 0c	 mov	 esi, DWORD PTR _path$[ebp]
  00017	83 fa 05	 cmp	 edx, 5
  0001a	72 13		 jb	 SHORT $LN2@GetMarkIma

; 44   : 		return false;

  0001c	32 c0		 xor	 al, al
  0001e	5e		 pop	 esi

; 50   : }

  0001f	8b 4d fc	 mov	 ecx, DWORD PTR __$ArrayPad$[ebp]
  00022	33 cd		 xor	 ecx, ebp
  00024	e8 00 00 00 00	 call	 @__security_check_cookie@4
  00029	8b e5		 mov	 esp, ebp
  0002b	5d		 pop	 ebp
  0002c	c2 08 00	 ret	 8
$LN2@GetMarkIma:
; File C:\Program Files\Microsoft Visual Studio\2022\Community\VC\Tools\MSVC\14.34.31933\include\xstring

; 2301 :         return _BUF_SIZE <= _Myres;

  0002f	83 79 30 10	 cmp	 DWORD PTR [ecx+48], 16	; 00000010H

; 4256 :         return _Mypair._Myval2._Myptr();

  00033	8d 41 1c	 lea	 eax, DWORD PTR [ecx+28]

; 2293 :         if (_Large_string_engaged()) {

  00036	72 02		 jb	 SHORT $LN7@GetMarkIma

; 2294 :             _Result = _Unfancy(_Bx._Ptr);

  00038	8b 00		 mov	 eax, DWORD PTR [eax]
$LN7@GetMarkIma:
; File E:\Metin2_server\SolWayneSF v6\ClientVS22\source\UserInterface\MarkManager.cpp

; 47   : 	snprintf(buf, sizeof(buf), "mark/%s_%lu.tga", m_pathPrefix.c_str(), imgIdx);

  0003a	52		 push	 edx
  0003b	50		 push	 eax
  0003c	68 00 00 00 00	 push	 OFFSET ??_C@_0BA@BKPHNHHG@mark?1?$CFs_?$CFlu?4tga@
  00041	8d 45 bc	 lea	 eax, DWORD PTR _buf$[ebp]
  00044	6a 40		 push	 64			; 00000040H
  00046	50		 push	 eax
  00047	e8 00 00 00 00	 call	 __snprintf
; File C:\Program Files\Microsoft Visual Studio\2022\Community\VC\Tools\MSVC\14.34.31933\include\xstring

; 415  :             return __builtin_strlen(_First);

  0004c	8d 55 bc	 lea	 edx, DWORD PTR _buf$[ebp]
; File E:\Metin2_server\SolWayneSF v6\ClientVS22\source\UserInterface\MarkManager.cpp

; 47   : 	snprintf(buf, sizeof(buf), "mark/%s_%lu.tga", m_pathPrefix.c_str(), imgIdx);

  0004f	83 c4 14	 add	 esp, 20			; 00000014H
; File C:\Program Files\Microsoft Visual Studio\2022\Community\VC\Tools\MSVC\14.34.31933\include\xstring

; 415  :             return __builtin_strlen(_First);

  00052	8d 4a 01	 lea	 ecx, DWORD PTR [edx+1]
$LL17@GetMarkIma:
  00055	8a 02		 mov	 al, BYTE PTR [edx]
  00057	42		 inc	 edx
  00058	84 c0		 test	 al, al
  0005a	75 f9		 jne	 SHORT $LL17@GetMarkIma
  0005c	2b d1		 sub	 edx, ecx

; 3546 :         return assign(_Ptr, _Convert_size<size_type>(_Traits::length(_Ptr)));

  0005e	8d 45 bc	 lea	 eax, DWORD PTR _buf$[ebp]
  00061	52		 push	 edx
  00062	50		 push	 eax
  00063	8b ce		 mov	 ecx, esi
  00065	e8 00 00 00 00	 call	 ?assign@?$basic_string@DU?$char_traits@D@std@@V?$allocator@D@2@@std@@QAEAAV12@QBDI@Z ; std::basic_string<char,std::char_traits<char>,std::allocator<char> >::assign
; File E:\Metin2_server\SolWayneSF v6\ClientVS22\source\UserInterface\MarkManager.cpp

; 50   : }

  0006a	8b 4d fc	 mov	 ecx, DWORD PTR __$ArrayPad$[ebp]
  0006d	b0 01		 mov	 al, 1
  0006f	33 cd		 xor	 ecx, ebp
  00071	5e		 pop	 esi
  00072	e8 00 00 00 00	 call	 @__security_check_cookie@4
  00077	8b e5		 mov	 esp, ebp
  00079	5d		 pop	 ebp
  0007a	c2 08 00	 ret	 8
?GetMarkImageFilename@CGuildMarkManager@@QBE_NKAAV?$basic_string@DU?$char_traits@D@std@@V?$allocator@D@2@@std@@@Z ENDP ; CGuildMarkManager::GetMarkImageFilename
_TEXT	ENDS
; Function compile flags: /Ogtp
; File E:\Metin2_server\SolWayneSF v6\ClientVS22\source\UserInterface\MarkManager.cpp
; File C:\Program Files\Microsoft Visual Studio\2022\Community\VC\Tools\MSVC\14.34.31933\include\xstring
; File E:\Metin2_server\SolWayneSF v6\ClientVS22\source\UserInterface\MarkManager.cpp
; File C:\Program Files\Microsoft Visual Studio\2022\Community\VC\Tools\MSVC\14.34.31933\include\xstring
; File E:\Metin2_server\SolWayneSF v6\ClientVS22\source\UserInterface\MarkManager.cpp
; File C:\Program Files\Microsoft Visual Studio\2022\Community\VC\Tools\MSVC\14.34.31933\include\xstring
; File E:\Metin2_server\SolWayneSF v6\ClientVS22\source\UserInterface\MarkManager.cpp
; File C:\Program Files\Microsoft Visual Studio\2022\Community\VC\Tools\MSVC\14.34.31933\include\xstring
; File C:\Program Files\Microsoft Visual Studio\2022\Community\VC\Tools\MSVC\14.34.31933\include\xmemory
; File C:\Program Files\Microsoft Visual Studio\2022\Community\VC\Tools\MSVC\14.34.31933\include\xstring
; File C:\Program Files\Microsoft Visual Studio\2022\Community\VC\Tools\MSVC\14.34.31933\include\xmemory
; File E:\Metin2_server\SolWayneSF v6\ClientVS22\source\UserInterface\MarkManager.cpp
; File C:\Program Files\Microsoft Visual Studio\2022\Community\VC\Tools\MSVC\14.34.31933\include\xmemory
; File E:\Metin2_server\SolWayneSF v6\ClientVS22\source\UserInterface\MarkManager.cpp
;	COMDAT ?SaveMarkImage@CGuildMarkManager@@QAEXK@Z
_TEXT	SEGMENT
_path$ = -44						; size = 24
__$ArrayPad$ = -20					; size = 4
__$EHRec$ = -12						; size = 12
_imgIdx$ = 8						; size = 4
?SaveMarkImage@CGuildMarkManager@@QAEXK@Z PROC		; CGuildMarkManager::SaveMarkImage, COMDAT
; _this$ = ecx

; 124  : {

  00000	53		 push	 ebx
  00001	8b dc		 mov	 ebx, esp
  00003	83 ec 08	 sub	 esp, 8
  00006	83 e4 f8	 and	 esp, -8			; fffffff8H
  00009	83 c4 04	 add	 esp, 4
  0000c	55		 push	 ebp
  0000d	8b 6b 04	 mov	 ebp, DWORD PTR [ebx+4]
  00010	89 6c 24 04	 mov	 DWORD PTR [esp+4], ebp
  00014	8b ec		 mov	 ebp, esp
  00016	6a ff		 push	 -1
  00018	68 00 00 00 00	 push	 __ehhandler$?SaveMarkImage@CGuildMarkManager@@QAEXK@Z
  0001d	64 a1 00 00 00
	00		 mov	 eax, DWORD PTR fs:0
  00023	50		 push	 eax
  00024	53		 push	 ebx
  00025	83 ec 20	 sub	 esp, 32			; 00000020H
  00028	a1 00 00 00 00	 mov	 eax, DWORD PTR ___security_cookie
  0002d	33 c5		 xor	 eax, ebp
  0002f	89 45 ec	 mov	 DWORD PTR __$ArrayPad$[ebp], eax
  00032	56		 push	 esi
  00033	57		 push	 edi
  00034	50		 push	 eax
  00035	8d 45 f4	 lea	 eax, DWORD PTR __$EHRec$[ebp]
  00038	64 a3 00 00 00
	00		 mov	 DWORD PTR fs:0, eax
  0003e	8b f1		 mov	 esi, ecx
  00040	8b 7b 08	 mov	 edi, DWORD PTR _imgIdx$[ebx]
  00043	0f 57 c0	 xorps	 xmm0, xmm0
; File C:\Program Files\Microsoft Visual Studio\2022\Community\VC\Tools\MSVC\14.34.31933\include\xstring

; 2339 :         _CONSTEXPR20 _Bxty() noexcept : _Buf() {} // user-provided, for fancy pointers

  00046	0f 11 45 d4	 movups	 XMMWORD PTR _path$[ebp], xmm0

; 4995 :         _My_data._Mysize = 0;

  0004a	c7 45 e4 00 00
	00 00		 mov	 DWORD PTR _path$[ebp+16], 0

; 4996 :         _My_data._Myres  = _BUF_SIZE - 1;

  00051	c7 45 e8 0f 00
	00 00		 mov	 DWORD PTR _path$[ebp+20], 15 ; 0000000fH

; 4997 :         _My_data._Activate_SSO_buffer();
; 4998 : 
; 4999 :         // the _Traits::assign is last so the codegen doesn't think the char write can alias this
; 5000 :         _Traits::assign(_My_data._Bx._Buf[0], _Elem());

  00058	c6 45 d4 00	 mov	 BYTE PTR _path$[ebp], 0
; File E:\Metin2_server\SolWayneSF v6\ClientVS22\source\UserInterface\MarkManager.cpp

; 127  : 	if (GetMarkImageFilename(imgIdx, path))

  0005c	8d 45 d4	 lea	 eax, DWORD PTR _path$[ebp]
  0005f	c7 45 fc 00 00
	00 00		 mov	 DWORD PTR __$EHRec$[ebp+8], 0
  00066	50		 push	 eax
  00067	57		 push	 edi
  00068	e8 00 00 00 00	 call	 ?GetMarkImageFilename@CGuildMarkManager@@QBE_NKAAV?$basic_string@DU?$char_traits@D@std@@V?$allocator@D@2@@std@@@Z ; CGuildMarkManager::GetMarkImageFilename
  0006d	84 c0		 test	 al, al
  0006f	74 38		 je	 SHORT $LN3@SaveMarkIm

; 128  : 		if (!__GetImage(imgIdx)->Save(path.c_str()))

  00071	57		 push	 edi
  00072	8b ce		 mov	 ecx, esi
  00074	e8 00 00 00 00	 call	 ?__GetImage@CGuildMarkManager@@AAEPAVCGuildMarkImage@@K@Z ; CGuildMarkManager::__GetImage
; File C:\Program Files\Microsoft Visual Studio\2022\Community\VC\Tools\MSVC\14.34.31933\include\xstring

; 2301 :         return _BUF_SIZE <= _Myres;

  00079	83 7d e8 10	 cmp	 DWORD PTR _path$[ebp+20], 16 ; 00000010H

; 2292 :         const value_type* _Result = _Bx._Buf;

  0007d	8d 4d d4	 lea	 ecx, DWORD PTR _path$[ebp]

; 2293 :         if (_Large_string_engaged()) {

  00080	0f 43 4d d4	 cmovae	 ecx, DWORD PTR _path$[ebp]
; File E:\Metin2_server\SolWayneSF v6\ClientVS22\source\UserInterface\MarkManager.cpp

; 128  : 		if (!__GetImage(imgIdx)->Save(path.c_str()))

  00084	51		 push	 ecx
  00085	8b c8		 mov	 ecx, eax
  00087	e8 00 00 00 00	 call	 ?Save@CGuildMarkImage@@QAE_NPBD@Z ; CGuildMarkImage::Save
  0008c	84 c0		 test	 al, al
  0008e	75 19		 jne	 SHORT $LN3@SaveMarkIm
; File C:\Program Files\Microsoft Visual Studio\2022\Community\VC\Tools\MSVC\14.34.31933\include\xstring

; 2301 :         return _BUF_SIZE <= _Myres;

  00090	83 7d e8 10	 cmp	 DWORD PTR _path$[ebp+20], 16 ; 00000010H

; 2292 :         const value_type* _Result = _Bx._Buf;

  00094	8d 45 d4	 lea	 eax, DWORD PTR _path$[ebp]

; 2293 :         if (_Large_string_engaged()) {

  00097	0f 43 45 d4	 cmovae	 eax, DWORD PTR _path$[ebp]
; File E:\Metin2_server\SolWayneSF v6\ClientVS22\source\UserInterface\MarkManager.cpp

; 129  : 			sys_err("%s Save failed\n", path.c_str());

  0009b	50		 push	 eax
  0009c	68 00 00 00 00	 push	 OFFSET ??_C@_0BA@PBMNNCMH@?$CFs?5Save?5failed?6@
  000a1	e8 00 00 00 00	 call	 ?TraceError@@YAXPBDZZ	; TraceError
  000a6	83 c4 08	 add	 esp, 8
$LN3@SaveMarkIm:
; File C:\Program Files\Microsoft Visual Studio\2022\Community\VC\Tools\MSVC\14.34.31933\include\xstring

; 2301 :         return _BUF_SIZE <= _Myres;

  000a9	8b 4d e8	 mov	 ecx, DWORD PTR _path$[ebp+20]
  000ac	83 f9 10	 cmp	 ecx, 16			; 00000010H

; 5008 :         if (_My_data._Large_string_engaged()) {

  000af	72 28		 jb	 SHORT $LN31@SaveMarkIm
; File C:\Program Files\Microsoft Visual Studio\2022\Community\VC\Tools\MSVC\14.34.31933\include\xmemory

; 830  :         _Deallocate<_New_alignof<_Ty>>(_Ptr, sizeof(_Ty) * _Count);

  000b1	8b 55 d4	 mov	 edx, DWORD PTR _path$[ebp]
; File C:\Program Files\Microsoft Visual Studio\2022\Community\VC\Tools\MSVC\14.34.31933\include\xstring

; 5013 :             _Al.deallocate(_Ptr, _My_data._Myres + 1);

  000b4	41		 inc	 ecx
; File C:\Program Files\Microsoft Visual Studio\2022\Community\VC\Tools\MSVC\14.34.31933\include\xmemory

; 830  :         _Deallocate<_New_alignof<_Ty>>(_Ptr, sizeof(_Ty) * _Count);

  000b5	8b c2		 mov	 eax, edx

; 251  :         if (_Bytes >= _Big_allocation_threshold) { // boost the alignment of big allocations to help autovectorization

  000b7	81 f9 00 10 00
	00		 cmp	 ecx, 4096		; 00001000H
  000bd	72 10		 jb	 SHORT $LN43@SaveMarkIm

; 150  :     const uintptr_t _Ptr_container   = _Ptr_user[-1];

  000bf	8b 50 fc	 mov	 edx, DWORD PTR [eax-4]
  000c2	83 c1 23	 add	 ecx, 35			; 00000023H
  000c5	2b c2		 sub	 eax, edx

; 164  :     _STL_VERIFY(_Back_shift >= _Min_back_shift && _Back_shift <= _Non_user_size, "invalid argument");

  000c7	83 c0 fc	 add	 eax, -4			; fffffffcH
  000ca	83 f8 1f	 cmp	 eax, 31			; 0000001fH
  000cd	77 2a		 ja	 SHORT $LN66@SaveMarkIm
$LN43@SaveMarkIm:

; 255  :         ::operator delete(_Ptr, _Bytes);

  000cf	51		 push	 ecx
  000d0	52		 push	 edx
  000d1	e8 00 00 00 00	 call	 ??3@YAXPAXI@Z		; operator delete
  000d6	83 c4 08	 add	 esp, 8
$LN31@SaveMarkIm:
; File E:\Metin2_server\SolWayneSF v6\ClientVS22\source\UserInterface\MarkManager.cpp

; 130  : }

  000d9	8b 4d f4	 mov	 ecx, DWORD PTR __$EHRec$[ebp]
  000dc	64 89 0d 00 00
	00 00		 mov	 DWORD PTR fs:0, ecx
  000e3	59		 pop	 ecx
  000e4	5f		 pop	 edi
  000e5	5e		 pop	 esi
  000e6	8b 4d ec	 mov	 ecx, DWORD PTR __$ArrayPad$[ebp]
  000e9	33 cd		 xor	 ecx, ebp
  000eb	e8 00 00 00 00	 call	 @__security_check_cookie@4
  000f0	8b e5		 mov	 esp, ebp
  000f2	5d		 pop	 ebp
  000f3	8b e3		 mov	 esp, ebx
  000f5	5b		 pop	 ebx
  000f6	c2 04 00	 ret	 4
$LN66@SaveMarkIm:
; File C:\Program Files\Microsoft Visual Studio\2022\Community\VC\Tools\MSVC\14.34.31933\include\xmemory

; 164  :     _STL_VERIFY(_Back_shift >= _Min_back_shift && _Back_shift <= _Non_user_size, "invalid argument");

  000f9	e8 00 00 00 00	 call	 __invalid_parameter_noinfo_noreturn
$LN64@SaveMarkIm:
  000fe	cc		 int	 3
_TEXT	ENDS
;	COMDAT text$x
text$x	SEGMENT
__unwindfunclet$?SaveMarkImage@CGuildMarkManager@@QAEXK@Z$0:
  00000	8d 4d d4	 lea	 ecx, DWORD PTR _path$[ebp]
  00003	e9 00 00 00 00	 jmp	 ??1?$basic_string@DU?$char_traits@D@std@@V?$allocator@D@2@@std@@QAE@XZ ; std::basic_string<char,std::char_traits<char>,std::allocator<char> >::~basic_string<char,std::char_traits<char>,std::allocator<char> >
  00008	cc		 int	 3
  00009	cc		 int	 3
  0000a	cc		 int	 3
  0000b	cc		 int	 3
  0000c	cc		 int	 3
__ehhandler$?SaveMarkImage@CGuildMarkManager@@QAEXK@Z:
  0000d	90		 npad	 1
  0000e	90		 npad	 1
  0000f	8b 54 24 08	 mov	 edx, DWORD PTR [esp+8]
  00013	8d 42 0c	 lea	 eax, DWORD PTR [edx+12]
  00016	8b 4a d0	 mov	 ecx, DWORD PTR [edx-48]
  00019	33 c8		 xor	 ecx, eax
  0001b	e8 00 00 00 00	 call	 @__security_check_cookie@4
  00020	8b 4a f8	 mov	 ecx, DWORD PTR [edx-8]
  00023	33 c8		 xor	 ecx, eax
  00025	e8 00 00 00 00	 call	 @__security_check_cookie@4
  0002a	b8 00 00 00 00	 mov	 eax, OFFSET __ehfuncinfo$?SaveMarkImage@CGuildMarkManager@@QAEXK@Z
  0002f	e9 00 00 00 00	 jmp	 ___CxxFrameHandler3
text$x	ENDS
?SaveMarkImage@CGuildMarkManager@@QAEXK@Z ENDP		; CGuildMarkManager::SaveMarkImage
; Function compile flags: /Ogtp
; File E:\Metin2_server\SolWayneSF v6\ClientVS22\source\UserInterface\MarkManager.cpp
;	COMDAT ?SaveBlockFromCompressedData@CGuildMarkManager@@QAE_NKKPBEK@Z
_TEXT	SEGMENT
_imgIdx$ = 8						; size = 4
_posBlock$ = 12						; size = 4
_pbBlock$ = 16						; size = 4
_dwSize$ = 20						; size = 4
?SaveBlockFromCompressedData@CGuildMarkManager@@QAE_NKKPBEK@Z PROC ; CGuildMarkManager::SaveBlockFromCompressedData, COMDAT
; _this$ = ecx

; 289  : {

  00000	55		 push	 ebp
  00001	8b ec		 mov	 ebp, esp

; 290  : 	CGuildMarkImage * pkImage = __GetImage(imgIdx);

  00003	ff 75 08	 push	 DWORD PTR _imgIdx$[ebp]
  00006	e8 00 00 00 00	 call	 ?__GetImage@CGuildMarkManager@@AAEPAVCGuildMarkImage@@K@Z ; CGuildMarkManager::__GetImage

; 291  : 
; 292  : 	if (pkImage)

  0000b	85 c0		 test	 eax, eax
  0000d	74 10		 je	 SHORT $LN4@SaveBlockF

; 293  : 		pkImage->SaveBlockFromCompressedData(posBlock, pbBlock, dwSize);

  0000f	ff 75 14	 push	 DWORD PTR _dwSize$[ebp]
  00012	8b c8		 mov	 ecx, eax
  00014	ff 75 10	 push	 DWORD PTR _pbBlock$[ebp]
  00017	ff 75 0c	 push	 DWORD PTR _posBlock$[ebp]
  0001a	e8 00 00 00 00	 call	 ?SaveBlockFromCompressedData@CGuildMarkImage@@QAE_NKPBEK@Z ; CGuildMarkImage::SaveBlockFromCompressedData
$LN4@SaveBlockF:

; 294  : 
; 295  : 	return false;
; 296  : }

  0001f	32 c0		 xor	 al, al
  00021	5d		 pop	 ebp
  00022	c2 10 00	 ret	 16			; 00000010H
?SaveBlockFromCompressedData@CGuildMarkManager@@QAE_NKKPBEK@Z ENDP ; CGuildMarkManager::SaveBlockFromCompressedData
_TEXT	ENDS
; Function compile flags: /Ogtp
; File E:\Metin2_server\SolWayneSF v6\ClientVS22\source\UserInterface\MarkManager.cpp
; File C:\Program Files\Microsoft Visual Studio\2022\Community\VC\Tools\MSVC\14.34.31933\include\xtree
; File C:\Program Files\Microsoft Visual Studio\2022\Community\VC\Tools\MSVC\14.34.31933\include\xstddef
; File C:\Program Files\Microsoft Visual Studio\2022\Community\VC\Tools\MSVC\14.34.31933\include\xtree
; File E:\Metin2_server\SolWayneSF v6\ClientVS22\source\UserInterface\MarkManager.cpp
;	COMDAT ?GetBlockCRCList@CGuildMarkManager@@QAE_NKPAK@Z
_TEXT	SEGMENT
__Loc$1 = -12						; size = 12
_imgIdx$ = 8						; size = 4
_crcList$ = 12						; size = 4
?GetBlockCRCList@CGuildMarkManager@@QAE_NKPAK@Z PROC	; CGuildMarkManager::GetBlockCRCList, COMDAT
; _this$ = ecx

; 300  : {

  00000	55		 push	 ebp
  00001	8b ec		 mov	 ebp, esp
  00003	83 ec 10	 sub	 esp, 16			; 00000010H
  00006	56		 push	 esi
  00007	57		 push	 edi
  00008	8b f1		 mov	 esi, ecx
; File C:\Program Files\Microsoft Visual Studio\2022\Community\VC\Tools\MSVC\14.34.31933\include\xtree

; 1367 :         const _Tree_find_result<_Nodeptr> _Loc = _Find_lower_bound(_Keyval);

  0000a	8d 45 08	 lea	 eax, DWORD PTR _imgIdx$[ebp]

; 38   :     _Tree_unchecked_const_iterator(_Nodeptr _Pnode, const _Mytree* _Plist) noexcept : _Ptr(_Pnode) {

  0000d	8b 7e 04	 mov	 edi, DWORD PTR [esi+4]

; 1136 :         return iterator(_Scary->_Myhead, _Scary);

  00010	8d 4e 04	 lea	 ecx, DWORD PTR [esi+4]

; 1367 :         const _Tree_find_result<_Nodeptr> _Loc = _Find_lower_bound(_Keyval);

  00013	50		 push	 eax
  00014	8d 45 f4	 lea	 eax, DWORD PTR __Loc$1[ebp]
  00017	50		 push	 eax
  00018	e8 00 00 00 00	 call	 ??$_Find_lower_bound@K@?$_Tree@V?$_Tmap_traits@KPAVCGuildMarkImage@@U?$less@K@std@@V?$allocator@U?$pair@$$CBKPAVCGuildMarkImage@@@std@@@3@$0A@@std@@@std@@IBE?AU?$_Tree_find_result@PAU?$_Tree_node@U?$pair@$$CBKPAVCGuildMarkImage@@@std@@PAX@std@@@1@ABK@Z ; std::_Tree<std::_Tmap_traits<unsigned long,CGuildMarkImage *,std::less<unsigned long>,std::allocator<std::pair<unsigned long const ,CGuildMarkImage *> >,0> >::_Find_lower_bound<unsigned long>

; 1605 :         return !_Bound->_Isnil && !_DEBUG_LT_PRED(_Getcomp(), _Keyval, _Traits::_Kfn(_Bound->_Myval));

  0001d	8b 4d fc	 mov	 ecx, DWORD PTR __Loc$1[ebp+8]
  00020	8b 45 08	 mov	 eax, DWORD PTR _imgIdx$[ebp]
  00023	80 79 0d 00	 cmp	 BYTE PTR [ecx+13], 0
  00027	75 29		 jne	 SHORT $LN32@GetBlockCR
; File C:\Program Files\Microsoft Visual Studio\2022\Community\VC\Tools\MSVC\14.34.31933\include\xstddef

; 143  :         return _Left < _Right;

  00029	3b 41 10	 cmp	 eax, DWORD PTR [ecx+16]
; File C:\Program Files\Microsoft Visual Studio\2022\Community\VC\Tools\MSVC\14.34.31933\include\xtree

; 1605 :         return !_Bound->_Isnil && !_DEBUG_LT_PRED(_Getcomp(), _Keyval, _Traits::_Kfn(_Bound->_Myval));

  0002c	72 24		 jb	 SHORT $LN32@GetBlockCR

; 233  :         return this->_Ptr == _Right._Ptr;

  0002e	3b f9		 cmp	 edi, ecx
; File E:\Metin2_server\SolWayneSF v6\ClientVS22\source\UserInterface\MarkManager.cpp

; 302  : 	if (m_mapIdx_Image.end() == m_mapIdx_Image.find(imgIdx))

  00030	74 20		 je	 SHORT $LN32@GetBlockCR

; 306  : 	}
; 307  : 
; 308  : 	CGuildMarkImage * p = __GetImage(imgIdx);

  00032	50		 push	 eax
  00033	8b ce		 mov	 ecx, esi
  00035	e8 00 00 00 00	 call	 ?__GetImage@CGuildMarkManager@@AAEPAVCGuildMarkImage@@K@Z ; CGuildMarkManager::__GetImage

; 309  : 	
; 310  : 	if (p)

  0003a	85 c0		 test	 eax, eax
  0003c	74 0a		 je	 SHORT $LN3@GetBlockCR

; 311  : 		p->GetBlockCRCList(crcList);

  0003e	ff 75 0c	 push	 DWORD PTR _crcList$[ebp]
  00041	8b c8		 mov	 ecx, eax
  00043	e8 00 00 00 00	 call	 ?GetBlockCRCList@CGuildMarkImage@@QAEXPAK@Z ; CGuildMarkImage::GetBlockCRCList
$LN3@GetBlockCR:

; 312  : 
; 313  : 	return true;

  00048	b0 01		 mov	 al, 1

; 314  : }

  0004a	5f		 pop	 edi
  0004b	5e		 pop	 esi
  0004c	8b e5		 mov	 esp, ebp
  0004e	5d		 pop	 ebp
  0004f	c2 08 00	 ret	 8
$LN32@GetBlockCR:

; 303  : 	{
; 304  : 		sys_err("invalid idx %u", imgIdx);

  00052	50		 push	 eax
  00053	68 00 00 00 00	 push	 OFFSET ??_C@_0P@PFBACHEK@invalid?5idx?5?$CFu@
  00058	e8 00 00 00 00	 call	 ?TraceError@@YAXPBDZZ	; TraceError
  0005d	83 c4 08	 add	 esp, 8

; 305  : 		return false;

  00060	32 c0		 xor	 al, al

; 314  : }

  00062	5f		 pop	 edi
  00063	5e		 pop	 esi
  00064	8b e5		 mov	 esp, ebp
  00066	5d		 pop	 ebp
  00067	c2 08 00	 ret	 8
?GetBlockCRCList@CGuildMarkManager@@QAE_NKPAK@Z ENDP	; CGuildMarkManager::GetBlockCRCList
_TEXT	ENDS
; Function compile flags: /Ogtp
; File E:\Metin2_server\SolWayneSF v6\ClientVS22\source\UserInterface\MarkManager.cpp
; File C:\Program Files\Microsoft Visual Studio\2022\Community\VC\Tools\MSVC\14.34.31933\include\xtree
; File E:\Metin2_server\SolWayneSF v6\ClientVS22\source\UserInterface\MarkManager.cpp
; File C:\Program Files\Microsoft Visual Studio\2022\Community\VC\Tools\MSVC\14.34.31933\include\xtree
; File E:\Metin2_server\SolWayneSF v6\ClientVS22\source\UserInterface\MarkManager.cpp
;	COMDAT ?LoadMarkImages@CGuildMarkManager@@QAEXXZ
_TEXT	SEGMENT
_it$1 = -16						; size = 4
_isMarkExists$ = -12					; size = 5
__$ArrayPad$ = -4					; size = 4
?LoadMarkImages@CGuildMarkManager@@QAEXXZ PROC		; CGuildMarkManager::LoadMarkImages, COMDAT
; _this$ = ecx

; 106  : {

  00000	55		 push	 ebp
  00001	8b ec		 mov	 ebp, esp
  00003	83 ec 10	 sub	 esp, 16			; 00000010H
  00006	a1 00 00 00 00	 mov	 eax, DWORD PTR ___security_cookie
  0000b	33 c5		 xor	 eax, ebp
  0000d	89 45 fc	 mov	 DWORD PTR __$ArrayPad$[ebp], eax
  00010	56		 push	 esi
  00011	57		 push	 edi
  00012	8b f9		 mov	 edi, ecx

; 107  : 	bool isMarkExists[MAX_IMAGE_COUNT];
; 108  : 	memset(isMarkExists, 0, sizeof(isMarkExists));

  00014	c7 45 f4 00 00
	00 00		 mov	 DWORD PTR _isMarkExists$[ebp], 0
  0001b	c6 45 f8 00	 mov	 BYTE PTR _isMarkExists$[ebp+4], 0
; File C:\Program Files\Microsoft Visual Studio\2022\Community\VC\Tools\MSVC\14.34.31933\include\xtree

; 1126 :         return iterator(_Scary->_Myhead->_Left, _Scary);

  0001f	8b 77 0c	 mov	 esi, DWORD PTR [edi+12]

; 38   :     _Tree_unchecked_const_iterator(_Nodeptr _Pnode, const _Mytree* _Plist) noexcept : _Ptr(_Pnode) {

  00022	8b 06		 mov	 eax, DWORD PTR [esi]
  00024	89 45 f0	 mov	 DWORD PTR _it$1[ebp], eax
  00027	3b c6		 cmp	 eax, esi
; File E:\Metin2_server\SolWayneSF v6\ClientVS22\source\UserInterface\MarkManager.cpp

; 110  : 	for (std::map<DWORD, DWORD>::iterator it = m_mapGID_MarkID.begin(); it != m_mapGID_MarkID.end(); ++it)

  00029	74 2e		 je	 SHORT $LN3@LoadMarkIm
  0002b	0f 1f 44 00 00	 npad	 5
$LL24@LoadMarkIm:

; 111  : 	{
; 112  : 		DWORD markID = it->second;

  00030	8b 48 14	 mov	 ecx, DWORD PTR [eax+20]

; 113  : 
; 114  : 		if (markID < MAX_IMAGE_COUNT * CGuildMarkImage::MARK_TOTAL_COUNT)

  00033	81 f9 00 19 00
	00		 cmp	 ecx, 6400		; 00001900H
  00039	73 0f		 jae	 SHORT $LN2@LoadMarkIm

; 115  : 			isMarkExists[markID / CGuildMarkImage::MARK_TOTAL_COUNT] = true;

  0003b	b8 cd cc cc cc	 mov	 eax, -858993459		; cccccccdH
  00040	f7 e1		 mul	 ecx
  00042	c1 ea 0a	 shr	 edx, 10			; 0000000aH
  00045	c6 44 15 f4 01	 mov	 BYTE PTR _isMarkExists$[ebp+edx], 1
$LN2@LoadMarkIm:
; File C:\Program Files\Microsoft Visual Studio\2022\Community\VC\Tools\MSVC\14.34.31933\include\xtree

; 199  :         _Mybase::operator++();

  0004a	8d 4d f0	 lea	 ecx, DWORD PTR _it$1[ebp]
  0004d	e8 00 00 00 00	 call	 ??E?$_Tree_unchecked_const_iterator@V?$_Tree_val@U?$_Tree_simple_types@U?$pair@$$CBKK@std@@@std@@@std@@U_Iterator_base0@2@@std@@QAEAAV01@XZ ; std::_Tree_unchecked_const_iterator<std::_Tree_val<std::_Tree_simple_types<std::pair<unsigned long const ,unsigned long> > >,std::_Iterator_base0>::operator++

; 233  :         return this->_Ptr == _Right._Ptr;

  00052	8b 45 f0	 mov	 eax, DWORD PTR _it$1[ebp]
  00055	3b c6		 cmp	 eax, esi
; File E:\Metin2_server\SolWayneSF v6\ClientVS22\source\UserInterface\MarkManager.cpp

; 110  : 	for (std::map<DWORD, DWORD>::iterator it = m_mapGID_MarkID.begin(); it != m_mapGID_MarkID.end(); ++it)

  00057	75 d7		 jne	 SHORT $LL24@LoadMarkIm
$LN3@LoadMarkIm:

; 116  : 	}
; 117  : 
; 118  : 	for (DWORD i = 0; i < MAX_IMAGE_COUNT; ++i)

  00059	33 f6		 xor	 esi, esi
  0005b	0f 1f 44 00 00	 npad	 5
$LL7@LoadMarkIm:

; 119  : 		if (isMarkExists[i])

  00060	80 7c 35 f4 00	 cmp	 BYTE PTR _isMarkExists$[ebp+esi], 0
  00065	74 08		 je	 SHORT $LN5@LoadMarkIm

; 120  : 			__GetImage(i);

  00067	56		 push	 esi
  00068	8b cf		 mov	 ecx, edi
  0006a	e8 00 00 00 00	 call	 ?__GetImage@CGuildMarkManager@@AAEPAVCGuildMarkImage@@K@Z ; CGuildMarkManager::__GetImage
$LN5@LoadMarkIm:

; 116  : 	}
; 117  : 
; 118  : 	for (DWORD i = 0; i < MAX_IMAGE_COUNT; ++i)

  0006f	46		 inc	 esi
  00070	83 fe 05	 cmp	 esi, 5
  00073	72 eb		 jb	 SHORT $LL7@LoadMarkIm

; 121  : }

  00075	8b 4d fc	 mov	 ecx, DWORD PTR __$ArrayPad$[ebp]
  00078	5f		 pop	 edi
  00079	33 cd		 xor	 ecx, ebp
  0007b	5e		 pop	 esi
  0007c	e8 00 00 00 00	 call	 @__security_check_cookie@4
  00081	8b e5		 mov	 esp, ebp
  00083	5d		 pop	 ebp
  00084	c3		 ret	 0
?LoadMarkImages@CGuildMarkManager@@QAEXXZ ENDP		; CGuildMarkManager::LoadMarkImages
_TEXT	ENDS
; Function compile flags: /Ogtp
; File E:\Metin2_server\SolWayneSF v6\ClientVS22\source\UserInterface\MarkManager.cpp
; File C:\Program Files\Microsoft Visual Studio\2022\Community\VC\Tools\MSVC\14.34.31933\include\utility
; File E:\Metin2_server\SolWayneSF v6\ClientVS22\source\UserInterface\MarkManager.cpp
; File C:\Program Files\Microsoft Visual Studio\2022\Community\VC\Tools\MSVC\14.34.31933\include\utility
; File E:\Metin2_server\SolWayneSF v6\ClientVS22\source\UserInterface\MarkManager.cpp
; File C:\Program Files\Microsoft Visual Studio\2022\Community\VC\Tools\MSVC\14.34.31933\include\utility
; File E:\Metin2_server\SolWayneSF v6\ClientVS22\source\UserInterface\MarkManager.cpp
;	COMDAT ?AddMarkIDByGuildID@CGuildMarkManager@@QAE_NKK@Z
_TEXT	SEGMENT
$T1 = -16						; size = 8
$T2 = -8						; size = 8
_guildID$ = 8						; size = 4
_markID$ = 12						; size = 4
?AddMarkIDByGuildID@CGuildMarkManager@@QAE_NKK@Z PROC	; CGuildMarkManager::AddMarkIDByGuildID, COMDAT
; _this$ = ecx

; 155  : {

  00000	55		 push	 ebp
  00001	8b ec		 mov	 ebp, esp

; 156  : 	if (markID >= MAX_IMAGE_COUNT * CGuildMarkImage::MARK_TOTAL_COUNT)

  00003	8b 55 0c	 mov	 edx, DWORD PTR _markID$[ebp]
  00006	83 ec 14	 sub	 esp, 20			; 00000014H
  00009	56		 push	 esi
  0000a	8b f1		 mov	 esi, ecx
  0000c	81 fa 00 19 00
	00		 cmp	 edx, 6400		; 00001900H
  00012	72 09		 jb	 SHORT $LN2@AddMarkIDB

; 157  : 		return false;

  00014	32 c0		 xor	 al, al

; 163  : }

  00016	5e		 pop	 esi
  00017	8b e5		 mov	 esp, ebp
  00019	5d		 pop	 ebp
  0001a	c2 08 00	 ret	 8
$LN2@AddMarkIDB:
; File C:\Program Files\Microsoft Visual Studio\2022\Community\VC\Tools\MSVC\14.34.31933\include\utility

; 172  :         : first(_STD forward<_Other1>(_Val1)), second(_STD forward<_Other2>(_Val2)) {

  0001d	8b 45 08	 mov	 eax, DWORD PTR _guildID$[ebp]
; File E:\Metin2_server\SolWayneSF v6\ClientVS22\source\UserInterface\MarkManager.cpp

; 160  : 	m_mapGID_MarkID.insert(std::map<DWORD, DWORD>::value_type(guildID, markID));

  00020	8d 4e 0c	 lea	 ecx, DWORD PTR [esi+12]
; File C:\Program Files\Microsoft Visual Studio\2022\Community\VC\Tools\MSVC\14.34.31933\include\utility

; 172  :         : first(_STD forward<_Other1>(_Val1)), second(_STD forward<_Other2>(_Val2)) {

  00023	89 45 f8	 mov	 DWORD PTR $T2[ebp], eax
; File E:\Metin2_server\SolWayneSF v6\ClientVS22\source\UserInterface\MarkManager.cpp

; 160  : 	m_mapGID_MarkID.insert(std::map<DWORD, DWORD>::value_type(guildID, markID));

  00026	8d 45 f8	 lea	 eax, DWORD PTR $T2[ebp]
  00029	50		 push	 eax
  0002a	8d 45 f0	 lea	 eax, DWORD PTR $T1[ebp]
; File C:\Program Files\Microsoft Visual Studio\2022\Community\VC\Tools\MSVC\14.34.31933\include\utility

; 172  :         : first(_STD forward<_Other1>(_Val1)), second(_STD forward<_Other2>(_Val2)) {

  0002d	89 55 fc	 mov	 DWORD PTR $T2[ebp+4], edx
; File E:\Metin2_server\SolWayneSF v6\ClientVS22\source\UserInterface\MarkManager.cpp

; 160  : 	m_mapGID_MarkID.insert(std::map<DWORD, DWORD>::value_type(guildID, markID));

  00030	50		 push	 eax
  00031	e8 00 00 00 00	 call	 ??$insert@$0A@$0A@@?$_Tree@V?$_Tmap_traits@KKU?$less@K@std@@V?$allocator@U?$pair@$$CBKK@std@@@2@$0A@@std@@@std@@QAE?AU?$pair@V?$_Tree_iterator@V?$_Tree_val@U?$_Tree_simple_types@U?$pair@$$CBKK@std@@@std@@@std@@@std@@_N@1@$$QAU?$pair@$$CBKK@1@@Z ; std::_Tree<std::_Tmap_traits<unsigned long,unsigned long,std::less<unsigned long>,std::allocator<std::pair<unsigned long const ,unsigned long> >,0> >::insert<0,0>

; 161  : 	m_setFreeMarkID.erase(markID);

  00036	8d 45 0c	 lea	 eax, DWORD PTR _markID$[ebp]
  00039	50		 push	 eax
  0003a	8d 4e 14	 lea	 ecx, DWORD PTR [esi+20]
  0003d	e8 00 00 00 00	 call	 ?erase@?$_Tree@V?$_Tset_traits@KU?$less@K@std@@V?$allocator@K@2@$0A@@std@@@std@@QAEIABK@Z ; std::_Tree<std::_Tset_traits<unsigned long,std::less<unsigned long>,std::allocator<unsigned long>,0> >::erase

; 162  : 	return true;

  00042	b0 01		 mov	 al, 1

; 163  : }

  00044	5e		 pop	 esi
  00045	8b e5		 mov	 esp, ebp
  00047	5d		 pop	 ebp
  00048	c2 08 00	 ret	 8
?AddMarkIDByGuildID@CGuildMarkManager@@QAE_NKK@Z ENDP	; CGuildMarkManager::AddMarkIDByGuildID
_TEXT	ENDS
; Function compile flags: /Ogtp
; File E:\Metin2_server\SolWayneSF v6\ClientVS22\source\UserInterface\MarkManager.cpp
;	COMDAT ?__NewImage@CGuildMarkManager@@AAEPAVCGuildMarkImage@@XZ
_TEXT	SEGMENT
$T1 = -4						; size = 4
?__NewImage@CGuildMarkManager@@AAEPAVCGuildMarkImage@@XZ PROC ; CGuildMarkManager::__NewImage, COMDAT
; _this$dead$ = ecx

; 14   : {

  00000	55		 push	 ebp
  00001	8b ec		 mov	 ebp, esp
  00003	51		 push	 ecx

; 15   : 	return new CGuildMarkImage;

  00004	68 c8 07 5f 00	 push	 6227912			; 005f07c8H
  00009	e8 00 00 00 00	 call	 ??2@YAPAXI@Z		; operator new
  0000e	83 c4 04	 add	 esp, 4
  00011	89 45 fc	 mov	 DWORD PTR $T1[ebp], eax
  00014	8b c8		 mov	 ecx, eax
  00016	e8 00 00 00 00	 call	 ??0CGuildMarkImage@@QAE@XZ ; CGuildMarkImage::CGuildMarkImage

; 16   : }

  0001b	8b e5		 mov	 esp, ebp
  0001d	5d		 pop	 ebp
  0001e	c3		 ret	 0
?__NewImage@CGuildMarkManager@@AAEPAVCGuildMarkImage@@XZ ENDP ; CGuildMarkManager::__NewImage
_TEXT	ENDS
; Function compile flags: /Ogtp
; File E:\Metin2_server\SolWayneSF v6\ClientVS22\source\UserInterface\MarkManager.cpp
;	COMDAT ?__DeleteImage@CGuildMarkManager@@AAEXPAVCGuildMarkImage@@@Z
_TEXT	SEGMENT
_pkImgDel$ = 8						; size = 4
?__DeleteImage@CGuildMarkManager@@AAEXPAVCGuildMarkImage@@@Z PROC ; CGuildMarkManager::__DeleteImage, COMDAT
; _this$dead$ = ecx

; 19   : {

  00000	55		 push	 ebp
  00001	8b ec		 mov	 ebp, esp

; 20   : 	delete pkImgDel;

  00003	8b 4d 08	 mov	 ecx, DWORD PTR _pkImgDel$[ebp]
  00006	85 c9		 test	 ecx, ecx
  00008	74 0c		 je	 SHORT $LN3@DeleteImag
  0000a	8b 01		 mov	 eax, DWORD PTR [ecx]
  0000c	c7 45 08 01 00
	00 00		 mov	 DWORD PTR _pkImgDel$[ebp], 1

; 21   : }

  00013	5d		 pop	 ebp

; 20   : 	delete pkImgDel;

  00014	ff 20		 jmp	 DWORD PTR [eax]
$LN3@DeleteImag:

; 21   : }

  00016	5d		 pop	 ebp
  00017	c2 04 00	 ret	 4
?__DeleteImage@CGuildMarkManager@@AAEXPAVCGuildMarkImage@@@Z ENDP ; CGuildMarkManager::__DeleteImage
_TEXT	ENDS
; Function compile flags: /Ogtp
; File E:\Metin2_server\SolWayneSF v6\ClientVS22\source\UserInterface\MarkManager.cpp
; File E:\Metin2_server\SolWayneSF v6\ClientVS22\source\eterBase\Singleton.h
; File E:\Metin2_server\SolWayneSF v6\ClientVS22\source\UserInterface\MarkManager.cpp
; File C:\Program Files\Microsoft Visual Studio\2022\Community\VC\Tools\MSVC\14.34.31933\include\xmemory
; File C:\Program Files\Microsoft Visual Studio\2022\Community\VC\Tools\MSVC\14.34.31933\include\xtree
; File C:\Program Files\Microsoft Visual Studio\2022\Community\VC\Tools\MSVC\14.34.31933\include\xmemory
; File C:\Program Files\Microsoft Visual Studio\2022\Community\VC\Tools\MSVC\14.34.31933\include\xtree
; File E:\Metin2_server\SolWayneSF v6\ClientVS22\source\UserInterface\MarkManager.cpp
; File C:\Program Files\Microsoft Visual Studio\2022\Community\VC\Tools\MSVC\14.34.31933\include\xmemory
; File C:\Program Files\Microsoft Visual Studio\2022\Community\VC\Tools\MSVC\14.34.31933\include\xtree
; File C:\Program Files\Microsoft Visual Studio\2022\Community\VC\Tools\MSVC\14.34.31933\include\xmemory
; File C:\Program Files\Microsoft Visual Studio\2022\Community\VC\Tools\MSVC\14.34.31933\include\xtree
; File E:\Metin2_server\SolWayneSF v6\ClientVS22\source\UserInterface\MarkManager.cpp
; File C:\Program Files\Microsoft Visual Studio\2022\Community\VC\Tools\MSVC\14.34.31933\include\xmemory
; File C:\Program Files\Microsoft Visual Studio\2022\Community\VC\Tools\MSVC\14.34.31933\include\xtree
; File C:\Program Files\Microsoft Visual Studio\2022\Community\VC\Tools\MSVC\14.34.31933\include\xmemory
; File C:\Program Files\Microsoft Visual Studio\2022\Community\VC\Tools\MSVC\14.34.31933\include\xtree
; File C:\Program Files\Microsoft Visual Studio\2022\Community\VC\Tools\MSVC\14.34.31933\include\xstring
; File E:\Metin2_server\SolWayneSF v6\ClientVS22\source\UserInterface\MarkManager.cpp
; File C:\Program Files\Microsoft Visual Studio\2022\Community\VC\Tools\MSVC\14.34.31933\include\xmemory
; File C:\Program Files\Microsoft Visual Studio\2022\Community\VC\Tools\MSVC\14.34.31933\include\xtree
; File C:\Program Files\Microsoft Visual Studio\2022\Community\VC\Tools\MSVC\14.34.31933\include\xmemory
; File C:\Program Files\Microsoft Visual Studio\2022\Community\VC\Tools\MSVC\14.34.31933\include\xtree
; File E:\Metin2_server\SolWayneSF v6\ClientVS22\source\UserInterface\MarkManager.cpp
;	COMDAT ??0CGuildMarkManager@@QAE@XZ
_TEXT	SEGMENT
$T2 = -28						; size = 8
_this$ = -20						; size = 4
_this$ = -16						; size = 4
_this$ = -16						; size = 4
_this$ = -16						; size = 4
_this$ = -16						; size = 4
_i$3 = -16						; size = 4
__$EHRec$ = -12						; size = 12
??0CGuildMarkManager@@QAE@XZ PROC			; CGuildMarkManager::CGuildMarkManager, COMDAT
; _this$ = ecx

; 24   : {

  00000	55		 push	 ebp
  00001	8b ec		 mov	 ebp, esp
  00003	6a ff		 push	 -1
  00005	68 00 00 00 00	 push	 __ehhandler$??0CGuildMarkManager@@QAE@XZ
  0000a	64 a1 00 00 00
	00		 mov	 eax, DWORD PTR fs:0
  00010	50		 push	 eax
  00011	83 ec 10	 sub	 esp, 16			; 00000010H
  00014	56		 push	 esi
  00015	57		 push	 edi
  00016	a1 00 00 00 00	 mov	 eax, DWORD PTR ___security_cookie
  0001b	33 c5		 xor	 eax, ebp
  0001d	50		 push	 eax
  0001e	8d 45 f4	 lea	 eax, DWORD PTR __$EHRec$[ebp]
  00021	64 a3 00 00 00
	00		 mov	 DWORD PTR fs:0, eax
  00027	8b f9		 mov	 edi, ecx
  00029	89 7d ec	 mov	 DWORD PTR _this$[ebp], edi
; File E:\Metin2_server\SolWayneSF v6\ClientVS22\source\eterBase\Singleton.h

; 56   : 		ms_singleton = (T*) ((int) this + offset);

  0002c	89 3d 00 00 00
	00		 mov	 DWORD PTR ?ms_singleton@?$singleton@VCGuildMarkManager@@@@0PAVCGuildMarkManager@@A, edi ; singleton<CGuildMarkManager>::ms_singleton
; File E:\Metin2_server\SolWayneSF v6\ClientVS22\source\UserInterface\MarkManager.cpp

; 24   : {

  00032	c7 45 fc 00 00
	00 00		 mov	 DWORD PTR __$EHRec$[ebp+8], 0
  00039	8d 77 04	 lea	 esi, DWORD PTR [edi+4]
  0003c	c7 07 00 00 00
	00		 mov	 DWORD PTR [edi], OFFSET ??_7CGuildMarkManager@@6B@
  00042	89 75 f0	 mov	 DWORD PTR _this$[ebp], esi
; File C:\Program Files\Microsoft Visual Studio\2022\Community\VC\Tools\MSVC\14.34.31933\include\xmemory

; 77   :         return ::operator new(_Bytes);

  00045	6a 18		 push	 24			; 00000018H
; File C:\Program Files\Microsoft Visual Studio\2022\Community\VC\Tools\MSVC\14.34.31933\include\xtree

; 437  :     _Tree_val() noexcept : _Myhead(), _Mysize(0) {}

  00047	c7 06 00 00 00
	00		 mov	 DWORD PTR [esi], 0
  0004d	c7 46 04 00 00
	00 00		 mov	 DWORD PTR [esi+4], 0
; File C:\Program Files\Microsoft Visual Studio\2022\Community\VC\Tools\MSVC\14.34.31933\include\xmemory

; 77   :         return ::operator new(_Bytes);

  00054	e8 00 00 00 00	 call	 ??2@YAPAXI@Z		; operator new
; File C:\Program Files\Microsoft Visual Studio\2022\Community\VC\Tools\MSVC\14.34.31933\include\xtree

; 347  :         _Construct_in_place(_Pnode->_Left, _Pnode);

  00059	89 00		 mov	 DWORD PTR [eax], eax

; 348  :         _Construct_in_place(_Pnode->_Parent, _Pnode);

  0005b	89 40 04	 mov	 DWORD PTR [eax+4], eax

; 349  :         _Construct_in_place(_Pnode->_Right, _Pnode);

  0005e	89 40 08	 mov	 DWORD PTR [eax+8], eax

; 350  :         _Pnode->_Color = _Black;

  00061	66 c7 40 0c 01
	01		 mov	 WORD PTR [eax+12], 257	; 00000101H

; 1941 :         _Scary->_Myhead = _Node::_Buyheadnode(_Getal());

  00067	89 06		 mov	 DWORD PTR [esi], eax
; File E:\Metin2_server\SolWayneSF v6\ClientVS22\source\UserInterface\MarkManager.cpp

; 24   : {

  00069	c6 45 fc 01	 mov	 BYTE PTR __$EHRec$[ebp+8], 1
  0006d	8d 77 0c	 lea	 esi, DWORD PTR [edi+12]
  00070	89 75 f0	 mov	 DWORD PTR _this$[ebp], esi
; File C:\Program Files\Microsoft Visual Studio\2022\Community\VC\Tools\MSVC\14.34.31933\include\xmemory

; 77   :         return ::operator new(_Bytes);

  00073	6a 18		 push	 24			; 00000018H
; File C:\Program Files\Microsoft Visual Studio\2022\Community\VC\Tools\MSVC\14.34.31933\include\xtree

; 437  :     _Tree_val() noexcept : _Myhead(), _Mysize(0) {}

  00075	c7 06 00 00 00
	00		 mov	 DWORD PTR [esi], 0
  0007b	c7 46 04 00 00
	00 00		 mov	 DWORD PTR [esi+4], 0
; File C:\Program Files\Microsoft Visual Studio\2022\Community\VC\Tools\MSVC\14.34.31933\include\xmemory

; 77   :         return ::operator new(_Bytes);

  00082	e8 00 00 00 00	 call	 ??2@YAPAXI@Z		; operator new
; File C:\Program Files\Microsoft Visual Studio\2022\Community\VC\Tools\MSVC\14.34.31933\include\xtree

; 347  :         _Construct_in_place(_Pnode->_Left, _Pnode);

  00087	89 00		 mov	 DWORD PTR [eax], eax

; 348  :         _Construct_in_place(_Pnode->_Parent, _Pnode);

  00089	89 40 04	 mov	 DWORD PTR [eax+4], eax

; 349  :         _Construct_in_place(_Pnode->_Right, _Pnode);

  0008c	89 40 08	 mov	 DWORD PTR [eax+8], eax

; 350  :         _Pnode->_Color = _Black;

  0008f	66 c7 40 0c 01
	01		 mov	 WORD PTR [eax+12], 257	; 00000101H

; 1941 :         _Scary->_Myhead = _Node::_Buyheadnode(_Getal());

  00095	89 06		 mov	 DWORD PTR [esi], eax
; File E:\Metin2_server\SolWayneSF v6\ClientVS22\source\UserInterface\MarkManager.cpp

; 24   : {

  00097	83 c7 14	 add	 edi, 20			; 00000014H
  0009a	c6 45 fc 02	 mov	 BYTE PTR __$EHRec$[ebp+8], 2
  0009e	89 7d f0	 mov	 DWORD PTR _this$[ebp], edi
; File C:\Program Files\Microsoft Visual Studio\2022\Community\VC\Tools\MSVC\14.34.31933\include\xmemory

; 77   :         return ::operator new(_Bytes);

  000a1	6a 14		 push	 20			; 00000014H
; File C:\Program Files\Microsoft Visual Studio\2022\Community\VC\Tools\MSVC\14.34.31933\include\xtree

; 437  :     _Tree_val() noexcept : _Myhead(), _Mysize(0) {}

  000a3	c7 07 00 00 00
	00		 mov	 DWORD PTR [edi], 0
  000a9	c7 47 04 00 00
	00 00		 mov	 DWORD PTR [edi+4], 0
; File C:\Program Files\Microsoft Visual Studio\2022\Community\VC\Tools\MSVC\14.34.31933\include\xmemory

; 77   :         return ::operator new(_Bytes);

  000b0	e8 00 00 00 00	 call	 ??2@YAPAXI@Z		; operator new
; File C:\Program Files\Microsoft Visual Studio\2022\Community\VC\Tools\MSVC\14.34.31933\include\xtree

; 347  :         _Construct_in_place(_Pnode->_Left, _Pnode);

  000b5	89 00		 mov	 DWORD PTR [eax], eax

; 348  :         _Construct_in_place(_Pnode->_Parent, _Pnode);

  000b7	89 40 04	 mov	 DWORD PTR [eax+4], eax

; 349  :         _Construct_in_place(_Pnode->_Right, _Pnode);

  000ba	89 40 08	 mov	 DWORD PTR [eax+8], eax

; 350  :         _Pnode->_Color = _Black;

  000bd	66 c7 40 0c 01
	01		 mov	 WORD PTR [eax+12], 257	; 00000101H

; 1941 :         _Scary->_Myhead = _Node::_Buyheadnode(_Getal());

  000c3	89 07		 mov	 DWORD PTR [edi], eax
; File C:\Program Files\Microsoft Visual Studio\2022\Community\VC\Tools\MSVC\14.34.31933\include\xstring

; 2339 :         _CONSTEXPR20 _Bxty() noexcept : _Buf() {} // user-provided, for fancy pointers

  000c5	8b 45 ec	 mov	 eax, DWORD PTR _this$[ebp]
  000c8	0f 57 c0	 xorps	 xmm0, xmm0
  000cb	0f 11 40 1c	 movups	 XMMWORD PTR [eax+28], xmm0

; 4995 :         _My_data._Mysize = 0;

  000cf	c7 40 2c 00 00
	00 00		 mov	 DWORD PTR [eax+44], 0

; 4996 :         _My_data._Myres  = _BUF_SIZE - 1;

  000d6	c7 40 30 0f 00
	00 00		 mov	 DWORD PTR [eax+48], 15	; 0000000fH

; 4997 :         _My_data._Activate_SSO_buffer();
; 4998 : 
; 4999 :         // the _Traits::assign is last so the codegen doesn't think the char write can alias this
; 5000 :         _Traits::assign(_My_data._Bx._Buf[0], _Elem());

  000dd	c6 40 1c 00	 mov	 BYTE PTR [eax+28], 0
; File E:\Metin2_server\SolWayneSF v6\ClientVS22\source\UserInterface\MarkManager.cpp

; 24   : {

  000e1	8d 70 34	 lea	 esi, DWORD PTR [eax+52]
  000e4	c6 45 fc 04	 mov	 BYTE PTR __$EHRec$[ebp+8], 4
  000e8	89 75 f0	 mov	 DWORD PTR _this$[ebp], esi
; File C:\Program Files\Microsoft Visual Studio\2022\Community\VC\Tools\MSVC\14.34.31933\include\xmemory

; 77   :         return ::operator new(_Bytes);

  000eb	6a 24		 push	 36			; 00000024H
; File C:\Program Files\Microsoft Visual Studio\2022\Community\VC\Tools\MSVC\14.34.31933\include\xtree

; 437  :     _Tree_val() noexcept : _Myhead(), _Mysize(0) {}

  000ed	c7 06 00 00 00
	00		 mov	 DWORD PTR [esi], 0
  000f3	c7 46 04 00 00
	00 00		 mov	 DWORD PTR [esi+4], 0
; File C:\Program Files\Microsoft Visual Studio\2022\Community\VC\Tools\MSVC\14.34.31933\include\xmemory

; 77   :         return ::operator new(_Bytes);

  000fa	e8 00 00 00 00	 call	 ??2@YAPAXI@Z		; operator new
; File C:\Program Files\Microsoft Visual Studio\2022\Community\VC\Tools\MSVC\14.34.31933\include\xtree

; 347  :         _Construct_in_place(_Pnode->_Left, _Pnode);

  000ff	89 00		 mov	 DWORD PTR [eax], eax

; 348  :         _Construct_in_place(_Pnode->_Parent, _Pnode);

  00101	89 40 04	 mov	 DWORD PTR [eax+4], eax

; 349  :         _Construct_in_place(_Pnode->_Right, _Pnode);

  00104	89 40 08	 mov	 DWORD PTR [eax+8], eax

; 350  :         _Pnode->_Color = _Black;

  00107	66 c7 40 0c 01
	01		 mov	 WORD PTR [eax+12], 257	; 00000101H

; 1941 :         _Scary->_Myhead = _Node::_Buyheadnode(_Getal());

  0010d	89 06		 mov	 DWORD PTR [esi], eax
; File E:\Metin2_server\SolWayneSF v6\ClientVS22\source\UserInterface\MarkManager.cpp

; 26   : 	_mkdir("mark");

  0010f	68 00 00 00 00	 push	 OFFSET ??_C@_04KJJCFCK@mark@
  00114	c6 45 fc 05	 mov	 BYTE PTR __$EHRec$[ebp+8], 5
  00118	e8 00 00 00 00	 call	 __mkdir
  0011d	83 c4 14	 add	 esp, 20			; 00000014H

; 27   : #endif
; 28   : 	//  mark id  . ()
; 29   : 	for (DWORD i = 0; i < MAX_IMAGE_COUNT * CGuildMarkImage::MARK_TOTAL_COUNT; ++i)

  00120	c7 45 f0 00 00
	00 00		 mov	 DWORD PTR _i$3[ebp], 0
$LL4@CGuildMark:

; 30   : 		m_setFreeMarkID.insert(i);

  00127	8d 45 f0	 lea	 eax, DWORD PTR _i$3[ebp]
  0012a	8b cf		 mov	 ecx, edi
  0012c	50		 push	 eax
  0012d	8d 45 e4	 lea	 eax, DWORD PTR $T2[ebp]
  00130	50		 push	 eax
  00131	e8 00 00 00 00	 call	 ??$insert@$0A@$0A@@?$_Tree@V?$_Tset_traits@KU?$less@K@std@@V?$allocator@K@2@$0A@@std@@@std@@QAE?AU?$pair@V?$_Tree_const_iterator@V?$_Tree_val@U?$_Tree_simple_types@K@std@@@std@@@std@@_N@1@ABK@Z ; std::_Tree<std::_Tset_traits<unsigned long,std::less<unsigned long>,std::allocator<unsigned long>,0> >::insert<0,0>
  00136	8b 45 f0	 mov	 eax, DWORD PTR _i$3[ebp]
  00139	40		 inc	 eax
  0013a	89 45 f0	 mov	 DWORD PTR _i$3[ebp], eax
  0013d	3d 00 19 00 00	 cmp	 eax, 6400		; 00001900H
  00142	72 e3		 jb	 SHORT $LL4@CGuildMark

; 31   : }

  00144	8b 45 ec	 mov	 eax, DWORD PTR _this$[ebp]
  00147	8b 4d f4	 mov	 ecx, DWORD PTR __$EHRec$[ebp]
  0014a	64 89 0d 00 00
	00 00		 mov	 DWORD PTR fs:0, ecx
  00151	59		 pop	 ecx
  00152	5f		 pop	 edi
  00153	5e		 pop	 esi
  00154	8b e5		 mov	 esp, ebp
  00156	5d		 pop	 ebp
  00157	c3		 ret	 0
_TEXT	ENDS
;	COMDAT text$x
text$x	SEGMENT
__unwindfunclet$??0CGuildMarkManager@@QAE@XZ$0:
  00000	8b 4d ec	 mov	 ecx, DWORD PTR _this$[ebp]
  00003	e9 00 00 00 00	 jmp	 ??1?$singleton@VCGuildMarkManager@@@@UAE@XZ ; singleton<CGuildMarkManager>::~singleton<CGuildMarkManager>
__unwindfunclet$??0CGuildMarkManager@@QAE@XZ$1:
  00008	8b 4d ec	 mov	 ecx, DWORD PTR _this$[ebp]
  0000b	83 c1 04	 add	 ecx, 4
  0000e	e9 00 00 00 00	 jmp	 ??1?$map@KPAVCGuildMarkImage@@U?$less@K@std@@V?$allocator@U?$pair@$$CBKPAVCGuildMarkImage@@@std@@@3@@std@@QAE@XZ
__unwindfunclet$??0CGuildMarkManager@@QAE@XZ$2:
  00013	8b 4d ec	 mov	 ecx, DWORD PTR _this$[ebp]
  00016	83 c1 0c	 add	 ecx, 12			; 0000000cH
  00019	e9 00 00 00 00	 jmp	 ??1?$map@KKU?$less@K@std@@V?$allocator@U?$pair@$$CBKK@std@@@2@@std@@QAE@XZ
__unwindfunclet$??0CGuildMarkManager@@QAE@XZ$3:
  0001e	8b 4d ec	 mov	 ecx, DWORD PTR _this$[ebp]
  00021	83 c1 14	 add	 ecx, 20			; 00000014H
  00024	e9 00 00 00 00	 jmp	 ??1?$set@KU?$less@K@std@@V?$allocator@K@2@@std@@QAE@XZ
__unwindfunclet$??0CGuildMarkManager@@QAE@XZ$4:
  00029	8b 4d ec	 mov	 ecx, DWORD PTR _this$[ebp]
  0002c	83 c1 1c	 add	 ecx, 28			; 0000001cH
  0002f	e9 00 00 00 00	 jmp	 ??1?$basic_string@DU?$char_traits@D@std@@V?$allocator@D@2@@std@@QAE@XZ ; std::basic_string<char,std::char_traits<char>,std::allocator<char> >::~basic_string<char,std::char_traits<char>,std::allocator<char> >
__unwindfunclet$??0CGuildMarkManager@@QAE@XZ$5:
  00034	8b 4d ec	 mov	 ecx, DWORD PTR _this$[ebp]
  00037	83 c1 34	 add	 ecx, 52			; 00000034H
  0003a	e9 00 00 00 00	 jmp	 ??1?$map@KUTGuildSymbol@CGuildMarkManager@@U?$less@K@std@@V?$allocator@U?$pair@$$CBKUTGuildSymbol@CGuildMarkManager@@@std@@@4@@std@@QAE@XZ
  0003f	cc		 int	 3
  00040	cc		 int	 3
  00041	cc		 int	 3
  00042	cc		 int	 3
  00043	cc		 int	 3
__ehhandler$??0CGuildMarkManager@@QAE@XZ:
  00044	90		 npad	 1
  00045	90		 npad	 1
  00046	8b 54 24 08	 mov	 edx, DWORD PTR [esp+8]
  0004a	8d 42 0c	 lea	 eax, DWORD PTR [edx+12]
  0004d	8b 4a e4	 mov	 ecx, DWORD PTR [edx-28]
  00050	33 c8		 xor	 ecx, eax
  00052	e8 00 00 00 00	 call	 @__security_check_cookie@4
  00057	b8 00 00 00 00	 mov	 eax, OFFSET __ehfuncinfo$??0CGuildMarkManager@@QAE@XZ
  0005c	e9 00 00 00 00	 jmp	 ___CxxFrameHandler3
text$x	ENDS
??0CGuildMarkManager@@QAE@XZ ENDP			; CGuildMarkManager::CGuildMarkManager
; Function compile flags: /Ogtp
;	COMDAT ??_GCGuildMarkManager@@UAEPAXI@Z
_TEXT	SEGMENT
___flags$ = 8						; size = 4
??_GCGuildMarkManager@@UAEPAXI@Z PROC			; CGuildMarkManager::`scalar deleting destructor', COMDAT
; _this$ = ecx
  00000	55		 push	 ebp
  00001	8b ec		 mov	 ebp, esp
  00003	56		 push	 esi
  00004	8b f1		 mov	 esi, ecx
  00006	e8 00 00 00 00	 call	 ??1CGuildMarkManager@@UAE@XZ ; CGuildMarkManager::~CGuildMarkManager
  0000b	f6 45 08 01	 test	 BYTE PTR ___flags$[ebp], 1
  0000f	74 0b		 je	 SHORT $LN4@scalar
  00011	6a 3c		 push	 60			; 0000003cH
  00013	56		 push	 esi
  00014	e8 00 00 00 00	 call	 ??3@YAXPAXI@Z		; operator delete
  00019	83 c4 08	 add	 esp, 8
$LN4@scalar:
  0001c	8b c6		 mov	 eax, esi
  0001e	5e		 pop	 esi
  0001f	5d		 pop	 ebp
  00020	c2 04 00	 ret	 4
??_GCGuildMarkManager@@UAEPAXI@Z ENDP			; CGuildMarkManager::`scalar deleting destructor'
_TEXT	ENDS
; Function compile flags: /Ogtp
; File C:\Program Files\Microsoft Visual Studio\2022\Community\VC\Tools\MSVC\14.34.31933\include\xtree
; File C:\Program Files\Microsoft Visual Studio\2022\Community\VC\Tools\MSVC\14.34.31933\include\xmemory
;	COMDAT ??1?$map@KPAVCGuildMarkImage@@U?$less@K@std@@V?$allocator@U?$pair@$$CBKPAVCGuildMarkImage@@@std@@@3@@std@@QAE@XZ
_TEXT	SEGMENT
??1?$map@KPAVCGuildMarkImage@@U?$less@K@std@@V?$allocator@U?$pair@$$CBKPAVCGuildMarkImage@@@std@@@3@@std@@QAE@XZ PROC ; std::map<unsigned long,CGuildMarkImage *,std::less<unsigned long>,std::allocator<std::pair<unsigned long const ,CGuildMarkImage *> > >::~map<unsigned long,CGuildMarkImage *,std::less<unsigned long>,std::allocator<std::pair<unsigned long const ,CGuildMarkImage *> > >, COMDAT
; _this$ = ecx
; File C:\Program Files\Microsoft Visual Studio\2022\Community\VC\Tools\MSVC\14.34.31933\include\xtree

; 754  :         _Erase_tree(_Al, _Myhead->_Parent);

  00000	56		 push	 esi
  00001	8b f1		 mov	 esi, ecx
  00003	8b 06		 mov	 eax, DWORD PTR [esi]
  00005	ff 70 04	 push	 DWORD PTR [eax+4]
  00008	56		 push	 esi
  00009	e8 00 00 00 00	 call	 ??$_Erase_tree@V?$allocator@U?$_Tree_node@U?$pair@$$CBKPAVCGuildMarkImage@@@std@@PAX@std@@@std@@@?$_Tree_val@U?$_Tree_simple_types@U?$pair@$$CBKPAVCGuildMarkImage@@@std@@@std@@@std@@QAEXAAV?$allocator@U?$_Tree_node@U?$pair@$$CBKPAVCGuildMarkImage@@@std@@PAX@std@@@1@PAU?$_Tree_node@U?$pair@$$CBKPAVCGuildMarkImage@@@std@@PAX@1@@Z ; std::_Tree_val<std::_Tree_simple_types<std::pair<unsigned long const ,CGuildMarkImage *> > >::_Erase_tree<std::allocator<std::_Tree_node<std::pair<unsigned long const ,CGuildMarkImage *>,void *> > >
; File C:\Program Files\Microsoft Visual Studio\2022\Community\VC\Tools\MSVC\14.34.31933\include\xmemory

; 255  :         ::operator delete(_Ptr, _Bytes);

  0000e	6a 18		 push	 24			; 00000018H
  00010	ff 36		 push	 DWORD PTR [esi]
  00012	e8 00 00 00 00	 call	 ??3@YAXPAXI@Z		; operator delete
  00017	83 c4 08	 add	 esp, 8
  0001a	5e		 pop	 esi
  0001b	c3		 ret	 0
??1?$map@KPAVCGuildMarkImage@@U?$less@K@std@@V?$allocator@U?$pair@$$CBKPAVCGuildMarkImage@@@std@@@3@@std@@QAE@XZ ENDP ; std::map<unsigned long,CGuildMarkImage *,std::less<unsigned long>,std::allocator<std::pair<unsigned long const ,CGuildMarkImage *> > >::~map<unsigned long,CGuildMarkImage *,std::less<unsigned long>,std::allocator<std::pair<unsigned long const ,CGuildMarkImage *> > >
_TEXT	ENDS
; Function compile flags: /Ogtp
; File C:\Program Files\Microsoft Visual Studio\2022\Community\VC\Tools\MSVC\14.34.31933\include\xtree
; File C:\Program Files\Microsoft Visual Studio\2022\Community\VC\Tools\MSVC\14.34.31933\include\xmemory
;	COMDAT ??1?$map@KUTGuildSymbol@CGuildMarkManager@@U?$less@K@std@@V?$allocator@U?$pair@$$CBKUTGuildSymbol@CGuildMarkManager@@@std@@@4@@std@@QAE@XZ
_TEXT	SEGMENT
??1?$map@KUTGuildSymbol@CGuildMarkManager@@U?$less@K@std@@V?$allocator@U?$pair@$$CBKUTGuildSymbol@CGuildMarkManager@@@std@@@4@@std@@QAE@XZ PROC ; std::map<unsigned long,CGuildMarkManager::TGuildSymbol,std::less<unsigned long>,std::allocator<std::pair<unsigned long const ,CGuildMarkManager::TGuildSymbol> > >::~map<unsigned long,CGuildMarkManager::TGuildSymbol,std::less<unsigned long>,std::allocator<std::pair<unsigned long const ,CGuildMarkManager::TGuildSymbol> > >, COMDAT
; _this$ = ecx
; File C:\Program Files\Microsoft Visual Studio\2022\Community\VC\Tools\MSVC\14.34.31933\include\xtree

; 754  :         _Erase_tree(_Al, _Myhead->_Parent);

  00000	56		 push	 esi
  00001	8b f1		 mov	 esi, ecx
  00003	8b 06		 mov	 eax, DWORD PTR [esi]
  00005	ff 70 04	 push	 DWORD PTR [eax+4]
  00008	56		 push	 esi
  00009	e8 00 00 00 00	 call	 ??$_Erase_tree@V?$allocator@U?$_Tree_node@U?$pair@$$CBKUTGuildSymbol@CGuildMarkManager@@@std@@PAX@std@@@std@@@?$_Tree_val@U?$_Tree_simple_types@U?$pair@$$CBKUTGuildSymbol@CGuildMarkManager@@@std@@@std@@@std@@QAEXAAV?$allocator@U?$_Tree_node@U?$pair@$$CBKUTGuildSymbol@CGuildMarkManager@@@std@@PAX@std@@@1@PAU?$_Tree_node@U?$pair@$$CBKUTGuildSymbol@CGuildMarkManager@@@std@@PAX@1@@Z ; std::_Tree_val<std::_Tree_simple_types<std::pair<unsigned long const ,CGuildMarkManager::TGuildSymbol> > >::_Erase_tree<std::allocator<std::_Tree_node<std::pair<unsigned long const ,CGuildMarkManager::TGuildSymbol>,void *> > >
; File C:\Program Files\Microsoft Visual Studio\2022\Community\VC\Tools\MSVC\14.34.31933\include\xmemory

; 255  :         ::operator delete(_Ptr, _Bytes);

  0000e	6a 24		 push	 36			; 00000024H
  00010	ff 36		 push	 DWORD PTR [esi]
  00012	e8 00 00 00 00	 call	 ??3@YAXPAXI@Z		; operator delete
  00017	83 c4 08	 add	 esp, 8
  0001a	5e		 pop	 esi
  0001b	c3		 ret	 0
??1?$map@KUTGuildSymbol@CGuildMarkManager@@U?$less@K@std@@V?$allocator@U?$pair@$$CBKUTGuildSymbol@CGuildMarkManager@@@std@@@4@@std@@QAE@XZ ENDP ; std::map<unsigned long,CGuildMarkManager::TGuildSymbol,std::less<unsigned long>,std::allocator<std::pair<unsigned long const ,CGuildMarkManager::TGuildSymbol> > >::~map<unsigned long,CGuildMarkManager::TGuildSymbol,std::less<unsigned long>,std::allocator<std::pair<unsigned long const ,CGuildMarkManager::TGuildSymbol> > >
_TEXT	ENDS
; Function compile flags: /Ogtp
; File E:\Metin2_server\SolWayneSF v6\ClientVS22\source\UserInterface\MarkManager.cpp
; File C:\Program Files\Microsoft Visual Studio\2022\Community\VC\Tools\MSVC\14.34.31933\include\xtree
; File E:\Metin2_server\SolWayneSF v6\ClientVS22\source\UserInterface\MarkManager.cpp
; File C:\Program Files\Microsoft Visual Studio\2022\Community\VC\Tools\MSVC\14.34.31933\include\xtree
; File E:\Metin2_server\SolWayneSF v6\ClientVS22\source\UserInterface\MarkManager.cpp
; File C:\Program Files\Microsoft Visual Studio\2022\Community\VC\Tools\MSVC\14.34.31933\include\xtree
; File E:\Metin2_server\SolWayneSF v6\ClientVS22\source\UserInterface\MarkManager.cpp
; File C:\Program Files\Microsoft Visual Studio\2022\Community\VC\Tools\MSVC\14.34.31933\include\xtree
; File E:\Metin2_server\SolWayneSF v6\ClientVS22\source\UserInterface\MarkManager.cpp
; File C:\Program Files\Microsoft Visual Studio\2022\Community\VC\Tools\MSVC\14.34.31933\include\xtree
; File E:\Metin2_server\SolWayneSF v6\ClientVS22\source\UserInterface\MarkManager.cpp
; File C:\Program Files\Microsoft Visual Studio\2022\Community\VC\Tools\MSVC\14.34.31933\include\xtree
; File C:\Program Files\Microsoft Visual Studio\2022\Community\VC\Tools\MSVC\14.34.31933\include\xmemory
; File C:\Program Files\Microsoft Visual Studio\2022\Community\VC\Tools\MSVC\14.34.31933\include\xstring
; File C:\Program Files\Microsoft Visual Studio\2022\Community\VC\Tools\MSVC\14.34.31933\include\xmemory
; File C:\Program Files\Microsoft Visual Studio\2022\Community\VC\Tools\MSVC\14.34.31933\include\xstring
; File C:\Program Files\Microsoft Visual Studio\2022\Community\VC\Tools\MSVC\14.34.31933\include\xmemory
; File C:\Program Files\Microsoft Visual Studio\2022\Community\VC\Tools\MSVC\14.34.31933\include\xstring
; File C:\Program Files\Microsoft Visual Studio\2022\Community\VC\Tools\MSVC\14.34.31933\include\xmemory
; File E:\Metin2_server\SolWayneSF v6\ClientVS22\source\UserInterface\MarkManager.cpp
; File C:\Program Files\Microsoft Visual Studio\2022\Community\VC\Tools\MSVC\14.34.31933\include\xstring
; File C:\Program Files\Microsoft Visual Studio\2022\Community\VC\Tools\MSVC\14.34.31933\include\xtree
; File C:\Program Files\Microsoft Visual Studio\2022\Community\VC\Tools\MSVC\14.34.31933\include\xstring
; File C:\Program Files\Microsoft Visual Studio\2022\Community\VC\Tools\MSVC\14.34.31933\include\xtree
; File C:\Program Files\Microsoft Visual Studio\2022\Community\VC\Tools\MSVC\14.34.31933\include\xmemory
; File C:\Program Files\Microsoft Visual Studio\2022\Community\VC\Tools\MSVC\14.34.31933\include\xtree
; File E:\Metin2_server\SolWayneSF v6\ClientVS22\source\UserInterface\MarkManager.cpp
; File C:\Program Files\Microsoft Visual Studio\2022\Community\VC\Tools\MSVC\14.34.31933\include\xmemory
; File C:\Program Files\Microsoft Visual Studio\2022\Community\VC\Tools\MSVC\14.34.31933\include\xtree
; File C:\Program Files\Microsoft Visual Studio\2022\Community\VC\Tools\MSVC\14.34.31933\include\xmemory
; File C:\Program Files\Microsoft Visual Studio\2022\Community\VC\Tools\MSVC\14.34.31933\include\xtree
; File C:\Program Files\Microsoft Visual Studio\2022\Community\VC\Tools\MSVC\14.34.31933\include\xmemory
; File C:\Program Files\Microsoft Visual Studio\2022\Community\VC\Tools\MSVC\14.34.31933\include\xtree
; File C:\Program Files\Microsoft Visual Studio\2022\Community\VC\Tools\MSVC\14.34.31933\include\xmemory
; File E:\Metin2_server\SolWayneSF v6\ClientVS22\source\eterBase\Singleton.h
; File E:\Metin2_server\SolWayneSF v6\ClientVS22\source\UserInterface\MarkManager.cpp
; File C:\Program Files\Microsoft Visual Studio\2022\Community\VC\Tools\MSVC\14.34.31933\include\xmemory
; File E:\Metin2_server\SolWayneSF v6\ClientVS22\source\UserInterface\MarkManager.cpp
;	COMDAT ??1CGuildMarkManager@@UAE@XZ
_TEXT	SEGMENT
_this$1$ = -4						; size = 4
??1CGuildMarkManager@@UAE@XZ PROC			; CGuildMarkManager::~CGuildMarkManager, COMDAT
; _this$ = ecx

; 34   : {

  00000	55		 push	 ebp
  00001	8b ec		 mov	 ebp, esp
  00003	51		 push	 ecx
  00004	53		 push	 ebx
  00005	56		 push	 esi
  00006	c7 01 00 00 00
	00		 mov	 DWORD PTR [ecx], OFFSET ??_7CGuildMarkManager@@6B@
; File C:\Program Files\Microsoft Visual Studio\2022\Community\VC\Tools\MSVC\14.34.31933\include\xtree

; 1126 :         return iterator(_Scary->_Myhead->_Left, _Scary);

  0000c	8d 59 04	 lea	 ebx, DWORD PTR [ecx+4]
; File E:\Metin2_server\SolWayneSF v6\ClientVS22\source\UserInterface\MarkManager.cpp

; 34   : {

  0000f	57		 push	 edi
; File C:\Program Files\Microsoft Visual Studio\2022\Community\VC\Tools\MSVC\14.34.31933\include\xtree

; 1126 :         return iterator(_Scary->_Myhead->_Left, _Scary);

  00010	8b 3b		 mov	 edi, DWORD PTR [ebx]
; File E:\Metin2_server\SolWayneSF v6\ClientVS22\source\UserInterface\MarkManager.cpp

; 34   : {

  00012	89 4d fc	 mov	 DWORD PTR _this$1$[ebp], ecx
; File C:\Program Files\Microsoft Visual Studio\2022\Community\VC\Tools\MSVC\14.34.31933\include\xtree

; 38   :     _Tree_unchecked_const_iterator(_Nodeptr _Pnode, const _Mytree* _Plist) noexcept : _Ptr(_Pnode) {

  00015	8b 37		 mov	 esi, DWORD PTR [edi]
  00017	3b f7		 cmp	 esi, edi
; File E:\Metin2_server\SolWayneSF v6\ClientVS22\source\UserInterface\MarkManager.cpp

; 35   : 	for (std::map<DWORD, CGuildMarkImage *>::iterator it = m_mapIdx_Image.begin(); it != m_mapIdx_Image.end(); ++it)

  00019	74 57		 je	 SHORT $LN3@CGuildMark
  0001b	0f 1f 44 00 00	 npad	 5
$LL24@CGuildMark:

; 36   : 		__DeleteImage(it->second);

  00020	ff 76 14	 push	 DWORD PTR [esi+20]
  00023	e8 00 00 00 00	 call	 ?__DeleteImage@CGuildMarkManager@@AAEXPAVCGuildMarkImage@@@Z ; CGuildMarkManager::__DeleteImage
; File C:\Program Files\Microsoft Visual Studio\2022\Community\VC\Tools\MSVC\14.34.31933\include\xtree

; 51   :         if (_Ptr->_Right->_Isnil) { // climb looking for right subtree

  00028	8b 46 08	 mov	 eax, DWORD PTR [esi+8]
  0002b	80 78 0d 00	 cmp	 BYTE PTR [eax+13], 0
  0002f	74 23		 je	 SHORT $LN23@CGuildMark

; 52   :             _Nodeptr _Pnode;
; 53   :             while (!(_Pnode = _Ptr->_Parent)->_Isnil && _Ptr == _Pnode->_Right) {

  00031	8b 46 04	 mov	 eax, DWORD PTR [esi+4]
  00034	80 78 0d 00	 cmp	 BYTE PTR [eax+13], 0
  00038	75 16		 jne	 SHORT $LN302@CGuildMark
  0003a	66 0f 1f 44 00
	00		 npad	 6
$LL21@CGuildMark:
  00040	3b 70 08	 cmp	 esi, DWORD PTR [eax+8]
  00043	75 0b		 jne	 SHORT $LN302@CGuildMark

; 54   :                 _Ptr = _Pnode; // ==> parent while right subtree

  00045	8b f0		 mov	 esi, eax
  00047	8b 40 04	 mov	 eax, DWORD PTR [eax+4]
  0004a	80 78 0d 00	 cmp	 BYTE PTR [eax+13], 0
  0004e	74 f0		 je	 SHORT $LL21@CGuildMark
$LN302@CGuildMark:

; 55   :             }
; 56   : 
; 57   :             _Ptr = _Pnode; // ==> parent (head if end())

  00050	8b f0		 mov	 esi, eax

; 58   :         } else {

  00052	eb 18		 jmp	 SHORT $LN28@CGuildMark
$LN23@CGuildMark:

; 59   :             _Ptr = _Mytree::_Min(_Ptr->_Right); // ==> smallest of right subtree

  00054	8b f0		 mov	 esi, eax

; 453  :         while (!_Pnode->_Left->_Isnil) {

  00056	8b 0e		 mov	 ecx, DWORD PTR [esi]
  00058	80 79 0d 00	 cmp	 BYTE PTR [ecx+13], 0
  0005c	75 0e		 jne	 SHORT $LN28@CGuildMark
  0005e	66 90		 npad	 2
$LL27@CGuildMark:
  00060	8b 01		 mov	 eax, DWORD PTR [ecx]

; 454  :             _Pnode = _Pnode->_Left;

  00062	8b f1		 mov	 esi, ecx
  00064	8b c8		 mov	 ecx, eax
  00066	80 78 0d 00	 cmp	 BYTE PTR [eax+13], 0
  0006a	74 f4		 je	 SHORT $LL27@CGuildMark
$LN28@CGuildMark:

; 38   :     _Tree_unchecked_const_iterator(_Nodeptr _Pnode, const _Mytree* _Plist) noexcept : _Ptr(_Pnode) {

  0006c	8b 3b		 mov	 edi, DWORD PTR [ebx]

; 233  :         return this->_Ptr == _Right._Ptr;

  0006e	3b f7		 cmp	 esi, edi
; File E:\Metin2_server\SolWayneSF v6\ClientVS22\source\UserInterface\MarkManager.cpp

; 35   : 	for (std::map<DWORD, CGuildMarkImage *>::iterator it = m_mapIdx_Image.begin(); it != m_mapIdx_Image.end(); ++it)

  00070	75 ae		 jne	 SHORT $LL24@CGuildMark
$LN3@CGuildMark:
; File C:\Program Files\Microsoft Visual Studio\2022\Community\VC\Tools\MSVC\14.34.31933\include\xtree

; 1357 :         _Scary->_Erase_tree(_Getal(), _Head->_Parent);

  00072	ff 77 04	 push	 DWORD PTR [edi+4]
  00075	8b cb		 mov	 ecx, ebx
  00077	53		 push	 ebx
  00078	e8 00 00 00 00	 call	 ??$_Erase_tree@V?$allocator@U?$_Tree_node@U?$pair@$$CBKPAVCGuildMarkImage@@@std@@PAX@std@@@std@@@?$_Tree_val@U?$_Tree_simple_types@U?$pair@$$CBKPAVCGuildMarkImage@@@std@@@std@@@std@@QAEXAAV?$allocator@U?$_Tree_node@U?$pair@$$CBKPAVCGuildMarkImage@@@std@@PAX@std@@@1@PAU?$_Tree_node@U?$pair@$$CBKPAVCGuildMarkImage@@@std@@PAX@1@@Z ; std::_Tree_val<std::_Tree_simple_types<std::pair<unsigned long const ,CGuildMarkImage *> > >::_Erase_tree<std::allocator<std::_Tree_node<std::pair<unsigned long const ,CGuildMarkImage *>,void *> > >

; 1358 :         _Head->_Parent  = _Head;

  0007d	89 7f 04	 mov	 DWORD PTR [edi+4], edi

; 1359 :         _Head->_Left    = _Head;

  00080	89 3f		 mov	 DWORD PTR [edi], edi

; 1360 :         _Head->_Right   = _Head;

  00082	89 7f 08	 mov	 DWORD PTR [edi+8], edi
; File E:\Metin2_server\SolWayneSF v6\ClientVS22\source\UserInterface\MarkManager.cpp

; 39   : }

  00085	8b 7d fc	 mov	 edi, DWORD PTR _this$1$[ebp]
  00088	8d 77 34	 lea	 esi, DWORD PTR [edi+52]
; File C:\Program Files\Microsoft Visual Studio\2022\Community\VC\Tools\MSVC\14.34.31933\include\xtree

; 1361 :         _Scary->_Mysize = 0;

  0008b	c7 43 04 00 00
	00 00		 mov	 DWORD PTR [ebx+4], 0

; 754  :         _Erase_tree(_Al, _Myhead->_Parent);

  00092	8b 06		 mov	 eax, DWORD PTR [esi]
  00094	8b ce		 mov	 ecx, esi
  00096	ff 70 04	 push	 DWORD PTR [eax+4]
  00099	56		 push	 esi
  0009a	e8 00 00 00 00	 call	 ??$_Erase_tree@V?$allocator@U?$_Tree_node@U?$pair@$$CBKUTGuildSymbol@CGuildMarkManager@@@std@@PAX@std@@@std@@@?$_Tree_val@U?$_Tree_simple_types@U?$pair@$$CBKUTGuildSymbol@CGuildMarkManager@@@std@@@std@@@std@@QAEXAAV?$allocator@U?$_Tree_node@U?$pair@$$CBKUTGuildSymbol@CGuildMarkManager@@@std@@PAX@std@@@1@PAU?$_Tree_node@U?$pair@$$CBKUTGuildSymbol@CGuildMarkManager@@@std@@PAX@1@@Z ; std::_Tree_val<std::_Tree_simple_types<std::pair<unsigned long const ,CGuildMarkManager::TGuildSymbol> > >::_Erase_tree<std::allocator<std::_Tree_node<std::pair<unsigned long const ,CGuildMarkManager::TGuildSymbol>,void *> > >
; File C:\Program Files\Microsoft Visual Studio\2022\Community\VC\Tools\MSVC\14.34.31933\include\xmemory

; 255  :         ::operator delete(_Ptr, _Bytes);

  0009f	6a 24		 push	 36			; 00000024H
  000a1	ff 36		 push	 DWORD PTR [esi]
  000a3	e8 00 00 00 00	 call	 ??3@YAXPAXI@Z		; operator delete
; File C:\Program Files\Microsoft Visual Studio\2022\Community\VC\Tools\MSVC\14.34.31933\include\xstring

; 2301 :         return _BUF_SIZE <= _Myres;

  000a8	8b 4f 30	 mov	 ecx, DWORD PTR [edi+48]
; File C:\Program Files\Microsoft Visual Studio\2022\Community\VC\Tools\MSVC\14.34.31933\include\xmemory

; 255  :         ::operator delete(_Ptr, _Bytes);

  000ab	83 c4 08	 add	 esp, 8
; File C:\Program Files\Microsoft Visual Studio\2022\Community\VC\Tools\MSVC\14.34.31933\include\xstring

; 2301 :         return _BUF_SIZE <= _Myres;

  000ae	83 f9 10	 cmp	 ecx, 16			; 00000010H

; 5008 :         if (_My_data._Large_string_engaged()) {

  000b1	72 2c		 jb	 SHORT $LN104@CGuildMark
; File C:\Program Files\Microsoft Visual Studio\2022\Community\VC\Tools\MSVC\14.34.31933\include\xmemory

; 830  :         _Deallocate<_New_alignof<_Ty>>(_Ptr, sizeof(_Ty) * _Count);

  000b3	8b 47 1c	 mov	 eax, DWORD PTR [edi+28]
; File C:\Program Files\Microsoft Visual Studio\2022\Community\VC\Tools\MSVC\14.34.31933\include\xstring

; 5013 :             _Al.deallocate(_Ptr, _My_data._Myres + 1);

  000b6	41		 inc	 ecx
; File C:\Program Files\Microsoft Visual Studio\2022\Community\VC\Tools\MSVC\14.34.31933\include\xmemory

; 251  :         if (_Bytes >= _Big_allocation_threshold) { // boost the alignment of big allocations to help autovectorization

  000b7	81 f9 00 10 00
	00		 cmp	 ecx, 4096		; 00001000H
  000bd	72 16		 jb	 SHORT $LN116@CGuildMark

; 150  :     const uintptr_t _Ptr_container   = _Ptr_user[-1];

  000bf	8b 50 fc	 mov	 edx, DWORD PTR [eax-4]
  000c2	83 c1 23	 add	 ecx, 35			; 00000023H

; 151  : 
; 152  :     // If the following asserts, it likely means that we are performing
; 153  :     // an aligned delete on memory coming from an unaligned allocation.
; 154  :     _STL_ASSERT(_Ptr_user[-2] == _Big_allocation_sentinel, "invalid argument");
; 155  : 
; 156  :     // Extra paranoia on aligned allocation/deallocation; ensure _Ptr_container is
; 157  :     // in range [_Min_back_shift, _Non_user_size]
; 158  : #ifdef _DEBUG
; 159  :     constexpr uintptr_t _Min_back_shift = 2 * sizeof(void*);
; 160  : #else // ^^^ _DEBUG ^^^ // vvv !_DEBUG vvv
; 161  :     constexpr uintptr_t _Min_back_shift = sizeof(void*);
; 162  : #endif // _DEBUG
; 163  :     const uintptr_t _Back_shift = reinterpret_cast<uintptr_t>(_Ptr) - _Ptr_container;

  000c5	2b c2		 sub	 eax, edx

; 164  :     _STL_VERIFY(_Back_shift >= _Min_back_shift && _Back_shift <= _Non_user_size, "invalid argument");

  000c7	83 c0 fc	 add	 eax, -4			; fffffffcH
  000ca	83 f8 1f	 cmp	 eax, 31			; 0000001fH
  000cd	0f 87 87 00 00
	00		 ja	 $LN113@CGuildMark

; 165  :     _Ptr = reinterpret_cast<void*>(_Ptr_container);

  000d3	8b c2		 mov	 eax, edx
$LN116@CGuildMark:

; 255  :         ::operator delete(_Ptr, _Bytes);

  000d5	51		 push	 ecx
  000d6	50		 push	 eax
  000d7	e8 00 00 00 00	 call	 ??3@YAXPAXI@Z		; operator delete
  000dc	83 c4 08	 add	 esp, 8
$LN104@CGuildMark:
; File E:\Metin2_server\SolWayneSF v6\ClientVS22\source\UserInterface\MarkManager.cpp

; 39   : }

  000df	8d 77 14	 lea	 esi, DWORD PTR [edi+20]
; File C:\Program Files\Microsoft Visual Studio\2022\Community\VC\Tools\MSVC\14.34.31933\include\xstring

; 5016 :         _My_data._Mysize = 0;

  000e2	c7 47 2c 00 00
	00 00		 mov	 DWORD PTR [edi+44], 0

; 5017 :         _My_data._Myres  = _BUF_SIZE - 1;

  000e9	c7 47 30 0f 00
	00 00		 mov	 DWORD PTR [edi+48], 15	; 0000000fH
; File C:\Program Files\Microsoft Visual Studio\2022\Community\VC\Tools\MSVC\14.34.31933\include\xtree

; 754  :         _Erase_tree(_Al, _Myhead->_Parent);

  000f0	8b ce		 mov	 ecx, esi
; File C:\Program Files\Microsoft Visual Studio\2022\Community\VC\Tools\MSVC\14.34.31933\include\xstring

; 5019 :         _Traits::assign(_My_data._Bx._Buf[0], _Elem());

  000f2	c6 47 1c 00	 mov	 BYTE PTR [edi+28], 0
; File C:\Program Files\Microsoft Visual Studio\2022\Community\VC\Tools\MSVC\14.34.31933\include\xtree

; 754  :         _Erase_tree(_Al, _Myhead->_Parent);

  000f6	8b 06		 mov	 eax, DWORD PTR [esi]
  000f8	ff 70 04	 push	 DWORD PTR [eax+4]
  000fb	56		 push	 esi
  000fc	e8 00 00 00 00	 call	 ??$_Erase_tree@V?$allocator@U?$_Tree_node@KPAX@std@@@std@@@?$_Tree_val@U?$_Tree_simple_types@K@std@@@std@@QAEXAAV?$allocator@U?$_Tree_node@KPAX@std@@@1@PAU?$_Tree_node@KPAX@1@@Z ; std::_Tree_val<std::_Tree_simple_types<unsigned long> >::_Erase_tree<std::allocator<std::_Tree_node<unsigned long,void *> > >
; File C:\Program Files\Microsoft Visual Studio\2022\Community\VC\Tools\MSVC\14.34.31933\include\xmemory

; 255  :         ::operator delete(_Ptr, _Bytes);

  00101	6a 14		 push	 20			; 00000014H
  00103	ff 36		 push	 DWORD PTR [esi]
  00105	e8 00 00 00 00	 call	 ??3@YAXPAXI@Z		; operator delete
; File C:\Program Files\Microsoft Visual Studio\2022\Community\VC\Tools\MSVC\14.34.31933\include\xtree

; 754  :         _Erase_tree(_Al, _Myhead->_Parent);

  0010a	8b 47 0c	 mov	 eax, DWORD PTR [edi+12]
; File E:\Metin2_server\SolWayneSF v6\ClientVS22\source\UserInterface\MarkManager.cpp

; 39   : }

  0010d	8d 77 0c	 lea	 esi, DWORD PTR [edi+12]
; File C:\Program Files\Microsoft Visual Studio\2022\Community\VC\Tools\MSVC\14.34.31933\include\xmemory

; 255  :         ::operator delete(_Ptr, _Bytes);

  00110	83 c4 08	 add	 esp, 8
; File C:\Program Files\Microsoft Visual Studio\2022\Community\VC\Tools\MSVC\14.34.31933\include\xtree

; 754  :         _Erase_tree(_Al, _Myhead->_Parent);

  00113	8b ce		 mov	 ecx, esi
  00115	ff 70 04	 push	 DWORD PTR [eax+4]
  00118	56		 push	 esi
  00119	e8 00 00 00 00	 call	 ??$_Erase_tree@V?$allocator@U?$_Tree_node@U?$pair@$$CBKK@std@@PAX@std@@@std@@@?$_Tree_val@U?$_Tree_simple_types@U?$pair@$$CBKK@std@@@std@@@std@@QAEXAAV?$allocator@U?$_Tree_node@U?$pair@$$CBKK@std@@PAX@std@@@1@PAU?$_Tree_node@U?$pair@$$CBKK@std@@PAX@1@@Z ; std::_Tree_val<std::_Tree_simple_types<std::pair<unsigned long const ,unsigned long> > >::_Erase_tree<std::allocator<std::_Tree_node<std::pair<unsigned long const ,unsigned long>,void *> > >
; File C:\Program Files\Microsoft Visual Studio\2022\Community\VC\Tools\MSVC\14.34.31933\include\xmemory

; 255  :         ::operator delete(_Ptr, _Bytes);

  0011e	6a 18		 push	 24			; 00000018H
  00120	ff 36		 push	 DWORD PTR [esi]
  00122	e8 00 00 00 00	 call	 ??3@YAXPAXI@Z		; operator delete
; File C:\Program Files\Microsoft Visual Studio\2022\Community\VC\Tools\MSVC\14.34.31933\include\xtree

; 754  :         _Erase_tree(_Al, _Myhead->_Parent);

  00127	8b 03		 mov	 eax, DWORD PTR [ebx]
; File C:\Program Files\Microsoft Visual Studio\2022\Community\VC\Tools\MSVC\14.34.31933\include\xmemory

; 255  :         ::operator delete(_Ptr, _Bytes);

  00129	83 c4 08	 add	 esp, 8
; File C:\Program Files\Microsoft Visual Studio\2022\Community\VC\Tools\MSVC\14.34.31933\include\xtree

; 754  :         _Erase_tree(_Al, _Myhead->_Parent);

  0012c	8b cb		 mov	 ecx, ebx
  0012e	ff 70 04	 push	 DWORD PTR [eax+4]
  00131	53		 push	 ebx
  00132	e8 00 00 00 00	 call	 ??$_Erase_tree@V?$allocator@U?$_Tree_node@U?$pair@$$CBKPAVCGuildMarkImage@@@std@@PAX@std@@@std@@@?$_Tree_val@U?$_Tree_simple_types@U?$pair@$$CBKPAVCGuildMarkImage@@@std@@@std@@@std@@QAEXAAV?$allocator@U?$_Tree_node@U?$pair@$$CBKPAVCGuildMarkImage@@@std@@PAX@std@@@1@PAU?$_Tree_node@U?$pair@$$CBKPAVCGuildMarkImage@@@std@@PAX@1@@Z ; std::_Tree_val<std::_Tree_simple_types<std::pair<unsigned long const ,CGuildMarkImage *> > >::_Erase_tree<std::allocator<std::_Tree_node<std::pair<unsigned long const ,CGuildMarkImage *>,void *> > >
; File C:\Program Files\Microsoft Visual Studio\2022\Community\VC\Tools\MSVC\14.34.31933\include\xmemory

; 255  :         ::operator delete(_Ptr, _Bytes);

  00137	6a 18		 push	 24			; 00000018H
  00139	ff 33		 push	 DWORD PTR [ebx]
  0013b	e8 00 00 00 00	 call	 ??3@YAXPAXI@Z		; operator delete
  00140	83 c4 08	 add	 esp, 8
; File E:\Metin2_server\SolWayneSF v6\ClientVS22\source\eterBase\Singleton.h

; 60   : 	{ 

  00143	c7 07 00 00 00
	00		 mov	 DWORD PTR [edi], OFFSET ??_7?$singleton@VCGuildMarkManager@@@@6B@

; 61   : 		assert(ms_singleton);
; 62   : 		ms_singleton = 0; 

  00149	c7 05 00 00 00
	00 00 00 00 00	 mov	 DWORD PTR ?ms_singleton@?$singleton@VCGuildMarkManager@@@@0PAVCGuildMarkManager@@A, 0 ; singleton<CGuildMarkManager>::ms_singleton
  00153	5f		 pop	 edi
  00154	5e		 pop	 esi
  00155	5b		 pop	 ebx
; File E:\Metin2_server\SolWayneSF v6\ClientVS22\source\UserInterface\MarkManager.cpp

; 39   : }

  00156	8b e5		 mov	 esp, ebp
  00158	5d		 pop	 ebp
  00159	c3		 ret	 0
$LN113@CGuildMark:
; File C:\Program Files\Microsoft Visual Studio\2022\Community\VC\Tools\MSVC\14.34.31933\include\xmemory

; 164  :     _STL_VERIFY(_Back_shift >= _Min_back_shift && _Back_shift <= _Non_user_size, "invalid argument");

  0015a	e8 00 00 00 00	 call	 __invalid_parameter_noinfo_noreturn
$LN303@CGuildMark:
  0015f	cc		 int	 3
??1CGuildMarkManager@@UAE@XZ ENDP			; CGuildMarkManager::~CGuildMarkManager
_TEXT	ENDS
; Function compile flags: /Ogtp
; File E:\Metin2_server\SolWayneSF v6\ClientVS22\source\UserInterface\MarkManager.cpp
; File C:\Program Files\Microsoft Visual Studio\2022\Community\VC\Tools\MSVC\14.34.31933\include\xstring
; File E:\Metin2_server\SolWayneSF v6\ClientVS22\source\UserInterface\MarkManager.cpp
; File C:\Program Files\Microsoft Visual Studio\2022\Community\VC\Tools\MSVC\14.34.31933\include\xstring
; File E:\Metin2_server\SolWayneSF v6\ClientVS22\source\UserInterface\MarkManager.cpp
; File C:\Program Files\Microsoft Visual Studio\2022\Community\VC\Tools\MSVC\14.34.31933\include\xstring
; File E:\Metin2_server\SolWayneSF v6\ClientVS22\source\UserInterface\MarkManager.cpp
;	COMDAT ?SetMarkPathPrefix@CGuildMarkManager@@QAEXPBD@Z
_TEXT	SEGMENT
_prefix$ = 8						; size = 4
?SetMarkPathPrefix@CGuildMarkManager@@QAEXPBD@Z PROC	; CGuildMarkManager::SetMarkPathPrefix, COMDAT
; _this$ = ecx

; 53   : {

  00000	55		 push	 ebp
  00001	8b ec		 mov	 ebp, esp
; File C:\Program Files\Microsoft Visual Studio\2022\Community\VC\Tools\MSVC\14.34.31933\include\xstring

; 415  :             return __builtin_strlen(_First);

  00003	8b 55 08	 mov	 edx, DWORD PTR _prefix$[ebp]
  00006	8b c2		 mov	 eax, edx
; File E:\Metin2_server\SolWayneSF v6\ClientVS22\source\UserInterface\MarkManager.cpp

; 53   : {

  00008	56		 push	 esi
  00009	57		 push	 edi
  0000a	8b f1		 mov	 esi, ecx
; File C:\Program Files\Microsoft Visual Studio\2022\Community\VC\Tools\MSVC\14.34.31933\include\xstring

; 415  :             return __builtin_strlen(_First);

  0000c	8d 78 01	 lea	 edi, DWORD PTR [eax+1]
  0000f	90		 npad	 1
$LL9@SetMarkPat:
  00010	8a 08		 mov	 cl, BYTE PTR [eax]
  00012	40		 inc	 eax
  00013	84 c9		 test	 cl, cl
  00015	75 f9		 jne	 SHORT $LL9@SetMarkPat
  00017	2b c7		 sub	 eax, edi
; File E:\Metin2_server\SolWayneSF v6\ClientVS22\source\UserInterface\MarkManager.cpp

; 54   : 	m_pathPrefix = prefix;

  00019	8d 4e 1c	 lea	 ecx, DWORD PTR [esi+28]
; File C:\Program Files\Microsoft Visual Studio\2022\Community\VC\Tools\MSVC\14.34.31933\include\xstring

; 3546 :         return assign(_Ptr, _Convert_size<size_type>(_Traits::length(_Ptr)));

  0001c	50		 push	 eax
  0001d	52		 push	 edx
  0001e	e8 00 00 00 00	 call	 ?assign@?$basic_string@DU?$char_traits@D@std@@V?$allocator@D@2@@std@@QAEAAV12@QBDI@Z ; std::basic_string<char,std::char_traits<char>,std::allocator<char> >::assign
  00023	5f		 pop	 edi
  00024	5e		 pop	 esi
; File E:\Metin2_server\SolWayneSF v6\ClientVS22\source\UserInterface\MarkManager.cpp

; 55   : }

  00025	5d		 pop	 ebp
  00026	c2 04 00	 ret	 4
?SetMarkPathPrefix@CGuildMarkManager@@QAEXPBD@Z ENDP	; CGuildMarkManager::SetMarkPathPrefix
_TEXT	ENDS
; Function compile flags: /Ogtp
; File E:\Metin2_server\SolWayneSF v6\ClientVS22\source\UserInterface\MarkManager.cpp
; File C:\Program Files\Microsoft Visual Studio\2022\Community\VC\Tools\MSVC\14.34.31933\include\xtree
; File E:\Metin2_server\SolWayneSF v6\ClientVS22\source\UserInterface\MarkManager.cpp
; File C:\Program Files\Microsoft Visual Studio\2022\Community\VC\Tools\MSVC\14.34.31933\include\xtree
; File E:\Metin2_server\SolWayneSF v6\ClientVS22\source\UserInterface\MarkManager.cpp
; File C:\Program Files\Microsoft Visual Studio\2022\Community\VC\Tools\MSVC\14.34.31933\include\xstring
; File E:\Metin2_server\SolWayneSF v6\ClientVS22\source\UserInterface\MarkManager.cpp
; File C:\Program Files\Microsoft Visual Studio\2022\Community\VC\Tools\MSVC\14.34.31933\include\xtree
; File C:\Program Files\Microsoft Visual Studio\2022\Community\VC\Tools\MSVC\14.34.31933\include\utility
; File C:\Program Files\Microsoft Visual Studio\2022\Community\VC\Tools\MSVC\14.34.31933\include\xtree
; File E:\Metin2_server\SolWayneSF v6\ClientVS22\source\UserInterface\MarkManager.cpp
; File C:\Program Files\Microsoft Visual Studio\2022\Community\VC\Tools\MSVC\14.34.31933\include\xtree
; File C:\Program Files\Microsoft Visual Studio\2022\Community\VC\Tools\MSVC\14.34.31933\include\utility
; File C:\Program Files\Microsoft Visual Studio\2022\Community\VC\Tools\MSVC\14.34.31933\include\xtree
; File C:\Program Files\Microsoft Visual Studio\2022\Community\VC\Tools\MSVC\14.34.31933\include\xmemory
; File C:\Program Files\Microsoft Visual Studio\2022\Community\VC\Tools\MSVC\14.34.31933\include\xtree
; File C:\Program Files\Microsoft Visual Studio\2022\Community\VC\Tools\MSVC\14.34.31933\include\xmemory
; File C:\Program Files\Microsoft Visual Studio\2022\Community\VC\Tools\MSVC\14.34.31933\include\xtree
; File C:\Program Files\Microsoft Visual Studio\2022\Community\VC\Tools\MSVC\14.34.31933\include\xmemory
; File C:\Program Files\Microsoft Visual Studio\2022\Community\VC\Tools\MSVC\14.34.31933\include\xtree
; File C:\Program Files\Microsoft Visual Studio\2022\Community\VC\Tools\MSVC\14.34.31933\include\xstring
; File E:\Metin2_server\SolWayneSF v6\ClientVS22\source\UserInterface\MarkManager.cpp
; File C:\Program Files\Microsoft Visual Studio\2022\Community\VC\Tools\MSVC\14.34.31933\include\xstring
; File E:\Metin2_server\SolWayneSF v6\ClientVS22\source\UserInterface\MarkManager.cpp
; File C:\Program Files\Microsoft Visual Studio\2022\Community\VC\Tools\MSVC\14.34.31933\include\xstring
; File C:\Program Files\Microsoft Visual Studio\2022\Community\VC\Tools\MSVC\14.34.31933\include\xmemory
; File C:\Program Files\Microsoft Visual Studio\2022\Community\VC\Tools\MSVC\14.34.31933\include\xstring
; File C:\Program Files\Microsoft Visual Studio\2022\Community\VC\Tools\MSVC\14.34.31933\include\xmemory
; File E:\Metin2_server\SolWayneSF v6\ClientVS22\source\UserInterface\MarkManager.cpp
; File C:\Program Files\Microsoft Visual Studio\2022\Community\VC\Tools\MSVC\14.34.31933\include\xtree
; File C:\Program Files\Microsoft Visual Studio\2022\Community\VC\Tools\MSVC\14.34.31933\include\xmemory
; File E:\Metin2_server\SolWayneSF v6\ClientVS22\source\UserInterface\MarkManager.cpp
;	COMDAT ?__GetImage@CGuildMarkManager@@AAEPAVCGuildMarkImage@@K@Z
_TEXT	SEGMENT
$T2 = -80						; size = 12
__Loc$3 = -68						; size = 12
__Loc$4 = -68						; size = 12
$T5 = -56						; size = 8
$T6 = -56						; size = 8
$T7 = -48						; size = 4
_imagePath$8 = -44					; size = 24
__$ArrayPad$ = -20					; size = 4
__$EHRec$ = -12						; size = 12
_imgIdx$ = 8						; size = 4
?__GetImage@CGuildMarkManager@@AAEPAVCGuildMarkImage@@K@Z PROC ; CGuildMarkManager::__GetImage, COMDAT
; _this$ = ecx

; 133  : {

  00000	53		 push	 ebx
  00001	8b dc		 mov	 ebx, esp
  00003	83 ec 08	 sub	 esp, 8
  00006	83 e4 f8	 and	 esp, -8			; fffffff8H
  00009	83 c4 04	 add	 esp, 4
  0000c	55		 push	 ebp
  0000d	8b 6b 04	 mov	 ebp, DWORD PTR [ebx+4]
  00010	89 6c 24 04	 mov	 DWORD PTR [esp+4], ebp
  00014	8b ec		 mov	 ebp, esp
  00016	6a ff		 push	 -1
  00018	68 00 00 00 00	 push	 __ehhandler$?__GetImage@CGuildMarkManager@@AAEPAVCGuildMarkImage@@K@Z
  0001d	64 a1 00 00 00
	00		 mov	 eax, DWORD PTR fs:0
  00023	50		 push	 eax
  00024	53		 push	 ebx
  00025	83 ec 40	 sub	 esp, 64			; 00000040H
  00028	a1 00 00 00 00	 mov	 eax, DWORD PTR ___security_cookie
  0002d	33 c5		 xor	 eax, ebp
  0002f	89 45 ec	 mov	 DWORD PTR __$ArrayPad$[ebp], eax
  00032	56		 push	 esi
  00033	57		 push	 edi
  00034	50		 push	 eax
  00035	8d 45 f4	 lea	 eax, DWORD PTR __$EHRec$[ebp]
  00038	64 a3 00 00 00
	00		 mov	 DWORD PTR fs:0, eax
  0003e	8b f1		 mov	 esi, ecx
; File C:\Program Files\Microsoft Visual Studio\2022\Community\VC\Tools\MSVC\14.34.31933\include\xtree

; 1367 :         const _Tree_find_result<_Nodeptr> _Loc = _Find_lower_bound(_Keyval);

  00040	8d 43 08	 lea	 eax, DWORD PTR _imgIdx$[ebx]
  00043	50		 push	 eax
  00044	8d 45 bc	 lea	 eax, DWORD PTR __Loc$4[ebp]
; File E:\Metin2_server\SolWayneSF v6\ClientVS22\source\UserInterface\MarkManager.cpp

; 134  : 	std::map<DWORD, CGuildMarkImage *>::iterator it = m_mapIdx_Image.find(imgIdx);

  00047	8d 7e 04	 lea	 edi, DWORD PTR [esi+4]
; File C:\Program Files\Microsoft Visual Studio\2022\Community\VC\Tools\MSVC\14.34.31933\include\xtree

; 1367 :         const _Tree_find_result<_Nodeptr> _Loc = _Find_lower_bound(_Keyval);

  0004a	50		 push	 eax
  0004b	8b cf		 mov	 ecx, edi
  0004d	e8 00 00 00 00	 call	 ??$_Find_lower_bound@K@?$_Tree@V?$_Tmap_traits@KPAVCGuildMarkImage@@U?$less@K@std@@V?$allocator@U?$pair@$$CBKPAVCGuildMarkImage@@@std@@@3@$0A@@std@@@std@@IBE?AU?$_Tree_find_result@PAU?$_Tree_node@U?$pair@$$CBKPAVCGuildMarkImage@@@std@@PAX@std@@@1@ABK@Z ; std::_Tree<std::_Tmap_traits<unsigned long,CGuildMarkImage *,std::less<unsigned long>,std::allocator<std::pair<unsigned long const ,CGuildMarkImage *> >,0> >::_Find_lower_bound<unsigned long>

; 1605 :         return !_Bound->_Isnil && !_DEBUG_LT_PRED(_Getcomp(), _Keyval, _Traits::_Kfn(_Bound->_Myval));

  00052	8b 45 c4	 mov	 eax, DWORD PTR __Loc$4[ebp+8]
  00055	8b 4b 08	 mov	 ecx, DWORD PTR _imgIdx$[ebx]
  00058	80 78 0d 00	 cmp	 BYTE PTR [eax+13], 0
  0005c	75 11		 jne	 SHORT $LN217@GetImage
  0005e	3b 48 10	 cmp	 ecx, DWORD PTR [eax+16]
  00061	72 0c		 jb	 SHORT $LN217@GetImage
; File E:\Metin2_server\SolWayneSF v6\ClientVS22\source\UserInterface\MarkManager.cpp

; 136  : 	if (it == m_mapIdx_Image.end())

  00063	3b 07		 cmp	 eax, DWORD PTR [edi]
  00065	74 08		 je	 SHORT $LN217@GetImage

; 149  : 	}
; 150  : 	else
; 151  : 		return it->second;

  00067	8b 40 14	 mov	 eax, DWORD PTR [eax+20]
  0006a	e9 0f 01 00 00	 jmp	 $LN3@GetImage
$LN217@GetImage:
  0006f	0f 57 c0	 xorps	 xmm0, xmm0
; File C:\Program Files\Microsoft Visual Studio\2022\Community\VC\Tools\MSVC\14.34.31933\include\xstring

; 4995 :         _My_data._Mysize = 0;

  00072	c7 45 e4 00 00
	00 00		 mov	 DWORD PTR _imagePath$8[ebp+16], 0

; 2339 :         _CONSTEXPR20 _Bxty() noexcept : _Buf() {} // user-provided, for fancy pointers

  00079	0f 11 45 d4	 movups	 XMMWORD PTR _imagePath$8[ebp], xmm0

; 4996 :         _My_data._Myres  = _BUF_SIZE - 1;

  0007d	c7 45 e8 0f 00
	00 00		 mov	 DWORD PTR _imagePath$8[ebp+20], 15 ; 0000000fH

; 4997 :         _My_data._Activate_SSO_buffer();
; 4998 : 
; 4999 :         // the _Traits::assign is last so the codegen doesn't think the char write can alias this
; 5000 :         _Traits::assign(_My_data._Bx._Buf[0], _Elem());

  00084	c6 45 d4 00	 mov	 BYTE PTR _imagePath$8[ebp], 0
; File E:\Metin2_server\SolWayneSF v6\ClientVS22\source\UserInterface\MarkManager.cpp

; 140  : 		if (GetMarkImageFilename(imgIdx, imagePath))

  00088	8d 45 d4	 lea	 eax, DWORD PTR _imagePath$8[ebp]
  0008b	c7 45 fc 00 00
	00 00		 mov	 DWORD PTR __$EHRec$[ebp+8], 0
  00092	50		 push	 eax
  00093	51		 push	 ecx
  00094	8b ce		 mov	 ecx, esi
  00096	e8 00 00 00 00	 call	 ?GetMarkImageFilename@CGuildMarkManager@@QBE_NKAAV?$basic_string@DU?$char_traits@D@std@@V?$allocator@D@2@@std@@@Z ; CGuildMarkManager::GetMarkImageFilename
  0009b	84 c0		 test	 al, al
  0009d	0f 84 a7 00 00
	00		 je	 $LN4@GetImage

; 142  : 			CGuildMarkImage * pkImage = __NewImage();

  000a3	e8 00 00 00 00	 call	 ?__NewImage@CGuildMarkManager@@AAEPAVCGuildMarkImage@@XZ ; CGuildMarkManager::__NewImage
  000a8	8b f0		 mov	 esi, eax
; File C:\Program Files\Microsoft Visual Studio\2022\Community\VC\Tools\MSVC\14.34.31933\include\xtree

; 1001 :             _Loc                = _Find_lower_bound(_Keyval);

  000aa	8b cf		 mov	 ecx, edi
; File C:\Program Files\Microsoft Visual Studio\2022\Community\VC\Tools\MSVC\14.34.31933\include\utility

; 172  :         : first(_STD forward<_Other1>(_Val1)), second(_STD forward<_Other2>(_Val2)) {

  000ac	8b 43 08	 mov	 eax, DWORD PTR _imgIdx$[ebx]
  000af	89 45 c8	 mov	 DWORD PTR $T6[ebp], eax
; File C:\Program Files\Microsoft Visual Studio\2022\Community\VC\Tools\MSVC\14.34.31933\include\xtree

; 1001 :             _Loc                = _Find_lower_bound(_Keyval);

  000b2	8d 45 c8	 lea	 eax, DWORD PTR $T6[ebp]
  000b5	50		 push	 eax
  000b6	8d 45 b0	 lea	 eax, DWORD PTR $T2[ebp]
; File E:\Metin2_server\SolWayneSF v6\ClientVS22\source\UserInterface\MarkManager.cpp

; 142  : 			CGuildMarkImage * pkImage = __NewImage();

  000b9	89 75 d0	 mov	 DWORD PTR $T7[ebp], esi
; File C:\Program Files\Microsoft Visual Studio\2022\Community\VC\Tools\MSVC\14.34.31933\include\xtree

; 1001 :             _Loc                = _Find_lower_bound(_Keyval);

  000bc	50		 push	 eax
; File C:\Program Files\Microsoft Visual Studio\2022\Community\VC\Tools\MSVC\14.34.31933\include\utility

; 172  :         : first(_STD forward<_Other1>(_Val1)), second(_STD forward<_Other2>(_Val2)) {

  000bd	89 75 cc	 mov	 DWORD PTR $T6[ebp+4], esi
; File C:\Program Files\Microsoft Visual Studio\2022\Community\VC\Tools\MSVC\14.34.31933\include\xtree

; 1001 :             _Loc                = _Find_lower_bound(_Keyval);

  000c0	e8 00 00 00 00	 call	 ??$_Find_lower_bound@K@?$_Tree@V?$_Tmap_traits@KPAVCGuildMarkImage@@U?$less@K@std@@V?$allocator@U?$pair@$$CBKPAVCGuildMarkImage@@@std@@@3@$0A@@std@@@std@@IBE?AU?$_Tree_find_result@PAU?$_Tree_node@U?$pair@$$CBKPAVCGuildMarkImage@@@std@@PAX@std@@@1@ABK@Z ; std::_Tree<std::_Tmap_traits<unsigned long,CGuildMarkImage *,std::less<unsigned long>,std::allocator<std::pair<unsigned long const ,CGuildMarkImage *> >,0> >::_Find_lower_bound<unsigned long>
  000c5	8b 48 08	 mov	 ecx, DWORD PTR [eax+8]
  000c8	f3 0f 7e 00	 movq	 xmm0, QWORD PTR [eax]
  000cc	66 0f d6 45 bc	 movq	 QWORD PTR __Loc$3[ebp], xmm0

; 1605 :         return !_Bound->_Isnil && !_DEBUG_LT_PRED(_Getcomp(), _Keyval, _Traits::_Kfn(_Bound->_Myval));

  000d1	80 79 0d 00	 cmp	 BYTE PTR [ecx+13], 0
  000d5	75 08		 jne	 SHORT $LN216@GetImage
  000d7	8b 43 08	 mov	 eax, DWORD PTR _imgIdx$[ebx]
  000da	3b 41 10	 cmp	 eax, DWORD PTR [ecx+16]
  000dd	73 56		 jae	 SHORT $LN168@GetImage
$LN216@GetImage:

; 1629 :         if (max_size() == _Get_scary()->_Mysize) {

  000df	81 7f 04 aa aa
	aa 0a		 cmp	 DWORD PTR [edi+4], 178956970 ; 0aaaaaaaH
  000e6	0f 84 b2 00 00
	00		 je	 $LN223@GetImage

; 1007 :             _Inserted = _Tree_temp_node<_Alnode>(_Getal(), _Scary->_Myhead, _STD forward<_Valtys>(_Vals)...)._Release();

  000ec	8b 37		 mov	 esi, DWORD PTR [edi]
; File C:\Program Files\Microsoft Visual Studio\2022\Community\VC\Tools\MSVC\14.34.31933\include\xmemory

; 1005 :     _CONSTEXPR20 explicit _Alloc_construct_ptr(_Alloc& _Al_) : _Al(_Al_), _Ptr(nullptr) {}

  000ee	89 7d c8	 mov	 DWORD PTR $T5[ebp], edi
; File C:\Program Files\Microsoft Visual Studio\2022\Community\VC\Tools\MSVC\14.34.31933\include\xtree

; 785  :     explicit _Tree_temp_node_alloc(_Alnode& _Al_) : _Alloc_construct_ptr<_Alnode>(_Al_) {

  000f1	c6 45 fc 01	 mov	 BYTE PTR __$EHRec$[ebp+8], 1
; File C:\Program Files\Microsoft Visual Studio\2022\Community\VC\Tools\MSVC\14.34.31933\include\xmemory

; 77   :         return ::operator new(_Bytes);

  000f5	6a 18		 push	 24			; 00000018H

; 1012 :         _Ptr = nullptr; // if allocate throws, prevents double-free

  000f7	c7 45 cc 00 00
	00 00		 mov	 DWORD PTR $T5[ebp+4], 0

; 77   :         return ::operator new(_Bytes);

  000fe	e8 00 00 00 00	 call	 ??2@YAPAXI@Z		; operator new
; File C:\Program Files\Microsoft Visual Studio\2022\Community\VC\Tools\MSVC\14.34.31933\include\xtree

; 787  :     }

  00103	c6 45 fc 00	 mov	 BYTE PTR __$EHRec$[ebp+8], 0
; File C:\Program Files\Microsoft Visual Studio\2022\Community\VC\Tools\MSVC\14.34.31933\include\xmemory

; 77   :         return ::operator new(_Bytes);

  00107	83 c4 04	 add	 esp, 4
; File C:\Program Files\Microsoft Visual Studio\2022\Community\VC\Tools\MSVC\14.34.31933\include\xtree

; 807  :         _Alnode_traits::construct(this->_Al, _STD addressof(this->_Ptr->_Myval), _STD forward<_Valtys>(_Vals)...);

  0010a	8b 4b 08	 mov	 ecx, DWORD PTR _imgIdx$[ebx]
  0010d	89 48 10	 mov	 DWORD PTR [eax+16], ecx
  00110	8b 4d d0	 mov	 ecx, DWORD PTR $T7[ebp]
  00113	89 48 14	 mov	 DWORD PTR [eax+20], ecx

; 1026 :         return {_Scary->_Insert_node(_Loc._Location, _Inserted), true};

  00116	8b cf		 mov	 ecx, edi
  00118	50		 push	 eax
  00119	ff 75 c0	 push	 DWORD PTR __Loc$3[ebp+4]

; 808  :         _Construct_in_place(this->_Ptr->_Left, _Myhead);

  0011c	89 30		 mov	 DWORD PTR [eax], esi

; 1026 :         return {_Scary->_Insert_node(_Loc._Location, _Inserted), true};

  0011e	ff 75 bc	 push	 DWORD PTR __Loc$3[ebp]

; 809  :         _Construct_in_place(this->_Ptr->_Parent, _Myhead);

  00121	89 70 04	 mov	 DWORD PTR [eax+4], esi

; 810  :         _Construct_in_place(this->_Ptr->_Right, _Myhead);

  00124	89 70 08	 mov	 DWORD PTR [eax+8], esi

; 811  :         this->_Ptr->_Color = _Red;

  00127	66 c7 40 0c 00
	00		 mov	 WORD PTR [eax+12], 0

; 1026 :         return {_Scary->_Insert_node(_Loc._Location, _Inserted), true};

  0012d	e8 00 00 00 00	 call	 ?_Insert_node@?$_Tree_val@U?$_Tree_simple_types@U?$pair@$$CBKPAVCGuildMarkImage@@@std@@@std@@@std@@QAEPAU?$_Tree_node@U?$pair@$$CBKPAVCGuildMarkImage@@@std@@PAX@2@U?$_Tree_id@PAU?$_Tree_node@U?$pair@$$CBKPAVCGuildMarkImage@@@std@@PAX@std@@@2@QAU32@@Z ; std::_Tree_val<std::_Tree_simple_types<std::pair<unsigned long const ,CGuildMarkImage *> > >::_Insert_node
  00132	8b 75 d0	 mov	 esi, DWORD PTR $T7[ebp]
$LN168@GetImage:
; File C:\Program Files\Microsoft Visual Studio\2022\Community\VC\Tools\MSVC\14.34.31933\include\xstring

; 2301 :         return _BUF_SIZE <= _Myres;

  00135	83 7d e8 10	 cmp	 DWORD PTR _imagePath$8[ebp+20], 16 ; 00000010H

; 2292 :         const value_type* _Result = _Bx._Buf;

  00139	8d 45 d4	 lea	 eax, DWORD PTR _imagePath$8[ebp]
; File E:\Metin2_server\SolWayneSF v6\ClientVS22\source\UserInterface\MarkManager.cpp

; 144  : 			pkImage->Load(imagePath.c_str());

  0013c	8b ce		 mov	 ecx, esi
; File C:\Program Files\Microsoft Visual Studio\2022\Community\VC\Tools\MSVC\14.34.31933\include\xstring

; 2293 :         if (_Large_string_engaged()) {

  0013e	0f 43 45 d4	 cmovae	 eax, DWORD PTR _imagePath$8[ebp]
; File E:\Metin2_server\SolWayneSF v6\ClientVS22\source\UserInterface\MarkManager.cpp

; 144  : 			pkImage->Load(imagePath.c_str());

  00142	50		 push	 eax
  00143	e8 00 00 00 00	 call	 ?Load@CGuildMarkImage@@QAE_NPBD@Z ; CGuildMarkImage::Load
  00148	eb 02		 jmp	 SHORT $LN8@GetImage
$LN4@GetImage:

; 148  : 			return NULL;

  0014a	33 f6		 xor	 esi, esi
$LN8@GetImage:
; File C:\Program Files\Microsoft Visual Studio\2022\Community\VC\Tools\MSVC\14.34.31933\include\xstring

; 2301 :         return _BUF_SIZE <= _Myres;

  0014c	8b 4d e8	 mov	 ecx, DWORD PTR _imagePath$8[ebp+20]
  0014f	83 f9 10	 cmp	 ecx, 16			; 00000010H

; 5008 :         if (_My_data._Large_string_engaged()) {

  00152	72 28		 jb	 SHORT $LN61@GetImage
; File C:\Program Files\Microsoft Visual Studio\2022\Community\VC\Tools\MSVC\14.34.31933\include\xmemory

; 830  :         _Deallocate<_New_alignof<_Ty>>(_Ptr, sizeof(_Ty) * _Count);

  00154	8b 55 d4	 mov	 edx, DWORD PTR _imagePath$8[ebp]
; File C:\Program Files\Microsoft Visual Studio\2022\Community\VC\Tools\MSVC\14.34.31933\include\xstring

; 5013 :             _Al.deallocate(_Ptr, _My_data._Myres + 1);

  00157	41		 inc	 ecx
; File C:\Program Files\Microsoft Visual Studio\2022\Community\VC\Tools\MSVC\14.34.31933\include\xmemory

; 830  :         _Deallocate<_New_alignof<_Ty>>(_Ptr, sizeof(_Ty) * _Count);

  00158	8b c2		 mov	 eax, edx

; 251  :         if (_Bytes >= _Big_allocation_threshold) { // boost the alignment of big allocations to help autovectorization

  0015a	81 f9 00 10 00
	00		 cmp	 ecx, 4096		; 00001000H
  00160	72 10		 jb	 SHORT $LN73@GetImage

; 150  :     const uintptr_t _Ptr_container   = _Ptr_user[-1];

  00162	8b 50 fc	 mov	 edx, DWORD PTR [eax-4]
  00165	83 c1 23	 add	 ecx, 35			; 00000023H
  00168	2b c2		 sub	 eax, edx

; 164  :     _STL_VERIFY(_Back_shift >= _Min_back_shift && _Back_shift <= _Non_user_size, "invalid argument");

  0016a	83 c0 fc	 add	 eax, -4			; fffffffcH
  0016d	83 f8 1f	 cmp	 eax, 31			; 0000001fH
  00170	77 31		 ja	 SHORT $LN224@GetImage
$LN73@GetImage:

; 255  :         ::operator delete(_Ptr, _Bytes);

  00172	51		 push	 ecx
  00173	52		 push	 edx
  00174	e8 00 00 00 00	 call	 ??3@YAXPAXI@Z		; operator delete
  00179	83 c4 08	 add	 esp, 8
$LN61@GetImage:
; File E:\Metin2_server\SolWayneSF v6\ClientVS22\source\UserInterface\MarkManager.cpp

; 148  : 			return NULL;

  0017c	8b c6		 mov	 eax, esi
$LN3@GetImage:

; 152  : }

  0017e	8b 4d f4	 mov	 ecx, DWORD PTR __$EHRec$[ebp]
  00181	64 89 0d 00 00
	00 00		 mov	 DWORD PTR fs:0, ecx
  00188	59		 pop	 ecx
  00189	5f		 pop	 edi
  0018a	5e		 pop	 esi
  0018b	8b 4d ec	 mov	 ecx, DWORD PTR __$ArrayPad$[ebp]
  0018e	33 cd		 xor	 ecx, ebp
  00190	e8 00 00 00 00	 call	 @__security_check_cookie@4
  00195	8b e5		 mov	 esp, ebp
  00197	5d		 pop	 ebp
  00198	8b e3		 mov	 esp, ebx
  0019a	5b		 pop	 ebx
  0019b	c2 04 00	 ret	 4
$LN223@GetImage:
; File C:\Program Files\Microsoft Visual Studio\2022\Community\VC\Tools\MSVC\14.34.31933\include\xtree

; 1630 :             _Throw_tree_length_error();

  0019e	e8 00 00 00 00	 call	 ?_Throw_tree_length_error@std@@YAXXZ ; std::_Throw_tree_length_error
$LN224@GetImage:
; File C:\Program Files\Microsoft Visual Studio\2022\Community\VC\Tools\MSVC\14.34.31933\include\xmemory

; 164  :     _STL_VERIFY(_Back_shift >= _Min_back_shift && _Back_shift <= _Non_user_size, "invalid argument");

  001a3	e8 00 00 00 00	 call	 __invalid_parameter_noinfo_noreturn
$LN221@GetImage:
  001a8	cc		 int	 3
_TEXT	ENDS
;	COMDAT text$x
text$x	SEGMENT
__unwindfunclet$?__GetImage@CGuildMarkManager@@AAEPAVCGuildMarkImage@@K@Z$0:
  00000	8d 4d d4	 lea	 ecx, DWORD PTR _imagePath$8[ebp]
  00003	e9 00 00 00 00	 jmp	 ??1?$basic_string@DU?$char_traits@D@std@@V?$allocator@D@2@@std@@QAE@XZ ; std::basic_string<char,std::char_traits<char>,std::allocator<char> >::~basic_string<char,std::char_traits<char>,std::allocator<char> >
__unwindfunclet$?__GetImage@CGuildMarkManager@@AAEPAVCGuildMarkImage@@K@Z$7:
  00008	8d 4d c8	 lea	 ecx, DWORD PTR $T5[ebp]
  0000b	e9 00 00 00 00	 jmp	 ??1?$_Alloc_construct_ptr@V?$allocator@U?$_Tree_node@U?$pair@$$CBKPAVCGuildMarkImage@@@std@@PAX@std@@@std@@@std@@QAE@XZ ; std::_Alloc_construct_ptr<std::allocator<std::_Tree_node<std::pair<unsigned long const ,CGuildMarkImage *>,void *> > >::~_Alloc_construct_ptr<std::allocator<std::_Tree_node<std::pair<unsigned long const ,CGuildMarkImage *>,void *> > >
  00010	cc		 int	 3
  00011	cc		 int	 3
  00012	cc		 int	 3
  00013	cc		 int	 3
  00014	cc		 int	 3
__ehhandler$?__GetImage@CGuildMarkManager@@AAEPAVCGuildMarkImage@@K@Z:
  00015	90		 npad	 1
  00016	90		 npad	 1
  00017	8b 54 24 08	 mov	 edx, DWORD PTR [esp+8]
  0001b	8d 42 0c	 lea	 eax, DWORD PTR [edx+12]
  0001e	8b 4a b0	 mov	 ecx, DWORD PTR [edx-80]
  00021	33 c8		 xor	 ecx, eax
  00023	e8 00 00 00 00	 call	 @__security_check_cookie@4
  00028	8b 4a f8	 mov	 ecx, DWORD PTR [edx-8]
  0002b	33 c8		 xor	 ecx, eax
  0002d	e8 00 00 00 00	 call	 @__security_check_cookie@4
  00032	b8 00 00 00 00	 mov	 eax, OFFSET __ehfuncinfo$?__GetImage@CGuildMarkManager@@AAEPAVCGuildMarkImage@@K@Z
  00037	e9 00 00 00 00	 jmp	 ___CxxFrameHandler3
text$x	ENDS
?__GetImage@CGuildMarkManager@@AAEPAVCGuildMarkImage@@K@Z ENDP ; CGuildMarkManager::__GetImage
; Function compile flags: /Ogtp
; File E:\Metin2_server\SolWayneSF v6\ClientVS22\source\UserInterface\MarkManager.cpp
; File C:\Program Files\Microsoft Visual Studio\2022\Community\VC\Tools\MSVC\14.34.31933\include\xtree
; File E:\Metin2_server\SolWayneSF v6\ClientVS22\source\UserInterface\MarkManager.cpp
; File C:\Program Files\Microsoft Visual Studio\2022\Community\VC\Tools\MSVC\14.34.31933\include\xtree
; File C:\Program Files\Microsoft Visual Studio\2022\Community\VC\Tools\MSVC\14.34.31933\include\xstddef
; File C:\Program Files\Microsoft Visual Studio\2022\Community\VC\Tools\MSVC\14.34.31933\include\xtree
; File E:\Metin2_server\SolWayneSF v6\ClientVS22\source\UserInterface\MarkManager.cpp
;	COMDAT ?GetMarkID@CGuildMarkManager@@QAEKK@Z
_TEXT	SEGMENT
__Loc$1 = -12						; size = 12
_guildID$ = 8						; size = 4
?GetMarkID@CGuildMarkManager@@QAEKK@Z PROC		; CGuildMarkManager::GetMarkID, COMDAT
; _this$ = ecx

; 166  : {

  00000	55		 push	 ebp
  00001	8b ec		 mov	 ebp, esp
  00003	83 ec 0c	 sub	 esp, 12			; 0000000cH
  00006	56		 push	 esi
; File C:\Program Files\Microsoft Visual Studio\2022\Community\VC\Tools\MSVC\14.34.31933\include\xtree

; 1367 :         const _Tree_find_result<_Nodeptr> _Loc = _Find_lower_bound(_Keyval);

  00007	8d 45 08	 lea	 eax, DWORD PTR _guildID$[ebp]
  0000a	50		 push	 eax
; File E:\Metin2_server\SolWayneSF v6\ClientVS22\source\UserInterface\MarkManager.cpp

; 167  : 	std::map<DWORD, DWORD>::iterator it = m_mapGID_MarkID.find(guildID);

  0000b	8d 71 0c	 lea	 esi, DWORD PTR [ecx+12]
; File C:\Program Files\Microsoft Visual Studio\2022\Community\VC\Tools\MSVC\14.34.31933\include\xtree

; 1367 :         const _Tree_find_result<_Nodeptr> _Loc = _Find_lower_bound(_Keyval);

  0000e	8d 45 f4	 lea	 eax, DWORD PTR __Loc$1[ebp]
  00011	8b ce		 mov	 ecx, esi
  00013	50		 push	 eax
  00014	e8 00 00 00 00	 call	 ??$_Find_lower_bound@K@?$_Tree@V?$_Tmap_traits@KKU?$less@K@std@@V?$allocator@U?$pair@$$CBKK@std@@@2@$0A@@std@@@std@@IBE?AU?$_Tree_find_result@PAU?$_Tree_node@U?$pair@$$CBKK@std@@PAX@std@@@1@ABK@Z ; std::_Tree<std::_Tmap_traits<unsigned long,unsigned long,std::less<unsigned long>,std::allocator<std::pair<unsigned long const ,unsigned long> >,0> >::_Find_lower_bound<unsigned long>

; 1605 :         return !_Bound->_Isnil && !_DEBUG_LT_PRED(_Getcomp(), _Keyval, _Traits::_Kfn(_Bound->_Myval));

  00019	8b 45 fc	 mov	 eax, DWORD PTR __Loc$1[ebp+8]
  0001c	80 78 0d 00	 cmp	 BYTE PTR [eax+13], 0
  00020	75 16		 jne	 SHORT $LN37@GetMarkID
; File C:\Program Files\Microsoft Visual Studio\2022\Community\VC\Tools\MSVC\14.34.31933\include\xstddef

; 143  :         return _Left < _Right;

  00022	8b 4d 08	 mov	 ecx, DWORD PTR _guildID$[ebp]
  00025	3b 48 10	 cmp	 ecx, DWORD PTR [eax+16]
; File C:\Program Files\Microsoft Visual Studio\2022\Community\VC\Tools\MSVC\14.34.31933\include\xtree

; 1605 :         return !_Bound->_Isnil && !_DEBUG_LT_PRED(_Getcomp(), _Keyval, _Traits::_Kfn(_Bound->_Myval));

  00028	72 0e		 jb	 SHORT $LN37@GetMarkID

; 38   :     _Tree_unchecked_const_iterator(_Nodeptr _Pnode, const _Mytree* _Plist) noexcept : _Ptr(_Pnode) {

  0002a	3b 06		 cmp	 eax, DWORD PTR [esi]
; File E:\Metin2_server\SolWayneSF v6\ClientVS22\source\UserInterface\MarkManager.cpp

; 169  : 	if (it == m_mapGID_MarkID.end())

  0002c	74 0a		 je	 SHORT $LN37@GetMarkID

; 171  : 
; 172  : 	return it->second;

  0002e	8b 40 14	 mov	 eax, DWORD PTR [eax+20]
  00031	5e		 pop	 esi

; 173  : }

  00032	8b e5		 mov	 esp, ebp
  00034	5d		 pop	 ebp
  00035	c2 04 00	 ret	 4
$LN37@GetMarkID:

; 170  : 		return INVALID_MARK_ID;

  00038	83 c8 ff	 or	 eax, -1
  0003b	5e		 pop	 esi

; 173  : }

  0003c	8b e5		 mov	 esp, ebp
  0003e	5d		 pop	 ebp
  0003f	c2 04 00	 ret	 4
?GetMarkID@CGuildMarkManager@@QAEKK@Z ENDP		; CGuildMarkManager::GetMarkID
_TEXT	ENDS
; Function compile flags: /Ogtp
; File C:\Program Files\Microsoft Visual Studio\2022\Community\VC\Tools\MSVC\14.34.31933\include\vector
; File C:\Program Files\Microsoft Visual Studio\2022\Community\VC\Tools\MSVC\14.34.31933\include\xmemory
; File C:\Program Files\Microsoft Visual Studio\2022\Community\VC\Tools\MSVC\14.34.31933\include\vector
; File C:\Program Files\Microsoft Visual Studio\2022\Community\VC\Tools\MSVC\14.34.31933\include\xmemory
; File C:\Program Files\Microsoft Visual Studio\2022\Community\VC\Tools\MSVC\14.34.31933\include\vector
; File C:\Program Files\Microsoft Visual Studio\2022\Community\VC\Tools\MSVC\14.34.31933\include\xmemory
;	COMDAT ??1TGuildSymbol@CGuildMarkManager@@QAE@XZ
_TEXT	SEGMENT
??1TGuildSymbol@CGuildMarkManager@@QAE@XZ PROC		; CGuildMarkManager::TGuildSymbol::~TGuildSymbol, COMDAT
; _this$ = ecx
; File C:\Program Files\Microsoft Visual Studio\2022\Community\VC\Tools\MSVC\14.34.31933\include\vector

; 2107 :         if (_Myfirst) { // destroy and deallocate old array

  00000	56		 push	 esi
  00001	8b f1		 mov	 esi, ecx
  00003	8b 46 04	 mov	 eax, DWORD PTR [esi+4]
  00006	85 c0		 test	 eax, eax
  00008	74 3e		 je	 SHORT $LN6@TGuildSymb

; 2108 :             _Destroy_range(_Myfirst, _Mylast, _Al);
; 2109 :             _ASAN_VECTOR_REMOVE;
; 2110 :             _Al.deallocate(_Myfirst, static_cast<size_type>(_Myend - _Myfirst));

  0000a	8b 4e 0c	 mov	 ecx, DWORD PTR [esi+12]
  0000d	2b c8		 sub	 ecx, eax
; File C:\Program Files\Microsoft Visual Studio\2022\Community\VC\Tools\MSVC\14.34.31933\include\xmemory

; 251  :         if (_Bytes >= _Big_allocation_threshold) { // boost the alignment of big allocations to help autovectorization

  0000f	81 f9 00 10 00
	00		 cmp	 ecx, 4096		; 00001000H
  00015	72 12		 jb	 SHORT $LN24@TGuildSymb

; 150  :     const uintptr_t _Ptr_container   = _Ptr_user[-1];

  00017	8b 50 fc	 mov	 edx, DWORD PTR [eax-4]
  0001a	83 c1 23	 add	 ecx, 35			; 00000023H

; 151  : 
; 152  :     // If the following asserts, it likely means that we are performing
; 153  :     // an aligned delete on memory coming from an unaligned allocation.
; 154  :     _STL_ASSERT(_Ptr_user[-2] == _Big_allocation_sentinel, "invalid argument");
; 155  : 
; 156  :     // Extra paranoia on aligned allocation/deallocation; ensure _Ptr_container is
; 157  :     // in range [_Min_back_shift, _Non_user_size]
; 158  : #ifdef _DEBUG
; 159  :     constexpr uintptr_t _Min_back_shift = 2 * sizeof(void*);
; 160  : #else // ^^^ _DEBUG ^^^ // vvv !_DEBUG vvv
; 161  :     constexpr uintptr_t _Min_back_shift = sizeof(void*);
; 162  : #endif // _DEBUG
; 163  :     const uintptr_t _Back_shift = reinterpret_cast<uintptr_t>(_Ptr) - _Ptr_container;

  0001d	2b c2		 sub	 eax, edx

; 164  :     _STL_VERIFY(_Back_shift >= _Min_back_shift && _Back_shift <= _Non_user_size, "invalid argument");

  0001f	83 c0 fc	 add	 eax, -4			; fffffffcH
  00022	83 f8 1f	 cmp	 eax, 31			; 0000001fH
  00025	77 23		 ja	 SHORT $LN21@TGuildSymb

; 165  :     _Ptr = reinterpret_cast<void*>(_Ptr_container);

  00027	8b c2		 mov	 eax, edx
$LN24@TGuildSymb:

; 255  :         ::operator delete(_Ptr, _Bytes);

  00029	51		 push	 ecx
  0002a	50		 push	 eax
  0002b	e8 00 00 00 00	 call	 ??3@YAXPAXI@Z		; operator delete
; File C:\Program Files\Microsoft Visual Studio\2022\Community\VC\Tools\MSVC\14.34.31933\include\vector

; 2112 :             _Myfirst = nullptr;

  00030	c7 46 04 00 00
	00 00		 mov	 DWORD PTR [esi+4], 0
; File C:\Program Files\Microsoft Visual Studio\2022\Community\VC\Tools\MSVC\14.34.31933\include\xmemory

; 255  :         ::operator delete(_Ptr, _Bytes);

  00037	83 c4 08	 add	 esp, 8
; File C:\Program Files\Microsoft Visual Studio\2022\Community\VC\Tools\MSVC\14.34.31933\include\vector

; 2113 :             _Mylast  = nullptr;

  0003a	c7 46 08 00 00
	00 00		 mov	 DWORD PTR [esi+8], 0

; 2114 :             _Myend   = nullptr;

  00041	c7 46 0c 00 00
	00 00		 mov	 DWORD PTR [esi+12], 0
$LN6@TGuildSymb:
  00048	5e		 pop	 esi
  00049	c3		 ret	 0
$LN21@TGuildSymb:
; File C:\Program Files\Microsoft Visual Studio\2022\Community\VC\Tools\MSVC\14.34.31933\include\xmemory

; 164  :     _STL_VERIFY(_Back_shift >= _Min_back_shift && _Back_shift <= _Non_user_size, "invalid argument");

  0004a	e8 00 00 00 00	 call	 __invalid_parameter_noinfo_noreturn
$LN30@TGuildSymb:
  0004f	cc		 int	 3
??1TGuildSymbol@CGuildMarkManager@@QAE@XZ ENDP		; CGuildMarkManager::TGuildSymbol::~TGuildSymbol
_TEXT	ENDS
; Function compile flags: /Ogtp
; File C:\Program Files\Microsoft Visual Studio\2022\Community\VC\Tools\MSVC\14.34.31933\include\xtree
;	COMDAT ??E?$_Tree_iterator@V?$_Tree_val@U?$_Tree_simple_types@U?$pair@$$CBKPAVCGuildMarkImage@@@std@@@std@@@std@@@std@@QAEAAV01@XZ
_TEXT	SEGMENT
??E?$_Tree_iterator@V?$_Tree_val@U?$_Tree_simple_types@U?$pair@$$CBKPAVCGuildMarkImage@@@std@@@std@@@std@@@std@@QAEAAV01@XZ PROC ; std::_Tree_iterator<std::_Tree_val<std::_Tree_simple_types<std::pair<unsigned long const ,CGuildMarkImage *> > > >::operator++, COMDAT
; _this$ = ecx

; 282  :     _Tree_iterator& operator++() noexcept {

  00000	56		 push	 esi
  00001	8b f1		 mov	 esi, ecx
  00003	57		 push	 edi

; 51   :         if (_Ptr->_Right->_Isnil) { // climb looking for right subtree

  00004	8b 16		 mov	 edx, DWORD PTR [esi]
  00006	8b 7a 08	 mov	 edi, DWORD PTR [edx+8]
  00009	80 7f 0d 00	 cmp	 BYTE PTR [edi+13], 0
  0000d	74 22		 je	 SHORT $LN8@operator

; 52   :             _Nodeptr _Pnode;
; 53   :             while (!(_Pnode = _Ptr->_Parent)->_Isnil && _Ptr == _Pnode->_Right) {

  0000f	8b 42 04	 mov	 eax, DWORD PTR [edx+4]
  00012	80 78 0d 00	 cmp	 BYTE PTR [eax+13], 0
  00016	75 12		 jne	 SHORT $LN23@operator
$LL6@operator:
  00018	3b 50 08	 cmp	 edx, DWORD PTR [eax+8]
  0001b	75 0d		 jne	 SHORT $LN23@operator

; 54   :                 _Ptr = _Pnode; // ==> parent while right subtree

  0001d	89 06		 mov	 DWORD PTR [esi], eax
  0001f	8b d0		 mov	 edx, eax
  00021	8b 40 04	 mov	 eax, DWORD PTR [eax+4]
  00024	80 78 0d 00	 cmp	 BYTE PTR [eax+13], 0
  00028	74 ee		 je	 SHORT $LL6@operator
$LN23@operator:

; 283  :         _Mybase::operator++();
; 284  :         return *this;

  0002a	89 06		 mov	 DWORD PTR [esi], eax

; 285  :     }

  0002c	8b c6		 mov	 eax, esi
  0002e	5f		 pop	 edi
  0002f	5e		 pop	 esi
  00030	c3		 ret	 0
$LN8@operator:

; 453  :         while (!_Pnode->_Left->_Isnil) {

  00031	8b 0f		 mov	 ecx, DWORD PTR [edi]
  00033	80 79 0d 00	 cmp	 BYTE PTR [ecx+13], 0
  00037	75 13		 jne	 SHORT $LN13@operator
  00039	0f 1f 80 00 00
	00 00		 npad	 7
$LL12@operator:
  00040	8b 01		 mov	 eax, DWORD PTR [ecx]

; 454  :             _Pnode = _Pnode->_Left;

  00042	8b f9		 mov	 edi, ecx
  00044	8b c8		 mov	 ecx, eax
  00046	80 78 0d 00	 cmp	 BYTE PTR [eax+13], 0
  0004a	74 f4		 je	 SHORT $LL12@operator
$LN13@operator:

; 283  :         _Mybase::operator++();
; 284  :         return *this;

  0004c	89 3e		 mov	 DWORD PTR [esi], edi

; 285  :     }

  0004e	8b c6		 mov	 eax, esi
  00050	5f		 pop	 edi
  00051	5e		 pop	 esi
  00052	c3		 ret	 0
??E?$_Tree_iterator@V?$_Tree_val@U?$_Tree_simple_types@U?$pair@$$CBKPAVCGuildMarkImage@@@std@@@std@@@std@@@std@@QAEAAV01@XZ ENDP ; std::_Tree_iterator<std::_Tree_val<std::_Tree_simple_types<std::pair<unsigned long const ,CGuildMarkImage *> > > >::operator++
_TEXT	ENDS
; Function compile flags: /Ogtp
; File C:\Program Files\Microsoft Visual Studio\2022\Community\VC\Tools\MSVC\14.34.31933\include\xtree
;	COMDAT ??C?$_Tree_iterator@V?$_Tree_val@U?$_Tree_simple_types@U?$pair@$$CBKPAVCGuildMarkImage@@@std@@@std@@@std@@@std@@QBEPAU?$pair@$$CBKPAVCGuildMarkImage@@@1@XZ
_TEXT	SEGMENT
??C?$_Tree_iterator@V?$_Tree_val@U?$_Tree_simple_types@U?$pair@$$CBKPAVCGuildMarkImage@@@std@@@std@@@std@@@std@@QBEPAU?$pair@$$CBKPAVCGuildMarkImage@@@1@XZ PROC ; std::_Tree_iterator<std::_Tree_val<std::_Tree_simple_types<std::pair<unsigned long const ,CGuildMarkImage *> > > >::operator->, COMDAT
; _this$ = ecx

; 186  :         return this->_Ptr->_Myval;

  00000	8b 01		 mov	 eax, DWORD PTR [ecx]
  00002	83 c0 10	 add	 eax, 16			; 00000010H

; 279  :         return pointer_traits<pointer>::pointer_to(**this);
; 280  :     }

  00005	c3		 ret	 0
??C?$_Tree_iterator@V?$_Tree_val@U?$_Tree_simple_types@U?$pair@$$CBKPAVCGuildMarkImage@@@std@@@std@@@std@@@std@@QBEPAU?$pair@$$CBKPAVCGuildMarkImage@@@1@XZ ENDP ; std::_Tree_iterator<std::_Tree_val<std::_Tree_simple_types<std::pair<unsigned long const ,CGuildMarkImage *> > > >::operator->
_TEXT	ENDS
; Function compile flags: /Ogtp
; File C:\Program Files\Microsoft Visual Studio\2022\Community\VC\Tools\MSVC\14.34.31933\include\xtree
;	COMDAT ??8?$_Tree_const_iterator@V?$_Tree_val@U?$_Tree_simple_types@U?$pair@$$CBKPAVCGuildMarkImage@@@std@@@std@@@std@@@std@@QBE_NABV01@@Z
_TEXT	SEGMENT
__Right$ = 8						; size = 4
??8?$_Tree_const_iterator@V?$_Tree_val@U?$_Tree_simple_types@U?$pair@$$CBKPAVCGuildMarkImage@@@std@@@std@@@std@@@std@@QBE_NABV01@@Z PROC ; std::_Tree_const_iterator<std::_Tree_val<std::_Tree_simple_types<std::pair<unsigned long const ,CGuildMarkImage *> > > >::operator==, COMDAT
; _this$ = ecx

; 228  :     _NODISCARD bool operator==(const _Tree_const_iterator& _Right) const noexcept {

  00000	55		 push	 ebp
  00001	8b ec		 mov	 ebp, esp

; 229  : #if _ITERATOR_DEBUG_LEVEL == 2
; 230  :         _STL_VERIFY(this->_Getcont() == _Right._Getcont(), "map/set iterators incompatible");
; 231  : #endif // _ITERATOR_DEBUG_LEVEL == 2
; 232  : 
; 233  :         return this->_Ptr == _Right._Ptr;

  00003	8b 45 08	 mov	 eax, DWORD PTR __Right$[ebp]
  00006	8b 09		 mov	 ecx, DWORD PTR [ecx]
  00008	3b 08		 cmp	 ecx, DWORD PTR [eax]
  0000a	0f 94 c0	 sete	 al

; 234  :     }

  0000d	5d		 pop	 ebp
  0000e	c2 04 00	 ret	 4
??8?$_Tree_const_iterator@V?$_Tree_val@U?$_Tree_simple_types@U?$pair@$$CBKPAVCGuildMarkImage@@@std@@@std@@@std@@@std@@QBE_NABV01@@Z ENDP ; std::_Tree_const_iterator<std::_Tree_val<std::_Tree_simple_types<std::pair<unsigned long const ,CGuildMarkImage *> > > >::operator==
_TEXT	ENDS
; Function compile flags: /Ogtp
; File C:\Program Files\Microsoft Visual Studio\2022\Community\VC\Tools\MSVC\14.34.31933\include\map
; File C:\Program Files\Microsoft Visual Studio\2022\Community\VC\Tools\MSVC\14.34.31933\include\xmemory
; File C:\Program Files\Microsoft Visual Studio\2022\Community\VC\Tools\MSVC\14.34.31933\include\map
; File C:\Program Files\Microsoft Visual Studio\2022\Community\VC\Tools\MSVC\14.34.31933\include\xtree
; File C:\Program Files\Microsoft Visual Studio\2022\Community\VC\Tools\MSVC\14.34.31933\include\xmemory
; File C:\Program Files\Microsoft Visual Studio\2022\Community\VC\Tools\MSVC\14.34.31933\include\xtree
; File C:\Program Files\Microsoft Visual Studio\2022\Community\VC\Tools\MSVC\14.34.31933\include\map
;	COMDAT ??0?$map@KUTGuildSymbol@CGuildMarkManager@@U?$less@K@std@@V?$allocator@U?$pair@$$CBKUTGuildSymbol@CGuildMarkManager@@@std@@@4@@std@@QAE@XZ
_TEXT	SEGMENT
_this$ = -4						; size = 4
??0?$map@KUTGuildSymbol@CGuildMarkManager@@U?$less@K@std@@V?$allocator@U?$pair@$$CBKUTGuildSymbol@CGuildMarkManager@@@std@@@4@@std@@QAE@XZ PROC ; std::map<unsigned long,CGuildMarkManager::TGuildSymbol,std::less<unsigned long>,std::allocator<std::pair<unsigned long const ,CGuildMarkManager::TGuildSymbol> > >::map<unsigned long,CGuildMarkManager::TGuildSymbol,std::less<unsigned long>,std::allocator<std::pair<unsigned long const ,CGuildMarkManager::TGuildSymbol> > >, COMDAT
; _this$ = ecx

; 105  :     map() : _Mybase(key_compare()) {}

  00000	55		 push	 ebp
  00001	8b ec		 mov	 ebp, esp
  00003	51		 push	 ecx
  00004	56		 push	 esi
  00005	8b f1		 mov	 esi, ecx
; File C:\Program Files\Microsoft Visual Studio\2022\Community\VC\Tools\MSVC\14.34.31933\include\xmemory

; 77   :         return ::operator new(_Bytes);

  00007	6a 24		 push	 36			; 00000024H
; File C:\Program Files\Microsoft Visual Studio\2022\Community\VC\Tools\MSVC\14.34.31933\include\map

; 105  :     map() : _Mybase(key_compare()) {}

  00009	89 75 fc	 mov	 DWORD PTR _this$[ebp], esi
; File C:\Program Files\Microsoft Visual Studio\2022\Community\VC\Tools\MSVC\14.34.31933\include\xtree

; 437  :     _Tree_val() noexcept : _Myhead(), _Mysize(0) {}

  0000c	c7 06 00 00 00
	00		 mov	 DWORD PTR [esi], 0
  00012	c7 46 04 00 00
	00 00		 mov	 DWORD PTR [esi+4], 0
; File C:\Program Files\Microsoft Visual Studio\2022\Community\VC\Tools\MSVC\14.34.31933\include\xmemory

; 77   :         return ::operator new(_Bytes);

  00019	e8 00 00 00 00	 call	 ??2@YAPAXI@Z		; operator new
  0001e	83 c4 04	 add	 esp, 4
; File C:\Program Files\Microsoft Visual Studio\2022\Community\VC\Tools\MSVC\14.34.31933\include\xtree

; 347  :         _Construct_in_place(_Pnode->_Left, _Pnode);

  00021	89 00		 mov	 DWORD PTR [eax], eax

; 348  :         _Construct_in_place(_Pnode->_Parent, _Pnode);

  00023	89 40 04	 mov	 DWORD PTR [eax+4], eax

; 349  :         _Construct_in_place(_Pnode->_Right, _Pnode);

  00026	89 40 08	 mov	 DWORD PTR [eax+8], eax

; 350  :         _Pnode->_Color = _Black;

  00029	66 c7 40 0c 01
	01		 mov	 WORD PTR [eax+12], 257	; 00000101H

; 1941 :         _Scary->_Myhead = _Node::_Buyheadnode(_Getal());

  0002f	89 06		 mov	 DWORD PTR [esi], eax
; File C:\Program Files\Microsoft Visual Studio\2022\Community\VC\Tools\MSVC\14.34.31933\include\map

; 105  :     map() : _Mybase(key_compare()) {}

  00031	8b c6		 mov	 eax, esi
  00033	5e		 pop	 esi
  00034	8b e5		 mov	 esp, ebp
  00036	5d		 pop	 ebp
  00037	c3		 ret	 0
??0?$map@KUTGuildSymbol@CGuildMarkManager@@U?$less@K@std@@V?$allocator@U?$pair@$$CBKUTGuildSymbol@CGuildMarkManager@@@std@@@4@@std@@QAE@XZ ENDP ; std::map<unsigned long,CGuildMarkManager::TGuildSymbol,std::less<unsigned long>,std::allocator<std::pair<unsigned long const ,CGuildMarkManager::TGuildSymbol> > >::map<unsigned long,CGuildMarkManager::TGuildSymbol,std::less<unsigned long>,std::allocator<std::pair<unsigned long const ,CGuildMarkManager::TGuildSymbol> > >
_TEXT	ENDS
; Function compile flags: /Ogtp
; File C:\Program Files\Microsoft Visual Studio\2022\Community\VC\Tools\MSVC\14.34.31933\include\xtree
; File C:\Program Files\Microsoft Visual Studio\2022\Community\VC\Tools\MSVC\14.34.31933\include\xmemory
; File C:\Program Files\Microsoft Visual Studio\2022\Community\VC\Tools\MSVC\14.34.31933\include\xtree
;	COMDAT ??1?$_Tree@V?$_Tmap_traits@KUTGuildSymbol@CGuildMarkManager@@U?$less@K@std@@V?$allocator@U?$pair@$$CBKUTGuildSymbol@CGuildMarkManager@@@std@@@4@$0A@@std@@@std@@QAE@XZ
_TEXT	SEGMENT
??1?$_Tree@V?$_Tmap_traits@KUTGuildSymbol@CGuildMarkManager@@U?$less@K@std@@V?$allocator@U?$pair@$$CBKUTGuildSymbol@CGuildMarkManager@@@std@@@4@$0A@@std@@@std@@QAE@XZ PROC ; std::_Tree<std::_Tmap_traits<unsigned long,CGuildMarkManager::TGuildSymbol,std::less<unsigned long>,std::allocator<std::pair<unsigned long const ,CGuildMarkManager::TGuildSymbol> >,0> >::~_Tree<std::_Tmap_traits<unsigned long,CGuildMarkManager::TGuildSymbol,std::less<unsigned long>,std::allocator<std::pair<unsigned long const ,CGuildMarkManager::TGuildSymbol> >,0> >, COMDAT
; _this$ = ecx

; 1079 :     ~_Tree() noexcept {

  00000	56		 push	 esi
  00001	8b f1		 mov	 esi, ecx

; 754  :         _Erase_tree(_Al, _Myhead->_Parent);

  00003	8b 06		 mov	 eax, DWORD PTR [esi]
  00005	ff 70 04	 push	 DWORD PTR [eax+4]
  00008	56		 push	 esi
  00009	e8 00 00 00 00	 call	 ??$_Erase_tree@V?$allocator@U?$_Tree_node@U?$pair@$$CBKUTGuildSymbol@CGuildMarkManager@@@std@@PAX@std@@@std@@@?$_Tree_val@U?$_Tree_simple_types@U?$pair@$$CBKUTGuildSymbol@CGuildMarkManager@@@std@@@std@@@std@@QAEXAAV?$allocator@U?$_Tree_node@U?$pair@$$CBKUTGuildSymbol@CGuildMarkManager@@@std@@PAX@std@@@1@PAU?$_Tree_node@U?$pair@$$CBKUTGuildSymbol@CGuildMarkManager@@@std@@PAX@1@@Z ; std::_Tree_val<std::_Tree_simple_types<std::pair<unsigned long const ,CGuildMarkManager::TGuildSymbol> > >::_Erase_tree<std::allocator<std::_Tree_node<std::pair<unsigned long const ,CGuildMarkManager::TGuildSymbol>,void *> > >
; File C:\Program Files\Microsoft Visual Studio\2022\Community\VC\Tools\MSVC\14.34.31933\include\xmemory

; 255  :         ::operator delete(_Ptr, _Bytes);

  0000e	6a 24		 push	 36			; 00000024H
  00010	ff 36		 push	 DWORD PTR [esi]
  00012	e8 00 00 00 00	 call	 ??3@YAXPAXI@Z		; operator delete
  00017	83 c4 08	 add	 esp, 8
  0001a	5e		 pop	 esi
; File C:\Program Files\Microsoft Visual Studio\2022\Community\VC\Tools\MSVC\14.34.31933\include\xtree

; 1086 :     }

  0001b	c3		 ret	 0
??1?$_Tree@V?$_Tmap_traits@KUTGuildSymbol@CGuildMarkManager@@U?$less@K@std@@V?$allocator@U?$pair@$$CBKUTGuildSymbol@CGuildMarkManager@@@std@@@4@$0A@@std@@@std@@QAE@XZ ENDP ; std::_Tree<std::_Tmap_traits<unsigned long,CGuildMarkManager::TGuildSymbol,std::less<unsigned long>,std::allocator<std::pair<unsigned long const ,CGuildMarkManager::TGuildSymbol> >,0> >::~_Tree<std::_Tmap_traits<unsigned long,CGuildMarkManager::TGuildSymbol,std::less<unsigned long>,std::allocator<std::pair<unsigned long const ,CGuildMarkManager::TGuildSymbol> >,0> >
_TEXT	ENDS
; Function compile flags: /Ogtp
; File C:\Program Files\Microsoft Visual Studio\2022\Community\VC\Tools\MSVC\14.34.31933\include\map
; File C:\Program Files\Microsoft Visual Studio\2022\Community\VC\Tools\MSVC\14.34.31933\include\xmemory
; File C:\Program Files\Microsoft Visual Studio\2022\Community\VC\Tools\MSVC\14.34.31933\include\map
; File C:\Program Files\Microsoft Visual Studio\2022\Community\VC\Tools\MSVC\14.34.31933\include\xtree
; File C:\Program Files\Microsoft Visual Studio\2022\Community\VC\Tools\MSVC\14.34.31933\include\xmemory
; File C:\Program Files\Microsoft Visual Studio\2022\Community\VC\Tools\MSVC\14.34.31933\include\xtree
; File C:\Program Files\Microsoft Visual Studio\2022\Community\VC\Tools\MSVC\14.34.31933\include\map
;	COMDAT ??0?$map@KPAVCGuildMarkImage@@U?$less@K@std@@V?$allocator@U?$pair@$$CBKPAVCGuildMarkImage@@@std@@@3@@std@@QAE@XZ
_TEXT	SEGMENT
_this$ = -4						; size = 4
??0?$map@KPAVCGuildMarkImage@@U?$less@K@std@@V?$allocator@U?$pair@$$CBKPAVCGuildMarkImage@@@std@@@3@@std@@QAE@XZ PROC ; std::map<unsigned long,CGuildMarkImage *,std::less<unsigned long>,std::allocator<std::pair<unsigned long const ,CGuildMarkImage *> > >::map<unsigned long,CGuildMarkImage *,std::less<unsigned long>,std::allocator<std::pair<unsigned long const ,CGuildMarkImage *> > >, COMDAT
; _this$ = ecx

; 105  :     map() : _Mybase(key_compare()) {}

  00000	55		 push	 ebp
  00001	8b ec		 mov	 ebp, esp
  00003	51		 push	 ecx
  00004	56		 push	 esi
  00005	8b f1		 mov	 esi, ecx
; File C:\Program Files\Microsoft Visual Studio\2022\Community\VC\Tools\MSVC\14.34.31933\include\xmemory

; 77   :         return ::operator new(_Bytes);

  00007	6a 18		 push	 24			; 00000018H
; File C:\Program Files\Microsoft Visual Studio\2022\Community\VC\Tools\MSVC\14.34.31933\include\map

; 105  :     map() : _Mybase(key_compare()) {}

  00009	89 75 fc	 mov	 DWORD PTR _this$[ebp], esi
; File C:\Program Files\Microsoft Visual Studio\2022\Community\VC\Tools\MSVC\14.34.31933\include\xtree

; 437  :     _Tree_val() noexcept : _Myhead(), _Mysize(0) {}

  0000c	c7 06 00 00 00
	00		 mov	 DWORD PTR [esi], 0
  00012	c7 46 04 00 00
	00 00		 mov	 DWORD PTR [esi+4], 0
; File C:\Program Files\Microsoft Visual Studio\2022\Community\VC\Tools\MSVC\14.34.31933\include\xmemory

; 77   :         return ::operator new(_Bytes);

  00019	e8 00 00 00 00	 call	 ??2@YAPAXI@Z		; operator new
  0001e	83 c4 04	 add	 esp, 4
; File C:\Program Files\Microsoft Visual Studio\2022\Community\VC\Tools\MSVC\14.34.31933\include\xtree

; 347  :         _Construct_in_place(_Pnode->_Left, _Pnode);

  00021	89 00		 mov	 DWORD PTR [eax], eax

; 348  :         _Construct_in_place(_Pnode->_Parent, _Pnode);

  00023	89 40 04	 mov	 DWORD PTR [eax+4], eax

; 349  :         _Construct_in_place(_Pnode->_Right, _Pnode);

  00026	89 40 08	 mov	 DWORD PTR [eax+8], eax

; 350  :         _Pnode->_Color = _Black;

  00029	66 c7 40 0c 01
	01		 mov	 WORD PTR [eax+12], 257	; 00000101H

; 1941 :         _Scary->_Myhead = _Node::_Buyheadnode(_Getal());

  0002f	89 06		 mov	 DWORD PTR [esi], eax
; File C:\Program Files\Microsoft Visual Studio\2022\Community\VC\Tools\MSVC\14.34.31933\include\map

; 105  :     map() : _Mybase(key_compare()) {}

  00031	8b c6		 mov	 eax, esi
  00033	5e		 pop	 esi
  00034	8b e5		 mov	 esp, ebp
  00036	5d		 pop	 ebp
  00037	c3		 ret	 0
??0?$map@KPAVCGuildMarkImage@@U?$less@K@std@@V?$allocator@U?$pair@$$CBKPAVCGuildMarkImage@@@std@@@3@@std@@QAE@XZ ENDP ; std::map<unsigned long,CGuildMarkImage *,std::less<unsigned long>,std::allocator<std::pair<unsigned long const ,CGuildMarkImage *> > >::map<unsigned long,CGuildMarkImage *,std::less<unsigned long>,std::allocator<std::pair<unsigned long const ,CGuildMarkImage *> > >
_TEXT	ENDS
; Function compile flags: /Ogtp
; File C:\Program Files\Microsoft Visual Studio\2022\Community\VC\Tools\MSVC\14.34.31933\include\xtree
; File C:\Program Files\Microsoft Visual Studio\2022\Community\VC\Tools\MSVC\14.34.31933\include\xstddef
; File C:\Program Files\Microsoft Visual Studio\2022\Community\VC\Tools\MSVC\14.34.31933\include\xtree
;	COMDAT ?find@?$_Tree@V?$_Tmap_traits@KPAVCGuildMarkImage@@U?$less@K@std@@V?$allocator@U?$pair@$$CBKPAVCGuildMarkImage@@@std@@@3@$0A@@std@@@std@@QAE?AV?$_Tree_iterator@V?$_Tree_val@U?$_Tree_simple_types@U?$pair@$$CBKPAVCGuildMarkImage@@@std@@@std@@@std@@@2@ABK@Z
_TEXT	SEGMENT
__Loc$1 = -12						; size = 12
___$ReturnUdt$ = 8					; size = 4
__Keyval$ = 12						; size = 4
?find@?$_Tree@V?$_Tmap_traits@KPAVCGuildMarkImage@@U?$less@K@std@@V?$allocator@U?$pair@$$CBKPAVCGuildMarkImage@@@std@@@3@$0A@@std@@@std@@QAE?AV?$_Tree_iterator@V?$_Tree_val@U?$_Tree_simple_types@U?$pair@$$CBKPAVCGuildMarkImage@@@std@@@std@@@std@@@2@ABK@Z PROC ; std::_Tree<std::_Tmap_traits<unsigned long,CGuildMarkImage *,std::less<unsigned long>,std::allocator<std::pair<unsigned long const ,CGuildMarkImage *> >,0> >::find, COMDAT
; _this$ = ecx

; 1376 :     _NODISCARD iterator find(const key_type& _Keyval) {

  00000	55		 push	 ebp
  00001	8b ec		 mov	 ebp, esp
  00003	83 ec 0c	 sub	 esp, 12			; 0000000cH
  00006	56		 push	 esi

; 1367 :         const _Tree_find_result<_Nodeptr> _Loc = _Find_lower_bound(_Keyval);

  00007	8b 75 0c	 mov	 esi, DWORD PTR __Keyval$[ebp]
  0000a	8d 45 f4	 lea	 eax, DWORD PTR __Loc$1[ebp]

; 1376 :     _NODISCARD iterator find(const key_type& _Keyval) {

  0000d	57		 push	 edi

; 1367 :         const _Tree_find_result<_Nodeptr> _Loc = _Find_lower_bound(_Keyval);

  0000e	56		 push	 esi
  0000f	50		 push	 eax

; 1376 :     _NODISCARD iterator find(const key_type& _Keyval) {

  00010	8b f9		 mov	 edi, ecx

; 1367 :         const _Tree_find_result<_Nodeptr> _Loc = _Find_lower_bound(_Keyval);

  00012	e8 00 00 00 00	 call	 ??$_Find_lower_bound@K@?$_Tree@V?$_Tmap_traits@KPAVCGuildMarkImage@@U?$less@K@std@@V?$allocator@U?$pair@$$CBKPAVCGuildMarkImage@@@std@@@3@$0A@@std@@@std@@IBE?AU?$_Tree_find_result@PAU?$_Tree_node@U?$pair@$$CBKPAVCGuildMarkImage@@@std@@PAX@std@@@1@ABK@Z ; std::_Tree<std::_Tmap_traits<unsigned long,CGuildMarkImage *,std::less<unsigned long>,std::allocator<std::pair<unsigned long const ,CGuildMarkImage *> >,0> >::_Find_lower_bound<unsigned long>

; 1605 :         return !_Bound->_Isnil && !_DEBUG_LT_PRED(_Getcomp(), _Keyval, _Traits::_Kfn(_Bound->_Myval));

  00017	8b 55 fc	 mov	 edx, DWORD PTR __Loc$1[ebp+8]
  0001a	80 7a 0d 00	 cmp	 BYTE PTR [edx+13], 0
  0001e	75 14		 jne	 SHORT $LN4@find
; File C:\Program Files\Microsoft Visual Studio\2022\Community\VC\Tools\MSVC\14.34.31933\include\xstddef

; 143  :         return _Left < _Right;

  00020	8b 06		 mov	 eax, DWORD PTR [esi]
  00022	3b 42 10	 cmp	 eax, DWORD PTR [edx+16]
; File C:\Program Files\Microsoft Visual Studio\2022\Community\VC\Tools\MSVC\14.34.31933\include\xtree

; 1605 :         return !_Bound->_Isnil && !_DEBUG_LT_PRED(_Getcomp(), _Keyval, _Traits::_Kfn(_Bound->_Myval));

  00025	72 0d		 jb	 SHORT $LN4@find

; 38   :     _Tree_unchecked_const_iterator(_Nodeptr _Pnode, const _Mytree* _Plist) noexcept : _Ptr(_Pnode) {

  00027	8b 45 08	 mov	 eax, DWORD PTR ___$ReturnUdt$[ebp]
  0002a	5f		 pop	 edi

; 1377 :         return iterator(_Find(_Keyval), _Get_scary());
; 1378 :     }

  0002b	5e		 pop	 esi

; 38   :     _Tree_unchecked_const_iterator(_Nodeptr _Pnode, const _Mytree* _Plist) noexcept : _Ptr(_Pnode) {

  0002c	89 10		 mov	 DWORD PTR [eax], edx

; 1377 :         return iterator(_Find(_Keyval), _Get_scary());
; 1378 :     }

  0002e	8b e5		 mov	 esp, ebp
  00030	5d		 pop	 ebp
  00031	c2 08 00	 ret	 8
$LN4@find:

; 38   :     _Tree_unchecked_const_iterator(_Nodeptr _Pnode, const _Mytree* _Plist) noexcept : _Ptr(_Pnode) {

  00034	8b 45 08	 mov	 eax, DWORD PTR ___$ReturnUdt$[ebp]

; 1372 :         return _Get_scary()->_Myhead;

  00037	8b 0f		 mov	 ecx, DWORD PTR [edi]
  00039	5f		 pop	 edi

; 1377 :         return iterator(_Find(_Keyval), _Get_scary());
; 1378 :     }

  0003a	5e		 pop	 esi

; 38   :     _Tree_unchecked_const_iterator(_Nodeptr _Pnode, const _Mytree* _Plist) noexcept : _Ptr(_Pnode) {

  0003b	89 08		 mov	 DWORD PTR [eax], ecx

; 1377 :         return iterator(_Find(_Keyval), _Get_scary());
; 1378 :     }

  0003d	8b e5		 mov	 esp, ebp
  0003f	5d		 pop	 ebp
  00040	c2 08 00	 ret	 8
?find@?$_Tree@V?$_Tmap_traits@KPAVCGuildMarkImage@@U?$less@K@std@@V?$allocator@U?$pair@$$CBKPAVCGuildMarkImage@@@std@@@3@$0A@@std@@@std@@QAE?AV?$_Tree_iterator@V?$_Tree_val@U?$_Tree_simple_types@U?$pair@$$CBKPAVCGuildMarkImage@@@std@@@std@@@std@@@2@ABK@Z ENDP ; std::_Tree<std::_Tmap_traits<unsigned long,CGuildMarkImage *,std::less<unsigned long>,std::allocator<std::pair<unsigned long const ,CGuildMarkImage *> >,0> >::find
_TEXT	ENDS
; Function compile flags: /Ogtp
; File C:\Program Files\Microsoft Visual Studio\2022\Community\VC\Tools\MSVC\14.34.31933\include\xtree
;	COMDAT ?clear@?$_Tree@V?$_Tmap_traits@KPAVCGuildMarkImage@@U?$less@K@std@@V?$allocator@U?$pair@$$CBKPAVCGuildMarkImage@@@std@@@3@$0A@@std@@@std@@QAEXXZ
_TEXT	SEGMENT
?clear@?$_Tree@V?$_Tmap_traits@KPAVCGuildMarkImage@@U?$less@K@std@@V?$allocator@U?$pair@$$CBKPAVCGuildMarkImage@@@std@@@3@$0A@@std@@@std@@QAEXXZ PROC ; std::_Tree<std::_Tmap_traits<unsigned long,CGuildMarkImage *,std::less<unsigned long>,std::allocator<std::pair<unsigned long const ,CGuildMarkImage *> >,0> >::clear, COMDAT
; _this$ = ecx

; 1353 :     void clear() noexcept {

  00000	56		 push	 esi
  00001	57		 push	 edi
  00002	8b f9		 mov	 edi, ecx

; 1354 :         const auto _Scary = _Get_scary();
; 1355 :         _Scary->_Orphan_ptr(nullptr);
; 1356 :         auto _Head = _Scary->_Myhead;

  00004	8b 37		 mov	 esi, DWORD PTR [edi]

; 1357 :         _Scary->_Erase_tree(_Getal(), _Head->_Parent);

  00006	ff 76 04	 push	 DWORD PTR [esi+4]
  00009	57		 push	 edi
  0000a	e8 00 00 00 00	 call	 ??$_Erase_tree@V?$allocator@U?$_Tree_node@U?$pair@$$CBKPAVCGuildMarkImage@@@std@@PAX@std@@@std@@@?$_Tree_val@U?$_Tree_simple_types@U?$pair@$$CBKPAVCGuildMarkImage@@@std@@@std@@@std@@QAEXAAV?$allocator@U?$_Tree_node@U?$pair@$$CBKPAVCGuildMarkImage@@@std@@PAX@std@@@1@PAU?$_Tree_node@U?$pair@$$CBKPAVCGuildMarkImage@@@std@@PAX@1@@Z ; std::_Tree_val<std::_Tree_simple_types<std::pair<unsigned long const ,CGuildMarkImage *> > >::_Erase_tree<std::allocator<std::_Tree_node<std::pair<unsigned long const ,CGuildMarkImage *>,void *> > >

; 1358 :         _Head->_Parent  = _Head;

  0000f	89 76 04	 mov	 DWORD PTR [esi+4], esi

; 1359 :         _Head->_Left    = _Head;

  00012	89 36		 mov	 DWORD PTR [esi], esi

; 1360 :         _Head->_Right   = _Head;

  00014	89 76 08	 mov	 DWORD PTR [esi+8], esi

; 1361 :         _Scary->_Mysize = 0;

  00017	c7 47 04 00 00
	00 00		 mov	 DWORD PTR [edi+4], 0
  0001e	5f		 pop	 edi
  0001f	5e		 pop	 esi

; 1362 :     }

  00020	c3		 ret	 0
?clear@?$_Tree@V?$_Tmap_traits@KPAVCGuildMarkImage@@U?$less@K@std@@V?$allocator@U?$pair@$$CBKPAVCGuildMarkImage@@@std@@@3@$0A@@std@@@std@@QAEXXZ ENDP ; std::_Tree<std::_Tmap_traits<unsigned long,CGuildMarkImage *,std::less<unsigned long>,std::allocator<std::pair<unsigned long const ,CGuildMarkImage *> >,0> >::clear
_TEXT	ENDS
; Function compile flags: /Ogtp
; File C:\Program Files\Microsoft Visual Studio\2022\Community\VC\Tools\MSVC\14.34.31933\include\xtree
;	COMDAT ?size@?$_Tree@V?$_Tmap_traits@KPAVCGuildMarkImage@@U?$less@K@std@@V?$allocator@U?$pair@$$CBKPAVCGuildMarkImage@@@std@@@3@$0A@@std@@@std@@QBEIXZ
_TEXT	SEGMENT
?size@?$_Tree@V?$_Tmap_traits@KPAVCGuildMarkImage@@U?$less@K@std@@V?$allocator@U?$pair@$$CBKPAVCGuildMarkImage@@@std@@@3@$0A@@std@@@std@@QBEIXZ PROC ; std::_Tree<std::_Tmap_traits<unsigned long,CGuildMarkImage *,std::less<unsigned long>,std::allocator<std::pair<unsigned long const ,CGuildMarkImage *> >,0> >::size, COMDAT
; _this$ = ecx

; 1193 :         return _Get_scary()->_Mysize;

  00000	8b 41 04	 mov	 eax, DWORD PTR [ecx+4]

; 1194 :     }

  00003	c3		 ret	 0
?size@?$_Tree@V?$_Tmap_traits@KPAVCGuildMarkImage@@U?$less@K@std@@V?$allocator@U?$pair@$$CBKPAVCGuildMarkImage@@@std@@@3@$0A@@std@@@std@@QBEIXZ ENDP ; std::_Tree<std::_Tmap_traits<unsigned long,CGuildMarkImage *,std::less<unsigned long>,std::allocator<std::pair<unsigned long const ,CGuildMarkImage *> >,0> >::size
_TEXT	ENDS
; Function compile flags: /Ogtp
; File C:\Program Files\Microsoft Visual Studio\2022\Community\VC\Tools\MSVC\14.34.31933\include\xtree
;	COMDAT ?end@?$_Tree@V?$_Tmap_traits@KPAVCGuildMarkImage@@U?$less@K@std@@V?$allocator@U?$pair@$$CBKPAVCGuildMarkImage@@@std@@@3@$0A@@std@@@std@@QAE?AV?$_Tree_iterator@V?$_Tree_val@U?$_Tree_simple_types@U?$pair@$$CBKPAVCGuildMarkImage@@@std@@@std@@@std@@@2@XZ
_TEXT	SEGMENT
___$ReturnUdt$ = 8					; size = 4
?end@?$_Tree@V?$_Tmap_traits@KPAVCGuildMarkImage@@U?$less@K@std@@V?$allocator@U?$pair@$$CBKPAVCGuildMarkImage@@@std@@@3@$0A@@std@@@std@@QAE?AV?$_Tree_iterator@V?$_Tree_val@U?$_Tree_simple_types@U?$pair@$$CBKPAVCGuildMarkImage@@@std@@@std@@@std@@@2@XZ PROC ; std::_Tree<std::_Tmap_traits<unsigned long,CGuildMarkImage *,std::less<unsigned long>,std::allocator<std::pair<unsigned long const ,CGuildMarkImage *> >,0> >::end, COMDAT
; _this$ = ecx

; 1134 :     _NODISCARD iterator end() noexcept {

  00000	55		 push	 ebp
  00001	8b ec		 mov	 ebp, esp

; 38   :     _Tree_unchecked_const_iterator(_Nodeptr _Pnode, const _Mytree* _Plist) noexcept : _Ptr(_Pnode) {

  00003	8b 45 08	 mov	 eax, DWORD PTR ___$ReturnUdt$[ebp]
  00006	8b 09		 mov	 ecx, DWORD PTR [ecx]
  00008	89 08		 mov	 DWORD PTR [eax], ecx

; 1135 :         const auto _Scary = _Get_scary();
; 1136 :         return iterator(_Scary->_Myhead, _Scary);
; 1137 :     }

  0000a	5d		 pop	 ebp
  0000b	c2 04 00	 ret	 4
?end@?$_Tree@V?$_Tmap_traits@KPAVCGuildMarkImage@@U?$less@K@std@@V?$allocator@U?$pair@$$CBKPAVCGuildMarkImage@@@std@@@3@$0A@@std@@@std@@QAE?AV?$_Tree_iterator@V?$_Tree_val@U?$_Tree_simple_types@U?$pair@$$CBKPAVCGuildMarkImage@@@std@@@std@@@std@@@2@XZ ENDP ; std::_Tree<std::_Tmap_traits<unsigned long,CGuildMarkImage *,std::less<unsigned long>,std::allocator<std::pair<unsigned long const ,CGuildMarkImage *> >,0> >::end
_TEXT	ENDS
; Function compile flags: /Ogtp
; File C:\Program Files\Microsoft Visual Studio\2022\Community\VC\Tools\MSVC\14.34.31933\include\xtree
;	COMDAT ?begin@?$_Tree@V?$_Tmap_traits@KPAVCGuildMarkImage@@U?$less@K@std@@V?$allocator@U?$pair@$$CBKPAVCGuildMarkImage@@@std@@@3@$0A@@std@@@std@@QAE?AV?$_Tree_iterator@V?$_Tree_val@U?$_Tree_simple_types@U?$pair@$$CBKPAVCGuildMarkImage@@@std@@@std@@@std@@@2@XZ
_TEXT	SEGMENT
___$ReturnUdt$ = 8					; size = 4
?begin@?$_Tree@V?$_Tmap_traits@KPAVCGuildMarkImage@@U?$less@K@std@@V?$allocator@U?$pair@$$CBKPAVCGuildMarkImage@@@std@@@3@$0A@@std@@@std@@QAE?AV?$_Tree_iterator@V?$_Tree_val@U?$_Tree_simple_types@U?$pair@$$CBKPAVCGuildMarkImage@@@std@@@std@@@std@@@2@XZ PROC ; std::_Tree<std::_Tmap_traits<unsigned long,CGuildMarkImage *,std::less<unsigned long>,std::allocator<std::pair<unsigned long const ,CGuildMarkImage *> >,0> >::begin, COMDAT
; _this$ = ecx

; 1124 :     _NODISCARD iterator begin() noexcept {

  00000	55		 push	 ebp
  00001	8b ec		 mov	 ebp, esp

; 1125 :         const auto _Scary = _Get_scary();
; 1126 :         return iterator(_Scary->_Myhead->_Left, _Scary);

  00003	8b 01		 mov	 eax, DWORD PTR [ecx]

; 38   :     _Tree_unchecked_const_iterator(_Nodeptr _Pnode, const _Mytree* _Plist) noexcept : _Ptr(_Pnode) {

  00005	8b 08		 mov	 ecx, DWORD PTR [eax]
  00007	8b 45 08	 mov	 eax, DWORD PTR ___$ReturnUdt$[ebp]
  0000a	89 08		 mov	 DWORD PTR [eax], ecx

; 1127 :     }

  0000c	5d		 pop	 ebp
  0000d	c2 04 00	 ret	 4
?begin@?$_Tree@V?$_Tmap_traits@KPAVCGuildMarkImage@@U?$less@K@std@@V?$allocator@U?$pair@$$CBKPAVCGuildMarkImage@@@std@@@3@$0A@@std@@@std@@QAE?AV?$_Tree_iterator@V?$_Tree_val@U?$_Tree_simple_types@U?$pair@$$CBKPAVCGuildMarkImage@@@std@@@std@@@std@@@2@XZ ENDP ; std::_Tree<std::_Tmap_traits<unsigned long,CGuildMarkImage *,std::less<unsigned long>,std::allocator<std::pair<unsigned long const ,CGuildMarkImage *> >,0> >::begin
_TEXT	ENDS
; Function compile flags: /Ogtp
; File C:\Program Files\Microsoft Visual Studio\2022\Community\VC\Tools\MSVC\14.34.31933\include\xtree
; File C:\Program Files\Microsoft Visual Studio\2022\Community\VC\Tools\MSVC\14.34.31933\include\xmemory
; File C:\Program Files\Microsoft Visual Studio\2022\Community\VC\Tools\MSVC\14.34.31933\include\xtree
;	COMDAT ??1?$_Tree@V?$_Tmap_traits@KPAVCGuildMarkImage@@U?$less@K@std@@V?$allocator@U?$pair@$$CBKPAVCGuildMarkImage@@@std@@@3@$0A@@std@@@std@@QAE@XZ
_TEXT	SEGMENT
??1?$_Tree@V?$_Tmap_traits@KPAVCGuildMarkImage@@U?$less@K@std@@V?$allocator@U?$pair@$$CBKPAVCGuildMarkImage@@@std@@@3@$0A@@std@@@std@@QAE@XZ PROC ; std::_Tree<std::_Tmap_traits<unsigned long,CGuildMarkImage *,std::less<unsigned long>,std::allocator<std::pair<unsigned long const ,CGuildMarkImage *> >,0> >::~_Tree<std::_Tmap_traits<unsigned long,CGuildMarkImage *,std::less<unsigned long>,std::allocator<std::pair<unsigned long const ,CGuildMarkImage *> >,0> >, COMDAT
; _this$ = ecx

; 1079 :     ~_Tree() noexcept {

  00000	56		 push	 esi
  00001	8b f1		 mov	 esi, ecx

; 754  :         _Erase_tree(_Al, _Myhead->_Parent);

  00003	8b 06		 mov	 eax, DWORD PTR [esi]
  00005	ff 70 04	 push	 DWORD PTR [eax+4]
  00008	56		 push	 esi
  00009	e8 00 00 00 00	 call	 ??$_Erase_tree@V?$allocator@U?$_Tree_node@U?$pair@$$CBKPAVCGuildMarkImage@@@std@@PAX@std@@@std@@@?$_Tree_val@U?$_Tree_simple_types@U?$pair@$$CBKPAVCGuildMarkImage@@@std@@@std@@@std@@QAEXAAV?$allocator@U?$_Tree_node@U?$pair@$$CBKPAVCGuildMarkImage@@@std@@PAX@std@@@1@PAU?$_Tree_node@U?$pair@$$CBKPAVCGuildMarkImage@@@std@@PAX@1@@Z ; std::_Tree_val<std::_Tree_simple_types<std::pair<unsigned long const ,CGuildMarkImage *> > >::_Erase_tree<std::allocator<std::_Tree_node<std::pair<unsigned long const ,CGuildMarkImage *>,void *> > >
; File C:\Program Files\Microsoft Visual Studio\2022\Community\VC\Tools\MSVC\14.34.31933\include\xmemory

; 255  :         ::operator delete(_Ptr, _Bytes);

  0000e	6a 18		 push	 24			; 00000018H
  00010	ff 36		 push	 DWORD PTR [esi]
  00012	e8 00 00 00 00	 call	 ??3@YAXPAXI@Z		; operator delete
  00017	83 c4 08	 add	 esp, 8
  0001a	5e		 pop	 esi
; File C:\Program Files\Microsoft Visual Studio\2022\Community\VC\Tools\MSVC\14.34.31933\include\xtree

; 1086 :     }

  0001b	c3		 ret	 0
??1?$_Tree@V?$_Tmap_traits@KPAVCGuildMarkImage@@U?$less@K@std@@V?$allocator@U?$pair@$$CBKPAVCGuildMarkImage@@@std@@@3@$0A@@std@@@std@@QAE@XZ ENDP ; std::_Tree<std::_Tmap_traits<unsigned long,CGuildMarkImage *,std::less<unsigned long>,std::allocator<std::pair<unsigned long const ,CGuildMarkImage *> >,0> >::~_Tree<std::_Tmap_traits<unsigned long,CGuildMarkImage *,std::less<unsigned long>,std::allocator<std::pair<unsigned long const ,CGuildMarkImage *> >,0> >
_TEXT	ENDS
; Function compile flags: /Ogtp
; File E:\Metin2_server\SolWayneSF v6\ClientVS22\source\eterBase\Singleton.h
;	COMDAT ??1?$singleton@VCGuildMarkManager@@@@UAE@XZ
_TEXT	SEGMENT
??1?$singleton@VCGuildMarkManager@@@@UAE@XZ PROC	; singleton<CGuildMarkManager>::~singleton<CGuildMarkManager>, COMDAT
; _this$ = ecx

; 60   : 	{ 

  00000	c7 01 00 00 00
	00		 mov	 DWORD PTR [ecx], OFFSET ??_7?$singleton@VCGuildMarkManager@@@@6B@

; 61   : 		assert(ms_singleton);
; 62   : 		ms_singleton = 0; 

  00006	c7 05 00 00 00
	00 00 00 00 00	 mov	 DWORD PTR ?ms_singleton@?$singleton@VCGuildMarkManager@@@@0PAVCGuildMarkManager@@A, 0 ; singleton<CGuildMarkManager>::ms_singleton

; 63   : 	}

  00010	c3		 ret	 0
??1?$singleton@VCGuildMarkManager@@@@UAE@XZ ENDP	; singleton<CGuildMarkManager>::~singleton<CGuildMarkManager>
_TEXT	ENDS
; Function compile flags: /Ogtp
; File E:\Metin2_server\SolWayneSF v6\ClientVS22\source\eterBase\Singleton.h
;	COMDAT ??0?$singleton@VCGuildMarkManager@@@@QAE@XZ
_TEXT	SEGMENT
??0?$singleton@VCGuildMarkManager@@@@QAE@XZ PROC	; singleton<CGuildMarkManager>::singleton<CGuildMarkManager>, COMDAT
; _this$ = ecx

; 53   : 	{ 

  00000	c7 01 00 00 00
	00		 mov	 DWORD PTR [ecx], OFFSET ??_7?$singleton@VCGuildMarkManager@@@@6B@

; 54   : 		assert(!ms_singleton);
; 55   : 		int offset = (int) (T*) 1 - (int) (singleton <T>*) (T*) 1; 
; 56   : 		ms_singleton = (T*) ((int) this + offset);
; 57   : 	} 

  00006	8b c1		 mov	 eax, ecx
  00008	89 0d 00 00 00
	00		 mov	 DWORD PTR ?ms_singleton@?$singleton@VCGuildMarkManager@@@@0PAVCGuildMarkManager@@A, ecx ; singleton<CGuildMarkManager>::ms_singleton
  0000e	c3		 ret	 0
??0?$singleton@VCGuildMarkManager@@@@QAE@XZ ENDP	; singleton<CGuildMarkManager>::singleton<CGuildMarkManager>
_TEXT	ENDS
; Function compile flags: /Ogtp
; File C:\Program Files\Microsoft Visual Studio\2022\Community\VC\Tools\MSVC\14.34.31933\include\vector
; File C:\Program Files\Microsoft Visual Studio\2022\Community\VC\Tools\MSVC\14.34.31933\include\xmemory
; File C:\Program Files\Microsoft Visual Studio\2022\Community\VC\Tools\MSVC\14.34.31933\include\vector
;	COMDAT ?resize@?$vector@EV?$allocator@E@std@@@std@@QAEXI@Z
_TEXT	SEGMENT
__Newsize$ = 8						; size = 4
$T2 = 11						; size = 1
?resize@?$vector@EV?$allocator@E@std@@@std@@QAEXI@Z PROC ; std::vector<unsigned char,std::allocator<unsigned char> >::resize, COMDAT
; _this$ = ecx

; 1653 :     _CONSTEXPR20 void resize(_CRT_GUARDOVERFLOW const size_type _Newsize) {

  00000	55		 push	 ebp
  00001	8b ec		 mov	 ebp, esp

; 1621 :         if (_Newsize < _Oldsize) { // trim

  00003	8b 55 08	 mov	 edx, DWORD PTR __Newsize$[ebp]

; 1653 :     _CONSTEXPR20 void resize(_CRT_GUARDOVERFLOW const size_type _Newsize) {

  00006	53		 push	 ebx
  00007	56		 push	 esi
  00008	57		 push	 edi
  00009	8b f9		 mov	 edi, ecx

; 1620 :         const auto _Oldsize = static_cast<size_type>(_Mylast - _Myfirst);

  0000b	8b 5f 04	 mov	 ebx, DWORD PTR [edi+4]
  0000e	8b cb		 mov	 ecx, ebx
  00010	8b 37		 mov	 esi, DWORD PTR [edi]
  00012	2b ce		 sub	 ecx, esi

; 1621 :         if (_Newsize < _Oldsize) { // trim

  00014	3b d1		 cmp	 edx, ecx
  00016	73 0d		 jae	 SHORT $LN4@resize

; 1622 :             const pointer _Newlast = _Myfirst + _Newsize;

  00018	8d 04 16	 lea	 eax, DWORD PTR [esi+edx]

; 1623 :             _Orphan_range(_Newlast, _Mylast);
; 1624 :             _Destroy_range(_Newlast, _Mylast, _Al);
; 1625 :             _ASAN_VECTOR_MODIFY(static_cast<difference_type>(_Newsize - _Oldsize));
; 1626 :             _Mylast = _Newlast;

  0001b	89 47 04	 mov	 DWORD PTR [edi+4], eax
  0001e	5f		 pop	 edi

; 1654 :         // trim or append value-initialized elements, provide strong guarantee
; 1655 :         _Resize(_Newsize, _Value_init_tag{});
; 1656 :     }

  0001f	5e		 pop	 esi
  00020	5b		 pop	 ebx
  00021	5d		 pop	 ebp
  00022	c2 04 00	 ret	 4
$LN4@resize:

; 1630 :         if (_Newsize > _Oldsize) { // append

  00025	76 2e		 jbe	 SHORT $LN5@resize

; 1631 :             const auto _Oldcapacity = static_cast<size_type>(_My_data._Myend - _Myfirst);

  00027	8b 47 08	 mov	 eax, DWORD PTR [edi+8]
  0002a	2b c6		 sub	 eax, esi

; 1632 :             if (_Newsize > _Oldcapacity) { // reallocate

  0002c	3b d0		 cmp	 edx, eax
  0002e	76 13		 jbe	 SHORT $LN6@resize

; 1633 :                 _Resize_reallocate(_Newsize, _Val);

  00030	8d 45 0b	 lea	 eax, DWORD PTR $T2[ebp]
  00033	8b cf		 mov	 ecx, edi
  00035	50		 push	 eax
  00036	52		 push	 edx
  00037	e8 00 00 00 00	 call	 ??$_Resize_reallocate@U_Value_init_tag@std@@@?$vector@EV?$allocator@E@std@@@std@@AAEXIABU_Value_init_tag@1@@Z ; std::vector<unsigned char,std::allocator<unsigned char> >::_Resize_reallocate<std::_Value_init_tag>
  0003c	5f		 pop	 edi

; 1654 :         // trim or append value-initialized elements, provide strong guarantee
; 1655 :         _Resize(_Newsize, _Value_init_tag{});
; 1656 :     }

  0003d	5e		 pop	 esi
  0003e	5b		 pop	 ebx
  0003f	5d		 pop	 ebp
  00040	c2 04 00	 ret	 4
$LN6@resize:

; 1643 :                 _Mylast = _Uninitialized_value_construct_n(_Oldlast, _Newsize - _Oldsize, _Al);

  00043	2b d1		 sub	 edx, ecx
; File C:\Program Files\Microsoft Visual Studio\2022\Community\VC\Tools\MSVC\14.34.31933\include\xmemory

; 1896 :             _Zero_range(_PFirst, _PFirst + _Count);

  00045	8d 34 1a	 lea	 esi, DWORD PTR [edx+ebx]
  00048	56		 push	 esi
  00049	53		 push	 ebx
  0004a	e8 00 00 00 00	 call	 ??$_Zero_range@PAE@std@@YAPAEQAE0@Z ; std::_Zero_range<unsigned char *>
  0004f	83 c4 08	 add	 esp, 8
; File C:\Program Files\Microsoft Visual Studio\2022\Community\VC\Tools\MSVC\14.34.31933\include\vector

; 1643 :                 _Mylast = _Uninitialized_value_construct_n(_Oldlast, _Newsize - _Oldsize, _Al);

  00052	89 77 04	 mov	 DWORD PTR [edi+4], esi
$LN5@resize:
  00055	5f		 pop	 edi

; 1654 :         // trim or append value-initialized elements, provide strong guarantee
; 1655 :         _Resize(_Newsize, _Value_init_tag{});
; 1656 :     }

  00056	5e		 pop	 esi
  00057	5b		 pop	 ebx
  00058	5d		 pop	 ebp
  00059	c2 04 00	 ret	 4
?resize@?$vector@EV?$allocator@E@std@@@std@@QAEXI@Z ENDP ; std::vector<unsigned char,std::allocator<unsigned char> >::resize
_TEXT	ENDS
; Function compile flags: /Ogtp
; File C:\Program Files\Microsoft Visual Studio\2022\Community\VC\Tools\MSVC\14.34.31933\include\vector
; File C:\Program Files\Microsoft Visual Studio\2022\Community\VC\Tools\MSVC\14.34.31933\include\xmemory
; File C:\Program Files\Microsoft Visual Studio\2022\Community\VC\Tools\MSVC\14.34.31933\include\vector
; File C:\Program Files\Microsoft Visual Studio\2022\Community\VC\Tools\MSVC\14.34.31933\include\xmemory
; File C:\Program Files\Microsoft Visual Studio\2022\Community\VC\Tools\MSVC\14.34.31933\include\vector
; File C:\Program Files\Microsoft Visual Studio\2022\Community\VC\Tools\MSVC\14.34.31933\include\xmemory
; File C:\Program Files\Microsoft Visual Studio\2022\Community\VC\Tools\MSVC\14.34.31933\include\vector
;	COMDAT ??1?$vector@EV?$allocator@E@std@@@std@@QAE@XZ
_TEXT	SEGMENT
??1?$vector@EV?$allocator@E@std@@@std@@QAE@XZ PROC	; std::vector<unsigned char,std::allocator<unsigned char> >::~vector<unsigned char,std::allocator<unsigned char> >, COMDAT
; _this$ = ecx

; 829  :     _CONSTEXPR20 ~vector() noexcept {

  00000	56		 push	 esi
  00001	8b f1		 mov	 esi, ecx

; 2107 :         if (_Myfirst) { // destroy and deallocate old array

  00003	8b 06		 mov	 eax, DWORD PTR [esi]
  00005	85 c0		 test	 eax, eax
  00007	74 3d		 je	 SHORT $LN4@vector

; 2108 :             _Destroy_range(_Myfirst, _Mylast, _Al);
; 2109 :             _ASAN_VECTOR_REMOVE;
; 2110 :             _Al.deallocate(_Myfirst, static_cast<size_type>(_Myend - _Myfirst));

  00009	8b 4e 08	 mov	 ecx, DWORD PTR [esi+8]
  0000c	2b c8		 sub	 ecx, eax
; File C:\Program Files\Microsoft Visual Studio\2022\Community\VC\Tools\MSVC\14.34.31933\include\xmemory

; 251  :         if (_Bytes >= _Big_allocation_threshold) { // boost the alignment of big allocations to help autovectorization

  0000e	81 f9 00 10 00
	00		 cmp	 ecx, 4096		; 00001000H
  00014	72 12		 jb	 SHORT $LN22@vector

; 150  :     const uintptr_t _Ptr_container   = _Ptr_user[-1];

  00016	8b 50 fc	 mov	 edx, DWORD PTR [eax-4]
  00019	83 c1 23	 add	 ecx, 35			; 00000023H

; 151  : 
; 152  :     // If the following asserts, it likely means that we are performing
; 153  :     // an aligned delete on memory coming from an unaligned allocation.
; 154  :     _STL_ASSERT(_Ptr_user[-2] == _Big_allocation_sentinel, "invalid argument");
; 155  : 
; 156  :     // Extra paranoia on aligned allocation/deallocation; ensure _Ptr_container is
; 157  :     // in range [_Min_back_shift, _Non_user_size]
; 158  : #ifdef _DEBUG
; 159  :     constexpr uintptr_t _Min_back_shift = 2 * sizeof(void*);
; 160  : #else // ^^^ _DEBUG ^^^ // vvv !_DEBUG vvv
; 161  :     constexpr uintptr_t _Min_back_shift = sizeof(void*);
; 162  : #endif // _DEBUG
; 163  :     const uintptr_t _Back_shift = reinterpret_cast<uintptr_t>(_Ptr) - _Ptr_container;

  0001c	2b c2		 sub	 eax, edx

; 164  :     _STL_VERIFY(_Back_shift >= _Min_back_shift && _Back_shift <= _Non_user_size, "invalid argument");

  0001e	83 c0 fc	 add	 eax, -4			; fffffffcH
  00021	83 f8 1f	 cmp	 eax, 31			; 0000001fH
  00024	77 22		 ja	 SHORT $LN19@vector

; 165  :     _Ptr = reinterpret_cast<void*>(_Ptr_container);

  00026	8b c2		 mov	 eax, edx
$LN22@vector:

; 255  :         ::operator delete(_Ptr, _Bytes);

  00028	51		 push	 ecx
  00029	50		 push	 eax
  0002a	e8 00 00 00 00	 call	 ??3@YAXPAXI@Z		; operator delete
; File C:\Program Files\Microsoft Visual Studio\2022\Community\VC\Tools\MSVC\14.34.31933\include\vector

; 2112 :             _Myfirst = nullptr;

  0002f	c7 06 00 00 00
	00		 mov	 DWORD PTR [esi], 0
; File C:\Program Files\Microsoft Visual Studio\2022\Community\VC\Tools\MSVC\14.34.31933\include\xmemory

; 255  :         ::operator delete(_Ptr, _Bytes);

  00035	83 c4 08	 add	 esp, 8
; File C:\Program Files\Microsoft Visual Studio\2022\Community\VC\Tools\MSVC\14.34.31933\include\vector

; 2113 :             _Mylast  = nullptr;

  00038	c7 46 04 00 00
	00 00		 mov	 DWORD PTR [esi+4], 0

; 2114 :             _Myend   = nullptr;

  0003f	c7 46 08 00 00
	00 00		 mov	 DWORD PTR [esi+8], 0
$LN4@vector:
  00046	5e		 pop	 esi

; 835  :     }

  00047	c3		 ret	 0
$LN19@vector:
; File C:\Program Files\Microsoft Visual Studio\2022\Community\VC\Tools\MSVC\14.34.31933\include\xmemory

; 164  :     _STL_VERIFY(_Back_shift >= _Min_back_shift && _Back_shift <= _Non_user_size, "invalid argument");

  00048	e8 00 00 00 00	 call	 __invalid_parameter_noinfo_noreturn
$LN27@vector:
  0004d	cc		 int	 3
??1?$vector@EV?$allocator@E@std@@@std@@QAE@XZ ENDP	; std::vector<unsigned char,std::allocator<unsigned char> >::~vector<unsigned char,std::allocator<unsigned char> >
_TEXT	ENDS
; Function compile flags: /Ogtp
; File C:\Program Files\Microsoft Visual Studio\2022\Community\VC\Tools\MSVC\14.34.31933\include\vector
;	COMDAT ??0?$vector@EV?$allocator@E@std@@@std@@QAE@XZ
_TEXT	SEGMENT
??0?$vector@EV?$allocator@E@std@@@std@@QAE@XZ PROC	; std::vector<unsigned char,std::allocator<unsigned char> >::vector<unsigned char,std::allocator<unsigned char> >, COMDAT
; _this$ = ecx

; 390  :     _CONSTEXPR20 _Vector_val() noexcept : _Myfirst(), _Mylast(), _Myend() {}

  00000	c7 01 00 00 00
	00		 mov	 DWORD PTR [ecx], 0

; 674  :         _Mypair._Myval2._Alloc_proxy(_GET_PROXY_ALLOCATOR(_Alty, _Getal()));
; 675  :     }

  00006	8b c1		 mov	 eax, ecx

; 390  :     _CONSTEXPR20 _Vector_val() noexcept : _Myfirst(), _Mylast(), _Myend() {}

  00008	c7 41 04 00 00
	00 00		 mov	 DWORD PTR [ecx+4], 0
  0000f	c7 41 08 00 00
	00 00		 mov	 DWORD PTR [ecx+8], 0

; 674  :         _Mypair._Myval2._Alloc_proxy(_GET_PROXY_ALLOCATOR(_Alty, _Getal()));
; 675  :     }

  00016	c3		 ret	 0
??0?$vector@EV?$allocator@E@std@@@std@@QAE@XZ ENDP	; std::vector<unsigned char,std::allocator<unsigned char> >::vector<unsigned char,std::allocator<unsigned char> >
_TEXT	ENDS
; Function compile flags: /Ogtp
; File C:\Program Files\Microsoft Visual Studio\2022\Community\VC\Tools\MSVC\14.34.31933\include\xtree
;	COMDAT ??0?$_Tree_iterator@V?$_Tree_val@U?$_Tree_simple_types@U?$pair@$$CBKPAVCGuildMarkImage@@@std@@@std@@@std@@@std@@QAE@PAU?$_Tree_node@U?$pair@$$CBKPAVCGuildMarkImage@@@std@@PAX@1@PBV?$_Tree_val@U?$_Tree_simple_types@U?$pair@$$CBKPAVCGuildMarkImage@@@std@@@std@@@1@@Z
_TEXT	SEGMENT
___param0$ = 8						; size = 4
___param1$dead$ = 12					; size = 4
??0?$_Tree_iterator@V?$_Tree_val@U?$_Tree_simple_types@U?$pair@$$CBKPAVCGuildMarkImage@@@std@@@std@@@std@@@std@@QAE@PAU?$_Tree_node@U?$pair@$$CBKPAVCGuildMarkImage@@@std@@PAX@1@PBV?$_Tree_val@U?$_Tree_simple_types@U?$pair@$$CBKPAVCGuildMarkImage@@@std@@@std@@@1@@Z PROC ; std::_Tree_iterator<std::_Tree_val<std::_Tree_simple_types<std::pair<unsigned long const ,CGuildMarkImage *> > > >::_Tree_iterator<std::_Tree_val<std::_Tree_simple_types<std::pair<unsigned long const ,CGuildMarkImage *> > > >, COMDAT
; _this$ = ecx
  00000	55		 push	 ebp
  00001	8b ec		 mov	 ebp, esp

; 38   :     _Tree_unchecked_const_iterator(_Nodeptr _Pnode, const _Mytree* _Plist) noexcept : _Ptr(_Pnode) {

  00003	8b 45 08	 mov	 eax, DWORD PTR ___param0$[ebp]
  00006	89 01		 mov	 DWORD PTR [ecx], eax
  00008	8b c1		 mov	 eax, ecx
  0000a	5d		 pop	 ebp
  0000b	c2 08 00	 ret	 8
??0?$_Tree_iterator@V?$_Tree_val@U?$_Tree_simple_types@U?$pair@$$CBKPAVCGuildMarkImage@@@std@@@std@@@std@@@std@@QAE@PAU?$_Tree_node@U?$pair@$$CBKPAVCGuildMarkImage@@@std@@PAX@1@PBV?$_Tree_val@U?$_Tree_simple_types@U?$pair@$$CBKPAVCGuildMarkImage@@@std@@@std@@@1@@Z ENDP ; std::_Tree_iterator<std::_Tree_val<std::_Tree_simple_types<std::pair<unsigned long const ,CGuildMarkImage *> > > >::_Tree_iterator<std::_Tree_val<std::_Tree_simple_types<std::pair<unsigned long const ,CGuildMarkImage *> > > >
_TEXT	ENDS
; Function compile flags: /Ogtp
; File E:\Metin2_server\SolWayneSF v6\ClientVS22\source\eterBase\Singleton.h
;	COMDAT ??_G?$singleton@VCGuildMarkManager@@@@UAEPAXI@Z
_TEXT	SEGMENT
___flags$ = 8						; size = 4
??_G?$singleton@VCGuildMarkManager@@@@UAEPAXI@Z PROC	; singleton<CGuildMarkManager>::`scalar deleting destructor', COMDAT
; _this$ = ecx
  00000	55		 push	 ebp
  00001	8b ec		 mov	 ebp, esp
  00003	f6 45 08 01	 test	 BYTE PTR ___flags$[ebp], 1

; 60   : 	{ 

  00007	56		 push	 esi
  00008	8b f1		 mov	 esi, ecx

; 61   : 		assert(ms_singleton);
; 62   : 		ms_singleton = 0; 

  0000a	c7 05 00 00 00
	00 00 00 00 00	 mov	 DWORD PTR ?ms_singleton@?$singleton@VCGuildMarkManager@@@@0PAVCGuildMarkManager@@A, 0 ; singleton<CGuildMarkManager>::ms_singleton
  00014	c7 06 00 00 00
	00		 mov	 DWORD PTR [esi], OFFSET ??_7?$singleton@VCGuildMarkManager@@@@6B@
  0001a	74 0b		 je	 SHORT $LN6@scalar
  0001c	6a 04		 push	 4
  0001e	56		 push	 esi
  0001f	e8 00 00 00 00	 call	 ??3@YAXPAXI@Z		; operator delete
  00024	83 c4 08	 add	 esp, 8
$LN6@scalar:
  00027	8b c6		 mov	 eax, esi
  00029	5e		 pop	 esi
  0002a	5d		 pop	 ebp
  0002b	c2 04 00	 ret	 4
??_G?$singleton@VCGuildMarkManager@@@@UAEPAXI@Z ENDP	; singleton<CGuildMarkManager>::`scalar deleting destructor'
_TEXT	ENDS
; Function compile flags: /Ogtp
; File C:\Program Files\Microsoft Visual Studio\2022\Community\VC\Tools\MSVC\14.34.31933\include\xtree
;	COMDAT ??0?$_Tree_const_iterator@V?$_Tree_val@U?$_Tree_simple_types@U?$pair@$$CBKPAVCGuildMarkImage@@@std@@@std@@@std@@@std@@QAE@PAU?$_Tree_node@U?$pair@$$CBKPAVCGuildMarkImage@@@std@@PAX@1@PBV?$_Tree_val@U?$_Tree_simple_types@U?$pair@$$CBKPAVCGuildMarkImage@@@std@@@std@@@1@@Z
_TEXT	SEGMENT
___param0$ = 8						; size = 4
___param1$dead$ = 12					; size = 4
??0?$_Tree_const_iterator@V?$_Tree_val@U?$_Tree_simple_types@U?$pair@$$CBKPAVCGuildMarkImage@@@std@@@std@@@std@@@std@@QAE@PAU?$_Tree_node@U?$pair@$$CBKPAVCGuildMarkImage@@@std@@PAX@1@PBV?$_Tree_val@U?$_Tree_simple_types@U?$pair@$$CBKPAVCGuildMarkImage@@@std@@@std@@@1@@Z PROC ; std::_Tree_const_iterator<std::_Tree_val<std::_Tree_simple_types<std::pair<unsigned long const ,CGuildMarkImage *> > > >::_Tree_const_iterator<std::_Tree_val<std::_Tree_simple_types<std::pair<unsigned long const ,CGuildMarkImage *> > > >, COMDAT
; _this$ = ecx
  00000	55		 push	 ebp
  00001	8b ec		 mov	 ebp, esp

; 38   :     _Tree_unchecked_const_iterator(_Nodeptr _Pnode, const _Mytree* _Plist) noexcept : _Ptr(_Pnode) {

  00003	8b 45 08	 mov	 eax, DWORD PTR ___param0$[ebp]
  00006	89 01		 mov	 DWORD PTR [ecx], eax
  00008	8b c1		 mov	 eax, ecx
  0000a	5d		 pop	 ebp
  0000b	c2 08 00	 ret	 8
??0?$_Tree_const_iterator@V?$_Tree_val@U?$_Tree_simple_types@U?$pair@$$CBKPAVCGuildMarkImage@@@std@@@std@@@std@@@std@@QAE@PAU?$_Tree_node@U?$pair@$$CBKPAVCGuildMarkImage@@@std@@PAX@1@PBV?$_Tree_val@U?$_Tree_simple_types@U?$pair@$$CBKPAVCGuildMarkImage@@@std@@@std@@@1@@Z ENDP ; std::_Tree_const_iterator<std::_Tree_val<std::_Tree_simple_types<std::pair<unsigned long const ,CGuildMarkImage *> > > >::_Tree_const_iterator<std::_Tree_val<std::_Tree_simple_types<std::pair<unsigned long const ,CGuildMarkImage *> > > >
_TEXT	ENDS
; Function compile flags: /Ogtp
; File C:\Program Files\Microsoft Visual Studio\2022\Community\VC\Tools\MSVC\14.34.31933\include\xutility
;	COMDAT ?pointer_to@?$pointer_traits@PAU?$pair@$$CBKPAVCGuildMarkImage@@@std@@@std@@SAPAU?$pair@$$CBKPAVCGuildMarkImage@@@2@AAU32@@Z
_TEXT	SEGMENT
?pointer_to@?$pointer_traits@PAU?$pair@$$CBKPAVCGuildMarkImage@@@std@@@std@@SAPAU?$pair@$$CBKPAVCGuildMarkImage@@@2@AAU32@@Z PROC ; std::pointer_traits<std::pair<unsigned long const ,CGuildMarkImage *> *>::pointer_to, COMDAT
; __Val$ = ecx

; 268  :         return _STD addressof(_Val);

  00000	8b c1		 mov	 eax, ecx

; 269  :     }

  00002	c3		 ret	 0
?pointer_to@?$pointer_traits@PAU?$pair@$$CBKPAVCGuildMarkImage@@@std@@@std@@SAPAU?$pair@$$CBKPAVCGuildMarkImage@@@2@AAU32@@Z ENDP ; std::pointer_traits<std::pair<unsigned long const ,CGuildMarkImage *> *>::pointer_to
_TEXT	ENDS
; Function compile flags: /Ogtp
; File C:\Program Files\Microsoft Visual Studio\2022\Community\VC\Tools\MSVC\14.34.31933\include\xtree
;	COMDAT ??D?$_Tree_iterator@V?$_Tree_val@U?$_Tree_simple_types@U?$pair@$$CBKPAVCGuildMarkImage@@@std@@@std@@@std@@@std@@QBEAAU?$pair@$$CBKPAVCGuildMarkImage@@@1@XZ
_TEXT	SEGMENT
??D?$_Tree_iterator@V?$_Tree_val@U?$_Tree_simple_types@U?$pair@$$CBKPAVCGuildMarkImage@@@std@@@std@@@std@@@std@@QBEAAU?$pair@$$CBKPAVCGuildMarkImage@@@1@XZ PROC ; std::_Tree_iterator<std::_Tree_val<std::_Tree_simple_types<std::pair<unsigned long const ,CGuildMarkImage *> > > >::operator*, COMDAT
; _this$ = ecx

; 186  :         return this->_Ptr->_Myval;

  00000	8b 01		 mov	 eax, DWORD PTR [ecx]
  00002	83 c0 10	 add	 eax, 16			; 00000010H

; 275  :         return const_cast<reference>(_Mybase::operator*());
; 276  :     }

  00005	c3		 ret	 0
??D?$_Tree_iterator@V?$_Tree_val@U?$_Tree_simple_types@U?$pair@$$CBKPAVCGuildMarkImage@@@std@@@std@@@std@@@std@@QBEAAU?$pair@$$CBKPAVCGuildMarkImage@@@1@XZ ENDP ; std::_Tree_iterator<std::_Tree_val<std::_Tree_simple_types<std::pair<unsigned long const ,CGuildMarkImage *> > > >::operator*
_TEXT	ENDS
; Function compile flags: /Ogtp
; File C:\Program Files\Microsoft Visual Studio\2022\Community\VC\Tools\MSVC\14.34.31933\include\xtree
;	COMDAT ??E?$_Tree_const_iterator@V?$_Tree_val@U?$_Tree_simple_types@U?$pair@$$CBKPAVCGuildMarkImage@@@std@@@std@@@std@@@std@@QAEAAV01@XZ
_TEXT	SEGMENT
??E?$_Tree_const_iterator@V?$_Tree_val@U?$_Tree_simple_types@U?$pair@$$CBKPAVCGuildMarkImage@@@std@@@std@@@std@@@std@@QAEAAV01@XZ PROC ; std::_Tree_const_iterator<std::_Tree_val<std::_Tree_simple_types<std::pair<unsigned long const ,CGuildMarkImage *> > > >::operator++, COMDAT
; _this$ = ecx

; 193  :     _Tree_const_iterator& operator++() noexcept {

  00000	56		 push	 esi
  00001	8b f1		 mov	 esi, ecx
  00003	57		 push	 edi

; 51   :         if (_Ptr->_Right->_Isnil) { // climb looking for right subtree

  00004	8b 16		 mov	 edx, DWORD PTR [esi]
  00006	8b 7a 08	 mov	 edi, DWORD PTR [edx+8]
  00009	80 7f 0d 00	 cmp	 BYTE PTR [edi+13], 0
  0000d	74 22		 je	 SHORT $LN6@operator

; 52   :             _Nodeptr _Pnode;
; 53   :             while (!(_Pnode = _Ptr->_Parent)->_Isnil && _Ptr == _Pnode->_Right) {

  0000f	8b 42 04	 mov	 eax, DWORD PTR [edx+4]
  00012	80 78 0d 00	 cmp	 BYTE PTR [eax+13], 0
  00016	75 12		 jne	 SHORT $LN21@operator
$LL4@operator:
  00018	3b 50 08	 cmp	 edx, DWORD PTR [eax+8]
  0001b	75 0d		 jne	 SHORT $LN21@operator

; 54   :                 _Ptr = _Pnode; // ==> parent while right subtree

  0001d	89 06		 mov	 DWORD PTR [esi], eax
  0001f	8b d0		 mov	 edx, eax
  00021	8b 40 04	 mov	 eax, DWORD PTR [eax+4]
  00024	80 78 0d 00	 cmp	 BYTE PTR [eax+13], 0
  00028	74 ee		 je	 SHORT $LL4@operator
$LN21@operator:

; 194  : #if _ITERATOR_DEBUG_LEVEL == 2
; 195  :         _STL_VERIFY(this->_Getcont(), "cannot increment value-initialized map/set iterator");
; 196  :         _STL_VERIFY(!this->_Ptr->_Isnil, "cannot increment end map/set iterator");
; 197  : #endif // _ITERATOR_DEBUG_LEVEL == 2
; 198  : 
; 199  :         _Mybase::operator++();
; 200  :         return *this;

  0002a	89 06		 mov	 DWORD PTR [esi], eax

; 201  :     }

  0002c	8b c6		 mov	 eax, esi
  0002e	5f		 pop	 edi
  0002f	5e		 pop	 esi
  00030	c3		 ret	 0
$LN6@operator:

; 453  :         while (!_Pnode->_Left->_Isnil) {

  00031	8b 0f		 mov	 ecx, DWORD PTR [edi]
  00033	80 79 0d 00	 cmp	 BYTE PTR [ecx+13], 0
  00037	75 13		 jne	 SHORT $LN11@operator
  00039	0f 1f 80 00 00
	00 00		 npad	 7
$LL10@operator:
  00040	8b 01		 mov	 eax, DWORD PTR [ecx]

; 454  :             _Pnode = _Pnode->_Left;

  00042	8b f9		 mov	 edi, ecx
  00044	8b c8		 mov	 ecx, eax
  00046	80 78 0d 00	 cmp	 BYTE PTR [eax+13], 0
  0004a	74 f4		 je	 SHORT $LL10@operator
$LN11@operator:

; 194  : #if _ITERATOR_DEBUG_LEVEL == 2
; 195  :         _STL_VERIFY(this->_Getcont(), "cannot increment value-initialized map/set iterator");
; 196  :         _STL_VERIFY(!this->_Ptr->_Isnil, "cannot increment end map/set iterator");
; 197  : #endif // _ITERATOR_DEBUG_LEVEL == 2
; 198  : 
; 199  :         _Mybase::operator++();
; 200  :         return *this;

  0004c	89 3e		 mov	 DWORD PTR [esi], edi

; 201  :     }

  0004e	8b c6		 mov	 eax, esi
  00050	5f		 pop	 edi
  00051	5e		 pop	 esi
  00052	c3		 ret	 0
??E?$_Tree_const_iterator@V?$_Tree_val@U?$_Tree_simple_types@U?$pair@$$CBKPAVCGuildMarkImage@@@std@@@std@@@std@@@std@@QAEAAV01@XZ ENDP ; std::_Tree_const_iterator<std::_Tree_val<std::_Tree_simple_types<std::pair<unsigned long const ,CGuildMarkImage *> > > >::operator++
_TEXT	ENDS
; Function compile flags: /Ogtp
; File C:\Program Files\Microsoft Visual Studio\2022\Community\VC\Tools\MSVC\14.34.31933\include\xtree
;	COMDAT ??0?$_Tree_unchecked_const_iterator@V?$_Tree_val@U?$_Tree_simple_types@U?$pair@$$CBKPAVCGuildMarkImage@@@std@@@std@@@std@@U_Iterator_base0@2@@std@@QAE@PAU?$_Tree_node@U?$pair@$$CBKPAVCGuildMarkImage@@@std@@PAX@1@PBV?$_Tree_val@U?$_Tree_simple_types@U?$pair@$$CBKPAVCGuildMarkImage@@@std@@@std@@@1@@Z
_TEXT	SEGMENT
__Pnode$ = 8						; size = 4
__Plist$dead$ = 12					; size = 4
??0?$_Tree_unchecked_const_iterator@V?$_Tree_val@U?$_Tree_simple_types@U?$pair@$$CBKPAVCGuildMarkImage@@@std@@@std@@@std@@U_Iterator_base0@2@@std@@QAE@PAU?$_Tree_node@U?$pair@$$CBKPAVCGuildMarkImage@@@std@@PAX@1@PBV?$_Tree_val@U?$_Tree_simple_types@U?$pair@$$CBKPAVCGuildMarkImage@@@std@@@std@@@1@@Z PROC ; std::_Tree_unchecked_const_iterator<std::_Tree_val<std::_Tree_simple_types<std::pair<unsigned long const ,CGuildMarkImage *> > >,std::_Iterator_base0>::_Tree_unchecked_const_iterator<std::_Tree_val<std::_Tree_simple_types<std::pair<unsigned long const ,CGuildMarkImage *> > >,std::_Iterator_base0>, COMDAT
; _this$ = ecx

; 38   :     _Tree_unchecked_const_iterator(_Nodeptr _Pnode, const _Mytree* _Plist) noexcept : _Ptr(_Pnode) {

  00000	55		 push	 ebp
  00001	8b ec		 mov	 ebp, esp
  00003	8b 45 08	 mov	 eax, DWORD PTR __Pnode$[ebp]
  00006	89 01		 mov	 DWORD PTR [ecx], eax

; 39   :         this->_Adopt(_Plist);
; 40   :     }

  00008	8b c1		 mov	 eax, ecx
  0000a	5d		 pop	 ebp
  0000b	c2 08 00	 ret	 8
??0?$_Tree_unchecked_const_iterator@V?$_Tree_val@U?$_Tree_simple_types@U?$pair@$$CBKPAVCGuildMarkImage@@@std@@@std@@@std@@U_Iterator_base0@2@@std@@QAE@PAU?$_Tree_node@U?$pair@$$CBKPAVCGuildMarkImage@@@std@@PAX@1@PBV?$_Tree_val@U?$_Tree_simple_types@U?$pair@$$CBKPAVCGuildMarkImage@@@std@@@std@@@1@@Z ENDP ; std::_Tree_unchecked_const_iterator<std::_Tree_val<std::_Tree_simple_types<std::pair<unsigned long const ,CGuildMarkImage *> > >,std::_Iterator_base0>::_Tree_unchecked_const_iterator<std::_Tree_val<std::_Tree_simple_types<std::pair<unsigned long const ,CGuildMarkImage *> > >,std::_Iterator_base0>
_TEXT	ENDS
; Function compile flags: /Ogtp
; File C:\Program Files\Microsoft Visual Studio\2022\Community\VC\Tools\MSVC\14.34.31933\include\xtree
;	COMDAT ?_Get_scary@?$_Tree@V?$_Tmap_traits@KUTGuildSymbol@CGuildMarkManager@@U?$less@K@std@@V?$allocator@U?$pair@$$CBKUTGuildSymbol@CGuildMarkManager@@@std@@@4@$0A@@std@@@std@@IAEPAV?$_Tree_val@U?$_Tree_simple_types@U?$pair@$$CBKUTGuildSymbol@CGuildMarkManager@@@std@@@std@@@2@XZ
_TEXT	SEGMENT
?_Get_scary@?$_Tree@V?$_Tmap_traits@KUTGuildSymbol@CGuildMarkManager@@U?$less@K@std@@V?$allocator@U?$pair@$$CBKUTGuildSymbol@CGuildMarkManager@@@std@@@4@$0A@@std@@@std@@IAEPAV?$_Tree_val@U?$_Tree_simple_types@U?$pair@$$CBKUTGuildSymbol@CGuildMarkManager@@@std@@@std@@@2@XZ PROC ; std::_Tree<std::_Tmap_traits<unsigned long,CGuildMarkManager::TGuildSymbol,std::less<unsigned long>,std::allocator<std::pair<unsigned long const ,CGuildMarkManager::TGuildSymbol> >,0> >::_Get_scary, COMDAT
; _this$ = ecx

; 1967 :         return _STD addressof(_Mypair._Myval2._Myval2);

  00000	8b c1		 mov	 eax, ecx

; 1968 :     }

  00002	c3		 ret	 0
?_Get_scary@?$_Tree@V?$_Tmap_traits@KUTGuildSymbol@CGuildMarkManager@@U?$less@K@std@@V?$allocator@U?$pair@$$CBKUTGuildSymbol@CGuildMarkManager@@@std@@@4@$0A@@std@@@std@@IAEPAV?$_Tree_val@U?$_Tree_simple_types@U?$pair@$$CBKUTGuildSymbol@CGuildMarkManager@@@std@@@std@@@2@XZ ENDP ; std::_Tree<std::_Tmap_traits<unsigned long,CGuildMarkManager::TGuildSymbol,std::less<unsigned long>,std::allocator<std::pair<unsigned long const ,CGuildMarkManager::TGuildSymbol> >,0> >::_Get_scary
_TEXT	ENDS
; Function compile flags: /Ogtp
; File C:\Program Files\Microsoft Visual Studio\2022\Community\VC\Tools\MSVC\14.34.31933\include\xtree
;	COMDAT ?_Getal@?$_Tree@V?$_Tmap_traits@KUTGuildSymbol@CGuildMarkManager@@U?$less@K@std@@V?$allocator@U?$pair@$$CBKUTGuildSymbol@CGuildMarkManager@@@std@@@4@$0A@@std@@@std@@IAEAAV?$allocator@U?$_Tree_node@U?$pair@$$CBKUTGuildSymbol@CGuildMarkManager@@@std@@PAX@std@@@2@XZ
_TEXT	SEGMENT
?_Getal@?$_Tree@V?$_Tmap_traits@KUTGuildSymbol@CGuildMarkManager@@U?$less@K@std@@V?$allocator@U?$pair@$$CBKUTGuildSymbol@CGuildMarkManager@@@std@@@4@$0A@@std@@@std@@IAEAAV?$allocator@U?$_Tree_node@U?$pair@$$CBKUTGuildSymbol@CGuildMarkManager@@@std@@PAX@std@@@2@XZ PROC ; std::_Tree<std::_Tmap_traits<unsigned long,CGuildMarkManager::TGuildSymbol,std::less<unsigned long>,std::allocator<std::pair<unsigned long const ,CGuildMarkManager::TGuildSymbol> >,0> >::_Getal, COMDAT
; _this$ = ecx

; 1959 :         return _Mypair._Myval2._Get_first();

  00000	8b c1		 mov	 eax, ecx

; 1960 :     }

  00002	c3		 ret	 0
?_Getal@?$_Tree@V?$_Tmap_traits@KUTGuildSymbol@CGuildMarkManager@@U?$less@K@std@@V?$allocator@U?$pair@$$CBKUTGuildSymbol@CGuildMarkManager@@@std@@@4@$0A@@std@@@std@@IAEAAV?$allocator@U?$_Tree_node@U?$pair@$$CBKUTGuildSymbol@CGuildMarkManager@@@std@@PAX@std@@@2@XZ ENDP ; std::_Tree<std::_Tmap_traits<unsigned long,CGuildMarkManager::TGuildSymbol,std::less<unsigned long>,std::allocator<std::pair<unsigned long const ,CGuildMarkManager::TGuildSymbol> >,0> >::_Getal
_TEXT	ENDS
; Function compile flags: /Ogtp
; File C:\Program Files\Microsoft Visual Studio\2022\Community\VC\Tools\MSVC\14.34.31933\include\xtree
; File C:\Program Files\Microsoft Visual Studio\2022\Community\VC\Tools\MSVC\14.34.31933\include\xmemory
; File C:\Program Files\Microsoft Visual Studio\2022\Community\VC\Tools\MSVC\14.34.31933\include\xtree
; File C:\Program Files\Microsoft Visual Studio\2022\Community\VC\Tools\MSVC\14.34.31933\include\xmemory
; File C:\Program Files\Microsoft Visual Studio\2022\Community\VC\Tools\MSVC\14.34.31933\include\xtree
;	COMDAT ??0?$_Tree@V?$_Tmap_traits@KUTGuildSymbol@CGuildMarkManager@@U?$less@K@std@@V?$allocator@U?$pair@$$CBKUTGuildSymbol@CGuildMarkManager@@@std@@@4@$0A@@std@@@std@@QAE@ABU?$less@K@1@@Z
_TEXT	SEGMENT
__Parg$dead$ = 8					; size = 4
??0?$_Tree@V?$_Tmap_traits@KUTGuildSymbol@CGuildMarkManager@@U?$less@K@std@@V?$allocator@U?$pair@$$CBKUTGuildSymbol@CGuildMarkManager@@@std@@@4@$0A@@std@@@std@@QAE@ABU?$less@K@1@@Z PROC ; std::_Tree<std::_Tmap_traits<unsigned long,CGuildMarkManager::TGuildSymbol,std::less<unsigned long>,std::allocator<std::pair<unsigned long const ,CGuildMarkManager::TGuildSymbol> >,0> >::_Tree<std::_Tmap_traits<unsigned long,CGuildMarkManager::TGuildSymbol,std::less<unsigned long>,std::allocator<std::pair<unsigned long const ,CGuildMarkManager::TGuildSymbol> >,0> >, COMDAT
; _this$ = ecx

; 882  :     _Tree(const key_compare& _Parg) : _Mypair(_One_then_variadic_args_t{}, _Parg, _Zero_then_variadic_args_t{}) {

  00000	56		 push	 esi
  00001	8b f1		 mov	 esi, ecx
; File C:\Program Files\Microsoft Visual Studio\2022\Community\VC\Tools\MSVC\14.34.31933\include\xmemory

; 77   :         return ::operator new(_Bytes);

  00003	6a 24		 push	 36			; 00000024H
; File C:\Program Files\Microsoft Visual Studio\2022\Community\VC\Tools\MSVC\14.34.31933\include\xtree

; 437  :     _Tree_val() noexcept : _Myhead(), _Mysize(0) {}

  00005	c7 06 00 00 00
	00		 mov	 DWORD PTR [esi], 0
  0000b	c7 46 04 00 00
	00 00		 mov	 DWORD PTR [esi+4], 0
; File C:\Program Files\Microsoft Visual Studio\2022\Community\VC\Tools\MSVC\14.34.31933\include\xmemory

; 77   :         return ::operator new(_Bytes);

  00012	e8 00 00 00 00	 call	 ??2@YAPAXI@Z		; operator new
  00017	83 c4 04	 add	 esp, 4
; File C:\Program Files\Microsoft Visual Studio\2022\Community\VC\Tools\MSVC\14.34.31933\include\xtree

; 347  :         _Construct_in_place(_Pnode->_Left, _Pnode);

  0001a	89 00		 mov	 DWORD PTR [eax], eax

; 348  :         _Construct_in_place(_Pnode->_Parent, _Pnode);

  0001c	89 40 04	 mov	 DWORD PTR [eax+4], eax

; 349  :         _Construct_in_place(_Pnode->_Right, _Pnode);

  0001f	89 40 08	 mov	 DWORD PTR [eax+8], eax

; 350  :         _Pnode->_Color = _Black;

  00022	66 c7 40 0c 01
	01		 mov	 WORD PTR [eax+12], 257	; 00000101H

; 1941 :         _Scary->_Myhead = _Node::_Buyheadnode(_Getal());

  00028	89 06		 mov	 DWORD PTR [esi], eax

; 883  :         _Alloc_sentinel_and_proxy();
; 884  :     }

  0002a	8b c6		 mov	 eax, esi
  0002c	5e		 pop	 esi
  0002d	c2 04 00	 ret	 4
??0?$_Tree@V?$_Tmap_traits@KUTGuildSymbol@CGuildMarkManager@@U?$less@K@std@@V?$allocator@U?$pair@$$CBKUTGuildSymbol@CGuildMarkManager@@@std@@@4@$0A@@std@@@std@@QAE@ABU?$less@K@1@@Z ENDP ; std::_Tree<std::_Tmap_traits<unsigned long,CGuildMarkManager::TGuildSymbol,std::less<unsigned long>,std::allocator<std::pair<unsigned long const ,CGuildMarkManager::TGuildSymbol> >,0> >::_Tree<std::_Tmap_traits<unsigned long,CGuildMarkManager::TGuildSymbol,std::less<unsigned long>,std::allocator<std::pair<unsigned long const ,CGuildMarkManager::TGuildSymbol> >,0> >
_TEXT	ENDS
; Function compile flags: /Ogtp
; File C:\Program Files\Microsoft Visual Studio\2022\Community\VC\Tools\MSVC\14.34.31933\include\xtree
;	COMDAT ?_Orphan_ptr@?$_Tree_val@U?$_Tree_simple_types@U?$pair@$$CBKPAVCGuildMarkImage@@@std@@@std@@@std@@QAEXQAU?$_Tree_node@U?$pair@$$CBKPAVCGuildMarkImage@@@std@@PAX@2@@Z
_TEXT	SEGMENT
__Ptr$dead$ = 8						; size = 4
?_Orphan_ptr@?$_Tree_val@U?$_Tree_simple_types@U?$pair@$$CBKPAVCGuildMarkImage@@@std@@@std@@@std@@QAEXQAU?$_Tree_node@U?$pair@$$CBKPAVCGuildMarkImage@@@std@@PAX@2@@Z PROC ; std::_Tree_val<std::_Tree_simple_types<std::pair<unsigned long const ,CGuildMarkImage *> > >::_Orphan_ptr, COMDAT
; _this$dead$ = ecx

; 716  : #if _ITERATOR_DEBUG_LEVEL == 2
; 717  :         _Lockit _Lock(_LOCK_DEBUG);
; 718  :         _Iterator_base12** _Pnext = &this->_Myproxy->_Myfirstiter;
; 719  :         while (*_Pnext) {
; 720  :             const auto _Pnextptr = static_cast<const_iterator&>(**_Pnext)._Ptr;
; 721  :             if (_Pnextptr == _Myhead || (_Ptr != nullptr && _Pnextptr != _Ptr)) {
; 722  :                 _Pnext = &(*_Pnext)->_Mynextiter;
; 723  :             } else { // orphan the iterator
; 724  :                 (*_Pnext)->_Myproxy = nullptr;
; 725  :                 *_Pnext             = (*_Pnext)->_Mynextiter;
; 726  :             }
; 727  :         }
; 728  : #else // ^^^ _ITERATOR_DEBUG_LEVEL == 2 ^^^ // vvv _ITERATOR_DEBUG_LEVEL != 2 vvv
; 729  :         (void) _Ptr;
; 730  : #endif // _ITERATOR_DEBUG_LEVEL == 2
; 731  :     }

  00000	c2 04 00	 ret	 4
?_Orphan_ptr@?$_Tree_val@U?$_Tree_simple_types@U?$pair@$$CBKPAVCGuildMarkImage@@@std@@@std@@@std@@QAEXQAU?$_Tree_node@U?$pair@$$CBKPAVCGuildMarkImage@@@std@@PAX@2@@Z ENDP ; std::_Tree_val<std::_Tree_simple_types<std::pair<unsigned long const ,CGuildMarkImage *> > >::_Orphan_ptr
_TEXT	ENDS
; Function compile flags: /Ogtp
; File C:\Program Files\Microsoft Visual Studio\2022\Community\VC\Tools\MSVC\14.34.31933\include\xtree
;	COMDAT ?_Get_scary@?$_Tree@V?$_Tmap_traits@KPAVCGuildMarkImage@@U?$less@K@std@@V?$allocator@U?$pair@$$CBKPAVCGuildMarkImage@@@std@@@3@$0A@@std@@@std@@IBEPBV?$_Tree_val@U?$_Tree_simple_types@U?$pair@$$CBKPAVCGuildMarkImage@@@std@@@std@@@2@XZ
_TEXT	SEGMENT
?_Get_scary@?$_Tree@V?$_Tmap_traits@KPAVCGuildMarkImage@@U?$less@K@std@@V?$allocator@U?$pair@$$CBKPAVCGuildMarkImage@@@std@@@3@$0A@@std@@@std@@IBEPBV?$_Tree_val@U?$_Tree_simple_types@U?$pair@$$CBKPAVCGuildMarkImage@@@std@@@std@@@2@XZ PROC ; std::_Tree<std::_Tmap_traits<unsigned long,CGuildMarkImage *,std::less<unsigned long>,std::allocator<std::pair<unsigned long const ,CGuildMarkImage *> >,0> >::_Get_scary, COMDAT
; _this$ = ecx

; 1971 :         return _STD addressof(_Mypair._Myval2._Myval2);

  00000	8b c1		 mov	 eax, ecx

; 1972 :     }

  00002	c3		 ret	 0
?_Get_scary@?$_Tree@V?$_Tmap_traits@KPAVCGuildMarkImage@@U?$less@K@std@@V?$allocator@U?$pair@$$CBKPAVCGuildMarkImage@@@std@@@3@$0A@@std@@@std@@IBEPBV?$_Tree_val@U?$_Tree_simple_types@U?$pair@$$CBKPAVCGuildMarkImage@@@std@@@std@@@2@XZ ENDP ; std::_Tree<std::_Tmap_traits<unsigned long,CGuildMarkImage *,std::less<unsigned long>,std::allocator<std::pair<unsigned long const ,CGuildMarkImage *> >,0> >::_Get_scary
_TEXT	ENDS
; Function compile flags: /Ogtp
; File C:\Program Files\Microsoft Visual Studio\2022\Community\VC\Tools\MSVC\14.34.31933\include\xtree
;	COMDAT ?_Get_scary@?$_Tree@V?$_Tmap_traits@KPAVCGuildMarkImage@@U?$less@K@std@@V?$allocator@U?$pair@$$CBKPAVCGuildMarkImage@@@std@@@3@$0A@@std@@@std@@IAEPAV?$_Tree_val@U?$_Tree_simple_types@U?$pair@$$CBKPAVCGuildMarkImage@@@std@@@std@@@2@XZ
_TEXT	SEGMENT
?_Get_scary@?$_Tree@V?$_Tmap_traits@KPAVCGuildMarkImage@@U?$less@K@std@@V?$allocator@U?$pair@$$CBKPAVCGuildMarkImage@@@std@@@3@$0A@@std@@@std@@IAEPAV?$_Tree_val@U?$_Tree_simple_types@U?$pair@$$CBKPAVCGuildMarkImage@@@std@@@std@@@2@XZ PROC ; std::_Tree<std::_Tmap_traits<unsigned long,CGuildMarkImage *,std::less<unsigned long>,std::allocator<std::pair<unsigned long const ,CGuildMarkImage *> >,0> >::_Get_scary, COMDAT
; _this$ = ecx

; 1967 :         return _STD addressof(_Mypair._Myval2._Myval2);

  00000	8b c1		 mov	 eax, ecx

; 1968 :     }

  00002	c3		 ret	 0
?_Get_scary@?$_Tree@V?$_Tmap_traits@KPAVCGuildMarkImage@@U?$less@K@std@@V?$allocator@U?$pair@$$CBKPAVCGuildMarkImage@@@std@@@3@$0A@@std@@@std@@IAEPAV?$_Tree_val@U?$_Tree_simple_types@U?$pair@$$CBKPAVCGuildMarkImage@@@std@@@std@@@2@XZ ENDP ; std::_Tree<std::_Tmap_traits<unsigned long,CGuildMarkImage *,std::less<unsigned long>,std::allocator<std::pair<unsigned long const ,CGuildMarkImage *> >,0> >::_Get_scary
_TEXT	ENDS
; Function compile flags: /Ogtp
; File C:\Program Files\Microsoft Visual Studio\2022\Community\VC\Tools\MSVC\14.34.31933\include\xtree
;	COMDAT ?_Getal@?$_Tree@V?$_Tmap_traits@KPAVCGuildMarkImage@@U?$less@K@std@@V?$allocator@U?$pair@$$CBKPAVCGuildMarkImage@@@std@@@3@$0A@@std@@@std@@IAEAAV?$allocator@U?$_Tree_node@U?$pair@$$CBKPAVCGuildMarkImage@@@std@@PAX@std@@@2@XZ
_TEXT	SEGMENT
?_Getal@?$_Tree@V?$_Tmap_traits@KPAVCGuildMarkImage@@U?$less@K@std@@V?$allocator@U?$pair@$$CBKPAVCGuildMarkImage@@@std@@@3@$0A@@std@@@std@@IAEAAV?$allocator@U?$_Tree_node@U?$pair@$$CBKPAVCGuildMarkImage@@@std@@PAX@std@@@2@XZ PROC ; std::_Tree<std::_Tmap_traits<unsigned long,CGuildMarkImage *,std::less<unsigned long>,std::allocator<std::pair<unsigned long const ,CGuildMarkImage *> >,0> >::_Getal, COMDAT
; _this$ = ecx

; 1959 :         return _Mypair._Myval2._Get_first();

  00000	8b c1		 mov	 eax, ecx

; 1960 :     }

  00002	c3		 ret	 0
?_Getal@?$_Tree@V?$_Tmap_traits@KPAVCGuildMarkImage@@U?$less@K@std@@V?$allocator@U?$pair@$$CBKPAVCGuildMarkImage@@@std@@@3@$0A@@std@@@std@@IAEAAV?$allocator@U?$_Tree_node@U?$pair@$$CBKPAVCGuildMarkImage@@@std@@PAX@std@@@2@XZ ENDP ; std::_Tree<std::_Tmap_traits<unsigned long,CGuildMarkImage *,std::less<unsigned long>,std::allocator<std::pair<unsigned long const ,CGuildMarkImage *> >,0> >::_Getal
_TEXT	ENDS
; Function compile flags: /Ogtp
; File C:\Program Files\Microsoft Visual Studio\2022\Community\VC\Tools\MSVC\14.34.31933\include\xtree
; File C:\Program Files\Microsoft Visual Studio\2022\Community\VC\Tools\MSVC\14.34.31933\include\xmemory
; File C:\Program Files\Microsoft Visual Studio\2022\Community\VC\Tools\MSVC\14.34.31933\include\xtree
; File C:\Program Files\Microsoft Visual Studio\2022\Community\VC\Tools\MSVC\14.34.31933\include\xmemory
; File C:\Program Files\Microsoft Visual Studio\2022\Community\VC\Tools\MSVC\14.34.31933\include\xtree
;	COMDAT ??0?$_Tree@V?$_Tmap_traits@KPAVCGuildMarkImage@@U?$less@K@std@@V?$allocator@U?$pair@$$CBKPAVCGuildMarkImage@@@std@@@3@$0A@@std@@@std@@QAE@ABU?$less@K@1@@Z
_TEXT	SEGMENT
__Parg$dead$ = 8					; size = 4
??0?$_Tree@V?$_Tmap_traits@KPAVCGuildMarkImage@@U?$less@K@std@@V?$allocator@U?$pair@$$CBKPAVCGuildMarkImage@@@std@@@3@$0A@@std@@@std@@QAE@ABU?$less@K@1@@Z PROC ; std::_Tree<std::_Tmap_traits<unsigned long,CGuildMarkImage *,std::less<unsigned long>,std::allocator<std::pair<unsigned long const ,CGuildMarkImage *> >,0> >::_Tree<std::_Tmap_traits<unsigned long,CGuildMarkImage *,std::less<unsigned long>,std::allocator<std::pair<unsigned long const ,CGuildMarkImage *> >,0> >, COMDAT
; _this$ = ecx

; 882  :     _Tree(const key_compare& _Parg) : _Mypair(_One_then_variadic_args_t{}, _Parg, _Zero_then_variadic_args_t{}) {

  00000	56		 push	 esi
  00001	8b f1		 mov	 esi, ecx
; File C:\Program Files\Microsoft Visual Studio\2022\Community\VC\Tools\MSVC\14.34.31933\include\xmemory

; 77   :         return ::operator new(_Bytes);

  00003	6a 18		 push	 24			; 00000018H
; File C:\Program Files\Microsoft Visual Studio\2022\Community\VC\Tools\MSVC\14.34.31933\include\xtree

; 437  :     _Tree_val() noexcept : _Myhead(), _Mysize(0) {}

  00005	c7 06 00 00 00
	00		 mov	 DWORD PTR [esi], 0
  0000b	c7 46 04 00 00
	00 00		 mov	 DWORD PTR [esi+4], 0
; File C:\Program Files\Microsoft Visual Studio\2022\Community\VC\Tools\MSVC\14.34.31933\include\xmemory

; 77   :         return ::operator new(_Bytes);

  00012	e8 00 00 00 00	 call	 ??2@YAPAXI@Z		; operator new
  00017	83 c4 04	 add	 esp, 4
; File C:\Program Files\Microsoft Visual Studio\2022\Community\VC\Tools\MSVC\14.34.31933\include\xtree

; 347  :         _Construct_in_place(_Pnode->_Left, _Pnode);

  0001a	89 00		 mov	 DWORD PTR [eax], eax

; 348  :         _Construct_in_place(_Pnode->_Parent, _Pnode);

  0001c	89 40 04	 mov	 DWORD PTR [eax+4], eax

; 349  :         _Construct_in_place(_Pnode->_Right, _Pnode);

  0001f	89 40 08	 mov	 DWORD PTR [eax+8], eax

; 350  :         _Pnode->_Color = _Black;

  00022	66 c7 40 0c 01
	01		 mov	 WORD PTR [eax+12], 257	; 00000101H

; 1941 :         _Scary->_Myhead = _Node::_Buyheadnode(_Getal());

  00028	89 06		 mov	 DWORD PTR [esi], eax

; 883  :         _Alloc_sentinel_and_proxy();
; 884  :     }

  0002a	8b c6		 mov	 eax, esi
  0002c	5e		 pop	 esi
  0002d	c2 04 00	 ret	 4
??0?$_Tree@V?$_Tmap_traits@KPAVCGuildMarkImage@@U?$less@K@std@@V?$allocator@U?$pair@$$CBKPAVCGuildMarkImage@@@std@@@3@$0A@@std@@@std@@QAE@ABU?$less@K@1@@Z ENDP ; std::_Tree<std::_Tmap_traits<unsigned long,CGuildMarkImage *,std::less<unsigned long>,std::allocator<std::pair<unsigned long const ,CGuildMarkImage *> >,0> >::_Tree<std::_Tmap_traits<unsigned long,CGuildMarkImage *,std::less<unsigned long>,std::allocator<std::pair<unsigned long const ,CGuildMarkImage *> >,0> >
_TEXT	ENDS
; Function compile flags: /Ogtp
; File C:\Program Files\Microsoft Visual Studio\2022\Community\VC\Tools\MSVC\14.34.31933\include\vector
;	COMDAT ?_Getal@?$vector@EV?$allocator@E@std@@@std@@AAEAAV?$allocator@E@2@XZ
_TEXT	SEGMENT
?_Getal@?$vector@EV?$allocator@E@std@@@std@@AAEAAV?$allocator@E@2@XZ PROC ; std::vector<unsigned char,std::allocator<unsigned char> >::_Getal, COMDAT
; _this$ = ecx

; 2244 :         return _Mypair._Get_first();

  00000	8b c1		 mov	 eax, ecx

; 2245 :     }

  00002	c3		 ret	 0
?_Getal@?$vector@EV?$allocator@E@std@@@std@@AAEAAV?$allocator@E@2@XZ ENDP ; std::vector<unsigned char,std::allocator<unsigned char> >::_Getal
_TEXT	ENDS
; Function compile flags: /Ogtp
; File C:\Program Files\Microsoft Visual Studio\2022\Community\VC\Tools\MSVC\14.34.31933\include\vector
;	COMDAT ?_Xlength@?$vector@EV?$allocator@E@std@@@std@@CAXXZ
_TEXT	SEGMENT
?_Xlength@?$vector@EV?$allocator@E@std@@@std@@CAXXZ PROC ; std::vector<unsigned char,std::allocator<unsigned char> >::_Xlength, COMDAT

; 2201 :         _Xlength_error("vector too long");

  00000	68 00 00 00 00	 push	 OFFSET ??_C@_0BA@FOIKENOD@vector?5too?5long@
  00005	e8 00 00 00 00	 call	 ?_Xlength_error@std@@YAXPBD@Z ; std::_Xlength_error
$LN3@Xlength:
  0000a	cc		 int	 3
?_Xlength@?$vector@EV?$allocator@E@std@@@std@@CAXXZ ENDP ; std::vector<unsigned char,std::allocator<unsigned char> >::_Xlength
_TEXT	ENDS
; Function compile flags: /Ogtp
; File C:\Program Files\Microsoft Visual Studio\2022\Community\VC\Tools\MSVC\14.34.31933\include\vector
; File C:\Program Files\Microsoft Visual Studio\2022\Community\VC\Tools\MSVC\14.34.31933\include\xmemory
; File C:\Program Files\Microsoft Visual Studio\2022\Community\VC\Tools\MSVC\14.34.31933\include\vector
; File C:\Program Files\Microsoft Visual Studio\2022\Community\VC\Tools\MSVC\14.34.31933\include\xmemory
; File C:\Program Files\Microsoft Visual Studio\2022\Community\VC\Tools\MSVC\14.34.31933\include\vector
; File C:\Program Files\Microsoft Visual Studio\2022\Community\VC\Tools\MSVC\14.34.31933\include\xmemory
; File C:\Program Files\Microsoft Visual Studio\2022\Community\VC\Tools\MSVC\14.34.31933\include\vector
;	COMDAT ?_Tidy@?$vector@EV?$allocator@E@std@@@std@@AAEXXZ
_TEXT	SEGMENT
?_Tidy@?$vector@EV?$allocator@E@std@@@std@@AAEXXZ PROC	; std::vector<unsigned char,std::allocator<unsigned char> >::_Tidy, COMDAT
; _this$ = ecx

; 2098 :     _CONSTEXPR20 void _Tidy() noexcept { // free all storage

  00000	56		 push	 esi
  00001	8b f1		 mov	 esi, ecx

; 2099 :         auto& _Al         = _Getal();
; 2100 :         auto& _My_data    = _Mypair._Myval2;
; 2101 :         pointer& _Myfirst = _My_data._Myfirst;
; 2102 :         pointer& _Mylast  = _My_data._Mylast;
; 2103 :         pointer& _Myend   = _My_data._Myend;
; 2104 : 
; 2105 :         _My_data._Orphan_all();
; 2106 : 
; 2107 :         if (_Myfirst) { // destroy and deallocate old array

  00003	8b 06		 mov	 eax, DWORD PTR [esi]
  00005	85 c0		 test	 eax, eax
  00007	74 3d		 je	 SHORT $LN2@Tidy

; 2108 :             _Destroy_range(_Myfirst, _Mylast, _Al);
; 2109 :             _ASAN_VECTOR_REMOVE;
; 2110 :             _Al.deallocate(_Myfirst, static_cast<size_type>(_Myend - _Myfirst));

  00009	8b 4e 08	 mov	 ecx, DWORD PTR [esi+8]
  0000c	2b c8		 sub	 ecx, eax
; File C:\Program Files\Microsoft Visual Studio\2022\Community\VC\Tools\MSVC\14.34.31933\include\xmemory

; 251  :         if (_Bytes >= _Big_allocation_threshold) { // boost the alignment of big allocations to help autovectorization

  0000e	81 f9 00 10 00
	00		 cmp	 ecx, 4096		; 00001000H
  00014	72 12		 jb	 SHORT $LN20@Tidy

; 150  :     const uintptr_t _Ptr_container   = _Ptr_user[-1];

  00016	8b 50 fc	 mov	 edx, DWORD PTR [eax-4]
  00019	83 c1 23	 add	 ecx, 35			; 00000023H

; 151  : 
; 152  :     // If the following asserts, it likely means that we are performing
; 153  :     // an aligned delete on memory coming from an unaligned allocation.
; 154  :     _STL_ASSERT(_Ptr_user[-2] == _Big_allocation_sentinel, "invalid argument");
; 155  : 
; 156  :     // Extra paranoia on aligned allocation/deallocation; ensure _Ptr_container is
; 157  :     // in range [_Min_back_shift, _Non_user_size]
; 158  : #ifdef _DEBUG
; 159  :     constexpr uintptr_t _Min_back_shift = 2 * sizeof(void*);
; 160  : #else // ^^^ _DEBUG ^^^ // vvv !_DEBUG vvv
; 161  :     constexpr uintptr_t _Min_back_shift = sizeof(void*);
; 162  : #endif // _DEBUG
; 163  :     const uintptr_t _Back_shift = reinterpret_cast<uintptr_t>(_Ptr) - _Ptr_container;

  0001c	2b c2		 sub	 eax, edx

; 164  :     _STL_VERIFY(_Back_shift >= _Min_back_shift && _Back_shift <= _Non_user_size, "invalid argument");

  0001e	83 c0 fc	 add	 eax, -4			; fffffffcH
  00021	83 f8 1f	 cmp	 eax, 31			; 0000001fH
  00024	77 22		 ja	 SHORT $LN17@Tidy

; 165  :     _Ptr = reinterpret_cast<void*>(_Ptr_container);

  00026	8b c2		 mov	 eax, edx
$LN20@Tidy:

; 255  :         ::operator delete(_Ptr, _Bytes);

  00028	51		 push	 ecx
  00029	50		 push	 eax
  0002a	e8 00 00 00 00	 call	 ??3@YAXPAXI@Z		; operator delete
; File C:\Program Files\Microsoft Visual Studio\2022\Community\VC\Tools\MSVC\14.34.31933\include\vector

; 2112 :             _Myfirst = nullptr;

  0002f	c7 06 00 00 00
	00		 mov	 DWORD PTR [esi], 0
; File C:\Program Files\Microsoft Visual Studio\2022\Community\VC\Tools\MSVC\14.34.31933\include\xmemory

; 255  :         ::operator delete(_Ptr, _Bytes);

  00035	83 c4 08	 add	 esp, 8
; File C:\Program Files\Microsoft Visual Studio\2022\Community\VC\Tools\MSVC\14.34.31933\include\vector

; 2113 :             _Mylast  = nullptr;

  00038	c7 46 04 00 00
	00 00		 mov	 DWORD PTR [esi+4], 0

; 2114 :             _Myend   = nullptr;

  0003f	c7 46 08 00 00
	00 00		 mov	 DWORD PTR [esi+8], 0
$LN2@Tidy:

; 2116 :     }

  00046	5e		 pop	 esi
  00047	c3		 ret	 0
$LN17@Tidy:
; File C:\Program Files\Microsoft Visual Studio\2022\Community\VC\Tools\MSVC\14.34.31933\include\xmemory

; 164  :     _STL_VERIFY(_Back_shift >= _Min_back_shift && _Back_shift <= _Non_user_size, "invalid argument");

  00048	e8 00 00 00 00	 call	 __invalid_parameter_noinfo_noreturn
$LN24@Tidy:
  0004d	cc		 int	 3
?_Tidy@?$vector@EV?$allocator@E@std@@@std@@AAEXXZ ENDP	; std::vector<unsigned char,std::allocator<unsigned char> >::_Tidy
_TEXT	ENDS
; Function compile flags: /Ogtp
; File C:\Program Files\Microsoft Visual Studio\2022\Community\VC\Tools\MSVC\14.34.31933\include\vector
;	COMDAT ?capacity@?$vector@EV?$allocator@E@std@@@std@@QBEIXZ
_TEXT	SEGMENT
?capacity@?$vector@EV?$allocator@E@std@@@std@@QBEIXZ PROC ; std::vector<unsigned char,std::allocator<unsigned char> >::capacity, COMDAT
; _this$ = ecx

; 1941 :         auto& _My_data = _Mypair._Myval2;
; 1942 :         return static_cast<size_type>(_My_data._Myend - _My_data._Myfirst);

  00000	8b 41 08	 mov	 eax, DWORD PTR [ecx+8]
  00003	2b 01		 sub	 eax, DWORD PTR [ecx]

; 1943 :     }

  00005	c3		 ret	 0
?capacity@?$vector@EV?$allocator@E@std@@@std@@QBEIXZ ENDP ; std::vector<unsigned char,std::allocator<unsigned char> >::capacity
_TEXT	ENDS
; Function compile flags: /Ogtp
; File C:\Program Files\Microsoft Visual Studio\2022\Community\VC\Tools\MSVC\14.34.31933\include\vector
;	COMDAT ?max_size@?$vector@EV?$allocator@E@std@@@std@@QBEIXZ
_TEXT	SEGMENT
?max_size@?$vector@EV?$allocator@E@std@@@std@@QBEIXZ PROC ; std::vector<unsigned char,std::allocator<unsigned char> >::max_size, COMDAT
; _this$dead$ = ecx

; 1936 :         return (_STD min)(

  00000	b8 ff ff ff 7f	 mov	 eax, 2147483647		; 7fffffffH

; 1937 :             static_cast<size_type>((numeric_limits<difference_type>::max)()), _Alty_traits::max_size(_Getal()));
; 1938 :     }

  00005	c3		 ret	 0
?max_size@?$vector@EV?$allocator@E@std@@@std@@QBEIXZ ENDP ; std::vector<unsigned char,std::allocator<unsigned char> >::max_size
_TEXT	ENDS
; Function compile flags: /Ogtp
; File C:\Program Files\Microsoft Visual Studio\2022\Community\VC\Tools\MSVC\14.34.31933\include\vector
; File C:\Program Files\Microsoft Visual Studio\2022\Community\VC\Tools\MSVC\14.34.31933\include\xmemory
; File C:\Program Files\Microsoft Visual Studio\2022\Community\VC\Tools\MSVC\14.34.31933\include\vector
; File C:\Program Files\Microsoft Visual Studio\2022\Community\VC\Tools\MSVC\14.34.31933\include\xmemory
; File C:\Program Files\Microsoft Visual Studio\2022\Community\VC\Tools\MSVC\14.34.31933\include\vector
; File C:\Program Files\Microsoft Visual Studio\2022\Community\VC\Tools\MSVC\14.34.31933\include\xmemory
; File C:\Program Files\Microsoft Visual Studio\2022\Community\VC\Tools\MSVC\14.34.31933\include\vector
; File C:\Program Files\Microsoft Visual Studio\2022\Community\VC\Tools\MSVC\14.34.31933\include\xmemory
; File C:\Program Files\Microsoft Visual Studio\2022\Community\VC\Tools\MSVC\14.34.31933\include\vector
; File C:\Program Files\Microsoft Visual Studio\2022\Community\VC\Tools\MSVC\14.34.31933\include\xmemory
; File C:\Program Files\Microsoft Visual Studio\2022\Community\VC\Tools\MSVC\14.34.31933\include\vector
;	COMDAT ?_Reallocate_exactly@?$vector@EV?$allocator@E@std@@@std@@AAEXI@Z
_TEXT	SEGMENT
__Size$1$ = -4						; size = 4
__Newcapacity$ = 8					; size = 4
?_Reallocate_exactly@?$vector@EV?$allocator@E@std@@@std@@AAEXI@Z PROC ; std::vector<unsigned char,std::allocator<unsigned char> >::_Reallocate_exactly, COMDAT
; _this$ = ecx

; 1664 :     _CONSTEXPR20 void _Reallocate_exactly(const size_type _Newcapacity) {

  00000	55		 push	 ebp
  00001	8b ec		 mov	 ebp, esp
  00003	51		 push	 ecx
  00004	53		 push	 ebx
; File C:\Program Files\Microsoft Visual Studio\2022\Community\VC\Tools\MSVC\14.34.31933\include\xmemory

; 228  :         if (_Bytes >= _Big_allocation_threshold) { // boost the alignment of big allocations to help autovectorization

  00005	8b 5d 08	 mov	 ebx, DWORD PTR __Newcapacity$[ebp]
; File C:\Program Files\Microsoft Visual Studio\2022\Community\VC\Tools\MSVC\14.34.31933\include\vector

; 1664 :     _CONSTEXPR20 void _Reallocate_exactly(const size_type _Newcapacity) {

  00008	56		 push	 esi
  00009	8b f1		 mov	 esi, ecx
  0000b	57		 push	 edi

; 1665 :         // set capacity to _Newcapacity (without geometric growth), provide strong guarantee
; 1666 :         auto& _Al         = _Getal();
; 1667 :         auto& _My_data    = _Mypair._Myval2;
; 1668 :         pointer& _Myfirst = _My_data._Myfirst;
; 1669 :         pointer& _Mylast  = _My_data._Mylast;
; 1670 : 
; 1671 :         const auto _Size = static_cast<size_type>(_Mylast - _Myfirst);

  0000c	8b 46 04	 mov	 eax, DWORD PTR [esi+4]
  0000f	2b 06		 sub	 eax, DWORD PTR [esi]
  00011	89 45 fc	 mov	 DWORD PTR __Size$1$[ebp], eax
; File C:\Program Files\Microsoft Visual Studio\2022\Community\VC\Tools\MSVC\14.34.31933\include\xmemory

; 228  :         if (_Bytes >= _Big_allocation_threshold) { // boost the alignment of big allocations to help autovectorization

  00014	81 fb 00 10 00
	00		 cmp	 ebx, 4096		; 00001000H
  0001a	72 0d		 jb	 SHORT $LN12@Reallocate

; 229  :             return _Allocate_manually_vector_aligned<_Traits>(_Bytes);

  0001c	53		 push	 ebx
  0001d	e8 00 00 00 00	 call	 ??$_Allocate_manually_vector_aligned@U_Default_allocate_traits@std@@@std@@YAPAXI@Z ; std::_Allocate_manually_vector_aligned<std::_Default_allocate_traits>
  00022	83 c4 04	 add	 esp, 4
  00025	8b f8		 mov	 edi, eax
  00027	eb 13		 jmp	 SHORT $LN10@Reallocate
$LN12@Reallocate:

; 230  :         }
; 231  :     }
; 232  : #endif // defined(_M_IX86) || defined(_M_X64)
; 233  : 
; 234  :     if (_Bytes != 0) {

  00029	85 db		 test	 ebx, ebx
  0002b	74 0d		 je	 SHORT $LN13@Reallocate

; 77   :         return ::operator new(_Bytes);

  0002d	53		 push	 ebx
  0002e	e8 00 00 00 00	 call	 ??2@YAPAXI@Z		; operator new
  00033	83 c4 04	 add	 esp, 4

; 235  :         return _Traits::_Allocate(_Bytes);

  00036	8b f8		 mov	 edi, eax
  00038	eb 02		 jmp	 SHORT $LN10@Reallocate
$LN13@Reallocate:

; 236  :     }
; 237  : 
; 238  :     return nullptr;

  0003a	33 ff		 xor	 edi, edi
$LN10@Reallocate:

; 1800 :             _Copy_memmove(_UFirst, _ULast, _Unfancy(_Dest));

  0003c	57		 push	 edi
  0003d	ff 76 04	 push	 DWORD PTR [esi+4]
  00040	ff 36		 push	 DWORD PTR [esi]
  00042	e8 00 00 00 00	 call	 ??$_Copy_memmove@PAEPAE@std@@YAPAEPAE00@Z ; std::_Copy_memmove<unsigned char *,unsigned char *>
; File C:\Program Files\Microsoft Visual Studio\2022\Community\VC\Tools\MSVC\14.34.31933\include\vector

; 2086 :         if (_Myfirst) { // destroy and deallocate old array

  00047	8b 06		 mov	 eax, DWORD PTR [esi]
; File C:\Program Files\Microsoft Visual Studio\2022\Community\VC\Tools\MSVC\14.34.31933\include\xmemory

; 1800 :             _Copy_memmove(_UFirst, _ULast, _Unfancy(_Dest));

  00049	83 c4 0c	 add	 esp, 12			; 0000000cH
; File C:\Program Files\Microsoft Visual Studio\2022\Community\VC\Tools\MSVC\14.34.31933\include\vector

; 2086 :         if (_Myfirst) { // destroy and deallocate old array

  0004c	85 c0		 test	 eax, eax
  0004e	74 29		 je	 SHORT $LN36@Reallocate

; 2087 :             _Destroy_range(_Myfirst, _Mylast, _Al);
; 2088 :             _ASAN_VECTOR_REMOVE;
; 2089 :             _Al.deallocate(_Myfirst, static_cast<size_type>(_Myend - _Myfirst));

  00050	8b 4e 08	 mov	 ecx, DWORD PTR [esi+8]
  00053	2b c8		 sub	 ecx, eax
; File C:\Program Files\Microsoft Visual Studio\2022\Community\VC\Tools\MSVC\14.34.31933\include\xmemory

; 251  :         if (_Bytes >= _Big_allocation_threshold) { // boost the alignment of big allocations to help autovectorization

  00055	81 f9 00 10 00
	00		 cmp	 ecx, 4096		; 00001000H
  0005b	72 12		 jb	 SHORT $LN48@Reallocate

; 150  :     const uintptr_t _Ptr_container   = _Ptr_user[-1];

  0005d	8b 50 fc	 mov	 edx, DWORD PTR [eax-4]
  00060	83 c1 23	 add	 ecx, 35			; 00000023H

; 151  : 
; 152  :     // If the following asserts, it likely means that we are performing
; 153  :     // an aligned delete on memory coming from an unaligned allocation.
; 154  :     _STL_ASSERT(_Ptr_user[-2] == _Big_allocation_sentinel, "invalid argument");
; 155  : 
; 156  :     // Extra paranoia on aligned allocation/deallocation; ensure _Ptr_container is
; 157  :     // in range [_Min_back_shift, _Non_user_size]
; 158  : #ifdef _DEBUG
; 159  :     constexpr uintptr_t _Min_back_shift = 2 * sizeof(void*);
; 160  : #else // ^^^ _DEBUG ^^^ // vvv !_DEBUG vvv
; 161  :     constexpr uintptr_t _Min_back_shift = sizeof(void*);
; 162  : #endif // _DEBUG
; 163  :     const uintptr_t _Back_shift = reinterpret_cast<uintptr_t>(_Ptr) - _Ptr_container;

  00063	2b c2		 sub	 eax, edx

; 164  :     _STL_VERIFY(_Back_shift >= _Min_back_shift && _Back_shift <= _Non_user_size, "invalid argument");

  00065	83 c0 fc	 add	 eax, -4			; fffffffcH
  00068	83 f8 1f	 cmp	 eax, 31			; 0000001fH
  0006b	77 25		 ja	 SHORT $LN45@Reallocate

; 165  :     _Ptr = reinterpret_cast<void*>(_Ptr_container);

  0006d	8b c2		 mov	 eax, edx
$LN48@Reallocate:

; 255  :         ::operator delete(_Ptr, _Bytes);

  0006f	51		 push	 ecx
  00070	50		 push	 eax
  00071	e8 00 00 00 00	 call	 ??3@YAXPAXI@Z		; operator delete
  00076	83 c4 08	 add	 esp, 8
$LN36@Reallocate:
; File C:\Program Files\Microsoft Visual Studio\2022\Community\VC\Tools\MSVC\14.34.31933\include\vector

; 2093 :         _Mylast  = _Newvec + _Newsize;

  00079	8b 45 fc	 mov	 eax, DWORD PTR __Size$1$[ebp]
  0007c	89 3e		 mov	 DWORD PTR [esi], edi
  0007e	03 c7		 add	 eax, edi
  00080	89 46 04	 mov	 DWORD PTR [esi+4], eax

; 2094 :         _Myend   = _Newvec + _Newcapacity;

  00083	8d 04 1f	 lea	 eax, DWORD PTR [edi+ebx]
  00086	5f		 pop	 edi
  00087	89 46 08	 mov	 DWORD PTR [esi+8], eax
  0008a	5e		 pop	 esi
  0008b	5b		 pop	 ebx

; 1687 :     }

  0008c	8b e5		 mov	 esp, ebp
  0008e	5d		 pop	 ebp
  0008f	c2 04 00	 ret	 4
$LN45@Reallocate:
; File C:\Program Files\Microsoft Visual Studio\2022\Community\VC\Tools\MSVC\14.34.31933\include\xmemory

; 164  :     _STL_VERIFY(_Back_shift >= _Min_back_shift && _Back_shift <= _Non_user_size, "invalid argument");

  00092	e8 00 00 00 00	 call	 __invalid_parameter_noinfo_noreturn
$LN57@Reallocate:
  00097	cc		 int	 3
?_Reallocate_exactly@?$vector@EV?$allocator@E@std@@@std@@AAEXI@Z ENDP ; std::vector<unsigned char,std::allocator<unsigned char> >::_Reallocate_exactly
_TEXT	ENDS
; Function compile flags: /Ogtp
; File C:\Program Files\Microsoft Visual Studio\2022\Community\VC\Tools\MSVC\14.34.31933\include\xtree
;	COMDAT ??D?$_Tree_const_iterator@V?$_Tree_val@U?$_Tree_simple_types@U?$pair@$$CBKPAVCGuildMarkImage@@@std@@@std@@@std@@@std@@QBEABU?$pair@$$CBKPAVCGuildMarkImage@@@1@XZ
_TEXT	SEGMENT
??D?$_Tree_const_iterator@V?$_Tree_val@U?$_Tree_simple_types@U?$pair@$$CBKPAVCGuildMarkImage@@@std@@@std@@@std@@@std@@QBEABU?$pair@$$CBKPAVCGuildMarkImage@@@1@XZ PROC ; std::_Tree_const_iterator<std::_Tree_val<std::_Tree_simple_types<std::pair<unsigned long const ,CGuildMarkImage *> > > >::operator*, COMDAT
; _this$ = ecx

; 180  : #if _ITERATOR_DEBUG_LEVEL == 2
; 181  :         const auto _Mycont = static_cast<const _Mytree*>(this->_Getcont());
; 182  :         _STL_ASSERT(_Mycont, "cannot dereference value-initialized map/set iterator");
; 183  :         _STL_VERIFY(this->_Ptr != _Mycont->_Myhead, "cannot dereference end map/set iterator");
; 184  : #endif // _ITERATOR_DEBUG_LEVEL == 2
; 185  : 
; 186  :         return this->_Ptr->_Myval;

  00000	8b 01		 mov	 eax, DWORD PTR [ecx]
  00002	83 c0 10	 add	 eax, 16			; 00000010H

; 187  :     }

  00005	c3		 ret	 0
??D?$_Tree_const_iterator@V?$_Tree_val@U?$_Tree_simple_types@U?$pair@$$CBKPAVCGuildMarkImage@@@std@@@std@@@std@@@std@@QBEABU?$pair@$$CBKPAVCGuildMarkImage@@@1@XZ ENDP ; std::_Tree_const_iterator<std::_Tree_val<std::_Tree_simple_types<std::pair<unsigned long const ,CGuildMarkImage *> > > >::operator*
_TEXT	ENDS
; Function compile flags: /Ogtp
; File C:\Program Files\Microsoft Visual Studio\2022\Community\VC\Tools\MSVC\14.34.31933\include\xtree
;	COMDAT ??E?$_Tree_unchecked_const_iterator@V?$_Tree_val@U?$_Tree_simple_types@U?$pair@$$CBKPAVCGuildMarkImage@@@std@@@std@@@std@@U_Iterator_base0@2@@std@@QAEAAV01@XZ
_TEXT	SEGMENT
??E?$_Tree_unchecked_const_iterator@V?$_Tree_val@U?$_Tree_simple_types@U?$pair@$$CBKPAVCGuildMarkImage@@@std@@@std@@@std@@U_Iterator_base0@2@@std@@QAEAAV01@XZ PROC ; std::_Tree_unchecked_const_iterator<std::_Tree_val<std::_Tree_simple_types<std::pair<unsigned long const ,CGuildMarkImage *> > >,std::_Iterator_base0>::operator++, COMDAT
; _this$ = ecx

; 50   :     _Tree_unchecked_const_iterator& operator++() noexcept {

  00000	56		 push	 esi
  00001	8b f1		 mov	 esi, ecx
  00003	57		 push	 edi

; 51   :         if (_Ptr->_Right->_Isnil) { // climb looking for right subtree

  00004	8b 16		 mov	 edx, DWORD PTR [esi]
  00006	8b 7a 08	 mov	 edi, DWORD PTR [edx+8]
  00009	80 7f 0d 00	 cmp	 BYTE PTR [edi+13], 0
  0000d	74 22		 je	 SHORT $LN4@operator

; 52   :             _Nodeptr _Pnode;
; 53   :             while (!(_Pnode = _Ptr->_Parent)->_Isnil && _Ptr == _Pnode->_Right) {

  0000f	8b 42 04	 mov	 eax, DWORD PTR [edx+4]
  00012	80 78 0d 00	 cmp	 BYTE PTR [eax+13], 0
  00016	75 12		 jne	 SHORT $LN19@operator
$LL2@operator:
  00018	3b 50 08	 cmp	 edx, DWORD PTR [eax+8]
  0001b	75 0d		 jne	 SHORT $LN19@operator

; 54   :                 _Ptr = _Pnode; // ==> parent while right subtree

  0001d	89 06		 mov	 DWORD PTR [esi], eax
  0001f	8b d0		 mov	 edx, eax
  00021	8b 40 04	 mov	 eax, DWORD PTR [eax+4]
  00024	80 78 0d 00	 cmp	 BYTE PTR [eax+13], 0
  00028	74 ee		 je	 SHORT $LL2@operator
$LN19@operator:

; 55   :             }
; 56   : 
; 57   :             _Ptr = _Pnode; // ==> parent (head if end())
; 58   :         } else {
; 59   :             _Ptr = _Mytree::_Min(_Ptr->_Right); // ==> smallest of right subtree
; 60   :         }
; 61   : 
; 62   :         return *this;

  0002a	89 06		 mov	 DWORD PTR [esi], eax

; 63   :     }

  0002c	8b c6		 mov	 eax, esi
  0002e	5f		 pop	 edi
  0002f	5e		 pop	 esi
  00030	c3		 ret	 0
$LN4@operator:

; 453  :         while (!_Pnode->_Left->_Isnil) {

  00031	8b 0f		 mov	 ecx, DWORD PTR [edi]
  00033	80 79 0d 00	 cmp	 BYTE PTR [ecx+13], 0
  00037	75 13		 jne	 SHORT $LN9@operator
  00039	0f 1f 80 00 00
	00 00		 npad	 7
$LL8@operator:
  00040	8b 01		 mov	 eax, DWORD PTR [ecx]

; 454  :             _Pnode = _Pnode->_Left;

  00042	8b f9		 mov	 edi, ecx
  00044	8b c8		 mov	 ecx, eax
  00046	80 78 0d 00	 cmp	 BYTE PTR [eax+13], 0
  0004a	74 f4		 je	 SHORT $LL8@operator
$LN9@operator:

; 55   :             }
; 56   : 
; 57   :             _Ptr = _Pnode; // ==> parent (head if end())
; 58   :         } else {
; 59   :             _Ptr = _Mytree::_Min(_Ptr->_Right); // ==> smallest of right subtree
; 60   :         }
; 61   : 
; 62   :         return *this;

  0004c	89 3e		 mov	 DWORD PTR [esi], edi

; 63   :     }

  0004e	8b c6		 mov	 eax, esi
  00050	5f		 pop	 edi
  00051	5e		 pop	 esi
  00052	c3		 ret	 0
??E?$_Tree_unchecked_const_iterator@V?$_Tree_val@U?$_Tree_simple_types@U?$pair@$$CBKPAVCGuildMarkImage@@@std@@@std@@@std@@U_Iterator_base0@2@@std@@QAEAAV01@XZ ENDP ; std::_Tree_unchecked_const_iterator<std::_Tree_val<std::_Tree_simple_types<std::pair<unsigned long const ,CGuildMarkImage *> > >,std::_Iterator_base0>::operator++
_TEXT	ENDS
; Function compile flags: /Ogtp
; File C:\Program Files\Microsoft Visual Studio\2022\Community\VC\Tools\MSVC\14.34.31933\include\xmemory
;	COMDAT ?_Get_first@?$_Compressed_pair@V?$allocator@U?$_Tree_node@U?$pair@$$CBKUTGuildSymbol@CGuildMarkManager@@@std@@PAX@std@@@std@@V?$_Tree_val@U?$_Tree_simple_types@U?$pair@$$CBKUTGuildSymbol@CGuildMarkManager@@@std@@@std@@@2@$00@std@@QAEAAV?$allocator@U?$_Tree_node@U?$pair@$$CBKUTGuildSymbol@CGuildMarkManager@@@std@@PAX@std@@@2@XZ
_TEXT	SEGMENT
?_Get_first@?$_Compressed_pair@V?$allocator@U?$_Tree_node@U?$pair@$$CBKUTGuildSymbol@CGuildMarkManager@@@std@@PAX@std@@@std@@V?$_Tree_val@U?$_Tree_simple_types@U?$pair@$$CBKUTGuildSymbol@CGuildMarkManager@@@std@@@std@@@2@$00@std@@QAEAAV?$allocator@U?$_Tree_node@U?$pair@$$CBKUTGuildSymbol@CGuildMarkManager@@@std@@PAX@std@@@2@XZ PROC ; std::_Compressed_pair<std::allocator<std::_Tree_node<std::pair<unsigned long const ,CGuildMarkManager::TGuildSymbol>,void *> >,std::_Tree_val<std::_Tree_simple_types<std::pair<unsigned long const ,CGuildMarkManager::TGuildSymbol> > >,1>::_Get_first, COMDAT
; _this$ = ecx

; 1384 :         return *this;

  00000	8b c1		 mov	 eax, ecx

; 1385 :     }

  00002	c3		 ret	 0
?_Get_first@?$_Compressed_pair@V?$allocator@U?$_Tree_node@U?$pair@$$CBKUTGuildSymbol@CGuildMarkManager@@@std@@PAX@std@@@std@@V?$_Tree_val@U?$_Tree_simple_types@U?$pair@$$CBKUTGuildSymbol@CGuildMarkManager@@@std@@@std@@@2@$00@std@@QAEAAV?$allocator@U?$_Tree_node@U?$pair@$$CBKUTGuildSymbol@CGuildMarkManager@@@std@@PAX@std@@@2@XZ ENDP ; std::_Compressed_pair<std::allocator<std::_Tree_node<std::pair<unsigned long const ,CGuildMarkManager::TGuildSymbol>,void *> >,std::_Tree_val<std::_Tree_simple_types<std::pair<unsigned long const ,CGuildMarkManager::TGuildSymbol> > >,1>::_Get_first
_TEXT	ENDS
; Function compile flags: /Ogtp
; File C:\Program Files\Microsoft Visual Studio\2022\Community\VC\Tools\MSVC\14.34.31933\include\xtree
; File C:\Program Files\Microsoft Visual Studio\2022\Community\VC\Tools\MSVC\14.34.31933\include\xmemory
; File C:\Program Files\Microsoft Visual Studio\2022\Community\VC\Tools\MSVC\14.34.31933\include\xtree
; File C:\Program Files\Microsoft Visual Studio\2022\Community\VC\Tools\MSVC\14.34.31933\include\xmemory
; File C:\Program Files\Microsoft Visual Studio\2022\Community\VC\Tools\MSVC\14.34.31933\include\xtree
;	COMDAT ?_Alloc_sentinel_and_proxy@?$_Tree@V?$_Tmap_traits@KUTGuildSymbol@CGuildMarkManager@@U?$less@K@std@@V?$allocator@U?$pair@$$CBKUTGuildSymbol@CGuildMarkManager@@@std@@@4@$0A@@std@@@std@@IAEXXZ
_TEXT	SEGMENT
?_Alloc_sentinel_and_proxy@?$_Tree@V?$_Tmap_traits@KUTGuildSymbol@CGuildMarkManager@@U?$less@K@std@@V?$allocator@U?$pair@$$CBKUTGuildSymbol@CGuildMarkManager@@@std@@@4@$0A@@std@@@std@@IAEXXZ PROC ; std::_Tree<std::_Tmap_traits<unsigned long,CGuildMarkManager::TGuildSymbol,std::less<unsigned long>,std::allocator<std::pair<unsigned long const ,CGuildMarkManager::TGuildSymbol> >,0> >::_Alloc_sentinel_and_proxy, COMDAT
; _this$ = ecx

; 1937 :     void _Alloc_sentinel_and_proxy() {

  00000	56		 push	 esi
; File C:\Program Files\Microsoft Visual Studio\2022\Community\VC\Tools\MSVC\14.34.31933\include\xmemory

; 77   :         return ::operator new(_Bytes);

  00001	6a 24		 push	 36			; 00000024H
; File C:\Program Files\Microsoft Visual Studio\2022\Community\VC\Tools\MSVC\14.34.31933\include\xtree

; 1937 :     void _Alloc_sentinel_and_proxy() {

  00003	8b f1		 mov	 esi, ecx
; File C:\Program Files\Microsoft Visual Studio\2022\Community\VC\Tools\MSVC\14.34.31933\include\xmemory

; 77   :         return ::operator new(_Bytes);

  00005	e8 00 00 00 00	 call	 ??2@YAPAXI@Z		; operator new
  0000a	83 c4 04	 add	 esp, 4
; File C:\Program Files\Microsoft Visual Studio\2022\Community\VC\Tools\MSVC\14.34.31933\include\xtree

; 347  :         _Construct_in_place(_Pnode->_Left, _Pnode);

  0000d	89 00		 mov	 DWORD PTR [eax], eax

; 348  :         _Construct_in_place(_Pnode->_Parent, _Pnode);

  0000f	89 40 04	 mov	 DWORD PTR [eax+4], eax

; 349  :         _Construct_in_place(_Pnode->_Right, _Pnode);

  00012	89 40 08	 mov	 DWORD PTR [eax+8], eax

; 350  :         _Pnode->_Color = _Black;

  00015	66 c7 40 0c 01
	01		 mov	 WORD PTR [eax+12], 257	; 00000101H

; 1938 :         const auto _Scary = _Get_scary();
; 1939 :         auto&& _Alproxy   = _GET_PROXY_ALLOCATOR(_Alnode, _Getal());
; 1940 :         _Container_proxy_ptr<_Alnode> _Proxy(_Alproxy, *_Scary);
; 1941 :         _Scary->_Myhead = _Node::_Buyheadnode(_Getal());

  0001b	89 06		 mov	 DWORD PTR [esi], eax
  0001d	5e		 pop	 esi

; 1942 :         _Proxy._Release();
; 1943 :     }

  0001e	c3		 ret	 0
?_Alloc_sentinel_and_proxy@?$_Tree@V?$_Tmap_traits@KUTGuildSymbol@CGuildMarkManager@@U?$less@K@std@@V?$allocator@U?$pair@$$CBKUTGuildSymbol@CGuildMarkManager@@@std@@@4@$0A@@std@@@std@@IAEXXZ ENDP ; std::_Tree<std::_Tmap_traits<unsigned long,CGuildMarkManager::TGuildSymbol,std::less<unsigned long>,std::allocator<std::pair<unsigned long const ,CGuildMarkManager::TGuildSymbol> >,0> >::_Alloc_sentinel_and_proxy
_TEXT	ENDS
; Function compile flags: /Ogtp
; File C:\Program Files\Microsoft Visual Studio\2022\Community\VC\Tools\MSVC\14.34.31933\include\xmemory
;	COMDAT ?_Get_first@?$_Compressed_pair@V?$allocator@U?$_Tree_node@U?$pair@$$CBKPAVCGuildMarkImage@@@std@@PAX@std@@@std@@V?$_Tree_val@U?$_Tree_simple_types@U?$pair@$$CBKPAVCGuildMarkImage@@@std@@@std@@@2@$00@std@@QAEAAV?$allocator@U?$_Tree_node@U?$pair@$$CBKPAVCGuildMarkImage@@@std@@PAX@std@@@2@XZ
_TEXT	SEGMENT
?_Get_first@?$_Compressed_pair@V?$allocator@U?$_Tree_node@U?$pair@$$CBKPAVCGuildMarkImage@@@std@@PAX@std@@@std@@V?$_Tree_val@U?$_Tree_simple_types@U?$pair@$$CBKPAVCGuildMarkImage@@@std@@@std@@@2@$00@std@@QAEAAV?$allocator@U?$_Tree_node@U?$pair@$$CBKPAVCGuildMarkImage@@@std@@PAX@std@@@2@XZ PROC ; std::_Compressed_pair<std::allocator<std::_Tree_node<std::pair<unsigned long const ,CGuildMarkImage *>,void *> >,std::_Tree_val<std::_Tree_simple_types<std::pair<unsigned long const ,CGuildMarkImage *> > >,1>::_Get_first, COMDAT
; _this$ = ecx

; 1384 :         return *this;

  00000	8b c1		 mov	 eax, ecx

; 1385 :     }

  00002	c3		 ret	 0
?_Get_first@?$_Compressed_pair@V?$allocator@U?$_Tree_node@U?$pair@$$CBKPAVCGuildMarkImage@@@std@@PAX@std@@@std@@V?$_Tree_val@U?$_Tree_simple_types@U?$pair@$$CBKPAVCGuildMarkImage@@@std@@@std@@@2@$00@std@@QAEAAV?$allocator@U?$_Tree_node@U?$pair@$$CBKPAVCGuildMarkImage@@@std@@PAX@std@@@2@XZ ENDP ; std::_Compressed_pair<std::allocator<std::_Tree_node<std::pair<unsigned long const ,CGuildMarkImage *>,void *> >,std::_Tree_val<std::_Tree_simple_types<std::pair<unsigned long const ,CGuildMarkImage *> > >,1>::_Get_first
_TEXT	ENDS
; Function compile flags: /Ogtp
; File C:\Program Files\Microsoft Visual Studio\2022\Community\VC\Tools\MSVC\14.34.31933\include\xtree
; File C:\Program Files\Microsoft Visual Studio\2022\Community\VC\Tools\MSVC\14.34.31933\include\xmemory
; File C:\Program Files\Microsoft Visual Studio\2022\Community\VC\Tools\MSVC\14.34.31933\include\xtree
; File C:\Program Files\Microsoft Visual Studio\2022\Community\VC\Tools\MSVC\14.34.31933\include\xmemory
; File C:\Program Files\Microsoft Visual Studio\2022\Community\VC\Tools\MSVC\14.34.31933\include\xtree
;	COMDAT ?_Alloc_sentinel_and_proxy@?$_Tree@V?$_Tmap_traits@KPAVCGuildMarkImage@@U?$less@K@std@@V?$allocator@U?$pair@$$CBKPAVCGuildMarkImage@@@std@@@3@$0A@@std@@@std@@IAEXXZ
_TEXT	SEGMENT
?_Alloc_sentinel_and_proxy@?$_Tree@V?$_Tmap_traits@KPAVCGuildMarkImage@@U?$less@K@std@@V?$allocator@U?$pair@$$CBKPAVCGuildMarkImage@@@std@@@3@$0A@@std@@@std@@IAEXXZ PROC ; std::_Tree<std::_Tmap_traits<unsigned long,CGuildMarkImage *,std::less<unsigned long>,std::allocator<std::pair<unsigned long const ,CGuildMarkImage *> >,0> >::_Alloc_sentinel_and_proxy, COMDAT
; _this$ = ecx

; 1937 :     void _Alloc_sentinel_and_proxy() {

  00000	56		 push	 esi
; File C:\Program Files\Microsoft Visual Studio\2022\Community\VC\Tools\MSVC\14.34.31933\include\xmemory

; 77   :         return ::operator new(_Bytes);

  00001	6a 18		 push	 24			; 00000018H
; File C:\Program Files\Microsoft Visual Studio\2022\Community\VC\Tools\MSVC\14.34.31933\include\xtree

; 1937 :     void _Alloc_sentinel_and_proxy() {

  00003	8b f1		 mov	 esi, ecx
; File C:\Program Files\Microsoft Visual Studio\2022\Community\VC\Tools\MSVC\14.34.31933\include\xmemory

; 77   :         return ::operator new(_Bytes);

  00005	e8 00 00 00 00	 call	 ??2@YAPAXI@Z		; operator new
  0000a	83 c4 04	 add	 esp, 4
; File C:\Program Files\Microsoft Visual Studio\2022\Community\VC\Tools\MSVC\14.34.31933\include\xtree

; 347  :         _Construct_in_place(_Pnode->_Left, _Pnode);

  0000d	89 00		 mov	 DWORD PTR [eax], eax

; 348  :         _Construct_in_place(_Pnode->_Parent, _Pnode);

  0000f	89 40 04	 mov	 DWORD PTR [eax+4], eax

; 349  :         _Construct_in_place(_Pnode->_Right, _Pnode);

  00012	89 40 08	 mov	 DWORD PTR [eax+8], eax

; 350  :         _Pnode->_Color = _Black;

  00015	66 c7 40 0c 01
	01		 mov	 WORD PTR [eax+12], 257	; 00000101H

; 1938 :         const auto _Scary = _Get_scary();
; 1939 :         auto&& _Alproxy   = _GET_PROXY_ALLOCATOR(_Alnode, _Getal());
; 1940 :         _Container_proxy_ptr<_Alnode> _Proxy(_Alproxy, *_Scary);
; 1941 :         _Scary->_Myhead = _Node::_Buyheadnode(_Getal());

  0001b	89 06		 mov	 DWORD PTR [esi], eax
  0001d	5e		 pop	 esi

; 1942 :         _Proxy._Release();
; 1943 :     }

  0001e	c3		 ret	 0
?_Alloc_sentinel_and_proxy@?$_Tree@V?$_Tmap_traits@KPAVCGuildMarkImage@@U?$less@K@std@@V?$allocator@U?$pair@$$CBKPAVCGuildMarkImage@@@std@@@3@$0A@@std@@@std@@IAEXXZ ENDP ; std::_Tree<std::_Tmap_traits<unsigned long,CGuildMarkImage *,std::less<unsigned long>,std::allocator<std::pair<unsigned long const ,CGuildMarkImage *> >,0> >::_Alloc_sentinel_and_proxy
_TEXT	ENDS
; Function compile flags: /Ogtp
; File C:\Program Files\Microsoft Visual Studio\2022\Community\VC\Tools\MSVC\14.34.31933\include\xmemory
;	COMDAT ?_Get_first@?$_Compressed_pair@V?$allocator@E@std@@V?$_Vector_val@U?$_Simple_types@E@std@@@2@$00@std@@QAEAAV?$allocator@E@2@XZ
_TEXT	SEGMENT
?_Get_first@?$_Compressed_pair@V?$allocator@E@std@@V?$_Vector_val@U?$_Simple_types@E@std@@@2@$00@std@@QAEAAV?$allocator@E@2@XZ PROC ; std::_Compressed_pair<std::allocator<unsigned char>,std::_Vector_val<std::_Simple_types<unsigned char> >,1>::_Get_first, COMDAT
; _this$ = ecx

; 1384 :         return *this;

  00000	8b c1		 mov	 eax, ecx

; 1385 :     }

  00002	c3		 ret	 0
?_Get_first@?$_Compressed_pair@V?$allocator@E@std@@V?$_Vector_val@U?$_Simple_types@E@std@@@2@$00@std@@QAEAAV?$allocator@E@2@XZ ENDP ; std::_Compressed_pair<std::allocator<unsigned char>,std::_Vector_val<std::_Simple_types<unsigned char> >,1>::_Get_first
_TEXT	ENDS
; Function compile flags: /Ogtp
; File C:\Program Files\Microsoft Visual Studio\2022\Community\VC\Tools\MSVC\14.34.31933\include\vector
;	COMDAT ?_Getal@?$vector@EV?$allocator@E@std@@@std@@ABEABV?$allocator@E@2@XZ
_TEXT	SEGMENT
?_Getal@?$vector@EV?$allocator@E@std@@@std@@ABEABV?$allocator@E@2@XZ PROC ; std::vector<unsigned char,std::allocator<unsigned char> >::_Getal, COMDAT
; _this$ = ecx

; 2248 :         return _Mypair._Get_first();

  00000	8b c1		 mov	 eax, ecx

; 2249 :     }

  00002	c3		 ret	 0
?_Getal@?$vector@EV?$allocator@E@std@@@std@@ABEABV?$allocator@E@2@XZ ENDP ; std::vector<unsigned char,std::allocator<unsigned char> >::_Getal
_TEXT	ENDS
; Function compile flags: /Ogtp
; File C:\Program Files\Microsoft Visual Studio\2022\Community\VC\Tools\MSVC\14.34.31933\include\vector
; File C:\Program Files\Microsoft Visual Studio\2022\Community\VC\Tools\MSVC\14.34.31933\include\xmemory
; File C:\Program Files\Microsoft Visual Studio\2022\Community\VC\Tools\MSVC\14.34.31933\include\vector
; File C:\Program Files\Microsoft Visual Studio\2022\Community\VC\Tools\MSVC\14.34.31933\include\xmemory
; File C:\Program Files\Microsoft Visual Studio\2022\Community\VC\Tools\MSVC\14.34.31933\include\vector
;	COMDAT ?_Change_array@?$vector@EV?$allocator@E@std@@@std@@AAEXQAEII@Z
_TEXT	SEGMENT
__Newvec$ = 8						; size = 4
__Newsize$ = 12						; size = 4
__Newcapacity$ = 16					; size = 4
?_Change_array@?$vector@EV?$allocator@E@std@@@std@@AAEXQAEII@Z PROC ; std::vector<unsigned char,std::allocator<unsigned char> >::_Change_array, COMDAT
; _this$ = ecx

; 2076 :     _CONSTEXPR20 void _Change_array(const pointer _Newvec, const size_type _Newsize, const size_type _Newcapacity) {

  00000	55		 push	 ebp
  00001	8b ec		 mov	 ebp, esp
  00003	56		 push	 esi
  00004	8b f1		 mov	 esi, ecx

; 2077 :         // orphan all iterators, discard old array, acquire new array
; 2078 :         auto& _Al         = _Getal();
; 2079 :         auto& _My_data    = _Mypair._Myval2;
; 2080 :         pointer& _Myfirst = _My_data._Myfirst;
; 2081 :         pointer& _Mylast  = _My_data._Mylast;
; 2082 :         pointer& _Myend   = _My_data._Myend;
; 2083 : 
; 2084 :         _My_data._Orphan_all();
; 2085 : 
; 2086 :         if (_Myfirst) { // destroy and deallocate old array

  00006	8b 06		 mov	 eax, DWORD PTR [esi]
  00008	85 c0		 test	 eax, eax
  0000a	74 29		 je	 SHORT $LN8@Change_arr

; 2087 :             _Destroy_range(_Myfirst, _Mylast, _Al);
; 2088 :             _ASAN_VECTOR_REMOVE;
; 2089 :             _Al.deallocate(_Myfirst, static_cast<size_type>(_Myend - _Myfirst));

  0000c	8b 4e 08	 mov	 ecx, DWORD PTR [esi+8]
  0000f	2b c8		 sub	 ecx, eax
; File C:\Program Files\Microsoft Visual Studio\2022\Community\VC\Tools\MSVC\14.34.31933\include\xmemory

; 251  :         if (_Bytes >= _Big_allocation_threshold) { // boost the alignment of big allocations to help autovectorization

  00011	81 f9 00 10 00
	00		 cmp	 ecx, 4096		; 00001000H
  00017	72 12		 jb	 SHORT $LN20@Change_arr

; 150  :     const uintptr_t _Ptr_container   = _Ptr_user[-1];

  00019	8b 50 fc	 mov	 edx, DWORD PTR [eax-4]
  0001c	83 c1 23	 add	 ecx, 35			; 00000023H

; 151  : 
; 152  :     // If the following asserts, it likely means that we are performing
; 153  :     // an aligned delete on memory coming from an unaligned allocation.
; 154  :     _STL_ASSERT(_Ptr_user[-2] == _Big_allocation_sentinel, "invalid argument");
; 155  : 
; 156  :     // Extra paranoia on aligned allocation/deallocation; ensure _Ptr_container is
; 157  :     // in range [_Min_back_shift, _Non_user_size]
; 158  : #ifdef _DEBUG
; 159  :     constexpr uintptr_t _Min_back_shift = 2 * sizeof(void*);
; 160  : #else // ^^^ _DEBUG ^^^ // vvv !_DEBUG vvv
; 161  :     constexpr uintptr_t _Min_back_shift = sizeof(void*);
; 162  : #endif // _DEBUG
; 163  :     const uintptr_t _Back_shift = reinterpret_cast<uintptr_t>(_Ptr) - _Ptr_container;

  0001f	2b c2		 sub	 eax, edx

; 164  :     _STL_VERIFY(_Back_shift >= _Min_back_shift && _Back_shift <= _Non_user_size, "invalid argument");

  00021	83 c0 fc	 add	 eax, -4			; fffffffcH
  00024	83 f8 1f	 cmp	 eax, 31			; 0000001fH
  00027	77 26		 ja	 SHORT $LN17@Change_arr

; 165  :     _Ptr = reinterpret_cast<void*>(_Ptr_container);

  00029	8b c2		 mov	 eax, edx
$LN20@Change_arr:

; 255  :         ::operator delete(_Ptr, _Bytes);

  0002b	51		 push	 ecx
  0002c	50		 push	 eax
  0002d	e8 00 00 00 00	 call	 ??3@YAXPAXI@Z		; operator delete
  00032	83 c4 08	 add	 esp, 8
$LN8@Change_arr:
; File C:\Program Files\Microsoft Visual Studio\2022\Community\VC\Tools\MSVC\14.34.31933\include\vector

; 2092 :         _Myfirst = _Newvec;

  00035	8b 4d 08	 mov	 ecx, DWORD PTR __Newvec$[ebp]

; 2093 :         _Mylast  = _Newvec + _Newsize;

  00038	8b 45 0c	 mov	 eax, DWORD PTR __Newsize$[ebp]
  0003b	03 c1		 add	 eax, ecx
  0003d	89 0e		 mov	 DWORD PTR [esi], ecx
  0003f	89 46 04	 mov	 DWORD PTR [esi+4], eax

; 2094 :         _Myend   = _Newvec + _Newcapacity;

  00042	8b 45 10	 mov	 eax, DWORD PTR __Newcapacity$[ebp]
  00045	03 c1		 add	 eax, ecx
  00047	89 46 08	 mov	 DWORD PTR [esi+8], eax
  0004a	5e		 pop	 esi

; 2096 :     }

  0004b	5d		 pop	 ebp
  0004c	c2 0c 00	 ret	 12			; 0000000cH
$LN17@Change_arr:
; File C:\Program Files\Microsoft Visual Studio\2022\Community\VC\Tools\MSVC\14.34.31933\include\xmemory

; 164  :     _STL_VERIFY(_Back_shift >= _Min_back_shift && _Back_shift <= _Non_user_size, "invalid argument");

  0004f	e8 00 00 00 00	 call	 __invalid_parameter_noinfo_noreturn
$LN24@Change_arr:
  00054	cc		 int	 3
?_Change_array@?$vector@EV?$allocator@E@std@@@std@@AAEXQAEII@Z ENDP ; std::vector<unsigned char,std::allocator<unsigned char> >::_Change_array
_TEXT	ENDS
; Function compile flags: /Ogtp
; File C:\Program Files\Microsoft Visual Studio\2022\Community\VC\Tools\MSVC\14.34.31933\include\xmemory
;	COMDAT ?max_size@?$_Default_allocator_traits@V?$allocator@E@std@@@std@@SAIABV?$allocator@E@2@@Z
_TEXT	SEGMENT
?max_size@?$_Default_allocator_traits@V?$allocator@E@std@@@std@@SAIABV?$allocator@E@2@@Z PROC ; std::_Default_allocator_traits<std::allocator<unsigned char> >::max_size, COMDAT
; ___formal$dead$ = ecx

; 694  :         return static_cast<size_t>(-1) / sizeof(value_type);

  00000	83 c8 ff	 or	 eax, -1

; 695  :     }

  00003	c3		 ret	 0
?max_size@?$_Default_allocator_traits@V?$allocator@E@std@@@std@@SAIABV?$allocator@E@2@@Z ENDP ; std::_Default_allocator_traits<std::allocator<unsigned char> >::max_size
_TEXT	ENDS
; Function compile flags: /Ogtp
; File C:\Program Files\Microsoft Visual Studio\2022\Community\VC\Tools\MSVC\14.34.31933\include\xmemory
;	COMDAT ?allocate@?$allocator@E@std@@QAEPAEI@Z
_TEXT	SEGMENT
__Count$ = 8						; size = 4
?allocate@?$allocator@E@std@@QAEPAEI@Z PROC		; std::allocator<unsigned char>::allocate, COMDAT
; _this$ = ecx

; 833  :     _NODISCARD_RAW_PTR_ALLOC _CONSTEXPR20 __declspec(allocator) _Ty* allocate(_CRT_GUARDOVERFLOW const size_t _Count) {

  00000	55		 push	 ebp
  00001	8b ec		 mov	 ebp, esp

; 228  :         if (_Bytes >= _Big_allocation_threshold) { // boost the alignment of big allocations to help autovectorization

  00003	8b 45 08	 mov	 eax, DWORD PTR __Count$[ebp]
  00006	3d 00 10 00 00	 cmp	 eax, 4096		; 00001000H
  0000b	72 0d		 jb	 SHORT $LN5@allocate

; 229  :             return _Allocate_manually_vector_aligned<_Traits>(_Bytes);

  0000d	50		 push	 eax
  0000e	e8 00 00 00 00	 call	 ??$_Allocate_manually_vector_aligned@U_Default_allocate_traits@std@@@std@@YAPAXI@Z ; std::_Allocate_manually_vector_aligned<std::_Default_allocate_traits>
  00013	83 c4 04	 add	 esp, 4

; 836  :     }

  00016	5d		 pop	 ebp
  00017	c2 04 00	 ret	 4
$LN5@allocate:

; 234  :     if (_Bytes != 0) {

  0001a	85 c0		 test	 eax, eax
  0001c	74 0d		 je	 SHORT $LN6@allocate

; 77   :         return ::operator new(_Bytes);

  0001e	50		 push	 eax
  0001f	e8 00 00 00 00	 call	 ??2@YAPAXI@Z		; operator new
  00024	83 c4 04	 add	 esp, 4

; 836  :     }

  00027	5d		 pop	 ebp
  00028	c2 04 00	 ret	 4
$LN6@allocate:

; 834  :         static_assert(sizeof(value_type) > 0, "value_type must be complete before calling allocate.");
; 835  :         return static_cast<_Ty*>(_Allocate<_New_alignof<_Ty>>(_Get_size_of_n<sizeof(_Ty)>(_Count)));

  0002b	33 c0		 xor	 eax, eax

; 836  :     }

  0002d	5d		 pop	 ebp
  0002e	c2 04 00	 ret	 4
?allocate@?$allocator@E@std@@QAEPAEI@Z ENDP		; std::allocator<unsigned char>::allocate
_TEXT	ENDS
; Function compile flags: /Ogtp
; File C:\Program Files\Microsoft Visual Studio\2022\Community\VC\Tools\MSVC\14.34.31933\include\xmemory
;	COMDAT ?deallocate@?$allocator@E@std@@QAEXQAEI@Z
_TEXT	SEGMENT
__Ptr$ = 8						; size = 4
__Count$ = 12						; size = 4
?deallocate@?$allocator@E@std@@QAEXQAEI@Z PROC		; std::allocator<unsigned char>::deallocate, COMDAT
; _this$dead$ = ecx

; 827  :     _CONSTEXPR20 void deallocate(_Ty* const _Ptr, const size_t _Count) {

  00000	55		 push	 ebp
  00001	8b ec		 mov	 ebp, esp

; 828  :         _STL_ASSERT(_Ptr != nullptr || _Count == 0, "null pointer cannot point to a block of non-zero size");
; 829  :         // no overflow check on the following multiply; we assume _Allocate did that check
; 830  :         _Deallocate<_New_alignof<_Ty>>(_Ptr, sizeof(_Ty) * _Count);

  00003	8b 4d 0c	 mov	 ecx, DWORD PTR __Count$[ebp]
  00006	8b 45 08	 mov	 eax, DWORD PTR __Ptr$[ebp]

; 251  :         if (_Bytes >= _Big_allocation_threshold) { // boost the alignment of big allocations to help autovectorization

  00009	81 f9 00 10 00
	00		 cmp	 ecx, 4096		; 00001000H
  0000f	72 12		 jb	 SHORT $LN17@deallocate

; 150  :     const uintptr_t _Ptr_container   = _Ptr_user[-1];

  00011	8b 50 fc	 mov	 edx, DWORD PTR [eax-4]
  00014	83 c1 23	 add	 ecx, 35			; 00000023H

; 151  : 
; 152  :     // If the following asserts, it likely means that we are performing
; 153  :     // an aligned delete on memory coming from an unaligned allocation.
; 154  :     _STL_ASSERT(_Ptr_user[-2] == _Big_allocation_sentinel, "invalid argument");
; 155  : 
; 156  :     // Extra paranoia on aligned allocation/deallocation; ensure _Ptr_container is
; 157  :     // in range [_Min_back_shift, _Non_user_size]
; 158  : #ifdef _DEBUG
; 159  :     constexpr uintptr_t _Min_back_shift = 2 * sizeof(void*);
; 160  : #else // ^^^ _DEBUG ^^^ // vvv !_DEBUG vvv
; 161  :     constexpr uintptr_t _Min_back_shift = sizeof(void*);
; 162  : #endif // _DEBUG
; 163  :     const uintptr_t _Back_shift = reinterpret_cast<uintptr_t>(_Ptr) - _Ptr_container;

  00017	2b c2		 sub	 eax, edx

; 164  :     _STL_VERIFY(_Back_shift >= _Min_back_shift && _Back_shift <= _Non_user_size, "invalid argument");

  00019	83 c0 fc	 add	 eax, -4			; fffffffcH
  0001c	83 f8 1f	 cmp	 eax, 31			; 0000001fH
  0001f	77 10		 ja	 SHORT $LN14@deallocate

; 165  :     _Ptr = reinterpret_cast<void*>(_Ptr_container);

  00021	8b c2		 mov	 eax, edx
$LN17@deallocate:

; 255  :         ::operator delete(_Ptr, _Bytes);

  00023	51		 push	 ecx
  00024	50		 push	 eax
  00025	e8 00 00 00 00	 call	 ??3@YAXPAXI@Z		; operator delete
  0002a	83 c4 08	 add	 esp, 8

; 831  :     }

  0002d	5d		 pop	 ebp
  0002e	c2 08 00	 ret	 8
$LN14@deallocate:

; 164  :     _STL_VERIFY(_Back_shift >= _Min_back_shift && _Back_shift <= _Non_user_size, "invalid argument");

  00031	e8 00 00 00 00	 call	 __invalid_parameter_noinfo_noreturn
$LN20@deallocate:
  00036	cc		 int	 3
?deallocate@?$allocator@E@std@@QAEXQAEI@Z ENDP		; std::allocator<unsigned char>::deallocate
_TEXT	ENDS
; Function compile flags: /Ogtp
; File C:\Program Files\Microsoft Visual Studio\2022\Community\VC\Tools\MSVC\14.34.31933\include\xtree
;	COMDAT ?_Min@?$_Tree_val@U?$_Tree_simple_types@U?$pair@$$CBKPAVCGuildMarkImage@@@std@@@std@@@std@@SAPAU?$_Tree_node@U?$pair@$$CBKPAVCGuildMarkImage@@@std@@PAX@2@PAU32@@Z
_TEXT	SEGMENT
?_Min@?$_Tree_val@U?$_Tree_simple_types@U?$pair@$$CBKPAVCGuildMarkImage@@@std@@@std@@@std@@SAPAU?$_Tree_node@U?$pair@$$CBKPAVCGuildMarkImage@@@std@@PAX@2@PAU32@@Z PROC ; std::_Tree_val<std::_Tree_simple_types<std::pair<unsigned long const ,CGuildMarkImage *> > >::_Min, COMDAT
; __Pnode$ = ecx

; 453  :         while (!_Pnode->_Left->_Isnil) {

  00000	8b 11		 mov	 edx, DWORD PTR [ecx]
  00002	80 7a 0d 00	 cmp	 BYTE PTR [edx+13], 0
  00006	75 0d		 jne	 SHORT $LN9@Min
$LL2@Min:
  00008	8b 0a		 mov	 ecx, DWORD PTR [edx]

; 454  :             _Pnode = _Pnode->_Left;

  0000a	8b c2		 mov	 eax, edx
  0000c	8b d1		 mov	 edx, ecx
  0000e	80 79 0d 00	 cmp	 BYTE PTR [ecx+13], 0
  00012	74 f4		 je	 SHORT $LL2@Min

; 458  :     }

  00014	c3		 ret	 0
$LN9@Min:

; 455  :         }
; 456  : 
; 457  :         return _Pnode;

  00015	8b c1		 mov	 eax, ecx

; 458  :     }

  00017	c3		 ret	 0
?_Min@?$_Tree_val@U?$_Tree_simple_types@U?$pair@$$CBKPAVCGuildMarkImage@@@std@@@std@@@std@@SAPAU?$_Tree_node@U?$pair@$$CBKPAVCGuildMarkImage@@@std@@PAX@2@PAU32@@Z ENDP ; std::_Tree_val<std::_Tree_simple_types<std::pair<unsigned long const ,CGuildMarkImage *> > >::_Min
_TEXT	ENDS
; Function compile flags: /Ogtp
; File C:\Program Files\Microsoft Visual Studio\2022\Community\VC\Tools\MSVC\14.34.31933\include\xmemory
;	COMDAT ?_Get_first@?$_Compressed_pair@V?$allocator@E@std@@V?$_Vector_val@U?$_Simple_types@E@std@@@2@$00@std@@QBEABV?$allocator@E@2@XZ
_TEXT	SEGMENT
?_Get_first@?$_Compressed_pair@V?$allocator@E@std@@V?$_Vector_val@U?$_Simple_types@E@std@@@2@$00@std@@QBEABV?$allocator@E@2@XZ PROC ; std::_Compressed_pair<std::allocator<unsigned char>,std::_Vector_val<std::_Simple_types<unsigned char> >,1>::_Get_first, COMDAT
; _this$ = ecx

; 1388 :         return *this;

  00000	8b c1		 mov	 eax, ecx

; 1389 :     }

  00002	c3		 ret	 0
?_Get_first@?$_Compressed_pair@V?$allocator@E@std@@V?$_Vector_val@U?$_Simple_types@E@std@@@2@$00@std@@QBEABV?$allocator@E@2@XZ ENDP ; std::_Compressed_pair<std::allocator<unsigned char>,std::_Vector_val<std::_Simple_types<unsigned char> >,1>::_Get_first
_TEXT	ENDS
; Function compile flags: /Ogtp
; File C:\Program Files\Microsoft Visual Studio\2022\Community\VC\Tools\MSVC\14.34.31933\include\utility
;	COMDAT ??$?0AAKAAPAVCGuildMarkImage@@$0A@@?$pair@$$CBKPAVCGuildMarkImage@@@std@@QAE@AAKAAPAVCGuildMarkImage@@@Z
_TEXT	SEGMENT
__Val1$ = 8						; size = 4
__Val2$ = 12						; size = 4
??$?0AAKAAPAVCGuildMarkImage@@$0A@@?$pair@$$CBKPAVCGuildMarkImage@@@std@@QAE@AAKAAPAVCGuildMarkImage@@@Z PROC ; std::pair<unsigned long const ,CGuildMarkImage *>::pair<unsigned long const ,CGuildMarkImage *><unsigned long &,CGuildMarkImage * &,0>, COMDAT
; _this$ = ecx

; 172  :         : first(_STD forward<_Other1>(_Val1)), second(_STD forward<_Other2>(_Val2)) {

  00000	55		 push	 ebp
  00001	8b ec		 mov	 ebp, esp
  00003	8b 45 08	 mov	 eax, DWORD PTR __Val1$[ebp]
  00006	8b 00		 mov	 eax, DWORD PTR [eax]
  00008	89 01		 mov	 DWORD PTR [ecx], eax
  0000a	8b 45 0c	 mov	 eax, DWORD PTR __Val2$[ebp]
  0000d	8b 00		 mov	 eax, DWORD PTR [eax]
  0000f	89 41 04	 mov	 DWORD PTR [ecx+4], eax

; 173  :     }

  00012	8b c1		 mov	 eax, ecx
  00014	5d		 pop	 ebp
  00015	c2 08 00	 ret	 8
??$?0AAKAAPAVCGuildMarkImage@@$0A@@?$pair@$$CBKPAVCGuildMarkImage@@@std@@QAE@AAKAAPAVCGuildMarkImage@@@Z ENDP ; std::pair<unsigned long const ,CGuildMarkImage *>::pair<unsigned long const ,CGuildMarkImage *><unsigned long &,CGuildMarkImage * &,0>
_TEXT	ENDS
; Function compile flags: /Ogtp
; File C:\Program Files\Microsoft Visual Studio\2022\Community\VC\Tools\MSVC\14.34.31933\include\xtree
; File C:\Program Files\Microsoft Visual Studio\2022\Community\VC\Tools\MSVC\14.34.31933\include\utility
; File C:\Program Files\Microsoft Visual Studio\2022\Community\VC\Tools\MSVC\14.34.31933\include\xtree
; File C:\Program Files\Microsoft Visual Studio\2022\Community\VC\Tools\MSVC\14.34.31933\include\xmemory
; File C:\Program Files\Microsoft Visual Studio\2022\Community\VC\Tools\MSVC\14.34.31933\include\xtree
; File C:\Program Files\Microsoft Visual Studio\2022\Community\VC\Tools\MSVC\14.34.31933\include\xmemory
; File C:\Program Files\Microsoft Visual Studio\2022\Community\VC\Tools\MSVC\14.34.31933\include\xtree
; File C:\Program Files\Microsoft Visual Studio\2022\Community\VC\Tools\MSVC\14.34.31933\include\xmemory
; File C:\Program Files\Microsoft Visual Studio\2022\Community\VC\Tools\MSVC\14.34.31933\include\xtree
; File C:\Program Files\Microsoft Visual Studio\2022\Community\VC\Tools\MSVC\14.34.31933\include\utility
; File C:\Program Files\Microsoft Visual Studio\2022\Community\VC\Tools\MSVC\14.34.31933\include\xtree
;	COMDAT ??$insert@$0A@$0A@@?$_Tree@V?$_Tmap_traits@KPAVCGuildMarkImage@@U?$less@K@std@@V?$allocator@U?$pair@$$CBKPAVCGuildMarkImage@@@std@@@3@$0A@@std@@@std@@QAE?AU?$pair@V?$_Tree_iterator@V?$_Tree_val@U?$_Tree_simple_types@U?$pair@$$CBKPAVCGuildMarkImage@@@std@@@std@@@std@@@std@@_N@1@$$QAU?$pair@$$CBKPAVCGuildMarkImage@@@1@@Z
_TEXT	SEGMENT
__Loc$2 = -36						; size = 12
$T3 = -24						; size = 12
$T4 = -20						; size = 8
__$EHRec$ = -12						; size = 12
___$ReturnUdt$ = 8					; size = 4
__Val$ = 12						; size = 4
??$insert@$0A@$0A@@?$_Tree@V?$_Tmap_traits@KPAVCGuildMarkImage@@U?$less@K@std@@V?$allocator@U?$pair@$$CBKPAVCGuildMarkImage@@@std@@@3@$0A@@std@@@std@@QAE?AU?$pair@V?$_Tree_iterator@V?$_Tree_val@U?$_Tree_simple_types@U?$pair@$$CBKPAVCGuildMarkImage@@@std@@@std@@@std@@@std@@_N@1@$$QAU?$pair@$$CBKPAVCGuildMarkImage@@@1@@Z PROC ; std::_Tree<std::_Tmap_traits<unsigned long,CGuildMarkImage *,std::less<unsigned long>,std::allocator<std::pair<unsigned long const ,CGuildMarkImage *> >,0> >::insert<0,0>, COMDAT
; _this$ = ecx

; 1229 :     pair<iterator, bool> insert(value_type&& _Val) {

  00000	55		 push	 ebp
  00001	8b ec		 mov	 ebp, esp
  00003	6a ff		 push	 -1
  00005	68 00 00 00 00	 push	 __ehhandler$??$insert@$0A@$0A@@?$_Tree@V?$_Tmap_traits@KPAVCGuildMarkImage@@U?$less@K@std@@V?$allocator@U?$pair@$$CBKPAVCGuildMarkImage@@@std@@@3@$0A@@std@@@std@@QAE?AU?$pair@V?$_Tree_iterator@V?$_Tree_val@U?$_Tree_simple_types@U?$pair@$$CBKPAVCGuildMarkImage@@@std@@@std@@@std@@@std@@_N@1@$$QAU?$pair@$$CBKPAVCGuildMarkImage@@@1@@Z
  0000a	64 a1 00 00 00
	00		 mov	 eax, DWORD PTR fs:0
  00010	50		 push	 eax
  00011	83 ec 1c	 sub	 esp, 28			; 0000001cH
  00014	53		 push	 ebx
  00015	56		 push	 esi
  00016	57		 push	 edi
  00017	a1 00 00 00 00	 mov	 eax, DWORD PTR ___security_cookie
  0001c	33 c5		 xor	 eax, ebp
  0001e	50		 push	 eax
  0001f	8d 45 f4	 lea	 eax, DWORD PTR __$EHRec$[ebp]
  00022	64 a3 00 00 00
	00		 mov	 DWORD PTR fs:0, eax
  00028	8b f9		 mov	 edi, ecx

; 1001 :             _Loc                = _Find_lower_bound(_Keyval);

  0002a	8b 5d 0c	 mov	 ebx, DWORD PTR __Val$[ebp]
  0002d	8d 45 e8	 lea	 eax, DWORD PTR $T3[ebp]
  00030	53		 push	 ebx
  00031	50		 push	 eax
  00032	e8 00 00 00 00	 call	 ??$_Find_lower_bound@K@?$_Tree@V?$_Tmap_traits@KPAVCGuildMarkImage@@U?$less@K@std@@V?$allocator@U?$pair@$$CBKPAVCGuildMarkImage@@@std@@@3@$0A@@std@@@std@@IBE?AU?$_Tree_find_result@PAU?$_Tree_node@U?$pair@$$CBKPAVCGuildMarkImage@@@std@@PAX@std@@@1@ABK@Z ; std::_Tree<std::_Tmap_traits<unsigned long,CGuildMarkImage *,std::less<unsigned long>,std::allocator<std::pair<unsigned long const ,CGuildMarkImage *> >,0> >::_Find_lower_bound<unsigned long>
  00037	8b 48 08	 mov	 ecx, DWORD PTR [eax+8]
  0003a	f3 0f 7e 00	 movq	 xmm0, QWORD PTR [eax]
  0003e	66 0f d6 45 dc	 movq	 QWORD PTR __Loc$2[ebp], xmm0

; 1605 :         return !_Bound->_Isnil && !_DEBUG_LT_PRED(_Getcomp(), _Keyval, _Traits::_Kfn(_Bound->_Myval));

  00043	80 79 0d 00	 cmp	 BYTE PTR [ecx+13], 0
  00047	75 0b		 jne	 SHORT $LN4@insert
  00049	8b 03		 mov	 eax, DWORD PTR [ebx]
  0004b	3b 41 10	 cmp	 eax, DWORD PTR [ecx+16]
  0004e	72 04		 jb	 SHORT $LN4@insert
; File C:\Program Files\Microsoft Visual Studio\2022\Community\VC\Tools\MSVC\14.34.31933\include\utility

; 172  :         : first(_STD forward<_Other1>(_Val1)), second(_STD forward<_Other2>(_Val2)) {

  00050	32 d2		 xor	 dl, dl
; File C:\Program Files\Microsoft Visual Studio\2022\Community\VC\Tools\MSVC\14.34.31933\include\xtree

; 1003 :                 return {_Loc._Bound, false};

  00052	eb 51		 jmp	 SHORT $LN82@insert
$LN4@insert:

; 1629 :         if (max_size() == _Get_scary()->_Mysize) {

  00054	81 7f 04 aa aa
	aa 0a		 cmp	 DWORD PTR [edi+4], 178956970 ; 0aaaaaaaH
  0005b	74 64		 je	 SHORT $LN97@insert

; 1007 :             _Inserted = _Tree_temp_node<_Alnode>(_Getal(), _Scary->_Myhead, _STD forward<_Valtys>(_Vals)...)._Release();

  0005d	8b 37		 mov	 esi, DWORD PTR [edi]
; File C:\Program Files\Microsoft Visual Studio\2022\Community\VC\Tools\MSVC\14.34.31933\include\xmemory

; 1005 :     _CONSTEXPR20 explicit _Alloc_construct_ptr(_Alloc& _Al_) : _Al(_Al_), _Ptr(nullptr) {}

  0005f	89 7d ec	 mov	 DWORD PTR $T4[ebp], edi
; File C:\Program Files\Microsoft Visual Studio\2022\Community\VC\Tools\MSVC\14.34.31933\include\xtree

; 785  :     explicit _Tree_temp_node_alloc(_Alnode& _Al_) : _Alloc_construct_ptr<_Alnode>(_Al_) {

  00062	c7 45 fc 00 00
	00 00		 mov	 DWORD PTR __$EHRec$[ebp+8], 0
; File C:\Program Files\Microsoft Visual Studio\2022\Community\VC\Tools\MSVC\14.34.31933\include\xmemory

; 77   :         return ::operator new(_Bytes);

  00069	6a 18		 push	 24			; 00000018H

; 1012 :         _Ptr = nullptr; // if allocate throws, prevents double-free

  0006b	c7 45 f0 00 00
	00 00		 mov	 DWORD PTR $T4[ebp+4], 0

; 77   :         return ::operator new(_Bytes);

  00072	e8 00 00 00 00	 call	 ??2@YAPAXI@Z		; operator new
; File C:\Program Files\Microsoft Visual Studio\2022\Community\VC\Tools\MSVC\14.34.31933\include\xtree

; 807  :         _Alnode_traits::construct(this->_Al, _STD addressof(this->_Ptr->_Myval), _STD forward<_Valtys>(_Vals)...);

  00077	8b 0b		 mov	 ecx, DWORD PTR [ebx]
; File C:\Program Files\Microsoft Visual Studio\2022\Community\VC\Tools\MSVC\14.34.31933\include\xmemory

; 77   :         return ::operator new(_Bytes);

  00079	83 c4 04	 add	 esp, 4
; File C:\Program Files\Microsoft Visual Studio\2022\Community\VC\Tools\MSVC\14.34.31933\include\xtree

; 807  :         _Alnode_traits::construct(this->_Al, _STD addressof(this->_Ptr->_Myval), _STD forward<_Valtys>(_Vals)...);

  0007c	8b 53 04	 mov	 edx, DWORD PTR [ebx+4]
  0007f	89 48 10	 mov	 DWORD PTR [eax+16], ecx

; 1026 :         return {_Scary->_Insert_node(_Loc._Location, _Inserted), true};

  00082	8b cf		 mov	 ecx, edi
  00084	50		 push	 eax
  00085	ff 75 e0	 push	 DWORD PTR __Loc$2[ebp+4]

; 807  :         _Alnode_traits::construct(this->_Al, _STD addressof(this->_Ptr->_Myval), _STD forward<_Valtys>(_Vals)...);

  00088	89 50 14	 mov	 DWORD PTR [eax+20], edx

; 1026 :         return {_Scary->_Insert_node(_Loc._Location, _Inserted), true};

  0008b	ff 75 dc	 push	 DWORD PTR __Loc$2[ebp]

; 808  :         _Construct_in_place(this->_Ptr->_Left, _Myhead);

  0008e	89 30		 mov	 DWORD PTR [eax], esi

; 809  :         _Construct_in_place(this->_Ptr->_Parent, _Myhead);

  00090	89 70 04	 mov	 DWORD PTR [eax+4], esi

; 810  :         _Construct_in_place(this->_Ptr->_Right, _Myhead);

  00093	89 70 08	 mov	 DWORD PTR [eax+8], esi

; 811  :         this->_Ptr->_Color = _Red;

  00096	66 c7 40 0c 00
	00		 mov	 WORD PTR [eax+12], 0

; 1026 :         return {_Scary->_Insert_node(_Loc._Location, _Inserted), true};

  0009c	e8 00 00 00 00	 call	 ?_Insert_node@?$_Tree_val@U?$_Tree_simple_types@U?$pair@$$CBKPAVCGuildMarkImage@@@std@@@std@@@std@@QAEPAU?$_Tree_node@U?$pair@$$CBKPAVCGuildMarkImage@@@std@@PAX@2@U?$_Tree_id@PAU?$_Tree_node@U?$pair@$$CBKPAVCGuildMarkImage@@@std@@PAX@std@@@2@QAU32@@Z ; std::_Tree_val<std::_Tree_simple_types<std::pair<unsigned long const ,CGuildMarkImage *> > >::_Insert_node
; File C:\Program Files\Microsoft Visual Studio\2022\Community\VC\Tools\MSVC\14.34.31933\include\utility

; 172  :         : first(_STD forward<_Other1>(_Val1)), second(_STD forward<_Other2>(_Val2)) {

  000a1	8b c8		 mov	 ecx, eax
  000a3	b2 01		 mov	 dl, 1
$LN82@insert:
  000a5	8b 45 08	 mov	 eax, DWORD PTR ___$ReturnUdt$[ebp]
  000a8	89 08		 mov	 DWORD PTR [eax], ecx
  000aa	88 50 04	 mov	 BYTE PTR [eax+4], dl
; File C:\Program Files\Microsoft Visual Studio\2022\Community\VC\Tools\MSVC\14.34.31933\include\xtree

; 1232 :     }

  000ad	8b 4d f4	 mov	 ecx, DWORD PTR __$EHRec$[ebp]
  000b0	64 89 0d 00 00
	00 00		 mov	 DWORD PTR fs:0, ecx
  000b7	59		 pop	 ecx
  000b8	5f		 pop	 edi
  000b9	5e		 pop	 esi
  000ba	5b		 pop	 ebx
  000bb	8b e5		 mov	 esp, ebp
  000bd	5d		 pop	 ebp
  000be	c2 08 00	 ret	 8
$LN97@insert:

; 1630 :             _Throw_tree_length_error();

  000c1	e8 00 00 00 00	 call	 ?_Throw_tree_length_error@std@@YAXXZ ; std::_Throw_tree_length_error
$LN95@insert:
  000c6	cc		 int	 3
_TEXT	ENDS
;	COMDAT text$x
text$x	SEGMENT
__unwindfunclet$??$insert@$0A@$0A@@?$_Tree@V?$_Tmap_traits@KPAVCGuildMarkImage@@U?$less@K@std@@V?$allocator@U?$pair@$$CBKPAVCGuildMarkImage@@@std@@@3@$0A@@std@@@std@@QAE?AU?$pair@V?$_Tree_iterator@V?$_Tree_val@U?$_Tree_simple_types@U?$pair@$$CBKPAVCGuildMarkImage@@@std@@@std@@@std@@@std@@_N@1@$$QAU?$pair@$$CBKPAVCGuildMarkImage@@@1@@Z$2:
  00000	8d 4d ec	 lea	 ecx, DWORD PTR $T4[ebp]
  00003	e9 00 00 00 00	 jmp	 ??1?$_Alloc_construct_ptr@V?$allocator@U?$_Tree_node@U?$pair@$$CBKPAVCGuildMarkImage@@@std@@PAX@std@@@std@@@std@@QAE@XZ ; std::_Alloc_construct_ptr<std::allocator<std::_Tree_node<std::pair<unsigned long const ,CGuildMarkImage *>,void *> > >::~_Alloc_construct_ptr<std::allocator<std::_Tree_node<std::pair<unsigned long const ,CGuildMarkImage *>,void *> > >
  00008	cc		 int	 3
  00009	cc		 int	 3
  0000a	cc		 int	 3
  0000b	cc		 int	 3
  0000c	cc		 int	 3
__ehhandler$??$insert@$0A@$0A@@?$_Tree@V?$_Tmap_traits@KPAVCGuildMarkImage@@U?$less@K@std@@V?$allocator@U?$pair@$$CBKPAVCGuildMarkImage@@@std@@@3@$0A@@std@@@std@@QAE?AU?$pair@V?$_Tree_iterator@V?$_Tree_val@U?$_Tree_simple_types@U?$pair@$$CBKPAVCGuildMarkImage@@@std@@@std@@@std@@@std@@_N@1@$$QAU?$pair@$$CBKPAVCGuildMarkImage@@@1@@Z:
  0000d	90		 npad	 1
  0000e	90		 npad	 1
  0000f	8b 54 24 08	 mov	 edx, DWORD PTR [esp+8]
  00013	8d 42 0c	 lea	 eax, DWORD PTR [edx+12]
  00016	8b 4a d4	 mov	 ecx, DWORD PTR [edx-44]
  00019	33 c8		 xor	 ecx, eax
  0001b	e8 00 00 00 00	 call	 @__security_check_cookie@4
  00020	b8 00 00 00 00	 mov	 eax, OFFSET __ehfuncinfo$??$insert@$0A@$0A@@?$_Tree@V?$_Tmap_traits@KPAVCGuildMarkImage@@U?$less@K@std@@V?$allocator@U?$pair@$$CBKPAVCGuildMarkImage@@@std@@@3@$0A@@std@@@std@@QAE?AU?$pair@V?$_Tree_iterator@V?$_Tree_val@U?$_Tree_simple_types@U?$pair@$$CBKPAVCGuildMarkImage@@@std@@@std@@@std@@@std@@_N@1@$$QAU?$pair@$$CBKPAVCGuildMarkImage@@@1@@Z
  00025	e9 00 00 00 00	 jmp	 ___CxxFrameHandler3
text$x	ENDS
??$insert@$0A@$0A@@?$_Tree@V?$_Tmap_traits@KPAVCGuildMarkImage@@U?$less@K@std@@V?$allocator@U?$pair@$$CBKPAVCGuildMarkImage@@@std@@@3@$0A@@std@@@std@@QAE?AU?$pair@V?$_Tree_iterator@V?$_Tree_val@U?$_Tree_simple_types@U?$pair@$$CBKPAVCGuildMarkImage@@@std@@@std@@@std@@@std@@_N@1@$$QAU?$pair@$$CBKPAVCGuildMarkImage@@@1@@Z ENDP ; std::_Tree<std::_Tmap_traits<unsigned long,CGuildMarkImage *,std::less<unsigned long>,std::allocator<std::pair<unsigned long const ,CGuildMarkImage *> >,0> >::insert<0,0>
; Function compile flags: /Ogtp
; File C:\Program Files\Microsoft Visual Studio\2022\Community\VC\Tools\MSVC\14.34.31933\include\xtree
; File C:\Program Files\Microsoft Visual Studio\2022\Community\VC\Tools\MSVC\14.34.31933\include\xmemory
; File C:\Program Files\Microsoft Visual Studio\2022\Community\VC\Tools\MSVC\14.34.31933\include\xtree
;	COMDAT ??$_Erase_head@V?$allocator@U?$_Tree_node@U?$pair@$$CBKUTGuildSymbol@CGuildMarkManager@@@std@@PAX@std@@@std@@@?$_Tree_val@U?$_Tree_simple_types@U?$pair@$$CBKUTGuildSymbol@CGuildMarkManager@@@std@@@std@@@std@@QAEXAAV?$allocator@U?$_Tree_node@U?$pair@$$CBKUTGuildSymbol@CGuildMarkManager@@@std@@PAX@std@@@1@@Z
_TEXT	SEGMENT
__Al$ = 8						; size = 4
??$_Erase_head@V?$allocator@U?$_Tree_node@U?$pair@$$CBKUTGuildSymbol@CGuildMarkManager@@@std@@PAX@std@@@std@@@?$_Tree_val@U?$_Tree_simple_types@U?$pair@$$CBKUTGuildSymbol@CGuildMarkManager@@@std@@@std@@@std@@QAEXAAV?$allocator@U?$_Tree_node@U?$pair@$$CBKUTGuildSymbol@CGuildMarkManager@@@std@@PAX@std@@@1@@Z PROC ; std::_Tree_val<std::_Tree_simple_types<std::pair<unsigned long const ,CGuildMarkManager::TGuildSymbol> > >::_Erase_head<std::allocator<std::_Tree_node<std::pair<unsigned long const ,CGuildMarkManager::TGuildSymbol>,void *> > >, COMDAT
; _this$ = ecx

; 752  :     void _Erase_head(_Alnode& _Al) noexcept {

  00000	55		 push	 ebp
  00001	8b ec		 mov	 ebp, esp
  00003	56		 push	 esi
  00004	8b f1		 mov	 esi, ecx

; 753  :         this->_Orphan_all();
; 754  :         _Erase_tree(_Al, _Myhead->_Parent);

  00006	8b 06		 mov	 eax, DWORD PTR [esi]
  00008	ff 70 04	 push	 DWORD PTR [eax+4]
  0000b	ff 75 08	 push	 DWORD PTR __Al$[ebp]
  0000e	e8 00 00 00 00	 call	 ??$_Erase_tree@V?$allocator@U?$_Tree_node@U?$pair@$$CBKUTGuildSymbol@CGuildMarkManager@@@std@@PAX@std@@@std@@@?$_Tree_val@U?$_Tree_simple_types@U?$pair@$$CBKUTGuildSymbol@CGuildMarkManager@@@std@@@std@@@std@@QAEXAAV?$allocator@U?$_Tree_node@U?$pair@$$CBKUTGuildSymbol@CGuildMarkManager@@@std@@PAX@std@@@1@PAU?$_Tree_node@U?$pair@$$CBKUTGuildSymbol@CGuildMarkManager@@@std@@PAX@1@@Z ; std::_Tree_val<std::_Tree_simple_types<std::pair<unsigned long const ,CGuildMarkManager::TGuildSymbol> > >::_Erase_tree<std::allocator<std::_Tree_node<std::pair<unsigned long const ,CGuildMarkManager::TGuildSymbol>,void *> > >
; File C:\Program Files\Microsoft Visual Studio\2022\Community\VC\Tools\MSVC\14.34.31933\include\xmemory

; 255  :         ::operator delete(_Ptr, _Bytes);

  00013	6a 24		 push	 36			; 00000024H
  00015	ff 36		 push	 DWORD PTR [esi]
  00017	e8 00 00 00 00	 call	 ??3@YAXPAXI@Z		; operator delete
  0001c	83 c4 08	 add	 esp, 8
  0001f	5e		 pop	 esi
; File C:\Program Files\Microsoft Visual Studio\2022\Community\VC\Tools\MSVC\14.34.31933\include\xtree

; 756  :     }

  00020	5d		 pop	 ebp
  00021	c2 04 00	 ret	 4
??$_Erase_head@V?$allocator@U?$_Tree_node@U?$pair@$$CBKUTGuildSymbol@CGuildMarkManager@@@std@@PAX@std@@@std@@@?$_Tree_val@U?$_Tree_simple_types@U?$pair@$$CBKUTGuildSymbol@CGuildMarkManager@@@std@@@std@@@std@@QAEXAAV?$allocator@U?$_Tree_node@U?$pair@$$CBKUTGuildSymbol@CGuildMarkManager@@@std@@PAX@std@@@1@@Z ENDP ; std::_Tree_val<std::_Tree_simple_types<std::pair<unsigned long const ,CGuildMarkManager::TGuildSymbol> > >::_Erase_head<std::allocator<std::_Tree_node<std::pair<unsigned long const ,CGuildMarkManager::TGuildSymbol>,void *> > >
_TEXT	ENDS
; Function compile flags: /Ogtp
; File C:\Program Files\Microsoft Visual Studio\2022\Community\VC\Tools\MSVC\14.34.31933\include\xtree
; File C:\Program Files\Microsoft Visual Studio\2022\Community\VC\Tools\MSVC\14.34.31933\include\xstddef
; File C:\Program Files\Microsoft Visual Studio\2022\Community\VC\Tools\MSVC\14.34.31933\include\xtree
;	COMDAT ??$_Find@K@?$_Tree@V?$_Tmap_traits@KPAVCGuildMarkImage@@U?$less@K@std@@V?$allocator@U?$pair@$$CBKPAVCGuildMarkImage@@@std@@@3@$0A@@std@@@std@@ABEPAU?$_Tree_node@U?$pair@$$CBKPAVCGuildMarkImage@@@std@@PAX@1@ABK@Z
_TEXT	SEGMENT
__Loc$ = -12						; size = 12
__Keyval$ = 8						; size = 4
??$_Find@K@?$_Tree@V?$_Tmap_traits@KPAVCGuildMarkImage@@U?$less@K@std@@V?$allocator@U?$pair@$$CBKPAVCGuildMarkImage@@@std@@@3@$0A@@std@@@std@@ABEPAU?$_Tree_node@U?$pair@$$CBKPAVCGuildMarkImage@@@std@@PAX@1@ABK@Z PROC ; std::_Tree<std::_Tmap_traits<unsigned long,CGuildMarkImage *,std::less<unsigned long>,std::allocator<std::pair<unsigned long const ,CGuildMarkImage *> >,0> >::_Find<unsigned long>, COMDAT
; _this$ = ecx

; 1366 :     _NODISCARD _Nodeptr _Find(const _Other& _Keyval) const {

  00000	55		 push	 ebp
  00001	8b ec		 mov	 ebp, esp
  00003	83 ec 0c	 sub	 esp, 12			; 0000000cH
  00006	56		 push	 esi
  00007	57		 push	 edi

; 1367 :         const _Tree_find_result<_Nodeptr> _Loc = _Find_lower_bound(_Keyval);

  00008	8b 7d 08	 mov	 edi, DWORD PTR __Keyval$[ebp]
  0000b	8d 45 f4	 lea	 eax, DWORD PTR __Loc$[ebp]
  0000e	57		 push	 edi
  0000f	50		 push	 eax
  00010	8b f1		 mov	 esi, ecx
  00012	e8 00 00 00 00	 call	 ??$_Find_lower_bound@K@?$_Tree@V?$_Tmap_traits@KPAVCGuildMarkImage@@U?$less@K@std@@V?$allocator@U?$pair@$$CBKPAVCGuildMarkImage@@@std@@@3@$0A@@std@@@std@@IBE?AU?$_Tree_find_result@PAU?$_Tree_node@U?$pair@$$CBKPAVCGuildMarkImage@@@std@@PAX@std@@@1@ABK@Z ; std::_Tree<std::_Tmap_traits<unsigned long,CGuildMarkImage *,std::less<unsigned long>,std::allocator<std::pair<unsigned long const ,CGuildMarkImage *> >,0> >::_Find_lower_bound<unsigned long>

; 1605 :         return !_Bound->_Isnil && !_DEBUG_LT_PRED(_Getcomp(), _Keyval, _Traits::_Kfn(_Bound->_Myval));

  00017	8b 45 fc	 mov	 eax, DWORD PTR __Loc$[ebp+8]
  0001a	80 78 0d 00	 cmp	 BYTE PTR [eax+13], 0
  0001e	75 07		 jne	 SHORT $LN2@Find
; File C:\Program Files\Microsoft Visual Studio\2022\Community\VC\Tools\MSVC\14.34.31933\include\xstddef

; 143  :         return _Left < _Right;

  00020	8b 0f		 mov	 ecx, DWORD PTR [edi]
  00022	3b 48 10	 cmp	 ecx, DWORD PTR [eax+16]
; File C:\Program Files\Microsoft Visual Studio\2022\Community\VC\Tools\MSVC\14.34.31933\include\xtree

; 1605 :         return !_Bound->_Isnil && !_DEBUG_LT_PRED(_Getcomp(), _Keyval, _Traits::_Kfn(_Bound->_Myval));

  00025	73 02		 jae	 SHORT $LN1@Find
$LN2@Find:

; 1368 :         if (_Lower_bound_duplicate(_Loc._Bound, _Keyval)) {
; 1369 :             return _Loc._Bound;
; 1370 :         }
; 1371 : 
; 1372 :         return _Get_scary()->_Myhead;

  00027	8b 06		 mov	 eax, DWORD PTR [esi]
$LN1@Find:
  00029	5f		 pop	 edi

; 1373 :     }

  0002a	5e		 pop	 esi
  0002b	8b e5		 mov	 esp, ebp
  0002d	5d		 pop	 ebp
  0002e	c2 04 00	 ret	 4
??$_Find@K@?$_Tree@V?$_Tmap_traits@KPAVCGuildMarkImage@@U?$less@K@std@@V?$allocator@U?$pair@$$CBKPAVCGuildMarkImage@@@std@@@3@$0A@@std@@@std@@ABEPAU?$_Tree_node@U?$pair@$$CBKPAVCGuildMarkImage@@@std@@PAX@1@ABK@Z ENDP ; std::_Tree<std::_Tmap_traits<unsigned long,CGuildMarkImage *,std::less<unsigned long>,std::allocator<std::pair<unsigned long const ,CGuildMarkImage *> >,0> >::_Find<unsigned long>
_TEXT	ENDS
; Function compile flags: /Ogtp
; File C:\Program Files\Microsoft Visual Studio\2022\Community\VC\Tools\MSVC\14.34.31933\include\xtree
; File C:\Program Files\Microsoft Visual Studio\2022\Community\VC\Tools\MSVC\14.34.31933\include\utility
; File C:\Program Files\Microsoft Visual Studio\2022\Community\VC\Tools\MSVC\14.34.31933\include\xmemory
; File C:\Program Files\Microsoft Visual Studio\2022\Community\VC\Tools\MSVC\14.34.31933\include\xtree
;	COMDAT ??$_Erase_tree@V?$allocator@U?$_Tree_node@U?$pair@$$CBKPAVCGuildMarkImage@@@std@@PAX@std@@@std@@@?$_Tree_val@U?$_Tree_simple_types@U?$pair@$$CBKPAVCGuildMarkImage@@@std@@@std@@@std@@QAEXAAV?$allocator@U?$_Tree_node@U?$pair@$$CBKPAVCGuildMarkImage@@@std@@PAX@std@@@1@PAU?$_Tree_node@U?$pair@$$CBKPAVCGuildMarkImage@@@std@@PAX@1@@Z
_TEXT	SEGMENT
__Al$ = 8						; size = 4
__Rootnode$ = 12					; size = 4
??$_Erase_tree@V?$allocator@U?$_Tree_node@U?$pair@$$CBKPAVCGuildMarkImage@@@std@@PAX@std@@@std@@@?$_Tree_val@U?$_Tree_simple_types@U?$pair@$$CBKPAVCGuildMarkImage@@@std@@@std@@@std@@QAEXAAV?$allocator@U?$_Tree_node@U?$pair@$$CBKPAVCGuildMarkImage@@@std@@PAX@std@@@1@PAU?$_Tree_node@U?$pair@$$CBKPAVCGuildMarkImage@@@std@@PAX@1@@Z PROC ; std::_Tree_val<std::_Tree_simple_types<std::pair<unsigned long const ,CGuildMarkImage *> > >::_Erase_tree<std::allocator<std::_Tree_node<std::pair<unsigned long const ,CGuildMarkImage *>,void *> > >, COMDAT
; _this$ = ecx

; 744  :     void _Erase_tree(_Alnode& _Al, _Nodeptr _Rootnode) noexcept {

  00000	55		 push	 ebp
  00001	8b ec		 mov	 ebp, esp
  00003	53		 push	 ebx
  00004	56		 push	 esi

; 745  :         while (!_Rootnode->_Isnil) { // free subtrees, then node

  00005	8b 75 0c	 mov	 esi, DWORD PTR __Rootnode$[ebp]
  00008	8b d9		 mov	 ebx, ecx
  0000a	80 7e 0d 00	 cmp	 BYTE PTR [esi+13], 0
  0000e	75 25		 jne	 SHORT $LN3@Erase_tree
  00010	57		 push	 edi
  00011	8b 7d 08	 mov	 edi, DWORD PTR __Al$[ebp]
$LL2@Erase_tree:

; 746  :             _Erase_tree(_Al, _Rootnode->_Right);

  00014	ff 76 08	 push	 DWORD PTR [esi+8]
  00017	8b cb		 mov	 ecx, ebx
  00019	57		 push	 edi
  0001a	e8 00 00 00 00	 call	 ??$_Erase_tree@V?$allocator@U?$_Tree_node@U?$pair@$$CBKPAVCGuildMarkImage@@@std@@PAX@std@@@std@@@?$_Tree_val@U?$_Tree_simple_types@U?$pair@$$CBKPAVCGuildMarkImage@@@std@@@std@@@std@@QAEXAAV?$allocator@U?$_Tree_node@U?$pair@$$CBKPAVCGuildMarkImage@@@std@@PAX@std@@@1@PAU?$_Tree_node@U?$pair@$$CBKPAVCGuildMarkImage@@@std@@PAX@1@@Z ; std::_Tree_val<std::_Tree_simple_types<std::pair<unsigned long const ,CGuildMarkImage *> > >::_Erase_tree<std::allocator<std::_Tree_node<std::pair<unsigned long const ,CGuildMarkImage *>,void *> > >
; File C:\Program Files\Microsoft Visual Studio\2022\Community\VC\Tools\MSVC\14.34.31933\include\utility

; 653  :     _Ty _Old_val = static_cast<_Ty&&>(_Val);

  0001f	8b c6		 mov	 eax, esi

; 654  :     _Val         = static_cast<_Other&&>(_New_val);

  00021	8b 36		 mov	 esi, DWORD PTR [esi]
; File C:\Program Files\Microsoft Visual Studio\2022\Community\VC\Tools\MSVC\14.34.31933\include\xmemory

; 255  :         ::operator delete(_Ptr, _Bytes);

  00023	6a 18		 push	 24			; 00000018H
  00025	50		 push	 eax
  00026	e8 00 00 00 00	 call	 ??3@YAXPAXI@Z		; operator delete
  0002b	83 c4 08	 add	 esp, 8
; File C:\Program Files\Microsoft Visual Studio\2022\Community\VC\Tools\MSVC\14.34.31933\include\xtree

; 745  :         while (!_Rootnode->_Isnil) { // free subtrees, then node

  0002e	80 7e 0d 00	 cmp	 BYTE PTR [esi+13], 0
  00032	74 e0		 je	 SHORT $LL2@Erase_tree
  00034	5f		 pop	 edi
$LN3@Erase_tree:
  00035	5e		 pop	 esi

; 747  :             _Alnode::value_type::_Freenode(_Al, _STD exchange(_Rootnode, _Rootnode->_Left));
; 748  :         }
; 749  :     }

  00036	5b		 pop	 ebx
  00037	5d		 pop	 ebp
  00038	c2 08 00	 ret	 8
??$_Erase_tree@V?$allocator@U?$_Tree_node@U?$pair@$$CBKPAVCGuildMarkImage@@@std@@PAX@std@@@std@@@?$_Tree_val@U?$_Tree_simple_types@U?$pair@$$CBKPAVCGuildMarkImage@@@std@@@std@@@std@@QAEXAAV?$allocator@U?$_Tree_node@U?$pair@$$CBKPAVCGuildMarkImage@@@std@@PAX@std@@@1@PAU?$_Tree_node@U?$pair@$$CBKPAVCGuildMarkImage@@@std@@PAX@1@@Z ENDP ; std::_Tree_val<std::_Tree_simple_types<std::pair<unsigned long const ,CGuildMarkImage *> > >::_Erase_tree<std::allocator<std::_Tree_node<std::pair<unsigned long const ,CGuildMarkImage *>,void *> > >
_TEXT	ENDS
; Function compile flags: /Ogtp
; File C:\Program Files\Microsoft Visual Studio\2022\Community\VC\Tools\MSVC\14.34.31933\include\xtree
; File C:\Program Files\Microsoft Visual Studio\2022\Community\VC\Tools\MSVC\14.34.31933\include\xmemory
; File C:\Program Files\Microsoft Visual Studio\2022\Community\VC\Tools\MSVC\14.34.31933\include\xtree
;	COMDAT ??$_Erase_head@V?$allocator@U?$_Tree_node@U?$pair@$$CBKPAVCGuildMarkImage@@@std@@PAX@std@@@std@@@?$_Tree_val@U?$_Tree_simple_types@U?$pair@$$CBKPAVCGuildMarkImage@@@std@@@std@@@std@@QAEXAAV?$allocator@U?$_Tree_node@U?$pair@$$CBKPAVCGuildMarkImage@@@std@@PAX@std@@@1@@Z
_TEXT	SEGMENT
__Al$ = 8						; size = 4
??$_Erase_head@V?$allocator@U?$_Tree_node@U?$pair@$$CBKPAVCGuildMarkImage@@@std@@PAX@std@@@std@@@?$_Tree_val@U?$_Tree_simple_types@U?$pair@$$CBKPAVCGuildMarkImage@@@std@@@std@@@std@@QAEXAAV?$allocator@U?$_Tree_node@U?$pair@$$CBKPAVCGuildMarkImage@@@std@@PAX@std@@@1@@Z PROC ; std::_Tree_val<std::_Tree_simple_types<std::pair<unsigned long const ,CGuildMarkImage *> > >::_Erase_head<std::allocator<std::_Tree_node<std::pair<unsigned long const ,CGuildMarkImage *>,void *> > >, COMDAT
; _this$ = ecx

; 752  :     void _Erase_head(_Alnode& _Al) noexcept {

  00000	55		 push	 ebp
  00001	8b ec		 mov	 ebp, esp
  00003	56		 push	 esi
  00004	8b f1		 mov	 esi, ecx

; 753  :         this->_Orphan_all();
; 754  :         _Erase_tree(_Al, _Myhead->_Parent);

  00006	8b 06		 mov	 eax, DWORD PTR [esi]
  00008	ff 70 04	 push	 DWORD PTR [eax+4]
  0000b	ff 75 08	 push	 DWORD PTR __Al$[ebp]
  0000e	e8 00 00 00 00	 call	 ??$_Erase_tree@V?$allocator@U?$_Tree_node@U?$pair@$$CBKPAVCGuildMarkImage@@@std@@PAX@std@@@std@@@?$_Tree_val@U?$_Tree_simple_types@U?$pair@$$CBKPAVCGuildMarkImage@@@std@@@std@@@std@@QAEXAAV?$allocator@U?$_Tree_node@U?$pair@$$CBKPAVCGuildMarkImage@@@std@@PAX@std@@@1@PAU?$_Tree_node@U?$pair@$$CBKPAVCGuildMarkImage@@@std@@PAX@1@@Z ; std::_Tree_val<std::_Tree_simple_types<std::pair<unsigned long const ,CGuildMarkImage *> > >::_Erase_tree<std::allocator<std::_Tree_node<std::pair<unsigned long const ,CGuildMarkImage *>,void *> > >
; File C:\Program Files\Microsoft Visual Studio\2022\Community\VC\Tools\MSVC\14.34.31933\include\xmemory

; 255  :         ::operator delete(_Ptr, _Bytes);

  00013	6a 18		 push	 24			; 00000018H
  00015	ff 36		 push	 DWORD PTR [esi]
  00017	e8 00 00 00 00	 call	 ??3@YAXPAXI@Z		; operator delete
  0001c	83 c4 08	 add	 esp, 8
  0001f	5e		 pop	 esi
; File C:\Program Files\Microsoft Visual Studio\2022\Community\VC\Tools\MSVC\14.34.31933\include\xtree

; 756  :     }

  00020	5d		 pop	 ebp
  00021	c2 04 00	 ret	 4
??$_Erase_head@V?$allocator@U?$_Tree_node@U?$pair@$$CBKPAVCGuildMarkImage@@@std@@PAX@std@@@std@@@?$_Tree_val@U?$_Tree_simple_types@U?$pair@$$CBKPAVCGuildMarkImage@@@std@@@std@@@std@@QAEXAAV?$allocator@U?$_Tree_node@U?$pair@$$CBKPAVCGuildMarkImage@@@std@@PAX@std@@@1@@Z ENDP ; std::_Tree_val<std::_Tree_simple_types<std::pair<unsigned long const ,CGuildMarkImage *> > >::_Erase_head<std::allocator<std::_Tree_node<std::pair<unsigned long const ,CGuildMarkImage *>,void *> > >
_TEXT	ENDS
; Function compile flags: /Ogtp
; File C:\Program Files\Microsoft Visual Studio\2022\Community\VC\Tools\MSVC\14.34.31933\include\xmemory
;	COMDAT ??$_Destroy_range@V?$allocator@E@std@@@std@@YAXPAEQAEAAV?$allocator@E@0@@Z
_TEXT	SEGMENT
__First$ = 8						; size = 4
__Last$ = 12						; size = 4
__Al$ = 16						; size = 4
??$_Destroy_range@V?$allocator@E@std@@@std@@YAXPAEQAEAAV?$allocator@E@0@@Z PROC ; std::_Destroy_range<std::allocator<unsigned char> >, COMDAT

; 944  :     // note that this is an optimization for debug mode codegen; in release mode the BE removes all of this
; 945  :     using _Ty = typename _Alloc::value_type;
; 946  :     if constexpr (!conjunction_v<is_trivially_destructible<_Ty>, _Uses_default_destroy<_Alloc, _Ty*>>) {
; 947  :         for (; _First != _Last; ++_First) {
; 948  :             allocator_traits<_Alloc>::destroy(_Al, _Unfancy(_First));
; 949  :         }
; 950  :     }
; 951  : }

  00000	c2 00 00	 ret	 0
??$_Destroy_range@V?$allocator@E@std@@@std@@YAXPAEQAEAAV?$allocator@E@0@@Z ENDP ; std::_Destroy_range<std::allocator<unsigned char> >
_TEXT	ENDS
; Function compile flags: /Ogtp
; File C:\Program Files\Microsoft Visual Studio\2022\Community\VC\Tools\MSVC\14.34.31933\include\vector
; File C:\Program Files\Microsoft Visual Studio\2022\Community\VC\Tools\MSVC\14.34.31933\include\xmemory
; File C:\Program Files\Microsoft Visual Studio\2022\Community\VC\Tools\MSVC\14.34.31933\include\vector
;	COMDAT ??$_Resize@U_Value_init_tag@std@@@?$vector@EV?$allocator@E@std@@@std@@AAEXIABU_Value_init_tag@1@@Z
_TEXT	SEGMENT
__Newsize$ = 8						; size = 4
__Val$ = 12						; size = 4
??$_Resize@U_Value_init_tag@std@@@?$vector@EV?$allocator@E@std@@@std@@AAEXIABU_Value_init_tag@1@@Z PROC ; std::vector<unsigned char,std::allocator<unsigned char> >::_Resize<std::_Value_init_tag>, COMDAT
; _this$ = ecx

; 1614 :     _CONSTEXPR20 void _Resize(const size_type _Newsize, const _Ty2& _Val) {

  00000	55		 push	 ebp
  00001	8b ec		 mov	 ebp, esp

; 1615 :         // trim or append elements, provide strong guarantee
; 1616 :         auto& _Al           = _Getal();
; 1617 :         auto& _My_data      = _Mypair._Myval2;
; 1618 :         pointer& _Myfirst   = _My_data._Myfirst;
; 1619 :         pointer& _Mylast    = _My_data._Mylast;
; 1620 :         const auto _Oldsize = static_cast<size_type>(_Mylast - _Myfirst);
; 1621 :         if (_Newsize < _Oldsize) { // trim

  00003	8b 55 08	 mov	 edx, DWORD PTR __Newsize$[ebp]
  00006	53		 push	 ebx
  00007	56		 push	 esi
  00008	57		 push	 edi
  00009	8b f9		 mov	 edi, ecx
  0000b	8b 5f 04	 mov	 ebx, DWORD PTR [edi+4]
  0000e	8b cb		 mov	 ecx, ebx
  00010	8b 37		 mov	 esi, DWORD PTR [edi]
  00012	2b ce		 sub	 ecx, esi
  00014	3b d1		 cmp	 edx, ecx
  00016	73 0d		 jae	 SHORT $LN2@Resize

; 1622 :             const pointer _Newlast = _Myfirst + _Newsize;

  00018	8d 04 16	 lea	 eax, DWORD PTR [esi+edx]

; 1623 :             _Orphan_range(_Newlast, _Mylast);
; 1624 :             _Destroy_range(_Newlast, _Mylast, _Al);
; 1625 :             _ASAN_VECTOR_MODIFY(static_cast<difference_type>(_Newsize - _Oldsize));
; 1626 :             _Mylast = _Newlast;

  0001b	89 47 04	 mov	 DWORD PTR [edi+4], eax
  0001e	5f		 pop	 edi

; 1644 :             }
; 1645 :             _ASAN_VECTOR_RELEASE_GUARD;
; 1646 :             _Orphan_range(_Oldlast, _Oldlast);
; 1647 :         }
; 1648 : 
; 1649 :         // if _Newsize == _Oldsize, do nothing; avoid invalidating iterators
; 1650 :     }

  0001f	5e		 pop	 esi
  00020	5b		 pop	 ebx
  00021	5d		 pop	 ebp
  00022	c2 08 00	 ret	 8
$LN2@Resize:

; 1627 :             return;
; 1628 :         }
; 1629 : 
; 1630 :         if (_Newsize > _Oldsize) { // append

  00025	76 2d		 jbe	 SHORT $LN3@Resize

; 1631 :             const auto _Oldcapacity = static_cast<size_type>(_My_data._Myend - _Myfirst);

  00027	8b 47 08	 mov	 eax, DWORD PTR [edi+8]
  0002a	2b c6		 sub	 eax, esi

; 1632 :             if (_Newsize > _Oldcapacity) { // reallocate

  0002c	3b d0		 cmp	 edx, eax
  0002e	76 12		 jbe	 SHORT $LN4@Resize

; 1633 :                 _Resize_reallocate(_Newsize, _Val);

  00030	ff 75 0c	 push	 DWORD PTR __Val$[ebp]
  00033	8b cf		 mov	 ecx, edi
  00035	52		 push	 edx
  00036	e8 00 00 00 00	 call	 ??$_Resize_reallocate@U_Value_init_tag@std@@@?$vector@EV?$allocator@E@std@@@std@@AAEXIABU_Value_init_tag@1@@Z ; std::vector<unsigned char,std::allocator<unsigned char> >::_Resize_reallocate<std::_Value_init_tag>
  0003b	5f		 pop	 edi

; 1644 :             }
; 1645 :             _ASAN_VECTOR_RELEASE_GUARD;
; 1646 :             _Orphan_range(_Oldlast, _Oldlast);
; 1647 :         }
; 1648 : 
; 1649 :         // if _Newsize == _Oldsize, do nothing; avoid invalidating iterators
; 1650 :     }

  0003c	5e		 pop	 esi
  0003d	5b		 pop	 ebx
  0003e	5d		 pop	 ebp
  0003f	c2 08 00	 ret	 8
$LN4@Resize:

; 1643 :                 _Mylast = _Uninitialized_value_construct_n(_Oldlast, _Newsize - _Oldsize, _Al);

  00042	2b d1		 sub	 edx, ecx
; File C:\Program Files\Microsoft Visual Studio\2022\Community\VC\Tools\MSVC\14.34.31933\include\xmemory

; 1896 :             _Zero_range(_PFirst, _PFirst + _Count);

  00044	8d 34 1a	 lea	 esi, DWORD PTR [edx+ebx]
  00047	56		 push	 esi
  00048	53		 push	 ebx
  00049	e8 00 00 00 00	 call	 ??$_Zero_range@PAE@std@@YAPAEQAE0@Z ; std::_Zero_range<unsigned char *>
  0004e	83 c4 08	 add	 esp, 8
; File C:\Program Files\Microsoft Visual Studio\2022\Community\VC\Tools\MSVC\14.34.31933\include\vector

; 1643 :                 _Mylast = _Uninitialized_value_construct_n(_Oldlast, _Newsize - _Oldsize, _Al);

  00051	89 77 04	 mov	 DWORD PTR [edi+4], esi
$LN3@Resize:

; 1644 :             }
; 1645 :             _ASAN_VECTOR_RELEASE_GUARD;
; 1646 :             _Orphan_range(_Oldlast, _Oldlast);
; 1647 :         }
; 1648 : 
; 1649 :         // if _Newsize == _Oldsize, do nothing; avoid invalidating iterators
; 1650 :     }

  00054	5f		 pop	 edi
  00055	5e		 pop	 esi
  00056	5b		 pop	 ebx
  00057	5d		 pop	 ebp
  00058	c2 08 00	 ret	 8
??$_Resize@U_Value_init_tag@std@@@?$vector@EV?$allocator@E@std@@@std@@AAEXIABU_Value_init_tag@1@@Z ENDP ; std::vector<unsigned char,std::allocator<unsigned char> >::_Resize<std::_Value_init_tag>
_TEXT	ENDS
; Function compile flags: /Ogtp
; File C:\Program Files\Microsoft Visual Studio\2022\Community\VC\Tools\MSVC\14.34.31933\include\xmemory
; File C:\Program Files\Microsoft Visual Studio\2022\Community\VC\Tools\MSVC\14.34.31933\include\vector
; File C:\Program Files\Microsoft Visual Studio\2022\Community\VC\Tools\MSVC\14.34.31933\include\xmemory
; File C:\Program Files\Microsoft Visual Studio\2022\Community\VC\Tools\MSVC\14.34.31933\include\vector
; File C:\Program Files\Microsoft Visual Studio\2022\Community\VC\Tools\MSVC\14.34.31933\include\xmemory
;	COMDAT ??$?0$$V@?$_Compressed_pair@V?$allocator@E@std@@V?$_Vector_val@U?$_Simple_types@E@std@@@2@$00@std@@QAE@U_Zero_then_variadic_args_t@1@@Z
_TEXT	SEGMENT
___formal$ = 8						; size = 1
??$?0$$V@?$_Compressed_pair@V?$allocator@E@std@@V?$_Vector_val@U?$_Simple_types@E@std@@@2@$00@std@@QAE@U_Zero_then_variadic_args_t@1@@Z PROC ; std::_Compressed_pair<std::allocator<unsigned char>,std::_Vector_val<std::_Simple_types<unsigned char> >,1>::_Compressed_pair<std::allocator<unsigned char>,std::_Vector_val<std::_Simple_types<unsigned char> >,1><>, COMDAT
; _this$ = ecx
; File C:\Program Files\Microsoft Visual Studio\2022\Community\VC\Tools\MSVC\14.34.31933\include\vector

; 390  :     _CONSTEXPR20 _Vector_val() noexcept : _Myfirst(), _Mylast(), _Myend() {}

  00000	c7 01 00 00 00
	00		 mov	 DWORD PTR [ecx], 0
; File C:\Program Files\Microsoft Visual Studio\2022\Community\VC\Tools\MSVC\14.34.31933\include\xmemory

; 1376 :         : _Ty1(), _Myval2(_STD forward<_Other2>(_Val2)...) {}

  00006	8b c1		 mov	 eax, ecx
; File C:\Program Files\Microsoft Visual Studio\2022\Community\VC\Tools\MSVC\14.34.31933\include\vector

; 390  :     _CONSTEXPR20 _Vector_val() noexcept : _Myfirst(), _Mylast(), _Myend() {}

  00008	c7 41 04 00 00
	00 00		 mov	 DWORD PTR [ecx+4], 0
  0000f	c7 41 08 00 00
	00 00		 mov	 DWORD PTR [ecx+8], 0
; File C:\Program Files\Microsoft Visual Studio\2022\Community\VC\Tools\MSVC\14.34.31933\include\xmemory

; 1376 :         : _Ty1(), _Myval2(_STD forward<_Other2>(_Val2)...) {}

  00016	c2 04 00	 ret	 4
??$?0$$V@?$_Compressed_pair@V?$allocator@E@std@@V?$_Vector_val@U?$_Simple_types@E@std@@@2@$00@std@@QAE@U_Zero_then_variadic_args_t@1@@Z ENDP ; std::_Compressed_pair<std::allocator<unsigned char>,std::_Vector_val<std::_Simple_types<unsigned char> >,1>::_Compressed_pair<std::allocator<unsigned char>,std::_Vector_val<std::_Simple_types<unsigned char> >,1><>
_TEXT	ENDS
; Function compile flags: /Ogtp
; File C:\Program Files\Microsoft Visual Studio\2022\Community\VC\Tools\MSVC\14.34.31933\include\xstddef
;	COMDAT ??$addressof@U?$pair@$$CBKPAVCGuildMarkImage@@@std@@@std@@YAPAU?$pair@$$CBKPAVCGuildMarkImage@@@0@AAU10@@Z
_TEXT	SEGMENT
??$addressof@U?$pair@$$CBKPAVCGuildMarkImage@@@std@@@std@@YAPAU?$pair@$$CBKPAVCGuildMarkImage@@@0@AAU10@@Z PROC ; std::addressof<std::pair<unsigned long const ,CGuildMarkImage *> >, COMDAT
; __Val$ = ecx

; 281  :     return __builtin_addressof(_Val);

  00000	8b c1		 mov	 eax, ecx

; 282  : }

  00002	c3		 ret	 0
??$addressof@U?$pair@$$CBKPAVCGuildMarkImage@@@std@@@std@@YAPAU?$pair@$$CBKPAVCGuildMarkImage@@@0@AAU10@@Z ENDP ; std::addressof<std::pair<unsigned long const ,CGuildMarkImage *> >
_TEXT	ENDS
; Function compile flags: /Ogtp
; File C:\Program Files\Microsoft Visual Studio\2022\Community\VC\Tools\MSVC\14.34.31933\include\xstddef
;	COMDAT ??$addressof@U?$pair@$$CBKUTGuildSymbol@CGuildMarkManager@@@std@@@std@@YAPAU?$pair@$$CBKUTGuildSymbol@CGuildMarkManager@@@0@AAU10@@Z
_TEXT	SEGMENT
??$addressof@U?$pair@$$CBKUTGuildSymbol@CGuildMarkManager@@@std@@@std@@YAPAU?$pair@$$CBKUTGuildSymbol@CGuildMarkManager@@@0@AAU10@@Z PROC ; std::addressof<std::pair<unsigned long const ,CGuildMarkManager::TGuildSymbol> >, COMDAT
; __Val$ = ecx

; 281  :     return __builtin_addressof(_Val);

  00000	8b c1		 mov	 eax, ecx

; 282  : }

  00002	c3		 ret	 0
??$addressof@U?$pair@$$CBKUTGuildSymbol@CGuildMarkManager@@@std@@@std@@YAPAU?$pair@$$CBKUTGuildSymbol@CGuildMarkManager@@@0@AAU10@@Z ENDP ; std::addressof<std::pair<unsigned long const ,CGuildMarkManager::TGuildSymbol> >
_TEXT	ENDS
; Function compile flags: /Ogtp
; File C:\Program Files\Microsoft Visual Studio\2022\Community\VC\Tools\MSVC\14.34.31933\include\xstddef
;	COMDAT ??$addressof@V?$_Tree_val@U?$_Tree_simple_types@U?$pair@$$CBKUTGuildSymbol@CGuildMarkManager@@@std@@@std@@@std@@@std@@YAPAV?$_Tree_val@U?$_Tree_simple_types@U?$pair@$$CBKUTGuildSymbol@CGuildMarkManager@@@std@@@std@@@0@AAV10@@Z
_TEXT	SEGMENT
??$addressof@V?$_Tree_val@U?$_Tree_simple_types@U?$pair@$$CBKUTGuildSymbol@CGuildMarkManager@@@std@@@std@@@std@@@std@@YAPAV?$_Tree_val@U?$_Tree_simple_types@U?$pair@$$CBKUTGuildSymbol@CGuildMarkManager@@@std@@@std@@@0@AAV10@@Z PROC ; std::addressof<std::_Tree_val<std::_Tree_simple_types<std::pair<unsigned long const ,CGuildMarkManager::TGuildSymbol> > > >, COMDAT
; __Val$ = ecx

; 281  :     return __builtin_addressof(_Val);

  00000	8b c1		 mov	 eax, ecx

; 282  : }

  00002	c3		 ret	 0
??$addressof@V?$_Tree_val@U?$_Tree_simple_types@U?$pair@$$CBKUTGuildSymbol@CGuildMarkManager@@@std@@@std@@@std@@@std@@YAPAV?$_Tree_val@U?$_Tree_simple_types@U?$pair@$$CBKUTGuildSymbol@CGuildMarkManager@@@std@@@std@@@0@AAV10@@Z ENDP ; std::addressof<std::_Tree_val<std::_Tree_simple_types<std::pair<unsigned long const ,CGuildMarkManager::TGuildSymbol> > > >
_TEXT	ENDS
; Function compile flags: /Ogtp
; File C:\Program Files\Microsoft Visual Studio\2022\Community\VC\Tools\MSVC\14.34.31933\include\xmemory
; File C:\Program Files\Microsoft Visual Studio\2022\Community\VC\Tools\MSVC\14.34.31933\include\xtree
; File C:\Program Files\Microsoft Visual Studio\2022\Community\VC\Tools\MSVC\14.34.31933\include\xmemory
; File C:\Program Files\Microsoft Visual Studio\2022\Community\VC\Tools\MSVC\14.34.31933\include\xtree
; File C:\Program Files\Microsoft Visual Studio\2022\Community\VC\Tools\MSVC\14.34.31933\include\xmemory
;	COMDAT ??$?0ABU?$less@K@std@@U_Zero_then_variadic_args_t@1@@?$_Compressed_pair@U?$less@K@std@@V?$_Compressed_pair@V?$allocator@U?$_Tree_node@U?$pair@$$CBKUTGuildSymbol@CGuildMarkManager@@@std@@PAX@std@@@std@@V?$_Tree_val@U?$_Tree_simple_types@U?$pair@$$CBKUTGuildSymbol@CGuildMarkManager@@@std@@@std@@@2@$00@2@$00@std@@QAE@U_One_then_variadic_args_t@1@ABU?$less@K@1@$$QAU_Zero_then_variadic_args_t@1@@Z
_TEXT	SEGMENT
___formal$ = 8						; size = 1
__Val1$dead$ = 12					; size = 4
_<_Val2_0>$dead$ = 16					; size = 4
??$?0ABU?$less@K@std@@U_Zero_then_variadic_args_t@1@@?$_Compressed_pair@U?$less@K@std@@V?$_Compressed_pair@V?$allocator@U?$_Tree_node@U?$pair@$$CBKUTGuildSymbol@CGuildMarkManager@@@std@@PAX@std@@@std@@V?$_Tree_val@U?$_Tree_simple_types@U?$pair@$$CBKUTGuildSymbol@CGuildMarkManager@@@std@@@std@@@2@$00@2@$00@std@@QAE@U_One_then_variadic_args_t@1@ABU?$less@K@1@$$QAU_Zero_then_variadic_args_t@1@@Z PROC ; std::_Compressed_pair<std::less<unsigned long>,std::_Compressed_pair<std::allocator<std::_Tree_node<std::pair<unsigned long const ,CGuildMarkManager::TGuildSymbol>,void *> >,std::_Tree_val<std::_Tree_simple_types<std::pair<unsigned long const ,CGuildMarkManager::TGuildSymbol> > >,1>,1>::_Compressed_pair<std::less<unsigned long>,std::_Compressed_pair<std::allocator<std::_Tree_node<std::pair<unsigned long const ,CGuildMarkManager::TGuildSymbol>,void *> >,std::_Tree_val<std::_Tree_simple_types<std::pair<unsigned long const ,CGuildMarkManager::TGuildSymbol> > >,1>,1><std::less<unsigned long> const &,std::_Zero_then_variadic_args_t>, COMDAT
; _this$ = ecx
; File C:\Program Files\Microsoft Visual Studio\2022\Community\VC\Tools\MSVC\14.34.31933\include\xtree

; 437  :     _Tree_val() noexcept : _Myhead(), _Mysize(0) {}

  00000	c7 01 00 00 00
	00		 mov	 DWORD PTR [ecx], 0
; File C:\Program Files\Microsoft Visual Studio\2022\Community\VC\Tools\MSVC\14.34.31933\include\xmemory

; 1381 :         : _Ty1(_STD forward<_Other1>(_Val1)), _Myval2(_STD forward<_Other2>(_Val2)...) {}

  00006	8b c1		 mov	 eax, ecx
; File C:\Program Files\Microsoft Visual Studio\2022\Community\VC\Tools\MSVC\14.34.31933\include\xtree

; 437  :     _Tree_val() noexcept : _Myhead(), _Mysize(0) {}

  00008	c7 41 04 00 00
	00 00		 mov	 DWORD PTR [ecx+4], 0
; File C:\Program Files\Microsoft Visual Studio\2022\Community\VC\Tools\MSVC\14.34.31933\include\xmemory

; 1381 :         : _Ty1(_STD forward<_Other1>(_Val1)), _Myval2(_STD forward<_Other2>(_Val2)...) {}

  0000f	c2 0c 00	 ret	 12			; 0000000cH
??$?0ABU?$less@K@std@@U_Zero_then_variadic_args_t@1@@?$_Compressed_pair@U?$less@K@std@@V?$_Compressed_pair@V?$allocator@U?$_Tree_node@U?$pair@$$CBKUTGuildSymbol@CGuildMarkManager@@@std@@PAX@std@@@std@@V?$_Tree_val@U?$_Tree_simple_types@U?$pair@$$CBKUTGuildSymbol@CGuildMarkManager@@@std@@@std@@@2@$00@2@$00@std@@QAE@U_One_then_variadic_args_t@1@ABU?$less@K@1@$$QAU_Zero_then_variadic_args_t@1@@Z ENDP ; std::_Compressed_pair<std::less<unsigned long>,std::_Compressed_pair<std::allocator<std::_Tree_node<std::pair<unsigned long const ,CGuildMarkManager::TGuildSymbol>,void *> >,std::_Tree_val<std::_Tree_simple_types<std::pair<unsigned long const ,CGuildMarkManager::TGuildSymbol> > >,1>,1>::_Compressed_pair<std::less<unsigned long>,std::_Compressed_pair<std::allocator<std::_Tree_node<std::pair<unsigned long const ,CGuildMarkManager::TGuildSymbol>,void *> >,std::_Tree_val<std::_Tree_simple_types<std::pair<unsigned long const ,CGuildMarkManager::TGuildSymbol> > >,1>,1><std::less<unsigned long> const &,std::_Zero_then_variadic_args_t>
_TEXT	ENDS
; Function compile flags: /Ogtp
; File C:\Program Files\Microsoft Visual Studio\2022\Community\VC\Tools\MSVC\14.34.31933\include\xstddef
;	COMDAT ??$addressof@$$CBV?$_Tree_val@U?$_Tree_simple_types@U?$pair@$$CBKPAVCGuildMarkImage@@@std@@@std@@@std@@@std@@YAPBV?$_Tree_val@U?$_Tree_simple_types@U?$pair@$$CBKPAVCGuildMarkImage@@@std@@@std@@@0@ABV10@@Z
_TEXT	SEGMENT
??$addressof@$$CBV?$_Tree_val@U?$_Tree_simple_types@U?$pair@$$CBKPAVCGuildMarkImage@@@std@@@std@@@std@@@std@@YAPBV?$_Tree_val@U?$_Tree_simple_types@U?$pair@$$CBKPAVCGuildMarkImage@@@std@@@std@@@0@ABV10@@Z PROC ; std::addressof<std::_Tree_val<std::_Tree_simple_types<std::pair<unsigned long const ,CGuildMarkImage *> > > const >, COMDAT
; __Val$ = ecx

; 281  :     return __builtin_addressof(_Val);

  00000	8b c1		 mov	 eax, ecx

; 282  : }

  00002	c3		 ret	 0
??$addressof@$$CBV?$_Tree_val@U?$_Tree_simple_types@U?$pair@$$CBKPAVCGuildMarkImage@@@std@@@std@@@std@@@std@@YAPBV?$_Tree_val@U?$_Tree_simple_types@U?$pair@$$CBKPAVCGuildMarkImage@@@std@@@std@@@0@ABV10@@Z ENDP ; std::addressof<std::_Tree_val<std::_Tree_simple_types<std::pair<unsigned long const ,CGuildMarkImage *> > > const >
_TEXT	ENDS
; Function compile flags: /Ogtp
; File C:\Program Files\Microsoft Visual Studio\2022\Community\VC\Tools\MSVC\14.34.31933\include\xstddef
;	COMDAT ??$addressof@V?$_Tree_val@U?$_Tree_simple_types@U?$pair@$$CBKPAVCGuildMarkImage@@@std@@@std@@@std@@@std@@YAPAV?$_Tree_val@U?$_Tree_simple_types@U?$pair@$$CBKPAVCGuildMarkImage@@@std@@@std@@@0@AAV10@@Z
_TEXT	SEGMENT
??$addressof@V?$_Tree_val@U?$_Tree_simple_types@U?$pair@$$CBKPAVCGuildMarkImage@@@std@@@std@@@std@@@std@@YAPAV?$_Tree_val@U?$_Tree_simple_types@U?$pair@$$CBKPAVCGuildMarkImage@@@std@@@std@@@0@AAV10@@Z PROC ; std::addressof<std::_Tree_val<std::_Tree_simple_types<std::pair<unsigned long const ,CGuildMarkImage *> > > >, COMDAT
; __Val$ = ecx

; 281  :     return __builtin_addressof(_Val);

  00000	8b c1		 mov	 eax, ecx

; 282  : }

  00002	c3		 ret	 0
??$addressof@V?$_Tree_val@U?$_Tree_simple_types@U?$pair@$$CBKPAVCGuildMarkImage@@@std@@@std@@@std@@@std@@YAPAV?$_Tree_val@U?$_Tree_simple_types@U?$pair@$$CBKPAVCGuildMarkImage@@@std@@@std@@@0@AAV10@@Z ENDP ; std::addressof<std::_Tree_val<std::_Tree_simple_types<std::pair<unsigned long const ,CGuildMarkImage *> > > >
_TEXT	ENDS
; Function compile flags: /Ogtp
; File C:\Program Files\Microsoft Visual Studio\2022\Community\VC\Tools\MSVC\14.34.31933\include\xmemory
; File C:\Program Files\Microsoft Visual Studio\2022\Community\VC\Tools\MSVC\14.34.31933\include\xtree
; File C:\Program Files\Microsoft Visual Studio\2022\Community\VC\Tools\MSVC\14.34.31933\include\xmemory
; File C:\Program Files\Microsoft Visual Studio\2022\Community\VC\Tools\MSVC\14.34.31933\include\xtree
; File C:\Program Files\Microsoft Visual Studio\2022\Community\VC\Tools\MSVC\14.34.31933\include\xmemory
;	COMDAT ??$?0ABU?$less@K@std@@U_Zero_then_variadic_args_t@1@@?$_Compressed_pair@U?$less@K@std@@V?$_Compressed_pair@V?$allocator@U?$_Tree_node@U?$pair@$$CBKPAVCGuildMarkImage@@@std@@PAX@std@@@std@@V?$_Tree_val@U?$_Tree_simple_types@U?$pair@$$CBKPAVCGuildMarkImage@@@std@@@std@@@2@$00@2@$00@std@@QAE@U_One_then_variadic_args_t@1@ABU?$less@K@1@$$QAU_Zero_then_variadic_args_t@1@@Z
_TEXT	SEGMENT
___formal$ = 8						; size = 1
__Val1$dead$ = 12					; size = 4
_<_Val2_0>$dead$ = 16					; size = 4
??$?0ABU?$less@K@std@@U_Zero_then_variadic_args_t@1@@?$_Compressed_pair@U?$less@K@std@@V?$_Compressed_pair@V?$allocator@U?$_Tree_node@U?$pair@$$CBKPAVCGuildMarkImage@@@std@@PAX@std@@@std@@V?$_Tree_val@U?$_Tree_simple_types@U?$pair@$$CBKPAVCGuildMarkImage@@@std@@@std@@@2@$00@2@$00@std@@QAE@U_One_then_variadic_args_t@1@ABU?$less@K@1@$$QAU_Zero_then_variadic_args_t@1@@Z PROC ; std::_Compressed_pair<std::less<unsigned long>,std::_Compressed_pair<std::allocator<std::_Tree_node<std::pair<unsigned long const ,CGuildMarkImage *>,void *> >,std::_Tree_val<std::_Tree_simple_types<std::pair<unsigned long const ,CGuildMarkImage *> > >,1>,1>::_Compressed_pair<std::less<unsigned long>,std::_Compressed_pair<std::allocator<std::_Tree_node<std::pair<unsigned long const ,CGuildMarkImage *>,void *> >,std::_Tree_val<std::_Tree_simple_types<std::pair<unsigned long const ,CGuildMarkImage *> > >,1>,1><std::less<unsigned long> const &,std::_Zero_then_variadic_args_t>, COMDAT
; _this$ = ecx
; File C:\Program Files\Microsoft Visual Studio\2022\Community\VC\Tools\MSVC\14.34.31933\include\xtree

; 437  :     _Tree_val() noexcept : _Myhead(), _Mysize(0) {}

  00000	c7 01 00 00 00
	00		 mov	 DWORD PTR [ecx], 0
; File C:\Program Files\Microsoft Visual Studio\2022\Community\VC\Tools\MSVC\14.34.31933\include\xmemory

; 1381 :         : _Ty1(_STD forward<_Other1>(_Val1)), _Myval2(_STD forward<_Other2>(_Val2)...) {}

  00006	8b c1		 mov	 eax, ecx
; File C:\Program Files\Microsoft Visual Studio\2022\Community\VC\Tools\MSVC\14.34.31933\include\xtree

; 437  :     _Tree_val() noexcept : _Myhead(), _Mysize(0) {}

  00008	c7 41 04 00 00
	00 00		 mov	 DWORD PTR [ecx+4], 0
; File C:\Program Files\Microsoft Visual Studio\2022\Community\VC\Tools\MSVC\14.34.31933\include\xmemory

; 1381 :         : _Ty1(_STD forward<_Other1>(_Val1)), _Myval2(_STD forward<_Other2>(_Val2)...) {}

  0000f	c2 0c 00	 ret	 12			; 0000000cH
??$?0ABU?$less@K@std@@U_Zero_then_variadic_args_t@1@@?$_Compressed_pair@U?$less@K@std@@V?$_Compressed_pair@V?$allocator@U?$_Tree_node@U?$pair@$$CBKPAVCGuildMarkImage@@@std@@PAX@std@@@std@@V?$_Tree_val@U?$_Tree_simple_types@U?$pair@$$CBKPAVCGuildMarkImage@@@std@@@std@@@2@$00@2@$00@std@@QAE@U_One_then_variadic_args_t@1@ABU?$less@K@1@$$QAU_Zero_then_variadic_args_t@1@@Z ENDP ; std::_Compressed_pair<std::less<unsigned long>,std::_Compressed_pair<std::allocator<std::_Tree_node<std::pair<unsigned long const ,CGuildMarkImage *>,void *> >,std::_Tree_val<std::_Tree_simple_types<std::pair<unsigned long const ,CGuildMarkImage *> > >,1>,1>::_Compressed_pair<std::less<unsigned long>,std::_Compressed_pair<std::allocator<std::_Tree_node<std::pair<unsigned long const ,CGuildMarkImage *>,void *> >,std::_Tree_val<std::_Tree_simple_types<std::pair<unsigned long const ,CGuildMarkImage *> > >,1>,1><std::less<unsigned long> const &,std::_Zero_then_variadic_args_t>
_TEXT	ENDS
; Function compile flags: /Ogtp
; File C:\Program Files\Microsoft Visual Studio\2022\Community\VC\Tools\MSVC\14.34.31933\include\xutility
;	COMDAT ??$_Get_unwrapped@ABQAE@std@@YA?A_TABQAE@Z
_TEXT	SEGMENT
??$_Get_unwrapped@ABQAE@std@@YA?A_TABQAE@Z PROC		; std::_Get_unwrapped<unsigned char * const &>, COMDAT
; __It$ = ecx

; 912  :     // unwrap an iterator previously subjected to _Adl_verify_range or otherwise validated
; 913  :     if constexpr (is_pointer_v<decay_t<_Iter>>) { // special-case pointers and arrays
; 914  :         return _It + 0;

  00000	8b 01		 mov	 eax, DWORD PTR [ecx]

; 915  :     } else if constexpr (_Unwrappable_v<_Iter>) {
; 916  :         return static_cast<_Iter&&>(_It)._Unwrapped();
; 917  :     } else {
; 918  :         return static_cast<_Iter&&>(_It);
; 919  :     }
; 920  : }

  00002	c3		 ret	 0
??$_Get_unwrapped@ABQAE@std@@YA?A_TABQAE@Z ENDP		; std::_Get_unwrapped<unsigned char * const &>
_TEXT	ENDS
; Function compile flags: /Ogtp
; File C:\Program Files\Microsoft Visual Studio\2022\Community\VC\Tools\MSVC\14.34.31933\include\xmemory
;	COMDAT ??$_Uninitialized_move@PAEV?$allocator@E@std@@@std@@YAPAEQAE0PAEAAV?$allocator@E@0@@Z
_TEXT	SEGMENT
__First$ = 8						; size = 4
__Last$ = 12						; size = 4
__Dest$ = 16						; size = 4
__Al$ = 20						; size = 4
??$_Uninitialized_move@PAEV?$allocator@E@std@@@std@@YAPAEQAE0PAEAAV?$allocator@E@0@@Z PROC ; std::_Uninitialized_move<unsigned char *,std::allocator<unsigned char> >, COMDAT

; 1788 :     const _InIt _First, const _InIt _Last, _Alloc_ptr_t<_Alloc> _Dest, _Alloc& _Al) {

  00000	55		 push	 ebp
  00001	8b ec		 mov	 ebp, esp
  00003	57		 push	 edi

; 1789 :     // move [_First, _Last) to raw _Dest, using _Al
; 1790 :     // note: only called internally from elsewhere in the STL
; 1791 :     using _Ptrval     = typename _Alloc::value_type*;
; 1792 :     auto _UFirst      = _Get_unwrapped(_First);
; 1793 :     const auto _ULast = _Get_unwrapped(_Last);
; 1794 :     if constexpr (conjunction_v<bool_constant<_Iter_move_cat<decltype(_UFirst), _Ptrval>::_Bitcopy_constructible>,
; 1795 :                       _Uses_default_construct<_Alloc, _Ptrval, decltype(_STD move(*_UFirst))>>) {
; 1796 : #if _HAS_CXX20
; 1797 :         if (!_STD is_constant_evaluated())
; 1798 : #endif // _HAS_CXX20
; 1799 :         {
; 1800 :             _Copy_memmove(_UFirst, _ULast, _Unfancy(_Dest));

  00004	ff 75 10	 push	 DWORD PTR __Dest$[ebp]
  00007	8b 7d 0c	 mov	 edi, DWORD PTR __Last$[ebp]
  0000a	57		 push	 edi
  0000b	ff 75 08	 push	 DWORD PTR __First$[ebp]
  0000e	e8 00 00 00 00	 call	 ??$_Copy_memmove@PAEPAE@std@@YAPAEPAE00@Z ; std::_Copy_memmove<unsigned char *,unsigned char *>

; 1801 :             return _Dest + (_ULast - _UFirst);

  00013	2b 7d 08	 sub	 edi, DWORD PTR __First$[ebp]
  00016	83 c4 0c	 add	 esp, 12			; 0000000cH
  00019	03 7d 10	 add	 edi, DWORD PTR __Dest$[ebp]
  0001c	8b c7		 mov	 eax, edi
  0001e	5f		 pop	 edi

; 1802 :         }
; 1803 :     }
; 1804 : 
; 1805 :     _Uninitialized_backout_al<_Alloc> _Backout{_Dest, _Al};
; 1806 :     for (; _UFirst != _ULast; ++_UFirst) {
; 1807 :         _Backout._Emplace_back(_STD move(*_UFirst));
; 1808 :     }
; 1809 : 
; 1810 :     return _Backout._Release();
; 1811 : }

  0001f	5d		 pop	 ebp
  00020	c3		 ret	 0
??$_Uninitialized_move@PAEV?$allocator@E@std@@@std@@YAPAEQAE0PAEAAV?$allocator@E@0@@Z ENDP ; std::_Uninitialized_move<unsigned char *,std::allocator<unsigned char> >
_TEXT	ENDS
; Function compile flags: /Ogtp
; File C:\Program Files\Microsoft Visual Studio\2022\Community\VC\Tools\MSVC\14.34.31933\include\xtree
; File C:\Program Files\Microsoft Visual Studio\2022\Community\VC\Tools\MSVC\14.34.31933\include\xmemory
; File C:\Program Files\Microsoft Visual Studio\2022\Community\VC\Tools\MSVC\14.34.31933\include\xtree
;	COMDAT ??$_Buyheadnode@V?$allocator@U?$_Tree_node@U?$pair@$$CBKUTGuildSymbol@CGuildMarkManager@@@std@@PAX@std@@@std@@@?$_Tree_node@U?$pair@$$CBKUTGuildSymbol@CGuildMarkManager@@@std@@PAX@std@@SAPAU01@AAV?$allocator@U?$_Tree_node@U?$pair@$$CBKUTGuildSymbol@CGuildMarkManager@@@std@@PAX@std@@@1@@Z
_TEXT	SEGMENT
??$_Buyheadnode@V?$allocator@U?$_Tree_node@U?$pair@$$CBKUTGuildSymbol@CGuildMarkManager@@@std@@PAX@std@@@std@@@?$_Tree_node@U?$pair@$$CBKUTGuildSymbol@CGuildMarkManager@@@std@@PAX@std@@SAPAU01@AAV?$allocator@U?$_Tree_node@U?$pair@$$CBKUTGuildSymbol@CGuildMarkManager@@@std@@PAX@std@@@1@@Z PROC ; std::_Tree_node<std::pair<unsigned long const ,CGuildMarkManager::TGuildSymbol>,void *>::_Buyheadnode<std::allocator<std::_Tree_node<std::pair<unsigned long const ,CGuildMarkManager::TGuildSymbol>,void *> > >, COMDAT
; __Al$dead$ = ecx
; File C:\Program Files\Microsoft Visual Studio\2022\Community\VC\Tools\MSVC\14.34.31933\include\xmemory

; 77   :         return ::operator new(_Bytes);

  00000	6a 24		 push	 36			; 00000024H
  00002	e8 00 00 00 00	 call	 ??2@YAPAXI@Z		; operator new
  00007	83 c4 04	 add	 esp, 4
; File C:\Program Files\Microsoft Visual Studio\2022\Community\VC\Tools\MSVC\14.34.31933\include\xtree

; 347  :         _Construct_in_place(_Pnode->_Left, _Pnode);

  0000a	89 00		 mov	 DWORD PTR [eax], eax

; 348  :         _Construct_in_place(_Pnode->_Parent, _Pnode);

  0000c	89 40 04	 mov	 DWORD PTR [eax+4], eax

; 349  :         _Construct_in_place(_Pnode->_Right, _Pnode);

  0000f	89 40 08	 mov	 DWORD PTR [eax+8], eax

; 350  :         _Pnode->_Color = _Black;

  00012	66 c7 40 0c 01
	01		 mov	 WORD PTR [eax+12], 257	; 00000101H

; 351  :         _Pnode->_Isnil = true;
; 352  :         return _Pnode;
; 353  :     }

  00018	c3		 ret	 0
??$_Buyheadnode@V?$allocator@U?$_Tree_node@U?$pair@$$CBKUTGuildSymbol@CGuildMarkManager@@@std@@PAX@std@@@std@@@?$_Tree_node@U?$pair@$$CBKUTGuildSymbol@CGuildMarkManager@@@std@@PAX@std@@SAPAU01@AAV?$allocator@U?$_Tree_node@U?$pair@$$CBKUTGuildSymbol@CGuildMarkManager@@@std@@PAX@std@@@1@@Z ENDP ; std::_Tree_node<std::pair<unsigned long const ,CGuildMarkManager::TGuildSymbol>,void *>::_Buyheadnode<std::allocator<std::_Tree_node<std::pair<unsigned long const ,CGuildMarkManager::TGuildSymbol>,void *> > >
_TEXT	ENDS
; Function compile flags: /Ogtp
; File C:\Program Files\Microsoft Visual Studio\2022\Community\VC\Tools\MSVC\14.34.31933\include\xtree
; File C:\Program Files\Microsoft Visual Studio\2022\Community\VC\Tools\MSVC\14.34.31933\include\xmemory
; File C:\Program Files\Microsoft Visual Studio\2022\Community\VC\Tools\MSVC\14.34.31933\include\xtree
;	COMDAT ??$_Buyheadnode@V?$allocator@U?$_Tree_node@U?$pair@$$CBKPAVCGuildMarkImage@@@std@@PAX@std@@@std@@@?$_Tree_node@U?$pair@$$CBKPAVCGuildMarkImage@@@std@@PAX@std@@SAPAU01@AAV?$allocator@U?$_Tree_node@U?$pair@$$CBKPAVCGuildMarkImage@@@std@@PAX@std@@@1@@Z
_TEXT	SEGMENT
??$_Buyheadnode@V?$allocator@U?$_Tree_node@U?$pair@$$CBKPAVCGuildMarkImage@@@std@@PAX@std@@@std@@@?$_Tree_node@U?$pair@$$CBKPAVCGuildMarkImage@@@std@@PAX@std@@SAPAU01@AAV?$allocator@U?$_Tree_node@U?$pair@$$CBKPAVCGuildMarkImage@@@std@@PAX@std@@@1@@Z PROC ; std::_Tree_node<std::pair<unsigned long const ,CGuildMarkImage *>,void *>::_Buyheadnode<std::allocator<std::_Tree_node<std::pair<unsigned long const ,CGuildMarkImage *>,void *> > >, COMDAT
; __Al$dead$ = ecx
; File C:\Program Files\Microsoft Visual Studio\2022\Community\VC\Tools\MSVC\14.34.31933\include\xmemory

; 77   :         return ::operator new(_Bytes);

  00000	6a 18		 push	 24			; 00000018H
  00002	e8 00 00 00 00	 call	 ??2@YAPAXI@Z		; operator new
  00007	83 c4 04	 add	 esp, 4
; File C:\Program Files\Microsoft Visual Studio\2022\Community\VC\Tools\MSVC\14.34.31933\include\xtree

; 347  :         _Construct_in_place(_Pnode->_Left, _Pnode);

  0000a	89 00		 mov	 DWORD PTR [eax], eax

; 348  :         _Construct_in_place(_Pnode->_Parent, _Pnode);

  0000c	89 40 04	 mov	 DWORD PTR [eax+4], eax

; 349  :         _Construct_in_place(_Pnode->_Right, _Pnode);

  0000f	89 40 08	 mov	 DWORD PTR [eax+8], eax

; 350  :         _Pnode->_Color = _Black;

  00012	66 c7 40 0c 01
	01		 mov	 WORD PTR [eax+12], 257	; 00000101H

; 351  :         _Pnode->_Isnil = true;
; 352  :         return _Pnode;
; 353  :     }

  00018	c3		 ret	 0
??$_Buyheadnode@V?$allocator@U?$_Tree_node@U?$pair@$$CBKPAVCGuildMarkImage@@@std@@PAX@std@@@std@@@?$_Tree_node@U?$pair@$$CBKPAVCGuildMarkImage@@@std@@PAX@std@@SAPAU01@AAV?$allocator@U?$_Tree_node@U?$pair@$$CBKPAVCGuildMarkImage@@@std@@PAX@std@@@1@@Z ENDP ; std::_Tree_node<std::pair<unsigned long const ,CGuildMarkImage *>,void *>::_Buyheadnode<std::allocator<std::_Tree_node<std::pair<unsigned long const ,CGuildMarkImage *>,void *> > >
_TEXT	ENDS
; Function compile flags: /Ogtp
; File C:\Program Files\Microsoft Visual Studio\2022\Community\VC\Tools\MSVC\14.34.31933\include\xmemory
;	COMDAT ?_Release@?$_Uninitialized_backout_al@V?$allocator@E@std@@@std@@QAEPAEXZ
_TEXT	SEGMENT
?_Release@?$_Uninitialized_backout_al@V?$allocator@E@std@@@std@@QAEPAEXZ PROC ; std::_Uninitialized_backout_al<std::allocator<unsigned char> >::_Release, COMDAT
; _this$ = ecx

; 1668 :         _First = _Last;

  00000	8b 41 04	 mov	 eax, DWORD PTR [ecx+4]
  00003	89 01		 mov	 DWORD PTR [ecx], eax

; 1669 :         return _Last;
; 1670 :     }

  00005	c3		 ret	 0
?_Release@?$_Uninitialized_backout_al@V?$allocator@E@std@@@std@@QAEPAEXZ ENDP ; std::_Uninitialized_backout_al<std::allocator<unsigned char> >::_Release
_TEXT	ENDS
; Function compile flags: /Ogtp
; File C:\Program Files\Microsoft Visual Studio\2022\Community\VC\Tools\MSVC\14.34.31933\include\xmemory
;	COMDAT ??1?$_Uninitialized_backout_al@V?$allocator@E@std@@@std@@QAE@XZ
_TEXT	SEGMENT
??1?$_Uninitialized_backout_al@V?$allocator@E@std@@@std@@QAE@XZ PROC ; std::_Uninitialized_backout_al<std::allocator<unsigned char> >::~_Uninitialized_backout_al<std::allocator<unsigned char> >, COMDAT
; _this$ = ecx

; 1658 :         _Destroy_range(_First, _Last, _Al);
; 1659 :     }

  00000	c2 00 00	 ret	 0
??1?$_Uninitialized_backout_al@V?$allocator@E@std@@@std@@QAE@XZ ENDP ; std::_Uninitialized_backout_al<std::allocator<unsigned char> >::~_Uninitialized_backout_al<std::allocator<unsigned char> >
_TEXT	ENDS
; Function compile flags: /Ogtp
; File C:\Program Files\Microsoft Visual Studio\2022\Community\VC\Tools\MSVC\14.34.31933\include\xmemory
;	COMDAT ??0?$_Uninitialized_backout_al@V?$allocator@E@std@@@std@@QAE@PAEAAV?$allocator@E@1@@Z
_TEXT	SEGMENT
__Dest$ = 8						; size = 4
__Al_$ = 12						; size = 4
??0?$_Uninitialized_backout_al@V?$allocator@E@std@@@std@@QAE@PAEAAV?$allocator@E@1@@Z PROC ; std::_Uninitialized_backout_al<std::allocator<unsigned char> >::_Uninitialized_backout_al<std::allocator<unsigned char> >, COMDAT
; _this$ = ecx

; 1652 :     _CONSTEXPR20 _Uninitialized_backout_al(pointer _Dest, _Alloc& _Al_) : _First(_Dest), _Last(_Dest), _Al(_Al_) {}

  00000	55		 push	 ebp
  00001	8b ec		 mov	 ebp, esp
  00003	8b 45 08	 mov	 eax, DWORD PTR __Dest$[ebp]
  00006	89 01		 mov	 DWORD PTR [ecx], eax
  00008	89 41 04	 mov	 DWORD PTR [ecx+4], eax
  0000b	8b 45 0c	 mov	 eax, DWORD PTR __Al_$[ebp]
  0000e	89 41 08	 mov	 DWORD PTR [ecx+8], eax
  00011	8b c1		 mov	 eax, ecx
  00013	5d		 pop	 ebp
  00014	c2 08 00	 ret	 8
??0?$_Uninitialized_backout_al@V?$allocator@E@std@@@std@@QAE@PAEAAV?$allocator@E@1@@Z ENDP ; std::_Uninitialized_backout_al<std::allocator<unsigned char> >::_Uninitialized_backout_al<std::allocator<unsigned char> >
_TEXT	ENDS
; Function compile flags: /Ogtp
; File C:\Program Files\Microsoft Visual Studio\2022\Community\VC\Tools\MSVC\14.34.31933\include\xmemory
;	COMDAT ?allocate@?$allocator@U?$_Tree_node@U?$pair@$$CBKUTGuildSymbol@CGuildMarkManager@@@std@@PAX@std@@@std@@QAEPAU?$_Tree_node@U?$pair@$$CBKUTGuildSymbol@CGuildMarkManager@@@std@@PAX@2@I@Z
_TEXT	SEGMENT
__Count$dead$ = 8					; size = 4
?allocate@?$allocator@U?$_Tree_node@U?$pair@$$CBKUTGuildSymbol@CGuildMarkManager@@@std@@PAX@std@@@std@@QAEPAU?$_Tree_node@U?$pair@$$CBKUTGuildSymbol@CGuildMarkManager@@@std@@PAX@2@I@Z PROC ; std::allocator<std::_Tree_node<std::pair<unsigned long const ,CGuildMarkManager::TGuildSymbol>,void *> >::allocate, COMDAT
; _this$dead$ = ecx

; 77   :         return ::operator new(_Bytes);

  00000	6a 24		 push	 36			; 00000024H
  00002	e8 00 00 00 00	 call	 ??2@YAPAXI@Z		; operator new
  00007	83 c4 04	 add	 esp, 4

; 834  :         static_assert(sizeof(value_type) > 0, "value_type must be complete before calling allocate.");
; 835  :         return static_cast<_Ty*>(_Allocate<_New_alignof<_Ty>>(_Get_size_of_n<sizeof(_Ty)>(_Count)));
; 836  :     }

  0000a	c2 04 00	 ret	 4
?allocate@?$allocator@U?$_Tree_node@U?$pair@$$CBKUTGuildSymbol@CGuildMarkManager@@@std@@PAX@std@@@std@@QAEPAU?$_Tree_node@U?$pair@$$CBKUTGuildSymbol@CGuildMarkManager@@@std@@PAX@2@I@Z ENDP ; std::allocator<std::_Tree_node<std::pair<unsigned long const ,CGuildMarkManager::TGuildSymbol>,void *> >::allocate
_TEXT	ENDS
; Function compile flags: /Ogtp
; File C:\Program Files\Microsoft Visual Studio\2022\Community\VC\Tools\MSVC\14.34.31933\include\xmemory
;	COMDAT ?allocate@?$allocator@U?$_Tree_node@U?$pair@$$CBKPAVCGuildMarkImage@@@std@@PAX@std@@@std@@QAEPAU?$_Tree_node@U?$pair@$$CBKPAVCGuildMarkImage@@@std@@PAX@2@I@Z
_TEXT	SEGMENT
__Count$dead$ = 8					; size = 4
?allocate@?$allocator@U?$_Tree_node@U?$pair@$$CBKPAVCGuildMarkImage@@@std@@PAX@std@@@std@@QAEPAU?$_Tree_node@U?$pair@$$CBKPAVCGuildMarkImage@@@std@@PAX@2@I@Z PROC ; std::allocator<std::_Tree_node<std::pair<unsigned long const ,CGuildMarkImage *>,void *> >::allocate, COMDAT
; _this$dead$ = ecx

; 77   :         return ::operator new(_Bytes);

  00000	6a 18		 push	 24			; 00000018H
  00002	e8 00 00 00 00	 call	 ??2@YAPAXI@Z		; operator new
  00007	83 c4 04	 add	 esp, 4

; 834  :         static_assert(sizeof(value_type) > 0, "value_type must be complete before calling allocate.");
; 835  :         return static_cast<_Ty*>(_Allocate<_New_alignof<_Ty>>(_Get_size_of_n<sizeof(_Ty)>(_Count)));
; 836  :     }

  0000a	c2 04 00	 ret	 4
?allocate@?$allocator@U?$_Tree_node@U?$pair@$$CBKPAVCGuildMarkImage@@@std@@PAX@std@@@std@@QAEPAU?$_Tree_node@U?$pair@$$CBKPAVCGuildMarkImage@@@std@@PAX@2@I@Z ENDP ; std::allocator<std::_Tree_node<std::pair<unsigned long const ,CGuildMarkImage *>,void *> >::allocate
_TEXT	ENDS
; Function compile flags: /Ogtp
; File C:\Program Files\Microsoft Visual Studio\2022\Community\VC\Tools\MSVC\14.34.31933\include\vector
;	COMDAT ??0?$_Vector_val@U?$_Simple_types@E@std@@@std@@QAE@XZ
_TEXT	SEGMENT
??0?$_Vector_val@U?$_Simple_types@E@std@@@std@@QAE@XZ PROC ; std::_Vector_val<std::_Simple_types<unsigned char> >::_Vector_val<std::_Simple_types<unsigned char> >, COMDAT
; _this$ = ecx

; 390  :     _CONSTEXPR20 _Vector_val() noexcept : _Myfirst(), _Mylast(), _Myend() {}

  00000	c7 01 00 00 00
	00		 mov	 DWORD PTR [ecx], 0
  00006	8b c1		 mov	 eax, ecx
  00008	c7 41 04 00 00
	00 00		 mov	 DWORD PTR [ecx+4], 0
  0000f	c7 41 08 00 00
	00 00		 mov	 DWORD PTR [ecx+8], 0
  00016	c3		 ret	 0
??0?$_Vector_val@U?$_Simple_types@E@std@@@std@@QAE@XZ ENDP ; std::_Vector_val<std::_Simple_types<unsigned char> >::_Vector_val<std::_Simple_types<unsigned char> >
_TEXT	ENDS
; Function compile flags: /Ogtp
; File C:\Program Files\Microsoft Visual Studio\2022\Community\VC\Tools\MSVC\14.34.31933\include\vector
;	COMDAT ?_Orphan_range@?$vector@EV?$allocator@E@std@@@std@@ABEXPAE0@Z
_TEXT	SEGMENT
___formal$dead$ = 8					; size = 4
___formal$dead$ = 12					; size = 4
?_Orphan_range@?$vector@EV?$allocator@E@std@@@std@@ABEXPAE0@Z PROC ; std::vector<unsigned char,std::allocator<unsigned char> >::_Orphan_range, COMDAT
; _this$dead$ = ecx

; 2240 :     _CONSTEXPR20 void _Orphan_range(pointer, pointer) const {}

  00000	c2 08 00	 ret	 8
?_Orphan_range@?$vector@EV?$allocator@E@std@@@std@@ABEXPAE0@Z ENDP ; std::vector<unsigned char,std::allocator<unsigned char> >::_Orphan_range
_TEXT	ENDS
; Function compile flags: /Ogtp
; File C:\Program Files\Microsoft Visual Studio\2022\Community\VC\Tools\MSVC\14.34.31933\include\xmemory
;	COMDAT ??0?$allocator@E@std@@QAE@XZ
_TEXT	SEGMENT
??0?$allocator@E@std@@QAE@XZ PROC			; std::allocator<unsigned char>::allocator<unsigned char>, COMDAT
; _this$ = ecx

; 819  :     constexpr allocator() noexcept {}

  00000	8b c1		 mov	 eax, ecx
  00002	c3		 ret	 0
??0?$allocator@E@std@@QAE@XZ ENDP			; std::allocator<unsigned char>::allocator<unsigned char>
_TEXT	ENDS
; Function compile flags: /Ogtp
; File C:\Program Files\Microsoft Visual Studio\2022\Community\VC\Tools\MSVC\14.34.31933\include\xmemory
;	COMDAT ?deallocate@?$allocator@U?$_Tree_node@U?$pair@$$CBKUTGuildSymbol@CGuildMarkManager@@@std@@PAX@std@@@std@@QAEXQAU?$_Tree_node@U?$pair@$$CBKUTGuildSymbol@CGuildMarkManager@@@std@@PAX@2@I@Z
_TEXT	SEGMENT
__Ptr$ = 8						; size = 4
__Count$dead$ = 12					; size = 4
?deallocate@?$allocator@U?$_Tree_node@U?$pair@$$CBKUTGuildSymbol@CGuildMarkManager@@@std@@PAX@std@@@std@@QAEXQAU?$_Tree_node@U?$pair@$$CBKUTGuildSymbol@CGuildMarkManager@@@std@@PAX@2@I@Z PROC ; std::allocator<std::_Tree_node<std::pair<unsigned long const ,CGuildMarkManager::TGuildSymbol>,void *> >::deallocate, COMDAT
; _this$dead$ = ecx

; 827  :     _CONSTEXPR20 void deallocate(_Ty* const _Ptr, const size_t _Count) {

  00000	55		 push	 ebp
  00001	8b ec		 mov	 ebp, esp

; 255  :         ::operator delete(_Ptr, _Bytes);

  00003	6a 24		 push	 36			; 00000024H
  00005	ff 75 08	 push	 DWORD PTR __Ptr$[ebp]
  00008	e8 00 00 00 00	 call	 ??3@YAXPAXI@Z		; operator delete
  0000d	83 c4 08	 add	 esp, 8

; 828  :         _STL_ASSERT(_Ptr != nullptr || _Count == 0, "null pointer cannot point to a block of non-zero size");
; 829  :         // no overflow check on the following multiply; we assume _Allocate did that check
; 830  :         _Deallocate<_New_alignof<_Ty>>(_Ptr, sizeof(_Ty) * _Count);
; 831  :     }

  00010	5d		 pop	 ebp
  00011	c2 08 00	 ret	 8
?deallocate@?$allocator@U?$_Tree_node@U?$pair@$$CBKUTGuildSymbol@CGuildMarkManager@@@std@@PAX@std@@@std@@QAEXQAU?$_Tree_node@U?$pair@$$CBKUTGuildSymbol@CGuildMarkManager@@@std@@PAX@2@I@Z ENDP ; std::allocator<std::_Tree_node<std::pair<unsigned long const ,CGuildMarkManager::TGuildSymbol>,void *> >::deallocate
_TEXT	ENDS
; Function compile flags: /Ogtp
; File C:\Program Files\Microsoft Visual Studio\2022\Community\VC\Tools\MSVC\14.34.31933\include\xmemory
; File C:\Program Files\Microsoft Visual Studio\2022\Community\VC\Tools\MSVC\14.34.31933\include\xtree
; File C:\Program Files\Microsoft Visual Studio\2022\Community\VC\Tools\MSVC\14.34.31933\include\xmemory
; File C:\Program Files\Microsoft Visual Studio\2022\Community\VC\Tools\MSVC\14.34.31933\include\xtree
; File C:\Program Files\Microsoft Visual Studio\2022\Community\VC\Tools\MSVC\14.34.31933\include\xmemory
;	COMDAT ??$?0$$V@?$_Compressed_pair@V?$allocator@U?$_Tree_node@U?$pair@$$CBKUTGuildSymbol@CGuildMarkManager@@@std@@PAX@std@@@std@@V?$_Tree_val@U?$_Tree_simple_types@U?$pair@$$CBKUTGuildSymbol@CGuildMarkManager@@@std@@@std@@@2@$00@std@@QAE@U_Zero_then_variadic_args_t@1@@Z
_TEXT	SEGMENT
___formal$ = 8						; size = 1
??$?0$$V@?$_Compressed_pair@V?$allocator@U?$_Tree_node@U?$pair@$$CBKUTGuildSymbol@CGuildMarkManager@@@std@@PAX@std@@@std@@V?$_Tree_val@U?$_Tree_simple_types@U?$pair@$$CBKUTGuildSymbol@CGuildMarkManager@@@std@@@std@@@2@$00@std@@QAE@U_Zero_then_variadic_args_t@1@@Z PROC ; std::_Compressed_pair<std::allocator<std::_Tree_node<std::pair<unsigned long const ,CGuildMarkManager::TGuildSymbol>,void *> >,std::_Tree_val<std::_Tree_simple_types<std::pair<unsigned long const ,CGuildMarkManager::TGuildSymbol> > >,1>::_Compressed_pair<std::allocator<std::_Tree_node<std::pair<unsigned long const ,CGuildMarkManager::TGuildSymbol>,void *> >,std::_Tree_val<std::_Tree_simple_types<std::pair<unsigned long const ,CGuildMarkManager::TGuildSymbol> > >,1><>, COMDAT
; _this$ = ecx
; File C:\Program Files\Microsoft Visual Studio\2022\Community\VC\Tools\MSVC\14.34.31933\include\xtree

; 437  :     _Tree_val() noexcept : _Myhead(), _Mysize(0) {}

  00000	c7 01 00 00 00
	00		 mov	 DWORD PTR [ecx], 0
; File C:\Program Files\Microsoft Visual Studio\2022\Community\VC\Tools\MSVC\14.34.31933\include\xmemory

; 1376 :         : _Ty1(), _Myval2(_STD forward<_Other2>(_Val2)...) {}

  00006	8b c1		 mov	 eax, ecx
; File C:\Program Files\Microsoft Visual Studio\2022\Community\VC\Tools\MSVC\14.34.31933\include\xtree

; 437  :     _Tree_val() noexcept : _Myhead(), _Mysize(0) {}

  00008	c7 41 04 00 00
	00 00		 mov	 DWORD PTR [ecx+4], 0
; File C:\Program Files\Microsoft Visual Studio\2022\Community\VC\Tools\MSVC\14.34.31933\include\xmemory

; 1376 :         : _Ty1(), _Myval2(_STD forward<_Other2>(_Val2)...) {}

  0000f	c2 04 00	 ret	 4
??$?0$$V@?$_Compressed_pair@V?$allocator@U?$_Tree_node@U?$pair@$$CBKUTGuildSymbol@CGuildMarkManager@@@std@@PAX@std@@@std@@V?$_Tree_val@U?$_Tree_simple_types@U?$pair@$$CBKUTGuildSymbol@CGuildMarkManager@@@std@@@std@@@2@$00@std@@QAE@U_Zero_then_variadic_args_t@1@@Z ENDP ; std::_Compressed_pair<std::allocator<std::_Tree_node<std::pair<unsigned long const ,CGuildMarkManager::TGuildSymbol>,void *> >,std::_Tree_val<std::_Tree_simple_types<std::pair<unsigned long const ,CGuildMarkManager::TGuildSymbol> > >,1>::_Compressed_pair<std::allocator<std::_Tree_node<std::pair<unsigned long const ,CGuildMarkManager::TGuildSymbol>,void *> >,std::_Tree_val<std::_Tree_simple_types<std::pair<unsigned long const ,CGuildMarkManager::TGuildSymbol> > >,1><>
_TEXT	ENDS
; Function compile flags: /Ogtp
; File C:\Program Files\Microsoft Visual Studio\2022\Community\VC\Tools\MSVC\14.34.31933\include\xmemory
; File C:\Program Files\Microsoft Visual Studio\2022\Community\VC\Tools\MSVC\14.34.31933\include\xtree
; File C:\Program Files\Microsoft Visual Studio\2022\Community\VC\Tools\MSVC\14.34.31933\include\xmemory
; File C:\Program Files\Microsoft Visual Studio\2022\Community\VC\Tools\MSVC\14.34.31933\include\xtree
; File C:\Program Files\Microsoft Visual Studio\2022\Community\VC\Tools\MSVC\14.34.31933\include\xmemory
;	COMDAT ??$?0$$V@?$_Compressed_pair@V?$allocator@U?$_Tree_node@U?$pair@$$CBKPAVCGuildMarkImage@@@std@@PAX@std@@@std@@V?$_Tree_val@U?$_Tree_simple_types@U?$pair@$$CBKPAVCGuildMarkImage@@@std@@@std@@@2@$00@std@@QAE@U_Zero_then_variadic_args_t@1@@Z
_TEXT	SEGMENT
___formal$ = 8						; size = 1
??$?0$$V@?$_Compressed_pair@V?$allocator@U?$_Tree_node@U?$pair@$$CBKPAVCGuildMarkImage@@@std@@PAX@std@@@std@@V?$_Tree_val@U?$_Tree_simple_types@U?$pair@$$CBKPAVCGuildMarkImage@@@std@@@std@@@2@$00@std@@QAE@U_Zero_then_variadic_args_t@1@@Z PROC ; std::_Compressed_pair<std::allocator<std::_Tree_node<std::pair<unsigned long const ,CGuildMarkImage *>,void *> >,std::_Tree_val<std::_Tree_simple_types<std::pair<unsigned long const ,CGuildMarkImage *> > >,1>::_Compressed_pair<std::allocator<std::_Tree_node<std::pair<unsigned long const ,CGuildMarkImage *>,void *> >,std::_Tree_val<std::_Tree_simple_types<std::pair<unsigned long const ,CGuildMarkImage *> > >,1><>, COMDAT
; _this$ = ecx
; File C:\Program Files\Microsoft Visual Studio\2022\Community\VC\Tools\MSVC\14.34.31933\include\xtree

; 437  :     _Tree_val() noexcept : _Myhead(), _Mysize(0) {}

  00000	c7 01 00 00 00
	00		 mov	 DWORD PTR [ecx], 0
; File C:\Program Files\Microsoft Visual Studio\2022\Community\VC\Tools\MSVC\14.34.31933\include\xmemory

; 1376 :         : _Ty1(), _Myval2(_STD forward<_Other2>(_Val2)...) {}

  00006	8b c1		 mov	 eax, ecx
; File C:\Program Files\Microsoft Visual Studio\2022\Community\VC\Tools\MSVC\14.34.31933\include\xtree

; 437  :     _Tree_val() noexcept : _Myhead(), _Mysize(0) {}

  00008	c7 41 04 00 00
	00 00		 mov	 DWORD PTR [ecx+4], 0
; File C:\Program Files\Microsoft Visual Studio\2022\Community\VC\Tools\MSVC\14.34.31933\include\xmemory

; 1376 :         : _Ty1(), _Myval2(_STD forward<_Other2>(_Val2)...) {}

  0000f	c2 04 00	 ret	 4
??$?0$$V@?$_Compressed_pair@V?$allocator@U?$_Tree_node@U?$pair@$$CBKPAVCGuildMarkImage@@@std@@PAX@std@@@std@@V?$_Tree_val@U?$_Tree_simple_types@U?$pair@$$CBKPAVCGuildMarkImage@@@std@@@std@@@2@$00@std@@QAE@U_Zero_then_variadic_args_t@1@@Z ENDP ; std::_Compressed_pair<std::allocator<std::_Tree_node<std::pair<unsigned long const ,CGuildMarkImage *>,void *> >,std::_Tree_val<std::_Tree_simple_types<std::pair<unsigned long const ,CGuildMarkImage *> > >,1>::_Compressed_pair<std::allocator<std::_Tree_node<std::pair<unsigned long const ,CGuildMarkImage *>,void *> >,std::_Tree_val<std::_Tree_simple_types<std::pair<unsigned long const ,CGuildMarkImage *> > >,1><>
_TEXT	ENDS
; Function compile flags: /Ogtp
; File C:\Program Files\Microsoft Visual Studio\2022\Community\VC\Tools\MSVC\14.34.31933\include\type_traits
;	COMDAT ??$forward@AAPAVCGuildMarkImage@@@std@@YAAAPAVCGuildMarkImage@@AAPAV1@@Z
_TEXT	SEGMENT
??$forward@AAPAVCGuildMarkImage@@@std@@YAAAPAVCGuildMarkImage@@AAPAV1@@Z PROC ; std::forward<CGuildMarkImage * &>, COMDAT
; __Arg$ = ecx

; 1426 :     return static_cast<_Ty&&>(_Arg);

  00000	8b c1		 mov	 eax, ecx

; 1427 : }

  00002	c3		 ret	 0
??$forward@AAPAVCGuildMarkImage@@@std@@YAAAPAVCGuildMarkImage@@AAPAV1@@Z ENDP ; std::forward<CGuildMarkImage * &>
_TEXT	ENDS
; Function compile flags: /Ogtp
; File C:\Program Files\Microsoft Visual Studio\2022\Community\VC\Tools\MSVC\14.34.31933\include\type_traits
;	COMDAT ??$move@AAU?$pair@$$CBKPAVCGuildMarkImage@@@std@@@std@@YA$$QAU?$pair@$$CBKPAVCGuildMarkImage@@@0@AAU10@@Z
_TEXT	SEGMENT
??$move@AAU?$pair@$$CBKPAVCGuildMarkImage@@@std@@@std@@YA$$QAU?$pair@$$CBKPAVCGuildMarkImage@@@0@AAU10@@Z PROC ; std::move<std::pair<unsigned long const ,CGuildMarkImage *> &>, COMDAT
; __Arg$ = ecx

; 1437 :     return static_cast<remove_reference_t<_Ty>&&>(_Arg);

  00000	8b c1		 mov	 eax, ecx

; 1438 : }

  00002	c3		 ret	 0
??$move@AAU?$pair@$$CBKPAVCGuildMarkImage@@@std@@@std@@YA$$QAU?$pair@$$CBKPAVCGuildMarkImage@@@0@AAU10@@Z ENDP ; std::move<std::pair<unsigned long const ,CGuildMarkImage *> &>
_TEXT	ENDS
; Function compile flags: /Ogtp
; File C:\Program Files\Microsoft Visual Studio\2022\Community\VC\Tools\MSVC\14.34.31933\include\xtree
; File C:\Program Files\Microsoft Visual Studio\2022\Community\VC\Tools\MSVC\14.34.31933\include\utility
; File C:\Program Files\Microsoft Visual Studio\2022\Community\VC\Tools\MSVC\14.34.31933\include\xtree
; File C:\Program Files\Microsoft Visual Studio\2022\Community\VC\Tools\MSVC\14.34.31933\include\xmemory
; File C:\Program Files\Microsoft Visual Studio\2022\Community\VC\Tools\MSVC\14.34.31933\include\xtree
; File C:\Program Files\Microsoft Visual Studio\2022\Community\VC\Tools\MSVC\14.34.31933\include\xmemory
; File C:\Program Files\Microsoft Visual Studio\2022\Community\VC\Tools\MSVC\14.34.31933\include\xtree
; File C:\Program Files\Microsoft Visual Studio\2022\Community\VC\Tools\MSVC\14.34.31933\include\xmemory
; File C:\Program Files\Microsoft Visual Studio\2022\Community\VC\Tools\MSVC\14.34.31933\include\xtree
; File C:\Program Files\Microsoft Visual Studio\2022\Community\VC\Tools\MSVC\14.34.31933\include\utility
; File C:\Program Files\Microsoft Visual Studio\2022\Community\VC\Tools\MSVC\14.34.31933\include\xtree
; File C:\Program Files\Microsoft Visual Studio\2022\Community\VC\Tools\MSVC\14.34.31933\include\utility
; File C:\Program Files\Microsoft Visual Studio\2022\Community\VC\Tools\MSVC\14.34.31933\include\xtree
;	COMDAT ??$_Emplace@U?$pair@$$CBKPAVCGuildMarkImage@@@std@@@?$_Tree@V?$_Tmap_traits@KPAVCGuildMarkImage@@U?$less@K@std@@V?$allocator@U?$pair@$$CBKPAVCGuildMarkImage@@@std@@@3@$0A@@std@@@std@@IAE?AU?$pair@PAU?$_Tree_node@U?$pair@$$CBKPAVCGuildMarkImage@@@std@@PAX@std@@_N@1@$$QAU?$pair@$$CBKPAVCGuildMarkImage@@@1@@Z
_TEXT	SEGMENT
__Loc$ = -36						; size = 12
$T2 = -24						; size = 12
$T3 = -20						; size = 8
__$EHRec$ = -12						; size = 12
___$ReturnUdt$ = 8					; size = 4
_<_Vals_0>$ = 12					; size = 4
??$_Emplace@U?$pair@$$CBKPAVCGuildMarkImage@@@std@@@?$_Tree@V?$_Tmap_traits@KPAVCGuildMarkImage@@U?$less@K@std@@V?$allocator@U?$pair@$$CBKPAVCGuildMarkImage@@@std@@@3@$0A@@std@@@std@@IAE?AU?$pair@PAU?$_Tree_node@U?$pair@$$CBKPAVCGuildMarkImage@@@std@@PAX@std@@_N@1@$$QAU?$pair@$$CBKPAVCGuildMarkImage@@@1@@Z PROC ; std::_Tree<std::_Tmap_traits<unsigned long,CGuildMarkImage *,std::less<unsigned long>,std::allocator<std::pair<unsigned long const ,CGuildMarkImage *> >,0> >::_Emplace<std::pair<unsigned long const ,CGuildMarkImage *> >, COMDAT
; _this$ = ecx

; 994  :     pair<_Nodeptr, bool> _Emplace(_Valtys&&... _Vals) {

  00000	55		 push	 ebp
  00001	8b ec		 mov	 ebp, esp
  00003	6a ff		 push	 -1
  00005	68 00 00 00 00	 push	 __ehhandler$??$_Emplace@U?$pair@$$CBKPAVCGuildMarkImage@@@std@@@?$_Tree@V?$_Tmap_traits@KPAVCGuildMarkImage@@U?$less@K@std@@V?$allocator@U?$pair@$$CBKPAVCGuildMarkImage@@@std@@@3@$0A@@std@@@std@@IAE?AU?$pair@PAU?$_Tree_node@U?$pair@$$CBKPAVCGuildMarkImage@@@std@@PAX@std@@_N@1@$$QAU?$pair@$$CBKPAVCGuildMarkImage@@@1@@Z
  0000a	64 a1 00 00 00
	00		 mov	 eax, DWORD PTR fs:0
  00010	50		 push	 eax
  00011	83 ec 1c	 sub	 esp, 28			; 0000001cH
  00014	53		 push	 ebx
  00015	56		 push	 esi
  00016	57		 push	 edi
  00017	a1 00 00 00 00	 mov	 eax, DWORD PTR ___security_cookie
  0001c	33 c5		 xor	 eax, ebp
  0001e	50		 push	 eax
  0001f	8d 45 f4	 lea	 eax, DWORD PTR __$EHRec$[ebp]
  00022	64 a3 00 00 00
	00		 mov	 DWORD PTR fs:0, eax
  00028	8b f9		 mov	 edi, ecx

; 995  :         using _In_place_key_extractor = typename _Traits::template _In_place_key_extractor<_Remove_cvref_t<_Valtys>...>;
; 996  :         const auto _Scary             = _Get_scary();
; 997  :         _Tree_find_result<_Nodeptr> _Loc;
; 998  :         _Nodeptr _Inserted;
; 999  :         if constexpr (!_Multi && _In_place_key_extractor::_Extractable) {
; 1000 :             const auto& _Keyval = _In_place_key_extractor::_Extract(_Vals...);
; 1001 :             _Loc                = _Find_lower_bound(_Keyval);

  0002a	8b 5d 0c	 mov	 ebx, DWORD PTR _<_Vals_0>$[ebp]
  0002d	8d 45 e8	 lea	 eax, DWORD PTR $T2[ebp]
  00030	53		 push	 ebx
  00031	50		 push	 eax
  00032	e8 00 00 00 00	 call	 ??$_Find_lower_bound@K@?$_Tree@V?$_Tmap_traits@KPAVCGuildMarkImage@@U?$less@K@std@@V?$allocator@U?$pair@$$CBKPAVCGuildMarkImage@@@std@@@3@$0A@@std@@@std@@IBE?AU?$_Tree_find_result@PAU?$_Tree_node@U?$pair@$$CBKPAVCGuildMarkImage@@@std@@PAX@std@@@1@ABK@Z ; std::_Tree<std::_Tmap_traits<unsigned long,CGuildMarkImage *,std::less<unsigned long>,std::allocator<std::pair<unsigned long const ,CGuildMarkImage *> >,0> >::_Find_lower_bound<unsigned long>
  00037	8b 48 08	 mov	 ecx, DWORD PTR [eax+8]
  0003a	f3 0f 7e 00	 movq	 xmm0, QWORD PTR [eax]
  0003e	66 0f d6 45 dc	 movq	 QWORD PTR __Loc$[ebp], xmm0

; 1605 :         return !_Bound->_Isnil && !_DEBUG_LT_PRED(_Getcomp(), _Keyval, _Traits::_Kfn(_Bound->_Myval));

  00043	80 79 0d 00	 cmp	 BYTE PTR [ecx+13], 0
  00047	75 24		 jne	 SHORT $LN2@Emplace
  00049	8b 03		 mov	 eax, DWORD PTR [ebx]
  0004b	3b 41 10	 cmp	 eax, DWORD PTR [ecx+16]
  0004e	72 1d		 jb	 SHORT $LN2@Emplace
; File C:\Program Files\Microsoft Visual Studio\2022\Community\VC\Tools\MSVC\14.34.31933\include\utility

; 172  :         : first(_STD forward<_Other1>(_Val1)), second(_STD forward<_Other2>(_Val2)) {

  00050	8b 45 08	 mov	 eax, DWORD PTR ___$ReturnUdt$[ebp]
  00053	89 08		 mov	 DWORD PTR [eax], ecx
  00055	c6 40 04 00	 mov	 BYTE PTR [eax+4], 0
; File C:\Program Files\Microsoft Visual Studio\2022\Community\VC\Tools\MSVC\14.34.31933\include\xtree

; 1027 :     }

  00059	8b 4d f4	 mov	 ecx, DWORD PTR __$EHRec$[ebp]
  0005c	64 89 0d 00 00
	00 00		 mov	 DWORD PTR fs:0, ecx
  00063	59		 pop	 ecx
  00064	5f		 pop	 edi
  00065	5e		 pop	 esi
  00066	5b		 pop	 ebx
  00067	8b e5		 mov	 esp, ebp
  00069	5d		 pop	 ebp
  0006a	c2 08 00	 ret	 8
$LN2@Emplace:

; 1629 :         if (max_size() == _Get_scary()->_Mysize) {

  0006d	81 7f 04 aa aa
	aa 0a		 cmp	 DWORD PTR [edi+4], 178956970 ; 0aaaaaaaH
  00074	74 63		 je	 SHORT $LN86@Emplace

; 1002 :             if (_Lower_bound_duplicate(_Loc._Bound, _Keyval)) {
; 1003 :                 return {_Loc._Bound, false};
; 1004 :             }
; 1005 : 
; 1006 :             _Check_grow_by_1();
; 1007 :             _Inserted = _Tree_temp_node<_Alnode>(_Getal(), _Scary->_Myhead, _STD forward<_Valtys>(_Vals)...)._Release();

  00076	8b 37		 mov	 esi, DWORD PTR [edi]
; File C:\Program Files\Microsoft Visual Studio\2022\Community\VC\Tools\MSVC\14.34.31933\include\xmemory

; 1005 :     _CONSTEXPR20 explicit _Alloc_construct_ptr(_Alloc& _Al_) : _Al(_Al_), _Ptr(nullptr) {}

  00078	89 7d ec	 mov	 DWORD PTR $T3[ebp], edi
; File C:\Program Files\Microsoft Visual Studio\2022\Community\VC\Tools\MSVC\14.34.31933\include\xtree

; 785  :     explicit _Tree_temp_node_alloc(_Alnode& _Al_) : _Alloc_construct_ptr<_Alnode>(_Al_) {

  0007b	c7 45 fc 00 00
	00 00		 mov	 DWORD PTR __$EHRec$[ebp+8], 0
; File C:\Program Files\Microsoft Visual Studio\2022\Community\VC\Tools\MSVC\14.34.31933\include\xmemory

; 77   :         return ::operator new(_Bytes);

  00082	6a 18		 push	 24			; 00000018H

; 1012 :         _Ptr = nullptr; // if allocate throws, prevents double-free

  00084	c7 45 f0 00 00
	00 00		 mov	 DWORD PTR $T3[ebp+4], 0

; 77   :         return ::operator new(_Bytes);

  0008b	e8 00 00 00 00	 call	 ??2@YAPAXI@Z		; operator new
; File C:\Program Files\Microsoft Visual Studio\2022\Community\VC\Tools\MSVC\14.34.31933\include\xtree

; 807  :         _Alnode_traits::construct(this->_Al, _STD addressof(this->_Ptr->_Myval), _STD forward<_Valtys>(_Vals)...);

  00090	8b 0b		 mov	 ecx, DWORD PTR [ebx]
; File C:\Program Files\Microsoft Visual Studio\2022\Community\VC\Tools\MSVC\14.34.31933\include\xmemory

; 77   :         return ::operator new(_Bytes);

  00092	83 c4 04	 add	 esp, 4
; File C:\Program Files\Microsoft Visual Studio\2022\Community\VC\Tools\MSVC\14.34.31933\include\xtree

; 807  :         _Alnode_traits::construct(this->_Al, _STD addressof(this->_Ptr->_Myval), _STD forward<_Valtys>(_Vals)...);

  00095	8b 53 04	 mov	 edx, DWORD PTR [ebx+4]
  00098	89 48 10	 mov	 DWORD PTR [eax+16], ecx

; 1026 :         return {_Scary->_Insert_node(_Loc._Location, _Inserted), true};

  0009b	8b cf		 mov	 ecx, edi
  0009d	50		 push	 eax
  0009e	ff 75 e0	 push	 DWORD PTR __Loc$[ebp+4]

; 807  :         _Alnode_traits::construct(this->_Al, _STD addressof(this->_Ptr->_Myval), _STD forward<_Valtys>(_Vals)...);

  000a1	89 50 14	 mov	 DWORD PTR [eax+20], edx

; 1026 :         return {_Scary->_Insert_node(_Loc._Location, _Inserted), true};

  000a4	ff 75 dc	 push	 DWORD PTR __Loc$[ebp]

; 808  :         _Construct_in_place(this->_Ptr->_Left, _Myhead);

  000a7	89 30		 mov	 DWORD PTR [eax], esi

; 809  :         _Construct_in_place(this->_Ptr->_Parent, _Myhead);

  000a9	89 70 04	 mov	 DWORD PTR [eax+4], esi

; 810  :         _Construct_in_place(this->_Ptr->_Right, _Myhead);

  000ac	89 70 08	 mov	 DWORD PTR [eax+8], esi

; 811  :         this->_Ptr->_Color = _Red;

  000af	66 c7 40 0c 00
	00		 mov	 WORD PTR [eax+12], 0

; 1026 :         return {_Scary->_Insert_node(_Loc._Location, _Inserted), true};

  000b5	e8 00 00 00 00	 call	 ?_Insert_node@?$_Tree_val@U?$_Tree_simple_types@U?$pair@$$CBKPAVCGuildMarkImage@@@std@@@std@@@std@@QAEPAU?$_Tree_node@U?$pair@$$CBKPAVCGuildMarkImage@@@std@@PAX@2@U?$_Tree_id@PAU?$_Tree_node@U?$pair@$$CBKPAVCGuildMarkImage@@@std@@PAX@std@@@2@QAU32@@Z ; std::_Tree_val<std::_Tree_simple_types<std::pair<unsigned long const ,CGuildMarkImage *> > >::_Insert_node
; File C:\Program Files\Microsoft Visual Studio\2022\Community\VC\Tools\MSVC\14.34.31933\include\utility

; 172  :         : first(_STD forward<_Other1>(_Val1)), second(_STD forward<_Other2>(_Val2)) {

  000ba	8b 4d 08	 mov	 ecx, DWORD PTR ___$ReturnUdt$[ebp]
  000bd	89 01		 mov	 DWORD PTR [ecx], eax
; File C:\Program Files\Microsoft Visual Studio\2022\Community\VC\Tools\MSVC\14.34.31933\include\xtree

; 1026 :         return {_Scary->_Insert_node(_Loc._Location, _Inserted), true};

  000bf	8b c1		 mov	 eax, ecx
; File C:\Program Files\Microsoft Visual Studio\2022\Community\VC\Tools\MSVC\14.34.31933\include\utility

; 172  :         : first(_STD forward<_Other1>(_Val1)), second(_STD forward<_Other2>(_Val2)) {

  000c1	c6 41 04 01	 mov	 BYTE PTR [ecx+4], 1
; File C:\Program Files\Microsoft Visual Studio\2022\Community\VC\Tools\MSVC\14.34.31933\include\xtree

; 1027 :     }

  000c5	8b 4d f4	 mov	 ecx, DWORD PTR __$EHRec$[ebp]
  000c8	64 89 0d 00 00
	00 00		 mov	 DWORD PTR fs:0, ecx
  000cf	59		 pop	 ecx
  000d0	5f		 pop	 edi
  000d1	5e		 pop	 esi
  000d2	5b		 pop	 ebx
  000d3	8b e5		 mov	 esp, ebp
  000d5	5d		 pop	 ebp
  000d6	c2 08 00	 ret	 8
$LN86@Emplace:

; 1630 :             _Throw_tree_length_error();

  000d9	e8 00 00 00 00	 call	 ?_Throw_tree_length_error@std@@YAXXZ ; std::_Throw_tree_length_error
$LN84@Emplace:
  000de	cc		 int	 3
_TEXT	ENDS
;	COMDAT text$x
text$x	SEGMENT
__unwindfunclet$??$_Emplace@U?$pair@$$CBKPAVCGuildMarkImage@@@std@@@?$_Tree@V?$_Tmap_traits@KPAVCGuildMarkImage@@U?$less@K@std@@V?$allocator@U?$pair@$$CBKPAVCGuildMarkImage@@@std@@@3@$0A@@std@@@std@@IAE?AU?$pair@PAU?$_Tree_node@U?$pair@$$CBKPAVCGuildMarkImage@@@std@@PAX@std@@_N@1@$$QAU?$pair@$$CBKPAVCGuildMarkImage@@@1@@Z$2:
  00000	8d 4d ec	 lea	 ecx, DWORD PTR $T3[ebp]
  00003	e9 00 00 00 00	 jmp	 ??1?$_Alloc_construct_ptr@V?$allocator@U?$_Tree_node@U?$pair@$$CBKPAVCGuildMarkImage@@@std@@PAX@std@@@std@@@std@@QAE@XZ ; std::_Alloc_construct_ptr<std::allocator<std::_Tree_node<std::pair<unsigned long const ,CGuildMarkImage *>,void *> > >::~_Alloc_construct_ptr<std::allocator<std::_Tree_node<std::pair<unsigned long const ,CGuildMarkImage *>,void *> > >
  00008	cc		 int	 3
  00009	cc		 int	 3
  0000a	cc		 int	 3
  0000b	cc		 int	 3
  0000c	cc		 int	 3
__ehhandler$??$_Emplace@U?$pair@$$CBKPAVCGuildMarkImage@@@std@@@?$_Tree@V?$_Tmap_traits@KPAVCGuildMarkImage@@U?$less@K@std@@V?$allocator@U?$pair@$$CBKPAVCGuildMarkImage@@@std@@@3@$0A@@std@@@std@@IAE?AU?$pair@PAU?$_Tree_node@U?$pair@$$CBKPAVCGuildMarkImage@@@std@@PAX@std@@_N@1@$$QAU?$pair@$$CBKPAVCGuildMarkImage@@@1@@Z:
  0000d	90		 npad	 1
  0000e	90		 npad	 1
  0000f	8b 54 24 08	 mov	 edx, DWORD PTR [esp+8]
  00013	8d 42 0c	 lea	 eax, DWORD PTR [edx+12]
  00016	8b 4a d4	 mov	 ecx, DWORD PTR [edx-44]
  00019	33 c8		 xor	 ecx, eax
  0001b	e8 00 00 00 00	 call	 @__security_check_cookie@4
  00020	b8 00 00 00 00	 mov	 eax, OFFSET __ehfuncinfo$??$_Emplace@U?$pair@$$CBKPAVCGuildMarkImage@@@std@@@?$_Tree@V?$_Tmap_traits@KPAVCGuildMarkImage@@U?$less@K@std@@V?$allocator@U?$pair@$$CBKPAVCGuildMarkImage@@@std@@@3@$0A@@std@@@std@@IAE?AU?$pair@PAU?$_Tree_node@U?$pair@$$CBKPAVCGuildMarkImage@@@std@@PAX@std@@_N@1@$$QAU?$pair@$$CBKPAVCGuildMarkImage@@@1@@Z
  00025	e9 00 00 00 00	 jmp	 ___CxxFrameHandler3
text$x	ENDS
??$_Emplace@U?$pair@$$CBKPAVCGuildMarkImage@@@std@@@?$_Tree@V?$_Tmap_traits@KPAVCGuildMarkImage@@U?$less@K@std@@V?$allocator@U?$pair@$$CBKPAVCGuildMarkImage@@@std@@@3@$0A@@std@@@std@@IAE?AU?$pair@PAU?$_Tree_node@U?$pair@$$CBKPAVCGuildMarkImage@@@std@@PAX@std@@_N@1@$$QAU?$pair@$$CBKPAVCGuildMarkImage@@@1@@Z ENDP ; std::_Tree<std::_Tmap_traits<unsigned long,CGuildMarkImage *,std::less<unsigned long>,std::allocator<std::pair<unsigned long const ,CGuildMarkImage *> >,0> >::_Emplace<std::pair<unsigned long const ,CGuildMarkImage *> >
; Function compile flags: /Ogtp
; File C:\Program Files\Microsoft Visual Studio\2022\Community\VC\Tools\MSVC\14.34.31933\include\utility
;	COMDAT ??$?0V?$_Tree_iterator@V?$_Tree_val@U?$_Tree_simple_types@U?$pair@$$CBKPAVCGuildMarkImage@@@std@@@std@@@std@@@std@@AB_N$0A@@?$pair@V?$_Tree_iterator@V?$_Tree_val@U?$_Tree_simple_types@U?$pair@$$CBKPAVCGuildMarkImage@@@std@@@std@@@std@@@std@@_N@std@@QAE@$$QAV?$_Tree_iterator@V?$_Tree_val@U?$_Tree_simple_types@U?$pair@$$CBKPAVCGuildMarkImage@@@std@@@std@@@std@@@1@AB_N@Z
_TEXT	SEGMENT
__Val1$ = 8						; size = 4
__Val2$ = 12						; size = 4
??$?0V?$_Tree_iterator@V?$_Tree_val@U?$_Tree_simple_types@U?$pair@$$CBKPAVCGuildMarkImage@@@std@@@std@@@std@@@std@@AB_N$0A@@?$pair@V?$_Tree_iterator@V?$_Tree_val@U?$_Tree_simple_types@U?$pair@$$CBKPAVCGuildMarkImage@@@std@@@std@@@std@@@std@@_N@std@@QAE@$$QAV?$_Tree_iterator@V?$_Tree_val@U?$_Tree_simple_types@U?$pair@$$CBKPAVCGuildMarkImage@@@std@@@std@@@std@@@1@AB_N@Z PROC ; std::pair<std::_Tree_iterator<std::_Tree_val<std::_Tree_simple_types<std::pair<unsigned long const ,CGuildMarkImage *> > > >,bool>::pair<std::_Tree_iterator<std::_Tree_val<std::_Tree_simple_types<std::pair<unsigned long const ,CGuildMarkImage *> > > >,bool><std::_Tree_iterator<std::_Tree_val<std::_Tree_simple_types<std::pair<unsigned long const ,CGuildMarkImage *> > > >,bool const &,0>, COMDAT
; _this$ = ecx

; 172  :         : first(_STD forward<_Other1>(_Val1)), second(_STD forward<_Other2>(_Val2)) {

  00000	55		 push	 ebp
  00001	8b ec		 mov	 ebp, esp
  00003	8b 45 08	 mov	 eax, DWORD PTR __Val1$[ebp]
  00006	8b 00		 mov	 eax, DWORD PTR [eax]
  00008	89 01		 mov	 DWORD PTR [ecx], eax
  0000a	8b 45 0c	 mov	 eax, DWORD PTR __Val2$[ebp]
  0000d	8a 00		 mov	 al, BYTE PTR [eax]
  0000f	88 41 04	 mov	 BYTE PTR [ecx+4], al

; 173  :     }

  00012	8b c1		 mov	 eax, ecx
  00014	5d		 pop	 ebp
  00015	c2 08 00	 ret	 8
??$?0V?$_Tree_iterator@V?$_Tree_val@U?$_Tree_simple_types@U?$pair@$$CBKPAVCGuildMarkImage@@@std@@@std@@@std@@@std@@AB_N$0A@@?$pair@V?$_Tree_iterator@V?$_Tree_val@U?$_Tree_simple_types@U?$pair@$$CBKPAVCGuildMarkImage@@@std@@@std@@@std@@@std@@_N@std@@QAE@$$QAV?$_Tree_iterator@V?$_Tree_val@U?$_Tree_simple_types@U?$pair@$$CBKPAVCGuildMarkImage@@@std@@@std@@@std@@@1@AB_N@Z ENDP ; std::pair<std::_Tree_iterator<std::_Tree_val<std::_Tree_simple_types<std::pair<unsigned long const ,CGuildMarkImage *> > > >,bool>::pair<std::_Tree_iterator<std::_Tree_val<std::_Tree_simple_types<std::pair<unsigned long const ,CGuildMarkImage *> > > >,bool><std::_Tree_iterator<std::_Tree_val<std::_Tree_simple_types<std::pair<unsigned long const ,CGuildMarkImage *> > > >,bool const &,0>
_TEXT	ENDS
; Function compile flags: /Ogtp
; File C:\Program Files\Microsoft Visual Studio\2022\Community\VC\Tools\MSVC\14.34.31933\include\tuple
;	COMDAT ??$forward_as_tuple@ABK@std@@YA?AV?$tuple@ABK@0@ABK@Z
_TEXT	SEGMENT
??$forward_as_tuple@ABK@std@@YA?AV?$tuple@ABK@0@ABK@Z PROC ; std::forward_as_tuple<unsigned long const &>, COMDAT
; ___$ReturnUdt$ = ecx
; _<_Args_0>$ = edx

; 144  :     constexpr _Tuple_val(_Other&& _Arg) : _Val(_STD forward<_Other>(_Arg)) {}

  00000	89 11		 mov	 DWORD PTR [ecx], edx

; 824  :     return tuple<_Types&&...>(_STD forward<_Types>(_Args)...);

  00002	8b c1		 mov	 eax, ecx

; 825  : }

  00004	c3		 ret	 0
??$forward_as_tuple@ABK@std@@YA?AV?$tuple@ABK@0@ABK@Z ENDP ; std::forward_as_tuple<unsigned long const &>
_TEXT	ENDS
; Function compile flags: /Ogtp
; File C:\Program Files\Microsoft Visual Studio\2022\Community\VC\Tools\MSVC\14.34.31933\include\tuple
;	COMDAT ??$forward_as_tuple@$$V@std@@YA?AV?$tuple@$$V@0@XZ
_TEXT	SEGMENT
??$forward_as_tuple@$$V@std@@YA?AV?$tuple@$$V@0@XZ PROC	; std::forward_as_tuple<>, COMDAT
; ___$ReturnUdt$ = ecx

; 824  :     return tuple<_Types&&...>(_STD forward<_Types>(_Args)...);

  00000	8b c1		 mov	 eax, ecx

; 825  : }

  00002	c3		 ret	 0
??$forward_as_tuple@$$V@std@@YA?AV?$tuple@$$V@0@XZ ENDP	; std::forward_as_tuple<>
_TEXT	ENDS
; Function compile flags: /Ogtp
; File C:\Program Files\Microsoft Visual Studio\2022\Community\VC\Tools\MSVC\14.34.31933\include\xtree
; File C:\Program Files\Microsoft Visual Studio\2022\Community\VC\Tools\MSVC\14.34.31933\include\utility
; File C:\Program Files\Microsoft Visual Studio\2022\Community\VC\Tools\MSVC\14.34.31933\include\vector
; File C:\Program Files\Microsoft Visual Studio\2022\Community\VC\Tools\MSVC\14.34.31933\include\xmemory
; File C:\Program Files\Microsoft Visual Studio\2022\Community\VC\Tools\MSVC\14.34.31933\include\vector
; File C:\Program Files\Microsoft Visual Studio\2022\Community\VC\Tools\MSVC\14.34.31933\include\xmemory
; File C:\Program Files\Microsoft Visual Studio\2022\Community\VC\Tools\MSVC\14.34.31933\include\vector
; File C:\Program Files\Microsoft Visual Studio\2022\Community\VC\Tools\MSVC\14.34.31933\include\xmemory
; File C:\Program Files\Microsoft Visual Studio\2022\Community\VC\Tools\MSVC\14.34.31933\include\xtree
; File C:\Program Files\Microsoft Visual Studio\2022\Community\VC\Tools\MSVC\14.34.31933\include\xmemory
; File C:\Program Files\Microsoft Visual Studio\2022\Community\VC\Tools\MSVC\14.34.31933\include\xtree
;	COMDAT ??$_Erase_tree@V?$allocator@U?$_Tree_node@U?$pair@$$CBKUTGuildSymbol@CGuildMarkManager@@@std@@PAX@std@@@std@@@?$_Tree_val@U?$_Tree_simple_types@U?$pair@$$CBKUTGuildSymbol@CGuildMarkManager@@@std@@@std@@@std@@QAEXAAV?$allocator@U?$_Tree_node@U?$pair@$$CBKUTGuildSymbol@CGuildMarkManager@@@std@@PAX@std@@@1@PAU?$_Tree_node@U?$pair@$$CBKUTGuildSymbol@CGuildMarkManager@@@std@@PAX@1@@Z
_TEXT	SEGMENT
_this$1$ = -4						; size = 4
__Al$ = 8						; size = 4
__Rootnode$ = 12					; size = 4
??$_Erase_tree@V?$allocator@U?$_Tree_node@U?$pair@$$CBKUTGuildSymbol@CGuildMarkManager@@@std@@PAX@std@@@std@@@?$_Tree_val@U?$_Tree_simple_types@U?$pair@$$CBKUTGuildSymbol@CGuildMarkManager@@@std@@@std@@@std@@QAEXAAV?$allocator@U?$_Tree_node@U?$pair@$$CBKUTGuildSymbol@CGuildMarkManager@@@std@@PAX@std@@@1@PAU?$_Tree_node@U?$pair@$$CBKUTGuildSymbol@CGuildMarkManager@@@std@@PAX@1@@Z PROC ; std::_Tree_val<std::_Tree_simple_types<std::pair<unsigned long const ,CGuildMarkManager::TGuildSymbol> > >::_Erase_tree<std::allocator<std::_Tree_node<std::pair<unsigned long const ,CGuildMarkManager::TGuildSymbol>,void *> > >, COMDAT
; _this$ = ecx

; 744  :     void _Erase_tree(_Alnode& _Al, _Nodeptr _Rootnode) noexcept {

  00000	55		 push	 ebp
  00001	8b ec		 mov	 ebp, esp
  00003	51		 push	 ecx
  00004	57		 push	 edi

; 745  :         while (!_Rootnode->_Isnil) { // free subtrees, then node

  00005	8b 7d 0c	 mov	 edi, DWORD PTR __Rootnode$[ebp]
  00008	8b c1		 mov	 eax, ecx
  0000a	89 45 fc	 mov	 DWORD PTR _this$1$[ebp], eax
  0000d	80 7f 0d 00	 cmp	 BYTE PTR [edi+13], 0
  00011	75 71		 jne	 SHORT $LN101@Erase_tree
  00013	53		 push	 ebx
  00014	8b 5d 08	 mov	 ebx, DWORD PTR __Al$[ebp]
  00017	56		 push	 esi
$LL2@Erase_tree:

; 746  :             _Erase_tree(_Al, _Rootnode->_Right);

  00018	ff 77 08	 push	 DWORD PTR [edi+8]
  0001b	8b c8		 mov	 ecx, eax
  0001d	53		 push	 ebx
  0001e	e8 00 00 00 00	 call	 ??$_Erase_tree@V?$allocator@U?$_Tree_node@U?$pair@$$CBKUTGuildSymbol@CGuildMarkManager@@@std@@PAX@std@@@std@@@?$_Tree_val@U?$_Tree_simple_types@U?$pair@$$CBKUTGuildSymbol@CGuildMarkManager@@@std@@@std@@@std@@QAEXAAV?$allocator@U?$_Tree_node@U?$pair@$$CBKUTGuildSymbol@CGuildMarkManager@@@std@@PAX@std@@@1@PAU?$_Tree_node@U?$pair@$$CBKUTGuildSymbol@CGuildMarkManager@@@std@@PAX@1@@Z ; std::_Tree_val<std::_Tree_simple_types<std::pair<unsigned long const ,CGuildMarkManager::TGuildSymbol> > >::_Erase_tree<std::allocator<std::_Tree_node<std::pair<unsigned long const ,CGuildMarkManager::TGuildSymbol>,void *> > >
; File C:\Program Files\Microsoft Visual Studio\2022\Community\VC\Tools\MSVC\14.34.31933\include\utility

; 653  :     _Ty _Old_val = static_cast<_Ty&&>(_Val);

  00023	8b f7		 mov	 esi, edi

; 654  :     _Val         = static_cast<_Other&&>(_New_val);

  00025	8b 3f		 mov	 edi, DWORD PTR [edi]
; File C:\Program Files\Microsoft Visual Studio\2022\Community\VC\Tools\MSVC\14.34.31933\include\vector

; 2107 :         if (_Myfirst) { // destroy and deallocate old array

  00027	8b 46 18	 mov	 eax, DWORD PTR [esi+24]
  0002a	85 c0		 test	 eax, eax
  0002c	74 3e		 je	 SHORT $LN25@Erase_tree

; 2108 :             _Destroy_range(_Myfirst, _Mylast, _Al);
; 2109 :             _ASAN_VECTOR_REMOVE;
; 2110 :             _Al.deallocate(_Myfirst, static_cast<size_type>(_Myend - _Myfirst));

  0002e	8b 4e 20	 mov	 ecx, DWORD PTR [esi+32]
  00031	2b c8		 sub	 ecx, eax
; File C:\Program Files\Microsoft Visual Studio\2022\Community\VC\Tools\MSVC\14.34.31933\include\xmemory

; 251  :         if (_Bytes >= _Big_allocation_threshold) { // boost the alignment of big allocations to help autovectorization

  00033	81 f9 00 10 00
	00		 cmp	 ecx, 4096		; 00001000H
  00039	72 12		 jb	 SHORT $LN43@Erase_tree

; 150  :     const uintptr_t _Ptr_container   = _Ptr_user[-1];

  0003b	8b 50 fc	 mov	 edx, DWORD PTR [eax-4]
  0003e	83 c1 23	 add	 ecx, 35			; 00000023H

; 151  : 
; 152  :     // If the following asserts, it likely means that we are performing
; 153  :     // an aligned delete on memory coming from an unaligned allocation.
; 154  :     _STL_ASSERT(_Ptr_user[-2] == _Big_allocation_sentinel, "invalid argument");
; 155  : 
; 156  :     // Extra paranoia on aligned allocation/deallocation; ensure _Ptr_container is
; 157  :     // in range [_Min_back_shift, _Non_user_size]
; 158  : #ifdef _DEBUG
; 159  :     constexpr uintptr_t _Min_back_shift = 2 * sizeof(void*);
; 160  : #else // ^^^ _DEBUG ^^^ // vvv !_DEBUG vvv
; 161  :     constexpr uintptr_t _Min_back_shift = sizeof(void*);
; 162  : #endif // _DEBUG
; 163  :     const uintptr_t _Back_shift = reinterpret_cast<uintptr_t>(_Ptr) - _Ptr_container;

  00041	2b c2		 sub	 eax, edx

; 164  :     _STL_VERIFY(_Back_shift >= _Min_back_shift && _Back_shift <= _Non_user_size, "invalid argument");

  00043	83 c0 fc	 add	 eax, -4			; fffffffcH
  00046	83 f8 1f	 cmp	 eax, 31			; 0000001fH
  00049	77 40		 ja	 SHORT $LN40@Erase_tree

; 165  :     _Ptr = reinterpret_cast<void*>(_Ptr_container);

  0004b	8b c2		 mov	 eax, edx
$LN43@Erase_tree:

; 255  :         ::operator delete(_Ptr, _Bytes);

  0004d	51		 push	 ecx
  0004e	50		 push	 eax
  0004f	e8 00 00 00 00	 call	 ??3@YAXPAXI@Z		; operator delete
; File C:\Program Files\Microsoft Visual Studio\2022\Community\VC\Tools\MSVC\14.34.31933\include\vector

; 2112 :             _Myfirst = nullptr;

  00054	c7 46 18 00 00
	00 00		 mov	 DWORD PTR [esi+24], 0
; File C:\Program Files\Microsoft Visual Studio\2022\Community\VC\Tools\MSVC\14.34.31933\include\xmemory

; 255  :         ::operator delete(_Ptr, _Bytes);

  0005b	83 c4 08	 add	 esp, 8
; File C:\Program Files\Microsoft Visual Studio\2022\Community\VC\Tools\MSVC\14.34.31933\include\vector

; 2113 :             _Mylast  = nullptr;

  0005e	c7 46 1c 00 00
	00 00		 mov	 DWORD PTR [esi+28], 0

; 2114 :             _Myend   = nullptr;

  00065	c7 46 20 00 00
	00 00		 mov	 DWORD PTR [esi+32], 0
$LN25@Erase_tree:
; File C:\Program Files\Microsoft Visual Studio\2022\Community\VC\Tools\MSVC\14.34.31933\include\xmemory

; 255  :         ::operator delete(_Ptr, _Bytes);

  0006c	6a 24		 push	 36			; 00000024H
  0006e	56		 push	 esi
  0006f	e8 00 00 00 00	 call	 ??3@YAXPAXI@Z		; operator delete
  00074	83 c4 08	 add	 esp, 8
; File C:\Program Files\Microsoft Visual Studio\2022\Community\VC\Tools\MSVC\14.34.31933\include\xtree

; 745  :         while (!_Rootnode->_Isnil) { // free subtrees, then node

  00077	80 7f 0d 00	 cmp	 BYTE PTR [edi+13], 0
  0007b	75 05		 jne	 SHORT $LN103@Erase_tree
  0007d	8b 45 fc	 mov	 eax, DWORD PTR _this$1$[ebp]
  00080	eb 96		 jmp	 SHORT $LL2@Erase_tree
$LN103@Erase_tree:
  00082	5e		 pop	 esi
  00083	5b		 pop	 ebx
$LN101@Erase_tree:
  00084	5f		 pop	 edi

; 749  :     }

  00085	8b e5		 mov	 esp, ebp
  00087	5d		 pop	 ebp
  00088	c2 08 00	 ret	 8
$LN40@Erase_tree:
; File C:\Program Files\Microsoft Visual Studio\2022\Community\VC\Tools\MSVC\14.34.31933\include\xmemory

; 164  :     _STL_VERIFY(_Back_shift >= _Min_back_shift && _Back_shift <= _Non_user_size, "invalid argument");

  0008b	e8 00 00 00 00	 call	 __invalid_parameter_noinfo_noreturn
$LN104@Erase_tree:
  00090	cc		 int	 3
??$_Erase_tree@V?$allocator@U?$_Tree_node@U?$pair@$$CBKUTGuildSymbol@CGuildMarkManager@@@std@@PAX@std@@@std@@@?$_Tree_val@U?$_Tree_simple_types@U?$pair@$$CBKUTGuildSymbol@CGuildMarkManager@@@std@@@std@@@std@@QAEXAAV?$allocator@U?$_Tree_node@U?$pair@$$CBKUTGuildSymbol@CGuildMarkManager@@@std@@PAX@std@@@1@PAU?$_Tree_node@U?$pair@$$CBKUTGuildSymbol@CGuildMarkManager@@@std@@PAX@1@@Z ENDP ; std::_Tree_val<std::_Tree_simple_types<std::pair<unsigned long const ,CGuildMarkManager::TGuildSymbol> > >::_Erase_tree<std::allocator<std::_Tree_node<std::pair<unsigned long const ,CGuildMarkManager::TGuildSymbol>,void *> > >
_TEXT	ENDS
; Function compile flags: /Ogtp
; File C:\Program Files\Microsoft Visual Studio\2022\Community\VC\Tools\MSVC\14.34.31933\include\xtree
; File C:\Program Files\Microsoft Visual Studio\2022\Community\VC\Tools\MSVC\14.34.31933\include\xmemory
; File C:\Program Files\Microsoft Visual Studio\2022\Community\VC\Tools\MSVC\14.34.31933\include\xtree
;	COMDAT ??$_Freenode0@V?$allocator@U?$_Tree_node@U?$pair@$$CBKUTGuildSymbol@CGuildMarkManager@@@std@@PAX@std@@@std@@@?$_Tree_node@U?$pair@$$CBKUTGuildSymbol@CGuildMarkManager@@@std@@PAX@std@@SAXAAV?$allocator@U?$_Tree_node@U?$pair@$$CBKUTGuildSymbol@CGuildMarkManager@@@std@@PAX@std@@@1@PAU01@@Z
_TEXT	SEGMENT
??$_Freenode0@V?$allocator@U?$_Tree_node@U?$pair@$$CBKUTGuildSymbol@CGuildMarkManager@@@std@@PAX@std@@@std@@@?$_Tree_node@U?$pair@$$CBKUTGuildSymbol@CGuildMarkManager@@@std@@PAX@std@@SAXAAV?$allocator@U?$_Tree_node@U?$pair@$$CBKUTGuildSymbol@CGuildMarkManager@@@std@@PAX@std@@@1@PAU01@@Z PROC ; std::_Tree_node<std::pair<unsigned long const ,CGuildMarkManager::TGuildSymbol>,void *>::_Freenode0<std::allocator<std::_Tree_node<std::pair<unsigned long const ,CGuildMarkManager::TGuildSymbol>,void *> > >, COMDAT
; __Al$dead$ = ecx
; __Ptr$ = edx
; File C:\Program Files\Microsoft Visual Studio\2022\Community\VC\Tools\MSVC\14.34.31933\include\xmemory

; 255  :         ::operator delete(_Ptr, _Bytes);

  00000	6a 24		 push	 36			; 00000024H
  00002	52		 push	 edx
  00003	e8 00 00 00 00	 call	 ??3@YAXPAXI@Z		; operator delete
  00008	83 c4 08	 add	 esp, 8
; File C:\Program Files\Microsoft Visual Studio\2022\Community\VC\Tools\MSVC\14.34.31933\include\xtree

; 377  :     }

  0000b	c3		 ret	 0
??$_Freenode0@V?$allocator@U?$_Tree_node@U?$pair@$$CBKUTGuildSymbol@CGuildMarkManager@@@std@@PAX@std@@@std@@@?$_Tree_node@U?$pair@$$CBKUTGuildSymbol@CGuildMarkManager@@@std@@PAX@std@@SAXAAV?$allocator@U?$_Tree_node@U?$pair@$$CBKUTGuildSymbol@CGuildMarkManager@@@std@@PAX@std@@@1@PAU01@@Z ENDP ; std::_Tree_node<std::pair<unsigned long const ,CGuildMarkManager::TGuildSymbol>,void *>::_Freenode0<std::allocator<std::_Tree_node<std::pair<unsigned long const ,CGuildMarkManager::TGuildSymbol>,void *> > >
_TEXT	ENDS
; Function compile flags: /Ogtp
; File C:\Program Files\Microsoft Visual Studio\2022\Community\VC\Tools\MSVC\14.34.31933\include\xtree
; File C:\Program Files\Microsoft Visual Studio\2022\Community\VC\Tools\MSVC\14.34.31933\include\xstddef
; File C:\Program Files\Microsoft Visual Studio\2022\Community\VC\Tools\MSVC\14.34.31933\include\xtree
; File C:\Program Files\Microsoft Visual Studio\2022\Community\VC\Tools\MSVC\14.34.31933\include\xstddef
; File C:\Program Files\Microsoft Visual Studio\2022\Community\VC\Tools\MSVC\14.34.31933\include\xtree
;	COMDAT ??$_Find_lower_bound@K@?$_Tree@V?$_Tmap_traits@KPAVCGuildMarkImage@@U?$less@K@std@@V?$allocator@U?$pair@$$CBKPAVCGuildMarkImage@@@std@@@3@$0A@@std@@@std@@IBE?AU?$_Tree_find_result@PAU?$_Tree_node@U?$pair@$$CBKPAVCGuildMarkImage@@@std@@PAX@std@@@1@ABK@Z
_TEXT	SEGMENT
___$ReturnUdt$ = 8					; size = 4
__Keyval$ = 12						; size = 4
??$_Find_lower_bound@K@?$_Tree@V?$_Tmap_traits@KPAVCGuildMarkImage@@U?$less@K@std@@V?$allocator@U?$pair@$$CBKPAVCGuildMarkImage@@@std@@@3@$0A@@std@@@std@@IBE?AU?$_Tree_find_result@PAU?$_Tree_node@U?$pair@$$CBKPAVCGuildMarkImage@@@std@@PAX@std@@@1@ABK@Z PROC ; std::_Tree<std::_Tmap_traits<unsigned long,CGuildMarkImage *,std::less<unsigned long>,std::allocator<std::pair<unsigned long const ,CGuildMarkImage *> >,0> >::_Find_lower_bound<unsigned long>, COMDAT
; _this$ = ecx

; 1609 :     _Tree_find_result<_Nodeptr> _Find_lower_bound(const _Keyty& _Keyval) const {

  00000	55		 push	 ebp
  00001	8b ec		 mov	 ebp, esp

; 1610 :         const auto _Scary = _Get_scary();
; 1611 :         _Tree_find_result<_Nodeptr> _Result{{_Scary->_Myhead->_Parent, _Tree_child::_Right}, _Scary->_Myhead};

  00003	8b 09		 mov	 ecx, DWORD PTR [ecx]
  00005	8b 55 08	 mov	 edx, DWORD PTR ___$ReturnUdt$[ebp]
  00008	8b 41 04	 mov	 eax, DWORD PTR [ecx+4]
  0000b	89 02		 mov	 DWORD PTR [edx], eax
  0000d	c7 42 04 00 00
	00 00		 mov	 DWORD PTR [edx+4], 0
  00014	89 4a 08	 mov	 DWORD PTR [edx+8], ecx

; 1612 :         _Nodeptr _Trynode = _Result._Location._Parent;
; 1613 :         while (!_Trynode->_Isnil) {

  00017	80 78 0d 00	 cmp	 BYTE PTR [eax+13], 0
  0001b	75 28		 jne	 SHORT $LN12@Find_lower
; File C:\Program Files\Microsoft Visual Studio\2022\Community\VC\Tools\MSVC\14.34.31933\include\xstddef

; 143  :         return _Left < _Right;

  0001d	8b 4d 0c	 mov	 ecx, DWORD PTR __Keyval$[ebp]
  00020	56		 push	 esi
  00021	8b 31		 mov	 esi, DWORD PTR [ecx]
$LL2@Find_lower:
; File C:\Program Files\Microsoft Visual Studio\2022\Community\VC\Tools\MSVC\14.34.31933\include\xtree

; 1614 :             _Result._Location._Parent = _Trynode;

  00023	89 02		 mov	 DWORD PTR [edx], eax
; File C:\Program Files\Microsoft Visual Studio\2022\Community\VC\Tools\MSVC\14.34.31933\include\xstddef

; 143  :         return _Left < _Right;

  00025	39 70 10	 cmp	 DWORD PTR [eax+16], esi
; File C:\Program Files\Microsoft Visual Studio\2022\Community\VC\Tools\MSVC\14.34.31933\include\xtree

; 1615 :             if (_DEBUG_LT_PRED(_Getcomp(), _Traits::_Kfn(_Trynode->_Myval), _Keyval)) {

  00028	73 07		 jae	 SHORT $LN4@Find_lower

; 1616 :                 _Result._Location._Child = _Tree_child::_Right;
; 1617 :                 _Trynode                 = _Trynode->_Right;

  0002a	8b 40 08	 mov	 eax, DWORD PTR [eax+8]
  0002d	33 c9		 xor	 ecx, ecx

; 1618 :             } else {

  0002f	eb 0a		 jmp	 SHORT $LN5@Find_lower
$LN4@Find_lower:

; 1619 :                 _Result._Location._Child = _Tree_child::_Left;
; 1620 :                 _Result._Bound           = _Trynode;

  00031	89 42 08	 mov	 DWORD PTR [edx+8], eax

; 1621 :                 _Trynode                 = _Trynode->_Left;

  00034	b9 01 00 00 00	 mov	 ecx, 1
  00039	8b 00		 mov	 eax, DWORD PTR [eax]
$LN5@Find_lower:

; 1612 :         _Nodeptr _Trynode = _Result._Location._Parent;
; 1613 :         while (!_Trynode->_Isnil) {

  0003b	89 4a 04	 mov	 DWORD PTR [edx+4], ecx
  0003e	80 78 0d 00	 cmp	 BYTE PTR [eax+13], 0
  00042	74 df		 je	 SHORT $LL2@Find_lower

; 1622 :             }
; 1623 :         }
; 1624 : 
; 1625 :         return _Result;

  00044	5e		 pop	 esi
$LN12@Find_lower:

; 1626 :     }

  00045	8b c2		 mov	 eax, edx
  00047	5d		 pop	 ebp
  00048	c2 08 00	 ret	 8
??$_Find_lower_bound@K@?$_Tree@V?$_Tmap_traits@KPAVCGuildMarkImage@@U?$less@K@std@@V?$allocator@U?$pair@$$CBKPAVCGuildMarkImage@@@std@@@3@$0A@@std@@@std@@IBE?AU?$_Tree_find_result@PAU?$_Tree_node@U?$pair@$$CBKPAVCGuildMarkImage@@@std@@PAX@std@@@1@ABK@Z ENDP ; std::_Tree<std::_Tmap_traits<unsigned long,CGuildMarkImage *,std::less<unsigned long>,std::allocator<std::pair<unsigned long const ,CGuildMarkImage *> >,0> >::_Find_lower_bound<unsigned long>
_TEXT	ENDS
; Function compile flags: /Ogtp
; File C:\Program Files\Microsoft Visual Studio\2022\Community\VC\Tools\MSVC\14.34.31933\include\xtree
; File C:\Program Files\Microsoft Visual Studio\2022\Community\VC\Tools\MSVC\14.34.31933\include\xstddef
; File C:\Program Files\Microsoft Visual Studio\2022\Community\VC\Tools\MSVC\14.34.31933\include\xtree
;	COMDAT ??$_Lower_bound_duplicate@K@?$_Tree@V?$_Tmap_traits@KPAVCGuildMarkImage@@U?$less@K@std@@V?$allocator@U?$pair@$$CBKPAVCGuildMarkImage@@@std@@@3@$0A@@std@@@std@@IBE_NQAU?$_Tree_node@U?$pair@$$CBKPAVCGuildMarkImage@@@std@@PAX@1@ABK@Z
_TEXT	SEGMENT
__Bound$ = 8						; size = 4
__Keyval$ = 12						; size = 4
??$_Lower_bound_duplicate@K@?$_Tree@V?$_Tmap_traits@KPAVCGuildMarkImage@@U?$less@K@std@@V?$allocator@U?$pair@$$CBKPAVCGuildMarkImage@@@std@@@3@$0A@@std@@@std@@IBE_NQAU?$_Tree_node@U?$pair@$$CBKPAVCGuildMarkImage@@@std@@PAX@1@ABK@Z PROC ; std::_Tree<std::_Tmap_traits<unsigned long,CGuildMarkImage *,std::less<unsigned long>,std::allocator<std::pair<unsigned long const ,CGuildMarkImage *> >,0> >::_Lower_bound_duplicate<unsigned long>, COMDAT
; _this$dead$ = ecx

; 1604 :     bool _Lower_bound_duplicate(const _Nodeptr _Bound, const _Keyty& _Keyval) const {

  00000	55		 push	 ebp
  00001	8b ec		 mov	 ebp, esp

; 1605 :         return !_Bound->_Isnil && !_DEBUG_LT_PRED(_Getcomp(), _Keyval, _Traits::_Kfn(_Bound->_Myval));

  00003	8b 4d 08	 mov	 ecx, DWORD PTR __Bound$[ebp]
  00006	80 79 0d 00	 cmp	 BYTE PTR [ecx+13], 0
  0000a	75 10		 jne	 SHORT $LN3@Lower_boun
; File C:\Program Files\Microsoft Visual Studio\2022\Community\VC\Tools\MSVC\14.34.31933\include\xstddef

; 143  :         return _Left < _Right;

  0000c	8b 45 0c	 mov	 eax, DWORD PTR __Keyval$[ebp]
  0000f	8b 00		 mov	 eax, DWORD PTR [eax]
  00011	3b 41 10	 cmp	 eax, DWORD PTR [ecx+16]
; File C:\Program Files\Microsoft Visual Studio\2022\Community\VC\Tools\MSVC\14.34.31933\include\xtree

; 1605 :         return !_Bound->_Isnil && !_DEBUG_LT_PRED(_Getcomp(), _Keyval, _Traits::_Kfn(_Bound->_Myval));

  00014	72 06		 jb	 SHORT $LN3@Lower_boun
  00016	b0 01		 mov	 al, 1

; 1606 :     }

  00018	5d		 pop	 ebp
  00019	c2 08 00	 ret	 8
$LN3@Lower_boun:

; 1605 :         return !_Bound->_Isnil && !_DEBUG_LT_PRED(_Getcomp(), _Keyval, _Traits::_Kfn(_Bound->_Myval));

  0001c	32 c0		 xor	 al, al

; 1606 :     }

  0001e	5d		 pop	 ebp
  0001f	c2 08 00	 ret	 8
??$_Lower_bound_duplicate@K@?$_Tree@V?$_Tmap_traits@KPAVCGuildMarkImage@@U?$less@K@std@@V?$allocator@U?$pair@$$CBKPAVCGuildMarkImage@@@std@@@3@$0A@@std@@@std@@IBE_NQAU?$_Tree_node@U?$pair@$$CBKPAVCGuildMarkImage@@@std@@PAX@1@ABK@Z ENDP ; std::_Tree<std::_Tmap_traits<unsigned long,CGuildMarkImage *,std::less<unsigned long>,std::allocator<std::pair<unsigned long const ,CGuildMarkImage *> >,0> >::_Lower_bound_duplicate<unsigned long>
_TEXT	ENDS
; Function compile flags: /Ogtp
; File C:\Program Files\Microsoft Visual Studio\2022\Community\VC\Tools\MSVC\14.34.31933\include\utility
;	COMDAT ??$exchange@PAU?$_Tree_node@U?$pair@$$CBKPAVCGuildMarkImage@@@std@@PAX@std@@AAPAU12@@std@@YAPAU?$_Tree_node@U?$pair@$$CBKPAVCGuildMarkImage@@@std@@PAX@0@AAPAU10@0@Z
_TEXT	SEGMENT
??$exchange@PAU?$_Tree_node@U?$pair@$$CBKPAVCGuildMarkImage@@@std@@PAX@std@@AAPAU12@@std@@YAPAU?$_Tree_node@U?$pair@$$CBKPAVCGuildMarkImage@@@std@@PAX@0@AAPAU10@0@Z PROC ; std::exchange<std::_Tree_node<std::pair<unsigned long const ,CGuildMarkImage *>,void *> *,std::_Tree_node<std::pair<unsigned long const ,CGuildMarkImage *>,void *> * &>, COMDAT
; __Val$ = ecx
; __New_val$ = edx

; 652  :     // assign _New_val to _Val, return previous _Val
; 653  :     _Ty _Old_val = static_cast<_Ty&&>(_Val);

  00000	8b 01		 mov	 eax, DWORD PTR [ecx]

; 654  :     _Val         = static_cast<_Other&&>(_New_val);

  00002	8b 12		 mov	 edx, DWORD PTR [edx]
  00004	89 11		 mov	 DWORD PTR [ecx], edx

; 655  :     return _Old_val;
; 656  : }

  00006	c3		 ret	 0
??$exchange@PAU?$_Tree_node@U?$pair@$$CBKPAVCGuildMarkImage@@@std@@PAX@std@@AAPAU12@@std@@YAPAU?$_Tree_node@U?$pair@$$CBKPAVCGuildMarkImage@@@std@@PAX@0@AAPAU10@0@Z ENDP ; std::exchange<std::_Tree_node<std::pair<unsigned long const ,CGuildMarkImage *>,void *> *,std::_Tree_node<std::pair<unsigned long const ,CGuildMarkImage *>,void *> * &>
_TEXT	ENDS
; Function compile flags: /Ogtp
; File C:\Program Files\Microsoft Visual Studio\2022\Community\VC\Tools\MSVC\14.34.31933\include\xtree
; File C:\Program Files\Microsoft Visual Studio\2022\Community\VC\Tools\MSVC\14.34.31933\include\xmemory
; File C:\Program Files\Microsoft Visual Studio\2022\Community\VC\Tools\MSVC\14.34.31933\include\xtree
;	COMDAT ??$_Freenode@V?$allocator@U?$_Tree_node@U?$pair@$$CBKPAVCGuildMarkImage@@@std@@PAX@std@@@std@@@?$_Tree_node@U?$pair@$$CBKPAVCGuildMarkImage@@@std@@PAX@std@@SAXAAV?$allocator@U?$_Tree_node@U?$pair@$$CBKPAVCGuildMarkImage@@@std@@PAX@std@@@1@PAU01@@Z
_TEXT	SEGMENT
??$_Freenode@V?$allocator@U?$_Tree_node@U?$pair@$$CBKPAVCGuildMarkImage@@@std@@PAX@std@@@std@@@?$_Tree_node@U?$pair@$$CBKPAVCGuildMarkImage@@@std@@PAX@std@@SAXAAV?$allocator@U?$_Tree_node@U?$pair@$$CBKPAVCGuildMarkImage@@@std@@PAX@std@@@1@PAU01@@Z PROC ; std::_Tree_node<std::pair<unsigned long const ,CGuildMarkImage *>,void *>::_Freenode<std::allocator<std::_Tree_node<std::pair<unsigned long const ,CGuildMarkImage *>,void *> > >, COMDAT
; __Al$dead$ = ecx
; __Ptr$ = edx
; File C:\Program Files\Microsoft Visual Studio\2022\Community\VC\Tools\MSVC\14.34.31933\include\xmemory

; 255  :         ::operator delete(_Ptr, _Bytes);

  00000	6a 18		 push	 24			; 00000018H
  00002	52		 push	 edx
  00003	e8 00 00 00 00	 call	 ??3@YAXPAXI@Z		; operator delete
  00008	83 c4 08	 add	 esp, 8
; File C:\Program Files\Microsoft Visual Studio\2022\Community\VC\Tools\MSVC\14.34.31933\include\xtree

; 384  :     }

  0000b	c3		 ret	 0
??$_Freenode@V?$allocator@U?$_Tree_node@U?$pair@$$CBKPAVCGuildMarkImage@@@std@@PAX@std@@@std@@@?$_Tree_node@U?$pair@$$CBKPAVCGuildMarkImage@@@std@@PAX@std@@SAXAAV?$allocator@U?$_Tree_node@U?$pair@$$CBKPAVCGuildMarkImage@@@std@@PAX@std@@@1@PAU01@@Z ENDP ; std::_Tree_node<std::pair<unsigned long const ,CGuildMarkImage *>,void *>::_Freenode<std::allocator<std::_Tree_node<std::pair<unsigned long const ,CGuildMarkImage *>,void *> > >
_TEXT	ENDS
; Function compile flags: /Ogtp
; File C:\Program Files\Microsoft Visual Studio\2022\Community\VC\Tools\MSVC\14.34.31933\include\xtree
; File C:\Program Files\Microsoft Visual Studio\2022\Community\VC\Tools\MSVC\14.34.31933\include\xmemory
; File C:\Program Files\Microsoft Visual Studio\2022\Community\VC\Tools\MSVC\14.34.31933\include\xtree
;	COMDAT ??$_Freenode0@V?$allocator@U?$_Tree_node@U?$pair@$$CBKPAVCGuildMarkImage@@@std@@PAX@std@@@std@@@?$_Tree_node@U?$pair@$$CBKPAVCGuildMarkImage@@@std@@PAX@std@@SAXAAV?$allocator@U?$_Tree_node@U?$pair@$$CBKPAVCGuildMarkImage@@@std@@PAX@std@@@1@PAU01@@Z
_TEXT	SEGMENT
??$_Freenode0@V?$allocator@U?$_Tree_node@U?$pair@$$CBKPAVCGuildMarkImage@@@std@@PAX@std@@@std@@@?$_Tree_node@U?$pair@$$CBKPAVCGuildMarkImage@@@std@@PAX@std@@SAXAAV?$allocator@U?$_Tree_node@U?$pair@$$CBKPAVCGuildMarkImage@@@std@@PAX@std@@@1@PAU01@@Z PROC ; std::_Tree_node<std::pair<unsigned long const ,CGuildMarkImage *>,void *>::_Freenode0<std::allocator<std::_Tree_node<std::pair<unsigned long const ,CGuildMarkImage *>,void *> > >, COMDAT
; __Al$dead$ = ecx
; __Ptr$ = edx
; File C:\Program Files\Microsoft Visual Studio\2022\Community\VC\Tools\MSVC\14.34.31933\include\xmemory

; 255  :         ::operator delete(_Ptr, _Bytes);

  00000	6a 18		 push	 24			; 00000018H
  00002	52		 push	 edx
  00003	e8 00 00 00 00	 call	 ??3@YAXPAXI@Z		; operator delete
  00008	83 c4 08	 add	 esp, 8
; File C:\Program Files\Microsoft Visual Studio\2022\Community\VC\Tools\MSVC\14.34.31933\include\xtree

; 377  :     }

  0000b	c3		 ret	 0
??$_Freenode0@V?$allocator@U?$_Tree_node@U?$pair@$$CBKPAVCGuildMarkImage@@@std@@PAX@std@@@std@@@?$_Tree_node@U?$pair@$$CBKPAVCGuildMarkImage@@@std@@PAX@std@@SAXAAV?$allocator@U?$_Tree_node@U?$pair@$$CBKPAVCGuildMarkImage@@@std@@PAX@std@@@1@PAU01@@Z ENDP ; std::_Tree_node<std::pair<unsigned long const ,CGuildMarkImage *>,void *>::_Freenode0<std::allocator<std::_Tree_node<std::pair<unsigned long const ,CGuildMarkImage *>,void *> > >
_TEXT	ENDS
; Function compile flags: /Ogtp
; File C:\Program Files\Microsoft Visual Studio\2022\Community\VC\Tools\MSVC\14.34.31933\include\vector
; File C:\Program Files\Microsoft Visual Studio\2022\Community\VC\Tools\MSVC\14.34.31933\include\xmemory
; File C:\Program Files\Microsoft Visual Studio\2022\Community\VC\Tools\MSVC\14.34.31933\include\vector
; File C:\Program Files\Microsoft Visual Studio\2022\Community\VC\Tools\MSVC\14.34.31933\include\xmemory
; File C:\Program Files\Microsoft Visual Studio\2022\Community\VC\Tools\MSVC\14.34.31933\include\vector
; File C:\Program Files\Microsoft Visual Studio\2022\Community\VC\Tools\MSVC\14.34.31933\include\xmemory
; File C:\Program Files\Microsoft Visual Studio\2022\Community\VC\Tools\MSVC\14.34.31933\include\vector
; File C:\Program Files\Microsoft Visual Studio\2022\Community\VC\Tools\MSVC\14.34.31933\include\xmemory
; File C:\Program Files\Microsoft Visual Studio\2022\Community\VC\Tools\MSVC\14.34.31933\include\vector
;	COMDAT ??$_Resize_reallocate@U_Value_init_tag@std@@@?$vector@EV?$allocator@E@std@@@std@@AAEXIABU_Value_init_tag@1@@Z
_TEXT	SEGMENT
_this$1$ = -4						; size = 4
__Oldsize$1$ = 8					; size = 4
__Newsize$ = 8						; size = 4
__Val$ = 12						; size = 4
??$_Resize_reallocate@U_Value_init_tag@std@@@?$vector@EV?$allocator@E@std@@@std@@AAEXIABU_Value_init_tag@1@@Z PROC ; std::vector<unsigned char,std::allocator<unsigned char> >::_Resize_reallocate<std::_Value_init_tag>, COMDAT
; _this$ = ecx

; 1574 :     _CONSTEXPR20 void _Resize_reallocate(const size_type _Newsize, const _Ty2& _Val) {

  00000	55		 push	 ebp
  00001	8b ec		 mov	 ebp, esp
  00003	51		 push	 ecx
  00004	53		 push	 ebx
  00005	56		 push	 esi
  00006	57		 push	 edi

; 1575 :         if (_Newsize > max_size()) {

  00007	8b 7d 08	 mov	 edi, DWORD PTR __Newsize$[ebp]
  0000a	89 4d fc	 mov	 DWORD PTR _this$1$[ebp], ecx
  0000d	81 ff ff ff ff
	7f		 cmp	 edi, 2147483647		; 7fffffffH
  00013	0f 87 98 00 00
	00		 ja	 $LN65@Resize_rea

; 1577 :         }
; 1578 : 
; 1579 :         auto& _Al         = _Getal();
; 1580 :         auto& _My_data    = _Mypair._Myval2;
; 1581 :         pointer& _Myfirst = _My_data._Myfirst;
; 1582 :         pointer& _Mylast  = _My_data._Mylast;
; 1583 : 
; 1584 :         const auto _Oldsize          = static_cast<size_type>(_Mylast - _Myfirst);

  00019	8b 01		 mov	 eax, DWORD PTR [ecx]
  0001b	8b 51 04	 mov	 edx, DWORD PTR [ecx+4]

; 1942 :         return static_cast<size_type>(_My_data._Myend - _My_data._Myfirst);

  0001e	8b 49 08	 mov	 ecx, DWORD PTR [ecx+8]

; 1577 :         }
; 1578 : 
; 1579 :         auto& _Al         = _Getal();
; 1580 :         auto& _My_data    = _Mypair._Myval2;
; 1581 :         pointer& _Myfirst = _My_data._Myfirst;
; 1582 :         pointer& _Mylast  = _My_data._Mylast;
; 1583 : 
; 1584 :         const auto _Oldsize          = static_cast<size_type>(_Mylast - _Myfirst);

  00021	2b d0		 sub	 edx, eax

; 1942 :         return static_cast<size_type>(_My_data._Myend - _My_data._Myfirst);

  00023	2b c8		 sub	 ecx, eax

; 1577 :         }
; 1578 : 
; 1579 :         auto& _Al         = _Getal();
; 1580 :         auto& _My_data    = _Mypair._Myval2;
; 1581 :         pointer& _Myfirst = _My_data._Myfirst;
; 1582 :         pointer& _Mylast  = _My_data._Mylast;
; 1583 : 
; 1584 :         const auto _Oldsize          = static_cast<size_type>(_Mylast - _Myfirst);

  00025	89 55 08	 mov	 DWORD PTR __Oldsize$1$[ebp], edx

; 2029 :         if (_Oldcapacity > _Max - _Oldcapacity / 2) {

  00028	8b d1		 mov	 edx, ecx
  0002a	b8 ff ff ff 7f	 mov	 eax, 2147483647		; 7fffffffH
  0002f	d1 ea		 shr	 edx, 1
  00031	2b c2		 sub	 eax, edx
  00033	3b c8		 cmp	 ecx, eax
  00035	76 12		 jbe	 SHORT $LN10@Resize_rea

; 2030 :             return _Max; // geometric growth would overflow

  00037	be ff ff ff 7f	 mov	 esi, 2147483647		; 7fffffffH
; File C:\Program Files\Microsoft Visual Studio\2022\Community\VC\Tools\MSVC\14.34.31933\include\xmemory

; 229  :             return _Allocate_manually_vector_aligned<_Traits>(_Bytes);

  0003c	56		 push	 esi
  0003d	e8 00 00 00 00	 call	 ??$_Allocate_manually_vector_aligned@U_Default_allocate_traits@std@@@std@@YAPAXI@Z ; std::_Allocate_manually_vector_aligned<std::_Default_allocate_traits>
  00042	83 c4 04	 add	 esp, 4
  00045	8b d8		 mov	 ebx, eax
  00047	eb 30		 jmp	 SHORT $LN17@Resize_rea
$LN10@Resize_rea:
; File C:\Program Files\Microsoft Visual Studio\2022\Community\VC\Tools\MSVC\14.34.31933\include\vector

; 2033 :         const size_type _Geometric = _Oldcapacity + _Oldcapacity / 2;

  00049	8d 34 0a	 lea	 esi, DWORD PTR [edx+ecx]

; 2034 : 
; 2035 :         if (_Geometric < _Newsize) {

  0004c	3b f7		 cmp	 esi, edi
  0004e	0f 42 f7	 cmovb	 esi, edi
; File C:\Program Files\Microsoft Visual Studio\2022\Community\VC\Tools\MSVC\14.34.31933\include\xmemory

; 228  :         if (_Bytes >= _Big_allocation_threshold) { // boost the alignment of big allocations to help autovectorization

  00051	81 fe 00 10 00
	00		 cmp	 esi, 4096		; 00001000H
  00057	72 0d		 jb	 SHORT $LN19@Resize_rea

; 229  :             return _Allocate_manually_vector_aligned<_Traits>(_Bytes);

  00059	56		 push	 esi
  0005a	e8 00 00 00 00	 call	 ??$_Allocate_manually_vector_aligned@U_Default_allocate_traits@std@@@std@@YAPAXI@Z ; std::_Allocate_manually_vector_aligned<std::_Default_allocate_traits>
  0005f	83 c4 04	 add	 esp, 4
  00062	8b d8		 mov	 ebx, eax
  00064	eb 13		 jmp	 SHORT $LN17@Resize_rea
$LN19@Resize_rea:

; 230  :         }
; 231  :     }
; 232  : #endif // defined(_M_IX86) || defined(_M_X64)
; 233  : 
; 234  :     if (_Bytes != 0) {

  00066	85 f6		 test	 esi, esi
  00068	74 0d		 je	 SHORT $LN20@Resize_rea

; 77   :         return ::operator new(_Bytes);

  0006a	56		 push	 esi
  0006b	e8 00 00 00 00	 call	 ??2@YAPAXI@Z		; operator new
  00070	83 c4 04	 add	 esp, 4

; 235  :         return _Traits::_Allocate(_Bytes);

  00073	8b d8		 mov	 ebx, eax
  00075	eb 02		 jmp	 SHORT $LN17@Resize_rea
$LN20@Resize_rea:

; 236  :     }
; 237  : 
; 238  :     return nullptr;

  00077	33 db		 xor	 ebx, ebx
$LN17@Resize_rea:
; File C:\Program Files\Microsoft Visual Studio\2022\Community\VC\Tools\MSVC\14.34.31933\include\vector

; 1588 :         const pointer _Appended_first = _Newvec + _Oldsize;

  00079	8b 55 08	 mov	 edx, DWORD PTR __Oldsize$1$[ebp]

; 1589 :         pointer _Appended_last        = _Appended_first;
; 1590 : 
; 1591 :         _TRY_BEGIN
; 1592 :         if constexpr (is_same_v<_Ty2, _Ty>) {
; 1593 :             _Appended_last = _Uninitialized_fill_n(_Appended_first, _Newsize - _Oldsize, _Val, _Al);
; 1594 :         } else {
; 1595 :             _STL_INTERNAL_STATIC_ASSERT(is_same_v<_Ty2, _Value_init_tag>);
; 1596 :             _Appended_last = _Uninitialized_value_construct_n(_Appended_first, _Newsize - _Oldsize, _Al);

  0007c	8b c7		 mov	 eax, edi
  0007e	2b c2		 sub	 eax, edx
  00080	8d 0c 13	 lea	 ecx, DWORD PTR [ebx+edx]
; File C:\Program Files\Microsoft Visual Studio\2022\Community\VC\Tools\MSVC\14.34.31933\include\xmemory

; 1896 :             _Zero_range(_PFirst, _PFirst + _Count);

  00083	03 c1		 add	 eax, ecx
  00085	50		 push	 eax
  00086	51		 push	 ecx
  00087	e8 00 00 00 00	 call	 ??$_Zero_range@PAE@std@@YAPAEQAE0@Z ; std::_Zero_range<unsigned char *>

; 1800 :             _Copy_memmove(_UFirst, _ULast, _Unfancy(_Dest));

  0008c	8b 45 fc	 mov	 eax, DWORD PTR _this$1$[ebp]
  0008f	53		 push	 ebx
  00090	ff 70 04	 push	 DWORD PTR [eax+4]
  00093	ff 30		 push	 DWORD PTR [eax]
  00095	e8 00 00 00 00	 call	 ??$_Copy_memmove@PAEPAE@std@@YAPAEPAE00@Z ; std::_Copy_memmove<unsigned char *,unsigned char *>
; File C:\Program Files\Microsoft Visual Studio\2022\Community\VC\Tools\MSVC\14.34.31933\include\vector

; 1610 :         _Change_array(_Newvec, _Newsize, _Newcapacity);

  0009a	8b 4d fc	 mov	 ecx, DWORD PTR _this$1$[ebp]
; File C:\Program Files\Microsoft Visual Studio\2022\Community\VC\Tools\MSVC\14.34.31933\include\xmemory

; 1800 :             _Copy_memmove(_UFirst, _ULast, _Unfancy(_Dest));

  0009d	83 c4 14	 add	 esp, 20			; 00000014H
; File C:\Program Files\Microsoft Visual Studio\2022\Community\VC\Tools\MSVC\14.34.31933\include\vector

; 1610 :         _Change_array(_Newvec, _Newsize, _Newcapacity);

  000a0	56		 push	 esi
  000a1	57		 push	 edi
  000a2	53		 push	 ebx
  000a3	e8 00 00 00 00	 call	 ?_Change_array@?$vector@EV?$allocator@E@std@@@std@@AAEXQAEII@Z ; std::vector<unsigned char,std::allocator<unsigned char> >::_Change_array
  000a8	5f		 pop	 edi
  000a9	5e		 pop	 esi
  000aa	5b		 pop	 ebx

; 1611 :     }

  000ab	8b e5		 mov	 esp, ebp
  000ad	5d		 pop	 ebp
  000ae	c2 08 00	 ret	 8
$LN65@Resize_rea:

; 1576 :             _Xlength();

  000b1	e8 00 00 00 00	 call	 ?_Xlength@?$vector@EV?$allocator@E@std@@@std@@CAXXZ ; std::vector<unsigned char,std::allocator<unsigned char> >::_Xlength
$LN63@Resize_rea:
  000b6	cc		 int	 3
??$_Resize_reallocate@U_Value_init_tag@std@@@?$vector@EV?$allocator@E@std@@@std@@AAEXIABU_Value_init_tag@1@@Z ENDP ; std::vector<unsigned char,std::allocator<unsigned char> >::_Resize_reallocate<std::_Value_init_tag>
_TEXT	ENDS
; Function compile flags: /Ogtp
; File C:\Program Files\Microsoft Visual Studio\2022\Community\VC\Tools\MSVC\14.34.31933\include\xmemory
;	COMDAT ??$_Uninitialized_value_construct_n@V?$allocator@E@std@@@std@@YAPAEPAEIAAV?$allocator@E@0@@Z
_TEXT	SEGMENT
__Al$dead$ = 8						; size = 4
??$_Uninitialized_value_construct_n@V?$allocator@E@std@@@std@@YAPAEPAEIAAV?$allocator@E@0@@Z PROC ; std::_Uninitialized_value_construct_n<std::allocator<unsigned char> >, COMDAT
; __First$ = ecx
; __Count$ = edx

; 1887 :     _Alloc_ptr_t<_Alloc> _First, _Alloc_size_t<_Alloc> _Count, _Alloc& _Al) {

  00000	56		 push	 esi

; 1888 :     // value-initialize _Count objects to raw _First, using _Al
; 1889 :     using _Ptrty = typename _Alloc::value_type*;
; 1890 :     if constexpr (_Use_memset_value_construct_v<_Ptrty> && _Uses_default_construct<_Alloc, _Ptrty>::value) {
; 1891 : #if _HAS_CXX20
; 1892 :         if (!_STD is_constant_evaluated())
; 1893 : #endif // _HAS_CXX20
; 1894 :         {
; 1895 :             auto _PFirst = _Unfancy(_First);
; 1896 :             _Zero_range(_PFirst, _PFirst + _Count);

  00001	8d 34 11	 lea	 esi, DWORD PTR [ecx+edx]
  00004	56		 push	 esi
  00005	51		 push	 ecx
  00006	e8 00 00 00 00	 call	 ??$_Zero_range@PAE@std@@YAPAEQAE0@Z ; std::_Zero_range<unsigned char *>
  0000b	83 c4 08	 add	 esp, 8

; 1897 :             return _First + _Count;

  0000e	8b c6		 mov	 eax, esi
  00010	5e		 pop	 esi

; 1898 :         }
; 1899 :     }
; 1900 : 
; 1901 :     _Uninitialized_backout_al<_Alloc> _Backout{_First, _Al};
; 1902 :     for (; 0 < _Count; --_Count) {
; 1903 :         _Backout._Emplace_back();
; 1904 :     }
; 1905 : 
; 1906 :     return _Backout._Release();
; 1907 : }

  00011	c3		 ret	 0
??$_Uninitialized_value_construct_n@V?$allocator@E@std@@@std@@YAPAEPAEIAAV?$allocator@E@0@@Z ENDP ; std::_Uninitialized_value_construct_n<std::allocator<unsigned char> >
_TEXT	ENDS
; Function compile flags: /Ogtp
; File C:\Program Files\Microsoft Visual Studio\2022\Community\VC\Tools\MSVC\14.34.31933\include\type_traits
;	COMDAT ??$move@AAE@std@@YA$$QAEAAE@Z
_TEXT	SEGMENT
??$move@AAE@std@@YA$$QAEAAE@Z PROC			; std::move<unsigned char &>, COMDAT
; __Arg$ = ecx

; 1437 :     return static_cast<remove_reference_t<_Ty>&&>(_Arg);

  00000	8b c1		 mov	 eax, ecx

; 1438 : }

  00002	c3		 ret	 0
??$move@AAE@std@@YA$$QAEAAE@Z ENDP			; std::move<unsigned char &>
_TEXT	ENDS
; Function compile flags: /Ogtp
; File C:\Program Files\Microsoft Visual Studio\2022\Community\VC\Tools\MSVC\14.34.31933\include\xstddef
;	COMDAT ??$_Unfancy@E@std@@YAPAEPAE@Z
_TEXT	SEGMENT
??$_Unfancy@E@std@@YAPAEPAE@Z PROC			; std::_Unfancy<unsigned char>, COMDAT
; __Ptr$ = ecx

; 294  :     return _Ptr;

  00000	8b c1		 mov	 eax, ecx

; 295  : }

  00002	c3		 ret	 0
??$_Unfancy@E@std@@YAPAEPAE@Z ENDP			; std::_Unfancy<unsigned char>
_TEXT	ENDS
; Function compile flags: /Ogtp
; File C:\Program Files\Microsoft Visual Studio\2022\Community\VC\Tools\MSVC\14.34.31933\include\xutility
;	COMDAT ??$_Copy_memmove@PAEPAE@std@@YAPAEPAE00@Z
_TEXT	SEGMENT
__First$ = 8						; size = 4
__Last$ = 12						; size = 4
__Dest$ = 16						; size = 4
??$_Copy_memmove@PAEPAE@std@@YAPAEPAE00@Z PROC		; std::_Copy_memmove<unsigned char *,unsigned char *>, COMDAT

; 3833 : _OutCtgIt _Copy_memmove(_CtgIt _First, _CtgIt _Last, _OutCtgIt _Dest) {

  00000	55		 push	 ebp
  00001	8b ec		 mov	 ebp, esp

; 3834 :     auto _FirstPtr              = _To_address(_First);
; 3835 :     auto _LastPtr               = _To_address(_Last);
; 3836 :     auto _DestPtr               = _To_address(_Dest);
; 3837 :     const char* const _First_ch = const_cast<const char*>(reinterpret_cast<const volatile char*>(_FirstPtr));
; 3838 :     const char* const _Last_ch  = const_cast<const char*>(reinterpret_cast<const volatile char*>(_LastPtr));
; 3839 :     char* const _Dest_ch        = const_cast<char*>(reinterpret_cast<const volatile char*>(_DestPtr));
; 3840 :     const auto _Count           = static_cast<size_t>(_Last_ch - _First_ch);

  00003	8b 45 08	 mov	 eax, DWORD PTR __First$[ebp]
  00006	56		 push	 esi

; 3841 :     _CSTD memmove(_Dest_ch, _First_ch, _Count);

  00007	8b 75 10	 mov	 esi, DWORD PTR __Dest$[ebp]
  0000a	57		 push	 edi
  0000b	8b 7d 0c	 mov	 edi, DWORD PTR __Last$[ebp]
  0000e	2b f8		 sub	 edi, eax
  00010	57		 push	 edi
  00011	50		 push	 eax
  00012	56		 push	 esi
  00013	e8 00 00 00 00	 call	 _memmove
  00018	83 c4 0c	 add	 esp, 12			; 0000000cH

; 3842 :     if constexpr (is_pointer_v<_OutCtgIt>) {
; 3843 :         return reinterpret_cast<_OutCtgIt>(_Dest_ch + _Count);

  0001b	8d 04 37	 lea	 eax, DWORD PTR [edi+esi]
  0001e	5f		 pop	 edi
  0001f	5e		 pop	 esi

; 3844 :     } else {
; 3845 :         return _Dest + (_LastPtr - _FirstPtr);
; 3846 :     }
; 3847 : }

  00020	5d		 pop	 ebp
  00021	c3		 ret	 0
??$_Copy_memmove@PAEPAE@std@@YAPAEPAE00@Z ENDP		; std::_Copy_memmove<unsigned char *,unsigned char *>
_TEXT	ENDS
; Function compile flags: /Ogtp
; File C:\Program Files\Microsoft Visual Studio\2022\Community\VC\Tools\MSVC\14.34.31933\include\xutility
;	COMDAT ??$_To_address@PAE@std@@YA?A_PABQAE@Z
_TEXT	SEGMENT
??$_To_address@PAE@std@@YA?A_PABQAE@Z PROC		; std::_To_address<unsigned char *>, COMDAT
; __Val$ = ecx

; 3703 :     _STL_INTERNAL_STATIC_ASSERT(contiguous_iterator<_Iter>);
; 3704 :     return _STD to_address(_Val);

  00000	8b 01		 mov	 eax, DWORD PTR [ecx]

; 3705 : }

  00002	c3		 ret	 0
??$_To_address@PAE@std@@YA?A_PABQAE@Z ENDP		; std::_To_address<unsigned char *>
_TEXT	ENDS
; Function compile flags: /Ogtp
; File C:\Program Files\Microsoft Visual Studio\2022\Community\VC\Tools\MSVC\14.34.31933\include\xmemory
;	COMDAT ??$_Emplace_back@E@?$_Uninitialized_backout_al@V?$allocator@E@std@@@std@@QAEX$$QAE@Z
_TEXT	SEGMENT
_<_Vals_0>$ = 8						; size = 4
??$_Emplace_back@E@?$_Uninitialized_backout_al@V?$allocator@E@std@@@std@@QAEX$$QAE@Z PROC ; std::_Uninitialized_backout_al<std::allocator<unsigned char> >::_Emplace_back<unsigned char>, COMDAT
; _this$ = ecx

; 1662 :     _CONSTEXPR20 void _Emplace_back(_Types&&... _Vals) { // construct a new element at *_Last and increment

  00000	55		 push	 ebp
  00001	8b ec		 mov	 ebp, esp

; 1663 :         allocator_traits<_Alloc>::construct(_Al, _Unfancy(_Last), _STD forward<_Types>(_Vals)...);

  00003	8b 45 08	 mov	 eax, DWORD PTR _<_Vals_0>$[ebp]
  00006	8b 51 04	 mov	 edx, DWORD PTR [ecx+4]
  00009	8a 00		 mov	 al, BYTE PTR [eax]
  0000b	88 02		 mov	 BYTE PTR [edx], al

; 1664 :         ++_Last;

  0000d	ff 41 04	 inc	 DWORD PTR [ecx+4]

; 1665 :     }

  00010	5d		 pop	 ebp
  00011	c2 04 00	 ret	 4
??$_Emplace_back@E@?$_Uninitialized_backout_al@V?$allocator@E@std@@@std@@QAEX$$QAE@Z ENDP ; std::_Uninitialized_backout_al<std::allocator<unsigned char> >::_Emplace_back<unsigned char>
_TEXT	ENDS
; Function compile flags: /Ogtp
; File C:\Program Files\Microsoft Visual Studio\2022\Community\VC\Tools\MSVC\14.34.31933\include\xutility
;	COMDAT ??$_Construct_in_place@PAU?$_Tree_node@U?$pair@$$CBKUTGuildSymbol@CGuildMarkManager@@@std@@PAX@std@@ABQAU12@@std@@YAXAAPAU?$_Tree_node@U?$pair@$$CBKUTGuildSymbol@CGuildMarkManager@@@std@@PAX@0@ABQAU10@@Z
_TEXT	SEGMENT
??$_Construct_in_place@PAU?$_Tree_node@U?$pair@$$CBKUTGuildSymbol@CGuildMarkManager@@@std@@PAX@std@@ABQAU12@@std@@YAXAAPAU?$_Tree_node@U?$pair@$$CBKUTGuildSymbol@CGuildMarkManager@@@std@@PAX@0@ABQAU10@@Z PROC ; std::_Construct_in_place<std::_Tree_node<std::pair<unsigned long const ,CGuildMarkManager::TGuildSymbol>,void *> *,std::_Tree_node<std::pair<unsigned long const ,CGuildMarkManager::TGuildSymbol>,void *> * const &>, COMDAT
; __Obj$ = ecx
; _<_Args_0>$ = edx

; 225  : #if _HAS_CXX20
; 226  :     if (_STD is_constant_evaluated()) {
; 227  :         _STD construct_at(_STD addressof(_Obj), _STD forward<_Types>(_Args)...);
; 228  :     } else
; 229  : #endif // _HAS_CXX20
; 230  :     {
; 231  :         ::new (_Voidify_iter(_STD addressof(_Obj))) _Ty(_STD forward<_Types>(_Args)...);
; 232  :     }
; 233  : }

  00000	8b 02		 mov	 eax, DWORD PTR [edx]
  00002	89 01		 mov	 DWORD PTR [ecx], eax
  00004	c3		 ret	 0
??$_Construct_in_place@PAU?$_Tree_node@U?$pair@$$CBKUTGuildSymbol@CGuildMarkManager@@@std@@PAX@std@@ABQAU12@@std@@YAXAAPAU?$_Tree_node@U?$pair@$$CBKUTGuildSymbol@CGuildMarkManager@@@std@@PAX@0@ABQAU10@@Z ENDP ; std::_Construct_in_place<std::_Tree_node<std::pair<unsigned long const ,CGuildMarkManager::TGuildSymbol>,void *> *,std::_Tree_node<std::pair<unsigned long const ,CGuildMarkManager::TGuildSymbol>,void *> * const &>
_TEXT	ENDS
; Function compile flags: /Ogtp
; File C:\Program Files\Microsoft Visual Studio\2022\Community\VC\Tools\MSVC\14.34.31933\include\xutility
;	COMDAT ??$_Construct_in_place@PAU?$_Tree_node@U?$pair@$$CBKPAVCGuildMarkImage@@@std@@PAX@std@@ABQAU12@@std@@YAXAAPAU?$_Tree_node@U?$pair@$$CBKPAVCGuildMarkImage@@@std@@PAX@0@ABQAU10@@Z
_TEXT	SEGMENT
??$_Construct_in_place@PAU?$_Tree_node@U?$pair@$$CBKPAVCGuildMarkImage@@@std@@PAX@std@@ABQAU12@@std@@YAXAAPAU?$_Tree_node@U?$pair@$$CBKPAVCGuildMarkImage@@@std@@PAX@0@ABQAU10@@Z PROC ; std::_Construct_in_place<std::_Tree_node<std::pair<unsigned long const ,CGuildMarkImage *>,void *> *,std::_Tree_node<std::pair<unsigned long const ,CGuildMarkImage *>,void *> * const &>, COMDAT
; __Obj$ = ecx
; _<_Args_0>$ = edx

; 225  : #if _HAS_CXX20
; 226  :     if (_STD is_constant_evaluated()) {
; 227  :         _STD construct_at(_STD addressof(_Obj), _STD forward<_Types>(_Args)...);
; 228  :     } else
; 229  : #endif // _HAS_CXX20
; 230  :     {
; 231  :         ::new (_Voidify_iter(_STD addressof(_Obj))) _Ty(_STD forward<_Types>(_Args)...);
; 232  :     }
; 233  : }

  00000	8b 02		 mov	 eax, DWORD PTR [edx]
  00002	89 01		 mov	 DWORD PTR [ecx], eax
  00004	c3		 ret	 0
??$_Construct_in_place@PAU?$_Tree_node@U?$pair@$$CBKPAVCGuildMarkImage@@@std@@PAX@std@@ABQAU12@@std@@YAXAAPAU?$_Tree_node@U?$pair@$$CBKPAVCGuildMarkImage@@@std@@PAX@0@ABQAU10@@Z ENDP ; std::_Construct_in_place<std::_Tree_node<std::pair<unsigned long const ,CGuildMarkImage *>,void *> *,std::_Tree_node<std::pair<unsigned long const ,CGuildMarkImage *>,void *> * const &>
_TEXT	ENDS
; Function compile flags: /Ogtp
; File C:\Program Files\Microsoft Visual Studio\2022\Community\VC\Tools\MSVC\14.34.31933\include\xmemory
;	COMDAT ??$_Destroy_in_place@PAU?$_Tree_node@U?$pair@$$CBKUTGuildSymbol@CGuildMarkManager@@@std@@PAX@std@@@std@@YAXAAPAU?$_Tree_node@U?$pair@$$CBKUTGuildSymbol@CGuildMarkManager@@@std@@PAX@0@@Z
_TEXT	SEGMENT
??$_Destroy_in_place@PAU?$_Tree_node@U?$pair@$$CBKUTGuildSymbol@CGuildMarkManager@@@std@@PAX@std@@@std@@YAXAAPAU?$_Tree_node@U?$pair@$$CBKUTGuildSymbol@CGuildMarkManager@@@std@@PAX@0@@Z PROC ; std::_Destroy_in_place<std::_Tree_node<std::pair<unsigned long const ,CGuildMarkManager::TGuildSymbol>,void *> *>, COMDAT
; __Obj$dead$ = ecx

; 295  :     if constexpr (is_array_v<_Ty>) {
; 296  :         _Destroy_range(_Obj, _Obj + extent_v<_Ty>);
; 297  :     } else {
; 298  :         _Obj.~_Ty();
; 299  :     }
; 300  : }

  00000	c2 00 00	 ret	 0
??$_Destroy_in_place@PAU?$_Tree_node@U?$pair@$$CBKUTGuildSymbol@CGuildMarkManager@@@std@@PAX@std@@@std@@YAXAAPAU?$_Tree_node@U?$pair@$$CBKUTGuildSymbol@CGuildMarkManager@@@std@@PAX@0@@Z ENDP ; std::_Destroy_in_place<std::_Tree_node<std::pair<unsigned long const ,CGuildMarkManager::TGuildSymbol>,void *> *>
_TEXT	ENDS
; Function compile flags: /Ogtp
; File C:\Program Files\Microsoft Visual Studio\2022\Community\VC\Tools\MSVC\14.34.31933\include\xmemory
; File C:\Program Files\Microsoft Visual Studio\2022\Community\VC\Tools\MSVC\14.34.31933\include\vector
; File C:\Program Files\Microsoft Visual Studio\2022\Community\VC\Tools\MSVC\14.34.31933\include\xmemory
; File C:\Program Files\Microsoft Visual Studio\2022\Community\VC\Tools\MSVC\14.34.31933\include\vector
; File C:\Program Files\Microsoft Visual Studio\2022\Community\VC\Tools\MSVC\14.34.31933\include\xmemory
; File C:\Program Files\Microsoft Visual Studio\2022\Community\VC\Tools\MSVC\14.34.31933\include\vector
; File C:\Program Files\Microsoft Visual Studio\2022\Community\VC\Tools\MSVC\14.34.31933\include\xmemory
;	COMDAT ??$destroy@U?$pair@$$CBKUTGuildSymbol@CGuildMarkManager@@@std@@@?$_Default_allocator_traits@V?$allocator@U?$_Tree_node@U?$pair@$$CBKUTGuildSymbol@CGuildMarkManager@@@std@@PAX@std@@@std@@@std@@SAXAAV?$allocator@U?$_Tree_node@U?$pair@$$CBKUTGuildSymbol@CGuildMarkManager@@@std@@PAX@std@@@1@QAU?$pair@$$CBKUTGuildSymbol@CGuildMarkManager@@@1@@Z
_TEXT	SEGMENT
??$destroy@U?$pair@$$CBKUTGuildSymbol@CGuildMarkManager@@@std@@@?$_Default_allocator_traits@V?$allocator@U?$_Tree_node@U?$pair@$$CBKUTGuildSymbol@CGuildMarkManager@@@std@@PAX@std@@@std@@@std@@SAXAAV?$allocator@U?$_Tree_node@U?$pair@$$CBKUTGuildSymbol@CGuildMarkManager@@@std@@PAX@std@@@1@QAU?$pair@$$CBKUTGuildSymbol@CGuildMarkManager@@@1@@Z PROC ; std::_Default_allocator_traits<std::allocator<std::_Tree_node<std::pair<unsigned long const ,CGuildMarkManager::TGuildSymbol>,void *> > >::destroy<std::pair<unsigned long const ,CGuildMarkManager::TGuildSymbol> >, COMDAT
; ___formal$dead$ = ecx
; __Ptr$ = edx

; 685  :     static _CONSTEXPR20 void destroy(_Alloc&, _Uty* const _Ptr) {

  00000	56		 push	 esi
  00001	8b f2		 mov	 esi, edx
; File C:\Program Files\Microsoft Visual Studio\2022\Community\VC\Tools\MSVC\14.34.31933\include\vector

; 2107 :         if (_Myfirst) { // destroy and deallocate old array

  00003	8b 46 08	 mov	 eax, DWORD PTR [esi+8]
  00006	85 c0		 test	 eax, eax
  00008	74 3e		 je	 SHORT $LN17@destroy

; 2108 :             _Destroy_range(_Myfirst, _Mylast, _Al);
; 2109 :             _ASAN_VECTOR_REMOVE;
; 2110 :             _Al.deallocate(_Myfirst, static_cast<size_type>(_Myend - _Myfirst));

  0000a	8b 4e 10	 mov	 ecx, DWORD PTR [esi+16]
  0000d	2b c8		 sub	 ecx, eax
; File C:\Program Files\Microsoft Visual Studio\2022\Community\VC\Tools\MSVC\14.34.31933\include\xmemory

; 251  :         if (_Bytes >= _Big_allocation_threshold) { // boost the alignment of big allocations to help autovectorization

  0000f	81 f9 00 10 00
	00		 cmp	 ecx, 4096		; 00001000H
  00015	72 12		 jb	 SHORT $LN35@destroy

; 150  :     const uintptr_t _Ptr_container   = _Ptr_user[-1];

  00017	8b 50 fc	 mov	 edx, DWORD PTR [eax-4]
  0001a	83 c1 23	 add	 ecx, 35			; 00000023H

; 151  : 
; 152  :     // If the following asserts, it likely means that we are performing
; 153  :     // an aligned delete on memory coming from an unaligned allocation.
; 154  :     _STL_ASSERT(_Ptr_user[-2] == _Big_allocation_sentinel, "invalid argument");
; 155  : 
; 156  :     // Extra paranoia on aligned allocation/deallocation; ensure _Ptr_container is
; 157  :     // in range [_Min_back_shift, _Non_user_size]
; 158  : #ifdef _DEBUG
; 159  :     constexpr uintptr_t _Min_back_shift = 2 * sizeof(void*);
; 160  : #else // ^^^ _DEBUG ^^^ // vvv !_DEBUG vvv
; 161  :     constexpr uintptr_t _Min_back_shift = sizeof(void*);
; 162  : #endif // _DEBUG
; 163  :     const uintptr_t _Back_shift = reinterpret_cast<uintptr_t>(_Ptr) - _Ptr_container;

  0001d	2b c2		 sub	 eax, edx

; 164  :     _STL_VERIFY(_Back_shift >= _Min_back_shift && _Back_shift <= _Non_user_size, "invalid argument");

  0001f	83 c0 fc	 add	 eax, -4			; fffffffcH
  00022	83 f8 1f	 cmp	 eax, 31			; 0000001fH
  00025	77 23		 ja	 SHORT $LN32@destroy

; 165  :     _Ptr = reinterpret_cast<void*>(_Ptr_container);

  00027	8b c2		 mov	 eax, edx
$LN35@destroy:

; 255  :         ::operator delete(_Ptr, _Bytes);

  00029	51		 push	 ecx
  0002a	50		 push	 eax
  0002b	e8 00 00 00 00	 call	 ??3@YAXPAXI@Z		; operator delete
; File C:\Program Files\Microsoft Visual Studio\2022\Community\VC\Tools\MSVC\14.34.31933\include\vector

; 2112 :             _Myfirst = nullptr;

  00030	c7 46 08 00 00
	00 00		 mov	 DWORD PTR [esi+8], 0
; File C:\Program Files\Microsoft Visual Studio\2022\Community\VC\Tools\MSVC\14.34.31933\include\xmemory

; 255  :         ::operator delete(_Ptr, _Bytes);

  00037	83 c4 08	 add	 esp, 8
; File C:\Program Files\Microsoft Visual Studio\2022\Community\VC\Tools\MSVC\14.34.31933\include\vector

; 2113 :             _Mylast  = nullptr;

  0003a	c7 46 0c 00 00
	00 00		 mov	 DWORD PTR [esi+12], 0

; 2114 :             _Myend   = nullptr;

  00041	c7 46 10 00 00
	00 00		 mov	 DWORD PTR [esi+16], 0
$LN17@destroy:
  00048	5e		 pop	 esi
; File C:\Program Files\Microsoft Visual Studio\2022\Community\VC\Tools\MSVC\14.34.31933\include\xmemory

; 691  :     }

  00049	c3		 ret	 0
$LN32@destroy:

; 164  :     _STL_VERIFY(_Back_shift >= _Min_back_shift && _Back_shift <= _Non_user_size, "invalid argument");

  0004a	e8 00 00 00 00	 call	 __invalid_parameter_noinfo_noreturn
$LN45@destroy:
  0004f	cc		 int	 3
??$destroy@U?$pair@$$CBKUTGuildSymbol@CGuildMarkManager@@@std@@@?$_Default_allocator_traits@V?$allocator@U?$_Tree_node@U?$pair@$$CBKUTGuildSymbol@CGuildMarkManager@@@std@@PAX@std@@@std@@@std@@SAXAAV?$allocator@U?$_Tree_node@U?$pair@$$CBKUTGuildSymbol@CGuildMarkManager@@@std@@PAX@std@@@1@QAU?$pair@$$CBKUTGuildSymbol@CGuildMarkManager@@@1@@Z ENDP ; std::_Default_allocator_traits<std::allocator<std::_Tree_node<std::pair<unsigned long const ,CGuildMarkManager::TGuildSymbol>,void *> > >::destroy<std::pair<unsigned long const ,CGuildMarkManager::TGuildSymbol> >
_TEXT	ENDS
; Function compile flags: /Ogtp
; File C:\Program Files\Microsoft Visual Studio\2022\Community\VC\Tools\MSVC\14.34.31933\include\xmemory
;	COMDAT ??$_Get_size_of_n@$0CE@@std@@YAII@Z
_TEXT	SEGMENT
??$_Get_size_of_n@$0CE@@std@@YAII@Z PROC		; std::_Get_size_of_n<36>, COMDAT
; __Count$ = ecx

; 56   :     constexpr bool _Overflow_is_possible = _Ty_size > 1;
; 57   : 
; 58   :     if constexpr (_Overflow_is_possible) {
; 59   :         constexpr size_t _Max_possible = static_cast<size_t>(-1) / _Ty_size;
; 60   :         if (_Count > _Max_possible) {

  00000	81 f9 c7 71 1c
	07		 cmp	 ecx, 119304647		; 071c71c7H
  00006	0f 87 00 00 00
	00		 ja	 ?_Throw_bad_array_new_length@std@@YAXXZ ; std::_Throw_bad_array_new_length

; 61   :             _Throw_bad_array_new_length(); // multiply overflow
; 62   :         }
; 63   :     }
; 64   : 
; 65   :     return _Count * _Ty_size;

  0000c	8d 04 c9	 lea	 eax, DWORD PTR [ecx+ecx*8]
  0000f	c1 e0 02	 shl	 eax, 2

; 66   : }

  00012	c3		 ret	 0
??$_Get_size_of_n@$0CE@@std@@YAII@Z ENDP		; std::_Get_size_of_n<36>
_TEXT	ENDS
; Function compile flags: /Ogtp
; File C:\Program Files\Microsoft Visual Studio\2022\Community\VC\Tools\MSVC\14.34.31933\include\xmemory
;	COMDAT ?_Extract@?$_In_place_key_extract_map@KU?$pair@$$CBKPAVCGuildMarkImage@@@std@@@std@@SAABKABU?$pair@$$CBKPAVCGuildMarkImage@@@2@@Z
_TEXT	SEGMENT
?_Extract@?$_In_place_key_extract_map@KU?$pair@$$CBKPAVCGuildMarkImage@@@std@@@std@@SAABKABU?$pair@$$CBKPAVCGuildMarkImage@@@2@@Z PROC ; std::_In_place_key_extract_map<unsigned long,std::pair<unsigned long const ,CGuildMarkImage *> >::_Extract, COMDAT
; __Val$ = ecx

; 1974 :         return _Val.first;

  00000	8b c1		 mov	 eax, ecx

; 1975 :     }

  00002	c3		 ret	 0
?_Extract@?$_In_place_key_extract_map@KU?$pair@$$CBKPAVCGuildMarkImage@@@std@@@std@@SAABKABU?$pair@$$CBKPAVCGuildMarkImage@@@2@@Z ENDP ; std::_In_place_key_extract_map<unsigned long,std::pair<unsigned long const ,CGuildMarkImage *> >::_Extract
_TEXT	ENDS
; Function compile flags: /Ogtp
; File C:\Program Files\Microsoft Visual Studio\2022\Community\VC\Tools\MSVC\14.34.31933\include\xtree
; File C:\Program Files\Microsoft Visual Studio\2022\Community\VC\Tools\MSVC\14.34.31933\include\xmemory
; File C:\Program Files\Microsoft Visual Studio\2022\Community\VC\Tools\MSVC\14.34.31933\include\xtree
;	COMDAT ??1?$_Tree_temp_node@V?$allocator@U?$_Tree_node@U?$pair@$$CBKPAVCGuildMarkImage@@@std@@PAX@std@@@std@@@std@@QAE@XZ
_TEXT	SEGMENT
??1?$_Tree_temp_node@V?$allocator@U?$_Tree_node@U?$pair@$$CBKPAVCGuildMarkImage@@@std@@PAX@std@@@std@@@std@@QAE@XZ PROC ; std::_Tree_temp_node<std::allocator<std::_Tree_node<std::pair<unsigned long const ,CGuildMarkImage *>,void *> > >::~_Tree_temp_node<std::allocator<std::_Tree_node<std::pair<unsigned long const ,CGuildMarkImage *>,void *> > >, COMDAT
; _this$ = ecx
; File C:\Program Files\Microsoft Visual Studio\2022\Community\VC\Tools\MSVC\14.34.31933\include\xmemory

; 1017 :         if (_Ptr) {

  00000	8b 41 04	 mov	 eax, DWORD PTR [ecx+4]
  00003	85 c0		 test	 eax, eax
  00005	74 0b		 je	 SHORT $LN14@Tree_temp_

; 255  :         ::operator delete(_Ptr, _Bytes);

  00007	6a 18		 push	 24			; 00000018H
  00009	50		 push	 eax
  0000a	e8 00 00 00 00	 call	 ??3@YAXPAXI@Z		; operator delete
  0000f	83 c4 08	 add	 esp, 8
$LN14@Tree_temp_:
; File C:\Program Files\Microsoft Visual Studio\2022\Community\VC\Tools\MSVC\14.34.31933\include\xtree

; 825  :     }

  00012	c3		 ret	 0
??1?$_Tree_temp_node@V?$allocator@U?$_Tree_node@U?$pair@$$CBKPAVCGuildMarkImage@@@std@@PAX@std@@@std@@@std@@QAE@XZ ENDP ; std::_Tree_temp_node<std::allocator<std::_Tree_node<std::pair<unsigned long const ,CGuildMarkImage *>,void *> > >::~_Tree_temp_node<std::allocator<std::_Tree_node<std::pair<unsigned long const ,CGuildMarkImage *>,void *> > >
_TEXT	ENDS
; Function compile flags: /Ogtp
; File C:\Program Files\Microsoft Visual Studio\2022\Community\VC\Tools\MSVC\14.34.31933\include\xmemory
; File C:\Program Files\Microsoft Visual Studio\2022\Community\VC\Tools\MSVC\14.34.31933\include\utility
; File C:\Program Files\Microsoft Visual Studio\2022\Community\VC\Tools\MSVC\14.34.31933\include\xmemory
;	COMDAT ?_Release@?$_Alloc_construct_ptr@V?$allocator@U?$_Tree_node@U?$pair@$$CBKPAVCGuildMarkImage@@@std@@PAX@std@@@std@@@std@@QAEPAU?$_Tree_node@U?$pair@$$CBKPAVCGuildMarkImage@@@std@@PAX@2@XZ
_TEXT	SEGMENT
?_Release@?$_Alloc_construct_ptr@V?$allocator@U?$_Tree_node@U?$pair@$$CBKPAVCGuildMarkImage@@@std@@PAX@std@@@std@@@std@@QAEPAU?$_Tree_node@U?$pair@$$CBKPAVCGuildMarkImage@@@std@@PAX@2@XZ PROC ; std::_Alloc_construct_ptr<std::allocator<std::_Tree_node<std::pair<unsigned long const ,CGuildMarkImage *>,void *> > >::_Release, COMDAT
; _this$ = ecx
; File C:\Program Files\Microsoft Visual Studio\2022\Community\VC\Tools\MSVC\14.34.31933\include\utility

; 653  :     _Ty _Old_val = static_cast<_Ty&&>(_Val);

  00000	8b 41 04	 mov	 eax, DWORD PTR [ecx+4]

; 654  :     _Val         = static_cast<_Other&&>(_New_val);

  00003	c7 41 04 00 00
	00 00		 mov	 DWORD PTR [ecx+4], 0
; File C:\Program Files\Microsoft Visual Studio\2022\Community\VC\Tools\MSVC\14.34.31933\include\xmemory

; 1009 :     }

  0000a	c3		 ret	 0
?_Release@?$_Alloc_construct_ptr@V?$allocator@U?$_Tree_node@U?$pair@$$CBKPAVCGuildMarkImage@@@std@@PAX@std@@@std@@@std@@QAEPAU?$_Tree_node@U?$pair@$$CBKPAVCGuildMarkImage@@@std@@PAX@2@XZ ENDP ; std::_Alloc_construct_ptr<std::allocator<std::_Tree_node<std::pair<unsigned long const ,CGuildMarkImage *>,void *> > >::_Release
_TEXT	ENDS
; Function compile flags: /Ogtp
; File C:\Program Files\Microsoft Visual Studio\2022\Community\VC\Tools\MSVC\14.34.31933\include\xtree
;	COMDAT ??0?$_Tree_val@U?$_Tree_simple_types@U?$pair@$$CBKUTGuildSymbol@CGuildMarkManager@@@std@@@std@@@std@@QAE@XZ
_TEXT	SEGMENT
??0?$_Tree_val@U?$_Tree_simple_types@U?$pair@$$CBKUTGuildSymbol@CGuildMarkManager@@@std@@@std@@@std@@QAE@XZ PROC ; std::_Tree_val<std::_Tree_simple_types<std::pair<unsigned long const ,CGuildMarkManager::TGuildSymbol> > >::_Tree_val<std::_Tree_simple_types<std::pair<unsigned long const ,CGuildMarkManager::TGuildSymbol> > >, COMDAT
; _this$ = ecx

; 437  :     _Tree_val() noexcept : _Myhead(), _Mysize(0) {}

  00000	c7 01 00 00 00
	00		 mov	 DWORD PTR [ecx], 0
  00006	8b c1		 mov	 eax, ecx
  00008	c7 41 04 00 00
	00 00		 mov	 DWORD PTR [ecx+4], 0
  0000f	c3		 ret	 0
??0?$_Tree_val@U?$_Tree_simple_types@U?$pair@$$CBKUTGuildSymbol@CGuildMarkManager@@@std@@@std@@@std@@QAE@XZ ENDP ; std::_Tree_val<std::_Tree_simple_types<std::pair<unsigned long const ,CGuildMarkManager::TGuildSymbol> > >::_Tree_val<std::_Tree_simple_types<std::pair<unsigned long const ,CGuildMarkManager::TGuildSymbol> > >
_TEXT	ENDS
; Function compile flags: /Ogtp
; File C:\Program Files\Microsoft Visual Studio\2022\Community\VC\Tools\MSVC\14.34.31933\include\xmemory
;	COMDAT ?deallocate@?$_Default_allocator_traits@V?$allocator@U?$_Tree_node@U?$pair@$$CBKUTGuildSymbol@CGuildMarkManager@@@std@@PAX@std@@@std@@@std@@SAXAAV?$allocator@U?$_Tree_node@U?$pair@$$CBKUTGuildSymbol@CGuildMarkManager@@@std@@PAX@std@@@2@QAU?$_Tree_node@U?$pair@$$CBKUTGuildSymbol@CGuildMarkManager@@@std@@PAX@2@I@Z
_TEXT	SEGMENT
__Count$dead$ = 8					; size = 4
?deallocate@?$_Default_allocator_traits@V?$allocator@U?$_Tree_node@U?$pair@$$CBKUTGuildSymbol@CGuildMarkManager@@@std@@PAX@std@@@std@@@std@@SAXAAV?$allocator@U?$_Tree_node@U?$pair@$$CBKUTGuildSymbol@CGuildMarkManager@@@std@@PAX@std@@@2@QAU?$_Tree_node@U?$pair@$$CBKUTGuildSymbol@CGuildMarkManager@@@std@@PAX@2@I@Z PROC ; std::_Default_allocator_traits<std::allocator<std::_Tree_node<std::pair<unsigned long const ,CGuildMarkManager::TGuildSymbol>,void *> > >::deallocate, COMDAT
; __Al$dead$ = ecx
; __Ptr$ = edx

; 255  :         ::operator delete(_Ptr, _Bytes);

  00000	6a 24		 push	 36			; 00000024H
  00002	52		 push	 edx
  00003	e8 00 00 00 00	 call	 ??3@YAXPAXI@Z		; operator delete
  00008	83 c4 08	 add	 esp, 8

; 660  :         // no overflow check on the following multiply; we assume _Allocate did that check
; 661  : #if _HAS_CXX20 // TRANSITION, GH-1532
; 662  :         if (_STD is_constant_evaluated()) {
; 663  :             _Al.deallocate(_Ptr, _Count);
; 664  :         } else
; 665  : #endif // _HAS_CXX20
; 666  :         {
; 667  :             (void) _Al;
; 668  :             _Deallocate<_New_alignof<value_type>>(_Ptr, sizeof(value_type) * _Count);
; 669  :         }
; 670  :     }

  0000b	c3		 ret	 0
?deallocate@?$_Default_allocator_traits@V?$allocator@U?$_Tree_node@U?$pair@$$CBKUTGuildSymbol@CGuildMarkManager@@@std@@PAX@std@@@std@@@std@@SAXAAV?$allocator@U?$_Tree_node@U?$pair@$$CBKUTGuildSymbol@CGuildMarkManager@@@std@@PAX@std@@@2@QAU?$_Tree_node@U?$pair@$$CBKUTGuildSymbol@CGuildMarkManager@@@std@@PAX@2@I@Z ENDP ; std::_Default_allocator_traits<std::allocator<std::_Tree_node<std::pair<unsigned long const ,CGuildMarkManager::TGuildSymbol>,void *> > >::deallocate
_TEXT	ENDS
; Function compile flags: /Ogtp
; File C:\Program Files\Microsoft Visual Studio\2022\Community\VC\Tools\MSVC\14.34.31933\include\xmemory
;	COMDAT ??0?$allocator@U?$_Tree_node@U?$pair@$$CBKUTGuildSymbol@CGuildMarkManager@@@std@@PAX@std@@@std@@QAE@XZ
_TEXT	SEGMENT
??0?$allocator@U?$_Tree_node@U?$pair@$$CBKUTGuildSymbol@CGuildMarkManager@@@std@@PAX@std@@@std@@QAE@XZ PROC ; std::allocator<std::_Tree_node<std::pair<unsigned long const ,CGuildMarkManager::TGuildSymbol>,void *> >::allocator<std::_Tree_node<std::pair<unsigned long const ,CGuildMarkManager::TGuildSymbol>,void *> >, COMDAT
; _this$ = ecx

; 819  :     constexpr allocator() noexcept {}

  00000	8b c1		 mov	 eax, ecx
  00002	c3		 ret	 0
??0?$allocator@U?$_Tree_node@U?$pair@$$CBKUTGuildSymbol@CGuildMarkManager@@@std@@PAX@std@@@std@@QAE@XZ ENDP ; std::allocator<std::_Tree_node<std::pair<unsigned long const ,CGuildMarkManager::TGuildSymbol>,void *> >::allocator<std::_Tree_node<std::pair<unsigned long const ,CGuildMarkManager::TGuildSymbol>,void *> >
_TEXT	ENDS
; Function compile flags: /Ogtp
; File C:\Program Files\Microsoft Visual Studio\2022\Community\VC\Tools\MSVC\14.34.31933\include\xtree
;	COMDAT ?_Insert_node@?$_Tree_val@U?$_Tree_simple_types@U?$pair@$$CBKPAVCGuildMarkImage@@@std@@@std@@@std@@QAEPAU?$_Tree_node@U?$pair@$$CBKPAVCGuildMarkImage@@@std@@PAX@2@U?$_Tree_id@PAU?$_Tree_node@U?$pair@$$CBKPAVCGuildMarkImage@@@std@@PAX@std@@@2@QAU32@@Z
_TEXT	SEGMENT
__Head$1$ = -4						; size = 4
__Loc$ = 8						; size = 8
__Newnode$ = 16						; size = 4
?_Insert_node@?$_Tree_val@U?$_Tree_simple_types@U?$pair@$$CBKPAVCGuildMarkImage@@@std@@@std@@@std@@QAEPAU?$_Tree_node@U?$pair@$$CBKPAVCGuildMarkImage@@@std@@PAX@2@U?$_Tree_id@PAU?$_Tree_node@U?$pair@$$CBKPAVCGuildMarkImage@@@std@@PAX@std@@@2@QAU32@@Z PROC ; std::_Tree_val<std::_Tree_simple_types<std::pair<unsigned long const ,CGuildMarkImage *> > >::_Insert_node, COMDAT
; _this$ = ecx

; 646  :     _Nodeptr _Insert_node(const _Tree_id<_Nodeptr> _Loc, const _Nodeptr _Newnode) noexcept {

  00000	55		 push	 ebp
  00001	8b ec		 mov	 ebp, esp
  00003	51		 push	 ecx

; 647  :         ++_Mysize;
; 648  :         const auto _Head  = _Myhead;
; 649  :         _Newnode->_Parent = _Loc._Parent;

  00004	8b 55 08	 mov	 edx, DWORD PTR __Loc$[ebp]
  00007	53		 push	 ebx
  00008	8b d9		 mov	 ebx, ecx
  0000a	57		 push	 edi
  0000b	8b 7d 10	 mov	 edi, DWORD PTR __Newnode$[ebp]
  0000e	8b 03		 mov	 eax, DWORD PTR [ebx]
  00010	ff 43 04	 inc	 DWORD PTR [ebx+4]
  00013	89 45 fc	 mov	 DWORD PTR __Head$1$[ebp], eax
  00016	89 57 04	 mov	 DWORD PTR [edi+4], edx

; 650  :         if (_Loc._Parent == _Head) { // first node in tree, just set head values

  00019	3b d0		 cmp	 edx, eax
  0001b	75 16		 jne	 SHORT $LN5@Insert_nod

; 651  :             _Head->_Left     = _Newnode;

  0001d	89 38		 mov	 DWORD PTR [eax], edi

; 652  :             _Head->_Parent   = _Newnode;

  0001f	89 78 04	 mov	 DWORD PTR [eax+4], edi

; 653  :             _Head->_Right    = _Newnode;

  00022	89 78 08	 mov	 DWORD PTR [eax+8], edi

; 712  :         return _Newnode;
; 713  :     }

  00025	8b c7		 mov	 eax, edi
  00027	c6 47 0c 01	 mov	 BYTE PTR [edi+12], 1
  0002b	5f		 pop	 edi
  0002c	5b		 pop	 ebx
  0002d	8b e5		 mov	 esp, ebp
  0002f	5d		 pop	 ebp
  00030	c2 0c 00	 ret	 12			; 0000000cH
$LN5@Insert_nod:

; 654  :             _Newnode->_Color = _Black; // the root is black
; 655  :             return _Newnode;
; 656  :         }
; 657  : 
; 658  :         _STL_INTERNAL_CHECK(_Loc._Child != _Tree_child::_Unused);
; 659  :         if (_Loc._Child == _Tree_child::_Right) { // add to right of _Loc._Parent

  00033	83 7d 0c 00	 cmp	 DWORD PTR __Loc$[ebp+4], 0
  00037	75 0d		 jne	 SHORT $LN6@Insert_nod

; 660  :             _STL_INTERNAL_CHECK(_Loc._Parent->_Right->_Isnil);
; 661  :             _Loc._Parent->_Right = _Newnode;

  00039	89 7a 08	 mov	 DWORD PTR [edx+8], edi

; 662  :             if (_Loc._Parent == _Head->_Right) { // remember rightmost node

  0003c	3b 50 08	 cmp	 edx, DWORD PTR [eax+8]
  0003f	75 0d		 jne	 SHORT $LN9@Insert_nod

; 663  :                 _Head->_Right = _Newnode;

  00041	89 78 08	 mov	 DWORD PTR [eax+8], edi

; 664  :             }
; 665  :         } else { // add to left of _Loc._Parent

  00044	eb 08		 jmp	 SHORT $LN9@Insert_nod
$LN6@Insert_nod:

; 666  :             _STL_INTERNAL_CHECK(_Loc._Parent->_Left->_Isnil);
; 667  :             _Loc._Parent->_Left = _Newnode;

  00046	89 3a		 mov	 DWORD PTR [edx], edi

; 668  :             if (_Loc._Parent == _Head->_Left) { // remember leftmost node

  00048	3b 10		 cmp	 edx, DWORD PTR [eax]
  0004a	75 02		 jne	 SHORT $LN9@Insert_nod

; 669  :                 _Head->_Left = _Newnode;

  0004c	89 38		 mov	 DWORD PTR [eax], edi
$LN9@Insert_nod:

; 670  :             }
; 671  :         }
; 672  : 
; 673  :         for (_Nodeptr _Pnode = _Newnode; _Pnode->_Parent->_Color == _Red;) {

  0004e	8b 4f 04	 mov	 ecx, DWORD PTR [edi+4]
  00051	8b c7		 mov	 eax, edi
  00053	80 79 0c 00	 cmp	 BYTE PTR [ecx+12], 0
  00057	0f 85 7d 01 00
	00		 jne	 $LN3@Insert_nod
  0005d	56		 push	 esi
  0005e	66 90		 npad	 2
$LL2@Insert_nod:

; 674  :             if (_Pnode->_Parent == _Pnode->_Parent->_Parent->_Left) { // fixup red-red in left subtree

  00060	8b 50 04	 mov	 edx, DWORD PTR [eax+4]
  00063	8b 72 04	 mov	 esi, DWORD PTR [edx+4]
  00066	8b 0e		 mov	 ecx, DWORD PTR [esi]
  00068	3b d1		 cmp	 edx, ecx
  0006a	0f 85 aa 00 00
	00		 jne	 $LN10@Insert_nod

; 675  :                 const auto _Parent_sibling = _Pnode->_Parent->_Parent->_Right;

  00070	8b 4e 08	 mov	 ecx, DWORD PTR [esi+8]

; 676  :                 if (_Parent_sibling->_Color == _Red) { // parent's sibling has two red children, blacken both

  00073	80 79 0c 00	 cmp	 BYTE PTR [ecx+12], 0
  00077	0f 84 a3 00 00
	00		 je	 $LN54@Insert_nod

; 677  :                     _Pnode->_Parent->_Color          = _Black;
; 678  :                     _Parent_sibling->_Color          = _Black;
; 679  :                     _Pnode->_Parent->_Parent->_Color = _Red;
; 680  :                     _Pnode                           = _Pnode->_Parent->_Parent;
; 681  :                 } else { // parent's sibling has red and black children
; 682  :                     if (_Pnode == _Pnode->_Parent->_Right) { // rotate right child to left

  0007d	8b 72 08	 mov	 esi, DWORD PTR [edx+8]
  00080	3b c6		 cmp	 eax, esi
  00082	75 37		 jne	 SHORT $LN51@Insert_nod

; 462  :         _Wherenode->_Right = _Pnode->_Left;

  00084	8b 0e		 mov	 ecx, DWORD PTR [esi]

; 683  :                         _Pnode = _Pnode->_Parent;

  00086	8b c2		 mov	 eax, edx

; 462  :         _Wherenode->_Right = _Pnode->_Left;

  00088	89 4a 08	 mov	 DWORD PTR [edx+8], ecx

; 463  : 
; 464  :         if (!_Pnode->_Left->_Isnil) {

  0008b	8b 0e		 mov	 ecx, DWORD PTR [esi]
  0008d	80 79 0d 00	 cmp	 BYTE PTR [ecx+13], 0
  00091	75 03		 jne	 SHORT $LN34@Insert_nod

; 465  :             _Pnode->_Left->_Parent = _Wherenode;

  00093	89 41 04	 mov	 DWORD PTR [ecx+4], eax
$LN34@Insert_nod:

; 466  :         }
; 467  : 
; 468  :         _Pnode->_Parent = _Wherenode->_Parent;

  00096	8b 4a 04	 mov	 ecx, DWORD PTR [edx+4]
  00099	89 4e 04	 mov	 DWORD PTR [esi+4], ecx

; 469  : 
; 470  :         if (_Wherenode == _Myhead->_Parent) {

  0009c	8b 0b		 mov	 ecx, DWORD PTR [ebx]
  0009e	3b 41 04	 cmp	 eax, DWORD PTR [ecx+4]
  000a1	75 05		 jne	 SHORT $LN35@Insert_nod

; 471  :             _Myhead->_Parent = _Pnode;

  000a3	89 71 04	 mov	 DWORD PTR [ecx+4], esi
  000a6	eb 0e		 jmp	 SHORT $LN38@Insert_nod
$LN35@Insert_nod:

; 472  :         } else if (_Wherenode == _Wherenode->_Parent->_Left) {

  000a8	8b 4a 04	 mov	 ecx, DWORD PTR [edx+4]
  000ab	3b 01		 cmp	 eax, DWORD PTR [ecx]
  000ad	75 04		 jne	 SHORT $LN37@Insert_nod

; 473  :             _Wherenode->_Parent->_Left = _Pnode;

  000af	89 31		 mov	 DWORD PTR [ecx], esi

; 474  :         } else {

  000b1	eb 03		 jmp	 SHORT $LN38@Insert_nod
$LN37@Insert_nod:

; 475  :             _Wherenode->_Parent->_Right = _Pnode;

  000b3	89 71 08	 mov	 DWORD PTR [ecx+8], esi
$LN38@Insert_nod:

; 476  :         }
; 477  : 
; 478  :         _Pnode->_Left       = _Wherenode;

  000b6	89 06		 mov	 DWORD PTR [esi], eax

; 479  :         _Wherenode->_Parent = _Pnode;

  000b8	89 72 04	 mov	 DWORD PTR [edx+4], esi
$LN51@Insert_nod:

; 684  :                         _Lrotate(_Pnode);
; 685  :                     }
; 686  : 
; 687  :                     _Pnode->_Parent->_Color          = _Black; // propagate red up

  000bb	8b 48 04	 mov	 ecx, DWORD PTR [eax+4]
  000be	c6 41 0c 01	 mov	 BYTE PTR [ecx+12], 1

; 688  :                     _Pnode->_Parent->_Parent->_Color = _Red;

  000c2	8b 48 04	 mov	 ecx, DWORD PTR [eax+4]
  000c5	8b 49 04	 mov	 ecx, DWORD PTR [ecx+4]
  000c8	c6 41 0c 00	 mov	 BYTE PTR [ecx+12], 0

; 689  :                     _Rrotate(_Pnode->_Parent->_Parent);

  000cc	8b 48 04	 mov	 ecx, DWORD PTR [eax+4]
  000cf	8b 51 04	 mov	 edx, DWORD PTR [ecx+4]

; 483  :         _Nodeptr _Pnode   = _Wherenode->_Left;

  000d2	8b 32		 mov	 esi, DWORD PTR [edx]

; 484  :         _Wherenode->_Left = _Pnode->_Right;

  000d4	8b 4e 08	 mov	 ecx, DWORD PTR [esi+8]
  000d7	89 0a		 mov	 DWORD PTR [edx], ecx

; 485  : 
; 486  :         if (!_Pnode->_Right->_Isnil) {

  000d9	8b 4e 08	 mov	 ecx, DWORD PTR [esi+8]
  000dc	80 79 0d 00	 cmp	 BYTE PTR [ecx+13], 0
  000e0	75 03		 jne	 SHORT $LN20@Insert_nod

; 487  :             _Pnode->_Right->_Parent = _Wherenode;

  000e2	89 51 04	 mov	 DWORD PTR [ecx+4], edx
$LN20@Insert_nod:

; 488  :         }
; 489  : 
; 490  :         _Pnode->_Parent = _Wherenode->_Parent;

  000e5	8b 4a 04	 mov	 ecx, DWORD PTR [edx+4]
  000e8	89 4e 04	 mov	 DWORD PTR [esi+4], ecx

; 491  : 
; 492  :         if (_Wherenode == _Myhead->_Parent) {

  000eb	8b 0b		 mov	 ecx, DWORD PTR [ebx]
  000ed	3b 51 04	 cmp	 edx, DWORD PTR [ecx+4]
  000f0	75 0b		 jne	 SHORT $LN21@Insert_nod

; 493  :             _Myhead->_Parent = _Pnode;

  000f2	89 71 04	 mov	 DWORD PTR [ecx+4], esi

; 498  :         }
; 499  : 
; 500  :         _Pnode->_Right      = _Wherenode;

  000f5	89 56 08	 mov	 DWORD PTR [esi+8], edx

; 690  :                 }
; 691  :             } else { // fixup red-red in right subtree

  000f8	e9 cc 00 00 00	 jmp	 $LN53@Insert_nod
$LN21@Insert_nod:

; 494  :         } else if (_Wherenode == _Wherenode->_Parent->_Right) {

  000fd	8b 4a 04	 mov	 ecx, DWORD PTR [edx+4]
  00100	3b 51 08	 cmp	 edx, DWORD PTR [ecx+8]
  00103	75 0b		 jne	 SHORT $LN23@Insert_nod

; 495  :             _Wherenode->_Parent->_Right = _Pnode;

  00105	89 71 08	 mov	 DWORD PTR [ecx+8], esi

; 498  :         }
; 499  : 
; 500  :         _Pnode->_Right      = _Wherenode;

  00108	89 56 08	 mov	 DWORD PTR [esi+8], edx

; 690  :                 }
; 691  :             } else { // fixup red-red in right subtree

  0010b	e9 b9 00 00 00	 jmp	 $LN53@Insert_nod
$LN23@Insert_nod:

; 497  :             _Wherenode->_Parent->_Left = _Pnode;

  00110	89 31		 mov	 DWORD PTR [ecx], esi

; 498  :         }
; 499  : 
; 500  :         _Pnode->_Right      = _Wherenode;

  00112	89 56 08	 mov	 DWORD PTR [esi+8], edx

; 690  :                 }
; 691  :             } else { // fixup red-red in right subtree

  00115	e9 af 00 00 00	 jmp	 $LN53@Insert_nod
$LN10@Insert_nod:

; 692  :                 const auto _Parent_sibling = _Pnode->_Parent->_Parent->_Left;
; 693  :                 if (_Parent_sibling->_Color == _Red) { // parent's sibling has two red children, blacken both

  0011a	80 79 0c 00	 cmp	 BYTE PTR [ecx+12], 0
  0011e	75 1d		 jne	 SHORT $LN15@Insert_nod
$LN54@Insert_nod:

; 670  :             }
; 671  :         }
; 672  : 
; 673  :         for (_Nodeptr _Pnode = _Newnode; _Pnode->_Parent->_Color == _Red;) {

  00120	c6 42 0c 01	 mov	 BYTE PTR [edx+12], 1
  00124	c6 41 0c 01	 mov	 BYTE PTR [ecx+12], 1
  00128	8b 48 04	 mov	 ecx, DWORD PTR [eax+4]
  0012b	8b 49 04	 mov	 ecx, DWORD PTR [ecx+4]
  0012e	c6 41 0c 00	 mov	 BYTE PTR [ecx+12], 0
  00132	8b 48 04	 mov	 ecx, DWORD PTR [eax+4]
  00135	8b 41 04	 mov	 eax, DWORD PTR [ecx+4]
  00138	e9 8f 00 00 00	 jmp	 $LN32@Insert_nod
$LN15@Insert_nod:

; 694  :                     _Pnode->_Parent->_Color          = _Black;
; 695  :                     _Parent_sibling->_Color          = _Black;
; 696  :                     _Pnode->_Parent->_Parent->_Color = _Red;
; 697  :                     _Pnode                           = _Pnode->_Parent->_Parent;
; 698  :                 } else { // parent's sibling has red and black children
; 699  :                     if (_Pnode == _Pnode->_Parent->_Left) { // rotate left child to right

  0013d	8b 32		 mov	 esi, DWORD PTR [edx]
  0013f	3b c6		 cmp	 eax, esi
  00141	75 3a		 jne	 SHORT $LN46@Insert_nod

; 484  :         _Wherenode->_Left = _Pnode->_Right;

  00143	8b 4e 08	 mov	 ecx, DWORD PTR [esi+8]

; 700  :                         _Pnode = _Pnode->_Parent;

  00146	8b c2		 mov	 eax, edx

; 484  :         _Wherenode->_Left = _Pnode->_Right;

  00148	89 08		 mov	 DWORD PTR [eax], ecx

; 485  : 
; 486  :         if (!_Pnode->_Right->_Isnil) {

  0014a	8b 4e 08	 mov	 ecx, DWORD PTR [esi+8]
  0014d	80 79 0d 00	 cmp	 BYTE PTR [ecx+13], 0
  00151	75 03		 jne	 SHORT $LN41@Insert_nod

; 487  :             _Pnode->_Right->_Parent = _Wherenode;

  00153	89 41 04	 mov	 DWORD PTR [ecx+4], eax
$LN41@Insert_nod:

; 488  :         }
; 489  : 
; 490  :         _Pnode->_Parent = _Wherenode->_Parent;

  00156	8b 4a 04	 mov	 ecx, DWORD PTR [edx+4]
  00159	89 4e 04	 mov	 DWORD PTR [esi+4], ecx

; 491  : 
; 492  :         if (_Wherenode == _Myhead->_Parent) {

  0015c	8b 0b		 mov	 ecx, DWORD PTR [ebx]
  0015e	3b 41 04	 cmp	 eax, DWORD PTR [ecx+4]
  00161	75 05		 jne	 SHORT $LN42@Insert_nod

; 493  :             _Myhead->_Parent = _Pnode;

  00163	89 71 04	 mov	 DWORD PTR [ecx+4], esi
  00166	eb 0f		 jmp	 SHORT $LN45@Insert_nod
$LN42@Insert_nod:

; 494  :         } else if (_Wherenode == _Wherenode->_Parent->_Right) {

  00168	8b 4a 04	 mov	 ecx, DWORD PTR [edx+4]
  0016b	3b 41 08	 cmp	 eax, DWORD PTR [ecx+8]
  0016e	75 05		 jne	 SHORT $LN44@Insert_nod

; 495  :             _Wherenode->_Parent->_Right = _Pnode;

  00170	89 71 08	 mov	 DWORD PTR [ecx+8], esi

; 496  :         } else {

  00173	eb 02		 jmp	 SHORT $LN45@Insert_nod
$LN44@Insert_nod:

; 497  :             _Wherenode->_Parent->_Left = _Pnode;

  00175	89 31		 mov	 DWORD PTR [ecx], esi
$LN45@Insert_nod:

; 498  :         }
; 499  : 
; 500  :         _Pnode->_Right      = _Wherenode;

  00177	89 46 08	 mov	 DWORD PTR [esi+8], eax

; 501  :         _Wherenode->_Parent = _Pnode;

  0017a	89 72 04	 mov	 DWORD PTR [edx+4], esi
$LN46@Insert_nod:

; 701  :                         _Rrotate(_Pnode);
; 702  :                     }
; 703  : 
; 704  :                     _Pnode->_Parent->_Color          = _Black; // propagate red up

  0017d	8b 48 04	 mov	 ecx, DWORD PTR [eax+4]
  00180	c6 41 0c 01	 mov	 BYTE PTR [ecx+12], 1

; 705  :                     _Pnode->_Parent->_Parent->_Color = _Red;

  00184	8b 48 04	 mov	 ecx, DWORD PTR [eax+4]
  00187	8b 49 04	 mov	 ecx, DWORD PTR [ecx+4]
  0018a	c6 41 0c 00	 mov	 BYTE PTR [ecx+12], 0

; 706  :                     _Lrotate(_Pnode->_Parent->_Parent);

  0018e	8b 48 04	 mov	 ecx, DWORD PTR [eax+4]
  00191	8b 51 04	 mov	 edx, DWORD PTR [ecx+4]

; 461  :         _Nodeptr _Pnode    = _Wherenode->_Right;

  00194	8b 72 08	 mov	 esi, DWORD PTR [edx+8]

; 462  :         _Wherenode->_Right = _Pnode->_Left;

  00197	8b 0e		 mov	 ecx, DWORD PTR [esi]
  00199	89 4a 08	 mov	 DWORD PTR [edx+8], ecx

; 463  : 
; 464  :         if (!_Pnode->_Left->_Isnil) {

  0019c	8b 0e		 mov	 ecx, DWORD PTR [esi]
  0019e	80 79 0d 00	 cmp	 BYTE PTR [ecx+13], 0
  001a2	75 03		 jne	 SHORT $LN27@Insert_nod

; 465  :             _Pnode->_Left->_Parent = _Wherenode;

  001a4	89 51 04	 mov	 DWORD PTR [ecx+4], edx
$LN27@Insert_nod:

; 466  :         }
; 467  : 
; 468  :         _Pnode->_Parent = _Wherenode->_Parent;

  001a7	8b 4a 04	 mov	 ecx, DWORD PTR [edx+4]
  001aa	89 4e 04	 mov	 DWORD PTR [esi+4], ecx

; 469  : 
; 470  :         if (_Wherenode == _Myhead->_Parent) {

  001ad	8b 0b		 mov	 ecx, DWORD PTR [ebx]
  001af	3b 51 04	 cmp	 edx, DWORD PTR [ecx+4]
  001b2	75 05		 jne	 SHORT $LN28@Insert_nod

; 471  :             _Myhead->_Parent = _Pnode;

  001b4	89 71 04	 mov	 DWORD PTR [ecx+4], esi
  001b7	eb 0e		 jmp	 SHORT $LN31@Insert_nod
$LN28@Insert_nod:

; 472  :         } else if (_Wherenode == _Wherenode->_Parent->_Left) {

  001b9	8b 4a 04	 mov	 ecx, DWORD PTR [edx+4]
  001bc	3b 11		 cmp	 edx, DWORD PTR [ecx]
  001be	75 04		 jne	 SHORT $LN30@Insert_nod

; 473  :             _Wherenode->_Parent->_Left = _Pnode;

  001c0	89 31		 mov	 DWORD PTR [ecx], esi

; 474  :         } else {

  001c2	eb 03		 jmp	 SHORT $LN31@Insert_nod
$LN30@Insert_nod:

; 475  :             _Wherenode->_Parent->_Right = _Pnode;

  001c4	89 71 08	 mov	 DWORD PTR [ecx+8], esi
$LN31@Insert_nod:

; 476  :         }
; 477  : 
; 478  :         _Pnode->_Left       = _Wherenode;

  001c7	89 16		 mov	 DWORD PTR [esi], edx
$LN53@Insert_nod:

; 670  :             }
; 671  :         }
; 672  : 
; 673  :         for (_Nodeptr _Pnode = _Newnode; _Pnode->_Parent->_Color == _Red;) {

  001c9	89 72 04	 mov	 DWORD PTR [edx+4], esi
$LN32@Insert_nod:
  001cc	8b 48 04	 mov	 ecx, DWORD PTR [eax+4]
  001cf	80 79 0c 00	 cmp	 BYTE PTR [ecx+12], 0
  001d3	0f 84 87 fe ff
	ff		 je	 $LL2@Insert_nod
  001d9	5e		 pop	 esi
$LN3@Insert_nod:

; 707  :                 }
; 708  :             }
; 709  :         }
; 710  : 
; 711  :         _Head->_Parent->_Color = _Black; // root is always black

  001da	8b 45 fc	 mov	 eax, DWORD PTR __Head$1$[ebp]
  001dd	8b 40 04	 mov	 eax, DWORD PTR [eax+4]
  001e0	c6 40 0c 01	 mov	 BYTE PTR [eax+12], 1

; 712  :         return _Newnode;
; 713  :     }

  001e4	8b c7		 mov	 eax, edi
  001e6	5f		 pop	 edi
  001e7	5b		 pop	 ebx
  001e8	8b e5		 mov	 esp, ebp
  001ea	5d		 pop	 ebp
  001eb	c2 0c 00	 ret	 12			; 0000000cH
?_Insert_node@?$_Tree_val@U?$_Tree_simple_types@U?$pair@$$CBKPAVCGuildMarkImage@@@std@@@std@@@std@@QAEPAU?$_Tree_node@U?$pair@$$CBKPAVCGuildMarkImage@@@std@@PAX@2@U?$_Tree_id@PAU?$_Tree_node@U?$pair@$$CBKPAVCGuildMarkImage@@@std@@PAX@std@@@2@QAU32@@Z ENDP ; std::_Tree_val<std::_Tree_simple_types<std::pair<unsigned long const ,CGuildMarkImage *> > >::_Insert_node
_TEXT	ENDS
; Function compile flags: /Ogtp
; File C:\Program Files\Microsoft Visual Studio\2022\Community\VC\Tools\MSVC\14.34.31933\include\xtree
;	COMDAT ??0?$_Tree_val@U?$_Tree_simple_types@U?$pair@$$CBKPAVCGuildMarkImage@@@std@@@std@@@std@@QAE@XZ
_TEXT	SEGMENT
??0?$_Tree_val@U?$_Tree_simple_types@U?$pair@$$CBKPAVCGuildMarkImage@@@std@@@std@@@std@@QAE@XZ PROC ; std::_Tree_val<std::_Tree_simple_types<std::pair<unsigned long const ,CGuildMarkImage *> > >::_Tree_val<std::_Tree_simple_types<std::pair<unsigned long const ,CGuildMarkImage *> > >, COMDAT
; _this$ = ecx

; 437  :     _Tree_val() noexcept : _Myhead(), _Mysize(0) {}

  00000	c7 01 00 00 00
	00		 mov	 DWORD PTR [ecx], 0
  00006	8b c1		 mov	 eax, ecx
  00008	c7 41 04 00 00
	00 00		 mov	 DWORD PTR [ecx+4], 0
  0000f	c3		 ret	 0
??0?$_Tree_val@U?$_Tree_simple_types@U?$pair@$$CBKPAVCGuildMarkImage@@@std@@@std@@@std@@QAE@XZ ENDP ; std::_Tree_val<std::_Tree_simple_types<std::pair<unsigned long const ,CGuildMarkImage *> > >::_Tree_val<std::_Tree_simple_types<std::pair<unsigned long const ,CGuildMarkImage *> > >
_TEXT	ENDS
; Function compile flags: /Ogtp
; File C:\Program Files\Microsoft Visual Studio\2022\Community\VC\Tools\MSVC\14.34.31933\include\xtree
;	COMDAT ?_Getcomp@?$_Tree@V?$_Tmap_traits@KPAVCGuildMarkImage@@U?$less@K@std@@V?$allocator@U?$pair@$$CBKPAVCGuildMarkImage@@@std@@@3@$0A@@std@@@std@@IBEABU?$less@K@2@XZ
_TEXT	SEGMENT
?_Getcomp@?$_Tree@V?$_Tmap_traits@KPAVCGuildMarkImage@@U?$less@K@std@@V?$allocator@U?$pair@$$CBKPAVCGuildMarkImage@@@std@@@3@$0A@@std@@@std@@IBEABU?$less@K@2@XZ PROC ; std::_Tree<std::_Tmap_traits<unsigned long,CGuildMarkImage *,std::less<unsigned long>,std::allocator<std::pair<unsigned long const ,CGuildMarkImage *> >,0> >::_Getcomp, COMDAT
; _this$ = ecx

; 1955 :         return _Mypair._Get_first();

  00000	8b c1		 mov	 eax, ecx

; 1956 :     }

  00002	c3		 ret	 0
?_Getcomp@?$_Tree@V?$_Tmap_traits@KPAVCGuildMarkImage@@U?$less@K@std@@V?$allocator@U?$pair@$$CBKPAVCGuildMarkImage@@@std@@@3@$0A@@std@@@std@@IBEABU?$less@K@2@XZ ENDP ; std::_Tree<std::_Tmap_traits<unsigned long,CGuildMarkImage *,std::less<unsigned long>,std::allocator<std::pair<unsigned long const ,CGuildMarkImage *> >,0> >::_Getcomp
_TEXT	ENDS
; Function compile flags: /Ogtp
; File C:\Program Files\Microsoft Visual Studio\2022\Community\VC\Tools\MSVC\14.34.31933\include\xtree
;	COMDAT ?_Check_grow_by_1@?$_Tree@V?$_Tmap_traits@KPAVCGuildMarkImage@@U?$less@K@std@@V?$allocator@U?$pair@$$CBKPAVCGuildMarkImage@@@std@@@3@$0A@@std@@@std@@IAEXXZ
_TEXT	SEGMENT
?_Check_grow_by_1@?$_Tree@V?$_Tmap_traits@KPAVCGuildMarkImage@@U?$less@K@std@@V?$allocator@U?$pair@$$CBKPAVCGuildMarkImage@@@std@@@3@$0A@@std@@@std@@IAEXXZ PROC ; std::_Tree<std::_Tmap_traits<unsigned long,CGuildMarkImage *,std::less<unsigned long>,std::allocator<std::pair<unsigned long const ,CGuildMarkImage *> >,0> >::_Check_grow_by_1, COMDAT
; _this$ = ecx

; 1629 :         if (max_size() == _Get_scary()->_Mysize) {

  00000	81 79 04 aa aa
	aa 0a		 cmp	 DWORD PTR [ecx+4], 178956970 ; 0aaaaaaaH
  00007	0f 84 00 00 00
	00		 je	 ?_Throw_tree_length_error@std@@YAXXZ ; std::_Throw_tree_length_error

; 1630 :             _Throw_tree_length_error();
; 1631 :         }
; 1632 :     }

  0000d	c3		 ret	 0
?_Check_grow_by_1@?$_Tree@V?$_Tmap_traits@KPAVCGuildMarkImage@@U?$less@K@std@@V?$allocator@U?$pair@$$CBKPAVCGuildMarkImage@@@std@@@3@$0A@@std@@@std@@IAEXXZ ENDP ; std::_Tree<std::_Tmap_traits<unsigned long,CGuildMarkImage *,std::less<unsigned long>,std::allocator<std::pair<unsigned long const ,CGuildMarkImage *> >,0> >::_Check_grow_by_1
_TEXT	ENDS
; Function compile flags: /Ogtp
; File C:\Program Files\Microsoft Visual Studio\2022\Community\VC\Tools\MSVC\14.34.31933\include\xmemory
;	COMDAT ?deallocate@?$_Default_allocator_traits@V?$allocator@U?$_Tree_node@U?$pair@$$CBKPAVCGuildMarkImage@@@std@@PAX@std@@@std@@@std@@SAXAAV?$allocator@U?$_Tree_node@U?$pair@$$CBKPAVCGuildMarkImage@@@std@@PAX@std@@@2@QAU?$_Tree_node@U?$pair@$$CBKPAVCGuildMarkImage@@@std@@PAX@2@I@Z
_TEXT	SEGMENT
__Count$dead$ = 8					; size = 4
?deallocate@?$_Default_allocator_traits@V?$allocator@U?$_Tree_node@U?$pair@$$CBKPAVCGuildMarkImage@@@std@@PAX@std@@@std@@@std@@SAXAAV?$allocator@U?$_Tree_node@U?$pair@$$CBKPAVCGuildMarkImage@@@std@@PAX@std@@@2@QAU?$_Tree_node@U?$pair@$$CBKPAVCGuildMarkImage@@@std@@PAX@2@I@Z PROC ; std::_Default_allocator_traits<std::allocator<std::_Tree_node<std::pair<unsigned long const ,CGuildMarkImage *>,void *> > >::deallocate, COMDAT
; __Al$dead$ = ecx
; __Ptr$ = edx

; 255  :         ::operator delete(_Ptr, _Bytes);

  00000	6a 18		 push	 24			; 00000018H
  00002	52		 push	 edx
  00003	e8 00 00 00 00	 call	 ??3@YAXPAXI@Z		; operator delete
  00008	83 c4 08	 add	 esp, 8

; 660  :         // no overflow check on the following multiply; we assume _Allocate did that check
; 661  : #if _HAS_CXX20 // TRANSITION, GH-1532
; 662  :         if (_STD is_constant_evaluated()) {
; 663  :             _Al.deallocate(_Ptr, _Count);
; 664  :         } else
; 665  : #endif // _HAS_CXX20
; 666  :         {
; 667  :             (void) _Al;
; 668  :             _Deallocate<_New_alignof<value_type>>(_Ptr, sizeof(value_type) * _Count);
; 669  :         }
; 670  :     }

  0000b	c3		 ret	 0
?deallocate@?$_Default_allocator_traits@V?$allocator@U?$_Tree_node@U?$pair@$$CBKPAVCGuildMarkImage@@@std@@PAX@std@@@std@@@std@@SAXAAV?$allocator@U?$_Tree_node@U?$pair@$$CBKPAVCGuildMarkImage@@@std@@PAX@std@@@2@QAU?$_Tree_node@U?$pair@$$CBKPAVCGuildMarkImage@@@std@@PAX@2@I@Z ENDP ; std::_Default_allocator_traits<std::allocator<std::_Tree_node<std::pair<unsigned long const ,CGuildMarkImage *>,void *> > >::deallocate
_TEXT	ENDS
; Function compile flags: /Ogtp
; File C:\Program Files\Microsoft Visual Studio\2022\Community\VC\Tools\MSVC\14.34.31933\include\xmemory
;	COMDAT ??0?$allocator@U?$_Tree_node@U?$pair@$$CBKPAVCGuildMarkImage@@@std@@PAX@std@@@std@@QAE@XZ
_TEXT	SEGMENT
??0?$allocator@U?$_Tree_node@U?$pair@$$CBKPAVCGuildMarkImage@@@std@@PAX@std@@@std@@QAE@XZ PROC ; std::allocator<std::_Tree_node<std::pair<unsigned long const ,CGuildMarkImage *>,void *> >::allocator<std::_Tree_node<std::pair<unsigned long const ,CGuildMarkImage *>,void *> >, COMDAT
; _this$ = ecx

; 819  :     constexpr allocator() noexcept {}

  00000	8b c1		 mov	 eax, ecx
  00002	c3		 ret	 0
??0?$allocator@U?$_Tree_node@U?$pair@$$CBKPAVCGuildMarkImage@@@std@@PAX@std@@@std@@QAE@XZ ENDP ; std::allocator<std::_Tree_node<std::pair<unsigned long const ,CGuildMarkImage *>,void *> >::allocator<std::_Tree_node<std::pair<unsigned long const ,CGuildMarkImage *>,void *> >
_TEXT	ENDS
; Function compile flags: /Ogtp
; File C:\Program Files\Microsoft Visual Studio\2022\Community\VC\Tools\MSVC\14.34.31933\include\vector
;	COMDAT ?_Calculate_growth@?$vector@EV?$allocator@E@std@@@std@@ABEII@Z
_TEXT	SEGMENT
__Newsize$ = 8						; size = 4
?_Calculate_growth@?$vector@EV?$allocator@E@std@@@std@@ABEII@Z PROC ; std::vector<unsigned char,std::allocator<unsigned char> >::_Calculate_growth, COMDAT
; _this$ = ecx

; 2024 :     _CONSTEXPR20 size_type _Calculate_growth(const size_type _Newsize) const {

  00000	55		 push	 ebp
  00001	8b ec		 mov	 ebp, esp

; 1942 :         return static_cast<size_type>(_My_data._Myend - _My_data._Myfirst);

  00003	8b 51 08	 mov	 edx, DWORD PTR [ecx+8]
  00006	2b 11		 sub	 edx, DWORD PTR [ecx]

; 2025 :         // given _Oldcapacity and _Newsize, calculate geometric growth
; 2026 :         const size_type _Oldcapacity = capacity();
; 2027 :         const auto _Max              = max_size();
; 2028 : 
; 2029 :         if (_Oldcapacity > _Max - _Oldcapacity / 2) {

  00008	b9 ff ff ff 7f	 mov	 ecx, 2147483647		; 7fffffffH
  0000d	56		 push	 esi
  0000e	8b f2		 mov	 esi, edx
  00010	d1 ee		 shr	 esi, 1
  00012	2b ce		 sub	 ecx, esi
  00014	3b d1		 cmp	 edx, ecx
  00016	76 0a		 jbe	 SHORT $LN2@Calculate_

; 2030 :             return _Max; // geometric growth would overflow

  00018	b8 ff ff ff 7f	 mov	 eax, 2147483647		; 7fffffffH
  0001d	5e		 pop	 esi

; 2036 :             return _Newsize; // geometric growth would be insufficient
; 2037 :         }
; 2038 : 
; 2039 :         return _Geometric; // geometric growth is sufficient
; 2040 :     }

  0001e	5d		 pop	 ebp
  0001f	c2 04 00	 ret	 4
$LN2@Calculate_:

; 2031 :         }
; 2032 : 
; 2033 :         const size_type _Geometric = _Oldcapacity + _Oldcapacity / 2;

  00022	8d 04 16	 lea	 eax, DWORD PTR [esi+edx]

; 2034 : 
; 2035 :         if (_Geometric < _Newsize) {

  00025	3b 45 08	 cmp	 eax, DWORD PTR __Newsize$[ebp]
  00028	5e		 pop	 esi
  00029	0f 42 45 08	 cmovb	 eax, DWORD PTR __Newsize$[ebp]

; 2036 :             return _Newsize; // geometric growth would be insufficient
; 2037 :         }
; 2038 : 
; 2039 :         return _Geometric; // geometric growth is sufficient
; 2040 :     }

  0002d	5d		 pop	 ebp
  0002e	c2 04 00	 ret	 4
?_Calculate_growth@?$vector@EV?$allocator@E@std@@@std@@ABEII@Z ENDP ; std::vector<unsigned char,std::allocator<unsigned char> >::_Calculate_growth
_TEXT	ENDS
; Function compile flags: /Ogtp
; File C:\Program Files\Microsoft Visual Studio\2022\Community\VC\Tools\MSVC\14.34.31933\include\xmemory
;	COMDAT ??1?$_Tree_temp_node_alloc@V?$allocator@U?$_Tree_node@U?$pair@$$CBKPAVCGuildMarkImage@@@std@@PAX@std@@@std@@@std@@QAE@XZ
_TEXT	SEGMENT
??1?$_Tree_temp_node_alloc@V?$allocator@U?$_Tree_node@U?$pair@$$CBKPAVCGuildMarkImage@@@std@@PAX@std@@@std@@@std@@QAE@XZ PROC ; std::_Tree_temp_node_alloc<std::allocator<std::_Tree_node<std::pair<unsigned long const ,CGuildMarkImage *>,void *> > >::~_Tree_temp_node_alloc<std::allocator<std::_Tree_node<std::pair<unsigned long const ,CGuildMarkImage *>,void *> > >, COMDAT
; _this$ = ecx

; 1017 :         if (_Ptr) {

  00000	8b 41 04	 mov	 eax, DWORD PTR [ecx+4]
  00003	85 c0		 test	 eax, eax
  00005	74 0b		 je	 SHORT $LN10@Tree_temp_

; 255  :         ::operator delete(_Ptr, _Bytes);

  00007	6a 18		 push	 24			; 00000018H
  00009	50		 push	 eax
  0000a	e8 00 00 00 00	 call	 ??3@YAXPAXI@Z		; operator delete
  0000f	83 c4 08	 add	 esp, 8
$LN10@Tree_temp_:
  00012	c3		 ret	 0
??1?$_Tree_temp_node_alloc@V?$allocator@U?$_Tree_node@U?$pair@$$CBKPAVCGuildMarkImage@@@std@@PAX@std@@@std@@@std@@QAE@XZ ENDP ; std::_Tree_temp_node_alloc<std::allocator<std::_Tree_node<std::pair<unsigned long const ,CGuildMarkImage *>,void *> > >::~_Tree_temp_node_alloc<std::allocator<std::_Tree_node<std::pair<unsigned long const ,CGuildMarkImage *>,void *> > >
_TEXT	ENDS
; Function compile flags: /Ogtp
; File C:\Program Files\Microsoft Visual Studio\2022\Community\VC\Tools\MSVC\14.34.31933\include\xmemory
;	COMDAT ??1?$_Alloc_construct_ptr@V?$allocator@U?$_Tree_node@U?$pair@$$CBKPAVCGuildMarkImage@@@std@@PAX@std@@@std@@@std@@QAE@XZ
_TEXT	SEGMENT
??1?$_Alloc_construct_ptr@V?$allocator@U?$_Tree_node@U?$pair@$$CBKPAVCGuildMarkImage@@@std@@PAX@std@@@std@@@std@@QAE@XZ PROC ; std::_Alloc_construct_ptr<std::allocator<std::_Tree_node<std::pair<unsigned long const ,CGuildMarkImage *>,void *> > >::~_Alloc_construct_ptr<std::allocator<std::_Tree_node<std::pair<unsigned long const ,CGuildMarkImage *>,void *> > >, COMDAT
; _this$ = ecx

; 1017 :         if (_Ptr) {

  00000	8b 41 04	 mov	 eax, DWORD PTR [ecx+4]
  00003	85 c0		 test	 eax, eax
  00005	74 0b		 je	 SHORT $LN8@Alloc_cons

; 255  :         ::operator delete(_Ptr, _Bytes);

  00007	6a 18		 push	 24			; 00000018H
  00009	50		 push	 eax
  0000a	e8 00 00 00 00	 call	 ??3@YAXPAXI@Z		; operator delete
  0000f	83 c4 08	 add	 esp, 8
$LN8@Alloc_cons:

; 1018 :             _Al.deallocate(_Ptr, 1);
; 1019 :         }
; 1020 :     }

  00012	c3		 ret	 0
??1?$_Alloc_construct_ptr@V?$allocator@U?$_Tree_node@U?$pair@$$CBKPAVCGuildMarkImage@@@std@@PAX@std@@@std@@@std@@QAE@XZ ENDP ; std::_Alloc_construct_ptr<std::allocator<std::_Tree_node<std::pair<unsigned long const ,CGuildMarkImage *>,void *> > >::~_Alloc_construct_ptr<std::allocator<std::_Tree_node<std::pair<unsigned long const ,CGuildMarkImage *>,void *> > >
_TEXT	ENDS
; Function compile flags: /Ogtp
; File C:\Program Files\Microsoft Visual Studio\2022\Community\VC\Tools\MSVC\14.34.31933\include\xmemory
;	COMDAT ?_Get_first@?$_Compressed_pair@U?$less@K@std@@V?$_Compressed_pair@V?$allocator@U?$_Tree_node@U?$pair@$$CBKPAVCGuildMarkImage@@@std@@PAX@std@@@std@@V?$_Tree_val@U?$_Tree_simple_types@U?$pair@$$CBKPAVCGuildMarkImage@@@std@@@std@@@2@$00@2@$00@std@@QBEABU?$less@K@2@XZ
_TEXT	SEGMENT
?_Get_first@?$_Compressed_pair@U?$less@K@std@@V?$_Compressed_pair@V?$allocator@U?$_Tree_node@U?$pair@$$CBKPAVCGuildMarkImage@@@std@@PAX@std@@@std@@V?$_Tree_val@U?$_Tree_simple_types@U?$pair@$$CBKPAVCGuildMarkImage@@@std@@@std@@@2@$00@2@$00@std@@QBEABU?$less@K@2@XZ PROC ; std::_Compressed_pair<std::less<unsigned long>,std::_Compressed_pair<std::allocator<std::_Tree_node<std::pair<unsigned long const ,CGuildMarkImage *>,void *> >,std::_Tree_val<std::_Tree_simple_types<std::pair<unsigned long const ,CGuildMarkImage *> > >,1>,1>::_Get_first, COMDAT
; _this$ = ecx

; 1388 :         return *this;

  00000	8b c1		 mov	 eax, ecx

; 1389 :     }

  00002	c3		 ret	 0
?_Get_first@?$_Compressed_pair@U?$less@K@std@@V?$_Compressed_pair@V?$allocator@U?$_Tree_node@U?$pair@$$CBKPAVCGuildMarkImage@@@std@@PAX@std@@@std@@V?$_Tree_val@U?$_Tree_simple_types@U?$pair@$$CBKPAVCGuildMarkImage@@@std@@@std@@@2@$00@2@$00@std@@QBEABU?$less@K@2@XZ ENDP ; std::_Compressed_pair<std::less<unsigned long>,std::_Compressed_pair<std::allocator<std::_Tree_node<std::pair<unsigned long const ,CGuildMarkImage *>,void *> >,std::_Tree_val<std::_Tree_simple_types<std::pair<unsigned long const ,CGuildMarkImage *> > >,1>,1>::_Get_first
_TEXT	ENDS
; Function compile flags: /Ogtp
; File C:\Program Files\Microsoft Visual Studio\2022\Community\VC\Tools\MSVC\14.34.31933\include\xtree
;	COMDAT ?_Rrotate@?$_Tree_val@U?$_Tree_simple_types@U?$pair@$$CBKPAVCGuildMarkImage@@@std@@@std@@@std@@QAEXPAU?$_Tree_node@U?$pair@$$CBKPAVCGuildMarkImage@@@std@@PAX@2@@Z
_TEXT	SEGMENT
__Wherenode$ = 8					; size = 4
?_Rrotate@?$_Tree_val@U?$_Tree_simple_types@U?$pair@$$CBKPAVCGuildMarkImage@@@std@@@std@@@std@@QAEXPAU?$_Tree_node@U?$pair@$$CBKPAVCGuildMarkImage@@@std@@PAX@2@@Z PROC ; std::_Tree_val<std::_Tree_simple_types<std::pair<unsigned long const ,CGuildMarkImage *> > >::_Rrotate, COMDAT
; _this$ = ecx

; 482  :     void _Rrotate(_Nodeptr _Wherenode) noexcept { // promote left node to root of subtree

  00000	55		 push	 ebp
  00001	8b ec		 mov	 ebp, esp

; 483  :         _Nodeptr _Pnode   = _Wherenode->_Left;

  00003	8b 55 08	 mov	 edx, DWORD PTR __Wherenode$[ebp]
  00006	56		 push	 esi
  00007	8b 32		 mov	 esi, DWORD PTR [edx]

; 484  :         _Wherenode->_Left = _Pnode->_Right;

  00009	8b 46 08	 mov	 eax, DWORD PTR [esi+8]
  0000c	89 02		 mov	 DWORD PTR [edx], eax

; 485  : 
; 486  :         if (!_Pnode->_Right->_Isnil) {

  0000e	8b 46 08	 mov	 eax, DWORD PTR [esi+8]
  00011	80 78 0d 00	 cmp	 BYTE PTR [eax+13], 0
  00015	75 03		 jne	 SHORT $LN2@Rrotate

; 487  :             _Pnode->_Right->_Parent = _Wherenode;

  00017	89 50 04	 mov	 DWORD PTR [eax+4], edx
$LN2@Rrotate:

; 488  :         }
; 489  : 
; 490  :         _Pnode->_Parent = _Wherenode->_Parent;

  0001a	8b 42 04	 mov	 eax, DWORD PTR [edx+4]
  0001d	89 46 04	 mov	 DWORD PTR [esi+4], eax

; 491  : 
; 492  :         if (_Wherenode == _Myhead->_Parent) {

  00020	8b 01		 mov	 eax, DWORD PTR [ecx]
  00022	3b 50 04	 cmp	 edx, DWORD PTR [eax+4]
  00025	75 0e		 jne	 SHORT $LN3@Rrotate

; 493  :             _Myhead->_Parent = _Pnode;

  00027	89 70 04	 mov	 DWORD PTR [eax+4], esi

; 498  :         }
; 499  : 
; 500  :         _Pnode->_Right      = _Wherenode;
; 501  :         _Wherenode->_Parent = _Pnode;
; 502  :     }

  0002a	89 56 08	 mov	 DWORD PTR [esi+8], edx
  0002d	89 72 04	 mov	 DWORD PTR [edx+4], esi
  00030	5e		 pop	 esi
  00031	5d		 pop	 ebp
  00032	c2 04 00	 ret	 4
$LN3@Rrotate:

; 494  :         } else if (_Wherenode == _Wherenode->_Parent->_Right) {

  00035	8b 42 04	 mov	 eax, DWORD PTR [edx+4]
  00038	3b 50 08	 cmp	 edx, DWORD PTR [eax+8]
  0003b	75 0e		 jne	 SHORT $LN5@Rrotate

; 495  :             _Wherenode->_Parent->_Right = _Pnode;

  0003d	89 70 08	 mov	 DWORD PTR [eax+8], esi

; 498  :         }
; 499  : 
; 500  :         _Pnode->_Right      = _Wherenode;
; 501  :         _Wherenode->_Parent = _Pnode;
; 502  :     }

  00040	89 56 08	 mov	 DWORD PTR [esi+8], edx
  00043	89 72 04	 mov	 DWORD PTR [edx+4], esi
  00046	5e		 pop	 esi
  00047	5d		 pop	 ebp
  00048	c2 04 00	 ret	 4
$LN5@Rrotate:

; 496  :         } else {
; 497  :             _Wherenode->_Parent->_Left = _Pnode;

  0004b	89 30		 mov	 DWORD PTR [eax], esi

; 498  :         }
; 499  : 
; 500  :         _Pnode->_Right      = _Wherenode;
; 501  :         _Wherenode->_Parent = _Pnode;
; 502  :     }

  0004d	89 56 08	 mov	 DWORD PTR [esi+8], edx
  00050	89 72 04	 mov	 DWORD PTR [edx+4], esi
  00053	5e		 pop	 esi
  00054	5d		 pop	 ebp
  00055	c2 04 00	 ret	 4
?_Rrotate@?$_Tree_val@U?$_Tree_simple_types@U?$pair@$$CBKPAVCGuildMarkImage@@@std@@@std@@@std@@QAEXPAU?$_Tree_node@U?$pair@$$CBKPAVCGuildMarkImage@@@std@@PAX@2@@Z ENDP ; std::_Tree_val<std::_Tree_simple_types<std::pair<unsigned long const ,CGuildMarkImage *> > >::_Rrotate
_TEXT	ENDS
; Function compile flags: /Ogtp
; File C:\Program Files\Microsoft Visual Studio\2022\Community\VC\Tools\MSVC\14.34.31933\include\xtree
;	COMDAT ?_Lrotate@?$_Tree_val@U?$_Tree_simple_types@U?$pair@$$CBKPAVCGuildMarkImage@@@std@@@std@@@std@@QAEXPAU?$_Tree_node@U?$pair@$$CBKPAVCGuildMarkImage@@@std@@PAX@2@@Z
_TEXT	SEGMENT
__Wherenode$ = 8					; size = 4
?_Lrotate@?$_Tree_val@U?$_Tree_simple_types@U?$pair@$$CBKPAVCGuildMarkImage@@@std@@@std@@@std@@QAEXPAU?$_Tree_node@U?$pair@$$CBKPAVCGuildMarkImage@@@std@@PAX@2@@Z PROC ; std::_Tree_val<std::_Tree_simple_types<std::pair<unsigned long const ,CGuildMarkImage *> > >::_Lrotate, COMDAT
; _this$ = ecx

; 460  :     void _Lrotate(_Nodeptr _Wherenode) noexcept { // promote right node to root of subtree

  00000	55		 push	 ebp
  00001	8b ec		 mov	 ebp, esp

; 461  :         _Nodeptr _Pnode    = _Wherenode->_Right;

  00003	8b 55 08	 mov	 edx, DWORD PTR __Wherenode$[ebp]
  00006	56		 push	 esi
  00007	8b 72 08	 mov	 esi, DWORD PTR [edx+8]

; 462  :         _Wherenode->_Right = _Pnode->_Left;

  0000a	8b 06		 mov	 eax, DWORD PTR [esi]
  0000c	89 42 08	 mov	 DWORD PTR [edx+8], eax

; 463  : 
; 464  :         if (!_Pnode->_Left->_Isnil) {

  0000f	8b 06		 mov	 eax, DWORD PTR [esi]
  00011	80 78 0d 00	 cmp	 BYTE PTR [eax+13], 0
  00015	75 03		 jne	 SHORT $LN2@Lrotate

; 465  :             _Pnode->_Left->_Parent = _Wherenode;

  00017	89 50 04	 mov	 DWORD PTR [eax+4], edx
$LN2@Lrotate:

; 466  :         }
; 467  : 
; 468  :         _Pnode->_Parent = _Wherenode->_Parent;

  0001a	8b 42 04	 mov	 eax, DWORD PTR [edx+4]
  0001d	89 46 04	 mov	 DWORD PTR [esi+4], eax

; 469  : 
; 470  :         if (_Wherenode == _Myhead->_Parent) {

  00020	8b 01		 mov	 eax, DWORD PTR [ecx]
  00022	3b 50 04	 cmp	 edx, DWORD PTR [eax+4]
  00025	75 0d		 jne	 SHORT $LN3@Lrotate

; 471  :             _Myhead->_Parent = _Pnode;

  00027	89 70 04	 mov	 DWORD PTR [eax+4], esi

; 476  :         }
; 477  : 
; 478  :         _Pnode->_Left       = _Wherenode;
; 479  :         _Wherenode->_Parent = _Pnode;
; 480  :     }

  0002a	89 16		 mov	 DWORD PTR [esi], edx
  0002c	89 72 04	 mov	 DWORD PTR [edx+4], esi
  0002f	5e		 pop	 esi
  00030	5d		 pop	 ebp
  00031	c2 04 00	 ret	 4
$LN3@Lrotate:

; 472  :         } else if (_Wherenode == _Wherenode->_Parent->_Left) {

  00034	8b 42 04	 mov	 eax, DWORD PTR [edx+4]
  00037	3b 10		 cmp	 edx, DWORD PTR [eax]
  00039	75 0c		 jne	 SHORT $LN5@Lrotate

; 473  :             _Wherenode->_Parent->_Left = _Pnode;

  0003b	89 30		 mov	 DWORD PTR [eax], esi

; 476  :         }
; 477  : 
; 478  :         _Pnode->_Left       = _Wherenode;
; 479  :         _Wherenode->_Parent = _Pnode;
; 480  :     }

  0003d	89 16		 mov	 DWORD PTR [esi], edx
  0003f	89 72 04	 mov	 DWORD PTR [edx+4], esi
  00042	5e		 pop	 esi
  00043	5d		 pop	 ebp
  00044	c2 04 00	 ret	 4
$LN5@Lrotate:

; 474  :         } else {
; 475  :             _Wherenode->_Parent->_Right = _Pnode;

  00047	89 70 08	 mov	 DWORD PTR [eax+8], esi

; 476  :         }
; 477  : 
; 478  :         _Pnode->_Left       = _Wherenode;
; 479  :         _Wherenode->_Parent = _Pnode;
; 480  :     }

  0004a	89 16		 mov	 DWORD PTR [esi], edx
  0004c	89 72 04	 mov	 DWORD PTR [edx+4], esi
  0004f	5e		 pop	 esi
  00050	5d		 pop	 ebp
  00051	c2 04 00	 ret	 4
?_Lrotate@?$_Tree_val@U?$_Tree_simple_types@U?$pair@$$CBKPAVCGuildMarkImage@@@std@@@std@@@std@@QAEXPAU?$_Tree_node@U?$pair@$$CBKPAVCGuildMarkImage@@@std@@PAX@2@@Z ENDP ; std::_Tree_val<std::_Tree_simple_types<std::pair<unsigned long const ,CGuildMarkImage *> > >::_Lrotate
_TEXT	ENDS
; Function compile flags: /Ogtp
; File C:\Program Files\Microsoft Visual Studio\2022\Community\VC\Tools\MSVC\14.34.31933\include\xtree
;	COMDAT ?max_size@?$_Tree@V?$_Tmap_traits@KPAVCGuildMarkImage@@U?$less@K@std@@V?$allocator@U?$pair@$$CBKPAVCGuildMarkImage@@@std@@@3@$0A@@std@@@std@@QBEIXZ
_TEXT	SEGMENT
?max_size@?$_Tree@V?$_Tmap_traits@KPAVCGuildMarkImage@@U?$less@K@std@@V?$allocator@U?$pair@$$CBKPAVCGuildMarkImage@@@std@@@3@$0A@@std@@@std@@QBEIXZ PROC ; std::_Tree<std::_Tmap_traits<unsigned long,CGuildMarkImage *,std::less<unsigned long>,std::allocator<std::pair<unsigned long const ,CGuildMarkImage *> >,0> >::max_size, COMDAT
; _this$dead$ = ecx

; 1197 :         return (_STD min)(

  00000	b8 aa aa aa 0a	 mov	 eax, 178956970		; 0aaaaaaaH

; 1198 :             static_cast<size_type>((numeric_limits<difference_type>::max)()), _Alnode_traits::max_size(_Getal()));
; 1199 :     }

  00005	c3		 ret	 0
?max_size@?$_Tree@V?$_Tmap_traits@KPAVCGuildMarkImage@@U?$less@K@std@@V?$allocator@U?$pair@$$CBKPAVCGuildMarkImage@@@std@@@3@$0A@@std@@@std@@QBEIXZ ENDP ; std::_Tree<std::_Tmap_traits<unsigned long,CGuildMarkImage *,std::less<unsigned long>,std::allocator<std::pair<unsigned long const ,CGuildMarkImage *> >,0> >::max_size
_TEXT	ENDS
; Function compile flags: /Ogtp
; File C:\Program Files\Microsoft Visual Studio\2022\Community\VC\Tools\MSVC\14.34.31933\include\xmemory
;	COMDAT ?deallocate@?$allocator@U?$_Tree_node@U?$pair@$$CBKPAVCGuildMarkImage@@@std@@PAX@std@@@std@@QAEXQAU?$_Tree_node@U?$pair@$$CBKPAVCGuildMarkImage@@@std@@PAX@2@I@Z
_TEXT	SEGMENT
__Ptr$ = 8						; size = 4
__Count$dead$ = 12					; size = 4
?deallocate@?$allocator@U?$_Tree_node@U?$pair@$$CBKPAVCGuildMarkImage@@@std@@PAX@std@@@std@@QAEXQAU?$_Tree_node@U?$pair@$$CBKPAVCGuildMarkImage@@@std@@PAX@2@I@Z PROC ; std::allocator<std::_Tree_node<std::pair<unsigned long const ,CGuildMarkImage *>,void *> >::deallocate, COMDAT
; _this$dead$ = ecx

; 827  :     _CONSTEXPR20 void deallocate(_Ty* const _Ptr, const size_t _Count) {

  00000	55		 push	 ebp
  00001	8b ec		 mov	 ebp, esp

; 255  :         ::operator delete(_Ptr, _Bytes);

  00003	6a 18		 push	 24			; 00000018H
  00005	ff 75 08	 push	 DWORD PTR __Ptr$[ebp]
  00008	e8 00 00 00 00	 call	 ??3@YAXPAXI@Z		; operator delete
  0000d	83 c4 08	 add	 esp, 8

; 828  :         _STL_ASSERT(_Ptr != nullptr || _Count == 0, "null pointer cannot point to a block of non-zero size");
; 829  :         // no overflow check on the following multiply; we assume _Allocate did that check
; 830  :         _Deallocate<_New_alignof<_Ty>>(_Ptr, sizeof(_Ty) * _Count);
; 831  :     }

  00010	5d		 pop	 ebp
  00011	c2 08 00	 ret	 8
?deallocate@?$allocator@U?$_Tree_node@U?$pair@$$CBKPAVCGuildMarkImage@@@std@@PAX@std@@@std@@QAEXQAU?$_Tree_node@U?$pair@$$CBKPAVCGuildMarkImage@@@std@@PAX@2@I@Z ENDP ; std::allocator<std::_Tree_node<std::pair<unsigned long const ,CGuildMarkImage *>,void *> >::deallocate
_TEXT	ENDS
; Function compile flags: /Ogtp
; File C:\Program Files\Microsoft Visual Studio\2022\Community\VC\Tools\MSVC\14.34.31933\include\xtree
;	COMDAT ?_Getal@?$_Tree@V?$_Tmap_traits@KPAVCGuildMarkImage@@U?$less@K@std@@V?$allocator@U?$pair@$$CBKPAVCGuildMarkImage@@@std@@@3@$0A@@std@@@std@@IBEABV?$allocator@U?$_Tree_node@U?$pair@$$CBKPAVCGuildMarkImage@@@std@@PAX@std@@@2@XZ
_TEXT	SEGMENT
?_Getal@?$_Tree@V?$_Tmap_traits@KPAVCGuildMarkImage@@U?$less@K@std@@V?$allocator@U?$pair@$$CBKPAVCGuildMarkImage@@@std@@@3@$0A@@std@@@std@@IBEABV?$allocator@U?$_Tree_node@U?$pair@$$CBKPAVCGuildMarkImage@@@std@@PAX@std@@@2@XZ PROC ; std::_Tree<std::_Tmap_traits<unsigned long,CGuildMarkImage *,std::less<unsigned long>,std::allocator<std::pair<unsigned long const ,CGuildMarkImage *> >,0> >::_Getal, COMDAT
; _this$ = ecx

; 1963 :         return _Mypair._Myval2._Get_first();

  00000	8b c1		 mov	 eax, ecx

; 1964 :     }

  00002	c3		 ret	 0
?_Getal@?$_Tree@V?$_Tmap_traits@KPAVCGuildMarkImage@@U?$less@K@std@@V?$allocator@U?$pair@$$CBKPAVCGuildMarkImage@@@std@@@3@$0A@@std@@@std@@IBEABV?$allocator@U?$_Tree_node@U?$pair@$$CBKPAVCGuildMarkImage@@@std@@PAX@std@@@2@XZ ENDP ; std::_Tree<std::_Tmap_traits<unsigned long,CGuildMarkImage *,std::less<unsigned long>,std::allocator<std::pair<unsigned long const ,CGuildMarkImage *> >,0> >::_Getal
_TEXT	ENDS
; Function compile flags: /Ogtp
; File C:\Program Files\Microsoft Visual Studio\2022\Community\VC\Tools\MSVC\14.34.31933\include\xmemory
;	COMDAT ?max_size@?$_Default_allocator_traits@V?$allocator@U?$_Tree_node@U?$pair@$$CBKPAVCGuildMarkImage@@@std@@PAX@std@@@std@@@std@@SAIABV?$allocator@U?$_Tree_node@U?$pair@$$CBKPAVCGuildMarkImage@@@std@@PAX@std@@@2@@Z
_TEXT	SEGMENT
?max_size@?$_Default_allocator_traits@V?$allocator@U?$_Tree_node@U?$pair@$$CBKPAVCGuildMarkImage@@@std@@PAX@std@@@std@@@std@@SAIABV?$allocator@U?$_Tree_node@U?$pair@$$CBKPAVCGuildMarkImage@@@std@@PAX@std@@@2@@Z PROC ; std::_Default_allocator_traits<std::allocator<std::_Tree_node<std::pair<unsigned long const ,CGuildMarkImage *>,void *> > >::max_size, COMDAT
; ___formal$dead$ = ecx

; 694  :         return static_cast<size_t>(-1) / sizeof(value_type);

  00000	b8 aa aa aa 0a	 mov	 eax, 178956970		; 0aaaaaaaH

; 695  :     }

  00005	c3		 ret	 0
?max_size@?$_Default_allocator_traits@V?$allocator@U?$_Tree_node@U?$pair@$$CBKPAVCGuildMarkImage@@@std@@PAX@std@@@std@@@std@@SAIABV?$allocator@U?$_Tree_node@U?$pair@$$CBKPAVCGuildMarkImage@@@std@@PAX@std@@@2@@Z ENDP ; std::_Default_allocator_traits<std::allocator<std::_Tree_node<std::pair<unsigned long const ,CGuildMarkImage *>,void *> > >::max_size
_TEXT	ENDS
; Function compile flags: /Ogtp
; File C:\Program Files\Microsoft Visual Studio\2022\Community\VC\Tools\MSVC\14.34.31933\include\xmemory
;	COMDAT ?_Get_first@?$_Compressed_pair@V?$allocator@U?$_Tree_node@U?$pair@$$CBKPAVCGuildMarkImage@@@std@@PAX@std@@@std@@V?$_Tree_val@U?$_Tree_simple_types@U?$pair@$$CBKPAVCGuildMarkImage@@@std@@@std@@@2@$00@std@@QBEABV?$allocator@U?$_Tree_node@U?$pair@$$CBKPAVCGuildMarkImage@@@std@@PAX@std@@@2@XZ
_TEXT	SEGMENT
?_Get_first@?$_Compressed_pair@V?$allocator@U?$_Tree_node@U?$pair@$$CBKPAVCGuildMarkImage@@@std@@PAX@std@@@std@@V?$_Tree_val@U?$_Tree_simple_types@U?$pair@$$CBKPAVCGuildMarkImage@@@std@@@std@@@2@$00@std@@QBEABV?$allocator@U?$_Tree_node@U?$pair@$$CBKPAVCGuildMarkImage@@@std@@PAX@std@@@2@XZ PROC ; std::_Compressed_pair<std::allocator<std::_Tree_node<std::pair<unsigned long const ,CGuildMarkImage *>,void *> >,std::_Tree_val<std::_Tree_simple_types<std::pair<unsigned long const ,CGuildMarkImage *> > >,1>::_Get_first, COMDAT
; _this$ = ecx

; 1388 :         return *this;

  00000	8b c1		 mov	 eax, ecx

; 1389 :     }

  00002	c3		 ret	 0
?_Get_first@?$_Compressed_pair@V?$allocator@U?$_Tree_node@U?$pair@$$CBKPAVCGuildMarkImage@@@std@@PAX@std@@@std@@V?$_Tree_val@U?$_Tree_simple_types@U?$pair@$$CBKPAVCGuildMarkImage@@@std@@@std@@@2@$00@std@@QBEABV?$allocator@U?$_Tree_node@U?$pair@$$CBKPAVCGuildMarkImage@@@std@@PAX@std@@@2@XZ ENDP ; std::_Compressed_pair<std::allocator<std::_Tree_node<std::pair<unsigned long const ,CGuildMarkImage *>,void *> >,std::_Tree_val<std::_Tree_simple_types<std::pair<unsigned long const ,CGuildMarkImage *> > >,1>::_Get_first
_TEXT	ENDS
; Function compile flags: /Ogtp
; File C:\Program Files\Microsoft Visual Studio\2022\Community\VC\Tools\MSVC\14.34.31933\include\type_traits
;	COMDAT ??$forward@U?$pair@$$CBKPAVCGuildMarkImage@@@std@@@std@@YA$$QAU?$pair@$$CBKPAVCGuildMarkImage@@@0@AAU10@@Z
_TEXT	SEGMENT
??$forward@U?$pair@$$CBKPAVCGuildMarkImage@@@std@@@std@@YA$$QAU?$pair@$$CBKPAVCGuildMarkImage@@@0@AAU10@@Z PROC ; std::forward<std::pair<unsigned long const ,CGuildMarkImage *> >, COMDAT
; __Arg$ = ecx

; 1426 :     return static_cast<_Ty&&>(_Arg);

  00000	8b c1		 mov	 eax, ecx

; 1427 : }

  00002	c3		 ret	 0
??$forward@U?$pair@$$CBKPAVCGuildMarkImage@@@std@@@std@@YA$$QAU?$pair@$$CBKPAVCGuildMarkImage@@@0@AAU10@@Z ENDP ; std::forward<std::pair<unsigned long const ,CGuildMarkImage *> >
_TEXT	ENDS
; Function compile flags: /Ogtp
; File C:\Program Files\Microsoft Visual Studio\2022\Community\VC\Tools\MSVC\14.34.31933\include\xtree
; File C:\Program Files\Microsoft Visual Studio\2022\Community\VC\Tools\MSVC\14.34.31933\include\xmemory
; File C:\Program Files\Microsoft Visual Studio\2022\Community\VC\Tools\MSVC\14.34.31933\include\xtree
; File C:\Program Files\Microsoft Visual Studio\2022\Community\VC\Tools\MSVC\14.34.31933\include\xmemory
; File C:\Program Files\Microsoft Visual Studio\2022\Community\VC\Tools\MSVC\14.34.31933\include\xtree
; File C:\Program Files\Microsoft Visual Studio\2022\Community\VC\Tools\MSVC\14.34.31933\include\xmemory
; File C:\Program Files\Microsoft Visual Studio\2022\Community\VC\Tools\MSVC\14.34.31933\include\xtree
;	COMDAT ??$?0U?$pair@$$CBKPAVCGuildMarkImage@@@std@@@?$_Tree_temp_node@V?$allocator@U?$_Tree_node@U?$pair@$$CBKPAVCGuildMarkImage@@@std@@PAX@std@@@std@@@std@@QAE@AAV?$allocator@U?$_Tree_node@U?$pair@$$CBKPAVCGuildMarkImage@@@std@@PAX@std@@@1@PAU?$_Tree_node@U?$pair@$$CBKPAVCGuildMarkImage@@@std@@PAX@1@$$QAU?$pair@$$CBKPAVCGuildMarkImage@@@1@@Z
_TEXT	SEGMENT
_this$ = -16						; size = 4
__$EHRec$ = -12						; size = 12
__Al_$ = 8						; size = 4
__Myhead$ = 12						; size = 4
_<_Vals_0>$ = 16					; size = 4
??$?0U?$pair@$$CBKPAVCGuildMarkImage@@@std@@@?$_Tree_temp_node@V?$allocator@U?$_Tree_node@U?$pair@$$CBKPAVCGuildMarkImage@@@std@@PAX@std@@@std@@@std@@QAE@AAV?$allocator@U?$_Tree_node@U?$pair@$$CBKPAVCGuildMarkImage@@@std@@PAX@std@@@1@PAU?$_Tree_node@U?$pair@$$CBKPAVCGuildMarkImage@@@std@@PAX@1@$$QAU?$pair@$$CBKPAVCGuildMarkImage@@@1@@Z PROC ; std::_Tree_temp_node<std::allocator<std::_Tree_node<std::pair<unsigned long const ,CGuildMarkImage *>,void *> > >::_Tree_temp_node<std::allocator<std::_Tree_node<std::pair<unsigned long const ,CGuildMarkImage *>,void *> > ><std::pair<unsigned long const ,CGuildMarkImage *> >, COMDAT
; _this$ = ecx

; 806  :         : _Tree_temp_node_alloc<_Alnode>(_Al_) {

  00000	55		 push	 ebp
  00001	8b ec		 mov	 ebp, esp
  00003	6a ff		 push	 -1
  00005	68 00 00 00 00	 push	 __ehhandler$??$?0U?$pair@$$CBKPAVCGuildMarkImage@@@std@@@?$_Tree_temp_node@V?$allocator@U?$_Tree_node@U?$pair@$$CBKPAVCGuildMarkImage@@@std@@PAX@std@@@std@@@std@@QAE@AAV?$allocator@U?$_Tree_node@U?$pair@$$CBKPAVCGuildMarkImage@@@std@@PAX@std@@@1@PAU?$_Tree_node@U?$pair@$$CBKPAVCGuildMarkImage@@@std@@PAX@1@$$QAU?$pair@$$CBKPAVCGuildMarkImage@@@1@@Z
  0000a	64 a1 00 00 00
	00		 mov	 eax, DWORD PTR fs:0
  00010	50		 push	 eax
  00011	51		 push	 ecx
  00012	56		 push	 esi
  00013	a1 00 00 00 00	 mov	 eax, DWORD PTR ___security_cookie
  00018	33 c5		 xor	 eax, ebp
  0001a	50		 push	 eax
  0001b	8d 45 f4	 lea	 eax, DWORD PTR __$EHRec$[ebp]
  0001e	64 a3 00 00 00
	00		 mov	 DWORD PTR fs:0, eax
  00024	8b f1		 mov	 esi, ecx
  00026	89 75 f0	 mov	 DWORD PTR _this$[ebp], esi
; File C:\Program Files\Microsoft Visual Studio\2022\Community\VC\Tools\MSVC\14.34.31933\include\xmemory

; 1005 :     _CONSTEXPR20 explicit _Alloc_construct_ptr(_Alloc& _Al_) : _Al(_Al_), _Ptr(nullptr) {}

  00029	8b 45 08	 mov	 eax, DWORD PTR __Al_$[ebp]
  0002c	89 06		 mov	 DWORD PTR [esi], eax
  0002e	c7 46 04 00 00
	00 00		 mov	 DWORD PTR [esi+4], 0
; File C:\Program Files\Microsoft Visual Studio\2022\Community\VC\Tools\MSVC\14.34.31933\include\xtree

; 785  :     explicit _Tree_temp_node_alloc(_Alnode& _Al_) : _Alloc_construct_ptr<_Alnode>(_Al_) {

  00035	c7 45 fc 00 00
	00 00		 mov	 DWORD PTR __$EHRec$[ebp+8], 0
; File C:\Program Files\Microsoft Visual Studio\2022\Community\VC\Tools\MSVC\14.34.31933\include\xmemory

; 77   :         return ::operator new(_Bytes);

  0003c	6a 18		 push	 24			; 00000018H

; 1012 :         _Ptr = nullptr; // if allocate throws, prevents double-free

  0003e	c7 46 04 00 00
	00 00		 mov	 DWORD PTR [esi+4], 0

; 77   :         return ::operator new(_Bytes);

  00045	e8 00 00 00 00	 call	 ??2@YAPAXI@Z		; operator new
; File C:\Program Files\Microsoft Visual Studio\2022\Community\VC\Tools\MSVC\14.34.31933\include\xtree

; 807  :         _Alnode_traits::construct(this->_Al, _STD addressof(this->_Ptr->_Myval), _STD forward<_Valtys>(_Vals)...);

  0004a	8b 4d 10	 mov	 ecx, DWORD PTR _<_Vals_0>$[ebp]
; File C:\Program Files\Microsoft Visual Studio\2022\Community\VC\Tools\MSVC\14.34.31933\include\xmemory

; 77   :         return ::operator new(_Bytes);

  0004d	83 c4 04	 add	 esp, 4

; 1013 :         _Ptr = _Al.allocate(1);

  00050	89 46 04	 mov	 DWORD PTR [esi+4], eax
; File C:\Program Files\Microsoft Visual Studio\2022\Community\VC\Tools\MSVC\14.34.31933\include\xtree

; 807  :         _Alnode_traits::construct(this->_Al, _STD addressof(this->_Ptr->_Myval), _STD forward<_Valtys>(_Vals)...);

  00053	8b 11		 mov	 edx, DWORD PTR [ecx]
  00055	8b 49 04	 mov	 ecx, DWORD PTR [ecx+4]
  00058	89 48 14	 mov	 DWORD PTR [eax+20], ecx

; 808  :         _Construct_in_place(this->_Ptr->_Left, _Myhead);

  0005b	8b 4d 0c	 mov	 ecx, DWORD PTR __Myhead$[ebp]
  0005e	89 50 10	 mov	 DWORD PTR [eax+16], edx
  00061	8b 46 04	 mov	 eax, DWORD PTR [esi+4]
  00064	89 08		 mov	 DWORD PTR [eax], ecx

; 809  :         _Construct_in_place(this->_Ptr->_Parent, _Myhead);

  00066	8b 46 04	 mov	 eax, DWORD PTR [esi+4]
  00069	89 48 04	 mov	 DWORD PTR [eax+4], ecx

; 810  :         _Construct_in_place(this->_Ptr->_Right, _Myhead);

  0006c	8b 46 04	 mov	 eax, DWORD PTR [esi+4]
  0006f	89 48 08	 mov	 DWORD PTR [eax+8], ecx

; 811  :         this->_Ptr->_Color = _Red;

  00072	8b 46 04	 mov	 eax, DWORD PTR [esi+4]
  00075	c6 40 0c 00	 mov	 BYTE PTR [eax+12], 0

; 812  :         this->_Ptr->_Isnil = false;

  00079	8b 46 04	 mov	 eax, DWORD PTR [esi+4]
  0007c	c6 40 0d 00	 mov	 BYTE PTR [eax+13], 0

; 813  :     }

  00080	8b c6		 mov	 eax, esi
  00082	8b 4d f4	 mov	 ecx, DWORD PTR __$EHRec$[ebp]
  00085	64 89 0d 00 00
	00 00		 mov	 DWORD PTR fs:0, ecx
  0008c	59		 pop	 ecx
  0008d	5e		 pop	 esi
  0008e	8b e5		 mov	 esp, ebp
  00090	5d		 pop	 ebp
  00091	c2 0c 00	 ret	 12			; 0000000cH
_TEXT	ENDS
;	COMDAT text$x
text$x	SEGMENT
__unwindfunclet$??$?0U?$pair@$$CBKPAVCGuildMarkImage@@@std@@@?$_Tree_temp_node@V?$allocator@U?$_Tree_node@U?$pair@$$CBKPAVCGuildMarkImage@@@std@@PAX@std@@@std@@@std@@QAE@AAV?$allocator@U?$_Tree_node@U?$pair@$$CBKPAVCGuildMarkImage@@@std@@PAX@std@@@1@PAU?$_Tree_node@U?$pair@$$CBKPAVCGuildMarkImage@@@std@@PAX@1@$$QAU?$pair@$$CBKPAVCGuildMarkImage@@@1@@Z$1:
  00000	8b 4d f0	 mov	 ecx, DWORD PTR _this$[ebp]
  00003	e9 00 00 00 00	 jmp	 ??1?$_Alloc_construct_ptr@V?$allocator@U?$_Tree_node@U?$pair@$$CBKPAVCGuildMarkImage@@@std@@PAX@std@@@std@@@std@@QAE@XZ ; std::_Alloc_construct_ptr<std::allocator<std::_Tree_node<std::pair<unsigned long const ,CGuildMarkImage *>,void *> > >::~_Alloc_construct_ptr<std::allocator<std::_Tree_node<std::pair<unsigned long const ,CGuildMarkImage *>,void *> > >
  00008	cc		 int	 3
  00009	cc		 int	 3
  0000a	cc		 int	 3
  0000b	cc		 int	 3
  0000c	cc		 int	 3
__ehhandler$??$?0U?$pair@$$CBKPAVCGuildMarkImage@@@std@@@?$_Tree_temp_node@V?$allocator@U?$_Tree_node@U?$pair@$$CBKPAVCGuildMarkImage@@@std@@PAX@std@@@std@@@std@@QAE@AAV?$allocator@U?$_Tree_node@U?$pair@$$CBKPAVCGuildMarkImage@@@std@@PAX@std@@@1@PAU?$_Tree_node@U?$pair@$$CBKPAVCGuildMarkImage@@@std@@PAX@1@$$QAU?$pair@$$CBKPAVCGuildMarkImage@@@1@@Z:
  0000d	90		 npad	 1
  0000e	90		 npad	 1
  0000f	8b 54 24 08	 mov	 edx, DWORD PTR [esp+8]
  00013	8d 42 0c	 lea	 eax, DWORD PTR [edx+12]
  00016	8b 4a f4	 mov	 ecx, DWORD PTR [edx-12]
  00019	33 c8		 xor	 ecx, eax
  0001b	e8 00 00 00 00	 call	 @__security_check_cookie@4
  00020	b8 00 00 00 00	 mov	 eax, OFFSET __ehfuncinfo$??$?0U?$pair@$$CBKPAVCGuildMarkImage@@@std@@@?$_Tree_temp_node@V?$allocator@U?$_Tree_node@U?$pair@$$CBKPAVCGuildMarkImage@@@std@@PAX@std@@@std@@@std@@QAE@AAV?$allocator@U?$_Tree_node@U?$pair@$$CBKPAVCGuildMarkImage@@@std@@PAX@std@@@1@PAU?$_Tree_node@U?$pair@$$CBKPAVCGuildMarkImage@@@std@@PAX@1@$$QAU?$pair@$$CBKPAVCGuildMarkImage@@@1@@Z
  00025	e9 00 00 00 00	 jmp	 ___CxxFrameHandler3
text$x	ENDS
??$?0U?$pair@$$CBKPAVCGuildMarkImage@@@std@@@?$_Tree_temp_node@V?$allocator@U?$_Tree_node@U?$pair@$$CBKPAVCGuildMarkImage@@@std@@PAX@std@@@std@@@std@@QAE@AAV?$allocator@U?$_Tree_node@U?$pair@$$CBKPAVCGuildMarkImage@@@std@@PAX@std@@@1@PAU?$_Tree_node@U?$pair@$$CBKPAVCGuildMarkImage@@@std@@PAX@1@$$QAU?$pair@$$CBKPAVCGuildMarkImage@@@1@@Z ENDP ; std::_Tree_temp_node<std::allocator<std::_Tree_node<std::pair<unsigned long const ,CGuildMarkImage *>,void *> > >::_Tree_temp_node<std::allocator<std::_Tree_node<std::pair<unsigned long const ,CGuildMarkImage *>,void *> > ><std::pair<unsigned long const ,CGuildMarkImage *> >
; Function compile flags: /Ogtp
; File C:\Program Files\Microsoft Visual Studio\2022\Community\VC\Tools\MSVC\14.34.31933\include\utility
;	COMDAT ??$?0AAPAU?$_Tree_node@U?$pair@$$CBKPAVCGuildMarkImage@@@std@@PAX@std@@_N$0A@@?$pair@PAU?$_Tree_node@U?$pair@$$CBKPAVCGuildMarkImage@@@std@@PAX@std@@_N@std@@QAE@AAPAU?$_Tree_node@U?$pair@$$CBKPAVCGuildMarkImage@@@std@@PAX@1@$$QA_N@Z
_TEXT	SEGMENT
__Val1$ = 8						; size = 4
__Val2$ = 12						; size = 4
??$?0AAPAU?$_Tree_node@U?$pair@$$CBKPAVCGuildMarkImage@@@std@@PAX@std@@_N$0A@@?$pair@PAU?$_Tree_node@U?$pair@$$CBKPAVCGuildMarkImage@@@std@@PAX@std@@_N@std@@QAE@AAPAU?$_Tree_node@U?$pair@$$CBKPAVCGuildMarkImage@@@std@@PAX@1@$$QA_N@Z PROC ; std::pair<std::_Tree_node<std::pair<unsigned long const ,CGuildMarkImage *>,void *> *,bool>::pair<std::_Tree_node<std::pair<unsigned long const ,CGuildMarkImage *>,void *> *,bool><std::_Tree_node<std::pair<unsigned long const ,CGuildMarkImage *>,void *> * &,bool,0>, COMDAT
; _this$ = ecx

; 172  :         : first(_STD forward<_Other1>(_Val1)), second(_STD forward<_Other2>(_Val2)) {

  00000	55		 push	 ebp
  00001	8b ec		 mov	 ebp, esp
  00003	8b 45 08	 mov	 eax, DWORD PTR __Val1$[ebp]
  00006	8b 00		 mov	 eax, DWORD PTR [eax]
  00008	89 01		 mov	 DWORD PTR [ecx], eax
  0000a	8b 45 0c	 mov	 eax, DWORD PTR __Val2$[ebp]
  0000d	8a 00		 mov	 al, BYTE PTR [eax]
  0000f	88 41 04	 mov	 BYTE PTR [ecx+4], al

; 173  :     }

  00012	8b c1		 mov	 eax, ecx
  00014	5d		 pop	 ebp
  00015	c2 08 00	 ret	 8
??$?0AAPAU?$_Tree_node@U?$pair@$$CBKPAVCGuildMarkImage@@@std@@PAX@std@@_N$0A@@?$pair@PAU?$_Tree_node@U?$pair@$$CBKPAVCGuildMarkImage@@@std@@PAX@std@@_N@std@@QAE@AAPAU?$_Tree_node@U?$pair@$$CBKPAVCGuildMarkImage@@@std@@PAX@1@$$QA_N@Z ENDP ; std::pair<std::_Tree_node<std::pair<unsigned long const ,CGuildMarkImage *>,void *> *,bool>::pair<std::_Tree_node<std::pair<unsigned long const ,CGuildMarkImage *>,void *> *,bool><std::_Tree_node<std::pair<unsigned long const ,CGuildMarkImage *>,void *> * &,bool,0>
_TEXT	ENDS
; Function compile flags: /Ogtp
; File C:\Program Files\Microsoft Visual Studio\2022\Community\VC\Tools\MSVC\14.34.31933\include\utility
;	COMDAT ??$?0PAU?$_Tree_node@U?$pair@$$CBKPAVCGuildMarkImage@@@std@@PAX@std@@_N$0A@@?$pair@PAU?$_Tree_node@U?$pair@$$CBKPAVCGuildMarkImage@@@std@@PAX@std@@_N@std@@QAE@$$QAPAU?$_Tree_node@U?$pair@$$CBKPAVCGuildMarkImage@@@std@@PAX@1@$$QA_N@Z
_TEXT	SEGMENT
__Val1$ = 8						; size = 4
__Val2$ = 12						; size = 4
??$?0PAU?$_Tree_node@U?$pair@$$CBKPAVCGuildMarkImage@@@std@@PAX@std@@_N$0A@@?$pair@PAU?$_Tree_node@U?$pair@$$CBKPAVCGuildMarkImage@@@std@@PAX@std@@_N@std@@QAE@$$QAPAU?$_Tree_node@U?$pair@$$CBKPAVCGuildMarkImage@@@std@@PAX@1@$$QA_N@Z PROC ; std::pair<std::_Tree_node<std::pair<unsigned long const ,CGuildMarkImage *>,void *> *,bool>::pair<std::_Tree_node<std::pair<unsigned long const ,CGuildMarkImage *>,void *> *,bool><std::_Tree_node<std::pair<unsigned long const ,CGuildMarkImage *>,void *> *,bool,0>, COMDAT
; _this$ = ecx

; 172  :         : first(_STD forward<_Other1>(_Val1)), second(_STD forward<_Other2>(_Val2)) {

  00000	55		 push	 ebp
  00001	8b ec		 mov	 ebp, esp
  00003	8b 45 08	 mov	 eax, DWORD PTR __Val1$[ebp]
  00006	8b 00		 mov	 eax, DWORD PTR [eax]
  00008	89 01		 mov	 DWORD PTR [ecx], eax
  0000a	8b 45 0c	 mov	 eax, DWORD PTR __Val2$[ebp]
  0000d	8a 00		 mov	 al, BYTE PTR [eax]
  0000f	88 41 04	 mov	 BYTE PTR [ecx+4], al

; 173  :     }

  00012	8b c1		 mov	 eax, ecx
  00014	5d		 pop	 ebp
  00015	c2 08 00	 ret	 8
??$?0PAU?$_Tree_node@U?$pair@$$CBKPAVCGuildMarkImage@@@std@@PAX@std@@_N$0A@@?$pair@PAU?$_Tree_node@U?$pair@$$CBKPAVCGuildMarkImage@@@std@@PAX@std@@_N@std@@QAE@$$QAPAU?$_Tree_node@U?$pair@$$CBKPAVCGuildMarkImage@@@std@@PAX@1@$$QA_N@Z ENDP ; std::pair<std::_Tree_node<std::pair<unsigned long const ,CGuildMarkImage *>,void *> *,bool>::pair<std::_Tree_node<std::pair<unsigned long const ,CGuildMarkImage *>,void *> *,bool><std::_Tree_node<std::pair<unsigned long const ,CGuildMarkImage *>,void *> *,bool,0>
_TEXT	ENDS
; Function compile flags: /Ogtp
; File C:\Program Files\Microsoft Visual Studio\2022\Community\VC\Tools\MSVC\14.34.31933\include\type_traits
;	COMDAT ??$forward@V?$_Tree_iterator@V?$_Tree_val@U?$_Tree_simple_types@U?$pair@$$CBKPAVCGuildMarkImage@@@std@@@std@@@std@@@std@@@std@@YA$$QAV?$_Tree_iterator@V?$_Tree_val@U?$_Tree_simple_types@U?$pair@$$CBKPAVCGuildMarkImage@@@std@@@std@@@std@@@0@AAV10@@Z
_TEXT	SEGMENT
??$forward@V?$_Tree_iterator@V?$_Tree_val@U?$_Tree_simple_types@U?$pair@$$CBKPAVCGuildMarkImage@@@std@@@std@@@std@@@std@@@std@@YA$$QAV?$_Tree_iterator@V?$_Tree_val@U?$_Tree_simple_types@U?$pair@$$CBKPAVCGuildMarkImage@@@std@@@std@@@std@@@0@AAV10@@Z PROC ; std::forward<std::_Tree_iterator<std::_Tree_val<std::_Tree_simple_types<std::pair<unsigned long const ,CGuildMarkImage *> > > > >, COMDAT
; __Arg$ = ecx

; 1426 :     return static_cast<_Ty&&>(_Arg);

  00000	8b c1		 mov	 eax, ecx

; 1427 : }

  00002	c3		 ret	 0
??$forward@V?$_Tree_iterator@V?$_Tree_val@U?$_Tree_simple_types@U?$pair@$$CBKPAVCGuildMarkImage@@@std@@@std@@@std@@@std@@@std@@YA$$QAV?$_Tree_iterator@V?$_Tree_val@U?$_Tree_simple_types@U?$pair@$$CBKPAVCGuildMarkImage@@@std@@@std@@@std@@@0@AAV10@@Z ENDP ; std::forward<std::_Tree_iterator<std::_Tree_val<std::_Tree_simple_types<std::pair<unsigned long const ,CGuildMarkImage *> > > > >
_TEXT	ENDS
; Function compile flags: /Ogtp
; File C:\Program Files\Microsoft Visual Studio\2022\Community\VC\Tools\MSVC\14.34.31933\include\tuple
;	COMDAT ??$?0ABK$0A@@?$tuple@ABK@std@@QAE@ABK@Z
_TEXT	SEGMENT
__This_arg$ = 8						; size = 4
??$?0ABK$0A@@?$tuple@ABK@std@@QAE@ABK@Z PROC		; std::tuple<unsigned long const &>::tuple<unsigned long const &><unsigned long const &,0>, COMDAT
; _this$ = ecx

; 277  :         : tuple(_Exact_args_t{}, _This_arg, _Rest_arg...) {}

  00000	55		 push	 ebp
  00001	8b ec		 mov	 ebp, esp

; 144  :     constexpr _Tuple_val(_Other&& _Arg) : _Val(_STD forward<_Other>(_Arg)) {}

  00003	8b 45 08	 mov	 eax, DWORD PTR __This_arg$[ebp]
  00006	89 01		 mov	 DWORD PTR [ecx], eax

; 277  :         : tuple(_Exact_args_t{}, _This_arg, _Rest_arg...) {}

  00008	8b c1		 mov	 eax, ecx
  0000a	5d		 pop	 ebp
  0000b	c2 04 00	 ret	 4
??$?0ABK$0A@@?$tuple@ABK@std@@QAE@ABK@Z ENDP		; std::tuple<unsigned long const &>::tuple<unsigned long const &><unsigned long const &,0>
_TEXT	ENDS
; Function compile flags: /Ogtp
; File C:\Program Files\Microsoft Visual Studio\2022\Community\VC\Tools\MSVC\14.34.31933\include\type_traits
;	COMDAT ??$forward@ABUpiecewise_construct_t@std@@@std@@YAABUpiecewise_construct_t@0@ABU10@@Z
_TEXT	SEGMENT
??$forward@ABUpiecewise_construct_t@std@@@std@@YAABUpiecewise_construct_t@0@ABU10@@Z PROC ; std::forward<std::piecewise_construct_t const &>, COMDAT
; __Arg$ = ecx

; 1426 :     return static_cast<_Ty&&>(_Arg);

  00000	8b c1		 mov	 eax, ecx

; 1427 : }

  00002	c3		 ret	 0
??$forward@ABUpiecewise_construct_t@std@@@std@@YAABUpiecewise_construct_t@0@ABU10@@Z ENDP ; std::forward<std::piecewise_construct_t const &>
_TEXT	ENDS
; Function compile flags: /Ogtp
; File C:\Program Files\Microsoft Visual Studio\2022\Community\VC\Tools\MSVC\14.34.31933\include\type_traits
;	COMDAT ??$forward@V?$tuple@ABK@std@@@std@@YA$$QAV?$tuple@ABK@0@AAV10@@Z
_TEXT	SEGMENT
??$forward@V?$tuple@ABK@std@@@std@@YA$$QAV?$tuple@ABK@0@AAV10@@Z PROC ; std::forward<std::tuple<unsigned long const &> >, COMDAT
; __Arg$ = ecx

; 1426 :     return static_cast<_Ty&&>(_Arg);

  00000	8b c1		 mov	 eax, ecx

; 1427 : }

  00002	c3		 ret	 0
??$forward@V?$tuple@ABK@std@@@std@@YA$$QAV?$tuple@ABK@0@AAV10@@Z ENDP ; std::forward<std::tuple<unsigned long const &> >
_TEXT	ENDS
; Function compile flags: /Ogtp
; File C:\Program Files\Microsoft Visual Studio\2022\Community\VC\Tools\MSVC\14.34.31933\include\type_traits
;	COMDAT ??$forward@V?$tuple@$$V@std@@@std@@YA$$QAV?$tuple@$$V@0@AAV10@@Z
_TEXT	SEGMENT
??$forward@V?$tuple@$$V@std@@@std@@YA$$QAV?$tuple@$$V@0@AAV10@@Z PROC ; std::forward<std::tuple<> >, COMDAT
; __Arg$ = ecx

; 1426 :     return static_cast<_Ty&&>(_Arg);

  00000	8b c1		 mov	 eax, ecx

; 1427 : }

  00002	c3		 ret	 0
??$forward@V?$tuple@$$V@std@@@std@@YA$$QAV?$tuple@$$V@0@AAV10@@Z ENDP ; std::forward<std::tuple<> >
_TEXT	ENDS
; Function compile flags: /Ogtp
; File C:\Program Files\Microsoft Visual Studio\2022\Community\VC\Tools\MSVC\14.34.31933\include\type_traits
;	COMDAT ??$forward@ABQAU?$_Tree_node@U?$pair@$$CBKUTGuildSymbol@CGuildMarkManager@@@std@@PAX@std@@@std@@YAABQAU?$_Tree_node@U?$pair@$$CBKUTGuildSymbol@CGuildMarkManager@@@std@@PAX@0@ABQAU10@@Z
_TEXT	SEGMENT
??$forward@ABQAU?$_Tree_node@U?$pair@$$CBKUTGuildSymbol@CGuildMarkManager@@@std@@PAX@std@@@std@@YAABQAU?$_Tree_node@U?$pair@$$CBKUTGuildSymbol@CGuildMarkManager@@@std@@PAX@0@ABQAU10@@Z PROC ; std::forward<std::_Tree_node<std::pair<unsigned long const ,CGuildMarkManager::TGuildSymbol>,void *> * const &>, COMDAT
; __Arg$ = ecx

; 1426 :     return static_cast<_Ty&&>(_Arg);

  00000	8b c1		 mov	 eax, ecx

; 1427 : }

  00002	c3		 ret	 0
??$forward@ABQAU?$_Tree_node@U?$pair@$$CBKUTGuildSymbol@CGuildMarkManager@@@std@@PAX@std@@@std@@YAABQAU?$_Tree_node@U?$pair@$$CBKUTGuildSymbol@CGuildMarkManager@@@std@@PAX@0@ABQAU10@@Z ENDP ; std::forward<std::_Tree_node<std::pair<unsigned long const ,CGuildMarkManager::TGuildSymbol>,void *> * const &>
_TEXT	ENDS
; Function compile flags: /Ogtp
; File C:\Program Files\Microsoft Visual Studio\2022\Community\VC\Tools\MSVC\14.34.31933\include\utility
;	COMDAT ??$exchange@PAU?$_Tree_node@U?$pair@$$CBKUTGuildSymbol@CGuildMarkManager@@@std@@PAX@std@@AAPAU12@@std@@YAPAU?$_Tree_node@U?$pair@$$CBKUTGuildSymbol@CGuildMarkManager@@@std@@PAX@0@AAPAU10@0@Z
_TEXT	SEGMENT
??$exchange@PAU?$_Tree_node@U?$pair@$$CBKUTGuildSymbol@CGuildMarkManager@@@std@@PAX@std@@AAPAU12@@std@@YAPAU?$_Tree_node@U?$pair@$$CBKUTGuildSymbol@CGuildMarkManager@@@std@@PAX@0@AAPAU10@0@Z PROC ; std::exchange<std::_Tree_node<std::pair<unsigned long const ,CGuildMarkManager::TGuildSymbol>,void *> *,std::_Tree_node<std::pair<unsigned long const ,CGuildMarkManager::TGuildSymbol>,void *> * &>, COMDAT
; __Val$ = ecx
; __New_val$ = edx

; 652  :     // assign _New_val to _Val, return previous _Val
; 653  :     _Ty _Old_val = static_cast<_Ty&&>(_Val);

  00000	8b 01		 mov	 eax, DWORD PTR [ecx]

; 654  :     _Val         = static_cast<_Other&&>(_New_val);

  00002	8b 12		 mov	 edx, DWORD PTR [edx]
  00004	89 11		 mov	 DWORD PTR [ecx], edx

; 655  :     return _Old_val;
; 656  : }

  00006	c3		 ret	 0
??$exchange@PAU?$_Tree_node@U?$pair@$$CBKUTGuildSymbol@CGuildMarkManager@@@std@@PAX@std@@AAPAU12@@std@@YAPAU?$_Tree_node@U?$pair@$$CBKUTGuildSymbol@CGuildMarkManager@@@std@@PAX@0@AAPAU10@0@Z ENDP ; std::exchange<std::_Tree_node<std::pair<unsigned long const ,CGuildMarkManager::TGuildSymbol>,void *> *,std::_Tree_node<std::pair<unsigned long const ,CGuildMarkManager::TGuildSymbol>,void *> * &>
_TEXT	ENDS
; Function compile flags: /Ogtp
; File C:\Program Files\Microsoft Visual Studio\2022\Community\VC\Tools\MSVC\14.34.31933\include\xtree
; File C:\Program Files\Microsoft Visual Studio\2022\Community\VC\Tools\MSVC\14.34.31933\include\vector
; File C:\Program Files\Microsoft Visual Studio\2022\Community\VC\Tools\MSVC\14.34.31933\include\xmemory
; File C:\Program Files\Microsoft Visual Studio\2022\Community\VC\Tools\MSVC\14.34.31933\include\vector
; File C:\Program Files\Microsoft Visual Studio\2022\Community\VC\Tools\MSVC\14.34.31933\include\xmemory
; File C:\Program Files\Microsoft Visual Studio\2022\Community\VC\Tools\MSVC\14.34.31933\include\vector
; File C:\Program Files\Microsoft Visual Studio\2022\Community\VC\Tools\MSVC\14.34.31933\include\xmemory
; File C:\Program Files\Microsoft Visual Studio\2022\Community\VC\Tools\MSVC\14.34.31933\include\xtree
; File C:\Program Files\Microsoft Visual Studio\2022\Community\VC\Tools\MSVC\14.34.31933\include\xmemory
; File C:\Program Files\Microsoft Visual Studio\2022\Community\VC\Tools\MSVC\14.34.31933\include\xtree
;	COMDAT ??$_Freenode@V?$allocator@U?$_Tree_node@U?$pair@$$CBKUTGuildSymbol@CGuildMarkManager@@@std@@PAX@std@@@std@@@?$_Tree_node@U?$pair@$$CBKUTGuildSymbol@CGuildMarkManager@@@std@@PAX@std@@SAXAAV?$allocator@U?$_Tree_node@U?$pair@$$CBKUTGuildSymbol@CGuildMarkManager@@@std@@PAX@std@@@1@PAU01@@Z
_TEXT	SEGMENT
??$_Freenode@V?$allocator@U?$_Tree_node@U?$pair@$$CBKUTGuildSymbol@CGuildMarkManager@@@std@@PAX@std@@@std@@@?$_Tree_node@U?$pair@$$CBKUTGuildSymbol@CGuildMarkManager@@@std@@PAX@std@@SAXAAV?$allocator@U?$_Tree_node@U?$pair@$$CBKUTGuildSymbol@CGuildMarkManager@@@std@@PAX@std@@@1@PAU01@@Z PROC ; std::_Tree_node<std::pair<unsigned long const ,CGuildMarkManager::TGuildSymbol>,void *>::_Freenode<std::allocator<std::_Tree_node<std::pair<unsigned long const ,CGuildMarkManager::TGuildSymbol>,void *> > >, COMDAT
; __Al$dead$ = ecx
; __Ptr$ = edx

; 380  :     static void _Freenode(_Alloc& _Al, _Nodeptr _Ptr) noexcept {

  00000	56		 push	 esi
  00001	8b f2		 mov	 esi, edx
; File C:\Program Files\Microsoft Visual Studio\2022\Community\VC\Tools\MSVC\14.34.31933\include\vector

; 2107 :         if (_Myfirst) { // destroy and deallocate old array

  00003	8b 46 18	 mov	 eax, DWORD PTR [esi+24]
  00006	85 c0		 test	 eax, eax
  00008	74 3e		 je	 SHORT $LN19@Freenode

; 2108 :             _Destroy_range(_Myfirst, _Mylast, _Al);
; 2109 :             _ASAN_VECTOR_REMOVE;
; 2110 :             _Al.deallocate(_Myfirst, static_cast<size_type>(_Myend - _Myfirst));

  0000a	8b 4e 20	 mov	 ecx, DWORD PTR [esi+32]
  0000d	2b c8		 sub	 ecx, eax
; File C:\Program Files\Microsoft Visual Studio\2022\Community\VC\Tools\MSVC\14.34.31933\include\xmemory

; 251  :         if (_Bytes >= _Big_allocation_threshold) { // boost the alignment of big allocations to help autovectorization

  0000f	81 f9 00 10 00
	00		 cmp	 ecx, 4096		; 00001000H
  00015	72 12		 jb	 SHORT $LN37@Freenode

; 150  :     const uintptr_t _Ptr_container   = _Ptr_user[-1];

  00017	8b 50 fc	 mov	 edx, DWORD PTR [eax-4]
  0001a	83 c1 23	 add	 ecx, 35			; 00000023H

; 151  : 
; 152  :     // If the following asserts, it likely means that we are performing
; 153  :     // an aligned delete on memory coming from an unaligned allocation.
; 154  :     _STL_ASSERT(_Ptr_user[-2] == _Big_allocation_sentinel, "invalid argument");
; 155  : 
; 156  :     // Extra paranoia on aligned allocation/deallocation; ensure _Ptr_container is
; 157  :     // in range [_Min_back_shift, _Non_user_size]
; 158  : #ifdef _DEBUG
; 159  :     constexpr uintptr_t _Min_back_shift = 2 * sizeof(void*);
; 160  : #else // ^^^ _DEBUG ^^^ // vvv !_DEBUG vvv
; 161  :     constexpr uintptr_t _Min_back_shift = sizeof(void*);
; 162  : #endif // _DEBUG
; 163  :     const uintptr_t _Back_shift = reinterpret_cast<uintptr_t>(_Ptr) - _Ptr_container;

  0001d	2b c2		 sub	 eax, edx

; 164  :     _STL_VERIFY(_Back_shift >= _Min_back_shift && _Back_shift <= _Non_user_size, "invalid argument");

  0001f	83 c0 fc	 add	 eax, -4			; fffffffcH
  00022	83 f8 1f	 cmp	 eax, 31			; 0000001fH
  00025	77 2e		 ja	 SHORT $LN34@Freenode

; 165  :     _Ptr = reinterpret_cast<void*>(_Ptr_container);

  00027	8b c2		 mov	 eax, edx
$LN37@Freenode:

; 255  :         ::operator delete(_Ptr, _Bytes);

  00029	51		 push	 ecx
  0002a	50		 push	 eax
  0002b	e8 00 00 00 00	 call	 ??3@YAXPAXI@Z		; operator delete
; File C:\Program Files\Microsoft Visual Studio\2022\Community\VC\Tools\MSVC\14.34.31933\include\vector

; 2112 :             _Myfirst = nullptr;

  00030	c7 46 18 00 00
	00 00		 mov	 DWORD PTR [esi+24], 0
; File C:\Program Files\Microsoft Visual Studio\2022\Community\VC\Tools\MSVC\14.34.31933\include\xmemory

; 255  :         ::operator delete(_Ptr, _Bytes);

  00037	83 c4 08	 add	 esp, 8
; File C:\Program Files\Microsoft Visual Studio\2022\Community\VC\Tools\MSVC\14.34.31933\include\vector

; 2113 :             _Mylast  = nullptr;

  0003a	c7 46 1c 00 00
	00 00		 mov	 DWORD PTR [esi+28], 0

; 2114 :             _Myend   = nullptr;

  00041	c7 46 20 00 00
	00 00		 mov	 DWORD PTR [esi+32], 0
$LN19@Freenode:
; File C:\Program Files\Microsoft Visual Studio\2022\Community\VC\Tools\MSVC\14.34.31933\include\xmemory

; 255  :         ::operator delete(_Ptr, _Bytes);

  00048	6a 24		 push	 36			; 00000024H
  0004a	56		 push	 esi
  0004b	e8 00 00 00 00	 call	 ??3@YAXPAXI@Z		; operator delete
  00050	83 c4 08	 add	 esp, 8
  00053	5e		 pop	 esi
; File C:\Program Files\Microsoft Visual Studio\2022\Community\VC\Tools\MSVC\14.34.31933\include\xtree

; 384  :     }

  00054	c3		 ret	 0
$LN34@Freenode:
; File C:\Program Files\Microsoft Visual Studio\2022\Community\VC\Tools\MSVC\14.34.31933\include\xmemory

; 164  :     _STL_VERIFY(_Back_shift >= _Min_back_shift && _Back_shift <= _Non_user_size, "invalid argument");

  00055	e8 00 00 00 00	 call	 __invalid_parameter_noinfo_noreturn
$LN91@Freenode:
  0005a	cc		 int	 3
??$_Freenode@V?$allocator@U?$_Tree_node@U?$pair@$$CBKUTGuildSymbol@CGuildMarkManager@@@std@@PAX@std@@@std@@@?$_Tree_node@U?$pair@$$CBKUTGuildSymbol@CGuildMarkManager@@@std@@PAX@std@@SAXAAV?$allocator@U?$_Tree_node@U?$pair@$$CBKUTGuildSymbol@CGuildMarkManager@@@std@@PAX@std@@@1@PAU01@@Z ENDP ; std::_Tree_node<std::pair<unsigned long const ,CGuildMarkManager::TGuildSymbol>,void *>::_Freenode<std::allocator<std::_Tree_node<std::pair<unsigned long const ,CGuildMarkManager::TGuildSymbol>,void *> > >
_TEXT	ENDS
; Function compile flags: /Ogtp
; File C:\Program Files\Microsoft Visual Studio\2022\Community\VC\Tools\MSVC\14.34.31933\include\map
;	COMDAT ??$_Kfn@$$CBKPAVCGuildMarkImage@@@?$_Tmap_traits@KPAVCGuildMarkImage@@U?$less@K@std@@V?$allocator@U?$pair@$$CBKPAVCGuildMarkImage@@@std@@@3@$0A@@std@@SAABKABU?$pair@$$CBKPAVCGuildMarkImage@@@1@@Z
_TEXT	SEGMENT
??$_Kfn@$$CBKPAVCGuildMarkImage@@@?$_Tmap_traits@KPAVCGuildMarkImage@@U?$less@K@std@@V?$allocator@U?$pair@$$CBKPAVCGuildMarkImage@@@std@@@3@$0A@@std@@SAABKABU?$pair@$$CBKPAVCGuildMarkImage@@@1@@Z PROC ; std::_Tmap_traits<unsigned long,CGuildMarkImage *,std::less<unsigned long>,std::allocator<std::pair<unsigned long const ,CGuildMarkImage *> >,0>::_Kfn<unsigned long const ,CGuildMarkImage *>, COMDAT
; __Val$ = ecx

; 68   :         return _Val.first;

  00000	8b c1		 mov	 eax, ecx

; 69   :     }

  00002	c3		 ret	 0
??$_Kfn@$$CBKPAVCGuildMarkImage@@@?$_Tmap_traits@KPAVCGuildMarkImage@@U?$less@K@std@@V?$allocator@U?$pair@$$CBKPAVCGuildMarkImage@@@std@@@3@$0A@@std@@SAABKABU?$pair@$$CBKPAVCGuildMarkImage@@@1@@Z ENDP ; std::_Tmap_traits<unsigned long,CGuildMarkImage *,std::less<unsigned long>,std::allocator<std::pair<unsigned long const ,CGuildMarkImage *> >,0>::_Kfn<unsigned long const ,CGuildMarkImage *>
_TEXT	ENDS
; Function compile flags: /Ogtp
; File C:\Program Files\Microsoft Visual Studio\2022\Community\VC\Tools\MSVC\14.34.31933\include\xmemory
;	COMDAT ??$destroy@U?$pair@$$CBKPAVCGuildMarkImage@@@std@@@?$_Default_allocator_traits@V?$allocator@U?$_Tree_node@U?$pair@$$CBKPAVCGuildMarkImage@@@std@@PAX@std@@@std@@@std@@SAXAAV?$allocator@U?$_Tree_node@U?$pair@$$CBKPAVCGuildMarkImage@@@std@@PAX@std@@@1@QAU?$pair@$$CBKPAVCGuildMarkImage@@@1@@Z
_TEXT	SEGMENT
??$destroy@U?$pair@$$CBKPAVCGuildMarkImage@@@std@@@?$_Default_allocator_traits@V?$allocator@U?$_Tree_node@U?$pair@$$CBKPAVCGuildMarkImage@@@std@@PAX@std@@@std@@@std@@SAXAAV?$allocator@U?$_Tree_node@U?$pair@$$CBKPAVCGuildMarkImage@@@std@@PAX@std@@@1@QAU?$pair@$$CBKPAVCGuildMarkImage@@@1@@Z PROC ; std::_Default_allocator_traits<std::allocator<std::_Tree_node<std::pair<unsigned long const ,CGuildMarkImage *>,void *> > >::destroy<std::pair<unsigned long const ,CGuildMarkImage *> >, COMDAT
; ___formal$dead$ = ecx
; __Ptr$dead$ = edx

; 686  : #if _HAS_CXX20
; 687  :         _STD destroy_at(_Ptr);
; 688  : #else // _HAS_CXX20
; 689  :         _Ptr->~_Uty();
; 690  : #endif // _HAS_CXX20
; 691  :     }

  00000	c2 00 00	 ret	 0
??$destroy@U?$pair@$$CBKPAVCGuildMarkImage@@@std@@@?$_Default_allocator_traits@V?$allocator@U?$_Tree_node@U?$pair@$$CBKPAVCGuildMarkImage@@@std@@PAX@std@@@std@@@std@@SAXAAV?$allocator@U?$_Tree_node@U?$pair@$$CBKPAVCGuildMarkImage@@@std@@PAX@std@@@1@QAU?$pair@$$CBKPAVCGuildMarkImage@@@1@@Z ENDP ; std::_Default_allocator_traits<std::allocator<std::_Tree_node<std::pair<unsigned long const ,CGuildMarkImage *>,void *> > >::destroy<std::pair<unsigned long const ,CGuildMarkImage *> >
_TEXT	ENDS
; Function compile flags: /Ogtp
; File C:\Program Files\Microsoft Visual Studio\2022\Community\VC\Tools\MSVC\14.34.31933\include\xmemory
;	COMDAT ??$_Destroy_in_place@PAU?$_Tree_node@U?$pair@$$CBKPAVCGuildMarkImage@@@std@@PAX@std@@@std@@YAXAAPAU?$_Tree_node@U?$pair@$$CBKPAVCGuildMarkImage@@@std@@PAX@0@@Z
_TEXT	SEGMENT
??$_Destroy_in_place@PAU?$_Tree_node@U?$pair@$$CBKPAVCGuildMarkImage@@@std@@PAX@std@@@std@@YAXAAPAU?$_Tree_node@U?$pair@$$CBKPAVCGuildMarkImage@@@std@@PAX@0@@Z PROC ; std::_Destroy_in_place<std::_Tree_node<std::pair<unsigned long const ,CGuildMarkImage *>,void *> *>, COMDAT
; __Obj$dead$ = ecx

; 295  :     if constexpr (is_array_v<_Ty>) {
; 296  :         _Destroy_range(_Obj, _Obj + extent_v<_Ty>);
; 297  :     } else {
; 298  :         _Obj.~_Ty();
; 299  :     }
; 300  : }

  00000	c2 00 00	 ret	 0
??$_Destroy_in_place@PAU?$_Tree_node@U?$pair@$$CBKPAVCGuildMarkImage@@@std@@PAX@std@@@std@@YAXAAPAU?$_Tree_node@U?$pair@$$CBKPAVCGuildMarkImage@@@std@@PAX@0@@Z ENDP ; std::_Destroy_in_place<std::_Tree_node<std::pair<unsigned long const ,CGuildMarkImage *>,void *> *>
_TEXT	ENDS
; Function compile flags: /Ogtp
; File C:\Program Files\Microsoft Visual Studio\2022\Community\VC\Tools\MSVC\14.34.31933\include\xmemory
;	COMDAT ??$_Zero_range@PAE@std@@YAPAEQAE0@Z
_TEXT	SEGMENT
__First$ = 8						; size = 4
__Last$ = 12						; size = 4
??$_Zero_range@PAE@std@@YAPAEQAE0@Z PROC		; std::_Zero_range<unsigned char *>, COMDAT

; 1878 : _Ptr _Zero_range(const _Ptr _First, const _Ptr _Last) { // fill [_First, _Last) with zeroes

  00000	55		 push	 ebp
  00001	8b ec		 mov	 ebp, esp

; 1879 :     char* const _First_ch = reinterpret_cast<char*>(_To_address(_First));
; 1880 :     char* const _Last_ch  = reinterpret_cast<char*>(_To_address(_Last));
; 1881 :     _CSTD memset(_First_ch, 0, static_cast<size_t>(_Last_ch - _First_ch));

  00003	8b 55 08	 mov	 edx, DWORD PTR __First$[ebp]
  00006	8b 4d 0c	 mov	 ecx, DWORD PTR __Last$[ebp]
  00009	2b ca		 sub	 ecx, edx
  0000b	51		 push	 ecx
  0000c	6a 00		 push	 0
  0000e	52		 push	 edx
  0000f	e8 00 00 00 00	 call	 _memset

; 1882 :     return _Last;

  00014	8b 45 0c	 mov	 eax, DWORD PTR __Last$[ebp]
  00017	83 c4 0c	 add	 esp, 12			; 0000000cH

; 1883 : }

  0001a	5d		 pop	 ebp
  0001b	c3		 ret	 0
??$_Zero_range@PAE@std@@YAPAEQAE0@Z ENDP		; std::_Zero_range<unsigned char *>
_TEXT	ENDS
; Function compile flags: /Ogtp
; File C:\Program Files\Microsoft Visual Studio\2022\Community\VC\Tools\MSVC\14.34.31933\include\xmemory
;	COMDAT ??$_Emplace_back@$$V@?$_Uninitialized_backout_al@V?$allocator@E@std@@@std@@QAEXXZ
_TEXT	SEGMENT
??$_Emplace_back@$$V@?$_Uninitialized_backout_al@V?$allocator@E@std@@@std@@QAEXXZ PROC ; std::_Uninitialized_backout_al<std::allocator<unsigned char> >::_Emplace_back<>, COMDAT
; _this$ = ecx

; 1663 :         allocator_traits<_Alloc>::construct(_Al, _Unfancy(_Last), _STD forward<_Types>(_Vals)...);

  00000	8b 41 04	 mov	 eax, DWORD PTR [ecx+4]

; 680  :             ::new (_Voidify_iter(_Ptr)) _Objty(_STD forward<_Types>(_Args)...);

  00003	c6 00 00	 mov	 BYTE PTR [eax], 0

; 1664 :         ++_Last;

  00006	ff 41 04	 inc	 DWORD PTR [ecx+4]

; 1665 :     }

  00009	c3		 ret	 0
??$_Emplace_back@$$V@?$_Uninitialized_backout_al@V?$allocator@E@std@@@std@@QAEXXZ ENDP ; std::_Uninitialized_backout_al<std::allocator<unsigned char> >::_Emplace_back<>
_TEXT	ENDS
; Function compile flags: /Ogtp
; File C:\Program Files\Microsoft Visual Studio\2022\Community\VC\Tools\MSVC\14.34.31933\include\xutility
;	COMDAT ??$to_address@E@std@@YAPAEQAE@Z
_TEXT	SEGMENT
??$to_address@E@std@@YAPAEQAE@Z PROC			; std::to_address<unsigned char>, COMDAT
; __Val$ = ecx

; 290  :     static_assert(!is_function_v<_Ty>,
; 291  :         "N4810 20.10.4 [pointer.conversion]/2: The program is ill-formed if T is a function type.");
; 292  :     return _Val;

  00000	8b c1		 mov	 eax, ecx

; 293  : }

  00002	c3		 ret	 0
??$to_address@E@std@@YAPAEQAE@Z ENDP			; std::to_address<unsigned char>
_TEXT	ENDS
; Function compile flags: /Ogtp
; File C:\Program Files\Microsoft Visual Studio\2022\Community\VC\Tools\MSVC\14.34.31933\include\type_traits
;	COMDAT ??$forward@E@std@@YA$$QAEAAE@Z
_TEXT	SEGMENT
??$forward@E@std@@YA$$QAEAAE@Z PROC			; std::forward<unsigned char>, COMDAT
; __Arg$ = ecx

; 1426 :     return static_cast<_Ty&&>(_Arg);

  00000	8b c1		 mov	 eax, ecx

; 1427 : }

  00002	c3		 ret	 0
??$forward@E@std@@YA$$QAEAAE@Z ENDP			; std::forward<unsigned char>
_TEXT	ENDS
; Function compile flags: /Ogtp
; File C:\Program Files\Microsoft Visual Studio\2022\Community\VC\Tools\MSVC\14.34.31933\include\xmemory
;	COMDAT ??$construct@EE@?$_Default_allocator_traits@V?$allocator@E@std@@@std@@SAXAAV?$allocator@E@1@QAE$$QAE@Z
_TEXT	SEGMENT
_<_Args_0>$ = 8						; size = 4
??$construct@EE@?$_Default_allocator_traits@V?$allocator@E@std@@@std@@SAXAAV?$allocator@E@1@QAE$$QAE@Z PROC ; std::_Default_allocator_traits<std::allocator<unsigned char> >::construct<unsigned char,unsigned char>, COMDAT
; ___formal$dead$ = ecx
; __Ptr$ = edx

; 673  :     static _CONSTEXPR20 void construct(_Alloc&, _Objty* const _Ptr, _Types&&... _Args) {

  00000	55		 push	 ebp
  00001	8b ec		 mov	 ebp, esp

; 674  : #if _HAS_CXX20
; 675  :         if (_STD is_constant_evaluated()) {
; 676  :             _STD construct_at(_Ptr, _STD forward<_Types>(_Args)...);
; 677  :         } else
; 678  : #endif // _HAS_CXX20
; 679  :         {
; 680  :             ::new (_Voidify_iter(_Ptr)) _Objty(_STD forward<_Types>(_Args)...);
; 681  :         }
; 682  :     }

  00003	8b 45 08	 mov	 eax, DWORD PTR _<_Args_0>$[ebp]
  00006	8a 00		 mov	 al, BYTE PTR [eax]
  00008	88 02		 mov	 BYTE PTR [edx], al
  0000a	5d		 pop	 ebp
  0000b	c3		 ret	 0
??$construct@EE@?$_Default_allocator_traits@V?$allocator@E@std@@@std@@SAXAAV?$allocator@E@1@QAE$$QAE@Z ENDP ; std::_Default_allocator_traits<std::allocator<unsigned char> >::construct<unsigned char,unsigned char>
_TEXT	ENDS
; Function compile flags: /Ogtp
; File C:\Program Files\Microsoft Visual Studio\2022\Community\VC\Tools\MSVC\14.34.31933\include\xstddef
;	COMDAT ??$addressof@PAU?$_Tree_node@U?$pair@$$CBKUTGuildSymbol@CGuildMarkManager@@@std@@PAX@std@@@std@@YAPAPAU?$_Tree_node@U?$pair@$$CBKUTGuildSymbol@CGuildMarkManager@@@std@@PAX@0@AAPAU10@@Z
_TEXT	SEGMENT
??$addressof@PAU?$_Tree_node@U?$pair@$$CBKUTGuildSymbol@CGuildMarkManager@@@std@@PAX@std@@@std@@YAPAPAU?$_Tree_node@U?$pair@$$CBKUTGuildSymbol@CGuildMarkManager@@@std@@PAX@0@AAPAU10@@Z PROC ; std::addressof<std::_Tree_node<std::pair<unsigned long const ,CGuildMarkManager::TGuildSymbol>,void *> *>, COMDAT
; __Val$ = ecx

; 281  :     return __builtin_addressof(_Val);

  00000	8b c1		 mov	 eax, ecx

; 282  : }

  00002	c3		 ret	 0
??$addressof@PAU?$_Tree_node@U?$pair@$$CBKUTGuildSymbol@CGuildMarkManager@@@std@@PAX@std@@@std@@YAPAPAU?$_Tree_node@U?$pair@$$CBKUTGuildSymbol@CGuildMarkManager@@@std@@PAX@0@AAPAU10@@Z ENDP ; std::addressof<std::_Tree_node<std::pair<unsigned long const ,CGuildMarkManager::TGuildSymbol>,void *> *>
_TEXT	ENDS
; Function compile flags: /Ogtp
; File C:\Program Files\Microsoft Visual Studio\2022\Community\VC\Tools\MSVC\14.34.31933\include\xutility
;	COMDAT ??$construct_at@PAU?$_Tree_node@U?$pair@$$CBKUTGuildSymbol@CGuildMarkManager@@@std@@PAX@std@@ABQAU12@$0A@@std@@YAPAPAU?$_Tree_node@U?$pair@$$CBKUTGuildSymbol@CGuildMarkManager@@@std@@PAX@0@QAPAU10@ABQAU10@@Z
_TEXT	SEGMENT
??$construct_at@PAU?$_Tree_node@U?$pair@$$CBKUTGuildSymbol@CGuildMarkManager@@@std@@PAX@std@@ABQAU12@$0A@@std@@YAPAPAU?$_Tree_node@U?$pair@$$CBKUTGuildSymbol@CGuildMarkManager@@@std@@PAX@0@QAPAU10@ABQAU10@@Z PROC ; std::construct_at<std::_Tree_node<std::pair<unsigned long const ,CGuildMarkManager::TGuildSymbol>,void *> *,std::_Tree_node<std::pair<unsigned long const ,CGuildMarkManager::TGuildSymbol>,void *> * const &,0>, COMDAT
; __Location$ = ecx
; _<_Args_0>$ = edx

; 218  :     _MSVC_CONSTEXPR return ::new (_Voidify_iter(_Location)) _Ty(_STD forward<_Types>(_Args)...);

  00000	8b 02		 mov	 eax, DWORD PTR [edx]
  00002	89 01		 mov	 DWORD PTR [ecx], eax
  00004	8b c1		 mov	 eax, ecx

; 219  : }

  00006	c3		 ret	 0
??$construct_at@PAU?$_Tree_node@U?$pair@$$CBKUTGuildSymbol@CGuildMarkManager@@@std@@PAX@std@@ABQAU12@$0A@@std@@YAPAPAU?$_Tree_node@U?$pair@$$CBKUTGuildSymbol@CGuildMarkManager@@@std@@PAX@0@QAPAU10@ABQAU10@@Z ENDP ; std::construct_at<std::_Tree_node<std::pair<unsigned long const ,CGuildMarkManager::TGuildSymbol>,void *> *,std::_Tree_node<std::pair<unsigned long const ,CGuildMarkManager::TGuildSymbol>,void *> * const &,0>
_TEXT	ENDS
; Function compile flags: /Ogtp
; File C:\Program Files\Microsoft Visual Studio\2022\Community\VC\Tools\MSVC\14.34.31933\include\xutility
;	COMDAT ??$_Voidify_iter@PAPAU?$_Tree_node@U?$pair@$$CBKUTGuildSymbol@CGuildMarkManager@@@std@@PAX@std@@@std@@YAPAXPAPAU?$_Tree_node@U?$pair@$$CBKUTGuildSymbol@CGuildMarkManager@@@std@@PAX@0@@Z
_TEXT	SEGMENT
??$_Voidify_iter@PAPAU?$_Tree_node@U?$pair@$$CBKUTGuildSymbol@CGuildMarkManager@@@std@@PAX@std@@@std@@YAPAXPAPAU?$_Tree_node@U?$pair@$$CBKUTGuildSymbol@CGuildMarkManager@@@std@@PAX@0@@Z PROC ; std::_Voidify_iter<std::_Tree_node<std::pair<unsigned long const ,CGuildMarkManager::TGuildSymbol>,void *> * *>, COMDAT
; __It$ = ecx

; 201  :     if constexpr (is_pointer_v<_Iter>) {
; 202  :         return const_cast<void*>(static_cast<const volatile void*>(_It));

  00000	8b c1		 mov	 eax, ecx

; 203  :     } else {
; 204  :         return const_cast<void*>(static_cast<const volatile void*>(_STD addressof(*_It)));
; 205  :     }
; 206  : }

  00002	c3		 ret	 0
??$_Voidify_iter@PAPAU?$_Tree_node@U?$pair@$$CBKUTGuildSymbol@CGuildMarkManager@@@std@@PAX@std@@@std@@YAPAXPAPAU?$_Tree_node@U?$pair@$$CBKUTGuildSymbol@CGuildMarkManager@@@std@@PAX@0@@Z ENDP ; std::_Voidify_iter<std::_Tree_node<std::pair<unsigned long const ,CGuildMarkManager::TGuildSymbol>,void *> * *>
_TEXT	ENDS
; Function compile flags: /Ogtp
; File C:\Program Files\Microsoft Visual Studio\2022\Community\VC\Tools\MSVC\14.34.31933\include\xstddef
;	COMDAT ??$addressof@PAU?$_Tree_node@U?$pair@$$CBKPAVCGuildMarkImage@@@std@@PAX@std@@@std@@YAPAPAU?$_Tree_node@U?$pair@$$CBKPAVCGuildMarkImage@@@std@@PAX@0@AAPAU10@@Z
_TEXT	SEGMENT
??$addressof@PAU?$_Tree_node@U?$pair@$$CBKPAVCGuildMarkImage@@@std@@PAX@std@@@std@@YAPAPAU?$_Tree_node@U?$pair@$$CBKPAVCGuildMarkImage@@@std@@PAX@0@AAPAU10@@Z PROC ; std::addressof<std::_Tree_node<std::pair<unsigned long const ,CGuildMarkImage *>,void *> *>, COMDAT
; __Val$ = ecx

; 281  :     return __builtin_addressof(_Val);

  00000	8b c1		 mov	 eax, ecx

; 282  : }

  00002	c3		 ret	 0
??$addressof@PAU?$_Tree_node@U?$pair@$$CBKPAVCGuildMarkImage@@@std@@PAX@std@@@std@@YAPAPAU?$_Tree_node@U?$pair@$$CBKPAVCGuildMarkImage@@@std@@PAX@0@AAPAU10@@Z ENDP ; std::addressof<std::_Tree_node<std::pair<unsigned long const ,CGuildMarkImage *>,void *> *>
_TEXT	ENDS
; Function compile flags: /Ogtp
; File C:\Program Files\Microsoft Visual Studio\2022\Community\VC\Tools\MSVC\14.34.31933\include\type_traits
;	COMDAT ??$forward@ABQAU?$_Tree_node@U?$pair@$$CBKPAVCGuildMarkImage@@@std@@PAX@std@@@std@@YAABQAU?$_Tree_node@U?$pair@$$CBKPAVCGuildMarkImage@@@std@@PAX@0@ABQAU10@@Z
_TEXT	SEGMENT
??$forward@ABQAU?$_Tree_node@U?$pair@$$CBKPAVCGuildMarkImage@@@std@@PAX@std@@@std@@YAABQAU?$_Tree_node@U?$pair@$$CBKPAVCGuildMarkImage@@@std@@PAX@0@ABQAU10@@Z PROC ; std::forward<std::_Tree_node<std::pair<unsigned long const ,CGuildMarkImage *>,void *> * const &>, COMDAT
; __Arg$ = ecx

; 1426 :     return static_cast<_Ty&&>(_Arg);

  00000	8b c1		 mov	 eax, ecx

; 1427 : }

  00002	c3		 ret	 0
??$forward@ABQAU?$_Tree_node@U?$pair@$$CBKPAVCGuildMarkImage@@@std@@PAX@std@@@std@@YAABQAU?$_Tree_node@U?$pair@$$CBKPAVCGuildMarkImage@@@std@@PAX@0@ABQAU10@@Z ENDP ; std::forward<std::_Tree_node<std::pair<unsigned long const ,CGuildMarkImage *>,void *> * const &>
_TEXT	ENDS
; Function compile flags: /Ogtp
; File C:\Program Files\Microsoft Visual Studio\2022\Community\VC\Tools\MSVC\14.34.31933\include\xutility
;	COMDAT ??$construct_at@PAU?$_Tree_node@U?$pair@$$CBKPAVCGuildMarkImage@@@std@@PAX@std@@ABQAU12@$0A@@std@@YAPAPAU?$_Tree_node@U?$pair@$$CBKPAVCGuildMarkImage@@@std@@PAX@0@QAPAU10@ABQAU10@@Z
_TEXT	SEGMENT
??$construct_at@PAU?$_Tree_node@U?$pair@$$CBKPAVCGuildMarkImage@@@std@@PAX@std@@ABQAU12@$0A@@std@@YAPAPAU?$_Tree_node@U?$pair@$$CBKPAVCGuildMarkImage@@@std@@PAX@0@QAPAU10@ABQAU10@@Z PROC ; std::construct_at<std::_Tree_node<std::pair<unsigned long const ,CGuildMarkImage *>,void *> *,std::_Tree_node<std::pair<unsigned long const ,CGuildMarkImage *>,void *> * const &,0>, COMDAT
; __Location$ = ecx
; _<_Args_0>$ = edx

; 218  :     _MSVC_CONSTEXPR return ::new (_Voidify_iter(_Location)) _Ty(_STD forward<_Types>(_Args)...);

  00000	8b 02		 mov	 eax, DWORD PTR [edx]
  00002	89 01		 mov	 DWORD PTR [ecx], eax
  00004	8b c1		 mov	 eax, ecx

; 219  : }

  00006	c3		 ret	 0
??$construct_at@PAU?$_Tree_node@U?$pair@$$CBKPAVCGuildMarkImage@@@std@@PAX@std@@ABQAU12@$0A@@std@@YAPAPAU?$_Tree_node@U?$pair@$$CBKPAVCGuildMarkImage@@@std@@PAX@0@QAPAU10@ABQAU10@@Z ENDP ; std::construct_at<std::_Tree_node<std::pair<unsigned long const ,CGuildMarkImage *>,void *> *,std::_Tree_node<std::pair<unsigned long const ,CGuildMarkImage *>,void *> * const &,0>
_TEXT	ENDS
; Function compile flags: /Ogtp
; File C:\Program Files\Microsoft Visual Studio\2022\Community\VC\Tools\MSVC\14.34.31933\include\xutility
;	COMDAT ??$_Voidify_iter@PAPAU?$_Tree_node@U?$pair@$$CBKPAVCGuildMarkImage@@@std@@PAX@std@@@std@@YAPAXPAPAU?$_Tree_node@U?$pair@$$CBKPAVCGuildMarkImage@@@std@@PAX@0@@Z
_TEXT	SEGMENT
??$_Voidify_iter@PAPAU?$_Tree_node@U?$pair@$$CBKPAVCGuildMarkImage@@@std@@PAX@std@@@std@@YAPAXPAPAU?$_Tree_node@U?$pair@$$CBKPAVCGuildMarkImage@@@std@@PAX@0@@Z PROC ; std::_Voidify_iter<std::_Tree_node<std::pair<unsigned long const ,CGuildMarkImage *>,void *> * *>, COMDAT
; __It$ = ecx

; 201  :     if constexpr (is_pointer_v<_Iter>) {
; 202  :         return const_cast<void*>(static_cast<const volatile void*>(_It));

  00000	8b c1		 mov	 eax, ecx

; 203  :     } else {
; 204  :         return const_cast<void*>(static_cast<const volatile void*>(_STD addressof(*_It)));
; 205  :     }
; 206  : }

  00002	c3		 ret	 0
??$_Voidify_iter@PAPAU?$_Tree_node@U?$pair@$$CBKPAVCGuildMarkImage@@@std@@PAX@std@@@std@@YAPAXPAPAU?$_Tree_node@U?$pair@$$CBKPAVCGuildMarkImage@@@std@@PAX@0@@Z ENDP ; std::_Voidify_iter<std::_Tree_node<std::pair<unsigned long const ,CGuildMarkImage *>,void *> * *>
_TEXT	ENDS
; Function compile flags: /Ogtp
; File C:\Program Files\Microsoft Visual Studio\2022\Community\VC\Tools\MSVC\14.34.31933\include\xmemory
; File C:\Program Files\Microsoft Visual Studio\2022\Community\VC\Tools\MSVC\14.34.31933\include\vector
; File C:\Program Files\Microsoft Visual Studio\2022\Community\VC\Tools\MSVC\14.34.31933\include\xmemory
; File C:\Program Files\Microsoft Visual Studio\2022\Community\VC\Tools\MSVC\14.34.31933\include\vector
; File C:\Program Files\Microsoft Visual Studio\2022\Community\VC\Tools\MSVC\14.34.31933\include\xmemory
; File C:\Program Files\Microsoft Visual Studio\2022\Community\VC\Tools\MSVC\14.34.31933\include\vector
; File C:\Program Files\Microsoft Visual Studio\2022\Community\VC\Tools\MSVC\14.34.31933\include\xmemory
;	COMDAT ??$destroy_at@U?$pair@$$CBKUTGuildSymbol@CGuildMarkManager@@@std@@@std@@YAXQAU?$pair@$$CBKUTGuildSymbol@CGuildMarkManager@@@0@@Z
_TEXT	SEGMENT
??$destroy_at@U?$pair@$$CBKUTGuildSymbol@CGuildMarkManager@@@std@@@std@@YAXQAU?$pair@$$CBKUTGuildSymbol@CGuildMarkManager@@@0@@Z PROC ; std::destroy_at<std::pair<unsigned long const ,CGuildMarkManager::TGuildSymbol> >, COMDAT
; __Location$ = ecx

; 304  : _CONSTEXPR20 void destroy_at(_Ty* const _Location) noexcept /* strengthened */ {

  00000	56		 push	 esi
  00001	8b f1		 mov	 esi, ecx
; File C:\Program Files\Microsoft Visual Studio\2022\Community\VC\Tools\MSVC\14.34.31933\include\vector

; 2107 :         if (_Myfirst) { // destroy and deallocate old array

  00003	8b 46 08	 mov	 eax, DWORD PTR [esi+8]
  00006	85 c0		 test	 eax, eax
  00008	74 3e		 je	 SHORT $LN15@destroy_at

; 2108 :             _Destroy_range(_Myfirst, _Mylast, _Al);
; 2109 :             _ASAN_VECTOR_REMOVE;
; 2110 :             _Al.deallocate(_Myfirst, static_cast<size_type>(_Myend - _Myfirst));

  0000a	8b 4e 10	 mov	 ecx, DWORD PTR [esi+16]
  0000d	2b c8		 sub	 ecx, eax
; File C:\Program Files\Microsoft Visual Studio\2022\Community\VC\Tools\MSVC\14.34.31933\include\xmemory

; 251  :         if (_Bytes >= _Big_allocation_threshold) { // boost the alignment of big allocations to help autovectorization

  0000f	81 f9 00 10 00
	00		 cmp	 ecx, 4096		; 00001000H
  00015	72 12		 jb	 SHORT $LN33@destroy_at

; 150  :     const uintptr_t _Ptr_container   = _Ptr_user[-1];

  00017	8b 50 fc	 mov	 edx, DWORD PTR [eax-4]
  0001a	83 c1 23	 add	 ecx, 35			; 00000023H

; 151  : 
; 152  :     // If the following asserts, it likely means that we are performing
; 153  :     // an aligned delete on memory coming from an unaligned allocation.
; 154  :     _STL_ASSERT(_Ptr_user[-2] == _Big_allocation_sentinel, "invalid argument");
; 155  : 
; 156  :     // Extra paranoia on aligned allocation/deallocation; ensure _Ptr_container is
; 157  :     // in range [_Min_back_shift, _Non_user_size]
; 158  : #ifdef _DEBUG
; 159  :     constexpr uintptr_t _Min_back_shift = 2 * sizeof(void*);
; 160  : #else // ^^^ _DEBUG ^^^ // vvv !_DEBUG vvv
; 161  :     constexpr uintptr_t _Min_back_shift = sizeof(void*);
; 162  : #endif // _DEBUG
; 163  :     const uintptr_t _Back_shift = reinterpret_cast<uintptr_t>(_Ptr) - _Ptr_container;

  0001d	2b c2		 sub	 eax, edx

; 164  :     _STL_VERIFY(_Back_shift >= _Min_back_shift && _Back_shift <= _Non_user_size, "invalid argument");

  0001f	83 c0 fc	 add	 eax, -4			; fffffffcH
  00022	83 f8 1f	 cmp	 eax, 31			; 0000001fH
  00025	77 23		 ja	 SHORT $LN30@destroy_at

; 165  :     _Ptr = reinterpret_cast<void*>(_Ptr_container);

  00027	8b c2		 mov	 eax, edx
$LN33@destroy_at:

; 255  :         ::operator delete(_Ptr, _Bytes);

  00029	51		 push	 ecx
  0002a	50		 push	 eax
  0002b	e8 00 00 00 00	 call	 ??3@YAXPAXI@Z		; operator delete
; File C:\Program Files\Microsoft Visual Studio\2022\Community\VC\Tools\MSVC\14.34.31933\include\vector

; 2112 :             _Myfirst = nullptr;

  00030	c7 46 08 00 00
	00 00		 mov	 DWORD PTR [esi+8], 0
; File C:\Program Files\Microsoft Visual Studio\2022\Community\VC\Tools\MSVC\14.34.31933\include\xmemory

; 255  :         ::operator delete(_Ptr, _Bytes);

  00037	83 c4 08	 add	 esp, 8
; File C:\Program Files\Microsoft Visual Studio\2022\Community\VC\Tools\MSVC\14.34.31933\include\vector

; 2113 :             _Mylast  = nullptr;

  0003a	c7 46 0c 00 00
	00 00		 mov	 DWORD PTR [esi+12], 0

; 2114 :             _Myend   = nullptr;

  00041	c7 46 10 00 00
	00 00		 mov	 DWORD PTR [esi+16], 0
$LN15@destroy_at:
  00048	5e		 pop	 esi
; File C:\Program Files\Microsoft Visual Studio\2022\Community\VC\Tools\MSVC\14.34.31933\include\xmemory

; 313  : }

  00049	c3		 ret	 0
$LN30@destroy_at:

; 164  :     _STL_VERIFY(_Back_shift >= _Min_back_shift && _Back_shift <= _Non_user_size, "invalid argument");

  0004a	e8 00 00 00 00	 call	 __invalid_parameter_noinfo_noreturn
$LN42@destroy_at:
  0004f	cc		 int	 3
??$destroy_at@U?$pair@$$CBKUTGuildSymbol@CGuildMarkManager@@@std@@@std@@YAXQAU?$pair@$$CBKUTGuildSymbol@CGuildMarkManager@@@0@@Z ENDP ; std::destroy_at<std::pair<unsigned long const ,CGuildMarkManager::TGuildSymbol> >
_TEXT	ENDS
; Function compile flags: /Ogtp
; File C:\Program Files\Microsoft Visual Studio\2022\Community\VC\Tools\MSVC\14.34.31933\include\vector
; File C:\Program Files\Microsoft Visual Studio\2022\Community\VC\Tools\MSVC\14.34.31933\include\xmemory
; File C:\Program Files\Microsoft Visual Studio\2022\Community\VC\Tools\MSVC\14.34.31933\include\vector
; File C:\Program Files\Microsoft Visual Studio\2022\Community\VC\Tools\MSVC\14.34.31933\include\xmemory
; File C:\Program Files\Microsoft Visual Studio\2022\Community\VC\Tools\MSVC\14.34.31933\include\vector
; File C:\Program Files\Microsoft Visual Studio\2022\Community\VC\Tools\MSVC\14.34.31933\include\xmemory
;	COMDAT ??1?$pair@$$CBKUTGuildSymbol@CGuildMarkManager@@@std@@QAE@XZ
_TEXT	SEGMENT
??1?$pair@$$CBKUTGuildSymbol@CGuildMarkManager@@@std@@QAE@XZ PROC ; std::pair<unsigned long const ,CGuildMarkManager::TGuildSymbol>::~pair<unsigned long const ,CGuildMarkManager::TGuildSymbol>, COMDAT
; _this$ = ecx
; File C:\Program Files\Microsoft Visual Studio\2022\Community\VC\Tools\MSVC\14.34.31933\include\vector

; 2107 :         if (_Myfirst) { // destroy and deallocate old array

  00000	56		 push	 esi
  00001	8b f1		 mov	 esi, ecx
  00003	8b 46 08	 mov	 eax, DWORD PTR [esi+8]
  00006	85 c0		 test	 eax, eax
  00008	74 3e		 je	 SHORT $LN9@pair

; 2108 :             _Destroy_range(_Myfirst, _Mylast, _Al);
; 2109 :             _ASAN_VECTOR_REMOVE;
; 2110 :             _Al.deallocate(_Myfirst, static_cast<size_type>(_Myend - _Myfirst));

  0000a	8b 4e 10	 mov	 ecx, DWORD PTR [esi+16]
  0000d	2b c8		 sub	 ecx, eax
; File C:\Program Files\Microsoft Visual Studio\2022\Community\VC\Tools\MSVC\14.34.31933\include\xmemory

; 251  :         if (_Bytes >= _Big_allocation_threshold) { // boost the alignment of big allocations to help autovectorization

  0000f	81 f9 00 10 00
	00		 cmp	 ecx, 4096		; 00001000H
  00015	72 12		 jb	 SHORT $LN27@pair

; 150  :     const uintptr_t _Ptr_container   = _Ptr_user[-1];

  00017	8b 50 fc	 mov	 edx, DWORD PTR [eax-4]
  0001a	83 c1 23	 add	 ecx, 35			; 00000023H

; 151  : 
; 152  :     // If the following asserts, it likely means that we are performing
; 153  :     // an aligned delete on memory coming from an unaligned allocation.
; 154  :     _STL_ASSERT(_Ptr_user[-2] == _Big_allocation_sentinel, "invalid argument");
; 155  : 
; 156  :     // Extra paranoia on aligned allocation/deallocation; ensure _Ptr_container is
; 157  :     // in range [_Min_back_shift, _Non_user_size]
; 158  : #ifdef _DEBUG
; 159  :     constexpr uintptr_t _Min_back_shift = 2 * sizeof(void*);
; 160  : #else // ^^^ _DEBUG ^^^ // vvv !_DEBUG vvv
; 161  :     constexpr uintptr_t _Min_back_shift = sizeof(void*);
; 162  : #endif // _DEBUG
; 163  :     const uintptr_t _Back_shift = reinterpret_cast<uintptr_t>(_Ptr) - _Ptr_container;

  0001d	2b c2		 sub	 eax, edx

; 164  :     _STL_VERIFY(_Back_shift >= _Min_back_shift && _Back_shift <= _Non_user_size, "invalid argument");

  0001f	83 c0 fc	 add	 eax, -4			; fffffffcH
  00022	83 f8 1f	 cmp	 eax, 31			; 0000001fH
  00025	77 23		 ja	 SHORT $LN24@pair

; 165  :     _Ptr = reinterpret_cast<void*>(_Ptr_container);

  00027	8b c2		 mov	 eax, edx
$LN27@pair:

; 255  :         ::operator delete(_Ptr, _Bytes);

  00029	51		 push	 ecx
  0002a	50		 push	 eax
  0002b	e8 00 00 00 00	 call	 ??3@YAXPAXI@Z		; operator delete
; File C:\Program Files\Microsoft Visual Studio\2022\Community\VC\Tools\MSVC\14.34.31933\include\vector

; 2112 :             _Myfirst = nullptr;

  00030	c7 46 08 00 00
	00 00		 mov	 DWORD PTR [esi+8], 0
; File C:\Program Files\Microsoft Visual Studio\2022\Community\VC\Tools\MSVC\14.34.31933\include\xmemory

; 255  :         ::operator delete(_Ptr, _Bytes);

  00037	83 c4 08	 add	 esp, 8
; File C:\Program Files\Microsoft Visual Studio\2022\Community\VC\Tools\MSVC\14.34.31933\include\vector

; 2113 :             _Mylast  = nullptr;

  0003a	c7 46 0c 00 00
	00 00		 mov	 DWORD PTR [esi+12], 0

; 2114 :             _Myend   = nullptr;

  00041	c7 46 10 00 00
	00 00		 mov	 DWORD PTR [esi+16], 0
$LN9@pair:
  00048	5e		 pop	 esi
  00049	c3		 ret	 0
$LN24@pair:
; File C:\Program Files\Microsoft Visual Studio\2022\Community\VC\Tools\MSVC\14.34.31933\include\xmemory

; 164  :     _STL_VERIFY(_Back_shift >= _Min_back_shift && _Back_shift <= _Non_user_size, "invalid argument");

  0004a	e8 00 00 00 00	 call	 __invalid_parameter_noinfo_noreturn
$LN34@pair:
  0004f	cc		 int	 3
??1?$pair@$$CBKUTGuildSymbol@CGuildMarkManager@@@std@@QAE@XZ ENDP ; std::pair<unsigned long const ,CGuildMarkManager::TGuildSymbol>::~pair<unsigned long const ,CGuildMarkManager::TGuildSymbol>
_TEXT	ENDS
; Function compile flags: /Ogtp
; File C:\Program Files\Microsoft Visual Studio\2022\Community\VC\Tools\MSVC\14.34.31933\include\utility
;	COMDAT ??$exchange@PAU?$_Tree_node@U?$pair@$$CBKPAVCGuildMarkImage@@@std@@PAX@std@@$$T@std@@YAPAU?$_Tree_node@U?$pair@$$CBKPAVCGuildMarkImage@@@std@@PAX@0@AAPAU10@$$QA$$T@Z
_TEXT	SEGMENT
??$exchange@PAU?$_Tree_node@U?$pair@$$CBKPAVCGuildMarkImage@@@std@@PAX@std@@$$T@std@@YAPAU?$_Tree_node@U?$pair@$$CBKPAVCGuildMarkImage@@@std@@PAX@0@AAPAU10@$$QA$$T@Z PROC ; std::exchange<std::_Tree_node<std::pair<unsigned long const ,CGuildMarkImage *>,void *> *,std::nullptr_t>, COMDAT
; __Val$ = ecx
; __New_val$ = edx

; 652  :     // assign _New_val to _Val, return previous _Val
; 653  :     _Ty _Old_val = static_cast<_Ty&&>(_Val);

  00000	8b 01		 mov	 eax, DWORD PTR [ecx]

; 654  :     _Val         = static_cast<_Other&&>(_New_val);

  00002	8b 12		 mov	 edx, DWORD PTR [edx]
  00004	89 11		 mov	 DWORD PTR [ecx], edx

; 655  :     return _Old_val;
; 656  : }

  00006	c3		 ret	 0
??$exchange@PAU?$_Tree_node@U?$pair@$$CBKPAVCGuildMarkImage@@@std@@PAX@std@@$$T@std@@YAPAU?$_Tree_node@U?$pair@$$CBKPAVCGuildMarkImage@@@std@@PAX@0@AAPAU10@$$QA$$T@Z ENDP ; std::exchange<std::_Tree_node<std::pair<unsigned long const ,CGuildMarkImage *>,void *> *,std::nullptr_t>
_TEXT	ENDS
; Function compile flags: /Ogtp
; File C:\Program Files\Microsoft Visual Studio\2022\Community\VC\Tools\MSVC\14.34.31933\include\tuple
;	COMDAT ??0?$tuple@ABK@std@@QAE@$$QAV01@@Z
_TEXT	SEGMENT
___that$ = 8						; size = 4
??0?$tuple@ABK@std@@QAE@$$QAV01@@Z PROC			; std::tuple<unsigned long const &>::tuple<unsigned long const &>, COMDAT
; _this$ = ecx

; 288  :     tuple(tuple&&)      = default;

  00000	55		 push	 ebp
  00001	8b ec		 mov	 ebp, esp
  00003	8b 45 08	 mov	 eax, DWORD PTR ___that$[ebp]
  00006	8b 00		 mov	 eax, DWORD PTR [eax]
  00008	89 01		 mov	 DWORD PTR [ecx], eax
  0000a	8b c1		 mov	 eax, ecx
  0000c	5d		 pop	 ebp
  0000d	c2 04 00	 ret	 4
??0?$tuple@ABK@std@@QAE@$$QAV01@@Z ENDP			; std::tuple<unsigned long const &>::tuple<unsigned long const &>
_TEXT	ENDS
; Function compile flags: /Ogtp
; File C:\Program Files\Microsoft Visual Studio\2022\Community\VC\Tools\MSVC\14.34.31933\include\vector
; File C:\Program Files\Microsoft Visual Studio\2022\Community\VC\Tools\MSVC\14.34.31933\include\xmemory
; File C:\Program Files\Microsoft Visual Studio\2022\Community\VC\Tools\MSVC\14.34.31933\include\vector
; File C:\Program Files\Microsoft Visual Studio\2022\Community\VC\Tools\MSVC\14.34.31933\include\xmemory
; File C:\Program Files\Microsoft Visual Studio\2022\Community\VC\Tools\MSVC\14.34.31933\include\vector
; File C:\Program Files\Microsoft Visual Studio\2022\Community\VC\Tools\MSVC\14.34.31933\include\xmemory
;	COMDAT ??_G?$pair@$$CBKUTGuildSymbol@CGuildMarkManager@@@std@@QAEPAXI@Z
_TEXT	SEGMENT
___flags$dead$ = 8					; size = 4
??_G?$pair@$$CBKUTGuildSymbol@CGuildMarkManager@@@std@@QAEPAXI@Z PROC ; std::pair<unsigned long const ,CGuildMarkManager::TGuildSymbol>::`scalar deleting destructor', COMDAT
; _this$ = ecx
; File C:\Program Files\Microsoft Visual Studio\2022\Community\VC\Tools\MSVC\14.34.31933\include\vector

; 2107 :         if (_Myfirst) { // destroy and deallocate old array

  00000	56		 push	 esi
  00001	8b f1		 mov	 esi, ecx
  00003	8b 46 08	 mov	 eax, DWORD PTR [esi+8]
  00006	85 c0		 test	 eax, eax
  00008	74 3e		 je	 SHORT $LN13@scalar

; 2108 :             _Destroy_range(_Myfirst, _Mylast, _Al);
; 2109 :             _ASAN_VECTOR_REMOVE;
; 2110 :             _Al.deallocate(_Myfirst, static_cast<size_type>(_Myend - _Myfirst));

  0000a	8b 4e 10	 mov	 ecx, DWORD PTR [esi+16]
  0000d	2b c8		 sub	 ecx, eax
; File C:\Program Files\Microsoft Visual Studio\2022\Community\VC\Tools\MSVC\14.34.31933\include\xmemory

; 251  :         if (_Bytes >= _Big_allocation_threshold) { // boost the alignment of big allocations to help autovectorization

  0000f	81 f9 00 10 00
	00		 cmp	 ecx, 4096		; 00001000H
  00015	72 12		 jb	 SHORT $LN31@scalar

; 150  :     const uintptr_t _Ptr_container   = _Ptr_user[-1];

  00017	8b 50 fc	 mov	 edx, DWORD PTR [eax-4]
  0001a	83 c1 23	 add	 ecx, 35			; 00000023H

; 151  : 
; 152  :     // If the following asserts, it likely means that we are performing
; 153  :     // an aligned delete on memory coming from an unaligned allocation.
; 154  :     _STL_ASSERT(_Ptr_user[-2] == _Big_allocation_sentinel, "invalid argument");
; 155  : 
; 156  :     // Extra paranoia on aligned allocation/deallocation; ensure _Ptr_container is
; 157  :     // in range [_Min_back_shift, _Non_user_size]
; 158  : #ifdef _DEBUG
; 159  :     constexpr uintptr_t _Min_back_shift = 2 * sizeof(void*);
; 160  : #else // ^^^ _DEBUG ^^^ // vvv !_DEBUG vvv
; 161  :     constexpr uintptr_t _Min_back_shift = sizeof(void*);
; 162  : #endif // _DEBUG
; 163  :     const uintptr_t _Back_shift = reinterpret_cast<uintptr_t>(_Ptr) - _Ptr_container;

  0001d	2b c2		 sub	 eax, edx

; 164  :     _STL_VERIFY(_Back_shift >= _Min_back_shift && _Back_shift <= _Non_user_size, "invalid argument");

  0001f	83 c0 fc	 add	 eax, -4			; fffffffcH
  00022	83 f8 1f	 cmp	 eax, 31			; 0000001fH
  00025	77 27		 ja	 SHORT $LN28@scalar

; 165  :     _Ptr = reinterpret_cast<void*>(_Ptr_container);

  00027	8b c2		 mov	 eax, edx
$LN31@scalar:

; 255  :         ::operator delete(_Ptr, _Bytes);

  00029	51		 push	 ecx
  0002a	50		 push	 eax
  0002b	e8 00 00 00 00	 call	 ??3@YAXPAXI@Z		; operator delete
; File C:\Program Files\Microsoft Visual Studio\2022\Community\VC\Tools\MSVC\14.34.31933\include\vector

; 2112 :             _Myfirst = nullptr;

  00030	c7 46 08 00 00
	00 00		 mov	 DWORD PTR [esi+8], 0
; File C:\Program Files\Microsoft Visual Studio\2022\Community\VC\Tools\MSVC\14.34.31933\include\xmemory

; 255  :         ::operator delete(_Ptr, _Bytes);

  00037	83 c4 08	 add	 esp, 8
; File C:\Program Files\Microsoft Visual Studio\2022\Community\VC\Tools\MSVC\14.34.31933\include\vector

; 2113 :             _Mylast  = nullptr;

  0003a	c7 46 0c 00 00
	00 00		 mov	 DWORD PTR [esi+12], 0

; 2114 :             _Myend   = nullptr;

  00041	c7 46 10 00 00
	00 00		 mov	 DWORD PTR [esi+16], 0
$LN13@scalar:
  00048	8b c6		 mov	 eax, esi
  0004a	5e		 pop	 esi
  0004b	c2 04 00	 ret	 4
$LN28@scalar:
; File C:\Program Files\Microsoft Visual Studio\2022\Community\VC\Tools\MSVC\14.34.31933\include\xmemory

; 164  :     _STL_VERIFY(_Back_shift >= _Min_back_shift && _Back_shift <= _Non_user_size, "invalid argument");

  0004e	e8 00 00 00 00	 call	 __invalid_parameter_noinfo_noreturn
$LN39@scalar:
  00053	cc		 int	 3
??_G?$pair@$$CBKUTGuildSymbol@CGuildMarkManager@@@std@@QAEPAXI@Z ENDP ; std::pair<unsigned long const ,CGuildMarkManager::TGuildSymbol>::`scalar deleting destructor'
_TEXT	ENDS
; Function compile flags: /Ogtp
; File C:\Program Files\Microsoft Visual Studio\2022\Community\VC\Tools\MSVC\14.34.31933\include\xtree
; File C:\Program Files\Microsoft Visual Studio\2022\Community\VC\Tools\MSVC\14.34.31933\include\xmemory
; File C:\Program Files\Microsoft Visual Studio\2022\Community\VC\Tools\MSVC\14.34.31933\include\xtree
; File C:\Program Files\Microsoft Visual Studio\2022\Community\VC\Tools\MSVC\14.34.31933\include\xmemory
; File C:\Program Files\Microsoft Visual Studio\2022\Community\VC\Tools\MSVC\14.34.31933\include\xtree
;	COMDAT ??0?$_Tree_temp_node_alloc@V?$allocator@U?$_Tree_node@U?$pair@$$CBKPAVCGuildMarkImage@@@std@@PAX@std@@@std@@@std@@QAE@AAV?$allocator@U?$_Tree_node@U?$pair@$$CBKPAVCGuildMarkImage@@@std@@PAX@std@@@1@@Z
_TEXT	SEGMENT
_this$ = -16						; size = 4
__$EHRec$ = -12						; size = 12
__Al_$ = 8						; size = 4
??0?$_Tree_temp_node_alloc@V?$allocator@U?$_Tree_node@U?$pair@$$CBKPAVCGuildMarkImage@@@std@@PAX@std@@@std@@@std@@QAE@AAV?$allocator@U?$_Tree_node@U?$pair@$$CBKPAVCGuildMarkImage@@@std@@PAX@std@@@1@@Z PROC ; std::_Tree_temp_node_alloc<std::allocator<std::_Tree_node<std::pair<unsigned long const ,CGuildMarkImage *>,void *> > >::_Tree_temp_node_alloc<std::allocator<std::_Tree_node<std::pair<unsigned long const ,CGuildMarkImage *>,void *> > >, COMDAT
; _this$ = ecx

; 785  :     explicit _Tree_temp_node_alloc(_Alnode& _Al_) : _Alloc_construct_ptr<_Alnode>(_Al_) {

  00000	55		 push	 ebp
  00001	8b ec		 mov	 ebp, esp
  00003	6a ff		 push	 -1
  00005	68 00 00 00 00	 push	 __ehhandler$??0?$_Tree_temp_node_alloc@V?$allocator@U?$_Tree_node@U?$pair@$$CBKPAVCGuildMarkImage@@@std@@PAX@std@@@std@@@std@@QAE@AAV?$allocator@U?$_Tree_node@U?$pair@$$CBKPAVCGuildMarkImage@@@std@@PAX@std@@@1@@Z
  0000a	64 a1 00 00 00
	00		 mov	 eax, DWORD PTR fs:0
  00010	50		 push	 eax
  00011	51		 push	 ecx
  00012	56		 push	 esi
  00013	a1 00 00 00 00	 mov	 eax, DWORD PTR ___security_cookie
  00018	33 c5		 xor	 eax, ebp
  0001a	50		 push	 eax
  0001b	8d 45 f4	 lea	 eax, DWORD PTR __$EHRec$[ebp]
  0001e	64 a3 00 00 00
	00		 mov	 DWORD PTR fs:0, eax
  00024	8b f1		 mov	 esi, ecx
  00026	89 75 f0	 mov	 DWORD PTR _this$[ebp], esi
; File C:\Program Files\Microsoft Visual Studio\2022\Community\VC\Tools\MSVC\14.34.31933\include\xmemory

; 1005 :     _CONSTEXPR20 explicit _Alloc_construct_ptr(_Alloc& _Al_) : _Al(_Al_), _Ptr(nullptr) {}

  00029	8b 45 08	 mov	 eax, DWORD PTR __Al_$[ebp]
  0002c	89 06		 mov	 DWORD PTR [esi], eax
  0002e	c7 46 04 00 00
	00 00		 mov	 DWORD PTR [esi+4], 0
; File C:\Program Files\Microsoft Visual Studio\2022\Community\VC\Tools\MSVC\14.34.31933\include\xtree

; 785  :     explicit _Tree_temp_node_alloc(_Alnode& _Al_) : _Alloc_construct_ptr<_Alnode>(_Al_) {

  00035	c7 45 fc 00 00
	00 00		 mov	 DWORD PTR __$EHRec$[ebp+8], 0
; File C:\Program Files\Microsoft Visual Studio\2022\Community\VC\Tools\MSVC\14.34.31933\include\xmemory

; 77   :         return ::operator new(_Bytes);

  0003c	6a 18		 push	 24			; 00000018H

; 1012 :         _Ptr = nullptr; // if allocate throws, prevents double-free

  0003e	c7 46 04 00 00
	00 00		 mov	 DWORD PTR [esi+4], 0

; 77   :         return ::operator new(_Bytes);

  00045	e8 00 00 00 00	 call	 ??2@YAPAXI@Z		; operator new

; 1013 :         _Ptr = _Al.allocate(1);

  0004a	89 46 04	 mov	 DWORD PTR [esi+4], eax

; 77   :         return ::operator new(_Bytes);

  0004d	83 c4 04	 add	 esp, 4
; File C:\Program Files\Microsoft Visual Studio\2022\Community\VC\Tools\MSVC\14.34.31933\include\xtree

; 787  :     }

  00050	8b c6		 mov	 eax, esi
  00052	8b 4d f4	 mov	 ecx, DWORD PTR __$EHRec$[ebp]
  00055	64 89 0d 00 00
	00 00		 mov	 DWORD PTR fs:0, ecx
  0005c	59		 pop	 ecx
  0005d	5e		 pop	 esi
  0005e	8b e5		 mov	 esp, ebp
  00060	5d		 pop	 ebp
  00061	c2 04 00	 ret	 4
_TEXT	ENDS
;	COMDAT text$x
text$x	SEGMENT
__unwindfunclet$??0?$_Tree_temp_node_alloc@V?$allocator@U?$_Tree_node@U?$pair@$$CBKPAVCGuildMarkImage@@@std@@PAX@std@@@std@@@std@@QAE@AAV?$allocator@U?$_Tree_node@U?$pair@$$CBKPAVCGuildMarkImage@@@std@@PAX@std@@@1@@Z$0:
  00000	8b 4d f0	 mov	 ecx, DWORD PTR _this$[ebp]
  00003	e9 00 00 00 00	 jmp	 ??1?$_Alloc_construct_ptr@V?$allocator@U?$_Tree_node@U?$pair@$$CBKPAVCGuildMarkImage@@@std@@PAX@std@@@std@@@std@@QAE@XZ ; std::_Alloc_construct_ptr<std::allocator<std::_Tree_node<std::pair<unsigned long const ,CGuildMarkImage *>,void *> > >::~_Alloc_construct_ptr<std::allocator<std::_Tree_node<std::pair<unsigned long const ,CGuildMarkImage *>,void *> > >
  00008	cc		 int	 3
  00009	cc		 int	 3
  0000a	cc		 int	 3
  0000b	cc		 int	 3
  0000c	cc		 int	 3
__ehhandler$??0?$_Tree_temp_node_alloc@V?$allocator@U?$_Tree_node@U?$pair@$$CBKPAVCGuildMarkImage@@@std@@PAX@std@@@std@@@std@@QAE@AAV?$allocator@U?$_Tree_node@U?$pair@$$CBKPAVCGuildMarkImage@@@std@@PAX@std@@@1@@Z:
  0000d	90		 npad	 1
  0000e	90		 npad	 1
  0000f	8b 54 24 08	 mov	 edx, DWORD PTR [esp+8]
  00013	8d 42 0c	 lea	 eax, DWORD PTR [edx+12]
  00016	8b 4a f4	 mov	 ecx, DWORD PTR [edx-12]
  00019	33 c8		 xor	 ecx, eax
  0001b	e8 00 00 00 00	 call	 @__security_check_cookie@4
  00020	b8 00 00 00 00	 mov	 eax, OFFSET __ehfuncinfo$??0?$_Tree_temp_node_alloc@V?$allocator@U?$_Tree_node@U?$pair@$$CBKPAVCGuildMarkImage@@@std@@PAX@std@@@std@@@std@@QAE@AAV?$allocator@U?$_Tree_node@U?$pair@$$CBKPAVCGuildMarkImage@@@std@@PAX@std@@@1@@Z
  00025	e9 00 00 00 00	 jmp	 ___CxxFrameHandler3
text$x	ENDS
??0?$_Tree_temp_node_alloc@V?$allocator@U?$_Tree_node@U?$pair@$$CBKPAVCGuildMarkImage@@@std@@PAX@std@@@std@@@std@@QAE@AAV?$allocator@U?$_Tree_node@U?$pair@$$CBKPAVCGuildMarkImage@@@std@@PAX@std@@@1@@Z ENDP ; std::_Tree_temp_node_alloc<std::allocator<std::_Tree_node<std::pair<unsigned long const ,CGuildMarkImage *>,void *> > >::_Tree_temp_node_alloc<std::allocator<std::_Tree_node<std::pair<unsigned long const ,CGuildMarkImage *>,void *> > >
; Function compile flags: /Ogtp
; File C:\Program Files\Microsoft Visual Studio\2022\Community\VC\Tools\MSVC\14.34.31933\include\xmemory
;	COMDAT ?_Allocate@?$_Alloc_construct_ptr@V?$allocator@U?$_Tree_node@U?$pair@$$CBKPAVCGuildMarkImage@@@std@@PAX@std@@@std@@@std@@QAEXXZ
_TEXT	SEGMENT
?_Allocate@?$_Alloc_construct_ptr@V?$allocator@U?$_Tree_node@U?$pair@$$CBKPAVCGuildMarkImage@@@std@@PAX@std@@@std@@@std@@QAEXXZ PROC ; std::_Alloc_construct_ptr<std::allocator<std::_Tree_node<std::pair<unsigned long const ,CGuildMarkImage *>,void *> > >::_Allocate, COMDAT
; _this$ = ecx

; 1011 :     _CONSTEXPR20 void _Allocate() { // disengage *this, then allocate a new memory block

  00000	56		 push	 esi
  00001	8b f1		 mov	 esi, ecx

; 77   :         return ::operator new(_Bytes);

  00003	6a 18		 push	 24			; 00000018H

; 1012 :         _Ptr = nullptr; // if allocate throws, prevents double-free

  00005	c7 46 04 00 00
	00 00		 mov	 DWORD PTR [esi+4], 0

; 77   :         return ::operator new(_Bytes);

  0000c	e8 00 00 00 00	 call	 ??2@YAPAXI@Z		; operator new
  00011	83 c4 04	 add	 esp, 4

; 1013 :         _Ptr = _Al.allocate(1);

  00014	89 46 04	 mov	 DWORD PTR [esi+4], eax
  00017	5e		 pop	 esi

; 1014 :     }

  00018	c3		 ret	 0
?_Allocate@?$_Alloc_construct_ptr@V?$allocator@U?$_Tree_node@U?$pair@$$CBKPAVCGuildMarkImage@@@std@@PAX@std@@@std@@@std@@QAEXXZ ENDP ; std::_Alloc_construct_ptr<std::allocator<std::_Tree_node<std::pair<unsigned long const ,CGuildMarkImage *>,void *> > >::_Allocate
_TEXT	ENDS
; Function compile flags: /Ogtp
; File C:\Program Files\Microsoft Visual Studio\2022\Community\VC\Tools\MSVC\14.34.31933\include\xmemory
;	COMDAT ??0?$_Alloc_construct_ptr@V?$allocator@U?$_Tree_node@U?$pair@$$CBKPAVCGuildMarkImage@@@std@@PAX@std@@@std@@@std@@QAE@AAV?$allocator@U?$_Tree_node@U?$pair@$$CBKPAVCGuildMarkImage@@@std@@PAX@std@@@1@@Z
_TEXT	SEGMENT
__Al_$ = 8						; size = 4
??0?$_Alloc_construct_ptr@V?$allocator@U?$_Tree_node@U?$pair@$$CBKPAVCGuildMarkImage@@@std@@PAX@std@@@std@@@std@@QAE@AAV?$allocator@U?$_Tree_node@U?$pair@$$CBKPAVCGuildMarkImage@@@std@@PAX@std@@@1@@Z PROC ; std::_Alloc_construct_ptr<std::allocator<std::_Tree_node<std::pair<unsigned long const ,CGuildMarkImage *>,void *> > >::_Alloc_construct_ptr<std::allocator<std::_Tree_node<std::pair<unsigned long const ,CGuildMarkImage *>,void *> > >, COMDAT
; _this$ = ecx

; 1005 :     _CONSTEXPR20 explicit _Alloc_construct_ptr(_Alloc& _Al_) : _Al(_Al_), _Ptr(nullptr) {}

  00000	55		 push	 ebp
  00001	8b ec		 mov	 ebp, esp
  00003	8b 45 08	 mov	 eax, DWORD PTR __Al_$[ebp]
  00006	89 01		 mov	 DWORD PTR [ecx], eax
  00008	8b c1		 mov	 eax, ecx
  0000a	c7 41 04 00 00
	00 00		 mov	 DWORD PTR [ecx+4], 0
  00011	5d		 pop	 ebp
  00012	c2 04 00	 ret	 4
??0?$_Alloc_construct_ptr@V?$allocator@U?$_Tree_node@U?$pair@$$CBKPAVCGuildMarkImage@@@std@@PAX@std@@@std@@@std@@QAE@AAV?$allocator@U?$_Tree_node@U?$pair@$$CBKPAVCGuildMarkImage@@@std@@PAX@std@@@1@@Z ENDP ; std::_Alloc_construct_ptr<std::allocator<std::_Tree_node<std::pair<unsigned long const ,CGuildMarkImage *>,void *> > >::_Alloc_construct_ptr<std::allocator<std::_Tree_node<std::pair<unsigned long const ,CGuildMarkImage *>,void *> > >
_TEXT	ENDS
; Function compile flags: /Ogtp
; File C:\Program Files\Microsoft Visual Studio\2022\Community\VC\Tools\MSVC\14.34.31933\include\xmemory
;	COMDAT ??$construct@U?$pair@$$CBKPAVCGuildMarkImage@@@std@@U12@@?$_Default_allocator_traits@V?$allocator@U?$_Tree_node@U?$pair@$$CBKPAVCGuildMarkImage@@@std@@PAX@std@@@std@@@std@@SAXAAV?$allocator@U?$_Tree_node@U?$pair@$$CBKPAVCGuildMarkImage@@@std@@PAX@std@@@1@QAU?$pair@$$CBKPAVCGuildMarkImage@@@1@$$QAU31@@Z
_TEXT	SEGMENT
_<_Args_0>$ = 8						; size = 4
??$construct@U?$pair@$$CBKPAVCGuildMarkImage@@@std@@U12@@?$_Default_allocator_traits@V?$allocator@U?$_Tree_node@U?$pair@$$CBKPAVCGuildMarkImage@@@std@@PAX@std@@@std@@@std@@SAXAAV?$allocator@U?$_Tree_node@U?$pair@$$CBKPAVCGuildMarkImage@@@std@@PAX@std@@@1@QAU?$pair@$$CBKPAVCGuildMarkImage@@@1@$$QAU31@@Z PROC ; std::_Default_allocator_traits<std::allocator<std::_Tree_node<std::pair<unsigned long const ,CGuildMarkImage *>,void *> > >::construct<std::pair<unsigned long const ,CGuildMarkImage *>,std::pair<unsigned long const ,CGuildMarkImage *> >, COMDAT
; ___formal$dead$ = ecx
; __Ptr$ = edx

; 673  :     static _CONSTEXPR20 void construct(_Alloc&, _Objty* const _Ptr, _Types&&... _Args) {

  00000	55		 push	 ebp
  00001	8b ec		 mov	 ebp, esp

; 674  : #if _HAS_CXX20
; 675  :         if (_STD is_constant_evaluated()) {
; 676  :             _STD construct_at(_Ptr, _STD forward<_Types>(_Args)...);
; 677  :         } else
; 678  : #endif // _HAS_CXX20
; 679  :         {
; 680  :             ::new (_Voidify_iter(_Ptr)) _Objty(_STD forward<_Types>(_Args)...);
; 681  :         }
; 682  :     }

  00003	8b 45 08	 mov	 eax, DWORD PTR _<_Args_0>$[ebp]
  00006	8b 08		 mov	 ecx, DWORD PTR [eax]
  00008	8b 40 04	 mov	 eax, DWORD PTR [eax+4]
  0000b	89 0a		 mov	 DWORD PTR [edx], ecx
  0000d	89 42 04	 mov	 DWORD PTR [edx+4], eax
  00010	5d		 pop	 ebp
  00011	c3		 ret	 0
??$construct@U?$pair@$$CBKPAVCGuildMarkImage@@@std@@U12@@?$_Default_allocator_traits@V?$allocator@U?$_Tree_node@U?$pair@$$CBKPAVCGuildMarkImage@@@std@@PAX@std@@@std@@@std@@SAXAAV?$allocator@U?$_Tree_node@U?$pair@$$CBKPAVCGuildMarkImage@@@std@@PAX@std@@@1@QAU?$pair@$$CBKPAVCGuildMarkImage@@@1@$$QAU31@@Z ENDP ; std::_Default_allocator_traits<std::allocator<std::_Tree_node<std::pair<unsigned long const ,CGuildMarkImage *>,void *> > >::construct<std::pair<unsigned long const ,CGuildMarkImage *>,std::pair<unsigned long const ,CGuildMarkImage *> >
_TEXT	ENDS
; Function compile flags: /Ogtp
; File C:\Program Files\Microsoft Visual Studio\2022\Community\VC\Tools\MSVC\14.34.31933\include\xutility
;	COMDAT ??$_Construct_in_place@PAU?$_Tree_node@U?$pair@$$CBKPAVCGuildMarkImage@@@std@@PAX@std@@AAPAU12@@std@@YAXAAPAU?$_Tree_node@U?$pair@$$CBKPAVCGuildMarkImage@@@std@@PAX@0@0@Z
_TEXT	SEGMENT
??$_Construct_in_place@PAU?$_Tree_node@U?$pair@$$CBKPAVCGuildMarkImage@@@std@@PAX@std@@AAPAU12@@std@@YAXAAPAU?$_Tree_node@U?$pair@$$CBKPAVCGuildMarkImage@@@std@@PAX@0@0@Z PROC ; std::_Construct_in_place<std::_Tree_node<std::pair<unsigned long const ,CGuildMarkImage *>,void *> *,std::_Tree_node<std::pair<unsigned long const ,CGuildMarkImage *>,void *> * &>, COMDAT
; __Obj$ = ecx
; _<_Args_0>$ = edx

; 225  : #if _HAS_CXX20
; 226  :     if (_STD is_constant_evaluated()) {
; 227  :         _STD construct_at(_STD addressof(_Obj), _STD forward<_Types>(_Args)...);
; 228  :     } else
; 229  : #endif // _HAS_CXX20
; 230  :     {
; 231  :         ::new (_Voidify_iter(_STD addressof(_Obj))) _Ty(_STD forward<_Types>(_Args)...);
; 232  :     }
; 233  : }

  00000	8b 02		 mov	 eax, DWORD PTR [edx]
  00002	89 01		 mov	 DWORD PTR [ecx], eax
  00004	c3		 ret	 0
??$_Construct_in_place@PAU?$_Tree_node@U?$pair@$$CBKPAVCGuildMarkImage@@@std@@PAX@std@@AAPAU12@@std@@YAXAAPAU?$_Tree_node@U?$pair@$$CBKPAVCGuildMarkImage@@@std@@PAX@0@0@Z ENDP ; std::_Construct_in_place<std::_Tree_node<std::pair<unsigned long const ,CGuildMarkImage *>,void *> *,std::_Tree_node<std::pair<unsigned long const ,CGuildMarkImage *>,void *> * &>
_TEXT	ENDS
; Function compile flags: /Ogtp
; File C:\Program Files\Microsoft Visual Studio\2022\Community\VC\Tools\MSVC\14.34.31933\include\type_traits
;	COMDAT ??$forward@AAPAU?$_Tree_node@U?$pair@$$CBKPAVCGuildMarkImage@@@std@@PAX@std@@@std@@YAAAPAU?$_Tree_node@U?$pair@$$CBKPAVCGuildMarkImage@@@std@@PAX@0@AAPAU10@@Z
_TEXT	SEGMENT
??$forward@AAPAU?$_Tree_node@U?$pair@$$CBKPAVCGuildMarkImage@@@std@@PAX@std@@@std@@YAAAPAU?$_Tree_node@U?$pair@$$CBKPAVCGuildMarkImage@@@std@@PAX@0@AAPAU10@@Z PROC ; std::forward<std::_Tree_node<std::pair<unsigned long const ,CGuildMarkImage *>,void *> * &>, COMDAT
; __Arg$ = ecx

; 1426 :     return static_cast<_Ty&&>(_Arg);

  00000	8b c1		 mov	 eax, ecx

; 1427 : }

  00002	c3		 ret	 0
??$forward@AAPAU?$_Tree_node@U?$pair@$$CBKPAVCGuildMarkImage@@@std@@PAX@std@@@std@@YAAAPAU?$_Tree_node@U?$pair@$$CBKPAVCGuildMarkImage@@@std@@PAX@0@AAPAU10@@Z ENDP ; std::forward<std::_Tree_node<std::pair<unsigned long const ,CGuildMarkImage *>,void *> * &>
_TEXT	ENDS
; Function compile flags: /Ogtp
; File C:\Program Files\Microsoft Visual Studio\2022\Community\VC\Tools\MSVC\14.34.31933\include\type_traits
;	COMDAT ??$forward@PAU?$_Tree_node@U?$pair@$$CBKPAVCGuildMarkImage@@@std@@PAX@std@@@std@@YA$$QAPAU?$_Tree_node@U?$pair@$$CBKPAVCGuildMarkImage@@@std@@PAX@0@AAPAU10@@Z
_TEXT	SEGMENT
??$forward@PAU?$_Tree_node@U?$pair@$$CBKPAVCGuildMarkImage@@@std@@PAX@std@@@std@@YA$$QAPAU?$_Tree_node@U?$pair@$$CBKPAVCGuildMarkImage@@@std@@PAX@0@AAPAU10@@Z PROC ; std::forward<std::_Tree_node<std::pair<unsigned long const ,CGuildMarkImage *>,void *> *>, COMDAT
; __Arg$ = ecx

; 1426 :     return static_cast<_Ty&&>(_Arg);

  00000	8b c1		 mov	 eax, ecx

; 1427 : }

  00002	c3		 ret	 0
??$forward@PAU?$_Tree_node@U?$pair@$$CBKPAVCGuildMarkImage@@@std@@PAX@std@@@std@@YA$$QAPAU?$_Tree_node@U?$pair@$$CBKPAVCGuildMarkImage@@@std@@PAX@0@AAPAU10@@Z ENDP ; std::forward<std::_Tree_node<std::pair<unsigned long const ,CGuildMarkImage *>,void *> *>
_TEXT	ENDS
; Function compile flags: /Ogtp
; File C:\Program Files\Microsoft Visual Studio\2022\Community\VC\Tools\MSVC\14.34.31933\include\tuple
;	COMDAT ??$?0U_Exact_args_t@std@@ABK$$V$0A@@?$tuple@ABK@std@@QAE@U_Exact_args_t@1@ABK@Z
_TEXT	SEGMENT
___formal$ = 8						; size = 1
__This_arg$ = 12					; size = 4
??$?0U_Exact_args_t@std@@ABK$$V$0A@@?$tuple@ABK@std@@QAE@U_Exact_args_t@1@ABK@Z PROC ; std::tuple<unsigned long const &>::tuple<unsigned long const &><std::_Exact_args_t,unsigned long const &,0>, COMDAT
; _this$ = ecx

; 239  :         : _Mybase(_Exact_args_t{}, _STD forward<_Rest2>(_Rest_arg)...), _Myfirst(_STD forward<_This2>(_This_arg)) {}

  00000	55		 push	 ebp
  00001	8b ec		 mov	 ebp, esp

; 144  :     constexpr _Tuple_val(_Other&& _Arg) : _Val(_STD forward<_Other>(_Arg)) {}

  00003	8b 45 0c	 mov	 eax, DWORD PTR __This_arg$[ebp]
  00006	89 01		 mov	 DWORD PTR [ecx], eax

; 239  :         : _Mybase(_Exact_args_t{}, _STD forward<_Rest2>(_Rest_arg)...), _Myfirst(_STD forward<_This2>(_This_arg)) {}

  00008	8b c1		 mov	 eax, ecx
  0000a	5d		 pop	 ebp
  0000b	c2 08 00	 ret	 8
??$?0U_Exact_args_t@std@@ABK$$V$0A@@?$tuple@ABK@std@@QAE@U_Exact_args_t@1@ABK@Z ENDP ; std::tuple<unsigned long const &>::tuple<unsigned long const &><std::_Exact_args_t,unsigned long const &,0>
_TEXT	ENDS
; Function compile flags: /Ogtp
; File C:\Program Files\Microsoft Visual Studio\2022\Community\VC\Tools\MSVC\14.34.31933\include\xmemory
;	COMDAT ??$destroy_at@U?$pair@$$CBKPAVCGuildMarkImage@@@std@@@std@@YAXQAU?$pair@$$CBKPAVCGuildMarkImage@@@0@@Z
_TEXT	SEGMENT
??$destroy_at@U?$pair@$$CBKPAVCGuildMarkImage@@@std@@@std@@YAXQAU?$pair@$$CBKPAVCGuildMarkImage@@@0@@Z PROC ; std::destroy_at<std::pair<unsigned long const ,CGuildMarkImage *> >, COMDAT
; __Location$dead$ = ecx

; 305  : #if _HAS_CXX20
; 306  :     if constexpr (is_array_v<_Ty>) {
; 307  :         _Destroy_range(_STD begin(*_Location), _STD end(*_Location));
; 308  :     } else
; 309  : #endif // _HAS_CXX20
; 310  :     {
; 311  :         _Location->~_Ty();
; 312  :     }
; 313  : }

  00000	c2 00 00	 ret	 0
??$destroy_at@U?$pair@$$CBKPAVCGuildMarkImage@@@std@@@std@@YAXQAU?$pair@$$CBKPAVCGuildMarkImage@@@0@@Z ENDP ; std::destroy_at<std::pair<unsigned long const ,CGuildMarkImage *> >
_TEXT	ENDS
; Function compile flags: /Ogtp
; File C:\Program Files\Microsoft Visual Studio\2022\Community\VC\Tools\MSVC\14.34.31933\include\xmemory
;	COMDAT ??$construct@E$$V@?$_Default_allocator_traits@V?$allocator@E@std@@@std@@SAXAAV?$allocator@E@1@QAE@Z
_TEXT	SEGMENT
??$construct@E$$V@?$_Default_allocator_traits@V?$allocator@E@std@@@std@@SAXAAV?$allocator@E@1@QAE@Z PROC ; std::_Default_allocator_traits<std::allocator<unsigned char> >::construct<unsigned char>, COMDAT
; ___formal$dead$ = ecx
; __Ptr$ = edx

; 674  : #if _HAS_CXX20
; 675  :         if (_STD is_constant_evaluated()) {
; 676  :             _STD construct_at(_Ptr, _STD forward<_Types>(_Args)...);
; 677  :         } else
; 678  : #endif // _HAS_CXX20
; 679  :         {
; 680  :             ::new (_Voidify_iter(_Ptr)) _Objty(_STD forward<_Types>(_Args)...);

  00000	c6 02 00	 mov	 BYTE PTR [edx], 0

; 681  :         }
; 682  :     }

  00003	c3		 ret	 0
??$construct@E$$V@?$_Default_allocator_traits@V?$allocator@E@std@@@std@@SAXAAV?$allocator@E@1@QAE@Z ENDP ; std::_Default_allocator_traits<std::allocator<unsigned char> >::construct<unsigned char>
_TEXT	ENDS
; Function compile flags: /Ogtp
; File C:\Program Files\Microsoft Visual Studio\2022\Community\VC\Tools\MSVC\14.34.31933\include\xutility
;	COMDAT ??$construct_at@EE$0A@@std@@YAPAEQAE$$QAE@Z
_TEXT	SEGMENT
??$construct_at@EE$0A@@std@@YAPAEQAE$$QAE@Z PROC	; std::construct_at<unsigned char,unsigned char,0>, COMDAT
; __Location$ = ecx
; _<_Args_0>$ = edx

; 218  :     _MSVC_CONSTEXPR return ::new (_Voidify_iter(_Location)) _Ty(_STD forward<_Types>(_Args)...);

  00000	8a 02		 mov	 al, BYTE PTR [edx]
  00002	88 01		 mov	 BYTE PTR [ecx], al
  00004	8b c1		 mov	 eax, ecx

; 219  : }

  00006	c3		 ret	 0
??$construct_at@EE$0A@@std@@YAPAEQAE$$QAE@Z ENDP	; std::construct_at<unsigned char,unsigned char,0>
_TEXT	ENDS
; Function compile flags: /Ogtp
; File C:\Program Files\Microsoft Visual Studio\2022\Community\VC\Tools\MSVC\14.34.31933\include\xutility
;	COMDAT ??$_Voidify_iter@PAE@std@@YAPAXPAE@Z
_TEXT	SEGMENT
??$_Voidify_iter@PAE@std@@YAPAXPAE@Z PROC		; std::_Voidify_iter<unsigned char *>, COMDAT
; __It$ = ecx

; 201  :     if constexpr (is_pointer_v<_Iter>) {
; 202  :         return const_cast<void*>(static_cast<const volatile void*>(_It));

  00000	8b c1		 mov	 eax, ecx

; 203  :     } else {
; 204  :         return const_cast<void*>(static_cast<const volatile void*>(_STD addressof(*_It)));
; 205  :     }
; 206  : }

  00002	c3		 ret	 0
??$_Voidify_iter@PAE@std@@YAPAXPAE@Z ENDP		; std::_Voidify_iter<unsigned char *>
_TEXT	ENDS
; Function compile flags: /Ogtp
; File C:\Program Files\Microsoft Visual Studio\2022\Community\VC\Tools\MSVC\14.34.31933\include\type_traits
;	COMDAT ??$forward@ABE@std@@YAABEABE@Z
_TEXT	SEGMENT
??$forward@ABE@std@@YAABEABE@Z PROC			; std::forward<unsigned char const &>, COMDAT
; __Arg$ = ecx

; 1426 :     return static_cast<_Ty&&>(_Arg);

  00000	8b c1		 mov	 eax, ecx

; 1427 : }

  00002	c3		 ret	 0
??$forward@ABE@std@@YAABEABE@Z ENDP			; std::forward<unsigned char const &>
_TEXT	ENDS
; Function compile flags: /Ogtp
; File C:\Program Files\Microsoft Visual Studio\2022\Community\VC\Tools\MSVC\14.34.31933\include\vector
; File C:\Program Files\Microsoft Visual Studio\2022\Community\VC\Tools\MSVC\14.34.31933\include\xmemory
; File C:\Program Files\Microsoft Visual Studio\2022\Community\VC\Tools\MSVC\14.34.31933\include\vector
; File C:\Program Files\Microsoft Visual Studio\2022\Community\VC\Tools\MSVC\14.34.31933\include\xmemory
; File C:\Program Files\Microsoft Visual Studio\2022\Community\VC\Tools\MSVC\14.34.31933\include\vector
; File C:\Program Files\Microsoft Visual Studio\2022\Community\VC\Tools\MSVC\14.34.31933\include\xmemory
; File C:\Program Files\Microsoft Visual Studio\2022\Community\VC\Tools\MSVC\14.34.31933\include\vector
; File C:\Program Files\Microsoft Visual Studio\2022\Community\VC\Tools\MSVC\14.34.31933\include\xmemory
; File C:\Program Files\Microsoft Visual Studio\2022\Community\VC\Tools\MSVC\14.34.31933\include\vector
; File C:\Program Files\Microsoft Visual Studio\2022\Community\VC\Tools\MSVC\14.34.31933\include\xmemory
; File C:\Program Files\Microsoft Visual Studio\2022\Community\VC\Tools\MSVC\14.34.31933\include\vector
; File C:\Program Files\Microsoft Visual Studio\2022\Community\VC\Tools\MSVC\14.34.31933\include\xmemory
; File C:\Program Files\Microsoft Visual Studio\2022\Community\VC\Tools\MSVC\14.34.31933\include\vector
;	COMDAT ??$_Emplace_reallocate@ABE@?$vector@EV?$allocator@E@std@@@std@@AAEPAEQAEABE@Z
_TEXT	SEGMENT
__Newsize$1$ = -8					; size = 4
__Whereoff$1$ = -4					; size = 4
__Whereptr$ = 8						; size = 4
_<_Val_0>$ = 12						; size = 4
??$_Emplace_reallocate@ABE@?$vector@EV?$allocator@E@std@@@std@@AAEPAEQAEABE@Z PROC ; std::vector<unsigned char,std::allocator<unsigned char> >::_Emplace_reallocate<unsigned char const &>, COMDAT
; _this$ = ecx

; 875  :     _CONSTEXPR20 pointer _Emplace_reallocate(const pointer _Whereptr, _Valty&&... _Val) {

  00000	55		 push	 ebp
  00001	8b ec		 mov	 ebp, esp
  00003	83 ec 08	 sub	 esp, 8

; 876  :         // reallocate and insert by perfectly forwarding _Val at _Whereptr
; 877  :         _Alty& _Al        = _Getal();
; 878  :         auto& _My_data    = _Mypair._Myval2;
; 879  :         pointer& _Myfirst = _My_data._Myfirst;
; 880  :         pointer& _Mylast  = _My_data._Mylast;
; 881  : 
; 882  :         _STL_INTERNAL_CHECK(_Mylast == _My_data._Myend); // check that we have no unused capacity
; 883  : 
; 884  :         const auto _Whereoff = static_cast<size_type>(_Whereptr - _Myfirst);

  00006	8b 45 08	 mov	 eax, DWORD PTR __Whereptr$[ebp]
  00009	53		 push	 ebx
  0000a	8b d9		 mov	 ebx, ecx
  0000c	56		 push	 esi
  0000d	57		 push	 edi
  0000e	8b 0b		 mov	 ecx, DWORD PTR [ebx]
  00010	2b c1		 sub	 eax, ecx
  00012	89 45 fc	 mov	 DWORD PTR __Whereoff$1$[ebp], eax

; 885  :         const auto _Oldsize  = static_cast<size_type>(_Mylast - _Myfirst);

  00015	8b 43 04	 mov	 eax, DWORD PTR [ebx+4]
  00018	2b c1		 sub	 eax, ecx

; 886  : 
; 887  :         if (_Oldsize == max_size()) {

  0001a	3d ff ff ff 7f	 cmp	 eax, 2147483647		; 7fffffffH
  0001f	0f 84 b5 00 00
	00		 je	 $LN77@Emplace_re

; 1942 :         return static_cast<size_type>(_My_data._Myend - _My_data._Myfirst);

  00025	8b 53 08	 mov	 edx, DWORD PTR [ebx+8]

; 889  :         }
; 890  : 
; 891  :         const size_type _Newsize     = _Oldsize + 1;

  00028	8d 78 01	 lea	 edi, DWORD PTR [eax+1]

; 1942 :         return static_cast<size_type>(_My_data._Myend - _My_data._Myfirst);

  0002b	2b d1		 sub	 edx, ecx

; 889  :         }
; 890  : 
; 891  :         const size_type _Newsize     = _Oldsize + 1;

  0002d	89 7d f8	 mov	 DWORD PTR __Newsize$1$[ebp], edi

; 2029 :         if (_Oldcapacity > _Max - _Oldcapacity / 2) {

  00030	8b ca		 mov	 ecx, edx
  00032	b8 ff ff ff 7f	 mov	 eax, 2147483647		; 7fffffffH
  00037	d1 e9		 shr	 ecx, 1
  00039	2b c1		 sub	 eax, ecx
  0003b	3b d0		 cmp	 edx, eax
  0003d	76 12		 jbe	 SHORT $LN12@Emplace_re

; 2030 :             return _Max; // geometric growth would overflow

  0003f	be ff ff ff 7f	 mov	 esi, 2147483647		; 7fffffffH
; File C:\Program Files\Microsoft Visual Studio\2022\Community\VC\Tools\MSVC\14.34.31933\include\xmemory

; 229  :             return _Allocate_manually_vector_aligned<_Traits>(_Bytes);

  00044	56		 push	 esi
  00045	e8 00 00 00 00	 call	 ??$_Allocate_manually_vector_aligned@U_Default_allocate_traits@std@@@std@@YAPAXI@Z ; std::_Allocate_manually_vector_aligned<std::_Default_allocate_traits>
  0004a	83 c4 04	 add	 esp, 4
  0004d	8b f8		 mov	 edi, eax
  0004f	eb 32		 jmp	 SHORT $LN19@Emplace_re
$LN12@Emplace_re:
; File C:\Program Files\Microsoft Visual Studio\2022\Community\VC\Tools\MSVC\14.34.31933\include\vector

; 2033 :         const size_type _Geometric = _Oldcapacity + _Oldcapacity / 2;

  00051	8d 04 11	 lea	 eax, DWORD PTR [ecx+edx]
; File C:\Program Files\Microsoft Visual Studio\2022\Community\VC\Tools\MSVC\14.34.31933\include\xmemory

; 228  :         if (_Bytes >= _Big_allocation_threshold) { // boost the alignment of big allocations to help autovectorization

  00054	8b f7		 mov	 esi, edi
  00056	3b c7		 cmp	 eax, edi
  00058	0f 43 f0	 cmovae	 esi, eax
  0005b	81 fe 00 10 00
	00		 cmp	 esi, 4096		; 00001000H
  00061	72 0d		 jb	 SHORT $LN21@Emplace_re

; 229  :             return _Allocate_manually_vector_aligned<_Traits>(_Bytes);

  00063	56		 push	 esi
  00064	e8 00 00 00 00	 call	 ??$_Allocate_manually_vector_aligned@U_Default_allocate_traits@std@@@std@@YAPAXI@Z ; std::_Allocate_manually_vector_aligned<std::_Default_allocate_traits>
  00069	83 c4 04	 add	 esp, 4
  0006c	8b f8		 mov	 edi, eax
  0006e	eb 13		 jmp	 SHORT $LN19@Emplace_re
$LN21@Emplace_re:

; 230  :         }
; 231  :     }
; 232  : #endif // defined(_M_IX86) || defined(_M_X64)
; 233  : 
; 234  :     if (_Bytes != 0) {

  00070	85 f6		 test	 esi, esi
  00072	74 0d		 je	 SHORT $LN22@Emplace_re

; 77   :         return ::operator new(_Bytes);

  00074	56		 push	 esi
  00075	e8 00 00 00 00	 call	 ??2@YAPAXI@Z		; operator new
  0007a	83 c4 04	 add	 esp, 4

; 235  :         return _Traits::_Allocate(_Bytes);

  0007d	8b f8		 mov	 edi, eax
  0007f	eb 02		 jmp	 SHORT $LN19@Emplace_re
$LN22@Emplace_re:

; 236  :     }
; 237  : 
; 238  :     return nullptr;

  00081	33 ff		 xor	 edi, edi
$LN19@Emplace_re:
; File C:\Program Files\Microsoft Visual Studio\2022\Community\VC\Tools\MSVC\14.34.31933\include\vector

; 899  :         _Alty_traits::construct(_Al, _Unfancy(_Newvec + _Whereoff), _STD forward<_Valty>(_Val)...);

  00083	8b 45 0c	 mov	 eax, DWORD PTR _<_Val_0>$[ebp]
  00086	8b 4d fc	 mov	 ecx, DWORD PTR __Whereoff$1$[ebp]
  00089	8a 00		 mov	 al, BYTE PTR [eax]
  0008b	88 04 39	 mov	 BYTE PTR [ecx+edi], al

; 900  :         _Constructed_first = _Newvec + _Whereoff;
; 901  : 
; 902  :         if (_Whereptr == _Mylast) { // at back, provide strong guarantee

  0008e	8b 43 04	 mov	 eax, DWORD PTR [ebx+4]
  00091	8b 4d 08	 mov	 ecx, DWORD PTR __Whereptr$[ebp]
  00094	8b 13		 mov	 edx, DWORD PTR [ebx]
  00096	3b c8		 cmp	 ecx, eax
  00098	75 04		 jne	 SHORT $LN4@Emplace_re
; File C:\Program Files\Microsoft Visual Studio\2022\Community\VC\Tools\MSVC\14.34.31933\include\xmemory

; 1800 :             _Copy_memmove(_UFirst, _ULast, _Unfancy(_Dest));

  0009a	8b cf		 mov	 ecx, edi
; File C:\Program Files\Microsoft Visual Studio\2022\Community\VC\Tools\MSVC\14.34.31933\include\vector

; 908  :         } else { // provide basic guarantee

  0009c	eb 17		 jmp	 SHORT $LN52@Emplace_re
$LN4@Emplace_re:
; File C:\Program Files\Microsoft Visual Studio\2022\Community\VC\Tools\MSVC\14.34.31933\include\xmemory

; 1800 :             _Copy_memmove(_UFirst, _ULast, _Unfancy(_Dest));

  0009e	57		 push	 edi
  0009f	51		 push	 ecx
  000a0	52		 push	 edx
  000a1	e8 00 00 00 00	 call	 ??$_Copy_memmove@PAEPAE@std@@YAPAEPAE00@Z ; std::_Copy_memmove<unsigned char *,unsigned char *>
; File C:\Program Files\Microsoft Visual Studio\2022\Community\VC\Tools\MSVC\14.34.31933\include\vector

; 911  :             _Uninitialized_move(_Whereptr, _Mylast, _Newvec + _Whereoff + 1, _Al);

  000a6	8b 4d fc	 mov	 ecx, DWORD PTR __Whereoff$1$[ebp]
; File C:\Program Files\Microsoft Visual Studio\2022\Community\VC\Tools\MSVC\14.34.31933\include\xmemory

; 1800 :             _Copy_memmove(_UFirst, _ULast, _Unfancy(_Dest));

  000a9	83 c4 0c	 add	 esp, 12			; 0000000cH

; 1793 :     const auto _ULast = _Get_unwrapped(_Last);

  000ac	8b 43 04	 mov	 eax, DWORD PTR [ebx+4]
; File C:\Program Files\Microsoft Visual Studio\2022\Community\VC\Tools\MSVC\14.34.31933\include\vector

; 911  :             _Uninitialized_move(_Whereptr, _Mylast, _Newvec + _Whereoff + 1, _Al);

  000af	41		 inc	 ecx
; File C:\Program Files\Microsoft Visual Studio\2022\Community\VC\Tools\MSVC\14.34.31933\include\xmemory

; 1800 :             _Copy_memmove(_UFirst, _ULast, _Unfancy(_Dest));

  000b0	8b 55 08	 mov	 edx, DWORD PTR __Whereptr$[ebp]
; File C:\Program Files\Microsoft Visual Studio\2022\Community\VC\Tools\MSVC\14.34.31933\include\vector

; 911  :             _Uninitialized_move(_Whereptr, _Mylast, _Newvec + _Whereoff + 1, _Al);

  000b3	03 cf		 add	 ecx, edi
$LN52@Emplace_re:
  000b5	51		 push	 ecx
  000b6	50		 push	 eax
  000b7	52		 push	 edx
  000b8	e8 00 00 00 00	 call	 ??$_Copy_memmove@PAEPAE@std@@YAPAEPAE00@Z ; std::_Copy_memmove<unsigned char *,unsigned char *>
  000bd	83 c4 0c	 add	 esp, 12			; 0000000cH

; 912  :         }
; 913  :         _CATCH_ALL
; 914  :         _Destroy_range(_Constructed_first, _Constructed_last, _Al);
; 915  :         _Al.deallocate(_Newvec, _Newcapacity);
; 916  :         _RERAISE;
; 917  :         _CATCH_END
; 918  : 
; 919  :         _Change_array(_Newvec, _Newsize, _Newcapacity);

  000c0	8b cb		 mov	 ecx, ebx
  000c2	56		 push	 esi
  000c3	ff 75 f8	 push	 DWORD PTR __Newsize$1$[ebp]
  000c6	57		 push	 edi
  000c7	e8 00 00 00 00	 call	 ?_Change_array@?$vector@EV?$allocator@E@std@@@std@@AAEXQAEII@Z ; std::vector<unsigned char,std::allocator<unsigned char> >::_Change_array

; 920  :         return _Newvec + _Whereoff;

  000cc	8b 45 fc	 mov	 eax, DWORD PTR __Whereoff$1$[ebp]
  000cf	03 c7		 add	 eax, edi
  000d1	5f		 pop	 edi
  000d2	5e		 pop	 esi
  000d3	5b		 pop	 ebx

; 921  :     }

  000d4	8b e5		 mov	 esp, ebp
  000d6	5d		 pop	 ebp
  000d7	c2 08 00	 ret	 8
$LN77@Emplace_re:

; 888  :             _Xlength();

  000da	e8 00 00 00 00	 call	 ?_Xlength@?$vector@EV?$allocator@E@std@@@std@@CAXXZ ; std::vector<unsigned char,std::allocator<unsigned char> >::_Xlength
$LN75@Emplace_re:
  000df	cc		 int	 3
??$_Emplace_reallocate@ABE@?$vector@EV?$allocator@E@std@@@std@@AAEPAEQAEABE@Z ENDP ; std::vector<unsigned char,std::allocator<unsigned char> >::_Emplace_reallocate<unsigned char const &>
_TEXT	ENDS
; Function compile flags: /Ogtp
; File C:\Program Files\Microsoft Visual Studio\2022\Community\VC\Tools\MSVC\14.34.31933\include\xutility
;	COMDAT ??$construct_at@U?$pair@$$CBKPAVCGuildMarkImage@@@std@@U12@$0A@@std@@YAPAU?$pair@$$CBKPAVCGuildMarkImage@@@0@QAU10@$$QAU10@@Z
_TEXT	SEGMENT
??$construct_at@U?$pair@$$CBKPAVCGuildMarkImage@@@std@@U12@$0A@@std@@YAPAU?$pair@$$CBKPAVCGuildMarkImage@@@0@QAU10@$$QAU10@@Z PROC ; std::construct_at<std::pair<unsigned long const ,CGuildMarkImage *>,std::pair<unsigned long const ,CGuildMarkImage *>,0>, COMDAT
; __Location$ = ecx
; _<_Args_0>$ = edx

; 218  :     _MSVC_CONSTEXPR return ::new (_Voidify_iter(_Location)) _Ty(_STD forward<_Types>(_Args)...);

  00000	8b 02		 mov	 eax, DWORD PTR [edx]
  00002	8b 52 04	 mov	 edx, DWORD PTR [edx+4]
  00005	89 01		 mov	 DWORD PTR [ecx], eax
  00007	8b c1		 mov	 eax, ecx
  00009	89 51 04	 mov	 DWORD PTR [ecx+4], edx

; 219  : }

  0000c	c3		 ret	 0
??$construct_at@U?$pair@$$CBKPAVCGuildMarkImage@@@std@@U12@$0A@@std@@YAPAU?$pair@$$CBKPAVCGuildMarkImage@@@0@QAU10@$$QAU10@@Z ENDP ; std::construct_at<std::pair<unsigned long const ,CGuildMarkImage *>,std::pair<unsigned long const ,CGuildMarkImage *>,0>
_TEXT	ENDS
; Function compile flags: /Ogtp
; File C:\Program Files\Microsoft Visual Studio\2022\Community\VC\Tools\MSVC\14.34.31933\include\xutility
;	COMDAT ??$_Voidify_iter@PAU?$pair@$$CBKPAVCGuildMarkImage@@@std@@@std@@YAPAXPAU?$pair@$$CBKPAVCGuildMarkImage@@@0@@Z
_TEXT	SEGMENT
??$_Voidify_iter@PAU?$pair@$$CBKPAVCGuildMarkImage@@@std@@@std@@YAPAXPAU?$pair@$$CBKPAVCGuildMarkImage@@@0@@Z PROC ; std::_Voidify_iter<std::pair<unsigned long const ,CGuildMarkImage *> *>, COMDAT
; __It$ = ecx

; 201  :     if constexpr (is_pointer_v<_Iter>) {
; 202  :         return const_cast<void*>(static_cast<const volatile void*>(_It));

  00000	8b c1		 mov	 eax, ecx

; 203  :     } else {
; 204  :         return const_cast<void*>(static_cast<const volatile void*>(_STD addressof(*_It)));
; 205  :     }
; 206  : }

  00002	c3		 ret	 0
??$_Voidify_iter@PAU?$pair@$$CBKPAVCGuildMarkImage@@@std@@@std@@YAPAXPAU?$pair@$$CBKPAVCGuildMarkImage@@@0@@Z ENDP ; std::_Voidify_iter<std::pair<unsigned long const ,CGuildMarkImage *> *>
_TEXT	ENDS
; Function compile flags: /Ogtp
; File C:\Program Files\Microsoft Visual Studio\2022\Community\VC\Tools\MSVC\14.34.31933\include\xutility
;	COMDAT ??$construct_at@PAU?$_Tree_node@U?$pair@$$CBKPAVCGuildMarkImage@@@std@@PAX@std@@AAPAU12@$0A@@std@@YAPAPAU?$_Tree_node@U?$pair@$$CBKPAVCGuildMarkImage@@@std@@PAX@0@QAPAU10@AAPAU10@@Z
_TEXT	SEGMENT
??$construct_at@PAU?$_Tree_node@U?$pair@$$CBKPAVCGuildMarkImage@@@std@@PAX@std@@AAPAU12@$0A@@std@@YAPAPAU?$_Tree_node@U?$pair@$$CBKPAVCGuildMarkImage@@@std@@PAX@0@QAPAU10@AAPAU10@@Z PROC ; std::construct_at<std::_Tree_node<std::pair<unsigned long const ,CGuildMarkImage *>,void *> *,std::_Tree_node<std::pair<unsigned long const ,CGuildMarkImage *>,void *> * &,0>, COMDAT
; __Location$ = ecx
; _<_Args_0>$ = edx

; 218  :     _MSVC_CONSTEXPR return ::new (_Voidify_iter(_Location)) _Ty(_STD forward<_Types>(_Args)...);

  00000	8b 02		 mov	 eax, DWORD PTR [edx]
  00002	89 01		 mov	 DWORD PTR [ecx], eax
  00004	8b c1		 mov	 eax, ecx

; 219  : }

  00006	c3		 ret	 0
??$construct_at@PAU?$_Tree_node@U?$pair@$$CBKPAVCGuildMarkImage@@@std@@PAX@std@@AAPAU12@$0A@@std@@YAPAPAU?$_Tree_node@U?$pair@$$CBKPAVCGuildMarkImage@@@std@@PAX@0@QAPAU10@AAPAU10@@Z ENDP ; std::construct_at<std::_Tree_node<std::pair<unsigned long const ,CGuildMarkImage *>,void *> *,std::_Tree_node<std::pair<unsigned long const ,CGuildMarkImage *>,void *> * &,0>
_TEXT	ENDS
; Function compile flags: /Ogtp
; File C:\Program Files\Microsoft Visual Studio\2022\Community\VC\Tools\MSVC\14.34.31933\include\tuple
;	COMDAT ??$?0U_Exact_args_t@std@@$0A@@?$tuple@$$V@std@@QAE@U_Exact_args_t@1@@Z
_TEXT	SEGMENT
___formal$ = 8						; size = 1
??$?0U_Exact_args_t@std@@$0A@@?$tuple@$$V@std@@QAE@U_Exact_args_t@1@@Z PROC ; std::tuple<>::tuple<><std::_Exact_args_t,0>, COMDAT
; _this$ = ecx

; 199  :     constexpr tuple(_Tag) noexcept /* strengthened */ {}

  00000	8b c1		 mov	 eax, ecx
  00002	c2 04 00	 ret	 4
??$?0U_Exact_args_t@std@@$0A@@?$tuple@$$V@std@@QAE@U_Exact_args_t@1@@Z ENDP ; std::tuple<>::tuple<><std::_Exact_args_t,0>
_TEXT	ENDS
; Function compile flags: /Ogtp
; File C:\Program Files\Microsoft Visual Studio\2022\Community\VC\Tools\MSVC\14.34.31933\include\tuple
;	COMDAT ??$?0ABK@?$_Tuple_val@ABK@std@@QAE@ABK@Z
_TEXT	SEGMENT
__Arg$ = 8						; size = 4
??$?0ABK@?$_Tuple_val@ABK@std@@QAE@ABK@Z PROC		; std::_Tuple_val<unsigned long const &>::_Tuple_val<unsigned long const &><unsigned long const &>, COMDAT
; _this$ = ecx

; 144  :     constexpr _Tuple_val(_Other&& _Arg) : _Val(_STD forward<_Other>(_Arg)) {}

  00000	55		 push	 ebp
  00001	8b ec		 mov	 ebp, esp
  00003	8b 45 08	 mov	 eax, DWORD PTR __Arg$[ebp]
  00006	89 01		 mov	 DWORD PTR [ecx], eax
  00008	8b c1		 mov	 eax, ecx
  0000a	5d		 pop	 ebp
  0000b	c2 04 00	 ret	 4
??$?0ABK@?$_Tuple_val@ABK@std@@QAE@ABK@Z ENDP		; std::_Tuple_val<unsigned long const &>::_Tuple_val<unsigned long const &><unsigned long const &>
_TEXT	ENDS
; Function compile flags: /Ogtp
; File C:\Program Files\Microsoft Visual Studio\2022\Community\VC\Tools\MSVC\14.34.31933\include\tuple
;	COMDAT ??$_Tuple_get@$0A@ABK@std@@YA$$QA_P$$QAV?$tuple@ABK@0@@Z
_TEXT	SEGMENT
??$_Tuple_get@$0A@ABK@std@@YA$$QA_P$$QAV?$tuple@ABK@0@@Z PROC ; std::_Tuple_get<0,unsigned long const &>, COMDAT
; __Tuple$ = ecx

; 769  :     // used by pair's piecewise constructor
; 770  :     using _Ty    = tuple_element_t<_Index, tuple<_Types...>>;
; 771  :     using _Ttype = typename tuple_element<_Index, tuple<_Types...>>::_Ttype;
; 772  :     return static_cast<_Ty&&>(static_cast<_Ttype&>(_Tuple)._Myfirst._Val);

  00000	8b 01		 mov	 eax, DWORD PTR [ecx]

; 773  : }

  00002	c3		 ret	 0
??$_Tuple_get@$0A@ABK@std@@YA$$QA_P$$QAV?$tuple@ABK@0@@Z ENDP ; std::_Tuple_get<0,unsigned long const &>
_TEXT	ENDS
; Function compile flags: /Ogtp
; File C:\Program Files\Microsoft Visual Studio\2022\Community\VC\Tools\MSVC\14.34.31933\include\xutility
;	COMDAT ??$construct_at@E$$V$0A@@std@@YAPAEQAE@Z
_TEXT	SEGMENT
??$construct_at@E$$V$0A@@std@@YAPAEQAE@Z PROC		; std::construct_at<unsigned char,0>, COMDAT
; __Location$ = ecx

; 218  :     _MSVC_CONSTEXPR return ::new (_Voidify_iter(_Location)) _Ty(_STD forward<_Types>(_Args)...);

  00000	c6 01 00	 mov	 BYTE PTR [ecx], 0
  00003	8b c1		 mov	 eax, ecx

; 219  : }

  00005	c3		 ret	 0
??$construct_at@E$$V$0A@@std@@YAPAEQAE@Z ENDP		; std::construct_at<unsigned char,0>
_TEXT	ENDS
; Function compile flags: /Ogtp
; File C:\Program Files\Microsoft Visual Studio\2022\Community\VC\Tools\MSVC\14.34.31933\include\xmemory
;	COMDAT ??$construct@EABE@?$_Default_allocator_traits@V?$allocator@E@std@@@std@@SAXAAV?$allocator@E@1@QAEABE@Z
_TEXT	SEGMENT
_<_Args_0>$ = 8						; size = 4
??$construct@EABE@?$_Default_allocator_traits@V?$allocator@E@std@@@std@@SAXAAV?$allocator@E@1@QAEABE@Z PROC ; std::_Default_allocator_traits<std::allocator<unsigned char> >::construct<unsigned char,unsigned char const &>, COMDAT
; ___formal$dead$ = ecx
; __Ptr$ = edx

; 673  :     static _CONSTEXPR20 void construct(_Alloc&, _Objty* const _Ptr, _Types&&... _Args) {

  00000	55		 push	 ebp
  00001	8b ec		 mov	 ebp, esp

; 674  : #if _HAS_CXX20
; 675  :         if (_STD is_constant_evaluated()) {
; 676  :             _STD construct_at(_Ptr, _STD forward<_Types>(_Args)...);
; 677  :         } else
; 678  : #endif // _HAS_CXX20
; 679  :         {
; 680  :             ::new (_Voidify_iter(_Ptr)) _Objty(_STD forward<_Types>(_Args)...);
; 681  :         }
; 682  :     }

  00003	8b 45 08	 mov	 eax, DWORD PTR _<_Args_0>$[ebp]
  00006	8a 00		 mov	 al, BYTE PTR [eax]
  00008	88 02		 mov	 BYTE PTR [edx], al
  0000a	5d		 pop	 ebp
  0000b	c3		 ret	 0
??$construct@EABE@?$_Default_allocator_traits@V?$allocator@E@std@@@std@@SAXAAV?$allocator@E@1@QAEABE@Z ENDP ; std::_Default_allocator_traits<std::allocator<unsigned char> >::construct<unsigned char,unsigned char const &>
_TEXT	ENDS
; Function compile flags: /Ogtp
; File C:\Program Files\Microsoft Visual Studio\2022\Community\VC\Tools\MSVC\14.34.31933\include\type_traits
;	COMDAT ??$move@AAV?$tuple@ABK@std@@@std@@YA$$QAV?$tuple@ABK@0@AAV10@@Z
_TEXT	SEGMENT
??$move@AAV?$tuple@ABK@std@@@std@@YA$$QAV?$tuple@ABK@0@AAV10@@Z PROC ; std::move<std::tuple<unsigned long const &> &>, COMDAT
; __Arg$ = ecx

; 1437 :     return static_cast<remove_reference_t<_Ty>&&>(_Arg);

  00000	8b c1		 mov	 eax, ecx

; 1438 : }

  00002	c3		 ret	 0
??$move@AAV?$tuple@ABK@std@@@std@@YA$$QAV?$tuple@ABK@0@AAV10@@Z ENDP ; std::move<std::tuple<unsigned long const &> &>
_TEXT	ENDS
; Function compile flags: /Ogtp
; File C:\Program Files\Microsoft Visual Studio\2022\Community\VC\Tools\MSVC\14.34.31933\include\xutility
;	COMDAT ??$construct_at@EABE$0A@@std@@YAPAEQAEABE@Z
_TEXT	SEGMENT
??$construct_at@EABE$0A@@std@@YAPAEQAEABE@Z PROC	; std::construct_at<unsigned char,unsigned char const &,0>, COMDAT
; __Location$ = ecx
; _<_Args_0>$ = edx

; 218  :     _MSVC_CONSTEXPR return ::new (_Voidify_iter(_Location)) _Ty(_STD forward<_Types>(_Args)...);

  00000	8a 02		 mov	 al, BYTE PTR [edx]
  00002	88 01		 mov	 BYTE PTR [ecx], al
  00004	8b c1		 mov	 eax, ecx

; 219  : }

  00006	c3		 ret	 0
??$construct_at@EABE$0A@@std@@YAPAEQAEABE@Z ENDP	; std::construct_at<unsigned char,unsigned char const &,0>
_TEXT	ENDS
; Function compile flags: /Ogtp
; File C:\Program Files\Microsoft Visual Studio\2022\Community\VC\Tools\MSVC\14.34.31933\include\type_traits
;	COMDAT ??$forward@K@std@@YA$$QAKAAK@Z
_TEXT	SEGMENT
??$forward@K@std@@YA$$QAKAAK@Z PROC			; std::forward<unsigned long>, COMDAT
; __Arg$ = ecx

; 1426 :     return static_cast<_Ty&&>(_Arg);

  00000	8b c1		 mov	 eax, ecx

; 1427 : }

  00002	c3		 ret	 0
??$forward@K@std@@YA$$QAKAAK@Z ENDP			; std::forward<unsigned long>
_TEXT	ENDS
; Function compile flags: /Ogtp
; File C:\Program Files\Microsoft Visual Studio\2022\Community\VC\Tools\MSVC\14.34.31933\include\tuple
;	COMDAT ??0?$tuple@$$V@std@@QAE@ABV01@@Z
_TEXT	SEGMENT
___formal$dead$ = 8					; size = 4
??0?$tuple@$$V@std@@QAE@ABV01@@Z PROC			; std::tuple<>::tuple<>, COMDAT
; _this$ = ecx

; 190  :     constexpr tuple(const tuple&) noexcept /* strengthened */ {} // TRANSITION, ABI: should be defaulted

  00000	8b c1		 mov	 eax, ecx
  00002	c2 04 00	 ret	 4
??0?$tuple@$$V@std@@QAE@ABV01@@Z ENDP			; std::tuple<>::tuple<>
_TEXT	ENDS
; Function compile flags: /Ogtp
; File C:\Program Files (x86)\Windows Kits\10\Include\10.0.22000.0\ucrt\stdio.h
;	COMDAT _fprintf
_TEXT	SEGMENT
__Stream$ = 8						; size = 4
__Format$ = 12						; size = 4
_fprintf PROC						; COMDAT

; 837  :     {

  00000	55		 push	 ebp
  00001	8b ec		 mov	 ebp, esp

; 838  :         int _Result;
; 839  :         va_list _ArgList;
; 840  :         __crt_va_start(_ArgList, _Format);
; 841  :         _Result = _vfprintf_l(_Stream, _Format, NULL, _ArgList);

  00003	8b 55 0c	 mov	 edx, DWORD PTR __Format$[ebp]
  00006	8d 45 10	 lea	 eax, DWORD PTR __Format$[ebp+4]
  00009	50		 push	 eax
  0000a	51		 push	 ecx
  0000b	8b 4d 08	 mov	 ecx, DWORD PTR __Stream$[ebp]
  0000e	e8 00 00 00 00	 call	 __vfprintf_l
  00013	83 c4 08	 add	 esp, 8

; 842  :         __crt_va_end(_ArgList);
; 843  :         return _Result;
; 844  :     }

  00016	5d		 pop	 ebp
  00017	c3		 ret	 0
_fprintf ENDP
_TEXT	ENDS
; Function compile flags: /Ogtp
; File C:\Program Files (x86)\Windows Kits\10\Include\10.0.22000.0\ucrt\stdio.h
;	COMDAT __vsnprintf
_TEXT	SEGMENT
__Buffer$ = 8						; size = 4
__BufferCount$ = 12					; size = 4
__Format$ = 16						; size = 4
__ArgList$ = 20						; size = 4
__vsnprintf PROC					; COMDAT

; 1411 :     {

  00000	55		 push	 ebp
  00001	8b ec		 mov	 ebp, esp

; 1412 :         return _vsnprintf_l(_Buffer, _BufferCount, _Format, NULL, _ArgList);

  00003	ff 75 14	 push	 DWORD PTR __ArgList$[ebp]
  00006	8b 55 0c	 mov	 edx, DWORD PTR __BufferCount$[ebp]
  00009	51		 push	 ecx
  0000a	ff 75 10	 push	 DWORD PTR __Format$[ebp]
  0000d	8b 4d 08	 mov	 ecx, DWORD PTR __Buffer$[ebp]
  00010	e8 00 00 00 00	 call	 __vsnprintf_l
  00015	83 c4 0c	 add	 esp, 12			; 0000000cH

; 1413 :     }

  00018	5d		 pop	 ebp
  00019	c3		 ret	 0
__vsnprintf ENDP
_TEXT	ENDS
; Function compile flags: /Ogtp
; File C:\Program Files (x86)\Windows Kits\10\Include\10.0.22000.0\ucrt\stdio.h
;	COMDAT __snprintf
_TEXT	SEGMENT
__Buffer$ = 8						; size = 4
__BufferCount$ = 12					; size = 4
__Format$ = 16						; size = 4
__snprintf PROC						; COMDAT

; 1947 :     {

  00000	55		 push	 ebp
  00001	8b ec		 mov	 ebp, esp
  00003	51		 push	 ecx

; 1412 :         return _vsnprintf_l(_Buffer, _BufferCount, _Format, NULL, _ArgList);

  00004	8b 55 0c	 mov	 edx, DWORD PTR __BufferCount$[ebp]
  00007	8d 45 14	 lea	 eax, DWORD PTR __Format$[ebp+4]
  0000a	50		 push	 eax
  0000b	51		 push	 ecx
  0000c	ff 75 10	 push	 DWORD PTR __Format$[ebp]
  0000f	8b 4d 08	 mov	 ecx, DWORD PTR __Buffer$[ebp]
  00012	e8 00 00 00 00	 call	 __vsnprintf_l
  00017	83 c4 0c	 add	 esp, 12			; 0000000cH

; 1948 :         int _Result;
; 1949 :         va_list _ArgList;
; 1950 :         __crt_va_start(_ArgList, _Format);
; 1951 :         _Result = _vsnprintf(_Buffer, _BufferCount, _Format, _ArgList);
; 1952 :         __crt_va_end(_ArgList);
; 1953 :         return _Result;
; 1954 :     }

  0001a	59		 pop	 ecx
  0001b	5d		 pop	 ebp
  0001c	c3		 ret	 0
__snprintf ENDP
_TEXT	ENDS
END
