; Listing generated by Microsoft (R) Optimizing Compiler Version 19.34.31937.0 

	TITLE	e:\metin2_server\solwaynesf v6\clientvs22\vs_files\userinterface\distribute\processscanner.obj
	.686P
	.XMM
	include listing.inc
	.model	flat

INCLUDELIB OLDNAMES

PUBLIC	??_C@_0BH@HGFKAINA@ProcessScanner_ReqExit@	; `string'
PUBLIC	??_C@_0BH@DLJCKJNL@ProcessScanner_ResExit@	; `string'
PUBLIC	??_C@_0BD@HGPDOMOG@CreateThread?5Error@		; `string'
PUBLIC	??_C@_0BI@DABBIDIM@SetThreadPriority?5Error@	; `string'
EXTRN	__imp__SetThreadPriority@8:PROC
EXTRN	?LogBox@@YAXPBD0PAUHWND__@@@Z:PROC		; LogBox
EXTRN	__beginthread:PROC
EXTRN	__imp__CreateEventA@16:PROC
EXTRN	__imp__InitializeCriticalSection@4:PROC
EXTRN	_rand:PROC
EXTRN	__imp__LeaveCriticalSection@4:PROC
EXTRN	__imp__EnterCriticalSection@4:PROC
EXTRN	__imp__DeleteCriticalSection@4:PROC
EXTRN	__imp__WaitForSingleObject@8:PROC
EXTRN	__imp__SetEvent@4:PROC
EXTRN	__imp__Process32Next@8:PROC
EXTRN	__imp__Sleep@4:PROC
EXTRN	__imp__OpenProcess@12:PROC
EXTRN	__imp__Process32First@8:PROC
EXTRN	__imp__GetSystemInfo@4:PROC
;	COMDAT ??_C@_0BI@DABBIDIM@SetThreadPriority?5Error@
CONST	SEGMENT
??_C@_0BI@DABBIDIM@SetThreadPriority?5Error@ DB 'SetThreadPriority Error', 00H ; `string'
CONST	ENDS
;	COMDAT ??_C@_0BD@HGPDOMOG@CreateThread?5Error@
CONST	SEGMENT
??_C@_0BD@HGPDOMOG@CreateThread?5Error@ DB 'CreateThread Error', 00H ; `string'
CONST	ENDS
;	COMDAT ??_C@_0BH@DLJCKJNL@ProcessScanner_ResExit@
CONST	SEGMENT
??_C@_0BH@DLJCKJNL@ProcessScanner_ResExit@ DB 'ProcessScanner_ResExit', 00H ; `string'
CONST	ENDS
;	COMDAT ??_C@_0BH@HGFKAINA@ProcessScanner_ReqExit@
CONST	SEGMENT
??_C@_0BH@HGFKAINA@ProcessScanner_ReqExit@ DB 'ProcessScanner_ReqExit', 00H ; `string'
PUBLIC	??4?$basic_string@DU?$char_traits@D@std@@V?$allocator@D@2@@std@@QAEAAV01@$$QAV01@@Z ; std::basic_string<char,std::char_traits<char>,std::allocator<char> >::operator=
PUBLIC	??$_Pocma@V?$allocator@D@std@@@std@@YAXAAV?$allocator@D@0@0@Z ; std::_Pocma<std::allocator<char> >
PUBLIC	??$construct_at@U?$pair@$$CBKK@std@@U?$pair@KK@2@$0A@@std@@YAPAU?$pair@$$CBKK@0@QAU10@$$QAU?$pair@KK@0@@Z ; std::construct_at<std::pair<unsigned long const ,unsigned long>,std::pair<unsigned long,unsigned long>,0>
PUBLIC	??$?0KK$0A@@?$pair@$$CBKK@std@@QAE@$$QAU?$pair@KK@1@@Z ; std::pair<unsigned long const ,unsigned long>::pair<unsigned long const ,unsigned long><unsigned long,unsigned long,0>
PUBLIC	??$construct@U?$pair@$$CBKK@std@@U?$pair@KK@2@@?$_Default_allocator_traits@V?$allocator@U?$_Tree_node@U?$pair@$$CBKK@std@@PAX@std@@@std@@@std@@SAXAAV?$allocator@U?$_Tree_node@U?$pair@$$CBKK@std@@PAX@std@@@1@QAU?$pair@$$CBKK@1@$$QAU?$pair@KK@1@@Z ; std::_Default_allocator_traits<std::allocator<std::_Tree_node<std::pair<unsigned long const ,unsigned long>,void *> > >::construct<std::pair<unsigned long const ,unsigned long>,std::pair<unsigned long,unsigned long> >
PUBLIC	??$?0U?$pair@KK@std@@@?$_Tree_temp_node@V?$allocator@U?$_Tree_node@U?$pair@$$CBKK@std@@PAX@std@@@std@@@std@@QAE@AAV?$allocator@U?$_Tree_node@U?$pair@$$CBKK@std@@PAX@std@@@1@PAU?$_Tree_node@U?$pair@$$CBKK@std@@PAX@1@$$QAU?$pair@KK@1@@Z ; std::_Tree_temp_node<std::allocator<std::_Tree_node<std::pair<unsigned long const ,unsigned long>,void *> > >::_Tree_temp_node<std::allocator<std::_Tree_node<std::pair<unsigned long const ,unsigned long>,void *> > ><std::pair<unsigned long,unsigned long> >
PUBLIC	?_Extract@?$_In_place_key_extract_map@KU?$pair@KK@std@@@std@@SAABKABU?$pair@KK@2@@Z ; std::_In_place_key_extract_map<unsigned long,std::pair<unsigned long,unsigned long> >::_Extract
PUBLIC	??_G?$pair@KV?$basic_string@DU?$char_traits@D@std@@V?$allocator@D@2@@std@@@std@@QAEPAXI@Z ; std::pair<unsigned long,std::basic_string<char,std::char_traits<char>,std::allocator<char> > >::`scalar deleting destructor'
PUBLIC	??$destroy_at@U?$pair@KV?$basic_string@DU?$char_traits@D@std@@V?$allocator@D@2@@std@@@std@@@std@@YAXQAU?$pair@KV?$basic_string@DU?$char_traits@D@std@@V?$allocator@D@2@@std@@@0@@Z ; std::destroy_at<std::pair<unsigned long,std::basic_string<char,std::char_traits<char>,std::allocator<char> > > >
PUBLIC	??$_Emplace@U?$pair@KK@std@@@?$_Tree@V?$_Tmap_traits@KKU?$less@K@std@@V?$allocator@U?$pair@$$CBKK@std@@@2@$0A@@std@@@std@@IAE?AU?$pair@PAU?$_Tree_node@U?$pair@$$CBKK@std@@PAX@std@@_N@1@$$QAU?$pair@KK@1@@Z ; std::_Tree<std::_Tmap_traits<unsigned long,unsigned long,std::less<unsigned long>,std::allocator<std::pair<unsigned long const ,unsigned long> >,0> >::_Emplace<std::pair<unsigned long,unsigned long> >
PUBLIC	??$_Get_size_of_n@$0BM@@std@@YAII@Z		; std::_Get_size_of_n<28>
PUBLIC	??$forward@U?$pair@KV?$basic_string@DU?$char_traits@D@std@@V?$allocator@D@2@@std@@@std@@@std@@YA$$QAU?$pair@KV?$basic_string@DU?$char_traits@D@std@@V?$allocator@D@2@@std@@@0@AAU10@@Z ; std::forward<std::pair<unsigned long,std::basic_string<char,std::char_traits<char>,std::allocator<char> > > >
PUBLIC	??$destroy@U?$pair@KV?$basic_string@DU?$char_traits@D@std@@V?$allocator@D@2@@std@@@std@@@?$_Default_allocator_traits@V?$allocator@U?$pair@KV?$basic_string@DU?$char_traits@D@std@@V?$allocator@D@2@@std@@@std@@@std@@@std@@SAXAAV?$allocator@U?$pair@KV?$basic_string@DU?$char_traits@D@std@@V?$allocator@D@2@@std@@@std@@@1@QAU?$pair@KV?$basic_string@DU?$char_traits@D@std@@V?$allocator@D@2@@std@@@1@@Z ; std::_Default_allocator_traits<std::allocator<std::pair<unsigned long,std::basic_string<char,std::char_traits<char>,std::allocator<char> > > > >::destroy<std::pair<unsigned long,std::basic_string<char,std::char_traits<char>,std::allocator<char> > > >
PUBLIC	??$_Unfancy@U?$pair@KV?$basic_string@DU?$char_traits@D@std@@V?$allocator@D@2@@std@@@std@@@std@@YAPAU?$pair@KV?$basic_string@DU?$char_traits@D@std@@V?$allocator@D@2@@std@@@0@PAU10@@Z ; std::_Unfancy<std::pair<unsigned long,std::basic_string<char,std::char_traits<char>,std::allocator<char> > > >
PUBLIC	??$emplace@U?$pair@KK@std@@@?$_Tree@V?$_Tmap_traits@KKU?$less@K@std@@V?$allocator@U?$pair@$$CBKK@std@@@2@$0A@@std@@@std@@QAE?AU?$pair@V?$_Tree_iterator@V?$_Tree_val@U?$_Tree_simple_types@U?$pair@$$CBKK@std@@@std@@@std@@@std@@_N@1@$$QAU?$pair@KK@1@@Z ; std::_Tree<std::_Tmap_traits<unsigned long,unsigned long,std::less<unsigned long>,std::allocator<std::pair<unsigned long const ,unsigned long> >,0> >::emplace<std::pair<unsigned long,unsigned long> >
PUBLIC	??$forward@U?$pair@KK@std@@@std@@YA$$QAU?$pair@KK@0@AAU10@@Z ; std::forward<std::pair<unsigned long,unsigned long> >
PUBLIC	??$?0AAKAAK$0A@@?$pair@KK@std@@QAE@AAK0@Z	; std::pair<unsigned long,unsigned long>::pair<unsigned long,unsigned long><unsigned long &,unsigned long &,0>
PUBLIC	??$_Destroy_range@V?$allocator@U?$pair@KV?$basic_string@DU?$char_traits@D@std@@V?$allocator@D@2@@std@@@std@@@std@@@std@@YAXPAU?$pair@KV?$basic_string@DU?$char_traits@D@std@@V?$allocator@D@2@@std@@@0@QAU10@AAV?$allocator@U?$pair@KV?$basic_string@DU?$char_traits@D@std@@V?$allocator@D@2@@std@@@std@@@0@@Z ; std::_Destroy_range<std::allocator<std::pair<unsigned long,std::basic_string<char,std::char_traits<char>,std::allocator<char> > > > >
PUBLIC	??$insert@U?$pair@KK@std@@$0A@@?$map@KKU?$less@K@std@@V?$allocator@U?$pair@$$CBKK@std@@@2@@std@@QAE?AU?$pair@V?$_Tree_iterator@V?$_Tree_val@U?$_Tree_simple_types@U?$pair@$$CBKK@std@@@std@@@std@@@std@@_N@1@$$QAU?$pair@KK@1@@Z ; std::map<unsigned long,unsigned long,std::less<unsigned long>,std::allocator<std::pair<unsigned long const ,unsigned long> > >::insert<std::pair<unsigned long,unsigned long>,0>
PUBLIC	??$make_pair@AAKAAK@std@@YA?AU?$pair@KK@0@AAK0@Z ; std::make_pair<unsigned long &,unsigned long &>
PUBLIC	?deallocate@?$allocator@U?$pair@KV?$basic_string@DU?$char_traits@D@std@@V?$allocator@D@2@@std@@@std@@@std@@QAEXQAU?$pair@KV?$basic_string@DU?$char_traits@D@std@@V?$allocator@D@2@@std@@@2@I@Z ; std::allocator<std::pair<unsigned long,std::basic_string<char,std::char_traits<char>,std::allocator<char> > > >::deallocate
PUBLIC	?_Get_first@?$_Compressed_pair@V?$allocator@U?$pair@KV?$basic_string@DU?$char_traits@D@std@@V?$allocator@D@2@@std@@@std@@@std@@V?$_Vector_val@U?$_Simple_types@U?$pair@KV?$basic_string@DU?$char_traits@D@std@@V?$allocator@D@2@@std@@@std@@@std@@@2@$00@std@@QAEAAV?$allocator@U?$pair@KV?$basic_string@DU?$char_traits@D@std@@V?$allocator@D@2@@std@@@std@@@2@XZ ; std::_Compressed_pair<std::allocator<std::pair<unsigned long,std::basic_string<char,std::char_traits<char>,std::allocator<char> > > >,std::_Vector_val<std::_Simple_types<std::pair<unsigned long,std::basic_string<char,std::char_traits<char>,std::allocator<char> > > > >,1>::_Get_first
PUBLIC	?_Tidy@?$vector@U?$pair@KV?$basic_string@DU?$char_traits@D@std@@V?$allocator@D@2@@std@@@std@@V?$allocator@U?$pair@KV?$basic_string@DU?$char_traits@D@std@@V?$allocator@D@2@@std@@@std@@@2@@std@@AAEXXZ ; std::vector<std::pair<unsigned long,std::basic_string<char,std::char_traits<char>,std::allocator<char> > >,std::allocator<std::pair<unsigned long,std::basic_string<char,std::char_traits<char>,std::allocator<char> > > > >::_Tidy
PUBLIC	?_Getal@?$vector@U?$pair@KV?$basic_string@DU?$char_traits@D@std@@V?$allocator@D@2@@std@@@std@@V?$allocator@U?$pair@KV?$basic_string@DU?$char_traits@D@std@@V?$allocator@D@2@@std@@@std@@@2@@std@@AAEAAV?$allocator@U?$pair@KV?$basic_string@DU?$char_traits@D@std@@V?$allocator@D@2@@std@@@std@@@2@XZ ; std::vector<std::pair<unsigned long,std::basic_string<char,std::char_traits<char>,std::allocator<char> > >,std::allocator<std::pair<unsigned long,std::basic_string<char,std::char_traits<char>,std::allocator<char> > > > >::_Getal
PUBLIC	??1?$vector@U?$pair@KV?$basic_string@DU?$char_traits@D@std@@V?$allocator@D@2@@std@@@std@@V?$allocator@U?$pair@KV?$basic_string@DU?$char_traits@D@std@@V?$allocator@D@2@@std@@@std@@@2@@std@@QAE@XZ ; std::vector<std::pair<unsigned long,std::basic_string<char,std::char_traits<char>,std::allocator<char> > >,std::allocator<std::pair<unsigned long,std::basic_string<char,std::char_traits<char>,std::allocator<char> > > > >::~vector<std::pair<unsigned long,std::basic_string<char,std::char_traits<char>,std::allocator<char> > >,std::allocator<std::pair<unsigned long,std::basic_string<char,std::char_traits<char>,std::allocator<char> > > > >
PUBLIC	??1?$pair@KV?$basic_string@DU?$char_traits@D@std@@V?$allocator@D@2@@std@@@std@@QAE@XZ ; std::pair<unsigned long,std::basic_string<char,std::char_traits<char>,std::allocator<char> > >::~pair<unsigned long,std::basic_string<char,std::char_traits<char>,std::allocator<char> > >
	ALIGN	4

?gs_kVct_crcPair@@3V?$vector@U?$pair@KV?$basic_string@DU?$char_traits@D@std@@V?$allocator@D@2@@std@@@std@@V?$allocator@U?$pair@KV?$basic_string@DU?$char_traits@D@std@@V?$allocator@D@2@@std@@@std@@@2@@std@@A DB 0cH DUP (?) ; gs_kVct_crcPair
_BSS	ENDS
;	COMDAT xdata$x
xdata$x	SEGMENT
__ehfuncinfo$??$insert@U?$pair@KK@std@@$0A@@?$map@KKU?$less@K@std@@V?$allocator@U?$pair@$$CBKK@std@@@2@@std@@QAE?AU?$pair@V?$_Tree_iterator@V?$_Tree_val@U?$_Tree_simple_types@U?$pair@$$CBKK@std@@@std@@@std@@@std@@_N@1@$$QAU?$pair@KK@1@@Z DD 019930522H
	DD	01H
	DD	FLAT:__unwindtable$??$insert@U?$pair@KK@std@@$0A@@?$map@KKU?$less@K@std@@V?$allocator@U?$pair@$$CBKK@std@@@2@@std@@QAE?AU?$pair@V?$_Tree_iterator@V?$_Tree_val@U?$_Tree_simple_types@U?$pair@$$CBKK@std@@@std@@@std@@@std@@_N@1@$$QAU?$pair@KK@1@@Z
	DD	2 DUP(00H)
	DD	2 DUP(00H)
	DD	00H
	DD	01H
__unwindtable$??$insert@U?$pair@KK@std@@$0A@@?$map@KKU?$less@K@std@@V?$allocator@U?$pair@$$CBKK@std@@@2@@std@@QAE?AU?$pair@V?$_Tree_iterator@V?$_Tree_val@U?$_Tree_simple_types@U?$pair@$$CBKK@std@@@std@@@std@@@std@@_N@1@$$QAU?$pair@KK@1@@Z DD 0ffffffffH
	DD	FLAT:__unwindfunclet$??$insert@U?$pair@KK@std@@$0A@@?$map@KKU?$less@K@std@@V?$allocator@U?$pair@$$CBKK@std@@@2@@std@@QAE?AU?$pair@V?$_Tree_iterator@V?$_Tree_val@U?$_Tree_simple_types@U?$pair@$$CBKK@std@@@std@@@std@@@std@@_N@1@$$QAU?$pair@KK@1@@Z$2
xdata$x	ENDS
;	COMDAT xdata$x
xdata$x	SEGMENT
__ehfuncinfo$??$emplace@U?$pair@KK@std@@@?$_Tree@V?$_Tmap_traits@KKU?$less@K@std@@V?$allocator@U?$pair@$$CBKK@std@@@2@$0A@@std@@@std@@QAE?AU?$pair@V?$_Tree_iterator@V?$_Tree_val@U?$_Tree_simple_types@U?$pair@$$CBKK@std@@@std@@@std@@@std@@_N@1@$$QAU?$pair@KK@1@@Z DD 019930522H
	DD	01H
	DD	FLAT:__unwindtable$??$emplace@U?$pair@KK@std@@@?$_Tree@V?$_Tmap_traits@KKU?$less@K@std@@V?$allocator@U?$pair@$$CBKK@std@@@2@$0A@@std@@@std@@QAE?AU?$pair@V?$_Tree_iterator@V?$_Tree_val@U?$_Tree_simple_types@U?$pair@$$CBKK@std@@@std@@@std@@@std@@_N@1@$$QAU?$pair@KK@1@@Z
	DD	2 DUP(00H)
	DD	2 DUP(00H)
	DD	00H
	DD	01H
__unwindtable$??$emplace@U?$pair@KK@std@@@?$_Tree@V?$_Tmap_traits@KKU?$less@K@std@@V?$allocator@U?$pair@$$CBKK@std@@@2@$0A@@std@@@std@@QAE?AU?$pair@V?$_Tree_iterator@V?$_Tree_val@U?$_Tree_simple_types@U?$pair@$$CBKK@std@@@std@@@std@@@std@@_N@1@$$QAU?$pair@KK@1@@Z DD 0ffffffffH
	DD	FLAT:__unwindfunclet$??$emplace@U?$pair@KK@std@@@?$_Tree@V?$_Tmap_traits@KKU?$less@K@std@@V?$allocator@U?$pair@$$CBKK@std@@@2@$0A@@std@@@std@@QAE?AU?$pair@V?$_Tree_iterator@V?$_Tree_val@U?$_Tree_simple_types@U?$pair@$$CBKK@std@@@std@@@std@@@std@@_N@1@$$QAU?$pair@KK@1@@Z$2
xdata$x	ENDS
;	COMDAT xdata$x
xdata$x	SEGMENT
__ehfuncinfo$??$_Emplace@U?$pair@KK@std@@@?$_Tree@V?$_Tmap_traits@KKU?$less@K@std@@V?$allocator@U?$pair@$$CBKK@std@@@2@$0A@@std@@@std@@IAE?AU?$pair@PAU?$_Tree_node@U?$pair@$$CBKK@std@@PAX@std@@_N@1@$$QAU?$pair@KK@1@@Z DD 019930522H
	DD	01H
	DD	FLAT:__unwindtable$??$_Emplace@U?$pair@KK@std@@@?$_Tree@V?$_Tmap_traits@KKU?$less@K@std@@V?$allocator@U?$pair@$$CBKK@std@@@2@$0A@@std@@@std@@IAE?AU?$pair@PAU?$_Tree_node@U?$pair@$$CBKK@std@@PAX@std@@_N@1@$$QAU?$pair@KK@1@@Z
	DD	2 DUP(00H)
	DD	2 DUP(00H)
	DD	00H
	DD	01H
__unwindtable$??$_Emplace@U?$pair@KK@std@@@?$_Tree@V?$_Tmap_traits@KKU?$less@K@std@@V?$allocator@U?$pair@$$CBKK@std@@@2@$0A@@std@@@std@@IAE?AU?$pair@PAU?$_Tree_node@U?$pair@$$CBKK@std@@PAX@std@@_N@1@$$QAU?$pair@KK@1@@Z DD 0ffffffffH
	DD	FLAT:__unwindfunclet$??$_Emplace@U?$pair@KK@std@@@?$_Tree@V?$_Tmap_traits@KKU?$less@K@std@@V?$allocator@U?$pair@$$CBKK@std@@@2@$0A@@std@@@std@@IAE?AU?$pair@PAU?$_Tree_node@U?$pair@$$CBKK@std@@PAX@std@@_N@1@$$QAU?$pair@KK@1@@Z$2
xdata$x	ENDS
;	COMDAT xdata$x
xdata$x	SEGMENT
__ehfuncinfo$??$?0U?$pair@KK@std@@@?$_Tree_temp_node@V?$allocator@U?$_Tree_node@U?$pair@$$CBKK@std@@PAX@std@@@std@@@std@@QAE@AAV?$allocator@U?$_Tree_node@U?$pair@$$CBKK@std@@PAX@std@@@1@PAU?$_Tree_node@U?$pair@$$CBKK@std@@PAX@1@$$QAU?$pair@KK@1@@Z DD 019930522H
	DD	01H
	DD	FLAT:__unwindtable$??$?0U?$pair@KK@std@@@?$_Tree_temp_node@V?$allocator@U?$_Tree_node@U?$pair@$$CBKK@std@@PAX@std@@@std@@@std@@QAE@AAV?$allocator@U?$_Tree_node@U?$pair@$$CBKK@std@@PAX@std@@@1@PAU?$_Tree_node@U?$pair@$$CBKK@std@@PAX@1@$$QAU?$pair@KK@1@@Z
	DD	2 DUP(00H)
	DD	2 DUP(00H)
	DD	00H
	DD	01H
__unwindtable$??$?0U?$pair@KK@std@@@?$_Tree_temp_node@V?$allocator@U?$_Tree_node@U?$pair@$$CBKK@std@@PAX@std@@@std@@@std@@QAE@AAV?$allocator@U?$_Tree_node@U?$pair@$$CBKK@std@@PAX@std@@@1@PAU?$_Tree_node@U?$pair@$$CBKK@std@@PAX@1@$$QAU?$pair@KK@1@@Z DD 0ffffffffH
	DD	FLAT:__unwindfunclet$??$?0U?$pair@KK@std@@@?$_Tree_temp_node@V?$allocator@U?$_Tree_node@U?$pair@$$CBKK@std@@PAX@std@@@std@@@std@@QAE@AAV?$allocator@U?$_Tree_node@U?$pair@$$CBKK@std@@PAX@std@@@1@PAU?$_Tree_node@U?$pair@$$CBKK@std@@PAX@1@$$QAU?$pair@KK@1@@Z$1
?gs_kVct_crcPair$initializer$@@3P6AXXZA DD FLAT:??__Fgs_kVct_crcPair@@YAXXZ ; gs_kVct_crcPair$initializer$
; Function compile flags: /Ogtp
; File E:\Metin2_server\SolWayneSF v6\ClientVS22\source\UserInterface\ProcessScanner.cpp
;	COMDAT ??__Fgs_kVct_crcPair@@YAXXZ
text$di	SEGMENT
??__Fgs_kVct_crcPair@@YAXXZ PROC			; `dynamic atexit destructor for 'gs_kVct_crcPair'', COMDAT

; 6    : static std::vector<CRCPair> gs_kVct_crcPair;

  00000	68 00 00 00 00	 push	 OFFSET ??__Fgs_kVct_crcPair@@YAXXZ ; `dynamic atexit destructor for 'gs_kVct_crcPair''
  00005	e8 00 00 00 00	 call	 _atexit
  0000a	59		 pop	 ecx
  0000b	c3		 ret	 0
??__Fgs_kVct_crcPair@@YAXXZ ENDP			; `dynamic atexit destructor for 'gs_kVct_crcPair''
text$di	ENDS
; Function compile flags: /Ogtp
;	COMDAT ??__Fgs_kVct_crcPair@@YAXXZ
text$yd	SEGMENT
??__Fgs_kVct_crcPair@@YAXXZ PROC			; `dynamic atexit destructor for 'gs_kVct_crcPair'', COMDAT
  00000	b9 00 00 00 00	 mov	 ecx, OFFSET ?gs_kVct_crcPair@@3V?$vector@U?$pair@KV?$basic_string@DU?$char_traits@D@std@@V?$allocator@D@2@@std@@@std@@V?$allocator@U?$pair@KV?$basic_string@DU?$char_traits@D@std@@V?$allocator@D@2@@std@@@std@@@2@@std@@A
  00005	e9 00 00 00 00	 jmp	 ??1?$vector@U?$pair@KV?$basic_string@DU?$char_traits@D@std@@V?$allocator@D@2@@std@@@std@@V?$allocator@U?$pair@KV?$basic_string@DU?$char_traits@D@std@@V?$allocator@D@2@@std@@@std@@@2@@std@@QAE@XZ ; std::vector<std::pair<unsigned long,std::basic_string<char,std::char_traits<char>,std::allocator<char> > >,std::allocator<std::pair<unsigned long,std::basic_string<char,std::char_traits<char>,std::allocator<char> > > > >::~vector<std::pair<unsigned long,std::basic_string<char,std::char_traits<char>,std::allocator<char> > >,std::allocator<std::pair<unsigned long,std::basic_string<char,std::char_traits<char>,std::allocator<char> > > > >
??__Fgs_kVct_crcPair@@YAXXZ ENDP			; `dynamic atexit destructor for 'gs_kVct_crcPair''
text$yd	ENDS
; Function compile flags: /Ogtp
; File C:\Program Files\Microsoft Visual Studio\2022\Community\VC\Tools\MSVC\14.34.31933\include\xstring
; File C:\Program Files\Microsoft Visual Studio\2022\Community\VC\Tools\MSVC\14.34.31933\include\xmemory
; File C:\Program Files\Microsoft Visual Studio\2022\Community\VC\Tools\MSVC\14.34.31933\include\xstring
; File C:\Program Files\Microsoft Visual Studio\2022\Community\VC\Tools\MSVC\14.34.31933\include\xmemory
; File C:\Program Files\Microsoft Visual Studio\2022\Community\VC\Tools\MSVC\14.34.31933\include\xstring
; File C:\Program Files\Microsoft Visual Studio\2022\Community\VC\Tools\MSVC\14.34.31933\include\xmemory
;	COMDAT ??1?$pair@KV?$basic_string@DU?$char_traits@D@std@@V?$allocator@D@2@@std@@@std@@QAE@XZ
_TEXT	SEGMENT
??1?$pair@KV?$basic_string@DU?$char_traits@D@std@@V?$allocator@D@2@@std@@@std@@QAE@XZ PROC ; std::pair<unsigned long,std::basic_string<char,std::char_traits<char>,std::allocator<char> > >::~pair<unsigned long,std::basic_string<char,std::char_traits<char>,std::allocator<char> > >, COMDAT
; _this$ = ecx
; File C:\Program Files\Microsoft Visual Studio\2022\Community\VC\Tools\MSVC\14.34.31933\include\xstring

; 2301 :         return _BUF_SIZE <= _Myres;

  00000	56		 push	 esi
  00001	8b f1		 mov	 esi, ecx
  00003	8b 4e 18	 mov	 ecx, DWORD PTR [esi+24]
  00006	83 f9 10	 cmp	 ecx, 16			; 00000010H

; 5008 :         if (_My_data._Large_string_engaged()) {

  00009	72 28		 jb	 SHORT $LN15@pair
; File C:\Program Files\Microsoft Visual Studio\2022\Community\VC\Tools\MSVC\14.34.31933\include\xmemory

; 830  :         _Deallocate<_New_alignof<_Ty>>(_Ptr, sizeof(_Ty) * _Count);

  0000b	8b 46 04	 mov	 eax, DWORD PTR [esi+4]
; File C:\Program Files\Microsoft Visual Studio\2022\Community\VC\Tools\MSVC\14.34.31933\include\xstring

; 5013 :             _Al.deallocate(_Ptr, _My_data._Myres + 1);

  0000e	41		 inc	 ecx
; File C:\Program Files\Microsoft Visual Studio\2022\Community\VC\Tools\MSVC\14.34.31933\include\xmemory

; 251  :         if (_Bytes >= _Big_allocation_threshold) { // boost the alignment of big allocations to help autovectorization

  0000f	81 f9 00 10 00
	00		 cmp	 ecx, 4096		; 00001000H
  00015	72 12		 jb	 SHORT $LN27@pair

; 150  :     const uintptr_t _Ptr_container   = _Ptr_user[-1];

  00017	8b 50 fc	 mov	 edx, DWORD PTR [eax-4]
  0001a	83 c1 23	 add	 ecx, 35			; 00000023H

; 151  : 
; 152  :     // If the following asserts, it likely means that we are performing
; 153  :     // an aligned delete on memory coming from an unaligned allocation.
; 154  :     _STL_ASSERT(_Ptr_user[-2] == _Big_allocation_sentinel, "invalid argument");
; 155  : 
; 156  :     // Extra paranoia on aligned allocation/deallocation; ensure _Ptr_container is
; 157  :     // in range [_Min_back_shift, _Non_user_size]
; 158  : #ifdef _DEBUG
; 159  :     constexpr uintptr_t _Min_back_shift = 2 * sizeof(void*);
; 160  : #else // ^^^ _DEBUG ^^^ // vvv !_DEBUG vvv
; 161  :     constexpr uintptr_t _Min_back_shift = sizeof(void*);
; 162  : #endif // _DEBUG
; 163  :     const uintptr_t _Back_shift = reinterpret_cast<uintptr_t>(_Ptr) - _Ptr_container;

  0001d	2b c2		 sub	 eax, edx

; 164  :     _STL_VERIFY(_Back_shift >= _Min_back_shift && _Back_shift <= _Non_user_size, "invalid argument");

  0001f	83 c0 fc	 add	 eax, -4			; fffffffcH
  00022	83 f8 1f	 cmp	 eax, 31			; 0000001fH
  00025	77 20		 ja	 SHORT $LN24@pair

; 165  :     _Ptr = reinterpret_cast<void*>(_Ptr_container);

  00027	8b c2		 mov	 eax, edx
$LN27@pair:

; 255  :         ::operator delete(_Ptr, _Bytes);

  00029	51		 push	 ecx
  0002a	50		 push	 eax
  0002b	e8 00 00 00 00	 call	 ??3@YAXPAXI@Z		; operator delete
  00030	83 c4 08	 add	 esp, 8
$LN15@pair:
; File C:\Program Files\Microsoft Visual Studio\2022\Community\VC\Tools\MSVC\14.34.31933\include\xstring

; 5016 :         _My_data._Mysize = 0;

  00033	c7 46 14 00 00
	00 00		 mov	 DWORD PTR [esi+20], 0

; 5017 :         _My_data._Myres  = _BUF_SIZE - 1;

  0003a	c7 46 18 0f 00
	00 00		 mov	 DWORD PTR [esi+24], 15	; 0000000fH

; 5018 :         // the _Traits::assign is last so the codegen doesn't think the char write can alias this
; 5019 :         _Traits::assign(_My_data._Bx._Buf[0], _Elem());

  00041	c6 46 04 00	 mov	 BYTE PTR [esi+4], 0
  00045	5e		 pop	 esi
  00046	c3		 ret	 0
$LN24@pair:
; File C:\Program Files\Microsoft Visual Studio\2022\Community\VC\Tools\MSVC\14.34.31933\include\xmemory

; 164  :     _STL_VERIFY(_Back_shift >= _Min_back_shift && _Back_shift <= _Non_user_size, "invalid argument");

  00047	e8 00 00 00 00	 call	 __invalid_parameter_noinfo_noreturn
$LN33@pair:
  0004c	cc		 int	 3
??1?$pair@KV?$basic_string@DU?$char_traits@D@std@@V?$allocator@D@2@@std@@@std@@QAE@XZ ENDP ; std::pair<unsigned long,std::basic_string<char,std::char_traits<char>,std::allocator<char> > >::~pair<unsigned long,std::basic_string<char,std::char_traits<char>,std::allocator<char> > >
_TEXT	ENDS
; Function compile flags: /Ogtp
; File C:\Program Files\Microsoft Visual Studio\2022\Community\VC\Tools\MSVC\14.34.31933\include\vector
; File C:\Program Files\Microsoft Visual Studio\2022\Community\VC\Tools\MSVC\14.34.31933\include\xmemory
; File C:\Program Files\Microsoft Visual Studio\2022\Community\VC\Tools\MSVC\14.34.31933\include\vector
; File C:\Program Files\Microsoft Visual Studio\2022\Community\VC\Tools\MSVC\14.34.31933\include\xmemory
; File C:\Program Files\Microsoft Visual Studio\2022\Community\VC\Tools\MSVC\14.34.31933\include\vector
; File C:\Program Files\Microsoft Visual Studio\2022\Community\VC\Tools\MSVC\14.34.31933\include\xmemory
; File C:\Program Files\Microsoft Visual Studio\2022\Community\VC\Tools\MSVC\14.34.31933\include\vector
;	COMDAT ??1?$vector@U?$pair@KV?$basic_string@DU?$char_traits@D@std@@V?$allocator@D@2@@std@@@std@@V?$allocator@U?$pair@KV?$basic_string@DU?$char_traits@D@std@@V?$allocator@D@2@@std@@@std@@@2@@std@@QAE@XZ
_TEXT	SEGMENT
??1?$vector@U?$pair@KV?$basic_string@DU?$char_traits@D@std@@V?$allocator@D@2@@std@@@std@@V?$allocator@U?$pair@KV?$basic_string@DU?$char_traits@D@std@@V?$allocator@D@2@@std@@@std@@@2@@std@@QAE@XZ PROC ; std::vector<std::pair<unsigned long,std::basic_string<char,std::char_traits<char>,std::allocator<char> > >,std::allocator<std::pair<unsigned long,std::basic_string<char,std::char_traits<char>,std::allocator<char> > > > >::~vector<std::pair<unsigned long,std::basic_string<char,std::char_traits<char>,std::allocator<char> > >,std::allocator<std::pair<unsigned long,std::basic_string<char,std::char_traits<char>,std::allocator<char> > > > >, COMDAT
; _this$ = ecx

; 829  :     _CONSTEXPR20 ~vector() noexcept {

  00000	56		 push	 esi
  00001	8b f1		 mov	 esi, ecx

; 2107 :         if (_Myfirst) { // destroy and deallocate old array

  00003	8b 0e		 mov	 ecx, DWORD PTR [esi]
  00005	85 c9		 test	 ecx, ecx
  00007	74 62		 je	 SHORT $LN4@vector

; 2108 :             _Destroy_range(_Myfirst, _Mylast, _Al);

  00009	8b 56 04	 mov	 edx, DWORD PTR [esi+4]
  0000c	51		 push	 ecx
  0000d	e8 00 00 00 00	 call	 ??$_Destroy_range@V?$allocator@U?$pair@KV?$basic_string@DU?$char_traits@D@std@@V?$allocator@D@2@@std@@@std@@@std@@@std@@YAXPAU?$pair@KV?$basic_string@DU?$char_traits@D@std@@V?$allocator@D@2@@std@@@0@QAU10@AAV?$allocator@U?$pair@KV?$basic_string@DU?$char_traits@D@std@@V?$allocator@D@2@@std@@@std@@@0@@Z ; std::_Destroy_range<std::allocator<std::pair<unsigned long,std::basic_string<char,std::char_traits<char>,std::allocator<char> > > > >

; 2109 :             _ASAN_VECTOR_REMOVE;
; 2110 :             _Al.deallocate(_Myfirst, static_cast<size_type>(_Myend - _Myfirst));

  00012	8b 46 08	 mov	 eax, DWORD PTR [esi+8]
  00015	83 c4 04	 add	 esp, 4
  00018	8b 0e		 mov	 ecx, DWORD PTR [esi]
  0001a	2b c1		 sub	 eax, ecx
  0001c	c1 f8 02	 sar	 eax, 2
  0001f	69 c0 b7 6d db
	b6		 imul	 eax, eax, -1227133513
; File C:\Program Files\Microsoft Visual Studio\2022\Community\VC\Tools\MSVC\14.34.31933\include\xmemory

; 830  :         _Deallocate<_New_alignof<_Ty>>(_Ptr, sizeof(_Ty) * _Count);

  00025	8d 14 c5 00 00
	00 00		 lea	 edx, DWORD PTR [eax*8]
  0002c	2b d0		 sub	 edx, eax
  0002e	c1 e2 02	 shl	 edx, 2

; 251  :         if (_Bytes >= _Big_allocation_threshold) { // boost the alignment of big allocations to help autovectorization

  00031	81 fa 00 10 00
	00		 cmp	 edx, 4096		; 00001000H
  00037	72 14		 jb	 SHORT $LN22@vector

; 147  :     _Bytes += _Non_user_size;

  00039	57		 push	 edi

; 148  : 
; 149  :     const uintptr_t* const _Ptr_user = static_cast<uintptr_t*>(_Ptr);
; 150  :     const uintptr_t _Ptr_container   = _Ptr_user[-1];

  0003a	8b 79 fc	 mov	 edi, DWORD PTR [ecx-4]
  0003d	83 c2 23	 add	 edx, 35			; 00000023H

; 151  : 
; 152  :     // If the following asserts, it likely means that we are performing
; 153  :     // an aligned delete on memory coming from an unaligned allocation.
; 154  :     _STL_ASSERT(_Ptr_user[-2] == _Big_allocation_sentinel, "invalid argument");
; 155  : 
; 156  :     // Extra paranoia on aligned allocation/deallocation; ensure _Ptr_container is
; 157  :     // in range [_Min_back_shift, _Non_user_size]
; 158  : #ifdef _DEBUG
; 159  :     constexpr uintptr_t _Min_back_shift = 2 * sizeof(void*);
; 160  : #else // ^^^ _DEBUG ^^^ // vvv !_DEBUG vvv
; 161  :     constexpr uintptr_t _Min_back_shift = sizeof(void*);
; 162  : #endif // _DEBUG
; 163  :     const uintptr_t _Back_shift = reinterpret_cast<uintptr_t>(_Ptr) - _Ptr_container;

  00040	2b cf		 sub	 ecx, edi

; 164  :     _STL_VERIFY(_Back_shift >= _Min_back_shift && _Back_shift <= _Non_user_size, "invalid argument");

  00042	8d 41 fc	 lea	 eax, DWORD PTR [ecx-4]
  00045	83 f8 1f	 cmp	 eax, 31			; 0000001fH
  00048	77 23		 ja	 SHORT $LN19@vector

; 165  :     _Ptr = reinterpret_cast<void*>(_Ptr_container);

  0004a	8b cf		 mov	 ecx, edi
  0004c	5f		 pop	 edi
$LN22@vector:

; 255  :         ::operator delete(_Ptr, _Bytes);

  0004d	52		 push	 edx
  0004e	51		 push	 ecx
  0004f	e8 00 00 00 00	 call	 ??3@YAXPAXI@Z		; operator delete
; File C:\Program Files\Microsoft Visual Studio\2022\Community\VC\Tools\MSVC\14.34.31933\include\vector

; 2112 :             _Myfirst = nullptr;

  00054	c7 06 00 00 00
	00		 mov	 DWORD PTR [esi], 0
; File C:\Program Files\Microsoft Visual Studio\2022\Community\VC\Tools\MSVC\14.34.31933\include\xmemory

; 255  :         ::operator delete(_Ptr, _Bytes);

  0005a	83 c4 08	 add	 esp, 8
; File C:\Program Files\Microsoft Visual Studio\2022\Community\VC\Tools\MSVC\14.34.31933\include\vector

; 2113 :             _Mylast  = nullptr;

  0005d	c7 46 04 00 00
	00 00		 mov	 DWORD PTR [esi+4], 0

; 2114 :             _Myend   = nullptr;

  00064	c7 46 08 00 00
	00 00		 mov	 DWORD PTR [esi+8], 0
$LN4@vector:
  0006b	5e		 pop	 esi

; 835  :     }

  0006c	c3		 ret	 0
$LN19@vector:
; File C:\Program Files\Microsoft Visual Studio\2022\Community\VC\Tools\MSVC\14.34.31933\include\xmemory

; 164  :     _STL_VERIFY(_Back_shift >= _Min_back_shift && _Back_shift <= _Non_user_size, "invalid argument");

  0006d	e8 00 00 00 00	 call	 __invalid_parameter_noinfo_noreturn
$LN27@vector:
  00072	cc		 int	 3
??1?$vector@U?$pair@KV?$basic_string@DU?$char_traits@D@std@@V?$allocator@D@2@@std@@@std@@V?$allocator@U?$pair@KV?$basic_string@DU?$char_traits@D@std@@V?$allocator@D@2@@std@@@std@@@2@@std@@QAE@XZ ENDP ; std::vector<std::pair<unsigned long,std::basic_string<char,std::char_traits<char>,std::allocator<char> > >,std::allocator<std::pair<unsigned long,std::basic_string<char,std::char_traits<char>,std::allocator<char> > > > >::~vector<std::pair<unsigned long,std::basic_string<char,std::char_traits<char>,std::allocator<char> > >,std::allocator<std::pair<unsigned long,std::basic_string<char,std::char_traits<char>,std::allocator<char> > > > >
_TEXT	ENDS
; Function compile flags: /Ogtp
; File C:\Program Files\Microsoft Visual Studio\2022\Community\VC\Tools\MSVC\14.34.31933\include\vector
;	COMDAT ?_Getal@?$vector@U?$pair@KV?$basic_string@DU?$char_traits@D@std@@V?$allocator@D@2@@std@@@std@@V?$allocator@U?$pair@KV?$basic_string@DU?$char_traits@D@std@@V?$allocator@D@2@@std@@@std@@@2@@std@@AAEAAV?$allocator@U?$pair@KV?$basic_string@DU?$char_traits@D@std@@V?$allocator@D@2@@std@@@std@@@2@XZ
_TEXT	SEGMENT
?_Getal@?$vector@U?$pair@KV?$basic_string@DU?$char_traits@D@std@@V?$allocator@D@2@@std@@@std@@V?$allocator@U?$pair@KV?$basic_string@DU?$char_traits@D@std@@V?$allocator@D@2@@std@@@std@@@2@@std@@AAEAAV?$allocator@U?$pair@KV?$basic_string@DU?$char_traits@D@std@@V?$allocator@D@2@@std@@@std@@@2@XZ PROC ; std::vector<std::pair<unsigned long,std::basic_string<char,std::char_traits<char>,std::allocator<char> > >,std::allocator<std::pair<unsigned long,std::basic_string<char,std::char_traits<char>,std::allocator<char> > > > >::_Getal, COMDAT
; _this$ = ecx

; 2244 :         return _Mypair._Get_first();

  00000	8b c1		 mov	 eax, ecx

; 2245 :     }

  00002	c3		 ret	 0
?_Getal@?$vector@U?$pair@KV?$basic_string@DU?$char_traits@D@std@@V?$allocator@D@2@@std@@@std@@V?$allocator@U?$pair@KV?$basic_string@DU?$char_traits@D@std@@V?$allocator@D@2@@std@@@std@@@2@@std@@AAEAAV?$allocator@U?$pair@KV?$basic_string@DU?$char_traits@D@std@@V?$allocator@D@2@@std@@@std@@@2@XZ ENDP ; std::vector<std::pair<unsigned long,std::basic_string<char,std::char_traits<char>,std::allocator<char> > >,std::allocator<std::pair<unsigned long,std::basic_string<char,std::char_traits<char>,std::allocator<char> > > > >::_Getal
_TEXT	ENDS
; Function compile flags: /Ogtp
; File C:\Program Files\Microsoft Visual Studio\2022\Community\VC\Tools\MSVC\14.34.31933\include\vector
; File C:\Program Files\Microsoft Visual Studio\2022\Community\VC\Tools\MSVC\14.34.31933\include\xmemory
; File C:\Program Files\Microsoft Visual Studio\2022\Community\VC\Tools\MSVC\14.34.31933\include\vector
; File C:\Program Files\Microsoft Visual Studio\2022\Community\VC\Tools\MSVC\14.34.31933\include\xmemory
; File C:\Program Files\Microsoft Visual Studio\2022\Community\VC\Tools\MSVC\14.34.31933\include\vector
; File C:\Program Files\Microsoft Visual Studio\2022\Community\VC\Tools\MSVC\14.34.31933\include\xmemory
; File C:\Program Files\Microsoft Visual Studio\2022\Community\VC\Tools\MSVC\14.34.31933\include\vector
;	COMDAT ?_Tidy@?$vector@U?$pair@KV?$basic_string@DU?$char_traits@D@std@@V?$allocator@D@2@@std@@@std@@V?$allocator@U?$pair@KV?$basic_string@DU?$char_traits@D@std@@V?$allocator@D@2@@std@@@std@@@2@@std@@AAEXXZ
_TEXT	SEGMENT
?_Tidy@?$vector@U?$pair@KV?$basic_string@DU?$char_traits@D@std@@V?$allocator@D@2@@std@@@std@@V?$allocator@U?$pair@KV?$basic_string@DU?$char_traits@D@std@@V?$allocator@D@2@@std@@@std@@@2@@std@@AAEXXZ PROC ; std::vector<std::pair<unsigned long,std::basic_string<char,std::char_traits<char>,std::allocator<char> > >,std::allocator<std::pair<unsigned long,std::basic_string<char,std::char_traits<char>,std::allocator<char> > > > >::_Tidy, COMDAT
; _this$ = ecx

; 2098 :     _CONSTEXPR20 void _Tidy() noexcept { // free all storage

  00000	56		 push	 esi
  00001	8b f1		 mov	 esi, ecx

; 2099 :         auto& _Al         = _Getal();
; 2100 :         auto& _My_data    = _Mypair._Myval2;
; 2101 :         pointer& _Myfirst = _My_data._Myfirst;
; 2102 :         pointer& _Mylast  = _My_data._Mylast;
; 2103 :         pointer& _Myend   = _My_data._Myend;
; 2104 : 
; 2105 :         _My_data._Orphan_all();
; 2106 : 
; 2107 :         if (_Myfirst) { // destroy and deallocate old array

  00003	8b 0e		 mov	 ecx, DWORD PTR [esi]
  00005	85 c9		 test	 ecx, ecx
  00007	74 62		 je	 SHORT $LN2@Tidy

; 2108 :             _Destroy_range(_Myfirst, _Mylast, _Al);

  00009	8b 56 04	 mov	 edx, DWORD PTR [esi+4]
  0000c	51		 push	 ecx
  0000d	e8 00 00 00 00	 call	 ??$_Destroy_range@V?$allocator@U?$pair@KV?$basic_string@DU?$char_traits@D@std@@V?$allocator@D@2@@std@@@std@@@std@@@std@@YAXPAU?$pair@KV?$basic_string@DU?$char_traits@D@std@@V?$allocator@D@2@@std@@@0@QAU10@AAV?$allocator@U?$pair@KV?$basic_string@DU?$char_traits@D@std@@V?$allocator@D@2@@std@@@std@@@0@@Z ; std::_Destroy_range<std::allocator<std::pair<unsigned long,std::basic_string<char,std::char_traits<char>,std::allocator<char> > > > >

; 2109 :             _ASAN_VECTOR_REMOVE;
; 2110 :             _Al.deallocate(_Myfirst, static_cast<size_type>(_Myend - _Myfirst));

  00012	8b 46 08	 mov	 eax, DWORD PTR [esi+8]
  00015	83 c4 04	 add	 esp, 4
  00018	8b 0e		 mov	 ecx, DWORD PTR [esi]
  0001a	2b c1		 sub	 eax, ecx
  0001c	c1 f8 02	 sar	 eax, 2
  0001f	69 c0 b7 6d db
	b6		 imul	 eax, eax, -1227133513
; File C:\Program Files\Microsoft Visual Studio\2022\Community\VC\Tools\MSVC\14.34.31933\include\xmemory

; 830  :         _Deallocate<_New_alignof<_Ty>>(_Ptr, sizeof(_Ty) * _Count);

  00025	8d 14 c5 00 00
	00 00		 lea	 edx, DWORD PTR [eax*8]
  0002c	2b d0		 sub	 edx, eax
  0002e	c1 e2 02	 shl	 edx, 2

; 251  :         if (_Bytes >= _Big_allocation_threshold) { // boost the alignment of big allocations to help autovectorization

  00031	81 fa 00 10 00
	00		 cmp	 edx, 4096		; 00001000H
  00037	72 14		 jb	 SHORT $LN20@Tidy

; 147  :     _Bytes += _Non_user_size;

  00039	57		 push	 edi

; 148  : 
; 149  :     const uintptr_t* const _Ptr_user = static_cast<uintptr_t*>(_Ptr);
; 150  :     const uintptr_t _Ptr_container   = _Ptr_user[-1];

  0003a	8b 79 fc	 mov	 edi, DWORD PTR [ecx-4]
  0003d	83 c2 23	 add	 edx, 35			; 00000023H

; 151  : 
; 152  :     // If the following asserts, it likely means that we are performing
; 153  :     // an aligned delete on memory coming from an unaligned allocation.
; 154  :     _STL_ASSERT(_Ptr_user[-2] == _Big_allocation_sentinel, "invalid argument");
; 155  : 
; 156  :     // Extra paranoia on aligned allocation/deallocation; ensure _Ptr_container is
; 157  :     // in range [_Min_back_shift, _Non_user_size]
; 158  : #ifdef _DEBUG
; 159  :     constexpr uintptr_t _Min_back_shift = 2 * sizeof(void*);
; 160  : #else // ^^^ _DEBUG ^^^ // vvv !_DEBUG vvv
; 161  :     constexpr uintptr_t _Min_back_shift = sizeof(void*);
; 162  : #endif // _DEBUG
; 163  :     const uintptr_t _Back_shift = reinterpret_cast<uintptr_t>(_Ptr) - _Ptr_container;

  00040	2b cf		 sub	 ecx, edi

; 164  :     _STL_VERIFY(_Back_shift >= _Min_back_shift && _Back_shift <= _Non_user_size, "invalid argument");

  00042	8d 41 fc	 lea	 eax, DWORD PTR [ecx-4]
  00045	83 f8 1f	 cmp	 eax, 31			; 0000001fH
  00048	77 23		 ja	 SHORT $LN17@Tidy

; 165  :     _Ptr = reinterpret_cast<void*>(_Ptr_container);

  0004a	8b cf		 mov	 ecx, edi
  0004c	5f		 pop	 edi
$LN20@Tidy:

; 255  :         ::operator delete(_Ptr, _Bytes);

  0004d	52		 push	 edx
  0004e	51		 push	 ecx
  0004f	e8 00 00 00 00	 call	 ??3@YAXPAXI@Z		; operator delete
; File C:\Program Files\Microsoft Visual Studio\2022\Community\VC\Tools\MSVC\14.34.31933\include\vector

; 2112 :             _Myfirst = nullptr;

  00054	c7 06 00 00 00
	00		 mov	 DWORD PTR [esi], 0
; File C:\Program Files\Microsoft Visual Studio\2022\Community\VC\Tools\MSVC\14.34.31933\include\xmemory

; 255  :         ::operator delete(_Ptr, _Bytes);

  0005a	83 c4 08	 add	 esp, 8
; File C:\Program Files\Microsoft Visual Studio\2022\Community\VC\Tools\MSVC\14.34.31933\include\vector

; 2113 :             _Mylast  = nullptr;

  0005d	c7 46 04 00 00
	00 00		 mov	 DWORD PTR [esi+4], 0

; 2114 :             _Myend   = nullptr;

  00064	c7 46 08 00 00
	00 00		 mov	 DWORD PTR [esi+8], 0
$LN2@Tidy:

; 2116 :     }

  0006b	5e		 pop	 esi
  0006c	c3		 ret	 0
$LN17@Tidy:
; File C:\Program Files\Microsoft Visual Studio\2022\Community\VC\Tools\MSVC\14.34.31933\include\xmemory

; 164  :     _STL_VERIFY(_Back_shift >= _Min_back_shift && _Back_shift <= _Non_user_size, "invalid argument");

  0006d	e8 00 00 00 00	 call	 __invalid_parameter_noinfo_noreturn
$LN24@Tidy:
  00072	cc		 int	 3
?_Tidy@?$vector@U?$pair@KV?$basic_string@DU?$char_traits@D@std@@V?$allocator@D@2@@std@@@std@@V?$allocator@U?$pair@KV?$basic_string@DU?$char_traits@D@std@@V?$allocator@D@2@@std@@@std@@@2@@std@@AAEXXZ ENDP ; std::vector<std::pair<unsigned long,std::basic_string<char,std::char_traits<char>,std::allocator<char> > >,std::allocator<std::pair<unsigned long,std::basic_string<char,std::char_traits<char>,std::allocator<char> > > > >::_Tidy
_TEXT	ENDS
; Function compile flags: /Ogtp
; File C:\Program Files\Microsoft Visual Studio\2022\Community\VC\Tools\MSVC\14.34.31933\include\xmemory
;	COMDAT ?_Get_first@?$_Compressed_pair@V?$allocator@U?$pair@KV?$basic_string@DU?$char_traits@D@std@@V?$allocator@D@2@@std@@@std@@@std@@V?$_Vector_val@U?$_Simple_types@U?$pair@KV?$basic_string@DU?$char_traits@D@std@@V?$allocator@D@2@@std@@@std@@@std@@@2@$00@std@@QAEAAV?$allocator@U?$pair@KV?$basic_string@DU?$char_traits@D@std@@V?$allocator@D@2@@std@@@std@@@2@XZ
_TEXT	SEGMENT
?_Get_first@?$_Compressed_pair@V?$allocator@U?$pair@KV?$basic_string@DU?$char_traits@D@std@@V?$allocator@D@2@@std@@@std@@@std@@V?$_Vector_val@U?$_Simple_types@U?$pair@KV?$basic_string@DU?$char_traits@D@std@@V?$allocator@D@2@@std@@@std@@@std@@@2@$00@std@@QAEAAV?$allocator@U?$pair@KV?$basic_string@DU?$char_traits@D@std@@V?$allocator@D@2@@std@@@std@@@2@XZ PROC ; std::_Compressed_pair<std::allocator<std::pair<unsigned long,std::basic_string<char,std::char_traits<char>,std::allocator<char> > > >,std::_Vector_val<std::_Simple_types<std::pair<unsigned long,std::basic_string<char,std::char_traits<char>,std::allocator<char> > > > >,1>::_Get_first, COMDAT
; _this$ = ecx

; 1384 :         return *this;

  00000	8b c1		 mov	 eax, ecx

; 1385 :     }

  00002	c3		 ret	 0
?_Get_first@?$_Compressed_pair@V?$allocator@U?$pair@KV?$basic_string@DU?$char_traits@D@std@@V?$allocator@D@2@@std@@@std@@@std@@V?$_Vector_val@U?$_Simple_types@U?$pair@KV?$basic_string@DU?$char_traits@D@std@@V?$allocator@D@2@@std@@@std@@@std@@@2@$00@std@@QAEAAV?$allocator@U?$pair@KV?$basic_string@DU?$char_traits@D@std@@V?$allocator@D@2@@std@@@std@@@2@XZ ENDP ; std::_Compressed_pair<std::allocator<std::pair<unsigned long,std::basic_string<char,std::char_traits<char>,std::allocator<char> > > >,std::_Vector_val<std::_Simple_types<std::pair<unsigned long,std::basic_string<char,std::char_traits<char>,std::allocator<char> > > > >,1>::_Get_first
_TEXT	ENDS
; Function compile flags: /Ogtp
; File C:\Program Files\Microsoft Visual Studio\2022\Community\VC\Tools\MSVC\14.34.31933\include\xmemory
;	COMDAT ?deallocate@?$allocator@U?$pair@KV?$basic_string@DU?$char_traits@D@std@@V?$allocator@D@2@@std@@@std@@@std@@QAEXQAU?$pair@KV?$basic_string@DU?$char_traits@D@std@@V?$allocator@D@2@@std@@@2@I@Z
_TEXT	SEGMENT
__Ptr$ = 8						; size = 4
__Count$ = 12						; size = 4
?deallocate@?$allocator@U?$pair@KV?$basic_string@DU?$char_traits@D@std@@V?$allocator@D@2@@std@@@std@@@std@@QAEXQAU?$pair@KV?$basic_string@DU?$char_traits@D@std@@V?$allocator@D@2@@std@@@2@I@Z PROC ; std::allocator<std::pair<unsigned long,std::basic_string<char,std::char_traits<char>,std::allocator<char> > > >::deallocate, COMDAT
; _this$dead$ = ecx

; 827  :     _CONSTEXPR20 void deallocate(_Ty* const _Ptr, const size_t _Count) {

  00000	55		 push	 ebp
  00001	8b ec		 mov	 ebp, esp

; 828  :         _STL_ASSERT(_Ptr != nullptr || _Count == 0, "null pointer cannot point to a block of non-zero size");
; 829  :         // no overflow check on the following multiply; we assume _Allocate did that check
; 830  :         _Deallocate<_New_alignof<_Ty>>(_Ptr, sizeof(_Ty) * _Count);

  00003	8b 45 0c	 mov	 eax, DWORD PTR __Count$[ebp]
  00006	8d 0c c5 00 00
	00 00		 lea	 ecx, DWORD PTR [eax*8]
  0000d	2b c8		 sub	 ecx, eax
  0000f	8b 45 08	 mov	 eax, DWORD PTR __Ptr$[ebp]
  00012	c1 e1 02	 shl	 ecx, 2

; 251  :         if (_Bytes >= _Big_allocation_threshold) { // boost the alignment of big allocations to help autovectorization

  00015	81 f9 00 10 00
	00		 cmp	 ecx, 4096		; 00001000H
  0001b	72 12		 jb	 SHORT $LN17@deallocate

; 150  :     const uintptr_t _Ptr_container   = _Ptr_user[-1];

  0001d	8b 50 fc	 mov	 edx, DWORD PTR [eax-4]
  00020	83 c1 23	 add	 ecx, 35			; 00000023H

; 151  : 
; 152  :     // If the following asserts, it likely means that we are performing
; 153  :     // an aligned delete on memory coming from an unaligned allocation.
; 154  :     _STL_ASSERT(_Ptr_user[-2] == _Big_allocation_sentinel, "invalid argument");
; 155  : 
; 156  :     // Extra paranoia on aligned allocation/deallocation; ensure _Ptr_container is
; 157  :     // in range [_Min_back_shift, _Non_user_size]
; 158  : #ifdef _DEBUG
; 159  :     constexpr uintptr_t _Min_back_shift = 2 * sizeof(void*);
; 160  : #else // ^^^ _DEBUG ^^^ // vvv !_DEBUG vvv
; 161  :     constexpr uintptr_t _Min_back_shift = sizeof(void*);
; 162  : #endif // _DEBUG
; 163  :     const uintptr_t _Back_shift = reinterpret_cast<uintptr_t>(_Ptr) - _Ptr_container;

  00023	2b c2		 sub	 eax, edx

; 164  :     _STL_VERIFY(_Back_shift >= _Min_back_shift && _Back_shift <= _Non_user_size, "invalid argument");

  00025	83 c0 fc	 add	 eax, -4			; fffffffcH
  00028	83 f8 1f	 cmp	 eax, 31			; 0000001fH
  0002b	77 10		 ja	 SHORT $LN14@deallocate

; 165  :     _Ptr = reinterpret_cast<void*>(_Ptr_container);

  0002d	8b c2		 mov	 eax, edx
$LN17@deallocate:

; 255  :         ::operator delete(_Ptr, _Bytes);

  0002f	51		 push	 ecx
  00030	50		 push	 eax
  00031	e8 00 00 00 00	 call	 ??3@YAXPAXI@Z		; operator delete
  00036	83 c4 08	 add	 esp, 8

; 831  :     }

  00039	5d		 pop	 ebp
  0003a	c2 08 00	 ret	 8
$LN14@deallocate:

; 164  :     _STL_VERIFY(_Back_shift >= _Min_back_shift && _Back_shift <= _Non_user_size, "invalid argument");

  0003d	e8 00 00 00 00	 call	 __invalid_parameter_noinfo_noreturn
$LN20@deallocate:
  00042	cc		 int	 3
?deallocate@?$allocator@U?$pair@KV?$basic_string@DU?$char_traits@D@std@@V?$allocator@D@2@@std@@@std@@@std@@QAEXQAU?$pair@KV?$basic_string@DU?$char_traits@D@std@@V?$allocator@D@2@@std@@@2@I@Z ENDP ; std::allocator<std::pair<unsigned long,std::basic_string<char,std::char_traits<char>,std::allocator<char> > > >::deallocate
_TEXT	ENDS
; Function compile flags: /Ogtp
; File C:\Program Files\Microsoft Visual Studio\2022\Community\VC\Tools\MSVC\14.34.31933\include\utility
;	COMDAT ??$make_pair@AAKAAK@std@@YA?AU?$pair@KK@0@AAK0@Z
_TEXT	SEGMENT
__Val2$ = 8						; size = 4
??$make_pair@AAKAAK@std@@YA?AU?$pair@KK@0@AAK0@Z PROC	; std::make_pair<unsigned long &,unsigned long &>, COMDAT
; ___$ReturnUdt$ = ecx
; __Val1$ = edx

; 443  :         is_nothrow_constructible_v<_Unrefwrap_t<_Ty2>, _Ty2>) /* strengthened */ {

  00000	55		 push	 ebp
  00001	8b ec		 mov	 ebp, esp

; 172  :         : first(_STD forward<_Other1>(_Val1)), second(_STD forward<_Other2>(_Val2)) {

  00003	8b 02		 mov	 eax, DWORD PTR [edx]
  00005	89 01		 mov	 DWORD PTR [ecx], eax
  00007	8b 45 08	 mov	 eax, DWORD PTR __Val2$[ebp]
  0000a	8b 00		 mov	 eax, DWORD PTR [eax]
  0000c	89 41 04	 mov	 DWORD PTR [ecx+4], eax

; 444  :     // return pair composed from arguments
; 445  :     using _Mypair = pair<_Unrefwrap_t<_Ty1>, _Unrefwrap_t<_Ty2>>;
; 446  :     return _Mypair(_STD forward<_Ty1>(_Val1), _STD forward<_Ty2>(_Val2));

  0000f	8b c1		 mov	 eax, ecx

; 447  : }

  00011	5d		 pop	 ebp
  00012	c3		 ret	 0
??$make_pair@AAKAAK@std@@YA?AU?$pair@KK@0@AAK0@Z ENDP	; std::make_pair<unsigned long &,unsigned long &>
_TEXT	ENDS
; Function compile flags: /Ogtp
; File C:\Program Files\Microsoft Visual Studio\2022\Community\VC\Tools\MSVC\14.34.31933\include\map
; File C:\Program Files\Microsoft Visual Studio\2022\Community\VC\Tools\MSVC\14.34.31933\include\xtree
; File C:\Program Files\Microsoft Visual Studio\2022\Community\VC\Tools\MSVC\14.34.31933\include\utility
; File C:\Program Files\Microsoft Visual Studio\2022\Community\VC\Tools\MSVC\14.34.31933\include\xtree
; File C:\Program Files\Microsoft Visual Studio\2022\Community\VC\Tools\MSVC\14.34.31933\include\xmemory
; File C:\Program Files\Microsoft Visual Studio\2022\Community\VC\Tools\MSVC\14.34.31933\include\xtree
; File C:\Program Files\Microsoft Visual Studio\2022\Community\VC\Tools\MSVC\14.34.31933\include\xmemory
; File C:\Program Files\Microsoft Visual Studio\2022\Community\VC\Tools\MSVC\14.34.31933\include\utility
; File C:\Program Files\Microsoft Visual Studio\2022\Community\VC\Tools\MSVC\14.34.31933\include\xmemory
; File C:\Program Files\Microsoft Visual Studio\2022\Community\VC\Tools\MSVC\14.34.31933\include\utility
; File C:\Program Files\Microsoft Visual Studio\2022\Community\VC\Tools\MSVC\14.34.31933\include\xtree
; File C:\Program Files\Microsoft Visual Studio\2022\Community\VC\Tools\MSVC\14.34.31933\include\utility
; File C:\Program Files\Microsoft Visual Studio\2022\Community\VC\Tools\MSVC\14.34.31933\include\map
; File C:\Program Files\Microsoft Visual Studio\2022\Community\VC\Tools\MSVC\14.34.31933\include\xtree
; File C:\Program Files\Microsoft Visual Studio\2022\Community\VC\Tools\MSVC\14.34.31933\include\map
;	COMDAT ??$insert@U?$pair@KK@std@@$0A@@?$map@KKU?$less@K@std@@V?$allocator@U?$pair@$$CBKK@std@@@2@@std@@QAE?AU?$pair@V?$_Tree_iterator@V?$_Tree_val@U?$_Tree_simple_types@U?$pair@$$CBKK@std@@@std@@@std@@@std@@_N@1@$$QAU?$pair@KK@1@@Z
_TEXT	SEGMENT
__Loc$3 = -36						; size = 12
$T4 = -24						; size = 12
$T5 = -20						; size = 8
__$EHRec$ = -12						; size = 12
___$ReturnUdt$ = 8					; size = 4
__Val$ = 12						; size = 4
??$insert@U?$pair@KK@std@@$0A@@?$map@KKU?$less@K@std@@V?$allocator@U?$pair@$$CBKK@std@@@2@@std@@QAE?AU?$pair@V?$_Tree_iterator@V?$_Tree_val@U?$_Tree_simple_types@U?$pair@$$CBKK@std@@@std@@@std@@@std@@_N@1@$$QAU?$pair@KK@1@@Z PROC ; std::map<unsigned long,unsigned long,std::less<unsigned long>,std::allocator<std::pair<unsigned long const ,unsigned long> > >::insert<std::pair<unsigned long,unsigned long>,0>, COMDAT
; _this$ = ecx

; 184  :     pair<iterator, bool> insert(_Valty&& _Val) {

  00000	55		 push	 ebp
  00001	8b ec		 mov	 ebp, esp
  00003	6a ff		 push	 -1
  00005	68 00 00 00 00	 push	 __ehhandler$??$insert@U?$pair@KK@std@@$0A@@?$map@KKU?$less@K@std@@V?$allocator@U?$pair@$$CBKK@std@@@2@@std@@QAE?AU?$pair@V?$_Tree_iterator@V?$_Tree_val@U?$_Tree_simple_types@U?$pair@$$CBKK@std@@@std@@@std@@@std@@_N@1@$$QAU?$pair@KK@1@@Z
  0000a	64 a1 00 00 00
	00		 mov	 eax, DWORD PTR fs:0
  00010	50		 push	 eax
  00011	83 ec 1c	 sub	 esp, 28			; 0000001cH
  00014	53		 push	 ebx
  00015	56		 push	 esi
  00016	57		 push	 edi
  00017	a1 00 00 00 00	 mov	 eax, DWORD PTR ___security_cookie
  0001c	33 c5		 xor	 eax, ebp
  0001e	50		 push	 eax
  0001f	8d 45 f4	 lea	 eax, DWORD PTR __$EHRec$[ebp]
  00022	64 a3 00 00 00
	00		 mov	 DWORD PTR fs:0, eax
  00028	8b f9		 mov	 edi, ecx
; File C:\Program Files\Microsoft Visual Studio\2022\Community\VC\Tools\MSVC\14.34.31933\include\xtree

; 1001 :             _Loc                = _Find_lower_bound(_Keyval);

  0002a	8b 5d 0c	 mov	 ebx, DWORD PTR __Val$[ebp]
  0002d	8d 45 e8	 lea	 eax, DWORD PTR $T4[ebp]
  00030	53		 push	 ebx
  00031	50		 push	 eax
  00032	e8 00 00 00 00	 call	 ??$_Find_lower_bound@K@?$_Tree@V?$_Tmap_traits@KKU?$less@K@std@@V?$allocator@U?$pair@$$CBKK@std@@@2@$0A@@std@@@std@@IBE?AU?$_Tree_find_result@PAU?$_Tree_node@U?$pair@$$CBKK@std@@PAX@std@@@1@ABK@Z ; std::_Tree<std::_Tmap_traits<unsigned long,unsigned long,std::less<unsigned long>,std::allocator<std::pair<unsigned long const ,unsigned long> >,0> >::_Find_lower_bound<unsigned long>
  00037	8b 48 08	 mov	 ecx, DWORD PTR [eax+8]
  0003a	f3 0f 7e 00	 movq	 xmm0, QWORD PTR [eax]
  0003e	66 0f d6 45 dc	 movq	 QWORD PTR __Loc$3[ebp], xmm0

; 1605 :         return !_Bound->_Isnil && !_DEBUG_LT_PRED(_Getcomp(), _Keyval, _Traits::_Kfn(_Bound->_Myval));

  00043	80 79 0d 00	 cmp	 BYTE PTR [ecx+13], 0
  00047	75 0b		 jne	 SHORT $LN6@insert
  00049	8b 03		 mov	 eax, DWORD PTR [ebx]
  0004b	3b 41 10	 cmp	 eax, DWORD PTR [ecx+16]
  0004e	72 04		 jb	 SHORT $LN6@insert
; File C:\Program Files\Microsoft Visual Studio\2022\Community\VC\Tools\MSVC\14.34.31933\include\utility

; 172  :         : first(_STD forward<_Other1>(_Val1)), second(_STD forward<_Other2>(_Val2)) {

  00050	32 d2		 xor	 dl, dl
; File C:\Program Files\Microsoft Visual Studio\2022\Community\VC\Tools\MSVC\14.34.31933\include\xtree

; 1003 :                 return {_Loc._Bound, false};

  00052	eb 51		 jmp	 SHORT $LN94@insert
$LN6@insert:

; 1629 :         if (max_size() == _Get_scary()->_Mysize) {

  00054	81 7f 04 aa aa
	aa 0a		 cmp	 DWORD PTR [edi+4], 178956970 ; 0aaaaaaaH
  0005b	74 64		 je	 SHORT $LN112@insert

; 1007 :             _Inserted = _Tree_temp_node<_Alnode>(_Getal(), _Scary->_Myhead, _STD forward<_Valtys>(_Vals)...)._Release();

  0005d	8b 37		 mov	 esi, DWORD PTR [edi]
; File C:\Program Files\Microsoft Visual Studio\2022\Community\VC\Tools\MSVC\14.34.31933\include\xmemory

; 1005 :     _CONSTEXPR20 explicit _Alloc_construct_ptr(_Alloc& _Al_) : _Al(_Al_), _Ptr(nullptr) {}

  0005f	89 7d ec	 mov	 DWORD PTR $T5[ebp], edi
; File C:\Program Files\Microsoft Visual Studio\2022\Community\VC\Tools\MSVC\14.34.31933\include\xtree

; 785  :     explicit _Tree_temp_node_alloc(_Alnode& _Al_) : _Alloc_construct_ptr<_Alnode>(_Al_) {

  00062	c7 45 fc 00 00
	00 00		 mov	 DWORD PTR __$EHRec$[ebp+8], 0
; File C:\Program Files\Microsoft Visual Studio\2022\Community\VC\Tools\MSVC\14.34.31933\include\xmemory

; 77   :         return ::operator new(_Bytes);

  00069	6a 18		 push	 24			; 00000018H

; 1012 :         _Ptr = nullptr; // if allocate throws, prevents double-free

  0006b	c7 45 f0 00 00
	00 00		 mov	 DWORD PTR $T5[ebp+4], 0

; 77   :         return ::operator new(_Bytes);

  00072	e8 00 00 00 00	 call	 ??2@YAPAXI@Z		; operator new
; File C:\Program Files\Microsoft Visual Studio\2022\Community\VC\Tools\MSVC\14.34.31933\include\utility

; 200  :         : first(_STD forward<_Other1>(_Right.first)), second(_STD forward<_Other2>(_Right.second)) {}

  00077	8b 0b		 mov	 ecx, DWORD PTR [ebx]
; File C:\Program Files\Microsoft Visual Studio\2022\Community\VC\Tools\MSVC\14.34.31933\include\xmemory

; 77   :         return ::operator new(_Bytes);

  00079	83 c4 04	 add	 esp, 4
; File C:\Program Files\Microsoft Visual Studio\2022\Community\VC\Tools\MSVC\14.34.31933\include\utility

; 200  :         : first(_STD forward<_Other1>(_Right.first)), second(_STD forward<_Other2>(_Right.second)) {}

  0007c	89 48 10	 mov	 DWORD PTR [eax+16], ecx
; File C:\Program Files\Microsoft Visual Studio\2022\Community\VC\Tools\MSVC\14.34.31933\include\xtree

; 808  :         _Construct_in_place(this->_Ptr->_Left, _Myhead);

  0007f	8b 4b 04	 mov	 ecx, DWORD PTR [ebx+4]
  00082	89 48 14	 mov	 DWORD PTR [eax+20], ecx

; 1026 :         return {_Scary->_Insert_node(_Loc._Location, _Inserted), true};

  00085	8b cf		 mov	 ecx, edi
  00087	50		 push	 eax
  00088	ff 75 e0	 push	 DWORD PTR __Loc$3[ebp+4]

; 808  :         _Construct_in_place(this->_Ptr->_Left, _Myhead);

  0008b	89 30		 mov	 DWORD PTR [eax], esi

; 1026 :         return {_Scary->_Insert_node(_Loc._Location, _Inserted), true};

  0008d	ff 75 dc	 push	 DWORD PTR __Loc$3[ebp]

; 809  :         _Construct_in_place(this->_Ptr->_Parent, _Myhead);

  00090	89 70 04	 mov	 DWORD PTR [eax+4], esi

; 810  :         _Construct_in_place(this->_Ptr->_Right, _Myhead);

  00093	89 70 08	 mov	 DWORD PTR [eax+8], esi

; 811  :         this->_Ptr->_Color = _Red;

  00096	66 c7 40 0c 00
	00		 mov	 WORD PTR [eax+12], 0

; 1026 :         return {_Scary->_Insert_node(_Loc._Location, _Inserted), true};

  0009c	e8 00 00 00 00	 call	 ?_Insert_node@?$_Tree_val@U?$_Tree_simple_types@U?$pair@$$CBKK@std@@@std@@@std@@QAEPAU?$_Tree_node@U?$pair@$$CBKK@std@@PAX@2@U?$_Tree_id@PAU?$_Tree_node@U?$pair@$$CBKK@std@@PAX@std@@@2@QAU32@@Z ; std::_Tree_val<std::_Tree_simple_types<std::pair<unsigned long const ,unsigned long> > >::_Insert_node
; File C:\Program Files\Microsoft Visual Studio\2022\Community\VC\Tools\MSVC\14.34.31933\include\utility

; 172  :         : first(_STD forward<_Other1>(_Val1)), second(_STD forward<_Other2>(_Val2)) {

  000a1	8b c8		 mov	 ecx, eax
  000a3	b2 01		 mov	 dl, 1
$LN94@insert:
  000a5	8b 45 08	 mov	 eax, DWORD PTR ___$ReturnUdt$[ebp]
  000a8	89 08		 mov	 DWORD PTR [eax], ecx
  000aa	88 50 04	 mov	 BYTE PTR [eax+4], dl
; File C:\Program Files\Microsoft Visual Studio\2022\Community\VC\Tools\MSVC\14.34.31933\include\map

; 186  :     }

  000ad	8b 4d f4	 mov	 ecx, DWORD PTR __$EHRec$[ebp]
  000b0	64 89 0d 00 00
	00 00		 mov	 DWORD PTR fs:0, ecx
  000b7	59		 pop	 ecx
  000b8	5f		 pop	 edi
  000b9	5e		 pop	 esi
  000ba	5b		 pop	 ebx
  000bb	8b e5		 mov	 esp, ebp
  000bd	5d		 pop	 ebp
  000be	c2 08 00	 ret	 8
$LN112@insert:
; File C:\Program Files\Microsoft Visual Studio\2022\Community\VC\Tools\MSVC\14.34.31933\include\xtree

; 1630 :             _Throw_tree_length_error();

  000c1	e8 00 00 00 00	 call	 ?_Throw_tree_length_error@std@@YAXXZ ; std::_Throw_tree_length_error
$LN110@insert:
  000c6	cc		 int	 3
_TEXT	ENDS
;	COMDAT text$x
text$x	SEGMENT
__unwindfunclet$??$insert@U?$pair@KK@std@@$0A@@?$map@KKU?$less@K@std@@V?$allocator@U?$pair@$$CBKK@std@@@2@@std@@QAE?AU?$pair@V?$_Tree_iterator@V?$_Tree_val@U?$_Tree_simple_types@U?$pair@$$CBKK@std@@@std@@@std@@@std@@_N@1@$$QAU?$pair@KK@1@@Z$2:
  00000	8d 4d ec	 lea	 ecx, DWORD PTR $T5[ebp]
  00003	e9 00 00 00 00	 jmp	 ??1?$_Alloc_construct_ptr@V?$allocator@U?$_Tree_node@U?$pair@$$CBKK@std@@PAX@std@@@std@@@std@@QAE@XZ ; std::_Alloc_construct_ptr<std::allocator<std::_Tree_node<std::pair<unsigned long const ,unsigned long>,void *> > >::~_Alloc_construct_ptr<std::allocator<std::_Tree_node<std::pair<unsigned long const ,unsigned long>,void *> > >
  00008	cc		 int	 3
  00009	cc		 int	 3
  0000a	cc		 int	 3
  0000b	cc		 int	 3
  0000c	cc		 int	 3
__ehhandler$??$insert@U?$pair@KK@std@@$0A@@?$map@KKU?$less@K@std@@V?$allocator@U?$pair@$$CBKK@std@@@2@@std@@QAE?AU?$pair@V?$_Tree_iterator@V?$_Tree_val@U?$_Tree_simple_types@U?$pair@$$CBKK@std@@@std@@@std@@@std@@_N@1@$$QAU?$pair@KK@1@@Z:
  0000d	90		 npad	 1
  0000e	90		 npad	 1
  0000f	8b 54 24 08	 mov	 edx, DWORD PTR [esp+8]
  00013	8d 42 0c	 lea	 eax, DWORD PTR [edx+12]
  00016	8b 4a d4	 mov	 ecx, DWORD PTR [edx-44]
  00019	33 c8		 xor	 ecx, eax
  0001b	e8 00 00 00 00	 call	 @__security_check_cookie@4
  00020	b8 00 00 00 00	 mov	 eax, OFFSET __ehfuncinfo$??$insert@U?$pair@KK@std@@$0A@@?$map@KKU?$less@K@std@@V?$allocator@U?$pair@$$CBKK@std@@@2@@std@@QAE?AU?$pair@V?$_Tree_iterator@V?$_Tree_val@U?$_Tree_simple_types@U?$pair@$$CBKK@std@@@std@@@std@@@std@@_N@1@$$QAU?$pair@KK@1@@Z
  00025	e9 00 00 00 00	 jmp	 ___CxxFrameHandler3
text$x	ENDS
??$insert@U?$pair@KK@std@@$0A@@?$map@KKU?$less@K@std@@V?$allocator@U?$pair@$$CBKK@std@@@2@@std@@QAE?AU?$pair@V?$_Tree_iterator@V?$_Tree_val@U?$_Tree_simple_types@U?$pair@$$CBKK@std@@@std@@@std@@@std@@_N@1@$$QAU?$pair@KK@1@@Z ENDP ; std::map<unsigned long,unsigned long,std::less<unsigned long>,std::allocator<std::pair<unsigned long const ,unsigned long> > >::insert<std::pair<unsigned long,unsigned long>,0>
; Function compile flags: /Ogtp
; File C:\Program Files\Microsoft Visual Studio\2022\Community\VC\Tools\MSVC\14.34.31933\include\xmemory
; File C:\Program Files\Microsoft Visual Studio\2022\Community\VC\Tools\MSVC\14.34.31933\include\xstring
; File C:\Program Files\Microsoft Visual Studio\2022\Community\VC\Tools\MSVC\14.34.31933\include\xmemory
; File C:\Program Files\Microsoft Visual Studio\2022\Community\VC\Tools\MSVC\14.34.31933\include\xstring
; File C:\Program Files\Microsoft Visual Studio\2022\Community\VC\Tools\MSVC\14.34.31933\include\xmemory
; File C:\Program Files\Microsoft Visual Studio\2022\Community\VC\Tools\MSVC\14.34.31933\include\xstring
; File C:\Program Files\Microsoft Visual Studio\2022\Community\VC\Tools\MSVC\14.34.31933\include\xmemory
;	COMDAT ??$_Destroy_range@V?$allocator@U?$pair@KV?$basic_string@DU?$char_traits@D@std@@V?$allocator@D@2@@std@@@std@@@std@@@std@@YAXPAU?$pair@KV?$basic_string@DU?$char_traits@D@std@@V?$allocator@D@2@@std@@@0@QAU10@AAV?$allocator@U?$pair@KV?$basic_string@DU?$char_traits@D@std@@V?$allocator@D@2@@std@@@std@@@0@@Z
_TEXT	SEGMENT
__Al$dead$ = 8						; size = 4
??$_Destroy_range@V?$allocator@U?$pair@KV?$basic_string@DU?$char_traits@D@std@@V?$allocator@D@2@@std@@@std@@@std@@@std@@YAXPAU?$pair@KV?$basic_string@DU?$char_traits@D@std@@V?$allocator@D@2@@std@@@0@QAU10@AAV?$allocator@U?$pair@KV?$basic_string@DU?$char_traits@D@std@@V?$allocator@D@2@@std@@@std@@@0@@Z PROC ; std::_Destroy_range<std::allocator<std::pair<unsigned long,std::basic_string<char,std::char_traits<char>,std::allocator<char> > > > >, COMDAT
; __First$ = ecx
; __Last$ = edx

; 943  : _CONSTEXPR20 void _Destroy_range(_Alloc_ptr_t<_Alloc> _First, const _Alloc_ptr_t<_Alloc> _Last, _Alloc& _Al) noexcept {

  00000	57		 push	 edi
  00001	8b fa		 mov	 edi, edx

; 947  :         for (; _First != _Last; ++_First) {

  00003	3b cf		 cmp	 ecx, edi
  00005	74 54		 je	 SHORT $LN55@Destroy_ra
  00007	56		 push	 esi
  00008	8d 71 18	 lea	 esi, DWORD PTR [ecx+24]
  0000b	0f 1f 44 00 00	 npad	 5
$LL4@Destroy_ra:
; File C:\Program Files\Microsoft Visual Studio\2022\Community\VC\Tools\MSVC\14.34.31933\include\xstring

; 2301 :         return _BUF_SIZE <= _Myres;

  00010	8b 0e		 mov	 ecx, DWORD PTR [esi]
  00012	83 f9 10	 cmp	 ecx, 16			; 00000010H

; 5008 :         if (_My_data._Large_string_engaged()) {

  00015	72 28		 jb	 SHORT $LN54@Destroy_ra
; File C:\Program Files\Microsoft Visual Studio\2022\Community\VC\Tools\MSVC\14.34.31933\include\xmemory

; 830  :         _Deallocate<_New_alignof<_Ty>>(_Ptr, sizeof(_Ty) * _Count);

  00017	8b 46 ec	 mov	 eax, DWORD PTR [esi-20]
; File C:\Program Files\Microsoft Visual Studio\2022\Community\VC\Tools\MSVC\14.34.31933\include\xstring

; 5013 :             _Al.deallocate(_Ptr, _My_data._Myres + 1);

  0001a	41		 inc	 ecx
; File C:\Program Files\Microsoft Visual Studio\2022\Community\VC\Tools\MSVC\14.34.31933\include\xmemory

; 251  :         if (_Bytes >= _Big_allocation_threshold) { // boost the alignment of big allocations to help autovectorization

  0001b	81 f9 00 10 00
	00		 cmp	 ecx, 4096		; 00001000H
  00021	72 12		 jb	 SHORT $LN40@Destroy_ra

; 150  :     const uintptr_t _Ptr_container   = _Ptr_user[-1];

  00023	8b 50 fc	 mov	 edx, DWORD PTR [eax-4]
  00026	83 c1 23	 add	 ecx, 35			; 00000023H

; 151  : 
; 152  :     // If the following asserts, it likely means that we are performing
; 153  :     // an aligned delete on memory coming from an unaligned allocation.
; 154  :     _STL_ASSERT(_Ptr_user[-2] == _Big_allocation_sentinel, "invalid argument");
; 155  : 
; 156  :     // Extra paranoia on aligned allocation/deallocation; ensure _Ptr_container is
; 157  :     // in range [_Min_back_shift, _Non_user_size]
; 158  : #ifdef _DEBUG
; 159  :     constexpr uintptr_t _Min_back_shift = 2 * sizeof(void*);
; 160  : #else // ^^^ _DEBUG ^^^ // vvv !_DEBUG vvv
; 161  :     constexpr uintptr_t _Min_back_shift = sizeof(void*);
; 162  : #endif // _DEBUG
; 163  :     const uintptr_t _Back_shift = reinterpret_cast<uintptr_t>(_Ptr) - _Ptr_container;

  00029	2b c2		 sub	 eax, edx

; 164  :     _STL_VERIFY(_Back_shift >= _Min_back_shift && _Back_shift <= _Non_user_size, "invalid argument");

  0002b	83 c0 fc	 add	 eax, -4			; fffffffcH
  0002e	83 f8 1f	 cmp	 eax, 31			; 0000001fH
  00031	77 2a		 ja	 SHORT $LN37@Destroy_ra

; 165  :     _Ptr = reinterpret_cast<void*>(_Ptr_container);

  00033	8b c2		 mov	 eax, edx
$LN40@Destroy_ra:

; 255  :         ::operator delete(_Ptr, _Bytes);

  00035	51		 push	 ecx
  00036	50		 push	 eax
  00037	e8 00 00 00 00	 call	 ??3@YAXPAXI@Z		; operator delete
  0003c	83 c4 08	 add	 esp, 8
$LN54@Destroy_ra:
; File C:\Program Files\Microsoft Visual Studio\2022\Community\VC\Tools\MSVC\14.34.31933\include\xstring

; 5016 :         _My_data._Mysize = 0;

  0003f	c7 46 fc 00 00
	00 00		 mov	 DWORD PTR [esi-4], 0

; 5017 :         _My_data._Myres  = _BUF_SIZE - 1;

  00046	c7 06 0f 00 00
	00		 mov	 DWORD PTR [esi], 15	; 0000000fH

; 5018 :         // the _Traits::assign is last so the codegen doesn't think the char write can alias this
; 5019 :         _Traits::assign(_My_data._Bx._Buf[0], _Elem());

  0004c	c6 46 ec 00	 mov	 BYTE PTR [esi-20], 0
; File C:\Program Files\Microsoft Visual Studio\2022\Community\VC\Tools\MSVC\14.34.31933\include\xmemory

; 947  :         for (; _First != _Last; ++_First) {

  00050	83 c6 1c	 add	 esi, 28			; 0000001cH
  00053	8d 46 e8	 lea	 eax, DWORD PTR [esi-24]
  00056	3b c7		 cmp	 eax, edi
  00058	75 b6		 jne	 SHORT $LL4@Destroy_ra
  0005a	5e		 pop	 esi
$LN55@Destroy_ra:
  0005b	5f		 pop	 edi

; 948  :             allocator_traits<_Alloc>::destroy(_Al, _Unfancy(_First));
; 949  :         }
; 950  :     }
; 951  : }

  0005c	c3		 ret	 0
$LN37@Destroy_ra:

; 164  :     _STL_VERIFY(_Back_shift >= _Min_back_shift && _Back_shift <= _Non_user_size, "invalid argument");

  0005d	e8 00 00 00 00	 call	 __invalid_parameter_noinfo_noreturn
$LN57@Destroy_ra:
  00062	cc		 int	 3
??$_Destroy_range@V?$allocator@U?$pair@KV?$basic_string@DU?$char_traits@D@std@@V?$allocator@D@2@@std@@@std@@@std@@@std@@YAXPAU?$pair@KV?$basic_string@DU?$char_traits@D@std@@V?$allocator@D@2@@std@@@0@QAU10@AAV?$allocator@U?$pair@KV?$basic_string@DU?$char_traits@D@std@@V?$allocator@D@2@@std@@@std@@@0@@Z ENDP ; std::_Destroy_range<std::allocator<std::pair<unsigned long,std::basic_string<char,std::char_traits<char>,std::allocator<char> > > > >
_TEXT	ENDS
; Function compile flags: /Ogtp
; File C:\Program Files\Microsoft Visual Studio\2022\Community\VC\Tools\MSVC\14.34.31933\include\utility
;	COMDAT ??$?0AAKAAK$0A@@?$pair@KK@std@@QAE@AAK0@Z
_TEXT	SEGMENT
__Val1$ = 8						; size = 4
__Val2$ = 12						; size = 4
??$?0AAKAAK$0A@@?$pair@KK@std@@QAE@AAK0@Z PROC		; std::pair<unsigned long,unsigned long>::pair<unsigned long,unsigned long><unsigned long &,unsigned long &,0>, COMDAT
; _this$ = ecx

; 172  :         : first(_STD forward<_Other1>(_Val1)), second(_STD forward<_Other2>(_Val2)) {

  00000	55		 push	 ebp
  00001	8b ec		 mov	 ebp, esp
  00003	8b 45 08	 mov	 eax, DWORD PTR __Val1$[ebp]
  00006	8b 00		 mov	 eax, DWORD PTR [eax]
  00008	89 01		 mov	 DWORD PTR [ecx], eax
  0000a	8b 45 0c	 mov	 eax, DWORD PTR __Val2$[ebp]
  0000d	8b 00		 mov	 eax, DWORD PTR [eax]
  0000f	89 41 04	 mov	 DWORD PTR [ecx+4], eax

; 173  :     }

  00012	8b c1		 mov	 eax, ecx
  00014	5d		 pop	 ebp
  00015	c2 08 00	 ret	 8
??$?0AAKAAK$0A@@?$pair@KK@std@@QAE@AAK0@Z ENDP		; std::pair<unsigned long,unsigned long>::pair<unsigned long,unsigned long><unsigned long &,unsigned long &,0>
_TEXT	ENDS
; Function compile flags: /Ogtp
; File C:\Program Files\Microsoft Visual Studio\2022\Community\VC\Tools\MSVC\14.34.31933\include\type_traits
;	COMDAT ??$forward@U?$pair@KK@std@@@std@@YA$$QAU?$pair@KK@0@AAU10@@Z
_TEXT	SEGMENT
??$forward@U?$pair@KK@std@@@std@@YA$$QAU?$pair@KK@0@AAU10@@Z PROC ; std::forward<std::pair<unsigned long,unsigned long> >, COMDAT
; __Arg$ = ecx

; 1426 :     return static_cast<_Ty&&>(_Arg);

  00000	8b c1		 mov	 eax, ecx

; 1427 : }

  00002	c3		 ret	 0
??$forward@U?$pair@KK@std@@@std@@YA$$QAU?$pair@KK@0@AAU10@@Z ENDP ; std::forward<std::pair<unsigned long,unsigned long> >
_TEXT	ENDS
; Function compile flags: /Ogtp
; File C:\Program Files\Microsoft Visual Studio\2022\Community\VC\Tools\MSVC\14.34.31933\include\xtree
; File C:\Program Files\Microsoft Visual Studio\2022\Community\VC\Tools\MSVC\14.34.31933\include\utility
; File C:\Program Files\Microsoft Visual Studio\2022\Community\VC\Tools\MSVC\14.34.31933\include\xtree
; File C:\Program Files\Microsoft Visual Studio\2022\Community\VC\Tools\MSVC\14.34.31933\include\xmemory
; File C:\Program Files\Microsoft Visual Studio\2022\Community\VC\Tools\MSVC\14.34.31933\include\xtree
; File C:\Program Files\Microsoft Visual Studio\2022\Community\VC\Tools\MSVC\14.34.31933\include\xmemory
; File C:\Program Files\Microsoft Visual Studio\2022\Community\VC\Tools\MSVC\14.34.31933\include\utility
; File C:\Program Files\Microsoft Visual Studio\2022\Community\VC\Tools\MSVC\14.34.31933\include\xmemory
; File C:\Program Files\Microsoft Visual Studio\2022\Community\VC\Tools\MSVC\14.34.31933\include\utility
; File C:\Program Files\Microsoft Visual Studio\2022\Community\VC\Tools\MSVC\14.34.31933\include\xtree
; File C:\Program Files\Microsoft Visual Studio\2022\Community\VC\Tools\MSVC\14.34.31933\include\utility
; File C:\Program Files\Microsoft Visual Studio\2022\Community\VC\Tools\MSVC\14.34.31933\include\xtree
;	COMDAT ??$emplace@U?$pair@KK@std@@@?$_Tree@V?$_Tmap_traits@KKU?$less@K@std@@V?$allocator@U?$pair@$$CBKK@std@@@2@$0A@@std@@@std@@QAE?AU?$pair@V?$_Tree_iterator@V?$_Tree_val@U?$_Tree_simple_types@U?$pair@$$CBKK@std@@@std@@@std@@@std@@_N@1@$$QAU?$pair@KK@1@@Z
_TEXT	SEGMENT
__Loc$2 = -36						; size = 12
$T3 = -24						; size = 12
$T4 = -20						; size = 8
__$EHRec$ = -12						; size = 12
___$ReturnUdt$ = 8					; size = 4
_<_Vals_0>$ = 12					; size = 4
??$emplace@U?$pair@KK@std@@@?$_Tree@V?$_Tmap_traits@KKU?$less@K@std@@V?$allocator@U?$pair@$$CBKK@std@@@2@$0A@@std@@@std@@QAE?AU?$pair@V?$_Tree_iterator@V?$_Tree_val@U?$_Tree_simple_types@U?$pair@$$CBKK@std@@@std@@@std@@@std@@_N@1@$$QAU?$pair@KK@1@@Z PROC ; std::_Tree<std::_Tmap_traits<unsigned long,unsigned long,std::less<unsigned long>,std::allocator<std::pair<unsigned long const ,unsigned long> >,0> >::emplace<std::pair<unsigned long,unsigned long> >, COMDAT
; _this$ = ecx

; 1031 :     pair<iterator, bool> emplace(_Valtys&&... _Vals) {

  00000	55		 push	 ebp
  00001	8b ec		 mov	 ebp, esp
  00003	6a ff		 push	 -1
  00005	68 00 00 00 00	 push	 __ehhandler$??$emplace@U?$pair@KK@std@@@?$_Tree@V?$_Tmap_traits@KKU?$less@K@std@@V?$allocator@U?$pair@$$CBKK@std@@@2@$0A@@std@@@std@@QAE?AU?$pair@V?$_Tree_iterator@V?$_Tree_val@U?$_Tree_simple_types@U?$pair@$$CBKK@std@@@std@@@std@@@std@@_N@1@$$QAU?$pair@KK@1@@Z
  0000a	64 a1 00 00 00
	00		 mov	 eax, DWORD PTR fs:0
  00010	50		 push	 eax
  00011	83 ec 1c	 sub	 esp, 28			; 0000001cH
  00014	53		 push	 ebx
  00015	56		 push	 esi
  00016	57		 push	 edi
  00017	a1 00 00 00 00	 mov	 eax, DWORD PTR ___security_cookie
  0001c	33 c5		 xor	 eax, ebp
  0001e	50		 push	 eax
  0001f	8d 45 f4	 lea	 eax, DWORD PTR __$EHRec$[ebp]
  00022	64 a3 00 00 00
	00		 mov	 DWORD PTR fs:0, eax
  00028	8b f9		 mov	 edi, ecx

; 1001 :             _Loc                = _Find_lower_bound(_Keyval);

  0002a	8b 5d 0c	 mov	 ebx, DWORD PTR _<_Vals_0>$[ebp]
  0002d	8d 45 e8	 lea	 eax, DWORD PTR $T3[ebp]
  00030	53		 push	 ebx
  00031	50		 push	 eax
  00032	e8 00 00 00 00	 call	 ??$_Find_lower_bound@K@?$_Tree@V?$_Tmap_traits@KKU?$less@K@std@@V?$allocator@U?$pair@$$CBKK@std@@@2@$0A@@std@@@std@@IBE?AU?$_Tree_find_result@PAU?$_Tree_node@U?$pair@$$CBKK@std@@PAX@std@@@1@ABK@Z ; std::_Tree<std::_Tmap_traits<unsigned long,unsigned long,std::less<unsigned long>,std::allocator<std::pair<unsigned long const ,unsigned long> >,0> >::_Find_lower_bound<unsigned long>
  00037	8b 48 08	 mov	 ecx, DWORD PTR [eax+8]
  0003a	f3 0f 7e 00	 movq	 xmm0, QWORD PTR [eax]
  0003e	66 0f d6 45 dc	 movq	 QWORD PTR __Loc$2[ebp], xmm0

; 1605 :         return !_Bound->_Isnil && !_DEBUG_LT_PRED(_Getcomp(), _Keyval, _Traits::_Kfn(_Bound->_Myval));

  00043	80 79 0d 00	 cmp	 BYTE PTR [ecx+13], 0
  00047	75 0b		 jne	 SHORT $LN4@emplace
  00049	8b 03		 mov	 eax, DWORD PTR [ebx]
  0004b	3b 41 10	 cmp	 eax, DWORD PTR [ecx+16]
  0004e	72 04		 jb	 SHORT $LN4@emplace
; File C:\Program Files\Microsoft Visual Studio\2022\Community\VC\Tools\MSVC\14.34.31933\include\utility

; 172  :         : first(_STD forward<_Other1>(_Val1)), second(_STD forward<_Other2>(_Val2)) {

  00050	32 d2		 xor	 dl, dl
; File C:\Program Files\Microsoft Visual Studio\2022\Community\VC\Tools\MSVC\14.34.31933\include\xtree

; 1003 :                 return {_Loc._Bound, false};

  00052	eb 51		 jmp	 SHORT $LN92@emplace
$LN4@emplace:

; 1629 :         if (max_size() == _Get_scary()->_Mysize) {

  00054	81 7f 04 aa aa
	aa 0a		 cmp	 DWORD PTR [edi+4], 178956970 ; 0aaaaaaaH
  0005b	74 64		 je	 SHORT $LN109@emplace

; 1007 :             _Inserted = _Tree_temp_node<_Alnode>(_Getal(), _Scary->_Myhead, _STD forward<_Valtys>(_Vals)...)._Release();

  0005d	8b 37		 mov	 esi, DWORD PTR [edi]
; File C:\Program Files\Microsoft Visual Studio\2022\Community\VC\Tools\MSVC\14.34.31933\include\xmemory

; 1005 :     _CONSTEXPR20 explicit _Alloc_construct_ptr(_Alloc& _Al_) : _Al(_Al_), _Ptr(nullptr) {}

  0005f	89 7d ec	 mov	 DWORD PTR $T4[ebp], edi
; File C:\Program Files\Microsoft Visual Studio\2022\Community\VC\Tools\MSVC\14.34.31933\include\xtree

; 785  :     explicit _Tree_temp_node_alloc(_Alnode& _Al_) : _Alloc_construct_ptr<_Alnode>(_Al_) {

  00062	c7 45 fc 00 00
	00 00		 mov	 DWORD PTR __$EHRec$[ebp+8], 0
; File C:\Program Files\Microsoft Visual Studio\2022\Community\VC\Tools\MSVC\14.34.31933\include\xmemory

; 77   :         return ::operator new(_Bytes);

  00069	6a 18		 push	 24			; 00000018H

; 1012 :         _Ptr = nullptr; // if allocate throws, prevents double-free

  0006b	c7 45 f0 00 00
	00 00		 mov	 DWORD PTR $T4[ebp+4], 0

; 77   :         return ::operator new(_Bytes);

  00072	e8 00 00 00 00	 call	 ??2@YAPAXI@Z		; operator new
; File C:\Program Files\Microsoft Visual Studio\2022\Community\VC\Tools\MSVC\14.34.31933\include\utility

; 200  :         : first(_STD forward<_Other1>(_Right.first)), second(_STD forward<_Other2>(_Right.second)) {}

  00077	8b 0b		 mov	 ecx, DWORD PTR [ebx]
; File C:\Program Files\Microsoft Visual Studio\2022\Community\VC\Tools\MSVC\14.34.31933\include\xmemory

; 77   :         return ::operator new(_Bytes);

  00079	83 c4 04	 add	 esp, 4
; File C:\Program Files\Microsoft Visual Studio\2022\Community\VC\Tools\MSVC\14.34.31933\include\utility

; 200  :         : first(_STD forward<_Other1>(_Right.first)), second(_STD forward<_Other2>(_Right.second)) {}

  0007c	89 48 10	 mov	 DWORD PTR [eax+16], ecx
; File C:\Program Files\Microsoft Visual Studio\2022\Community\VC\Tools\MSVC\14.34.31933\include\xtree

; 808  :         _Construct_in_place(this->_Ptr->_Left, _Myhead);

  0007f	8b 4b 04	 mov	 ecx, DWORD PTR [ebx+4]
  00082	89 48 14	 mov	 DWORD PTR [eax+20], ecx

; 1026 :         return {_Scary->_Insert_node(_Loc._Location, _Inserted), true};

  00085	8b cf		 mov	 ecx, edi
  00087	50		 push	 eax
  00088	ff 75 e0	 push	 DWORD PTR __Loc$2[ebp+4]

; 808  :         _Construct_in_place(this->_Ptr->_Left, _Myhead);

  0008b	89 30		 mov	 DWORD PTR [eax], esi

; 1026 :         return {_Scary->_Insert_node(_Loc._Location, _Inserted), true};

  0008d	ff 75 dc	 push	 DWORD PTR __Loc$2[ebp]

; 809  :         _Construct_in_place(this->_Ptr->_Parent, _Myhead);

  00090	89 70 04	 mov	 DWORD PTR [eax+4], esi

; 810  :         _Construct_in_place(this->_Ptr->_Right, _Myhead);

  00093	89 70 08	 mov	 DWORD PTR [eax+8], esi

; 811  :         this->_Ptr->_Color = _Red;

  00096	66 c7 40 0c 00
	00		 mov	 WORD PTR [eax+12], 0

; 1026 :         return {_Scary->_Insert_node(_Loc._Location, _Inserted), true};

  0009c	e8 00 00 00 00	 call	 ?_Insert_node@?$_Tree_val@U?$_Tree_simple_types@U?$pair@$$CBKK@std@@@std@@@std@@QAEPAU?$_Tree_node@U?$pair@$$CBKK@std@@PAX@2@U?$_Tree_id@PAU?$_Tree_node@U?$pair@$$CBKK@std@@PAX@std@@@2@QAU32@@Z ; std::_Tree_val<std::_Tree_simple_types<std::pair<unsigned long const ,unsigned long> > >::_Insert_node
; File C:\Program Files\Microsoft Visual Studio\2022\Community\VC\Tools\MSVC\14.34.31933\include\utility

; 172  :         : first(_STD forward<_Other1>(_Val1)), second(_STD forward<_Other2>(_Val2)) {

  000a1	8b c8		 mov	 ecx, eax
  000a3	b2 01		 mov	 dl, 1
$LN92@emplace:
  000a5	8b 45 08	 mov	 eax, DWORD PTR ___$ReturnUdt$[ebp]
  000a8	89 08		 mov	 DWORD PTR [eax], ecx
  000aa	88 50 04	 mov	 BYTE PTR [eax+4], dl
; File C:\Program Files\Microsoft Visual Studio\2022\Community\VC\Tools\MSVC\14.34.31933\include\xtree

; 1034 :     }

  000ad	8b 4d f4	 mov	 ecx, DWORD PTR __$EHRec$[ebp]
  000b0	64 89 0d 00 00
	00 00		 mov	 DWORD PTR fs:0, ecx
  000b7	59		 pop	 ecx
  000b8	5f		 pop	 edi
  000b9	5e		 pop	 esi
  000ba	5b		 pop	 ebx
  000bb	8b e5		 mov	 esp, ebp
  000bd	5d		 pop	 ebp
  000be	c2 08 00	 ret	 8
$LN109@emplace:

; 1630 :             _Throw_tree_length_error();

  000c1	e8 00 00 00 00	 call	 ?_Throw_tree_length_error@std@@YAXXZ ; std::_Throw_tree_length_error
$LN107@emplace:
  000c6	cc		 int	 3
_TEXT	ENDS
;	COMDAT text$x
text$x	SEGMENT
__unwindfunclet$??$emplace@U?$pair@KK@std@@@?$_Tree@V?$_Tmap_traits@KKU?$less@K@std@@V?$allocator@U?$pair@$$CBKK@std@@@2@$0A@@std@@@std@@QAE?AU?$pair@V?$_Tree_iterator@V?$_Tree_val@U?$_Tree_simple_types@U?$pair@$$CBKK@std@@@std@@@std@@@std@@_N@1@$$QAU?$pair@KK@1@@Z$2:
  00000	8d 4d ec	 lea	 ecx, DWORD PTR $T4[ebp]
  00003	e9 00 00 00 00	 jmp	 ??1?$_Alloc_construct_ptr@V?$allocator@U?$_Tree_node@U?$pair@$$CBKK@std@@PAX@std@@@std@@@std@@QAE@XZ ; std::_Alloc_construct_ptr<std::allocator<std::_Tree_node<std::pair<unsigned long const ,unsigned long>,void *> > >::~_Alloc_construct_ptr<std::allocator<std::_Tree_node<std::pair<unsigned long const ,unsigned long>,void *> > >
  00008	cc		 int	 3
  00009	cc		 int	 3
  0000a	cc		 int	 3
  0000b	cc		 int	 3
  0000c	cc		 int	 3
__ehhandler$??$emplace@U?$pair@KK@std@@@?$_Tree@V?$_Tmap_traits@KKU?$less@K@std@@V?$allocator@U?$pair@$$CBKK@std@@@2@$0A@@std@@@std@@QAE?AU?$pair@V?$_Tree_iterator@V?$_Tree_val@U?$_Tree_simple_types@U?$pair@$$CBKK@std@@@std@@@std@@@std@@_N@1@$$QAU?$pair@KK@1@@Z:
  0000d	90		 npad	 1
  0000e	90		 npad	 1
  0000f	8b 54 24 08	 mov	 edx, DWORD PTR [esp+8]
  00013	8d 42 0c	 lea	 eax, DWORD PTR [edx+12]
  00016	8b 4a d4	 mov	 ecx, DWORD PTR [edx-44]
  00019	33 c8		 xor	 ecx, eax
  0001b	e8 00 00 00 00	 call	 @__security_check_cookie@4
  00020	b8 00 00 00 00	 mov	 eax, OFFSET __ehfuncinfo$??$emplace@U?$pair@KK@std@@@?$_Tree@V?$_Tmap_traits@KKU?$less@K@std@@V?$allocator@U?$pair@$$CBKK@std@@@2@$0A@@std@@@std@@QAE?AU?$pair@V?$_Tree_iterator@V?$_Tree_val@U?$_Tree_simple_types@U?$pair@$$CBKK@std@@@std@@@std@@@std@@_N@1@$$QAU?$pair@KK@1@@Z
  00025	e9 00 00 00 00	 jmp	 ___CxxFrameHandler3
text$x	ENDS
??$emplace@U?$pair@KK@std@@@?$_Tree@V?$_Tmap_traits@KKU?$less@K@std@@V?$allocator@U?$pair@$$CBKK@std@@@2@$0A@@std@@@std@@QAE?AU?$pair@V?$_Tree_iterator@V?$_Tree_val@U?$_Tree_simple_types@U?$pair@$$CBKK@std@@@std@@@std@@@std@@_N@1@$$QAU?$pair@KK@1@@Z ENDP ; std::_Tree<std::_Tmap_traits<unsigned long,unsigned long,std::less<unsigned long>,std::allocator<std::pair<unsigned long const ,unsigned long> >,0> >::emplace<std::pair<unsigned long,unsigned long> >
; Function compile flags: /Ogtp
; File C:\Program Files\Microsoft Visual Studio\2022\Community\VC\Tools\MSVC\14.34.31933\include\xstddef
;	COMDAT ??$_Unfancy@U?$pair@KV?$basic_string@DU?$char_traits@D@std@@V?$allocator@D@2@@std@@@std@@@std@@YAPAU?$pair@KV?$basic_string@DU?$char_traits@D@std@@V?$allocator@D@2@@std@@@0@PAU10@@Z
_TEXT	SEGMENT
??$_Unfancy@U?$pair@KV?$basic_string@DU?$char_traits@D@std@@V?$allocator@D@2@@std@@@std@@@std@@YAPAU?$pair@KV?$basic_string@DU?$char_traits@D@std@@V?$allocator@D@2@@std@@@0@PAU10@@Z PROC ; std::_Unfancy<std::pair<unsigned long,std::basic_string<char,std::char_traits<char>,std::allocator<char> > > >, COMDAT
; __Ptr$ = ecx

; 294  :     return _Ptr;

  00000	8b c1		 mov	 eax, ecx

; 295  : }

  00002	c3		 ret	 0
??$_Unfancy@U?$pair@KV?$basic_string@DU?$char_traits@D@std@@V?$allocator@D@2@@std@@@std@@@std@@YAPAU?$pair@KV?$basic_string@DU?$char_traits@D@std@@V?$allocator@D@2@@std@@@0@PAU10@@Z ENDP ; std::_Unfancy<std::pair<unsigned long,std::basic_string<char,std::char_traits<char>,std::allocator<char> > > >
_TEXT	ENDS
; Function compile flags: /Ogtp
; File C:\Program Files\Microsoft Visual Studio\2022\Community\VC\Tools\MSVC\14.34.31933\include\xmemory
; File C:\Program Files\Microsoft Visual Studio\2022\Community\VC\Tools\MSVC\14.34.31933\include\xstring
; File C:\Program Files\Microsoft Visual Studio\2022\Community\VC\Tools\MSVC\14.34.31933\include\xmemory
; File C:\Program Files\Microsoft Visual Studio\2022\Community\VC\Tools\MSVC\14.34.31933\include\xstring
; File C:\Program Files\Microsoft Visual Studio\2022\Community\VC\Tools\MSVC\14.34.31933\include\xmemory
; File C:\Program Files\Microsoft Visual Studio\2022\Community\VC\Tools\MSVC\14.34.31933\include\xstring
; File C:\Program Files\Microsoft Visual Studio\2022\Community\VC\Tools\MSVC\14.34.31933\include\xmemory
;	COMDAT ??$destroy@U?$pair@KV?$basic_string@DU?$char_traits@D@std@@V?$allocator@D@2@@std@@@std@@@?$_Default_allocator_traits@V?$allocator@U?$pair@KV?$basic_string@DU?$char_traits@D@std@@V?$allocator@D@2@@std@@@std@@@std@@@std@@SAXAAV?$allocator@U?$pair@KV?$basic_string@DU?$char_traits@D@std@@V?$allocator@D@2@@std@@@std@@@1@QAU?$pair@KV?$basic_string@DU?$char_traits@D@std@@V?$allocator@D@2@@std@@@1@@Z
_TEXT	SEGMENT
??$destroy@U?$pair@KV?$basic_string@DU?$char_traits@D@std@@V?$allocator@D@2@@std@@@std@@@?$_Default_allocator_traits@V?$allocator@U?$pair@KV?$basic_string@DU?$char_traits@D@std@@V?$allocator@D@2@@std@@@std@@@std@@@std@@SAXAAV?$allocator@U?$pair@KV?$basic_string@DU?$char_traits@D@std@@V?$allocator@D@2@@std@@@std@@@1@QAU?$pair@KV?$basic_string@DU?$char_traits@D@std@@V?$allocator@D@2@@std@@@1@@Z PROC ; std::_Default_allocator_traits<std::allocator<std::pair<unsigned long,std::basic_string<char,std::char_traits<char>,std::allocator<char> > > > >::destroy<std::pair<unsigned long,std::basic_string<char,std::char_traits<char>,std::allocator<char> > > >, COMDAT
; ___formal$dead$ = ecx
; __Ptr$ = edx

; 685  :     static _CONSTEXPR20 void destroy(_Alloc&, _Uty* const _Ptr) {

  00000	56		 push	 esi
  00001	8b f2		 mov	 esi, edx
; File C:\Program Files\Microsoft Visual Studio\2022\Community\VC\Tools\MSVC\14.34.31933\include\xstring

; 2301 :         return _BUF_SIZE <= _Myres;

  00003	8b 4e 18	 mov	 ecx, DWORD PTR [esi+24]
  00006	83 f9 10	 cmp	 ecx, 16			; 00000010H

; 5008 :         if (_My_data._Large_string_engaged()) {

  00009	72 28		 jb	 SHORT $LN23@destroy
; File C:\Program Files\Microsoft Visual Studio\2022\Community\VC\Tools\MSVC\14.34.31933\include\xmemory

; 830  :         _Deallocate<_New_alignof<_Ty>>(_Ptr, sizeof(_Ty) * _Count);

  0000b	8b 46 04	 mov	 eax, DWORD PTR [esi+4]
; File C:\Program Files\Microsoft Visual Studio\2022\Community\VC\Tools\MSVC\14.34.31933\include\xstring

; 5013 :             _Al.deallocate(_Ptr, _My_data._Myres + 1);

  0000e	41		 inc	 ecx
; File C:\Program Files\Microsoft Visual Studio\2022\Community\VC\Tools\MSVC\14.34.31933\include\xmemory

; 251  :         if (_Bytes >= _Big_allocation_threshold) { // boost the alignment of big allocations to help autovectorization

  0000f	81 f9 00 10 00
	00		 cmp	 ecx, 4096		; 00001000H
  00015	72 12		 jb	 SHORT $LN35@destroy

; 150  :     const uintptr_t _Ptr_container   = _Ptr_user[-1];

  00017	8b 50 fc	 mov	 edx, DWORD PTR [eax-4]
  0001a	83 c1 23	 add	 ecx, 35			; 00000023H

; 151  : 
; 152  :     // If the following asserts, it likely means that we are performing
; 153  :     // an aligned delete on memory coming from an unaligned allocation.
; 154  :     _STL_ASSERT(_Ptr_user[-2] == _Big_allocation_sentinel, "invalid argument");
; 155  : 
; 156  :     // Extra paranoia on aligned allocation/deallocation; ensure _Ptr_container is
; 157  :     // in range [_Min_back_shift, _Non_user_size]
; 158  : #ifdef _DEBUG
; 159  :     constexpr uintptr_t _Min_back_shift = 2 * sizeof(void*);
; 160  : #else // ^^^ _DEBUG ^^^ // vvv !_DEBUG vvv
; 161  :     constexpr uintptr_t _Min_back_shift = sizeof(void*);
; 162  : #endif // _DEBUG
; 163  :     const uintptr_t _Back_shift = reinterpret_cast<uintptr_t>(_Ptr) - _Ptr_container;

  0001d	2b c2		 sub	 eax, edx

; 164  :     _STL_VERIFY(_Back_shift >= _Min_back_shift && _Back_shift <= _Non_user_size, "invalid argument");

  0001f	83 c0 fc	 add	 eax, -4			; fffffffcH
  00022	83 f8 1f	 cmp	 eax, 31			; 0000001fH
  00025	77 20		 ja	 SHORT $LN32@destroy

; 165  :     _Ptr = reinterpret_cast<void*>(_Ptr_container);

  00027	8b c2		 mov	 eax, edx
$LN35@destroy:

; 255  :         ::operator delete(_Ptr, _Bytes);

  00029	51		 push	 ecx
  0002a	50		 push	 eax
  0002b	e8 00 00 00 00	 call	 ??3@YAXPAXI@Z		; operator delete
  00030	83 c4 08	 add	 esp, 8
$LN23@destroy:
; File C:\Program Files\Microsoft Visual Studio\2022\Community\VC\Tools\MSVC\14.34.31933\include\xstring

; 5016 :         _My_data._Mysize = 0;

  00033	c7 46 14 00 00
	00 00		 mov	 DWORD PTR [esi+20], 0

; 5017 :         _My_data._Myres  = _BUF_SIZE - 1;

  0003a	c7 46 18 0f 00
	00 00		 mov	 DWORD PTR [esi+24], 15	; 0000000fH

; 5018 :         // the _Traits::assign is last so the codegen doesn't think the char write can alias this
; 5019 :         _Traits::assign(_My_data._Bx._Buf[0], _Elem());

  00041	c6 46 04 00	 mov	 BYTE PTR [esi+4], 0
  00045	5e		 pop	 esi
; File C:\Program Files\Microsoft Visual Studio\2022\Community\VC\Tools\MSVC\14.34.31933\include\xmemory

; 691  :     }

  00046	c3		 ret	 0
$LN32@destroy:

; 164  :     _STL_VERIFY(_Back_shift >= _Min_back_shift && _Back_shift <= _Non_user_size, "invalid argument");

  00047	e8 00 00 00 00	 call	 __invalid_parameter_noinfo_noreturn
$LN44@destroy:
  0004c	cc		 int	 3
??$destroy@U?$pair@KV?$basic_string@DU?$char_traits@D@std@@V?$allocator@D@2@@std@@@std@@@?$_Default_allocator_traits@V?$allocator@U?$pair@KV?$basic_string@DU?$char_traits@D@std@@V?$allocator@D@2@@std@@@std@@@std@@@std@@SAXAAV?$allocator@U?$pair@KV?$basic_string@DU?$char_traits@D@std@@V?$allocator@D@2@@std@@@std@@@1@QAU?$pair@KV?$basic_string@DU?$char_traits@D@std@@V?$allocator@D@2@@std@@@1@@Z ENDP ; std::_Default_allocator_traits<std::allocator<std::pair<unsigned long,std::basic_string<char,std::char_traits<char>,std::allocator<char> > > > >::destroy<std::pair<unsigned long,std::basic_string<char,std::char_traits<char>,std::allocator<char> > > >
_TEXT	ENDS
; Function compile flags: /Ogtp
; File C:\Program Files\Microsoft Visual Studio\2022\Community\VC\Tools\MSVC\14.34.31933\include\type_traits
;	COMDAT ??$forward@U?$pair@KV?$basic_string@DU?$char_traits@D@std@@V?$allocator@D@2@@std@@@std@@@std@@YA$$QAU?$pair@KV?$basic_string@DU?$char_traits@D@std@@V?$allocator@D@2@@std@@@0@AAU10@@Z
_TEXT	SEGMENT
??$forward@U?$pair@KV?$basic_string@DU?$char_traits@D@std@@V?$allocator@D@2@@std@@@std@@@std@@YA$$QAU?$pair@KV?$basic_string@DU?$char_traits@D@std@@V?$allocator@D@2@@std@@@0@AAU10@@Z PROC ; std::forward<std::pair<unsigned long,std::basic_string<char,std::char_traits<char>,std::allocator<char> > > >, COMDAT
; __Arg$ = ecx

; 1426 :     return static_cast<_Ty&&>(_Arg);

  00000	8b c1		 mov	 eax, ecx

; 1427 : }

  00002	c3		 ret	 0
??$forward@U?$pair@KV?$basic_string@DU?$char_traits@D@std@@V?$allocator@D@2@@std@@@std@@@std@@YA$$QAU?$pair@KV?$basic_string@DU?$char_traits@D@std@@V?$allocator@D@2@@std@@@0@AAU10@@Z ENDP ; std::forward<std::pair<unsigned long,std::basic_string<char,std::char_traits<char>,std::allocator<char> > > >
_TEXT	ENDS
; Function compile flags: /Ogtp
; File C:\Program Files\Microsoft Visual Studio\2022\Community\VC\Tools\MSVC\14.34.31933\include\xmemory
;	COMDAT ??$_Get_size_of_n@$0BM@@std@@YAII@Z
_TEXT	SEGMENT
??$_Get_size_of_n@$0BM@@std@@YAII@Z PROC		; std::_Get_size_of_n<28>, COMDAT
; __Count$dead$ = ecx

; 56   :     constexpr bool _Overflow_is_possible = _Ty_size > 1;
; 57   : 
; 58   :     if constexpr (_Overflow_is_possible) {
; 59   :         constexpr size_t _Max_possible = static_cast<size_t>(-1) / _Ty_size;
; 60   :         if (_Count > _Max_possible) {
; 61   :             _Throw_bad_array_new_length(); // multiply overflow
; 62   :         }
; 63   :     }
; 64   : 
; 65   :     return _Count * _Ty_size;

  00000	b8 1c 00 00 00	 mov	 eax, 28			; 0000001cH

; 66   : }

  00005	c3		 ret	 0
??$_Get_size_of_n@$0BM@@std@@YAII@Z ENDP		; std::_Get_size_of_n<28>
_TEXT	ENDS
; Function compile flags: /Ogtp
; File C:\Program Files\Microsoft Visual Studio\2022\Community\VC\Tools\MSVC\14.34.31933\include\xtree
; File C:\Program Files\Microsoft Visual Studio\2022\Community\VC\Tools\MSVC\14.34.31933\include\utility
; File C:\Program Files\Microsoft Visual Studio\2022\Community\VC\Tools\MSVC\14.34.31933\include\xtree
; File C:\Program Files\Microsoft Visual Studio\2022\Community\VC\Tools\MSVC\14.34.31933\include\xmemory
; File C:\Program Files\Microsoft Visual Studio\2022\Community\VC\Tools\MSVC\14.34.31933\include\xtree
; File C:\Program Files\Microsoft Visual Studio\2022\Community\VC\Tools\MSVC\14.34.31933\include\xmemory
; File C:\Program Files\Microsoft Visual Studio\2022\Community\VC\Tools\MSVC\14.34.31933\include\utility
; File C:\Program Files\Microsoft Visual Studio\2022\Community\VC\Tools\MSVC\14.34.31933\include\xmemory
; File C:\Program Files\Microsoft Visual Studio\2022\Community\VC\Tools\MSVC\14.34.31933\include\utility
; File C:\Program Files\Microsoft Visual Studio\2022\Community\VC\Tools\MSVC\14.34.31933\include\xtree
; File C:\Program Files\Microsoft Visual Studio\2022\Community\VC\Tools\MSVC\14.34.31933\include\utility
; File C:\Program Files\Microsoft Visual Studio\2022\Community\VC\Tools\MSVC\14.34.31933\include\xtree
; File C:\Program Files\Microsoft Visual Studio\2022\Community\VC\Tools\MSVC\14.34.31933\include\utility
; File C:\Program Files\Microsoft Visual Studio\2022\Community\VC\Tools\MSVC\14.34.31933\include\xtree
;	COMDAT ??$_Emplace@U?$pair@KK@std@@@?$_Tree@V?$_Tmap_traits@KKU?$less@K@std@@V?$allocator@U?$pair@$$CBKK@std@@@2@$0A@@std@@@std@@IAE?AU?$pair@PAU?$_Tree_node@U?$pair@$$CBKK@std@@PAX@std@@_N@1@$$QAU?$pair@KK@1@@Z
_TEXT	SEGMENT
__Loc$ = -36						; size = 12
$T2 = -24						; size = 12
$T3 = -20						; size = 8
__$EHRec$ = -12						; size = 12
___$ReturnUdt$ = 8					; size = 4
_<_Vals_0>$ = 12					; size = 4
??$_Emplace@U?$pair@KK@std@@@?$_Tree@V?$_Tmap_traits@KKU?$less@K@std@@V?$allocator@U?$pair@$$CBKK@std@@@2@$0A@@std@@@std@@IAE?AU?$pair@PAU?$_Tree_node@U?$pair@$$CBKK@std@@PAX@std@@_N@1@$$QAU?$pair@KK@1@@Z PROC ; std::_Tree<std::_Tmap_traits<unsigned long,unsigned long,std::less<unsigned long>,std::allocator<std::pair<unsigned long const ,unsigned long> >,0> >::_Emplace<std::pair<unsigned long,unsigned long> >, COMDAT
; _this$ = ecx

; 994  :     pair<_Nodeptr, bool> _Emplace(_Valtys&&... _Vals) {

  00000	55		 push	 ebp
  00001	8b ec		 mov	 ebp, esp
  00003	6a ff		 push	 -1
  00005	68 00 00 00 00	 push	 __ehhandler$??$_Emplace@U?$pair@KK@std@@@?$_Tree@V?$_Tmap_traits@KKU?$less@K@std@@V?$allocator@U?$pair@$$CBKK@std@@@2@$0A@@std@@@std@@IAE?AU?$pair@PAU?$_Tree_node@U?$pair@$$CBKK@std@@PAX@std@@_N@1@$$QAU?$pair@KK@1@@Z
  0000a	64 a1 00 00 00
	00		 mov	 eax, DWORD PTR fs:0
  00010	50		 push	 eax
  00011	83 ec 1c	 sub	 esp, 28			; 0000001cH
  00014	53		 push	 ebx
  00015	56		 push	 esi
  00016	57		 push	 edi
  00017	a1 00 00 00 00	 mov	 eax, DWORD PTR ___security_cookie
  0001c	33 c5		 xor	 eax, ebp
  0001e	50		 push	 eax
  0001f	8d 45 f4	 lea	 eax, DWORD PTR __$EHRec$[ebp]
  00022	64 a3 00 00 00
	00		 mov	 DWORD PTR fs:0, eax
  00028	8b f9		 mov	 edi, ecx

; 995  :         using _In_place_key_extractor = typename _Traits::template _In_place_key_extractor<_Remove_cvref_t<_Valtys>...>;
; 996  :         const auto _Scary             = _Get_scary();
; 997  :         _Tree_find_result<_Nodeptr> _Loc;
; 998  :         _Nodeptr _Inserted;
; 999  :         if constexpr (!_Multi && _In_place_key_extractor::_Extractable) {
; 1000 :             const auto& _Keyval = _In_place_key_extractor::_Extract(_Vals...);
; 1001 :             _Loc                = _Find_lower_bound(_Keyval);

  0002a	8b 5d 0c	 mov	 ebx, DWORD PTR _<_Vals_0>$[ebp]
  0002d	8d 45 e8	 lea	 eax, DWORD PTR $T2[ebp]
  00030	53		 push	 ebx
  00031	50		 push	 eax
  00032	e8 00 00 00 00	 call	 ??$_Find_lower_bound@K@?$_Tree@V?$_Tmap_traits@KKU?$less@K@std@@V?$allocator@U?$pair@$$CBKK@std@@@2@$0A@@std@@@std@@IBE?AU?$_Tree_find_result@PAU?$_Tree_node@U?$pair@$$CBKK@std@@PAX@std@@@1@ABK@Z ; std::_Tree<std::_Tmap_traits<unsigned long,unsigned long,std::less<unsigned long>,std::allocator<std::pair<unsigned long const ,unsigned long> >,0> >::_Find_lower_bound<unsigned long>
  00037	8b 48 08	 mov	 ecx, DWORD PTR [eax+8]
  0003a	f3 0f 7e 00	 movq	 xmm0, QWORD PTR [eax]
  0003e	66 0f d6 45 dc	 movq	 QWORD PTR __Loc$[ebp], xmm0

; 1605 :         return !_Bound->_Isnil && !_DEBUG_LT_PRED(_Getcomp(), _Keyval, _Traits::_Kfn(_Bound->_Myval));

  00043	80 79 0d 00	 cmp	 BYTE PTR [ecx+13], 0
  00047	75 24		 jne	 SHORT $LN2@Emplace
  00049	8b 03		 mov	 eax, DWORD PTR [ebx]
  0004b	3b 41 10	 cmp	 eax, DWORD PTR [ecx+16]
  0004e	72 1d		 jb	 SHORT $LN2@Emplace
; File C:\Program Files\Microsoft Visual Studio\2022\Community\VC\Tools\MSVC\14.34.31933\include\utility

; 172  :         : first(_STD forward<_Other1>(_Val1)), second(_STD forward<_Other2>(_Val2)) {

  00050	8b 45 08	 mov	 eax, DWORD PTR ___$ReturnUdt$[ebp]
  00053	89 08		 mov	 DWORD PTR [eax], ecx
  00055	c6 40 04 00	 mov	 BYTE PTR [eax+4], 0
; File C:\Program Files\Microsoft Visual Studio\2022\Community\VC\Tools\MSVC\14.34.31933\include\xtree

; 1027 :     }

  00059	8b 4d f4	 mov	 ecx, DWORD PTR __$EHRec$[ebp]
  0005c	64 89 0d 00 00
	00 00		 mov	 DWORD PTR fs:0, ecx
  00063	59		 pop	 ecx
  00064	5f		 pop	 edi
  00065	5e		 pop	 esi
  00066	5b		 pop	 ebx
  00067	8b e5		 mov	 esp, ebp
  00069	5d		 pop	 ebp
  0006a	c2 08 00	 ret	 8
$LN2@Emplace:

; 1629 :         if (max_size() == _Get_scary()->_Mysize) {

  0006d	81 7f 04 aa aa
	aa 0a		 cmp	 DWORD PTR [edi+4], 178956970 ; 0aaaaaaaH
  00074	74 63		 je	 SHORT $LN98@Emplace

; 1002 :             if (_Lower_bound_duplicate(_Loc._Bound, _Keyval)) {
; 1003 :                 return {_Loc._Bound, false};
; 1004 :             }
; 1005 : 
; 1006 :             _Check_grow_by_1();
; 1007 :             _Inserted = _Tree_temp_node<_Alnode>(_Getal(), _Scary->_Myhead, _STD forward<_Valtys>(_Vals)...)._Release();

  00076	8b 37		 mov	 esi, DWORD PTR [edi]
; File C:\Program Files\Microsoft Visual Studio\2022\Community\VC\Tools\MSVC\14.34.31933\include\xmemory

; 1005 :     _CONSTEXPR20 explicit _Alloc_construct_ptr(_Alloc& _Al_) : _Al(_Al_), _Ptr(nullptr) {}

  00078	89 7d ec	 mov	 DWORD PTR $T3[ebp], edi
; File C:\Program Files\Microsoft Visual Studio\2022\Community\VC\Tools\MSVC\14.34.31933\include\xtree

; 785  :     explicit _Tree_temp_node_alloc(_Alnode& _Al_) : _Alloc_construct_ptr<_Alnode>(_Al_) {

  0007b	c7 45 fc 00 00
	00 00		 mov	 DWORD PTR __$EHRec$[ebp+8], 0
; File C:\Program Files\Microsoft Visual Studio\2022\Community\VC\Tools\MSVC\14.34.31933\include\xmemory

; 77   :         return ::operator new(_Bytes);

  00082	6a 18		 push	 24			; 00000018H

; 1012 :         _Ptr = nullptr; // if allocate throws, prevents double-free

  00084	c7 45 f0 00 00
	00 00		 mov	 DWORD PTR $T3[ebp+4], 0

; 77   :         return ::operator new(_Bytes);

  0008b	e8 00 00 00 00	 call	 ??2@YAPAXI@Z		; operator new
; File C:\Program Files\Microsoft Visual Studio\2022\Community\VC\Tools\MSVC\14.34.31933\include\utility

; 200  :         : first(_STD forward<_Other1>(_Right.first)), second(_STD forward<_Other2>(_Right.second)) {}

  00090	8b 0b		 mov	 ecx, DWORD PTR [ebx]
; File C:\Program Files\Microsoft Visual Studio\2022\Community\VC\Tools\MSVC\14.34.31933\include\xmemory

; 77   :         return ::operator new(_Bytes);

  00092	83 c4 04	 add	 esp, 4
; File C:\Program Files\Microsoft Visual Studio\2022\Community\VC\Tools\MSVC\14.34.31933\include\utility

; 200  :         : first(_STD forward<_Other1>(_Right.first)), second(_STD forward<_Other2>(_Right.second)) {}

  00095	89 48 10	 mov	 DWORD PTR [eax+16], ecx
; File C:\Program Files\Microsoft Visual Studio\2022\Community\VC\Tools\MSVC\14.34.31933\include\xtree

; 808  :         _Construct_in_place(this->_Ptr->_Left, _Myhead);

  00098	8b 4b 04	 mov	 ecx, DWORD PTR [ebx+4]
  0009b	89 48 14	 mov	 DWORD PTR [eax+20], ecx

; 1026 :         return {_Scary->_Insert_node(_Loc._Location, _Inserted), true};

  0009e	8b cf		 mov	 ecx, edi
  000a0	50		 push	 eax
  000a1	ff 75 e0	 push	 DWORD PTR __Loc$[ebp+4]

; 808  :         _Construct_in_place(this->_Ptr->_Left, _Myhead);

  000a4	89 30		 mov	 DWORD PTR [eax], esi

; 1026 :         return {_Scary->_Insert_node(_Loc._Location, _Inserted), true};

  000a6	ff 75 dc	 push	 DWORD PTR __Loc$[ebp]

; 809  :         _Construct_in_place(this->_Ptr->_Parent, _Myhead);

  000a9	89 70 04	 mov	 DWORD PTR [eax+4], esi

; 810  :         _Construct_in_place(this->_Ptr->_Right, _Myhead);

  000ac	89 70 08	 mov	 DWORD PTR [eax+8], esi

; 811  :         this->_Ptr->_Color = _Red;

  000af	66 c7 40 0c 00
	00		 mov	 WORD PTR [eax+12], 0

; 1026 :         return {_Scary->_Insert_node(_Loc._Location, _Inserted), true};

  000b5	e8 00 00 00 00	 call	 ?_Insert_node@?$_Tree_val@U?$_Tree_simple_types@U?$pair@$$CBKK@std@@@std@@@std@@QAEPAU?$_Tree_node@U?$pair@$$CBKK@std@@PAX@2@U?$_Tree_id@PAU?$_Tree_node@U?$pair@$$CBKK@std@@PAX@std@@@2@QAU32@@Z ; std::_Tree_val<std::_Tree_simple_types<std::pair<unsigned long const ,unsigned long> > >::_Insert_node
; File C:\Program Files\Microsoft Visual Studio\2022\Community\VC\Tools\MSVC\14.34.31933\include\utility

; 172  :         : first(_STD forward<_Other1>(_Val1)), second(_STD forward<_Other2>(_Val2)) {

  000ba	8b 4d 08	 mov	 ecx, DWORD PTR ___$ReturnUdt$[ebp]
  000bd	89 01		 mov	 DWORD PTR [ecx], eax
; File C:\Program Files\Microsoft Visual Studio\2022\Community\VC\Tools\MSVC\14.34.31933\include\xtree

; 1026 :         return {_Scary->_Insert_node(_Loc._Location, _Inserted), true};

  000bf	8b c1		 mov	 eax, ecx
; File C:\Program Files\Microsoft Visual Studio\2022\Community\VC\Tools\MSVC\14.34.31933\include\utility

; 172  :         : first(_STD forward<_Other1>(_Val1)), second(_STD forward<_Other2>(_Val2)) {

  000c1	c6 41 04 01	 mov	 BYTE PTR [ecx+4], 1
; File C:\Program Files\Microsoft Visual Studio\2022\Community\VC\Tools\MSVC\14.34.31933\include\xtree

; 1027 :     }

  000c5	8b 4d f4	 mov	 ecx, DWORD PTR __$EHRec$[ebp]
  000c8	64 89 0d 00 00
	00 00		 mov	 DWORD PTR fs:0, ecx
  000cf	59		 pop	 ecx
  000d0	5f		 pop	 edi
  000d1	5e		 pop	 esi
  000d2	5b		 pop	 ebx
  000d3	8b e5		 mov	 esp, ebp
  000d5	5d		 pop	 ebp
  000d6	c2 08 00	 ret	 8
$LN98@Emplace:

; 1630 :             _Throw_tree_length_error();

  000d9	e8 00 00 00 00	 call	 ?_Throw_tree_length_error@std@@YAXXZ ; std::_Throw_tree_length_error
$LN96@Emplace:
  000de	cc		 int	 3
_TEXT	ENDS
;	COMDAT text$x
text$x	SEGMENT
__unwindfunclet$??$_Emplace@U?$pair@KK@std@@@?$_Tree@V?$_Tmap_traits@KKU?$less@K@std@@V?$allocator@U?$pair@$$CBKK@std@@@2@$0A@@std@@@std@@IAE?AU?$pair@PAU?$_Tree_node@U?$pair@$$CBKK@std@@PAX@std@@_N@1@$$QAU?$pair@KK@1@@Z$2:
  00000	8d 4d ec	 lea	 ecx, DWORD PTR $T3[ebp]
  00003	e9 00 00 00 00	 jmp	 ??1?$_Alloc_construct_ptr@V?$allocator@U?$_Tree_node@U?$pair@$$CBKK@std@@PAX@std@@@std@@@std@@QAE@XZ ; std::_Alloc_construct_ptr<std::allocator<std::_Tree_node<std::pair<unsigned long const ,unsigned long>,void *> > >::~_Alloc_construct_ptr<std::allocator<std::_Tree_node<std::pair<unsigned long const ,unsigned long>,void *> > >
  00008	cc		 int	 3
  00009	cc		 int	 3
  0000a	cc		 int	 3
  0000b	cc		 int	 3
  0000c	cc		 int	 3
__ehhandler$??$_Emplace@U?$pair@KK@std@@@?$_Tree@V?$_Tmap_traits@KKU?$less@K@std@@V?$allocator@U?$pair@$$CBKK@std@@@2@$0A@@std@@@std@@IAE?AU?$pair@PAU?$_Tree_node@U?$pair@$$CBKK@std@@PAX@std@@_N@1@$$QAU?$pair@KK@1@@Z:
  0000d	90		 npad	 1
  0000e	90		 npad	 1
  0000f	8b 54 24 08	 mov	 edx, DWORD PTR [esp+8]
  00013	8d 42 0c	 lea	 eax, DWORD PTR [edx+12]
  00016	8b 4a d4	 mov	 ecx, DWORD PTR [edx-44]
  00019	33 c8		 xor	 ecx, eax
  0001b	e8 00 00 00 00	 call	 @__security_check_cookie@4
  00020	b8 00 00 00 00	 mov	 eax, OFFSET __ehfuncinfo$??$_Emplace@U?$pair@KK@std@@@?$_Tree@V?$_Tmap_traits@KKU?$less@K@std@@V?$allocator@U?$pair@$$CBKK@std@@@2@$0A@@std@@@std@@IAE?AU?$pair@PAU?$_Tree_node@U?$pair@$$CBKK@std@@PAX@std@@_N@1@$$QAU?$pair@KK@1@@Z
  00025	e9 00 00 00 00	 jmp	 ___CxxFrameHandler3
text$x	ENDS
??$_Emplace@U?$pair@KK@std@@@?$_Tree@V?$_Tmap_traits@KKU?$less@K@std@@V?$allocator@U?$pair@$$CBKK@std@@@2@$0A@@std@@@std@@IAE?AU?$pair@PAU?$_Tree_node@U?$pair@$$CBKK@std@@PAX@std@@_N@1@$$QAU?$pair@KK@1@@Z ENDP ; std::_Tree<std::_Tmap_traits<unsigned long,unsigned long,std::less<unsigned long>,std::allocator<std::pair<unsigned long const ,unsigned long> >,0> >::_Emplace<std::pair<unsigned long,unsigned long> >
; Function compile flags: /Ogtp
; File C:\Program Files\Microsoft Visual Studio\2022\Community\VC\Tools\MSVC\14.34.31933\include\xmemory
; File C:\Program Files\Microsoft Visual Studio\2022\Community\VC\Tools\MSVC\14.34.31933\include\xstring
; File C:\Program Files\Microsoft Visual Studio\2022\Community\VC\Tools\MSVC\14.34.31933\include\xmemory
; File C:\Program Files\Microsoft Visual Studio\2022\Community\VC\Tools\MSVC\14.34.31933\include\xstring
; File C:\Program Files\Microsoft Visual Studio\2022\Community\VC\Tools\MSVC\14.34.31933\include\xmemory
; File C:\Program Files\Microsoft Visual Studio\2022\Community\VC\Tools\MSVC\14.34.31933\include\xstring
; File C:\Program Files\Microsoft Visual Studio\2022\Community\VC\Tools\MSVC\14.34.31933\include\xmemory
;	COMDAT ??$destroy_at@U?$pair@KV?$basic_string@DU?$char_traits@D@std@@V?$allocator@D@2@@std@@@std@@@std@@YAXQAU?$pair@KV?$basic_string@DU?$char_traits@D@std@@V?$allocator@D@2@@std@@@0@@Z
_TEXT	SEGMENT
??$destroy_at@U?$pair@KV?$basic_string@DU?$char_traits@D@std@@V?$allocator@D@2@@std@@@std@@@std@@YAXQAU?$pair@KV?$basic_string@DU?$char_traits@D@std@@V?$allocator@D@2@@std@@@0@@Z PROC ; std::destroy_at<std::pair<unsigned long,std::basic_string<char,std::char_traits<char>,std::allocator<char> > > >, COMDAT
; __Location$ = ecx

; 304  : _CONSTEXPR20 void destroy_at(_Ty* const _Location) noexcept /* strengthened */ {

  00000	56		 push	 esi
  00001	8b f1		 mov	 esi, ecx
; File C:\Program Files\Microsoft Visual Studio\2022\Community\VC\Tools\MSVC\14.34.31933\include\xstring

; 2301 :         return _BUF_SIZE <= _Myres;

  00003	8b 4e 18	 mov	 ecx, DWORD PTR [esi+24]
  00006	83 f9 10	 cmp	 ecx, 16			; 00000010H

; 5008 :         if (_My_data._Large_string_engaged()) {

  00009	72 28		 jb	 SHORT $LN21@destroy_at
; File C:\Program Files\Microsoft Visual Studio\2022\Community\VC\Tools\MSVC\14.34.31933\include\xmemory

; 830  :         _Deallocate<_New_alignof<_Ty>>(_Ptr, sizeof(_Ty) * _Count);

  0000b	8b 46 04	 mov	 eax, DWORD PTR [esi+4]
; File C:\Program Files\Microsoft Visual Studio\2022\Community\VC\Tools\MSVC\14.34.31933\include\xstring

; 5013 :             _Al.deallocate(_Ptr, _My_data._Myres + 1);

  0000e	41		 inc	 ecx
; File C:\Program Files\Microsoft Visual Studio\2022\Community\VC\Tools\MSVC\14.34.31933\include\xmemory

; 251  :         if (_Bytes >= _Big_allocation_threshold) { // boost the alignment of big allocations to help autovectorization

  0000f	81 f9 00 10 00
	00		 cmp	 ecx, 4096		; 00001000H
  00015	72 12		 jb	 SHORT $LN33@destroy_at

; 150  :     const uintptr_t _Ptr_container   = _Ptr_user[-1];

  00017	8b 50 fc	 mov	 edx, DWORD PTR [eax-4]
  0001a	83 c1 23	 add	 ecx, 35			; 00000023H

; 151  : 
; 152  :     // If the following asserts, it likely means that we are performing
; 153  :     // an aligned delete on memory coming from an unaligned allocation.
; 154  :     _STL_ASSERT(_Ptr_user[-2] == _Big_allocation_sentinel, "invalid argument");
; 155  : 
; 156  :     // Extra paranoia on aligned allocation/deallocation; ensure _Ptr_container is
; 157  :     // in range [_Min_back_shift, _Non_user_size]
; 158  : #ifdef _DEBUG
; 159  :     constexpr uintptr_t _Min_back_shift = 2 * sizeof(void*);
; 160  : #else // ^^^ _DEBUG ^^^ // vvv !_DEBUG vvv
; 161  :     constexpr uintptr_t _Min_back_shift = sizeof(void*);
; 162  : #endif // _DEBUG
; 163  :     const uintptr_t _Back_shift = reinterpret_cast<uintptr_t>(_Ptr) - _Ptr_container;

  0001d	2b c2		 sub	 eax, edx

; 164  :     _STL_VERIFY(_Back_shift >= _Min_back_shift && _Back_shift <= _Non_user_size, "invalid argument");

  0001f	83 c0 fc	 add	 eax, -4			; fffffffcH
  00022	83 f8 1f	 cmp	 eax, 31			; 0000001fH
  00025	77 20		 ja	 SHORT $LN30@destroy_at

; 165  :     _Ptr = reinterpret_cast<void*>(_Ptr_container);

  00027	8b c2		 mov	 eax, edx
$LN33@destroy_at:

; 255  :         ::operator delete(_Ptr, _Bytes);

  00029	51		 push	 ecx
  0002a	50		 push	 eax
  0002b	e8 00 00 00 00	 call	 ??3@YAXPAXI@Z		; operator delete
  00030	83 c4 08	 add	 esp, 8
$LN21@destroy_at:
; File C:\Program Files\Microsoft Visual Studio\2022\Community\VC\Tools\MSVC\14.34.31933\include\xstring

; 5016 :         _My_data._Mysize = 0;

  00033	c7 46 14 00 00
	00 00		 mov	 DWORD PTR [esi+20], 0

; 5017 :         _My_data._Myres  = _BUF_SIZE - 1;

  0003a	c7 46 18 0f 00
	00 00		 mov	 DWORD PTR [esi+24], 15	; 0000000fH

; 5018 :         // the _Traits::assign is last so the codegen doesn't think the char write can alias this
; 5019 :         _Traits::assign(_My_data._Bx._Buf[0], _Elem());

  00041	c6 46 04 00	 mov	 BYTE PTR [esi+4], 0
  00045	5e		 pop	 esi
; File C:\Program Files\Microsoft Visual Studio\2022\Community\VC\Tools\MSVC\14.34.31933\include\xmemory

; 313  : }

  00046	c3		 ret	 0
$LN30@destroy_at:

; 164  :     _STL_VERIFY(_Back_shift >= _Min_back_shift && _Back_shift <= _Non_user_size, "invalid argument");

  00047	e8 00 00 00 00	 call	 __invalid_parameter_noinfo_noreturn
$LN41@destroy_at:
  0004c	cc		 int	 3
??$destroy_at@U?$pair@KV?$basic_string@DU?$char_traits@D@std@@V?$allocator@D@2@@std@@@std@@@std@@YAXQAU?$pair@KV?$basic_string@DU?$char_traits@D@std@@V?$allocator@D@2@@std@@@0@@Z ENDP ; std::destroy_at<std::pair<unsigned long,std::basic_string<char,std::char_traits<char>,std::allocator<char> > > >
_TEXT	ENDS
; Function compile flags: /Ogtp
; File C:\Program Files\Microsoft Visual Studio\2022\Community\VC\Tools\MSVC\14.34.31933\include\xstring
; File C:\Program Files\Microsoft Visual Studio\2022\Community\VC\Tools\MSVC\14.34.31933\include\xmemory
; File C:\Program Files\Microsoft Visual Studio\2022\Community\VC\Tools\MSVC\14.34.31933\include\xstring
; File C:\Program Files\Microsoft Visual Studio\2022\Community\VC\Tools\MSVC\14.34.31933\include\xmemory
; File C:\Program Files\Microsoft Visual Studio\2022\Community\VC\Tools\MSVC\14.34.31933\include\xstring
; File C:\Program Files\Microsoft Visual Studio\2022\Community\VC\Tools\MSVC\14.34.31933\include\xmemory
;	COMDAT ??_G?$pair@KV?$basic_string@DU?$char_traits@D@std@@V?$allocator@D@2@@std@@@std@@QAEPAXI@Z
_TEXT	SEGMENT
___flags$dead$ = 8					; size = 4
??_G?$pair@KV?$basic_string@DU?$char_traits@D@std@@V?$allocator@D@2@@std@@@std@@QAEPAXI@Z PROC ; std::pair<unsigned long,std::basic_string<char,std::char_traits<char>,std::allocator<char> > >::`scalar deleting destructor', COMDAT
; _this$ = ecx
; File C:\Program Files\Microsoft Visual Studio\2022\Community\VC\Tools\MSVC\14.34.31933\include\xstring

; 2301 :         return _BUF_SIZE <= _Myres;

  00000	56		 push	 esi
  00001	8b f1		 mov	 esi, ecx
  00003	8b 4e 18	 mov	 ecx, DWORD PTR [esi+24]
  00006	83 f9 10	 cmp	 ecx, 16			; 00000010H

; 5008 :         if (_My_data._Large_string_engaged()) {

  00009	72 28		 jb	 SHORT $LN19@scalar
; File C:\Program Files\Microsoft Visual Studio\2022\Community\VC\Tools\MSVC\14.34.31933\include\xmemory

; 830  :         _Deallocate<_New_alignof<_Ty>>(_Ptr, sizeof(_Ty) * _Count);

  0000b	8b 46 04	 mov	 eax, DWORD PTR [esi+4]
; File C:\Program Files\Microsoft Visual Studio\2022\Community\VC\Tools\MSVC\14.34.31933\include\xstring

; 5013 :             _Al.deallocate(_Ptr, _My_data._Myres + 1);

  0000e	41		 inc	 ecx
; File C:\Program Files\Microsoft Visual Studio\2022\Community\VC\Tools\MSVC\14.34.31933\include\xmemory

; 251  :         if (_Bytes >= _Big_allocation_threshold) { // boost the alignment of big allocations to help autovectorization

  0000f	81 f9 00 10 00
	00		 cmp	 ecx, 4096		; 00001000H
  00015	72 12		 jb	 SHORT $LN31@scalar

; 150  :     const uintptr_t _Ptr_container   = _Ptr_user[-1];

  00017	8b 50 fc	 mov	 edx, DWORD PTR [eax-4]
  0001a	83 c1 23	 add	 ecx, 35			; 00000023H

; 151  : 
; 152  :     // If the following asserts, it likely means that we are performing
; 153  :     // an aligned delete on memory coming from an unaligned allocation.
; 154  :     _STL_ASSERT(_Ptr_user[-2] == _Big_allocation_sentinel, "invalid argument");
; 155  : 
; 156  :     // Extra paranoia on aligned allocation/deallocation; ensure _Ptr_container is
; 157  :     // in range [_Min_back_shift, _Non_user_size]
; 158  : #ifdef _DEBUG
; 159  :     constexpr uintptr_t _Min_back_shift = 2 * sizeof(void*);
; 160  : #else // ^^^ _DEBUG ^^^ // vvv !_DEBUG vvv
; 161  :     constexpr uintptr_t _Min_back_shift = sizeof(void*);
; 162  : #endif // _DEBUG
; 163  :     const uintptr_t _Back_shift = reinterpret_cast<uintptr_t>(_Ptr) - _Ptr_container;

  0001d	2b c2		 sub	 eax, edx

; 164  :     _STL_VERIFY(_Back_shift >= _Min_back_shift && _Back_shift <= _Non_user_size, "invalid argument");

  0001f	83 c0 fc	 add	 eax, -4			; fffffffcH
  00022	83 f8 1f	 cmp	 eax, 31			; 0000001fH
  00025	77 24		 ja	 SHORT $LN28@scalar

; 165  :     _Ptr = reinterpret_cast<void*>(_Ptr_container);

  00027	8b c2		 mov	 eax, edx
$LN31@scalar:

; 255  :         ::operator delete(_Ptr, _Bytes);

  00029	51		 push	 ecx
  0002a	50		 push	 eax
  0002b	e8 00 00 00 00	 call	 ??3@YAXPAXI@Z		; operator delete
  00030	83 c4 08	 add	 esp, 8
$LN19@scalar:
; File C:\Program Files\Microsoft Visual Studio\2022\Community\VC\Tools\MSVC\14.34.31933\include\xstring

; 5016 :         _My_data._Mysize = 0;

  00033	c7 46 14 00 00
	00 00		 mov	 DWORD PTR [esi+20], 0
  0003a	8b c6		 mov	 eax, esi

; 5017 :         _My_data._Myres  = _BUF_SIZE - 1;

  0003c	c7 46 18 0f 00
	00 00		 mov	 DWORD PTR [esi+24], 15	; 0000000fH

; 5018 :         // the _Traits::assign is last so the codegen doesn't think the char write can alias this
; 5019 :         _Traits::assign(_My_data._Bx._Buf[0], _Elem());

  00043	c6 46 04 00	 mov	 BYTE PTR [esi+4], 0
  00047	5e		 pop	 esi
  00048	c2 04 00	 ret	 4
$LN28@scalar:
; File C:\Program Files\Microsoft Visual Studio\2022\Community\VC\Tools\MSVC\14.34.31933\include\xmemory

; 164  :     _STL_VERIFY(_Back_shift >= _Min_back_shift && _Back_shift <= _Non_user_size, "invalid argument");

  0004b	e8 00 00 00 00	 call	 __invalid_parameter_noinfo_noreturn
$LN38@scalar:
  00050	cc		 int	 3
??_G?$pair@KV?$basic_string@DU?$char_traits@D@std@@V?$allocator@D@2@@std@@@std@@QAEPAXI@Z ENDP ; std::pair<unsigned long,std::basic_string<char,std::char_traits<char>,std::allocator<char> > >::`scalar deleting destructor'
_TEXT	ENDS
; Function compile flags: /Ogtp
; File C:\Program Files\Microsoft Visual Studio\2022\Community\VC\Tools\MSVC\14.34.31933\include\xmemory
;	COMDAT ?_Extract@?$_In_place_key_extract_map@KU?$pair@KK@std@@@std@@SAABKABU?$pair@KK@2@@Z
_TEXT	SEGMENT
?_Extract@?$_In_place_key_extract_map@KU?$pair@KK@std@@@std@@SAABKABU?$pair@KK@2@@Z PROC ; std::_In_place_key_extract_map<unsigned long,std::pair<unsigned long,unsigned long> >::_Extract, COMDAT
; __Val$ = ecx

; 1974 :         return _Val.first;

  00000	8b c1		 mov	 eax, ecx

; 1975 :     }

  00002	c3		 ret	 0
?_Extract@?$_In_place_key_extract_map@KU?$pair@KK@std@@@std@@SAABKABU?$pair@KK@2@@Z ENDP ; std::_In_place_key_extract_map<unsigned long,std::pair<unsigned long,unsigned long> >::_Extract
_TEXT	ENDS
; Function compile flags: /Ogtp
; File C:\Program Files\Microsoft Visual Studio\2022\Community\VC\Tools\MSVC\14.34.31933\include\xtree
; File C:\Program Files\Microsoft Visual Studio\2022\Community\VC\Tools\MSVC\14.34.31933\include\xmemory
; File C:\Program Files\Microsoft Visual Studio\2022\Community\VC\Tools\MSVC\14.34.31933\include\xtree
; File C:\Program Files\Microsoft Visual Studio\2022\Community\VC\Tools\MSVC\14.34.31933\include\xmemory
; File C:\Program Files\Microsoft Visual Studio\2022\Community\VC\Tools\MSVC\14.34.31933\include\utility
; File C:\Program Files\Microsoft Visual Studio\2022\Community\VC\Tools\MSVC\14.34.31933\include\xmemory
; File C:\Program Files\Microsoft Visual Studio\2022\Community\VC\Tools\MSVC\14.34.31933\include\utility
; File C:\Program Files\Microsoft Visual Studio\2022\Community\VC\Tools\MSVC\14.34.31933\include\xtree
;	COMDAT ??$?0U?$pair@KK@std@@@?$_Tree_temp_node@V?$allocator@U?$_Tree_node@U?$pair@$$CBKK@std@@PAX@std@@@std@@@std@@QAE@AAV?$allocator@U?$_Tree_node@U?$pair@$$CBKK@std@@PAX@std@@@1@PAU?$_Tree_node@U?$pair@$$CBKK@std@@PAX@1@$$QAU?$pair@KK@1@@Z
_TEXT	SEGMENT
_this$ = -16						; size = 4
__$EHRec$ = -12						; size = 12
__Al_$ = 8						; size = 4
__Myhead$ = 12						; size = 4
_<_Vals_0>$ = 16					; size = 4
??$?0U?$pair@KK@std@@@?$_Tree_temp_node@V?$allocator@U?$_Tree_node@U?$pair@$$CBKK@std@@PAX@std@@@std@@@std@@QAE@AAV?$allocator@U?$_Tree_node@U?$pair@$$CBKK@std@@PAX@std@@@1@PAU?$_Tree_node@U?$pair@$$CBKK@std@@PAX@1@$$QAU?$pair@KK@1@@Z PROC ; std::_Tree_temp_node<std::allocator<std::_Tree_node<std::pair<unsigned long const ,unsigned long>,void *> > >::_Tree_temp_node<std::allocator<std::_Tree_node<std::pair<unsigned long const ,unsigned long>,void *> > ><std::pair<unsigned long,unsigned long> >, COMDAT
; _this$ = ecx

; 806  :         : _Tree_temp_node_alloc<_Alnode>(_Al_) {

  00000	55		 push	 ebp
  00001	8b ec		 mov	 ebp, esp
  00003	6a ff		 push	 -1
  00005	68 00 00 00 00	 push	 __ehhandler$??$?0U?$pair@KK@std@@@?$_Tree_temp_node@V?$allocator@U?$_Tree_node@U?$pair@$$CBKK@std@@PAX@std@@@std@@@std@@QAE@AAV?$allocator@U?$_Tree_node@U?$pair@$$CBKK@std@@PAX@std@@@1@PAU?$_Tree_node@U?$pair@$$CBKK@std@@PAX@1@$$QAU?$pair@KK@1@@Z
  0000a	64 a1 00 00 00
	00		 mov	 eax, DWORD PTR fs:0
  00010	50		 push	 eax
  00011	51		 push	 ecx
  00012	56		 push	 esi
  00013	a1 00 00 00 00	 mov	 eax, DWORD PTR ___security_cookie
  00018	33 c5		 xor	 eax, ebp
  0001a	50		 push	 eax
  0001b	8d 45 f4	 lea	 eax, DWORD PTR __$EHRec$[ebp]
  0001e	64 a3 00 00 00
	00		 mov	 DWORD PTR fs:0, eax
  00024	8b f1		 mov	 esi, ecx
  00026	89 75 f0	 mov	 DWORD PTR _this$[ebp], esi
; File C:\Program Files\Microsoft Visual Studio\2022\Community\VC\Tools\MSVC\14.34.31933\include\xmemory

; 1005 :     _CONSTEXPR20 explicit _Alloc_construct_ptr(_Alloc& _Al_) : _Al(_Al_), _Ptr(nullptr) {}

  00029	8b 45 08	 mov	 eax, DWORD PTR __Al_$[ebp]
  0002c	89 06		 mov	 DWORD PTR [esi], eax
  0002e	c7 46 04 00 00
	00 00		 mov	 DWORD PTR [esi+4], 0
; File C:\Program Files\Microsoft Visual Studio\2022\Community\VC\Tools\MSVC\14.34.31933\include\xtree

; 785  :     explicit _Tree_temp_node_alloc(_Alnode& _Al_) : _Alloc_construct_ptr<_Alnode>(_Al_) {

  00035	c7 45 fc 00 00
	00 00		 mov	 DWORD PTR __$EHRec$[ebp+8], 0
; File C:\Program Files\Microsoft Visual Studio\2022\Community\VC\Tools\MSVC\14.34.31933\include\xmemory

; 77   :         return ::operator new(_Bytes);

  0003c	6a 18		 push	 24			; 00000018H

; 1012 :         _Ptr = nullptr; // if allocate throws, prevents double-free

  0003e	c7 46 04 00 00
	00 00		 mov	 DWORD PTR [esi+4], 0

; 77   :         return ::operator new(_Bytes);

  00045	e8 00 00 00 00	 call	 ??2@YAPAXI@Z		; operator new
; File C:\Program Files\Microsoft Visual Studio\2022\Community\VC\Tools\MSVC\14.34.31933\include\utility

; 200  :         : first(_STD forward<_Other1>(_Right.first)), second(_STD forward<_Other2>(_Right.second)) {}

  0004a	8b 55 10	 mov	 edx, DWORD PTR _<_Vals_0>$[ebp]
; File C:\Program Files\Microsoft Visual Studio\2022\Community\VC\Tools\MSVC\14.34.31933\include\xmemory

; 77   :         return ::operator new(_Bytes);

  0004d	83 c4 04	 add	 esp, 4

; 1013 :         _Ptr = _Al.allocate(1);

  00050	89 46 04	 mov	 DWORD PTR [esi+4], eax
; File C:\Program Files\Microsoft Visual Studio\2022\Community\VC\Tools\MSVC\14.34.31933\include\utility

; 200  :         : first(_STD forward<_Other1>(_Right.first)), second(_STD forward<_Other2>(_Right.second)) {}

  00053	8b 0a		 mov	 ecx, DWORD PTR [edx]
  00055	89 48 10	 mov	 DWORD PTR [eax+16], ecx
; File C:\Program Files\Microsoft Visual Studio\2022\Community\VC\Tools\MSVC\14.34.31933\include\xtree

; 808  :         _Construct_in_place(this->_Ptr->_Left, _Myhead);

  00058	8b 4a 04	 mov	 ecx, DWORD PTR [edx+4]
  0005b	89 48 14	 mov	 DWORD PTR [eax+20], ecx
  0005e	8b 46 04	 mov	 eax, DWORD PTR [esi+4]
  00061	8b 4d 0c	 mov	 ecx, DWORD PTR __Myhead$[ebp]
  00064	89 08		 mov	 DWORD PTR [eax], ecx

; 809  :         _Construct_in_place(this->_Ptr->_Parent, _Myhead);

  00066	8b 46 04	 mov	 eax, DWORD PTR [esi+4]
  00069	89 48 04	 mov	 DWORD PTR [eax+4], ecx

; 810  :         _Construct_in_place(this->_Ptr->_Right, _Myhead);

  0006c	8b 46 04	 mov	 eax, DWORD PTR [esi+4]
  0006f	89 48 08	 mov	 DWORD PTR [eax+8], ecx

; 811  :         this->_Ptr->_Color = _Red;

  00072	8b 46 04	 mov	 eax, DWORD PTR [esi+4]
  00075	c6 40 0c 00	 mov	 BYTE PTR [eax+12], 0

; 812  :         this->_Ptr->_Isnil = false;

  00079	8b 46 04	 mov	 eax, DWORD PTR [esi+4]
  0007c	c6 40 0d 00	 mov	 BYTE PTR [eax+13], 0

; 813  :     }

  00080	8b c6		 mov	 eax, esi
  00082	8b 4d f4	 mov	 ecx, DWORD PTR __$EHRec$[ebp]
  00085	64 89 0d 00 00
	00 00		 mov	 DWORD PTR fs:0, ecx
  0008c	59		 pop	 ecx
  0008d	5e		 pop	 esi
  0008e	8b e5		 mov	 esp, ebp
  00090	5d		 pop	 ebp
  00091	c2 0c 00	 ret	 12			; 0000000cH
_TEXT	ENDS
;	COMDAT text$x
text$x	SEGMENT
__unwindfunclet$??$?0U?$pair@KK@std@@@?$_Tree_temp_node@V?$allocator@U?$_Tree_node@U?$pair@$$CBKK@std@@PAX@std@@@std@@@std@@QAE@AAV?$allocator@U?$_Tree_node@U?$pair@$$CBKK@std@@PAX@std@@@1@PAU?$_Tree_node@U?$pair@$$CBKK@std@@PAX@1@$$QAU?$pair@KK@1@@Z$1:
  00000	8b 4d f0	 mov	 ecx, DWORD PTR _this$[ebp]
  00003	e9 00 00 00 00	 jmp	 ??1?$_Alloc_construct_ptr@V?$allocator@U?$_Tree_node@U?$pair@$$CBKK@std@@PAX@std@@@std@@@std@@QAE@XZ ; std::_Alloc_construct_ptr<std::allocator<std::_Tree_node<std::pair<unsigned long const ,unsigned long>,void *> > >::~_Alloc_construct_ptr<std::allocator<std::_Tree_node<std::pair<unsigned long const ,unsigned long>,void *> > >
  00008	cc		 int	 3
  00009	cc		 int	 3
  0000a	cc		 int	 3
  0000b	cc		 int	 3
  0000c	cc		 int	 3
__ehhandler$??$?0U?$pair@KK@std@@@?$_Tree_temp_node@V?$allocator@U?$_Tree_node@U?$pair@$$CBKK@std@@PAX@std@@@std@@@std@@QAE@AAV?$allocator@U?$_Tree_node@U?$pair@$$CBKK@std@@PAX@std@@@1@PAU?$_Tree_node@U?$pair@$$CBKK@std@@PAX@1@$$QAU?$pair@KK@1@@Z:
  0000d	90		 npad	 1
  0000e	90		 npad	 1
  0000f	8b 54 24 08	 mov	 edx, DWORD PTR [esp+8]
  00013	8d 42 0c	 lea	 eax, DWORD PTR [edx+12]
  00016	8b 4a f4	 mov	 ecx, DWORD PTR [edx-12]
  00019	33 c8		 xor	 ecx, eax
  0001b	e8 00 00 00 00	 call	 @__security_check_cookie@4
  00020	b8 00 00 00 00	 mov	 eax, OFFSET __ehfuncinfo$??$?0U?$pair@KK@std@@@?$_Tree_temp_node@V?$allocator@U?$_Tree_node@U?$pair@$$CBKK@std@@PAX@std@@@std@@@std@@QAE@AAV?$allocator@U?$_Tree_node@U?$pair@$$CBKK@std@@PAX@std@@@1@PAU?$_Tree_node@U?$pair@$$CBKK@std@@PAX@1@$$QAU?$pair@KK@1@@Z
  00025	e9 00 00 00 00	 jmp	 ___CxxFrameHandler3
text$x	ENDS
??$?0U?$pair@KK@std@@@?$_Tree_temp_node@V?$allocator@U?$_Tree_node@U?$pair@$$CBKK@std@@PAX@std@@@std@@@std@@QAE@AAV?$allocator@U?$_Tree_node@U?$pair@$$CBKK@std@@PAX@std@@@1@PAU?$_Tree_node@U?$pair@$$CBKK@std@@PAX@1@$$QAU?$pair@KK@1@@Z ENDP ; std::_Tree_temp_node<std::allocator<std::_Tree_node<std::pair<unsigned long const ,unsigned long>,void *> > >::_Tree_temp_node<std::allocator<std::_Tree_node<std::pair<unsigned long const ,unsigned long>,void *> > ><std::pair<unsigned long,unsigned long> >
; Function compile flags: /Ogtp
; File C:\Program Files\Microsoft Visual Studio\2022\Community\VC\Tools\MSVC\14.34.31933\include\xmemory
; File C:\Program Files\Microsoft Visual Studio\2022\Community\VC\Tools\MSVC\14.34.31933\include\utility
; File C:\Program Files\Microsoft Visual Studio\2022\Community\VC\Tools\MSVC\14.34.31933\include\xmemory
;	COMDAT ??$construct@U?$pair@$$CBKK@std@@U?$pair@KK@2@@?$_Default_allocator_traits@V?$allocator@U?$_Tree_node@U?$pair@$$CBKK@std@@PAX@std@@@std@@@std@@SAXAAV?$allocator@U?$_Tree_node@U?$pair@$$CBKK@std@@PAX@std@@@1@QAU?$pair@$$CBKK@1@$$QAU?$pair@KK@1@@Z
_TEXT	SEGMENT
_<_Args_0>$ = 8						; size = 4
??$construct@U?$pair@$$CBKK@std@@U?$pair@KK@2@@?$_Default_allocator_traits@V?$allocator@U?$_Tree_node@U?$pair@$$CBKK@std@@PAX@std@@@std@@@std@@SAXAAV?$allocator@U?$_Tree_node@U?$pair@$$CBKK@std@@PAX@std@@@1@QAU?$pair@$$CBKK@1@$$QAU?$pair@KK@1@@Z PROC ; std::_Default_allocator_traits<std::allocator<std::_Tree_node<std::pair<unsigned long const ,unsigned long>,void *> > >::construct<std::pair<unsigned long const ,unsigned long>,std::pair<unsigned long,unsigned long> >, COMDAT
; ___formal$dead$ = ecx
; __Ptr$ = edx

; 673  :     static _CONSTEXPR20 void construct(_Alloc&, _Objty* const _Ptr, _Types&&... _Args) {

  00000	55		 push	 ebp
  00001	8b ec		 mov	 ebp, esp
; File C:\Program Files\Microsoft Visual Studio\2022\Community\VC\Tools\MSVC\14.34.31933\include\utility

; 200  :         : first(_STD forward<_Other1>(_Right.first)), second(_STD forward<_Other2>(_Right.second)) {}

  00003	8b 4d 08	 mov	 ecx, DWORD PTR _<_Args_0>$[ebp]
  00006	8b 01		 mov	 eax, DWORD PTR [ecx]
  00008	89 02		 mov	 DWORD PTR [edx], eax
; File C:\Program Files\Microsoft Visual Studio\2022\Community\VC\Tools\MSVC\14.34.31933\include\xmemory

; 682  :     }

  0000a	8b 41 04	 mov	 eax, DWORD PTR [ecx+4]
  0000d	89 42 04	 mov	 DWORD PTR [edx+4], eax
  00010	5d		 pop	 ebp
  00011	c3		 ret	 0
??$construct@U?$pair@$$CBKK@std@@U?$pair@KK@2@@?$_Default_allocator_traits@V?$allocator@U?$_Tree_node@U?$pair@$$CBKK@std@@PAX@std@@@std@@@std@@SAXAAV?$allocator@U?$_Tree_node@U?$pair@$$CBKK@std@@PAX@std@@@1@QAU?$pair@$$CBKK@1@$$QAU?$pair@KK@1@@Z ENDP ; std::_Default_allocator_traits<std::allocator<std::_Tree_node<std::pair<unsigned long const ,unsigned long>,void *> > >::construct<std::pair<unsigned long const ,unsigned long>,std::pair<unsigned long,unsigned long> >
_TEXT	ENDS
; Function compile flags: /Ogtp
; File C:\Program Files\Microsoft Visual Studio\2022\Community\VC\Tools\MSVC\14.34.31933\include\utility
;	COMDAT ??$?0KK$0A@@?$pair@$$CBKK@std@@QAE@$$QAU?$pair@KK@1@@Z
_TEXT	SEGMENT
__Right$ = 8						; size = 4
??$?0KK$0A@@?$pair@$$CBKK@std@@QAE@$$QAU?$pair@KK@1@@Z PROC ; std::pair<unsigned long const ,unsigned long>::pair<unsigned long const ,unsigned long><unsigned long,unsigned long,0>, COMDAT
; _this$ = ecx

; 200  :         : first(_STD forward<_Other1>(_Right.first)), second(_STD forward<_Other2>(_Right.second)) {}

  00000	55		 push	 ebp
  00001	8b ec		 mov	 ebp, esp
  00003	8b 55 08	 mov	 edx, DWORD PTR __Right$[ebp]
  00006	8b 02		 mov	 eax, DWORD PTR [edx]
  00008	89 01		 mov	 DWORD PTR [ecx], eax
  0000a	8b 42 04	 mov	 eax, DWORD PTR [edx+4]
  0000d	89 41 04	 mov	 DWORD PTR [ecx+4], eax
  00010	8b c1		 mov	 eax, ecx
  00012	5d		 pop	 ebp
  00013	c2 04 00	 ret	 4
??$?0KK$0A@@?$pair@$$CBKK@std@@QAE@$$QAU?$pair@KK@1@@Z ENDP ; std::pair<unsigned long const ,unsigned long>::pair<unsigned long const ,unsigned long><unsigned long,unsigned long,0>
_TEXT	ENDS
; Function compile flags: /Ogtp
; File C:\Program Files\Microsoft Visual Studio\2022\Community\VC\Tools\MSVC\14.34.31933\include\xutility
; File C:\Program Files\Microsoft Visual Studio\2022\Community\VC\Tools\MSVC\14.34.31933\include\utility
; File C:\Program Files\Microsoft Visual Studio\2022\Community\VC\Tools\MSVC\14.34.31933\include\xutility
;	COMDAT ??$construct_at@U?$pair@$$CBKK@std@@U?$pair@KK@2@$0A@@std@@YAPAU?$pair@$$CBKK@0@QAU10@$$QAU?$pair@KK@0@@Z
_TEXT	SEGMENT
??$construct_at@U?$pair@$$CBKK@std@@U?$pair@KK@2@$0A@@std@@YAPAU?$pair@$$CBKK@0@QAU10@$$QAU?$pair@KK@0@@Z PROC ; std::construct_at<std::pair<unsigned long const ,unsigned long>,std::pair<unsigned long,unsigned long>,0>, COMDAT
; __Location$ = ecx
; _<_Args_0>$ = edx
; File C:\Program Files\Microsoft Visual Studio\2022\Community\VC\Tools\MSVC\14.34.31933\include\utility

; 200  :         : first(_STD forward<_Other1>(_Right.first)), second(_STD forward<_Other2>(_Right.second)) {}

  00000	8b 02		 mov	 eax, DWORD PTR [edx]
  00002	89 01		 mov	 DWORD PTR [ecx], eax
  00004	8b 42 04	 mov	 eax, DWORD PTR [edx+4]
  00007	89 41 04	 mov	 DWORD PTR [ecx+4], eax
; File C:\Program Files\Microsoft Visual Studio\2022\Community\VC\Tools\MSVC\14.34.31933\include\xutility

; 218  :     _MSVC_CONSTEXPR return ::new (_Voidify_iter(_Location)) _Ty(_STD forward<_Types>(_Args)...);

  0000a	8b c1		 mov	 eax, ecx

; 219  : }

  0000c	c3		 ret	 0
??$construct_at@U?$pair@$$CBKK@std@@U?$pair@KK@2@$0A@@std@@YAPAU?$pair@$$CBKK@0@QAU10@$$QAU?$pair@KK@0@@Z ENDP ; std::construct_at<std::pair<unsigned long const ,unsigned long>,std::pair<unsigned long,unsigned long>,0>
_TEXT	ENDS
; Function compile flags: /Ogtp
; File C:\Program Files\Microsoft Visual Studio\2022\Community\VC\Tools\MSVC\14.34.31933\include\xmemory
;	COMDAT ??$_Pocma@V?$allocator@D@std@@@std@@YAXAAV?$allocator@D@0@0@Z
_TEXT	SEGMENT
__Left$ = 8						; size = 4
__Right$ = 12						; size = 4
??$_Pocma@V?$allocator@D@std@@@std@@YAXAAV?$allocator@D@0@0@Z PROC ; std::_Pocma<std::allocator<char> >, COMDAT

; 928  :     if constexpr (allocator_traits<_Alloc>::propagate_on_container_move_assignment::value) {
; 929  :         _Left = _STD move(_Right);
; 930  :     }
; 931  : }

  00000	c2 00 00	 ret	 0
??$_Pocma@V?$allocator@D@std@@@std@@YAXAAV?$allocator@D@0@0@Z ENDP ; std::_Pocma<std::allocator<char> >
_TEXT	ENDS
; Function compile flags: /Ogtp
; File C:\Program Files\Microsoft Visual Studio\2022\Community\VC\Tools\MSVC\14.34.31933\include\xstring
;	COMDAT ??4?$basic_string@DU?$char_traits@D@std@@V?$allocator@D@2@@std@@QAEAAV01@$$QAV01@@Z
_TEXT	SEGMENT
__Right$ = 8						; size = 4
??4?$basic_string@DU?$char_traits@D@std@@V?$allocator@D@2@@std@@QAEAAV01@$$QAV01@@Z PROC ; std::basic_string<char,std::char_traits<char>,std::allocator<char> >::operator=, COMDAT
; _this$ = ecx

; 3098 :         _Choose_pocma_v<_Alty> != _Pocma_values::_No_propagate_allocators) {

  00000	55		 push	 ebp
  00001	8b ec		 mov	 ebp, esp
  00003	56		 push	 esi
  00004	57		 push	 edi

; 3099 :         if (this == _STD addressof(_Right)) {

  00005	8b 7d 08	 mov	 edi, DWORD PTR __Right$[ebp]
  00008	8b f1		 mov	 esi, ecx
  0000a	3b f7		 cmp	 esi, edi
  0000c	74 26		 je	 SHORT $LN29@operator

; 3100 :             return *this;
; 3101 :         }
; 3102 : 
; 3103 :         auto& _Al                 = _Getal();
; 3104 :         auto& _Right_al           = _Right._Getal();
; 3105 :         constexpr auto _Pocma_val = _Choose_pocma_v<_Alty>;
; 3106 :         if constexpr (_Pocma_val == _Pocma_values::_Propagate_allocators) {
; 3107 :             if (_Al != _Right_al) {
; 3108 :                 // intentionally slams into noexcept on OOM, TRANSITION, VSO-466800
; 3109 :                 _Mypair._Myval2._Orphan_all();
; 3110 :                 _Mypair._Myval2._Reload_proxy(_GET_PROXY_ALLOCATOR(_Alty, _Al), _GET_PROXY_ALLOCATOR(_Alty, _Right_al));
; 3111 :             }
; 3112 :         } else if constexpr (_Pocma_val == _Pocma_values::_No_propagate_allocators) {
; 3113 :             if (_Al != _Right_al) {
; 3114 :                 assign(_Right._Mypair._Myval2._Myptr(), _Right._Mypair._Myval2._Mysize);
; 3115 :                 return *this;
; 3116 :             }
; 3117 :         }
; 3118 : 
; 3119 :         _Tidy_deallocate();

  0000e	e8 00 00 00 00	 call	 ?_Tidy_deallocate@?$basic_string@DU?$char_traits@D@std@@V?$allocator@D@2@@std@@AAEXXZ ; std::basic_string<char,std::char_traits<char>,std::allocator<char> >::_Tidy_deallocate

; 3137 :         _CSTD memcpy(_My_data_mem, _Right_data_mem, _Memcpy_val_size);

  00013	0f 10 07	 movups	 xmm0, XMMWORD PTR [edi]
  00016	0f 11 06	 movups	 XMMWORD PTR [esi], xmm0
  00019	f3 0f 7e 47 10	 movq	 xmm0, QWORD PTR [edi+16]
  0001e	66 0f d6 46 10	 movq	 QWORD PTR [esi+16], xmm0

; 3120 :         _Pocma(_Al, _Right_al);
; 3121 :         _Take_contents(_Right);
; 3122 :         return *this;

  00023	c7 47 10 00 00
	00 00		 mov	 DWORD PTR [edi+16], 0
  0002a	c7 47 14 0f 00
	00 00		 mov	 DWORD PTR [edi+20], 15	; 0000000fH
  00031	c6 07 00	 mov	 BYTE PTR [edi], 0
$LN29@operator:

; 3123 :     }

  00034	5f		 pop	 edi
  00035	8b c6		 mov	 eax, esi
  00037	5e		 pop	 esi
  00038	5d		 pop	 ebp
  00039	c2 04 00	 ret	 4
??4?$basic_string@DU?$char_traits@D@std@@V?$allocator@D@2@@std@@QAEAAV01@$$QAV01@@Z ENDP ; std::basic_string<char,std::char_traits<char>,std::allocator<char> >::operator=
_TEXT	ENDS
END
