; Listing generated by Microsoft (R) Optimizing Compiler Version 19.34.31937.0 

	TITLE	e:\metin2_server\solwaynesf v6\clientvs22\vs_files\userinterface\distribute\pythonnetworkstreammodule.obj
	.686P
	.XMM
	include listing.inc
	.model	flat

INCLUDELIB OLDNAMES

PUBLIC	??_C@_0BI@HFMJEOAC@GetBettingGuildWarValue@	; `string'
PUBLIC	??_C@_0EE@CPCFCFHF@netSendGuildRemoveMemberPacket?$CI@ ; `string'
PUBLIC	??_C@_0O@JMAHAJJH@SetServerInfo@		; `string'
PUBLIC	??_C@_0BH@LKCAJGCH@EnableChatInsultFilter@	; `string'
PUBLIC	??_C@_0BG@NJCKCHAI@PreserveServerCommand@	; `string'
PUBLIC	??_C@_0O@ODBJLKOA@GetServerInfo@		; `string'
PUBLIC	??_C@_09CFNAMFEF@StartGame@			; `string'
PUBLIC	??_C@_0BK@PJDKKIPH@GetPreservedServerCommand@	; `string'
PUBLIC	??_C@_06OCDJGLIF@IsTest@			; `string'
PUBLIC	??_C@_04EIDOEOJH@Warp@				; `string'
PUBLIC	??_C@_0P@EPNPIBON@IsChatInsultIn@		; `string'
PUBLIC	??_C@_0O@OFMEOEDD@SetMarkServer@		; `string'
PUBLIC	??_C@_0P@NAIDDMMD@LoadInsultList@		; `string'
PUBLIC	??_C@_0L@CJJGFLBC@IsInsultIn@			; `string'
PUBLIC	??_C@_0N@OBKBFHKO@UploadSymbol@			; `string'
PUBLIC	??_C@_0L@JEGFHCJL@UploadMark@			; `string'
PUBLIC	??_C@_0BA@BPHKBGOL@GetMainActorVID@		; `string'
PUBLIC	??_C@_0M@GGDMINDM@GetEmpireID@			; `string'
PUBLIC	??_C@_0BD@JOIEFGML@GetMainActorEmpire@		; `string'
PUBLIC	??_C@_0BB@ICEJKPHA@GetMainActorRace@		; `string'
PUBLIC	??_C@_0CD@PJJNPONG@GetAccountCharacterSlotDataInte@ ; `string'
PUBLIC	??_C@_0BH@GCCMJIJB@GetMainActorSkillGroup@	; `string'
PUBLIC	??_C@_0BG@NAMIDKHD@GetFieldMusicFileName@	; `string'
PUBLIC	??_C@_0CC@DLIFIOE@GetAccountCharacterSlotDataStri@ ; `string'
PUBLIC	??_C@_0BE@BCCLDKB@ToggleGameDebugInfo@		; `string'
PUBLIC	??_C@_0BE@MHKBLINM@GetFieldMusicVolume@		; `string'
PUBLIC	??_C@_0P@EKNNFAK@SetPhaseWindow@		; `string'
PUBLIC	??_C@_0N@GLEGMFLM@SetLoginInfo@			; `string'
PUBLIC	??_C@_0BN@KOOLAHFA@SetServerCommandParserWindow@ ; `string'
PUBLIC	??_C@_0BB@NNDKGCIK@ClearPhaseWindow@		; `string'
PUBLIC	??_C@_0L@EELFNDHB@SetHandler@			; `string'
PUBLIC	??_C@_0BL@NJAILJBB@SetAccountConnectorHandler@	; `string'
PUBLIC	??_C@_0BF@LOLMIHDO@SetTCPSendBufferSize@	; `string'
PUBLIC	??_C@_0BF@KAEIEPML@SetTCPRecvBufferSize@	; `string'
PUBLIC	??_C@_0M@PAACKIAL@DirectEnter@			; `string'
PUBLIC	??_C@_0BF@GPIIIFGB@SetUDPRecvBufferSize@	; `string'
PUBLIC	??_C@_08ENBHLCHD@ExitGame@			; `string'
PUBLIC	??_C@_0L@LPFGMFBP@LogOutGame@			; `string'
PUBLIC	??_C@_0L@HNEKCIDO@ConnectTCP@			; `string'
PUBLIC	??_C@_0BA@ILFBLEPH@ExitApplication@		; `string'
PUBLIC	??_C@_0BH@CIOLKAIG@ConnectToAccountServer@	; `string'
PUBLIC	??_C@_0L@MALJFJNO@ConnectUDP@			; `string'
PUBLIC	??_C@_0BA@CNDIKGCL@SendLoginPacket@		; `string'
PUBLIC	??_C@_0BD@FJEJICMG@SendTargetInfoLoad@		; `string'
PUBLIC	??_C@_0BK@KNELICML@SendRunupMatrixCardPacket@	; `string'
PUBLIC	??_C@_0BK@GJKBNMLJ@SendChinaMatrixCardPacket@	; `string'
PUBLIC	??_C@_0BK@MIKAHKDI@SendSelectCharacterPacket@	; `string'
PUBLIC	??_C@_0BH@IIELEKKA@SendSelectEmpirePacket@	; `string'
PUBLIC	??_C@_0BK@NPKEAJJ@SendCreateCharacterPacket@	; `string'
PUBLIC	??_C@_0BF@ODLJDBF@SendChangeNamePacket@		; `string'
PUBLIC	??_C@_0BE@NBECPFPH@SendEnterGamePacket@		; `string'
PUBLIC	??_C@_0BL@PMHPNGGJ@SendDestroyCharacterPacket@	; `string'
PUBLIC	??_C@_0BI@OBDMDOIB@SendItemUseToItemPacket@	; `string'
PUBLIC	??_C@_0BC@NHAKBOCP@SendItemUsePacket@		; `string'
PUBLIC	??_C@_0BG@PNFNACGL@SendItemDropPacketNew@	; `string'
PUBLIC	??_C@_0BD@ICCAOJBA@SendItemDropPacket@		; `string'
PUBLIC	??_C@_0BC@NEDFAOHK@SendElkDropPacket@		; `string'
PUBLIC	??_C@_0BG@LMAHKAGJ@SendItemDestroyPacket@	; `string'
PUBLIC	??_C@_0BD@BPAFBGKI@SendItemMovePacket@		; `string'
PUBLIC	??_C@_0BG@ONKCIEDE@SendGoldDropPacketNew@	; `string'
PUBLIC	??_C@_0BD@FMAJCJM@SendGiveItemPacket@		; `string'
PUBLIC	??_C@_0BF@PJHEIMI@SendItemPickUpPacket@		; `string'
PUBLIC	??_C@_0L@CMGJAGDM@Disconnect@			; `string'
PUBLIC	??_C@_0BA@NKMDDBDL@SetOfflinePhase@		; `string'
PUBLIC	??_C@_0P@FJOINOIH@SendChatPacket@		; `string'
PUBLIC	??_C@_09HENONEEN@IsConnect@			; `string'
PUBLIC	??_C@_0BC@KNMEABPD@SendWhisperPacket@		; `string'
PUBLIC	??_C@_0N@BJHGOHPC@SendEmoticon@			; `string'
PUBLIC	??_C@_0BM@KAMAKIKL@SendCharacterPositionPacket@	; `string'
PUBLIC	??_C@_0BI@BFCIMAOL@SendMobileMessagePacket@	; `string'
PUBLIC	??_C@_0BC@FPBLEBCL@SendShopBuyPacket@		; `string'
PUBLIC	??_C@_0BC@HEOMKCAE@SendShopEndPacket@		; `string'
PUBLIC	??_C@_0BG@BGJEIPGN@SendShopSellPacketNew@	; `string'
PUBLIC	??_C@_0BD@BFMEHPEE@SendShopSellPacket@		; `string'
PUBLIC	??_C@_0BK@IIFDLCNA@SendExchangeItemAddPacket@	; `string'
PUBLIC	??_C@_0BI@BGNKGFKO@SendExchangeStartPacket@	; `string'
PUBLIC	??_C@_0BJ@CGGGIOGM@SendExchangeElkAddPacket@	; `string'
PUBLIC	??_C@_0BK@KKOEHGGC@SendExchangeItemDelPacket@	; `string'
PUBLIC	??_C@_0BH@NCONKHHB@SendExchangeExitPacket@	; `string'
PUBLIC	??_C@_0BJ@OFKJBLDC@SendExchangeAcceptPacket@	; `string'
PUBLIC	??_C@_0BH@MCKLKDJM@RegisterEmoticonString@	; `string'
PUBLIC	??_C@_0BC@FMJHAGEI@SendOnClickPacket@		; `string'
PUBLIC	??_C@_0BN@MPMOLLL@SendMessengerAddByNamePacket@	; `string'
PUBLIC	??_C@_0BM@CFLPIFFM@SendMessengerAddByVIDPacket@	; `string'
PUBLIC	??_C@_0BG@IFGKMOED@SendPartyInvitePacket@	; `string'
PUBLIC	??_C@_0BK@GIIDGGBB@SendMessengerRemovePacket@	; `string'
PUBLIC	??_C@_0BE@JHFPDGFP@SendPartyExitPacket@		; `string'
PUBLIC	??_C@_0BM@PFAFFBJO@SendPartyInviteAnswerPacket@	; `string'
PUBLIC	??_C@_0BI@LNEGCCFH@SendPartySetStatePacket@	; `string'
PUBLIC	??_C@_0BG@JAJGIHK@SendPartyRemovePacket@	; `string'
PUBLIC	??_C@_0BJ@JGBOMHFI@SendPartyParameterPacket@	; `string'
PUBLIC	??_C@_0BI@EONDHFJL@SendPartyUseSkillPacket@	; `string'
PUBLIC	??_C@_0BP@MLAJADAA@SendSafeboxWithdrawMoneyPacket@ ; `string'
PUBLIC	??_C@_0BL@CAAOLIHO@SendSafeboxSaveMoneyPacket@	; `string'
PUBLIC	??_C@_0BK@LJAMACPE@SendSafeboxCheckoutPacket@	; `string'
PUBLIC	??_C@_0BJ@HNJCKALG@SendSafeboxCheckinPacket@	; `string'
PUBLIC	??_C@_0BH@BDNDNKGE@SendMallCheckoutPacket@	; `string'
PUBLIC	??_C@_0BK@JMMAEJFJ@SendSafeboxItemMovePacket@	; `string'
PUBLIC	??_C@_0BL@BJLFPMAE@SendQuestInputStringPacket@	; `string'
PUBLIC	??_C@_0BK@HLNHPAPM@SendAnswerMakeGuildPacket@	; `string'
PUBLIC	??_C@_0BJ@MFJNIJIJ@SendGuildAddMemberPacket@	; `string'
PUBLIC	??_C@_0BH@HMDNFHNB@SendQuestConfirmPacket@	; `string'
PUBLIC	??_C@_0BP@ODLEJFMG@SendGuildChangeGradeNamePacket@ ; `string'
PUBLIC	??_C@_0BM@GAJEHHNG@SendGuildRemoveMemberPacket@	; `string'
PUBLIC	??_C@_0BF@OAFAHAKB@SendGuildOfferPacket@	; `string'
PUBLIC	??_C@_0CE@EFLFPPCO@SendGuildChangeGradeAuthorityPa@ ; `string'
PUBLIC	??_C@_0BN@MBNLMFLO@SendGuildDeleteCommentPacket@ ; `string'
PUBLIC	??_C@_0BL@JLEHIONL@SendGuildPostCommentPacket@	; `string'
PUBLIC	??_C@_0CB@KOIDGNFC@SendGuildChangeMemberGradePacke@ ; `string'
PUBLIC	??_C@_0BP@BKEOCNGM@SendGuildRefreshCommentsPacket@ ; `string'
PUBLIC	??_C@_0CD@BMLIKMKL@SendGuildChangeMemberGeneralPac@ ; `string'
PUBLIC	??_C@_0BI@HICDMLJH@SendGuildUseSkillPacket@	; `string'
PUBLIC	??_C@_0BJ@LKJGDIEE@SendGuildChargeGSPPacket@	; `string'
PUBLIC	??_C@_0BM@KLBFEJBI@SendGuildInviteAnswerPacket@	; `string'
PUBLIC	??_C@_0BN@BPJGBHPL@SendGuildWithdrawMoneyPacket@ ; `string'
PUBLIC	??_C@_0BM@HDHMFNNO@SendGuildDepositMoneyPacket@	; `string'
PUBLIC	??_C@_0BB@MBCAEHJO@SendRefinePacket@		; `string'
PUBLIC	??_C@_0BM@NLIMKJKK@SendRequestRefineInfoPacket@	; `string'
PUBLIC	??_C@_0BG@HLIDKLKJ@SetPacketSequenceMode@	; `string'
PUBLIC	??_C@_0BF@HEJDCMFH@SendSelectItemPacket@	; `string'
PUBLIC	??_C@_0BC@NOAKHLIH@SetSkillGroupFake@		; `string'
PUBLIC	??_C@_0BG@KCIMJDEA@SetEmpireLanguageMode@	; `string'
PUBLIC	??_C@_0BD@PIFKMNDO@DisconnectUploader@		; `string'
PUBLIC	??_C@_0BA@EGLEIBFB@SendGuildSymbol@		; `string'
PUBLIC	??_C@_0BB@CABIEEGM@RegisterErrorLog@		; `string'
PUBLIC	??_C@_0BA@ILHNHDAK@RecvGuildSymbol@		; `string'
PUBLIC	??_C@_0L@LILDODAP@ERROR_NONE@			; `string'
PUBLIC	??_C@_03NBFOK@net@				; `string'
PUBLIC	??_C@_0BA@NEJKKBEJ@ERROR_LOAD_MARK@		; `string'
PUBLIC	??_C@_0BK@BILAANNF@ERROR_CONNECT_MARK_SERVER@	; `string'
PUBLIC	??_C@_0BC@GOIIBBEJ@ERROR_MARK_HEIGHT@		; `string'
PUBLIC	??_C@_0BB@FEGLKDMB@ERROR_MARK_WIDTH@		; `string'
PUBLIC	??_C@_0CA@JMHMMKLO@ERROR_MARK_CHECK_NEED_RECONNECT@ ; `string'
PUBLIC	??_C@_0CB@BOPIDGGI@ERROR_MARK_UPLOAD_NEED_RECONNEC@ ; `string'
PUBLIC	??_C@_0BE@EBCKEIDN@PHASE_WINDOW_SELECT@		; `string'
PUBLIC	??_C@_0BD@JBLBGAIB@PHASE_WINDOW_LOGIN@		; `string'
PUBLIC	??_C@_0BC@PFELHICG@PHASE_WINDOW_LOAD@		; `string'
PUBLIC	??_C@_0BE@PAOFIFBD@PHASE_WINDOW_CREATE@		; `string'
PUBLIC	??_C@_0BE@IIMEMMI@PHASE_WINDOW_EMPIRE@		; `string'
PUBLIC	??_C@_0BC@HCEFPGCB@PHASE_WINDOW_GAME@		; `string'
PUBLIC	??_C@_0BK@HDGGAJBJ@ACCOUNT_CHARACTER_SLOT_ID@	; `string'
PUBLIC	??_C@_0BC@BCDCNNFP@PHASE_WINDOW_LOGO@		; `string'
PUBLIC	??_C@_0BM@DNOALMKC@ACCOUNT_CHARACTER_SLOT_RACE@	; `string'
PUBLIC	??_C@_0BM@JCGOOLCL@ACCOUNT_CHARACTER_SLOT_NAME@	; `string'
PUBLIC	??_C@_0BL@MPBHOFJE@ACCOUNT_CHARACTER_SLOT_STR@	; `string'
PUBLIC	??_C@_0BN@MPLCEAPH@ACCOUNT_CHARACTER_SLOT_LEVEL@ ; `string'
PUBLIC	??_C@_0BL@LHFINDEP@ACCOUNT_CHARACTER_SLOT_INT@	; `string'
PUBLIC	??_C@_0BL@OFNCKLHP@ACCOUNT_CHARACTER_SLOT_DEX@	; `string'
PUBLIC	??_C@_0CA@KFILFMPG@ACCOUNT_CHARACTER_SLOT_PLAYTIME@ ; `string'
PUBLIC	??_C@_0BL@PICCMPNB@ACCOUNT_CHARACTER_SLOT_HTH@	; `string'
PUBLIC	??_C@_0BM@CNLCDDNB@ACCOUNT_CHARACTER_SLOT_ADDR@	; `string'
PUBLIC	??_C@_0BM@JNGCLJJM@ACCOUNT_CHARACTER_SLOT_FORM@	; `string'
PUBLIC	??_C@_0CA@GFKKICFN@ACCOUNT_CHARACTER_SLOT_GUILD_ID@ ; `string'
PUBLIC	??_C@_0BM@OJMCHCKG@ACCOUNT_CHARACTER_SLOT_PORT@	; `string'
PUBLIC	??_C@_0CI@NIHCCHJE@ACCOUNT_CHARACTER_SLOT_CHANGE_N@ ; `string'
PUBLIC	??_C@_0CC@HMBBCNEO@ACCOUNT_CHARACTER_SLOT_GUILD_NA@ ; `string'
PUBLIC	??_C@_0BM@KJAIEICP@ACCOUNT_CHARACTER_SLOT_SASH@	; `string'
PUBLIC	??_C@_0BM@BPKEDCMB@ACCOUNT_CHARACTER_SLOT_HAIR@	; `string'
PUBLIC	??_C@_0CK@IDBHOJE@SERVER_COMMAND_RETURN_TO_SELECT@ ; `string'
PUBLIC	??_C@_0BH@IJCJGIEO@SERVER_COMMAND_LOG_OUT@	; `string'
PUBLIC	??_C@_08FEHCOLFL@EMPIRE_A@			; `string'
PUBLIC	??_C@_0BE@FCDHFIHM@SERVER_COMMAND_QUIT@		; `string'
PUBLIC	??_C@_08GGEEIJNJ@EMPIRE_C@			; `string'
PUBLIC	??_C@_08HPFPLIJI@EMPIRE_B@			; `string'
PUBLIC	??_C@_0CF@NHMIOPGD@DS_SUB_HEADER_REFINE_FAIL_MAX_R@ ; `string'
PUBLIC	??_C@_0BK@IMPJEABP@DS_SUB_HEADER_REFINE_FAIL@	; `string'
PUBLIC	??_C@_0CL@DKLCPNME@DS_SUB_HEADER_REFINE_FAIL_NOT_E@ ; `string'
PUBLIC	??_C@_0CL@CHMHFOOJ@DS_SUB_HEADER_REFINE_FAIL_INVAL@ ; `string'
PUBLIC	??_C@_0CM@PJCLJBCJ@DS_SUB_HEADER_REFINE_FAIL_TOO_M@ ; `string'
PUBLIC	??_C@_0CO@HIKHGDBM@DS_SUB_HEADER_REFINE_FAIL_NOT_E@ ; `string'
PUBLIC	??_C@_0BN@OJONLPHM@DS_SUB_HEADER_REFINE_SUCCEED@ ; `string'
EXTRN	?SetPacketSequenceMode@CNetworkStream@@QAEX_N@Z:PROC ; CNetworkStream::SetPacketSequenceMode
EXTRN	?PyTuple_GetInteger@@YA_NPAU_object@@HPAE@Z:PROC ; PyTuple_GetInteger
EXTRN	?PyTuple_GetLongLong@@YA_NPAU_object@@HPA_J@Z:PROC ; PyTuple_GetLongLong
EXTRN	?PyTuple_GetInteger@@YA_NPAU_object@@HPAG@Z:PROC ; PyTuple_GetInteger
EXTRN	?PyTuple_GetByte@@YA_NPAU_object@@HPAE@Z:PROC	; PyTuple_GetByte
;	COMDAT ?s_methods@?1??initnet@@YAXXZ@4PAUPyMethodDef@@A
_DATA	SEGMENT
?s_methods@?1??initnet@@YAXXZ@4PAUPyMethodDef@@A DD FLAT:??_C@_0BI@HFMJEOAC@GetBettingGuildWarValue@ ; `initnet'::`2'::s_methods
	DD	FLAT:?netGetBettingGuildWarValue@@YAPAU_object@@PAU1@0@Z
	DD	01H
	ORG $+4
	DD	FLAT:??_C@_0BH@LKCAJGCH@EnableChatInsultFilter@
	DD	FLAT:?netEnableChatInsultFilter@@YAPAU_object@@PAU1@0@Z
	DD	01H
	ORG $+4
	DD	FLAT:??_C@_0O@JMAHAJJH@SetServerInfo@
	DD	FLAT:?netSetServerInfo@@YAPAU_object@@PAU1@0@Z
	DD	01H
	ORG $+4
	DD	FLAT:??_C@_0O@ODBJLKOA@GetServerInfo@
	DD	FLAT:?netGetServerInfo@@YAPAU_object@@PAU1@0@Z
	DD	01H
	ORG $+4
	DD	FLAT:??_C@_0BG@NJCKCHAI@PreserveServerCommand@
	DD	FLAT:?netPreserveServerCommand@@YAPAU_object@@PAU1@0@Z
	DD	01H
	ORG $+4
	DD	FLAT:??_C@_0BK@PJDKKIPH@GetPreservedServerCommand@
	DD	FLAT:?netGetPreservedServerCommand@@YAPAU_object@@PAU1@0@Z
	DD	01H
	ORG $+4
	DD	FLAT:??_C@_09CFNAMFEF@StartGame@
	DD	FLAT:?netStartGame@@YAPAU_object@@PAU1@0@Z
	DD	01H
	ORG $+4
	DD	FLAT:??_C@_04EIDOEOJH@Warp@
	DD	FLAT:?netWarp@@YAPAU_object@@PAU1@0@Z
	DD	01H
	ORG $+4
	DD	FLAT:??_C@_06OCDJGLIF@IsTest@
	DD	FLAT:?netIsTest@@YAPAU_object@@PAU1@0@Z
	DD	01H
	ORG $+4
	DD	FLAT:??_C@_0O@OFMEOEDD@SetMarkServer@
	DD	FLAT:?netSetMarkServer@@YAPAU_object@@PAU1@0@Z
	DD	01H
	ORG $+4
	DD	FLAT:??_C@_0P@EPNPIBON@IsChatInsultIn@
	DD	FLAT:?netIsChatInsultIn@@YAPAU_object@@PAU1@0@Z
	DD	01H
	ORG $+4
	DD	FLAT:??_C@_0L@CJJGFLBC@IsInsultIn@
	DD	FLAT:?netIsInsultIn@@YAPAU_object@@PAU1@0@Z
	DD	01H
	ORG $+4
	DD	FLAT:??_C@_0P@NAIDDMMD@LoadInsultList@
	DD	FLAT:?netLoadInsultList@@YAPAU_object@@PAU1@0@Z
	DD	01H
	ORG $+4
	DD	FLAT:??_C@_0L@JEGFHCJL@UploadMark@
	DD	FLAT:?netUploadMark@@YAPAU_object@@PAU1@0@Z
	DD	01H
	ORG $+4
	DD	FLAT:??_C@_0N@OBKBFHKO@UploadSymbol@
	DD	FLAT:?netUploadSymbol@@YAPAU_object@@PAU1@0@Z
	DD	01H
	ORG $+4
	DD	FLAT:??_C@_0L@EAKBLDCO@GetGuildID@
	DD	FLAT:?netGetGuildID@@YAPAU_object@@PAU1@0@Z
	DD	01H
	ORG $+4
	DD	FLAT:??_C@_0M@GGDMINDM@GetEmpireID@
	DD	FLAT:?netGetEmpireID@@YAPAU_object@@PAU1@0@Z
	DD	01H
	ORG $+4
	DD	FLAT:??_C@_0BA@BPHKBGOL@GetMainActorVID@
	DD	FLAT:?netGetMainActorVID@@YAPAU_object@@PAU1@0@Z
	DD	01H
	ORG $+4
	DD	FLAT:??_C@_0BB@ICEJKPHA@GetMainActorRace@
	DD	FLAT:?netGetMainActorRace@@YAPAU_object@@PAU1@0@Z
	DD	01H
	ORG $+4
	DD	FLAT:??_C@_0BD@JOIEFGML@GetMainActorEmpire@
	DD	FLAT:?netGetMainActorEmpire@@YAPAU_object@@PAU1@0@Z
	DD	01H
	ORG $+4
	DD	FLAT:??_C@_0BH@GCCMJIJB@GetMainActorSkillGroup@
	DD	FLAT:?netGetMainActorSkillGroup@@YAPAU_object@@PAU1@0@Z
	DD	01H
	ORG $+4
	DD	FLAT:??_C@_0CD@PJJNPONG@GetAccountCharacterSlotDataInte@
	DD	FLAT:?netGetAccountCharacterSlotDataInteger@@YAPAU_object@@PAU1@0@Z
	DD	01H
	ORG $+4
	DD	FLAT:??_C@_0CC@DLIFIOE@GetAccountCharacterSlotDataStri@
	DD	FLAT:?netGetAccountCharacterSlotDataString@@YAPAU_object@@PAU1@0@Z
	DD	01H
	ORG $+4
	DD	FLAT:??_C@_0BG@NAMIDKHD@GetFieldMusicFileName@
	DD	FLAT:?netGetFieldMusicFileName@@YAPAU_object@@PAU1@0@Z
	DD	01H
	ORG $+4
	DD	FLAT:??_C@_0BE@MHKBLINM@GetFieldMusicVolume@
	DD	FLAT:?netGetFieldMusicVolume@@YAPAU_object@@PAU1@0@Z
	DD	01H
	ORG $+4
	DD	FLAT:??_C@_0BE@BCCLDKB@ToggleGameDebugInfo@
	DD	FLAT:?netToggleGameDebugInfo@@YAPAU_object@@PAU1@0@Z
	DD	01H
	ORG $+4
	DD	FLAT:??_C@_0N@GLEGMFLM@SetLoginInfo@
	DD	FLAT:?netSetLoginInfo@@YAPAU_object@@PAU1@0@Z
	DD	01H
	ORG $+4
	DD	FLAT:??_C@_0P@EKNNFAK@SetPhaseWindow@
	DD	FLAT:?netSetPhaseWindow@@YAPAU_object@@PAU1@0@Z
	DD	01H
	ORG $+4
	DD	FLAT:??_C@_0BB@NNDKGCIK@ClearPhaseWindow@
	DD	FLAT:?netClearPhaseWindow@@YAPAU_object@@PAU1@0@Z
	DD	01H
	ORG $+4
	DD	FLAT:??_C@_0BN@KOOLAHFA@SetServerCommandParserWindow@
	DD	FLAT:?netSetServerCommandParserWindow@@YAPAU_object@@PAU1@0@Z
	DD	01H
	ORG $+4
	DD	FLAT:??_C@_0BL@NJAILJBB@SetAccountConnectorHandler@
	DD	FLAT:?netSetAccountConnectorHandler@@YAPAU_object@@PAU1@0@Z
	DD	01H
	ORG $+4
	DD	FLAT:??_C@_0L@EELFNDHB@SetHandler@
	DD	FLAT:?netSetHandler@@YAPAU_object@@PAU1@0@Z
	DD	01H
	ORG $+4
	DD	FLAT:??_C@_0BF@KAEIEPML@SetTCPRecvBufferSize@
	DD	FLAT:?netSetTCPRecvBufferSize@@YAPAU_object@@PAU1@0@Z
	DD	01H
	ORG $+4
	DD	FLAT:??_C@_0BF@LOLMIHDO@SetTCPSendBufferSize@
	DD	FLAT:?netSetTCPSendBufferSize@@YAPAU_object@@PAU1@0@Z
	DD	01H
	ORG $+4
	DD	FLAT:??_C@_0BF@GPIIIFGB@SetUDPRecvBufferSize@
	DD	FLAT:?netSetUDPRecvBufferSize@@YAPAU_object@@PAU1@0@Z
	DD	01H
	ORG $+4
	DD	FLAT:??_C@_0M@PAACKIAL@DirectEnter@
	DD	FLAT:?netDirectEnter@@YAPAU_object@@PAU1@0@Z
	DD	01H
	ORG $+4
	DD	FLAT:??_C@_0L@LPFGMFBP@LogOutGame@
	DD	FLAT:?netLogOutGame@@YAPAU_object@@PAU1@0@Z
	DD	01H
	ORG $+4
	DD	FLAT:??_C@_08ENBHLCHD@ExitGame@
	DD	FLAT:?netExitGame@@YAPAU_object@@PAU1@0@Z
	DD	01H
	ORG $+4
	DD	FLAT:??_C@_0BA@ILFBLEPH@ExitApplication@
	DD	FLAT:?netExitApplication@@YAPAU_object@@PAU1@0@Z
	DD	01H
	ORG $+4
	DD	FLAT:??_C@_0L@HNEKCIDO@ConnectTCP@
	DD	FLAT:?netConnectTCP@@YAPAU_object@@PAU1@0@Z
	DD	01H
	ORG $+4
	DD	FLAT:??_C@_0L@MALJFJNO@ConnectUDP@
	DD	FLAT:?netConnectUDP@@YAPAU_object@@PAU1@0@Z
	DD	01H
	ORG $+4
	DD	FLAT:??_C@_0BH@CIOLKAIG@ConnectToAccountServer@
	DD	FLAT:?netConnectToAccountServer@@YAPAU_object@@PAU1@0@Z
	DD	01H
	ORG $+4
	DD	FLAT:??_C@_0BD@FJEJICMG@SendTargetInfoLoad@
	DD	FLAT:?netTargetInfoLoad@@YAPAU_object@@PAU1@0@Z
	DD	01H
	ORG $+4
	DD	FLAT:??_C@_0BA@CNDIKGCL@SendLoginPacket@
	DD	FLAT:?netSendLoginPacket@@YAPAU_object@@PAU1@0@Z
	DD	01H
	ORG $+4
	DD	FLAT:??_C@_0BK@GJKBNMLJ@SendChinaMatrixCardPacket@
	DD	FLAT:?netSendChinaMatrixCardPacket@@YAPAU_object@@PAU1@0@Z
	DD	01H
	ORG $+4
	DD	FLAT:??_C@_0BK@KNELICML@SendRunupMatrixCardPacket@
	DD	FLAT:?netSendRunupMatrixCardPacket@@YAPAU_object@@PAU1@0@Z
	DD	01H
	ORG $+4
	DD	FLAT:??_C@_0BP@JFBAGMPA@SendNEWCIBNPasspodAnswerPacket@
	DD	FLAT:?netSendNEWCIBNPasspodAnswerPacket@@YAPAU_object@@PAU1@0@Z
	DD	01H
	ORG $+4
	DD	FLAT:??_C@_0BH@IIELEKKA@SendSelectEmpirePacket@
	DD	FLAT:?netSendSelectEmpirePacket@@YAPAU_object@@PAU1@0@Z
	DD	01H
	ORG $+4
	DD	FLAT:??_C@_0BK@MIKAHKDI@SendSelectCharacterPacket@
	DD	FLAT:?netSendSelectCharacterPacket@@YAPAU_object@@PAU1@0@Z
	DD	01H
	ORG $+4
	DD	FLAT:??_C@_0BF@ODLJDBF@SendChangeNamePacket@
	DD	FLAT:?netSendChangeNamePacket@@YAPAU_object@@PAU1@0@Z
	DD	01H
	ORG $+4
	DD	FLAT:??_C@_0BK@NPKEAJJ@SendCreateCharacterPacket@
	DD	FLAT:?netSendCreateCharacterPacket@@YAPAU_object@@PAU1@0@Z
	DD	01H
	ORG $+4
	DD	FLAT:??_C@_0BL@PMHPNGGJ@SendDestroyCharacterPacket@
	DD	FLAT:?netSendDestroyCharacterPacket@@YAPAU_object@@PAU1@0@Z
	DD	01H
	ORG $+4
	DD	FLAT:??_C@_0BE@NBECPFPH@SendEnterGamePacket@
	DD	FLAT:?netSendEnterGamePacket@@YAPAU_object@@PAU1@0@Z
	DD	01H
	ORG $+4
	DD	FLAT:??_C@_0BC@NHAKBOCP@SendItemUsePacket@
	DD	FLAT:?netSendItemUsePacket@@YAPAU_object@@PAU1@0@Z
	DD	01H
	ORG $+4
	DD	FLAT:??_C@_0BI@OBDMDOIB@SendItemUseToItemPacket@
	DD	FLAT:?netSendItemUseToItemPacket@@YAPAU_object@@PAU1@0@Z
	DD	01H
	ORG $+4
	DD	FLAT:??_C@_0BD@ICCAOJBA@SendItemDropPacket@
	DD	FLAT:?netSendItemDropPacket@@YAPAU_object@@PAU1@0@Z
	DD	01H
	ORG $+4
	DD	FLAT:??_C@_0BG@PNFNACGL@SendItemDropPacketNew@
	DD	FLAT:?netSendItemDropPacketNew@@YAPAU_object@@PAU1@0@Z
	DD	01H
	ORG $+4
	DD	FLAT:??_C@_0BG@LMAHKAGJ@SendItemDestroyPacket@
	DD	FLAT:?netSendItemDestroyPacket@@YAPAU_object@@PAU1@0@Z
	DD	01H
	ORG $+4
	DD	FLAT:??_C@_0BC@NEDFAOHK@SendElkDropPacket@
	DD	FLAT:?netSendElkDropPacket@@YAPAU_object@@PAU1@0@Z
	DD	01H
	ORG $+4
	DD	FLAT:??_C@_0BG@ONKCIEDE@SendGoldDropPacketNew@
	DD	FLAT:?netSendGoldDropPacketNew@@YAPAU_object@@PAU1@0@Z
	DD	01H
	ORG $+4
	DD	FLAT:??_C@_0BD@BPAFBGKI@SendItemMovePacket@
	DD	FLAT:?netSendItemMovePacket@@YAPAU_object@@PAU1@0@Z
	DD	01H
	ORG $+4
	DD	FLAT:??_C@_0BF@PJHEIMI@SendItemPickUpPacket@
	DD	FLAT:?netSendItemPickUpPacket@@YAPAU_object@@PAU1@0@Z
	DD	01H
	ORG $+4
	DD	FLAT:??_C@_0BD@FMAJCJM@SendGiveItemPacket@
	DD	FLAT:?netSendGiveItemPacket@@YAPAU_object@@PAU1@0@Z
	DD	01H
	ORG $+4
	DD	FLAT:??_C@_0BA@NKMDDBDL@SetOfflinePhase@
	DD	FLAT:?netSetOfflinePhase@@YAPAU_object@@PAU1@0@Z
	DD	01H
	ORG $+4
	DD	FLAT:??_C@_0L@CMGJAGDM@Disconnect@
	DD	FLAT:?netDisconnect@@YAPAU_object@@PAU1@0@Z
	DD	01H
	ORG $+4
	DD	FLAT:??_C@_09HENONEEN@IsConnect@
	DD	FLAT:?netIsConnect@@YAPAU_object@@PAU1@0@Z
	DD	01H
	ORG $+4
	DD	FLAT:??_C@_0P@FJOINOIH@SendChatPacket@
	DD	FLAT:?netSendChatPacket@@YAPAU_object@@PAU1@0@Z
	DD	01H
	ORG $+4
	DD	FLAT:??_C@_0N@BJHGOHPC@SendEmoticon@
	DD	FLAT:?netSendEmoticon@@YAPAU_object@@PAU1@0@Z
	DD	01H
	ORG $+4
	DD	FLAT:??_C@_0BC@KNMEABPD@SendWhisperPacket@
	DD	FLAT:?netSendWhisperPacket@@YAPAU_object@@PAU1@0@Z
	DD	01H
	ORG $+4
	DD	FLAT:??_C@_0BI@BFCIMAOL@SendMobileMessagePacket@
	DD	FLAT:?netSendMobileMessagePacket@@YAPAU_object@@PAU1@0@Z
	DD	01H
	ORG $+4
	DD	FLAT:??_C@_0BM@KAMAKIKL@SendCharacterPositionPacket@
	DD	FLAT:?netSendCharacterPositionPacket@@YAPAU_object@@PAU1@0@Z
	DD	01H
	ORG $+4
	DD	FLAT:??_C@_0BC@HEOMKCAE@SendShopEndPacket@
	DD	FLAT:?netSendShopEndPacket@@YAPAU_object@@PAU1@0@Z
	DD	01H
	ORG $+4
	DD	FLAT:??_C@_0BC@FPBLEBCL@SendShopBuyPacket@
	DD	FLAT:?netSendShopBuyPacket@@YAPAU_object@@PAU1@0@Z
	DD	01H
	ORG $+4
	DD	FLAT:??_C@_0BD@BFMEHPEE@SendShopSellPacket@
	DD	FLAT:?netSendShopSellPacket@@YAPAU_object@@PAU1@0@Z
	DD	01H
	ORG $+4
	DD	FLAT:??_C@_0BG@BGJEIPGN@SendShopSellPacketNew@
	DD	FLAT:?netSendShopSellPacketNew@@YAPAU_object@@PAU1@0@Z
	DD	01H
	ORG $+4
	DD	FLAT:??_C@_0BI@BGNKGFKO@SendExchangeStartPacket@
	DD	FLAT:?netSendExchangeStartPacket@@YAPAU_object@@PAU1@0@Z
	DD	01H
	ORG $+4
	DD	FLAT:??_C@_0BK@IIFDLCNA@SendExchangeItemAddPacket@
	DD	FLAT:?netSendExchangeItemAddPacket@@YAPAU_object@@PAU1@0@Z
	DD	01H
	ORG $+4
	DD	FLAT:??_C@_0BK@KKOEHGGC@SendExchangeItemDelPacket@
	DD	FLAT:?netSendExchangeItemDelPacket@@YAPAU_object@@PAU1@0@Z
	DD	01H
	ORG $+4
	DD	FLAT:??_C@_0BJ@CGGGIOGM@SendExchangeElkAddPacket@
	DD	FLAT:?netSendExchangeElkAddPacket@@YAPAU_object@@PAU1@0@Z
	DD	01H
	ORG $+4
	DD	FLAT:??_C@_0BJ@OFKJBLDC@SendExchangeAcceptPacket@
	DD	FLAT:?netSendExchangeAcceptPacket@@YAPAU_object@@PAU1@0@Z
	DD	01H
	ORG $+4
	DD	FLAT:??_C@_0BH@NCONKHHB@SendExchangeExitPacket@
	DD	FLAT:?netSendExchangeExitPacket@@YAPAU_object@@PAU1@0@Z
	DD	01H
	ORG $+4
	DD	FLAT:??_C@_0BC@FMJHAGEI@SendOnClickPacket@
	DD	FLAT:?netOnClickPacket@@YAPAU_object@@PAU1@0@Z
	DD	01H
	ORG $+4
	DD	FLAT:??_C@_0BH@MCKLKDJM@RegisterEmoticonString@
	DD	FLAT:?netRegisterEmoticonString@@YAPAU_object@@PAU1@0@Z
	DD	01H
	ORG $+4
	DD	FLAT:??_C@_0BM@CFLPIFFM@SendMessengerAddByVIDPacket@
	DD	FLAT:?netSendMessengerAddByVIDPacket@@YAPAU_object@@PAU1@0@Z
	DD	01H
	ORG $+4
	DD	FLAT:??_C@_0BN@MPMOLLL@SendMessengerAddByNamePacket@
	DD	FLAT:?netSendMessengerAddByNamePacket@@YAPAU_object@@PAU1@0@Z
	DD	01H
	ORG $+4
	DD	FLAT:??_C@_0BK@GIIDGGBB@SendMessengerRemovePacket@
	DD	FLAT:?netSendMessengerRemovePacket@@YAPAU_object@@PAU1@0@Z
	DD	01H
	ORG $+4
	DD	FLAT:??_C@_0BG@IFGKMOED@SendPartyInvitePacket@
	DD	FLAT:?netSendPartyInvitePacket@@YAPAU_object@@PAU1@0@Z
	DD	01H
	ORG $+4
	DD	FLAT:??_C@_0BM@PFAFFBJO@SendPartyInviteAnswerPacket@
	DD	FLAT:?netSendPartyInviteAnswerPacket@@YAPAU_object@@PAU1@0@Z
	DD	01H
	ORG $+4
	DD	FLAT:??_C@_0BE@JHFPDGFP@SendPartyExitPacket@
	DD	FLAT:?netSendPartyExitPacket@@YAPAU_object@@PAU1@0@Z
	DD	01H
	ORG $+4
	DD	FLAT:??_C@_0BG@JAJGIHK@SendPartyRemovePacket@
	DD	FLAT:?netSendPartyRemovePacket@@YAPAU_object@@PAU1@0@Z
	DD	01H
	ORG $+4
	DD	FLAT:??_C@_0BI@LNEGCCFH@SendPartySetStatePacket@
	DD	FLAT:?netSendPartySetStatePacket@@YAPAU_object@@PAU1@0@Z
	DD	01H
	ORG $+4
	DD	FLAT:??_C@_0BI@EONDHFJL@SendPartyUseSkillPacket@
	DD	FLAT:?netSendPartyUseSkillPacket@@YAPAU_object@@PAU1@0@Z
	DD	01H
	ORG $+4
	DD	FLAT:??_C@_0BJ@JGBOMHFI@SendPartyParameterPacket@
	DD	FLAT:?netSendPartyParameterPacket@@YAPAU_object@@PAU1@0@Z
	DD	01H
	ORG $+4
	DD	FLAT:??_C@_0BL@CAAOLIHO@SendSafeboxSaveMoneyPacket@
	DD	FLAT:?netSendSafeboxSaveMoneyPacket@@YAPAU_object@@PAU1@0@Z
	DD	01H
	ORG $+4
	DD	FLAT:??_C@_0BP@MLAJADAA@SendSafeboxWithdrawMoneyPacket@
	DD	FLAT:?netSendSafeboxWithdrawMoneyPacket@@YAPAU_object@@PAU1@0@Z
	DD	01H
	ORG $+4
	DD	FLAT:??_C@_0BJ@HNJCKALG@SendSafeboxCheckinPacket@
	DD	FLAT:?netSendSafeboxCheckinPacket@@YAPAU_object@@PAU1@0@Z
	DD	01H
	ORG $+4
	DD	FLAT:??_C@_0BK@LJAMACPE@SendSafeboxCheckoutPacket@
	DD	FLAT:?netSendSafeboxCheckoutPacket@@YAPAU_object@@PAU1@0@Z
	DD	01H
	ORG $+4
	DD	FLAT:??_C@_0BK@JMMAEJFJ@SendSafeboxItemMovePacket@
	DD	FLAT:?netSendSafeboxItemMovePacket@@YAPAU_object@@PAU1@0@Z
	DD	01H
	ORG $+4
	DD	FLAT:??_C@_0BH@BDNDNKGE@SendMallCheckoutPacket@
	DD	FLAT:?netSendMallCheckoutPacket@@YAPAU_object@@PAU1@0@Z
	DD	01H
	ORG $+4
	DD	FLAT:??_C@_0BK@HLNHPAPM@SendAnswerMakeGuildPacket@
	DD	FLAT:?netSendAnswerMakeGuildPacket@@YAPAU_object@@PAU1@0@Z
	DD	01H
	ORG $+4
	DD	FLAT:??_C@_0BL@BJLFPMAE@SendQuestInputStringPacket@
	DD	FLAT:?netSendQuestInputStringPacket@@YAPAU_object@@PAU1@0@Z
	DD	01H
	ORG $+4
	DD	FLAT:??_C@_0BH@HMDNFHNB@SendQuestConfirmPacket@
	DD	FLAT:?netSendQuestConfirmPacket@@YAPAU_object@@PAU1@0@Z
	DD	01H
	ORG $+4
	DD	FLAT:??_C@_0BJ@MFJNIJIJ@SendGuildAddMemberPacket@
	DD	FLAT:?netSendGuildAddMemberPacket@@YAPAU_object@@PAU1@0@Z
	DD	01H
	ORG $+4
	DD	FLAT:??_C@_0BM@GAJEHHNG@SendGuildRemoveMemberPacket@
	DD	FLAT:?netSendGuildRemoveMemberPacket@@YAPAU_object@@PAU1@0@Z
	DD	01H
	ORG $+4
	DD	FLAT:??_C@_0BP@ODLEJFMG@SendGuildChangeGradeNamePacket@
	DD	FLAT:?netSendGuildChangeGradeNamePacket@@YAPAU_object@@PAU1@0@Z
	DD	01H
	ORG $+4
	DD	FLAT:??_C@_0CE@EFLFPPCO@SendGuildChangeGradeAuthorityPa@
	DD	FLAT:?netSendGuildChangeGradeAuthorityPacket@@YAPAU_object@@PAU1@0@Z
	DD	01H
	ORG $+4
	DD	FLAT:??_C@_0BF@OAFAHAKB@SendGuildOfferPacket@
	DD	FLAT:?netSendGuildOfferPacket@@YAPAU_object@@PAU1@0@Z
	DD	01H
	ORG $+4
	DD	FLAT:??_C@_0BL@JLEHIONL@SendGuildPostCommentPacket@
	DD	FLAT:?netSnedGuildPostCommentPacket@@YAPAU_object@@PAU1@0@Z
	DD	01H
	ORG $+4
	DD	FLAT:??_C@_0BN@MBNLMFLO@SendGuildDeleteCommentPacket@
	DD	FLAT:?netSnedGuildDeleteCommentPacket@@YAPAU_object@@PAU1@0@Z
	DD	01H
	ORG $+4
	DD	FLAT:??_C@_0BP@BKEOCNGM@SendGuildRefreshCommentsPacket@
	DD	FLAT:?netSendGuildRefreshCommentsPacket@@YAPAU_object@@PAU1@0@Z
	DD	01H
	ORG $+4
	DD	FLAT:??_C@_0CB@KOIDGNFC@SendGuildChangeMemberGradePacke@
	DD	FLAT:?netSendGuildChangeMemberGradePacket@@YAPAU_object@@PAU1@0@Z
	DD	01H
	ORG $+4
	DD	FLAT:??_C@_0BI@HICDMLJH@SendGuildUseSkillPacket@
	DD	FLAT:?netSendGuildUseSkillPacket@@YAPAU_object@@PAU1@0@Z
	DD	01H
	ORG $+4
	DD	FLAT:??_C@_0CD@BMLIKMKL@SendGuildChangeMemberGeneralPac@
	DD	FLAT:?netSendGuildChangeMemberGeneralPacket@@YAPAU_object@@PAU1@0@Z
	DD	01H
	ORG $+4
	DD	FLAT:??_C@_0BM@KLBFEJBI@SendGuildInviteAnswerPacket@
	DD	FLAT:?netSendGuildInviteAnswerPacket@@YAPAU_object@@PAU1@0@Z
	DD	01H
	ORG $+4
	DD	FLAT:??_C@_0BJ@LKJGDIEE@SendGuildChargeGSPPacket@
	DD	FLAT:?netSendGuildChargeGSPPacket@@YAPAU_object@@PAU1@0@Z
	DD	01H
	ORG $+4
	DD	FLAT:??_C@_0BM@HDHMFNNO@SendGuildDepositMoneyPacket@
	DD	FLAT:?netSendGuildDepositMoneyPacket@@YAPAU_object@@PAU1@0@Z
	DD	01H
	ORG $+4
	DD	FLAT:??_C@_0BN@BPJGBHPL@SendGuildWithdrawMoneyPacket@
	DD	FLAT:?netSendGuildWithdrawMoneyPacket@@YAPAU_object@@PAU1@0@Z
	DD	01H
	ORG $+4
	DD	FLAT:??_C@_0BM@NLIMKJKK@SendRequestRefineInfoPacket@
	DD	FLAT:?netSendRequestRefineInfoPacket@@YAPAU_object@@PAU1@0@Z
	DD	01H
	ORG $+4
	DD	FLAT:??_C@_0BB@MBCAEHJO@SendRefinePacket@
	DD	FLAT:?netSendRefinePacket@@YAPAU_object@@PAU1@0@Z
	DD	01H
	ORG $+4
	DD	FLAT:??_C@_0BF@HEJDCMFH@SendSelectItemPacket@
	DD	FLAT:?netSendSelectItemPacket@@YAPAU_object@@PAU1@0@Z
	DD	01H
	ORG $+4
	DD	FLAT:??_C@_0BG@HLIDKLKJ@SetPacketSequenceMode@
	DD	FLAT:?netSetPacketSequenceMode@@YAPAU_object@@PAU1@0@Z
	DD	01H
	ORG $+4
	DD	FLAT:??_C@_0BG@KCIMJDEA@SetEmpireLanguageMode@
	DD	FLAT:?netSetEmpireLanguageMode@@YAPAU_object@@PAU1@0@Z
	DD	01H
	ORG $+4
	DD	FLAT:??_C@_0BC@NOAKHLIH@SetSkillGroupFake@
	DD	FLAT:?netSetSkillGroupFake@@YAPAU_object@@PAU1@0@Z
	DD	01H
	ORG $+4
	DD	FLAT:??_C@_0BA@EGLEIBFB@SendGuildSymbol@
	DD	FLAT:?netSendGuildSymbol@@YAPAU_object@@PAU1@0@Z
	DD	01H
	ORG $+4
	DD	FLAT:??_C@_0BD@PIFKMNDO@DisconnectUploader@
	DD	FLAT:?netDisconnectUploader@@YAPAU_object@@PAU1@0@Z
	DD	01H
	ORG $+4
	DD	FLAT:??_C@_0BA@ILHNHDAK@RecvGuildSymbol@
	DD	FLAT:?netRecvGuildSymbol@@YAPAU_object@@PAU1@0@Z
	DD	01H
	ORG $+4
	DD	FLAT:??_C@_0BB@CABIEEGM@RegisterErrorLog@
	DD	FLAT:?netRegisterErrorLog@@YAPAU_object@@PAU1@0@Z
	DD	01H
	ORG $+4
	DD	00H
	DD	00H
	DD	00H
	ORG $+4
_DATA	ENDS
;	COMDAT ??_C@_0BN@OJONLPHM@DS_SUB_HEADER_REFINE_SUCCEED@
CONST	SEGMENT
??_C@_0BN@OJONLPHM@DS_SUB_HEADER_REFINE_SUCCEED@ DB 'DS_SUB_HEADER_REFINE'
	DB	'_SUCCEED', 00H				; `string'
CONST	ENDS
;	COMDAT ??_C@_0CO@HIKHGDBM@DS_SUB_HEADER_REFINE_FAIL_NOT_E@
CONST	SEGMENT
??_C@_0CO@HIKHGDBM@DS_SUB_HEADER_REFINE_FAIL_NOT_E@ DB 'DS_SUB_HEADER_REF'
	DB	'INE_FAIL_NOT_ENOUGH_MATERIAL', 00H		; `string'
CONST	ENDS
;	COMDAT ??_C@_0CM@PJCLJBCJ@DS_SUB_HEADER_REFINE_FAIL_TOO_M@
CONST	SEGMENT
??_C@_0CM@PJCLJBCJ@DS_SUB_HEADER_REFINE_FAIL_TOO_M@ DB 'DS_SUB_HEADER_REF'
	DB	'INE_FAIL_TOO_MUCH_MATERIAL', 00H		; `string'
CONST	ENDS
;	COMDAT ??_C@_0CL@CHMHFOOJ@DS_SUB_HEADER_REFINE_FAIL_INVAL@
CONST	SEGMENT
??_C@_0CL@CHMHFOOJ@DS_SUB_HEADER_REFINE_FAIL_INVAL@ DB 'DS_SUB_HEADER_REF'
	DB	'INE_FAIL_INVALID_MATERIAL', 00H		; `string'
CONST	ENDS
;	COMDAT ??_C@_0CL@DKLCPNME@DS_SUB_HEADER_REFINE_FAIL_NOT_E@
CONST	SEGMENT
??_C@_0CL@DKLCPNME@DS_SUB_HEADER_REFINE_FAIL_NOT_E@ DB 'DS_SUB_HEADER_REF'
	DB	'INE_FAIL_NOT_ENOUGH_MONEY', 00H		; `string'
CONST	ENDS
;	COMDAT ??_C@_0BK@IMPJEABP@DS_SUB_HEADER_REFINE_FAIL@
CONST	SEGMENT
??_C@_0BK@IMPJEABP@DS_SUB_HEADER_REFINE_FAIL@ DB 'DS_SUB_HEADER_REFINE_FA'
	DB	'IL', 00H					; `string'
CONST	ENDS
;	COMDAT ??_C@_0CF@NHMIOPGD@DS_SUB_HEADER_REFINE_FAIL_MAX_R@
CONST	SEGMENT
??_C@_0CF@NHMIOPGD@DS_SUB_HEADER_REFINE_FAIL_MAX_R@ DB 'DS_SUB_HEADER_REF'
	DB	'INE_FAIL_MAX_REFINE', 00H			; `string'
CONST	ENDS
;	COMDAT ??_C@_08HPFPLIJI@EMPIRE_B@
CONST	SEGMENT
??_C@_08HPFPLIJI@EMPIRE_B@ DB 'EMPIRE_B', 00H		; `string'
CONST	ENDS
;	COMDAT ??_C@_08GGEEIJNJ@EMPIRE_C@
CONST	SEGMENT
??_C@_08GGEEIJNJ@EMPIRE_C@ DB 'EMPIRE_C', 00H		; `string'
CONST	ENDS
;	COMDAT ??_C@_0BE@FCDHFIHM@SERVER_COMMAND_QUIT@
CONST	SEGMENT
??_C@_0BE@FCDHFIHM@SERVER_COMMAND_QUIT@ DB 'SERVER_COMMAND_QUIT', 00H ; `string'
CONST	ENDS
;	COMDAT ??_C@_08FEHCOLFL@EMPIRE_A@
CONST	SEGMENT
??_C@_08FEHCOLFL@EMPIRE_A@ DB 'EMPIRE_A', 00H		; `string'
CONST	ENDS
;	COMDAT ??_C@_0BH@IJCJGIEO@SERVER_COMMAND_LOG_OUT@
CONST	SEGMENT
??_C@_0BH@IJCJGIEO@SERVER_COMMAND_LOG_OUT@ DB 'SERVER_COMMAND_LOG_OUT', 00H ; `string'
CONST	ENDS
;	COMDAT ??_C@_0CK@IDBHOJE@SERVER_COMMAND_RETURN_TO_SELECT@
CONST	SEGMENT
??_C@_0CK@IDBHOJE@SERVER_COMMAND_RETURN_TO_SELECT@ DB 'SERVER_COMMAND_RET'
	DB	'URN_TO_SELECT_CHARACTER', 00H		; `string'
CONST	ENDS
;	COMDAT ??_C@_0BM@BPKEDCMB@ACCOUNT_CHARACTER_SLOT_HAIR@
CONST	SEGMENT
??_C@_0BM@BPKEDCMB@ACCOUNT_CHARACTER_SLOT_HAIR@ DB 'ACCOUNT_CHARACTER_SLO'
	DB	'T_HAIR', 00H				; `string'
CONST	ENDS
;	COMDAT ??_C@_0BM@KJAIEICP@ACCOUNT_CHARACTER_SLOT_SASH@
CONST	SEGMENT
??_C@_0BM@KJAIEICP@ACCOUNT_CHARACTER_SLOT_SASH@ DB 'ACCOUNT_CHARACTER_SLO'
	DB	'T_SASH', 00H				; `string'
CONST	ENDS
;	COMDAT ??_C@_0CC@HMBBCNEO@ACCOUNT_CHARACTER_SLOT_GUILD_NA@
CONST	SEGMENT
??_C@_0CC@HMBBCNEO@ACCOUNT_CHARACTER_SLOT_GUILD_NA@ DB 'ACCOUNT_CHARACTER'
	DB	'_SLOT_GUILD_NAME', 00H			; `string'
CONST	ENDS
;	COMDAT ??_C@_0CI@NIHCCHJE@ACCOUNT_CHARACTER_SLOT_CHANGE_N@
CONST	SEGMENT
??_C@_0CI@NIHCCHJE@ACCOUNT_CHARACTER_SLOT_CHANGE_N@ DB 'ACCOUNT_CHARACTER'
	DB	'_SLOT_CHANGE_NAME_FLAG', 00H		; `string'
CONST	ENDS
;	COMDAT ??_C@_0BM@OJMCHCKG@ACCOUNT_CHARACTER_SLOT_PORT@
CONST	SEGMENT
??_C@_0BM@OJMCHCKG@ACCOUNT_CHARACTER_SLOT_PORT@ DB 'ACCOUNT_CHARACTER_SLO'
	DB	'T_PORT', 00H				; `string'
CONST	ENDS
;	COMDAT ??_C@_0CA@GFKKICFN@ACCOUNT_CHARACTER_SLOT_GUILD_ID@
CONST	SEGMENT
??_C@_0CA@GFKKICFN@ACCOUNT_CHARACTER_SLOT_GUILD_ID@ DB 'ACCOUNT_CHARACTER'
	DB	'_SLOT_GUILD_ID', 00H			; `string'
CONST	ENDS
;	COMDAT ??_C@_0BM@JNGCLJJM@ACCOUNT_CHARACTER_SLOT_FORM@
CONST	SEGMENT
??_C@_0BM@JNGCLJJM@ACCOUNT_CHARACTER_SLOT_FORM@ DB 'ACCOUNT_CHARACTER_SLO'
	DB	'T_FORM', 00H				; `string'
CONST	ENDS
;	COMDAT ??_C@_0BM@CNLCDDNB@ACCOUNT_CHARACTER_SLOT_ADDR@
CONST	SEGMENT
??_C@_0BM@CNLCDDNB@ACCOUNT_CHARACTER_SLOT_ADDR@ DB 'ACCOUNT_CHARACTER_SLO'
	DB	'T_ADDR', 00H				; `string'
CONST	ENDS
;	COMDAT ??_C@_0BL@PICCMPNB@ACCOUNT_CHARACTER_SLOT_HTH@
CONST	SEGMENT
??_C@_0BL@PICCMPNB@ACCOUNT_CHARACTER_SLOT_HTH@ DB 'ACCOUNT_CHARACTER_SLOT'
	DB	'_HTH', 00H					; `string'
CONST	ENDS
;	COMDAT ??_C@_0CA@KFILFMPG@ACCOUNT_CHARACTER_SLOT_PLAYTIME@
CONST	SEGMENT
??_C@_0CA@KFILFMPG@ACCOUNT_CHARACTER_SLOT_PLAYTIME@ DB 'ACCOUNT_CHARACTER'
	DB	'_SLOT_PLAYTIME', 00H			; `string'
CONST	ENDS
;	COMDAT ??_C@_0BL@OFNCKLHP@ACCOUNT_CHARACTER_SLOT_DEX@
CONST	SEGMENT
??_C@_0BL@OFNCKLHP@ACCOUNT_CHARACTER_SLOT_DEX@ DB 'ACCOUNT_CHARACTER_SLOT'
	DB	'_DEX', 00H					; `string'
CONST	ENDS
;	COMDAT ??_C@_0BL@LHFINDEP@ACCOUNT_CHARACTER_SLOT_INT@
CONST	SEGMENT
??_C@_0BL@LHFINDEP@ACCOUNT_CHARACTER_SLOT_INT@ DB 'ACCOUNT_CHARACTER_SLOT'
	DB	'_INT', 00H					; `string'
CONST	ENDS
;	COMDAT ??_C@_0BN@MPLCEAPH@ACCOUNT_CHARACTER_SLOT_LEVEL@
CONST	SEGMENT
??_C@_0BN@MPLCEAPH@ACCOUNT_CHARACTER_SLOT_LEVEL@ DB 'ACCOUNT_CHARACTER_SL'
	DB	'OT_LEVEL', 00H				; `string'
CONST	ENDS
;	COMDAT ??_C@_0BL@MPBHOFJE@ACCOUNT_CHARACTER_SLOT_STR@
CONST	SEGMENT
??_C@_0BL@MPBHOFJE@ACCOUNT_CHARACTER_SLOT_STR@ DB 'ACCOUNT_CHARACTER_SLOT'
	DB	'_STR', 00H					; `string'
CONST	ENDS
;	COMDAT ??_C@_0BM@JCGOOLCL@ACCOUNT_CHARACTER_SLOT_NAME@
CONST	SEGMENT
??_C@_0BM@JCGOOLCL@ACCOUNT_CHARACTER_SLOT_NAME@ DB 'ACCOUNT_CHARACTER_SLO'
	DB	'T_NAME', 00H				; `string'
CONST	ENDS
;	COMDAT ??_C@_0BM@DNOALMKC@ACCOUNT_CHARACTER_SLOT_RACE@
CONST	SEGMENT
??_C@_0BM@DNOALMKC@ACCOUNT_CHARACTER_SLOT_RACE@ DB 'ACCOUNT_CHARACTER_SLO'
	DB	'T_RACE', 00H				; `string'
CONST	ENDS
;	COMDAT ??_C@_0BC@BCDCNNFP@PHASE_WINDOW_LOGO@
CONST	SEGMENT
??_C@_0BC@BCDCNNFP@PHASE_WINDOW_LOGO@ DB 'PHASE_WINDOW_LOGO', 00H ; `string'
CONST	ENDS
;	COMDAT ??_C@_0BK@HDGGAJBJ@ACCOUNT_CHARACTER_SLOT_ID@
CONST	SEGMENT
??_C@_0BK@HDGGAJBJ@ACCOUNT_CHARACTER_SLOT_ID@ DB 'ACCOUNT_CHARACTER_SLOT_'
	DB	'ID', 00H					; `string'
CONST	ENDS
;	COMDAT ??_C@_0BC@HCEFPGCB@PHASE_WINDOW_GAME@
CONST	SEGMENT
??_C@_0BC@HCEFPGCB@PHASE_WINDOW_GAME@ DB 'PHASE_WINDOW_GAME', 00H ; `string'
CONST	ENDS
;	COMDAT ??_C@_0BE@IIMEMMI@PHASE_WINDOW_EMPIRE@
CONST	SEGMENT
??_C@_0BE@IIMEMMI@PHASE_WINDOW_EMPIRE@ DB 'PHASE_WINDOW_EMPIRE', 00H ; `string'
CONST	ENDS
;	COMDAT ??_C@_0BE@PAOFIFBD@PHASE_WINDOW_CREATE@
CONST	SEGMENT
??_C@_0BE@PAOFIFBD@PHASE_WINDOW_CREATE@ DB 'PHASE_WINDOW_CREATE', 00H ; `string'
CONST	ENDS
;	COMDAT ??_C@_0BC@PFELHICG@PHASE_WINDOW_LOAD@
CONST	SEGMENT
??_C@_0BC@PFELHICG@PHASE_WINDOW_LOAD@ DB 'PHASE_WINDOW_LOAD', 00H ; `string'
CONST	ENDS
;	COMDAT ??_C@_0BD@JBLBGAIB@PHASE_WINDOW_LOGIN@
CONST	SEGMENT
??_C@_0BD@JBLBGAIB@PHASE_WINDOW_LOGIN@ DB 'PHASE_WINDOW_LOGIN', 00H ; `string'
CONST	ENDS
;	COMDAT ??_C@_0BE@EBCKEIDN@PHASE_WINDOW_SELECT@
CONST	SEGMENT
??_C@_0BE@EBCKEIDN@PHASE_WINDOW_SELECT@ DB 'PHASE_WINDOW_SELECT', 00H ; `string'
CONST	ENDS
;	COMDAT ??_C@_0CB@BOPIDGGI@ERROR_MARK_UPLOAD_NEED_RECONNEC@
CONST	SEGMENT
??_C@_0CB@BOPIDGGI@ERROR_MARK_UPLOAD_NEED_RECONNEC@ DB 'ERROR_MARK_UPLOAD'
	DB	'_NEED_RECONNECT', 00H			; `string'
CONST	ENDS
;	COMDAT ??_C@_0CA@JMHMMKLO@ERROR_MARK_CHECK_NEED_RECONNECT@
CONST	SEGMENT
??_C@_0CA@JMHMMKLO@ERROR_MARK_CHECK_NEED_RECONNECT@ DB 'ERROR_MARK_CHECK_'
	DB	'NEED_RECONNECT', 00H			; `string'
CONST	ENDS
;	COMDAT ??_C@_0BB@FEGLKDMB@ERROR_MARK_WIDTH@
CONST	SEGMENT
??_C@_0BB@FEGLKDMB@ERROR_MARK_WIDTH@ DB 'ERROR_MARK_WIDTH', 00H ; `string'
CONST	ENDS
;	COMDAT ??_C@_0BC@GOIIBBEJ@ERROR_MARK_HEIGHT@
CONST	SEGMENT
??_C@_0BC@GOIIBBEJ@ERROR_MARK_HEIGHT@ DB 'ERROR_MARK_HEIGHT', 00H ; `string'
CONST	ENDS
;	COMDAT ??_C@_0BK@BILAANNF@ERROR_CONNECT_MARK_SERVER@
CONST	SEGMENT
??_C@_0BK@BILAANNF@ERROR_CONNECT_MARK_SERVER@ DB 'ERROR_CONNECT_MARK_SERV'
	DB	'ER', 00H					; `string'
CONST	ENDS
;	COMDAT ??_C@_0BA@NEJKKBEJ@ERROR_LOAD_MARK@
CONST	SEGMENT
??_C@_0BA@NEJKKBEJ@ERROR_LOAD_MARK@ DB 'ERROR_LOAD_MARK', 00H ; `string'
CONST	ENDS
;	COMDAT ??_C@_03NBFOK@net@
CONST	SEGMENT
??_C@_03NBFOK@net@ DB 'net', 00H			; `string'
CONST	ENDS
;	COMDAT ??_C@_0L@LILDODAP@ERROR_NONE@
CONST	SEGMENT
??_C@_0L@LILDODAP@ERROR_NONE@ DB 'ERROR_NONE', 00H	; `string'
CONST	ENDS
;	COMDAT ??_C@_0BA@ILHNHDAK@RecvGuildSymbol@
CONST	SEGMENT
??_C@_0BA@ILHNHDAK@RecvGuildSymbol@ DB 'RecvGuildSymbol', 00H ; `string'
CONST	ENDS
;	COMDAT ??_C@_0BB@CABIEEGM@RegisterErrorLog@
CONST	SEGMENT
??_C@_0BB@CABIEEGM@RegisterErrorLog@ DB 'RegisterErrorLog', 00H ; `string'
CONST	ENDS
;	COMDAT ??_C@_0BA@EGLEIBFB@SendGuildSymbol@
CONST	SEGMENT
??_C@_0BA@EGLEIBFB@SendGuildSymbol@ DB 'SendGuildSymbol', 00H ; `string'
CONST	ENDS
;	COMDAT ??_C@_0BD@PIFKMNDO@DisconnectUploader@
CONST	SEGMENT
??_C@_0BD@PIFKMNDO@DisconnectUploader@ DB 'DisconnectUploader', 00H ; `string'
CONST	ENDS
;	COMDAT ??_C@_0BG@KCIMJDEA@SetEmpireLanguageMode@
CONST	SEGMENT
??_C@_0BG@KCIMJDEA@SetEmpireLanguageMode@ DB 'SetEmpireLanguageMode', 00H ; `string'
CONST	ENDS
;	COMDAT ??_C@_0BC@NOAKHLIH@SetSkillGroupFake@
CONST	SEGMENT
??_C@_0BC@NOAKHLIH@SetSkillGroupFake@ DB 'SetSkillGroupFake', 00H ; `string'
CONST	ENDS
;	COMDAT ??_C@_0BF@HEJDCMFH@SendSelectItemPacket@
CONST	SEGMENT
??_C@_0BF@HEJDCMFH@SendSelectItemPacket@ DB 'SendSelectItemPacket', 00H ; `string'
CONST	ENDS
;	COMDAT ??_C@_0BG@HLIDKLKJ@SetPacketSequenceMode@
CONST	SEGMENT
??_C@_0BG@HLIDKLKJ@SetPacketSequenceMode@ DB 'SetPacketSequenceMode', 00H ; `string'
CONST	ENDS
;	COMDAT ??_C@_0BM@NLIMKJKK@SendRequestRefineInfoPacket@
CONST	SEGMENT
??_C@_0BM@NLIMKJKK@SendRequestRefineInfoPacket@ DB 'SendRequestRefineInfo'
	DB	'Packet', 00H				; `string'
CONST	ENDS
;	COMDAT ??_C@_0BB@MBCAEHJO@SendRefinePacket@
CONST	SEGMENT
??_C@_0BB@MBCAEHJO@SendRefinePacket@ DB 'SendRefinePacket', 00H ; `string'
CONST	ENDS
;	COMDAT ??_C@_0BM@HDHMFNNO@SendGuildDepositMoneyPacket@
CONST	SEGMENT
??_C@_0BM@HDHMFNNO@SendGuildDepositMoneyPacket@ DB 'SendGuildDepositMoney'
	DB	'Packet', 00H				; `string'
CONST	ENDS
;	COMDAT ??_C@_0BN@BPJGBHPL@SendGuildWithdrawMoneyPacket@
CONST	SEGMENT
??_C@_0BN@BPJGBHPL@SendGuildWithdrawMoneyPacket@ DB 'SendGuildWithdrawMon'
	DB	'eyPacket', 00H				; `string'
CONST	ENDS
;	COMDAT ??_C@_0BM@KLBFEJBI@SendGuildInviteAnswerPacket@
CONST	SEGMENT
??_C@_0BM@KLBFEJBI@SendGuildInviteAnswerPacket@ DB 'SendGuildInviteAnswer'
	DB	'Packet', 00H				; `string'
CONST	ENDS
;	COMDAT ??_C@_0BJ@LKJGDIEE@SendGuildChargeGSPPacket@
CONST	SEGMENT
??_C@_0BJ@LKJGDIEE@SendGuildChargeGSPPacket@ DB 'SendGuildChargeGSPPacket'
	DB	00H						; `string'
CONST	ENDS
;	COMDAT ??_C@_0BI@HICDMLJH@SendGuildUseSkillPacket@
CONST	SEGMENT
??_C@_0BI@HICDMLJH@SendGuildUseSkillPacket@ DB 'SendGuildUseSkillPacket', 00H ; `string'
CONST	ENDS
;	COMDAT ??_C@_0CD@BMLIKMKL@SendGuildChangeMemberGeneralPac@
CONST	SEGMENT
??_C@_0CD@BMLIKMKL@SendGuildChangeMemberGeneralPac@ DB 'SendGuildChangeMe'
	DB	'mberGeneralPacket', 00H			; `string'
CONST	ENDS
;	COMDAT ??_C@_0BP@BKEOCNGM@SendGuildRefreshCommentsPacket@
CONST	SEGMENT
??_C@_0BP@BKEOCNGM@SendGuildRefreshCommentsPacket@ DB 'SendGuildRefreshCo'
	DB	'mmentsPacket', 00H				; `string'
CONST	ENDS
;	COMDAT ??_C@_0CB@KOIDGNFC@SendGuildChangeMemberGradePacke@
CONST	SEGMENT
??_C@_0CB@KOIDGNFC@SendGuildChangeMemberGradePacke@ DB 'SendGuildChangeMe'
	DB	'mberGradePacket', 00H			; `string'
CONST	ENDS
;	COMDAT ??_C@_0BL@JLEHIONL@SendGuildPostCommentPacket@
CONST	SEGMENT
??_C@_0BL@JLEHIONL@SendGuildPostCommentPacket@ DB 'SendGuildPostCommentPa'
	DB	'cket', 00H					; `string'
CONST	ENDS
;	COMDAT ??_C@_0BN@MBNLMFLO@SendGuildDeleteCommentPacket@
CONST	SEGMENT
??_C@_0BN@MBNLMFLO@SendGuildDeleteCommentPacket@ DB 'SendGuildDeleteComme'
	DB	'ntPacket', 00H				; `string'
CONST	ENDS
;	COMDAT ??_C@_0CE@EFLFPPCO@SendGuildChangeGradeAuthorityPa@
CONST	SEGMENT
??_C@_0CE@EFLFPPCO@SendGuildChangeGradeAuthorityPa@ DB 'SendGuildChangeGr'
	DB	'adeAuthorityPacket', 00H			; `string'
CONST	ENDS
;	COMDAT ??_C@_0BF@OAFAHAKB@SendGuildOfferPacket@
CONST	SEGMENT
??_C@_0BF@OAFAHAKB@SendGuildOfferPacket@ DB 'SendGuildOfferPacket', 00H ; `string'
CONST	ENDS
;	COMDAT ??_C@_0BM@GAJEHHNG@SendGuildRemoveMemberPacket@
CONST	SEGMENT
??_C@_0BM@GAJEHHNG@SendGuildRemoveMemberPacket@ DB 'SendGuildRemoveMember'
	DB	'Packet', 00H				; `string'
CONST	ENDS
;	COMDAT ??_C@_0BP@ODLEJFMG@SendGuildChangeGradeNamePacket@
CONST	SEGMENT
??_C@_0BP@ODLEJFMG@SendGuildChangeGradeNamePacket@ DB 'SendGuildChangeGra'
	DB	'deNamePacket', 00H				; `string'
CONST	ENDS
;	COMDAT ??_C@_0BH@HMDNFHNB@SendQuestConfirmPacket@
CONST	SEGMENT
??_C@_0BH@HMDNFHNB@SendQuestConfirmPacket@ DB 'SendQuestConfirmPacket', 00H ; `string'
CONST	ENDS
;	COMDAT ??_C@_0BJ@MFJNIJIJ@SendGuildAddMemberPacket@
CONST	SEGMENT
??_C@_0BJ@MFJNIJIJ@SendGuildAddMemberPacket@ DB 'SendGuildAddMemberPacket'
	DB	00H						; `string'
CONST	ENDS
;	COMDAT ??_C@_0BK@HLNHPAPM@SendAnswerMakeGuildPacket@
CONST	SEGMENT
??_C@_0BK@HLNHPAPM@SendAnswerMakeGuildPacket@ DB 'SendAnswerMakeGuildPack'
	DB	'et', 00H					; `string'
CONST	ENDS
;	COMDAT ??_C@_0BL@BJLFPMAE@SendQuestInputStringPacket@
CONST	SEGMENT
??_C@_0BL@BJLFPMAE@SendQuestInputStringPacket@ DB 'SendQuestInputStringPa'
	DB	'cket', 00H					; `string'
CONST	ENDS
;	COMDAT ??_C@_0BK@JMMAEJFJ@SendSafeboxItemMovePacket@
CONST	SEGMENT
??_C@_0BK@JMMAEJFJ@SendSafeboxItemMovePacket@ DB 'SendSafeboxItemMovePack'
	DB	'et', 00H					; `string'
CONST	ENDS
;	COMDAT ??_C@_0BH@BDNDNKGE@SendMallCheckoutPacket@
CONST	SEGMENT
??_C@_0BH@BDNDNKGE@SendMallCheckoutPacket@ DB 'SendMallCheckoutPacket', 00H ; `string'
CONST	ENDS
;	COMDAT ??_C@_0BJ@HNJCKALG@SendSafeboxCheckinPacket@
CONST	SEGMENT
??_C@_0BJ@HNJCKALG@SendSafeboxCheckinPacket@ DB 'SendSafeboxCheckinPacket'
	DB	00H						; `string'
CONST	ENDS
;	COMDAT ??_C@_0BK@LJAMACPE@SendSafeboxCheckoutPacket@
CONST	SEGMENT
??_C@_0BK@LJAMACPE@SendSafeboxCheckoutPacket@ DB 'SendSafeboxCheckoutPack'
	DB	'et', 00H					; `string'
CONST	ENDS
;	COMDAT ??_C@_0BL@CAAOLIHO@SendSafeboxSaveMoneyPacket@
CONST	SEGMENT
??_C@_0BL@CAAOLIHO@SendSafeboxSaveMoneyPacket@ DB 'SendSafeboxSaveMoneyPa'
	DB	'cket', 00H					; `string'
CONST	ENDS
;	COMDAT ??_C@_0BP@MLAJADAA@SendSafeboxWithdrawMoneyPacket@
CONST	SEGMENT
??_C@_0BP@MLAJADAA@SendSafeboxWithdrawMoneyPacket@ DB 'SendSafeboxWithdra'
	DB	'wMoneyPacket', 00H				; `string'
CONST	ENDS
;	COMDAT ??_C@_0BI@EONDHFJL@SendPartyUseSkillPacket@
CONST	SEGMENT
??_C@_0BI@EONDHFJL@SendPartyUseSkillPacket@ DB 'SendPartyUseSkillPacket', 00H ; `string'
CONST	ENDS
;	COMDAT ??_C@_0BJ@JGBOMHFI@SendPartyParameterPacket@
CONST	SEGMENT
??_C@_0BJ@JGBOMHFI@SendPartyParameterPacket@ DB 'SendPartyParameterPacket'
	DB	00H						; `string'
CONST	ENDS
;	COMDAT ??_C@_0BG@JAJGIHK@SendPartyRemovePacket@
CONST	SEGMENT
??_C@_0BG@JAJGIHK@SendPartyRemovePacket@ DB 'SendPartyRemovePacket', 00H ; `string'
CONST	ENDS
;	COMDAT ??_C@_0BI@LNEGCCFH@SendPartySetStatePacket@
CONST	SEGMENT
??_C@_0BI@LNEGCCFH@SendPartySetStatePacket@ DB 'SendPartySetStatePacket', 00H ; `string'
CONST	ENDS
;	COMDAT ??_C@_0BM@PFAFFBJO@SendPartyInviteAnswerPacket@
CONST	SEGMENT
??_C@_0BM@PFAFFBJO@SendPartyInviteAnswerPacket@ DB 'SendPartyInviteAnswer'
	DB	'Packet', 00H				; `string'
CONST	ENDS
;	COMDAT ??_C@_0BE@JHFPDGFP@SendPartyExitPacket@
CONST	SEGMENT
??_C@_0BE@JHFPDGFP@SendPartyExitPacket@ DB 'SendPartyExitPacket', 00H ; `string'
CONST	ENDS
;	COMDAT ??_C@_0BK@GIIDGGBB@SendMessengerRemovePacket@
CONST	SEGMENT
??_C@_0BK@GIIDGGBB@SendMessengerRemovePacket@ DB 'SendMessengerRemovePack'
	DB	'et', 00H					; `string'
CONST	ENDS
;	COMDAT ??_C@_0BG@IFGKMOED@SendPartyInvitePacket@
CONST	SEGMENT
??_C@_0BG@IFGKMOED@SendPartyInvitePacket@ DB 'SendPartyInvitePacket', 00H ; `string'
CONST	ENDS
;	COMDAT ??_C@_0BM@CFLPIFFM@SendMessengerAddByVIDPacket@
CONST	SEGMENT
??_C@_0BM@CFLPIFFM@SendMessengerAddByVIDPacket@ DB 'SendMessengerAddByVID'
	DB	'Packet', 00H				; `string'
CONST	ENDS
;	COMDAT ??_C@_0BN@MPMOLLL@SendMessengerAddByNamePacket@
CONST	SEGMENT
??_C@_0BN@MPMOLLL@SendMessengerAddByNamePacket@ DB 'SendMessengerAddByNam'
	DB	'ePacket', 00H				; `string'
CONST	ENDS
;	COMDAT ??_C@_0BC@FMJHAGEI@SendOnClickPacket@
CONST	SEGMENT
??_C@_0BC@FMJHAGEI@SendOnClickPacket@ DB 'SendOnClickPacket', 00H ; `string'
CONST	ENDS
;	COMDAT ??_C@_0BH@MCKLKDJM@RegisterEmoticonString@
CONST	SEGMENT
??_C@_0BH@MCKLKDJM@RegisterEmoticonString@ DB 'RegisterEmoticonString', 00H ; `string'
CONST	ENDS
;	COMDAT ??_C@_0BJ@OFKJBLDC@SendExchangeAcceptPacket@
CONST	SEGMENT
??_C@_0BJ@OFKJBLDC@SendExchangeAcceptPacket@ DB 'SendExchangeAcceptPacket'
	DB	00H						; `string'
CONST	ENDS
;	COMDAT ??_C@_0BH@NCONKHHB@SendExchangeExitPacket@
CONST	SEGMENT
??_C@_0BH@NCONKHHB@SendExchangeExitPacket@ DB 'SendExchangeExitPacket', 00H ; `string'
CONST	ENDS
;	COMDAT ??_C@_0BK@KKOEHGGC@SendExchangeItemDelPacket@
CONST	SEGMENT
??_C@_0BK@KKOEHGGC@SendExchangeItemDelPacket@ DB 'SendExchangeItemDelPack'
	DB	'et', 00H					; `string'
CONST	ENDS
;	COMDAT ??_C@_0BJ@CGGGIOGM@SendExchangeElkAddPacket@
CONST	SEGMENT
??_C@_0BJ@CGGGIOGM@SendExchangeElkAddPacket@ DB 'SendExchangeElkAddPacket'
	DB	00H						; `string'
CONST	ENDS
;	COMDAT ??_C@_0BI@BGNKGFKO@SendExchangeStartPacket@
CONST	SEGMENT
??_C@_0BI@BGNKGFKO@SendExchangeStartPacket@ DB 'SendExchangeStartPacket', 00H ; `string'
CONST	ENDS
;	COMDAT ??_C@_0BK@IIFDLCNA@SendExchangeItemAddPacket@
CONST	SEGMENT
??_C@_0BK@IIFDLCNA@SendExchangeItemAddPacket@ DB 'SendExchangeItemAddPack'
	DB	'et', 00H					; `string'
CONST	ENDS
;	COMDAT ??_C@_0BD@BFMEHPEE@SendShopSellPacket@
CONST	SEGMENT
??_C@_0BD@BFMEHPEE@SendShopSellPacket@ DB 'SendShopSellPacket', 00H ; `string'
CONST	ENDS
;	COMDAT ??_C@_0BG@BGJEIPGN@SendShopSellPacketNew@
CONST	SEGMENT
??_C@_0BG@BGJEIPGN@SendShopSellPacketNew@ DB 'SendShopSellPacketNew', 00H ; `string'
CONST	ENDS
;	COMDAT ??_C@_0BC@HEOMKCAE@SendShopEndPacket@
CONST	SEGMENT
??_C@_0BC@HEOMKCAE@SendShopEndPacket@ DB 'SendShopEndPacket', 00H ; `string'
CONST	ENDS
;	COMDAT ??_C@_0BC@FPBLEBCL@SendShopBuyPacket@
CONST	SEGMENT
??_C@_0BC@FPBLEBCL@SendShopBuyPacket@ DB 'SendShopBuyPacket', 00H ; `string'
CONST	ENDS
;	COMDAT ??_C@_0BI@BFCIMAOL@SendMobileMessagePacket@
CONST	SEGMENT
??_C@_0BI@BFCIMAOL@SendMobileMessagePacket@ DB 'SendMobileMessagePacket', 00H ; `string'
CONST	ENDS
;	COMDAT ??_C@_0BM@KAMAKIKL@SendCharacterPositionPacket@
CONST	SEGMENT
??_C@_0BM@KAMAKIKL@SendCharacterPositionPacket@ DB 'SendCharacterPosition'
	DB	'Packet', 00H				; `string'
CONST	ENDS
;	COMDAT ??_C@_0N@BJHGOHPC@SendEmoticon@
CONST	SEGMENT
??_C@_0N@BJHGOHPC@SendEmoticon@ DB 'SendEmoticon', 00H	; `string'
CONST	ENDS
;	COMDAT ??_C@_0BC@KNMEABPD@SendWhisperPacket@
CONST	SEGMENT
??_C@_0BC@KNMEABPD@SendWhisperPacket@ DB 'SendWhisperPacket', 00H ; `string'
CONST	ENDS
;	COMDAT ??_C@_09HENONEEN@IsConnect@
CONST	SEGMENT
??_C@_09HENONEEN@IsConnect@ DB 'IsConnect', 00H		; `string'
CONST	ENDS
;	COMDAT ??_C@_0P@FJOINOIH@SendChatPacket@
CONST	SEGMENT
??_C@_0P@FJOINOIH@SendChatPacket@ DB 'SendChatPacket', 00H ; `string'
CONST	ENDS
;	COMDAT ??_C@_0BA@NKMDDBDL@SetOfflinePhase@
CONST	SEGMENT
??_C@_0BA@NKMDDBDL@SetOfflinePhase@ DB 'SetOfflinePhase', 00H ; `string'
CONST	ENDS
;	COMDAT ??_C@_0L@CMGJAGDM@Disconnect@
CONST	SEGMENT
??_C@_0L@CMGJAGDM@Disconnect@ DB 'Disconnect', 00H	; `string'
CONST	ENDS
;	COMDAT ??_C@_0BF@PJHEIMI@SendItemPickUpPacket@
CONST	SEGMENT
??_C@_0BF@PJHEIMI@SendItemPickUpPacket@ DB 'SendItemPickUpPacket', 00H ; `string'
CONST	ENDS
;	COMDAT ??_C@_0BD@FMAJCJM@SendGiveItemPacket@
CONST	SEGMENT
??_C@_0BD@FMAJCJM@SendGiveItemPacket@ DB 'SendGiveItemPacket', 00H ; `string'
CONST	ENDS
;	COMDAT ??_C@_0BG@ONKCIEDE@SendGoldDropPacketNew@
CONST	SEGMENT
??_C@_0BG@ONKCIEDE@SendGoldDropPacketNew@ DB 'SendGoldDropPacketNew', 00H ; `string'
CONST	ENDS
;	COMDAT ??_C@_0BD@BPAFBGKI@SendItemMovePacket@
CONST	SEGMENT
??_C@_0BD@BPAFBGKI@SendItemMovePacket@ DB 'SendItemMovePacket', 00H ; `string'
CONST	ENDS
;	COMDAT ??_C@_0BG@LMAHKAGJ@SendItemDestroyPacket@
CONST	SEGMENT
??_C@_0BG@LMAHKAGJ@SendItemDestroyPacket@ DB 'SendItemDestroyPacket', 00H ; `string'
CONST	ENDS
;	COMDAT ??_C@_0BC@NEDFAOHK@SendElkDropPacket@
CONST	SEGMENT
??_C@_0BC@NEDFAOHK@SendElkDropPacket@ DB 'SendElkDropPacket', 00H ; `string'
CONST	ENDS
;	COMDAT ??_C@_0BD@ICCAOJBA@SendItemDropPacket@
CONST	SEGMENT
??_C@_0BD@ICCAOJBA@SendItemDropPacket@ DB 'SendItemDropPacket', 00H ; `string'
CONST	ENDS
;	COMDAT ??_C@_0BG@PNFNACGL@SendItemDropPacketNew@
CONST	SEGMENT
??_C@_0BG@PNFNACGL@SendItemDropPacketNew@ DB 'SendItemDropPacketNew', 00H ; `string'
CONST	ENDS
;	COMDAT ??_C@_0BC@NHAKBOCP@SendItemUsePacket@
CONST	SEGMENT
??_C@_0BC@NHAKBOCP@SendItemUsePacket@ DB 'SendItemUsePacket', 00H ; `string'
CONST	ENDS
;	COMDAT ??_C@_0BI@OBDMDOIB@SendItemUseToItemPacket@
CONST	SEGMENT
??_C@_0BI@OBDMDOIB@SendItemUseToItemPacket@ DB 'SendItemUseToItemPacket', 00H ; `string'
CONST	ENDS
;	COMDAT ??_C@_0BL@PMHPNGGJ@SendDestroyCharacterPacket@
CONST	SEGMENT
??_C@_0BL@PMHPNGGJ@SendDestroyCharacterPacket@ DB 'SendDestroyCharacterPa'
	DB	'cket', 00H					; `string'
CONST	ENDS
;	COMDAT ??_C@_0BE@NBECPFPH@SendEnterGamePacket@
CONST	SEGMENT
??_C@_0BE@NBECPFPH@SendEnterGamePacket@ DB 'SendEnterGamePacket', 00H ; `string'
CONST	ENDS
;	COMDAT ??_C@_0BF@ODLJDBF@SendChangeNamePacket@
CONST	SEGMENT
??_C@_0BF@ODLJDBF@SendChangeNamePacket@ DB 'SendChangeNamePacket', 00H ; `string'
CONST	ENDS
;	COMDAT ??_C@_0BK@NPKEAJJ@SendCreateCharacterPacket@
CONST	SEGMENT
??_C@_0BK@NPKEAJJ@SendCreateCharacterPacket@ DB 'SendCreateCharacterPacke'
	DB	't', 00H					; `string'
CONST	ENDS
;	COMDAT ??_C@_0BH@IIELEKKA@SendSelectEmpirePacket@
CONST	SEGMENT
??_C@_0BH@IIELEKKA@SendSelectEmpirePacket@ DB 'SendSelectEmpirePacket', 00H ; `string'
CONST	ENDS
;	COMDAT ??_C@_0BK@MIKAHKDI@SendSelectCharacterPacket@
CONST	SEGMENT
??_C@_0BK@MIKAHKDI@SendSelectCharacterPacket@ DB 'SendSelectCharacterPack'
	DB	'et', 00H					; `string'
CONST	ENDS
;	COMDAT ??_C@_0BK@GJKBNMLJ@SendChinaMatrixCardPacket@
CONST	SEGMENT
??_C@_0BK@GJKBNMLJ@SendChinaMatrixCardPacket@ DB 'SendChinaMatrixCardPack'
	DB	'et', 00H					; `string'
CONST	ENDS
;	COMDAT ??_C@_0BK@KNELICML@SendRunupMatrixCardPacket@
CONST	SEGMENT
??_C@_0BK@KNELICML@SendRunupMatrixCardPacket@ DB 'SendRunupMatrixCardPack'
	DB	'et', 00H					; `string'
CONST	ENDS
;	COMDAT ??_C@_0BD@FJEJICMG@SendTargetInfoLoad@
CONST	SEGMENT
??_C@_0BD@FJEJICMG@SendTargetInfoLoad@ DB 'SendTargetInfoLoad', 00H ; `string'
CONST	ENDS
;	COMDAT ??_C@_0BA@CNDIKGCL@SendLoginPacket@
CONST	SEGMENT
??_C@_0BA@CNDIKGCL@SendLoginPacket@ DB 'SendLoginPacket', 00H ; `string'
CONST	ENDS
;	COMDAT ??_C@_0L@MALJFJNO@ConnectUDP@
CONST	SEGMENT
??_C@_0L@MALJFJNO@ConnectUDP@ DB 'ConnectUDP', 00H	; `string'
CONST	ENDS
;	COMDAT ??_C@_0BH@CIOLKAIG@ConnectToAccountServer@
CONST	SEGMENT
??_C@_0BH@CIOLKAIG@ConnectToAccountServer@ DB 'ConnectToAccountServer', 00H ; `string'
CONST	ENDS
;	COMDAT ??_C@_0BA@ILFBLEPH@ExitApplication@
CONST	SEGMENT
??_C@_0BA@ILFBLEPH@ExitApplication@ DB 'ExitApplication', 00H ; `string'
CONST	ENDS
;	COMDAT ??_C@_0L@HNEKCIDO@ConnectTCP@
CONST	SEGMENT
??_C@_0L@HNEKCIDO@ConnectTCP@ DB 'ConnectTCP', 00H	; `string'
CONST	ENDS
;	COMDAT ??_C@_0L@LPFGMFBP@LogOutGame@
CONST	SEGMENT
??_C@_0L@LPFGMFBP@LogOutGame@ DB 'LogOutGame', 00H	; `string'
CONST	ENDS
;	COMDAT ??_C@_08ENBHLCHD@ExitGame@
CONST	SEGMENT
??_C@_08ENBHLCHD@ExitGame@ DB 'ExitGame', 00H		; `string'
CONST	ENDS
;	COMDAT ??_C@_0BF@GPIIIFGB@SetUDPRecvBufferSize@
CONST	SEGMENT
??_C@_0BF@GPIIIFGB@SetUDPRecvBufferSize@ DB 'SetUDPRecvBufferSize', 00H ; `string'
CONST	ENDS
;	COMDAT ??_C@_0M@PAACKIAL@DirectEnter@
CONST	SEGMENT
??_C@_0M@PAACKIAL@DirectEnter@ DB 'DirectEnter', 00H	; `string'
CONST	ENDS
;	COMDAT ??_C@_0BF@KAEIEPML@SetTCPRecvBufferSize@
CONST	SEGMENT
??_C@_0BF@KAEIEPML@SetTCPRecvBufferSize@ DB 'SetTCPRecvBufferSize', 00H ; `string'
CONST	ENDS
;	COMDAT ??_C@_0BF@LOLMIHDO@SetTCPSendBufferSize@
CONST	SEGMENT
??_C@_0BF@LOLMIHDO@SetTCPSendBufferSize@ DB 'SetTCPSendBufferSize', 00H ; `string'
CONST	ENDS
;	COMDAT ??_C@_0BL@NJAILJBB@SetAccountConnectorHandler@
CONST	SEGMENT
??_C@_0BL@NJAILJBB@SetAccountConnectorHandler@ DB 'SetAccountConnectorHan'
	DB	'dler', 00H					; `string'
CONST	ENDS
;	COMDAT ??_C@_0L@EELFNDHB@SetHandler@
CONST	SEGMENT
??_C@_0L@EELFNDHB@SetHandler@ DB 'SetHandler', 00H	; `string'
CONST	ENDS
;	COMDAT ??_C@_0BB@NNDKGCIK@ClearPhaseWindow@
CONST	SEGMENT
??_C@_0BB@NNDKGCIK@ClearPhaseWindow@ DB 'ClearPhaseWindow', 00H ; `string'
CONST	ENDS
;	COMDAT ??_C@_0BN@KOOLAHFA@SetServerCommandParserWindow@
CONST	SEGMENT
??_C@_0BN@KOOLAHFA@SetServerCommandParserWindow@ DB 'SetServerCommandPars'
	DB	'erWindow', 00H				; `string'
CONST	ENDS
;	COMDAT ??_C@_0N@GLEGMFLM@SetLoginInfo@
CONST	SEGMENT
??_C@_0N@GLEGMFLM@SetLoginInfo@ DB 'SetLoginInfo', 00H	; `string'
CONST	ENDS
;	COMDAT ??_C@_0P@EKNNFAK@SetPhaseWindow@
CONST	SEGMENT
??_C@_0P@EKNNFAK@SetPhaseWindow@ DB 'SetPhaseWindow', 00H ; `string'
CONST	ENDS
;	COMDAT ??_C@_0BE@MHKBLINM@GetFieldMusicVolume@
CONST	SEGMENT
??_C@_0BE@MHKBLINM@GetFieldMusicVolume@ DB 'GetFieldMusicVolume', 00H ; `string'
CONST	ENDS
;	COMDAT ??_C@_0BE@BCCLDKB@ToggleGameDebugInfo@
CONST	SEGMENT
??_C@_0BE@BCCLDKB@ToggleGameDebugInfo@ DB 'ToggleGameDebugInfo', 00H ; `string'
CONST	ENDS
;	COMDAT ??_C@_0CC@DLIFIOE@GetAccountCharacterSlotDataStri@
CONST	SEGMENT
??_C@_0CC@DLIFIOE@GetAccountCharacterSlotDataStri@ DB 'GetAccountCharacte'
	DB	'rSlotDataString', 00H			; `string'
CONST	ENDS
;	COMDAT ??_C@_0BG@NAMIDKHD@GetFieldMusicFileName@
CONST	SEGMENT
??_C@_0BG@NAMIDKHD@GetFieldMusicFileName@ DB 'GetFieldMusicFileName', 00H ; `string'
CONST	ENDS
;	COMDAT ??_C@_0BH@GCCMJIJB@GetMainActorSkillGroup@
CONST	SEGMENT
??_C@_0BH@GCCMJIJB@GetMainActorSkillGroup@ DB 'GetMainActorSkillGroup', 00H ; `string'
CONST	ENDS
;	COMDAT ??_C@_0CD@PJJNPONG@GetAccountCharacterSlotDataInte@
CONST	SEGMENT
??_C@_0CD@PJJNPONG@GetAccountCharacterSlotDataInte@ DB 'GetAccountCharact'
	DB	'erSlotDataInteger', 00H			; `string'
CONST	ENDS
;	COMDAT ??_C@_0BB@ICEJKPHA@GetMainActorRace@
CONST	SEGMENT
??_C@_0BB@ICEJKPHA@GetMainActorRace@ DB 'GetMainActorRace', 00H ; `string'
CONST	ENDS
;	COMDAT ??_C@_0BD@JOIEFGML@GetMainActorEmpire@
CONST	SEGMENT
??_C@_0BD@JOIEFGML@GetMainActorEmpire@ DB 'GetMainActorEmpire', 00H ; `string'
CONST	ENDS
;	COMDAT ??_C@_0M@GGDMINDM@GetEmpireID@
CONST	SEGMENT
??_C@_0M@GGDMINDM@GetEmpireID@ DB 'GetEmpireID', 00H	; `string'
CONST	ENDS
;	COMDAT ??_C@_0BA@BPHKBGOL@GetMainActorVID@
CONST	SEGMENT
??_C@_0BA@BPHKBGOL@GetMainActorVID@ DB 'GetMainActorVID', 00H ; `string'
CONST	ENDS
;	COMDAT ??_C@_0L@JEGFHCJL@UploadMark@
CONST	SEGMENT
??_C@_0L@JEGFHCJL@UploadMark@ DB 'UploadMark', 00H	; `string'
CONST	ENDS
;	COMDAT ??_C@_0N@OBKBFHKO@UploadSymbol@
CONST	SEGMENT
??_C@_0N@OBKBFHKO@UploadSymbol@ DB 'UploadSymbol', 00H	; `string'
CONST	ENDS
;	COMDAT ??_C@_0L@CJJGFLBC@IsInsultIn@
CONST	SEGMENT
??_C@_0L@CJJGFLBC@IsInsultIn@ DB 'IsInsultIn', 00H	; `string'
CONST	ENDS
;	COMDAT ??_C@_0P@NAIDDMMD@LoadInsultList@
CONST	SEGMENT
??_C@_0P@NAIDDMMD@LoadInsultList@ DB 'LoadInsultList', 00H ; `string'
CONST	ENDS
;	COMDAT ??_C@_0O@OFMEOEDD@SetMarkServer@
CONST	SEGMENT
??_C@_0O@OFMEOEDD@SetMarkServer@ DB 'SetMarkServer', 00H ; `string'
CONST	ENDS
;	COMDAT ??_C@_0P@EPNPIBON@IsChatInsultIn@
CONST	SEGMENT
??_C@_0P@EPNPIBON@IsChatInsultIn@ DB 'IsChatInsultIn', 00H ; `string'
CONST	ENDS
;	COMDAT ??_C@_04EIDOEOJH@Warp@
CONST	SEGMENT
??_C@_04EIDOEOJH@Warp@ DB 'Warp', 00H			; `string'
CONST	ENDS
;	COMDAT ??_C@_06OCDJGLIF@IsTest@
CONST	SEGMENT
??_C@_06OCDJGLIF@IsTest@ DB 'IsTest', 00H		; `string'
CONST	ENDS
;	COMDAT ??_C@_0BK@PJDKKIPH@GetPreservedServerCommand@
CONST	SEGMENT
??_C@_0BK@PJDKKIPH@GetPreservedServerCommand@ DB 'GetPreservedServerComma'
	DB	'nd', 00H					; `string'
CONST	ENDS
;	COMDAT ??_C@_09CFNAMFEF@StartGame@
CONST	SEGMENT
??_C@_09CFNAMFEF@StartGame@ DB 'StartGame', 00H		; `string'
CONST	ENDS
;	COMDAT ??_C@_0O@ODBJLKOA@GetServerInfo@
CONST	SEGMENT
??_C@_0O@ODBJLKOA@GetServerInfo@ DB 'GetServerInfo', 00H ; `string'
CONST	ENDS
;	COMDAT ??_C@_0BG@NJCKCHAI@PreserveServerCommand@
CONST	SEGMENT
??_C@_0BG@NJCKCHAI@PreserveServerCommand@ DB 'PreserveServerCommand', 00H ; `string'
CONST	ENDS
;	COMDAT ??_C@_0BH@LKCAJGCH@EnableChatInsultFilter@
CONST	SEGMENT
??_C@_0BH@LKCAJGCH@EnableChatInsultFilter@ DB 'EnableChatInsultFilter', 00H ; `string'
CONST	ENDS
;	COMDAT ??_C@_0O@JMAHAJJH@SetServerInfo@
CONST	SEGMENT
??_C@_0O@JMAHAJJH@SetServerInfo@ DB 'SetServerInfo', 00H ; `string'
CONST	ENDS
;	COMDAT ??_C@_0EE@CPCFCFHF@netSendGuildRemoveMemberPacket?$CI@
CONST	SEGMENT
??_C@_0EE@CPCFCFHF@netSendGuildRemoveMemberPacket?$CI@ DB 'netSendGuildRe'
	DB	'moveMemberPacket(szKey=%s) - Can''t Find Guild Member', 0aH, 00H ; `string'
CONST	ENDS
;	COMDAT ??_C@_0BI@HFMJEOAC@GetBettingGuildWarValue@
CONST	SEGMENT
??_C@_0BI@HFMJEOAC@GetBettingGuildWarValue@ DB 'GetBettingGuildWarValue', 00H ; `string'
PUBLIC	??0SItemPos@@QAE@XZ				; SItemPos::SItemPos
PUBLIC	??0SItemPos@@QAE@EG@Z				; SItemPos::SItemPos
PUBLIC	??$construct@V?$basic_string@DU?$char_traits@D@std@@V?$allocator@D@2@@std@@V12@@?$_Default_allocator_traits@V?$allocator@U?$_List_node@V?$basic_string@DU?$char_traits@D@std@@V?$allocator@D@2@@std@@PAX@std@@@std@@@std@@SAXAAV?$allocator@U?$_List_node@V?$basic_string@DU?$char_traits@D@std@@V?$allocator@D@2@@std@@PAX@std@@@1@QAV?$basic_string@DU?$char_traits@D@std@@V?$allocator@D@2@@1@$$QAV31@@Z ; std::_Default_allocator_traits<std::allocator<std::_List_node<std::basic_string<char,std::char_traits<char>,std::allocator<char> >,void *> > >::construct<std::basic_string<char,std::char_traits<char>,std::allocator<char> >,std::basic_string<char,std::char_traits<char>,std::allocator<char> > >
PUBLIC	??$?0V?$basic_string@DU?$char_traits@D@std@@V?$allocator@D@2@@std@@@?$_List_node_emplace_op2@V?$allocator@U?$_List_node@V?$basic_string@DU?$char_traits@D@std@@V?$allocator@D@2@@std@@PAX@std@@@std@@@std@@QAE@AAV?$allocator@U?$_List_node@V?$basic_string@DU?$char_traits@D@std@@V?$allocator@D@2@@std@@PAX@std@@@1@$$QAV?$basic_string@DU?$char_traits@D@std@@V?$allocator@D@2@@1@@Z ; std::_List_node_emplace_op2<std::allocator<std::_List_node<std::basic_string<char,std::char_traits<char>,std::allocator<char> >,void *> > >::_List_node_emplace_op2<std::allocator<std::_List_node<std::basic_string<char,std::char_traits<char>,std::allocator<char> >,void *> > ><std::basic_string<char,std::char_traits<char>,std::allocator<char> > >
PUBLIC	??$_Emplace@V?$basic_string@DU?$char_traits@D@std@@V?$allocator@D@2@@std@@@?$list@V?$basic_string@DU?$char_traits@D@std@@V?$allocator@D@2@@std@@V?$allocator@V?$basic_string@DU?$char_traits@D@std@@V?$allocator@D@2@@std@@@2@@std@@QAEPAU?$_List_node@V?$basic_string@DU?$char_traits@D@std@@V?$allocator@D@2@@std@@PAX@1@QAU21@$$QAV?$basic_string@DU?$char_traits@D@std@@V?$allocator@D@2@@1@@Z ; std::list<std::basic_string<char,std::char_traits<char>,std::allocator<char> >,std::allocator<std::basic_string<char,std::char_traits<char>,std::allocator<char> > > >::_Emplace<std::basic_string<char,std::char_traits<char>,std::allocator<char> > >
PUBLIC	?_Orphan_ptr2@?$_List_val@U?$_List_simple_types@V?$basic_string@DU?$char_traits@D@std@@V?$allocator@D@2@@std@@@std@@@std@@QAEXPAU?$_List_node@V?$basic_string@DU?$char_traits@D@std@@V?$allocator@D@2@@std@@PAX@2@@Z ; std::_List_val<std::_List_simple_types<std::basic_string<char,std::char_traits<char>,std::allocator<char> > > >::_Orphan_ptr2
PUBLIC	?_Unchecked_erase@?$list@V?$basic_string@DU?$char_traits@D@std@@V?$allocator@D@2@@std@@V?$allocator@V?$basic_string@DU?$char_traits@D@std@@V?$allocator@D@2@@std@@@2@@std@@AAEPAU?$_List_node@V?$basic_string@DU?$char_traits@D@std@@V?$allocator@D@2@@std@@PAX@2@QAU32@@Z ; std::list<std::basic_string<char,std::char_traits<char>,std::allocator<char> >,std::allocator<std::basic_string<char,std::char_traits<char>,std::allocator<char> > > >::_Unchecked_erase
PUBLIC	?push_back@?$list@V?$basic_string@DU?$char_traits@D@std@@V?$allocator@D@2@@std@@V?$allocator@V?$basic_string@DU?$char_traits@D@std@@V?$allocator@D@2@@std@@@2@@std@@QAEX$$QAV?$basic_string@DU?$char_traits@D@std@@V?$allocator@D@2@@2@@Z ; std::list<std::basic_string<char,std::char_traits<char>,std::allocator<char> >,std::allocator<std::basic_string<char,std::char_traits<char>,std::allocator<char> > > >::push_back
PUBLIC	?empty@?$list@V?$basic_string@DU?$char_traits@D@std@@V?$allocator@D@2@@std@@V?$allocator@V?$basic_string@DU?$char_traits@D@std@@V?$allocator@D@2@@std@@@2@@std@@QBE_NXZ ; std::list<std::basic_string<char,std::char_traits<char>,std::allocator<char> >,std::allocator<std::basic_string<char,std::char_traits<char>,std::allocator<char> > > >::empty
PUBLIC	?front@?$list@V?$basic_string@DU?$char_traits@D@std@@V?$allocator@D@2@@std@@V?$allocator@V?$basic_string@DU?$char_traits@D@std@@V?$allocator@D@2@@std@@@2@@std@@QAEAAV?$basic_string@DU?$char_traits@D@std@@V?$allocator@D@2@@2@XZ ; std::list<std::basic_string<char,std::char_traits<char>,std::allocator<char> >,std::allocator<std::basic_string<char,std::char_traits<char>,std::allocator<char> > > >::front
PUBLIC	?pop_front@?$list@V?$basic_string@DU?$char_traits@D@std@@V?$allocator@D@2@@std@@V?$allocator@V?$basic_string@DU?$char_traits@D@std@@V?$allocator@D@2@@std@@@2@@std@@QAEXXZ ; std::list<std::basic_string<char,std::char_traits<char>,std::allocator<char> >,std::allocator<std::basic_string<char,std::char_traits<char>,std::allocator<char> > > >::pop_front
PUBLIC	?Instance@?$CSingleton@VCAccountConnector@@@@SAAAVCAccountConnector@@XZ ; CSingleton<CAccountConnector>::Instance
PUBLIC	?initnet@@YAXXZ					; initnet
PUBLIC	?netRegisterErrorLog@@YAPAU_object@@PAU1@0@Z	; netRegisterErrorLog
PUBLIC	?netRecvGuildSymbol@@YAPAU_object@@PAU1@0@Z	; netRecvGuildSymbol
PUBLIC	?netDisconnectUploader@@YAPAU_object@@PAU1@0@Z	; netDisconnectUploader
PUBLIC	?netSendGuildSymbol@@YAPAU_object@@PAU1@0@Z	; netSendGuildSymbol
PUBLIC	?netSetSkillGroupFake@@YAPAU_object@@PAU1@0@Z	; netSetSkillGroupFake
PUBLIC	?netSetEmpireLanguageMode@@YAPAU_object@@PAU1@0@Z ; netSetEmpireLanguageMode
PUBLIC	?netSetPacketSequenceMode@@YAPAU_object@@PAU1@0@Z ; netSetPacketSequenceMode
PUBLIC	?netSendSelectItemPacket@@YAPAU_object@@PAU1@0@Z ; netSendSelectItemPacket
PUBLIC	?netSendRefinePacket@@YAPAU_object@@PAU1@0@Z	; netSendRefinePacket
PUBLIC	?netSendRequestRefineInfoPacket@@YAPAU_object@@PAU1@0@Z ; netSendRequestRefineInfoPacket
PUBLIC	?netSendGuildWithdrawMoneyPacket@@YAPAU_object@@PAU1@0@Z ; netSendGuildWithdrawMoneyPacket
PUBLIC	?netSendGuildDepositMoneyPacket@@YAPAU_object@@PAU1@0@Z ; netSendGuildDepositMoneyPacket
PUBLIC	?netSendGuildChargeGSPPacket@@YAPAU_object@@PAU1@0@Z ; netSendGuildChargeGSPPacket
PUBLIC	?netSendGuildInviteAnswerPacket@@YAPAU_object@@PAU1@0@Z ; netSendGuildInviteAnswerPacket
PUBLIC	?netSendGuildChangeMemberGeneralPacket@@YAPAU_object@@PAU1@0@Z ; netSendGuildChangeMemberGeneralPacket
PUBLIC	?netSendGuildUseSkillPacket@@YAPAU_object@@PAU1@0@Z ; netSendGuildUseSkillPacket
PUBLIC	?netSendGuildChangeMemberGradePacket@@YAPAU_object@@PAU1@0@Z ; netSendGuildChangeMemberGradePacket
PUBLIC	?netSendGuildRefreshCommentsPacket@@YAPAU_object@@PAU1@0@Z ; netSendGuildRefreshCommentsPacket
PUBLIC	?netSnedGuildDeleteCommentPacket@@YAPAU_object@@PAU1@0@Z ; netSnedGuildDeleteCommentPacket
PUBLIC	?netSnedGuildPostCommentPacket@@YAPAU_object@@PAU1@0@Z ; netSnedGuildPostCommentPacket
PUBLIC	?netSendGuildOfferPacket@@YAPAU_object@@PAU1@0@Z ; netSendGuildOfferPacket
PUBLIC	?netSendGuildChangeGradeAuthorityPacket@@YAPAU_object@@PAU1@0@Z ; netSendGuildChangeGradeAuthorityPacket
PUBLIC	?netSendGuildChangeGradeNamePacket@@YAPAU_object@@PAU1@0@Z ; netSendGuildChangeGradeNamePacket
PUBLIC	?netSendGuildRemoveMemberPacket@@YAPAU_object@@PAU1@0@Z ; netSendGuildRemoveMemberPacket
PUBLIC	?netSendGuildAddMemberPacket@@YAPAU_object@@PAU1@0@Z ; netSendGuildAddMemberPacket
PUBLIC	?netSendQuestConfirmPacket@@YAPAU_object@@PAU1@0@Z ; netSendQuestConfirmPacket
PUBLIC	?netSendQuestInputStringPacket@@YAPAU_object@@PAU1@0@Z ; netSendQuestInputStringPacket
PUBLIC	?netSendAnswerMakeGuildPacket@@YAPAU_object@@PAU1@0@Z ; netSendAnswerMakeGuildPacket
PUBLIC	?netSendMallCheckoutPacket@@YAPAU_object@@PAU1@0@Z ; netSendMallCheckoutPacket
PUBLIC	?netSendSafeboxItemMovePacket@@YAPAU_object@@PAU1@0@Z ; netSendSafeboxItemMovePacket
PUBLIC	?netSendSafeboxCheckoutPacket@@YAPAU_object@@PAU1@0@Z ; netSendSafeboxCheckoutPacket
PUBLIC	?netSendSafeboxCheckinPacket@@YAPAU_object@@PAU1@0@Z ; netSendSafeboxCheckinPacket
PUBLIC	?netSendSafeboxWithdrawMoneyPacket@@YAPAU_object@@PAU1@0@Z ; netSendSafeboxWithdrawMoneyPacket
PUBLIC	?netSendSafeboxSaveMoneyPacket@@YAPAU_object@@PAU1@0@Z ; netSendSafeboxSaveMoneyPacket
PUBLIC	?netSendPartyParameterPacket@@YAPAU_object@@PAU1@0@Z ; netSendPartyParameterPacket
PUBLIC	?netSendPartyUseSkillPacket@@YAPAU_object@@PAU1@0@Z ; netSendPartyUseSkillPacket
PUBLIC	?netSendPartySetStatePacket@@YAPAU_object@@PAU1@0@Z ; netSendPartySetStatePacket
PUBLIC	?netSendPartyRemovePacket@@YAPAU_object@@PAU1@0@Z ; netSendPartyRemovePacket
PUBLIC	?netSendPartyExitPacket@@YAPAU_object@@PAU1@0@Z	; netSendPartyExitPacket
PUBLIC	?netSendPartyInviteAnswerPacket@@YAPAU_object@@PAU1@0@Z ; netSendPartyInviteAnswerPacket
PUBLIC	?netSendPartyInvitePacket@@YAPAU_object@@PAU1@0@Z ; netSendPartyInvitePacket
PUBLIC	?netSendMessengerRemovePacket@@YAPAU_object@@PAU1@0@Z ; netSendMessengerRemovePacket
PUBLIC	?netSendMessengerAddByNamePacket@@YAPAU_object@@PAU1@0@Z ; netSendMessengerAddByNamePacket
PUBLIC	?netSendMessengerAddByVIDPacket@@YAPAU_object@@PAU1@0@Z ; netSendMessengerAddByVIDPacket
PUBLIC	?netRegisterEmoticonString@@YAPAU_object@@PAU1@0@Z ; netRegisterEmoticonString
PUBLIC	?netToggleGameDebugInfo@@YAPAU_object@@PAU1@0@Z	; netToggleGameDebugInfo
PUBLIC	?netIsConnect@@YAPAU_object@@PAU1@0@Z		; netIsConnect
PUBLIC	?netDisconnect@@YAPAU_object@@PAU1@0@Z		; netDisconnect
PUBLIC	?netLogOutGame@@YAPAU_object@@PAU1@0@Z		; netLogOutGame
PUBLIC	?netExitGame@@YAPAU_object@@PAU1@0@Z		; netExitGame
PUBLIC	?netExitApplication@@YAPAU_object@@PAU1@0@Z	; netExitApplication
PUBLIC	?netSendExchangeExitPacket@@YAPAU_object@@PAU1@0@Z ; netSendExchangeExitPacket
PUBLIC	?netSendExchangeAcceptPacket@@YAPAU_object@@PAU1@0@Z ; netSendExchangeAcceptPacket
PUBLIC	?netSendExchangeItemDelPacket@@YAPAU_object@@PAU1@0@Z ; netSendExchangeItemDelPacket
PUBLIC	?netSendExchangeItemAddPacket@@YAPAU_object@@PAU1@0@Z ; netSendExchangeItemAddPacket
PUBLIC	?netSendExchangeElkAddPacket@@YAPAU_object@@PAU1@0@Z ; netSendExchangeElkAddPacket
PUBLIC	?netSendExchangeStartPacket@@YAPAU_object@@PAU1@0@Z ; netSendExchangeStartPacket
PUBLIC	?netSendShopSellPacketNew@@YAPAU_object@@PAU1@0@Z ; netSendShopSellPacketNew
PUBLIC	?netSendShopSellPacket@@YAPAU_object@@PAU1@0@Z	; netSendShopSellPacket
PUBLIC	?netSendShopBuyPacket@@YAPAU_object@@PAU1@0@Z	; netSendShopBuyPacket
PUBLIC	?netSendShopEndPacket@@YAPAU_object@@PAU1@0@Z	; netSendShopEndPacket
PUBLIC	?netSendGiveItemPacket@@YAPAU_object@@PAU1@0@Z	; netSendGiveItemPacket
PUBLIC	?netSendItemPickUpPacket@@YAPAU_object@@PAU1@0@Z ; netSendItemPickUpPacket
PUBLIC	?netSendItemMovePacket@@YAPAU_object@@PAU1@0@Z	; netSendItemMovePacket
PUBLIC	?netSendGoldDropPacketNew@@YAPAU_object@@PAU1@0@Z ; netSendGoldDropPacketNew
PUBLIC	?netSendElkDropPacket@@YAPAU_object@@PAU1@0@Z	; netSendElkDropPacket
PUBLIC	?netSendItemDropPacketNew@@YAPAU_object@@PAU1@0@Z ; netSendItemDropPacketNew
PUBLIC	?netSendItemDestroyPacket@@YAPAU_object@@PAU1@0@Z ; netSendItemDestroyPacket
PUBLIC	?netSendItemDropPacket@@YAPAU_object@@PAU1@0@Z	; netSendItemDropPacket
PUBLIC	?netSendItemUseToItemPacket@@YAPAU_object@@PAU1@0@Z ; netSendItemUseToItemPacket
PUBLIC	?netSendItemUsePacket@@YAPAU_object@@PAU1@0@Z	; netSendItemUsePacket
PUBLIC	?netOnClickPacket@@YAPAU_object@@PAU1@0@Z	; netOnClickPacket
PUBLIC	?netSendEnterGamePacket@@YAPAU_object@@PAU1@0@Z	; netSendEnterGamePacket
PUBLIC	?netSendDestroyCharacterPacket@@YAPAU_object@@PAU1@0@Z ; netSendDestroyCharacterPacket
PUBLIC	?netSendCreateCharacterPacket@@YAPAU_object@@PAU1@0@Z ; netSendCreateCharacterPacket
PUBLIC	?netSendEmoticon@@YAPAU_object@@PAU1@0@Z	; netSendEmoticon
PUBLIC	?netSendChatPacket@@YAPAU_object@@PAU1@0@Z	; netSendChatPacket
PUBLIC	?netSendCharacterPositionPacket@@YAPAU_object@@PAU1@0@Z ; netSendCharacterPositionPacket
PUBLIC	?netSendMobileMessagePacket@@YAPAU_object@@PAU1@0@Z ; netSendMobileMessagePacket
PUBLIC	?netSendWhisperPacket@@YAPAU_object@@PAU1@0@Z	; netSendWhisperPacket
PUBLIC	?netIsInsultIn@@YAPAU_object@@PAU1@0@Z		; netIsInsultIn
PUBLIC	?netIsChatInsultIn@@YAPAU_object@@PAU1@0@Z	; netIsChatInsultIn
PUBLIC	?netEnableChatInsultFilter@@YAPAU_object@@PAU1@0@Z ; netEnableChatInsultFilter
PUBLIC	?netSendChangeNamePacket@@YAPAU_object@@PAU1@0@Z ; netSendChangeNamePacket
PUBLIC	?netSendSelectCharacterPacket@@YAPAU_object@@PAU1@0@Z ; netSendSelectCharacterPacket
PUBLIC	?netDirectEnter@@YAPAU_object@@PAU1@0@Z		; netDirectEnter
PUBLIC	?netSendNEWCIBNPasspodAnswerPacket@@YAPAU_object@@PAU1@0@Z ; netSendNEWCIBNPasspodAnswerPacket
PUBLIC	?netSendRunupMatrixCardPacket@@YAPAU_object@@PAU1@0@Z ; netSendRunupMatrixCardPacket
PUBLIC	?netSendChinaMatrixCardPacket@@YAPAU_object@@PAU1@0@Z ; netSendChinaMatrixCardPacket
PUBLIC	?netSendLoginPacket@@YAPAU_object@@PAU1@0@Z	; netSendLoginPacket
PUBLIC	?netSendSelectEmpirePacket@@YAPAU_object@@PAU1@0@Z ; netSendSelectEmpirePacket
PUBLIC	?netSetOfflinePhase@@YAPAU_object@@PAU1@0@Z	; netSetOfflinePhase
PUBLIC	?netSetLoginInfo@@YAPAU_object@@PAU1@0@Z	; netSetLoginInfo
PUBLIC	?netTargetInfoLoad@@YAPAU_object@@PAU1@0@Z	; netTargetInfoLoad
PUBLIC	?netConnectToAccountServer@@YAPAU_object@@PAU1@0@Z ; netConnectToAccountServer
PUBLIC	?netConnectUDP@@YAPAU_object@@PAU1@0@Z		; netConnectUDP
PUBLIC	?netConnectTCP@@YAPAU_object@@PAU1@0@Z		; netConnectTCP
PUBLIC	?netSetMarkServer@@YAPAU_object@@PAU1@0@Z	; netSetMarkServer
PUBLIC	?netSetUDPRecvBufferSize@@YAPAU_object@@PAU1@0@Z ; netSetUDPRecvBufferSize
PUBLIC	?netSetTCPSendBufferSize@@YAPAU_object@@PAU1@0@Z ; netSetTCPSendBufferSize
PUBLIC	?netSetTCPRecvBufferSize@@YAPAU_object@@PAU1@0@Z ; netSetTCPRecvBufferSize
PUBLIC	?netSetHandler@@YAPAU_object@@PAU1@0@Z		; netSetHandler
PUBLIC	?netSetAccountConnectorHandler@@YAPAU_object@@PAU1@0@Z ; netSetAccountConnectorHandler
PUBLIC	?netSetServerCommandParserWindow@@YAPAU_object@@PAU1@0@Z ; netSetServerCommandParserWindow
PUBLIC	?netClearPhaseWindow@@YAPAU_object@@PAU1@0@Z	; netClearPhaseWindow
PUBLIC	?netSetPhaseWindow@@YAPAU_object@@PAU1@0@Z	; netSetPhaseWindow
PUBLIC	?netGetFieldMusicVolume@@YAPAU_object@@PAU1@0@Z	; netGetFieldMusicVolume
PUBLIC	?netGetFieldMusicFileName@@YAPAU_object@@PAU1@0@Z ; netGetFieldMusicFileName
PUBLIC	?netGetAccountCharacterSlotDataString@@YAPAU_object@@PAU1@0@Z ; netGetAccountCharacterSlotDataString
PUBLIC	?netGetAccountCharacterSlotDataInteger@@YAPAU_object@@PAU1@0@Z ; netGetAccountCharacterSlotDataInteger
PUBLIC	?netGetMainActorSkillGroup@@YAPAU_object@@PAU1@0@Z ; netGetMainActorSkillGroup
PUBLIC	?netGetMainActorEmpire@@YAPAU_object@@PAU1@0@Z	; netGetMainActorEmpire
PUBLIC	?netGetMainActorRace@@YAPAU_object@@PAU1@0@Z	; netGetMainActorRace
PUBLIC	?netGetMainActorVID@@YAPAU_object@@PAU1@0@Z	; netGetMainActorVID
PUBLIC	?netGetEmpireID@@YAPAU_object@@PAU1@0@Z		; netGetEmpireID
PUBLIC	?netGetGuildID@@YAPAU_object@@PAU1@0@Z		; netGetGuildID
PUBLIC	?netUploadSymbol@@YAPAU_object@@PAU1@0@Z	; netUploadSymbol
PUBLIC	?netUploadMark@@YAPAU_object@@PAU1@0@Z		; netUploadMark
PUBLIC	?netLoadInsultList@@YAPAU_object@@PAU1@0@Z	; netLoadInsultList
PUBLIC	?netWarp@@YAPAU_object@@PAU1@0@Z		; netWarp
PUBLIC	?netIsTest@@YAPAU_object@@PAU1@0@Z		; netIsTest
PUBLIC	?netStartGame@@YAPAU_object@@PAU1@0@Z		; netStartGame
PUBLIC	?netGetPreservedServerCommand@@YAPAU_object@@PAU1@0@Z ; netGetPreservedServerCommand
PUBLIC	?netPreserveServerCommand@@YAPAU_object@@PAU1@0@Z ; netPreserveServerCommand
PUBLIC	?netGetServerInfo@@YAPAU_object@@PAU1@0@Z	; netGetServerInfo
PUBLIC	?netSetServerInfo@@YAPAU_object@@PAU1@0@Z	; netSetServerInfo
PUBLIC	?netGetBettingGuildWarValue@@YAPAU_object@@PAU1@0@Z ; netGetBettingGuildWarValue
PUBLIC	?g_kList_strCommand@@3V?$list@V?$basic_string@DU?$char_traits@D@std@@V?$allocator@D@2@@std@@V?$allocator@V?$basic_string@DU?$char_traits@D@std@@V?$allocator@D@2@@std@@@2@@std@@A ; g_kList_strCommand
	ALIGN	8

?g_kList_strCommand@@3V?$list@V?$basic_string@DU?$char_traits@D@std@@V?$allocator@D@2@@std@@V?$allocator@V?$basic_string@DU?$char_traits@D@std@@V?$allocator@D@2@@std@@@2@@std@@A DQ 01H DUP (?) ; g_kList_strCommand
_BSS	ENDS
;	COMDAT xdata$x
xdata$x	SEGMENT
__ehfuncinfo$?netPreserveServerCommand@@YAPAU_object@@PAU1@0@Z DD 019930522H
	DD	02H
	DD	FLAT:__unwindtable$?netPreserveServerCommand@@YAPAU_object@@PAU1@0@Z
	DD	2 DUP(00H)
	DD	2 DUP(00H)
	DD	00H
	DD	01H
__unwindtable$?netPreserveServerCommand@@YAPAU_object@@PAU1@0@Z DD 0ffffffffH
	DD	FLAT:__unwindfunclet$?netPreserveServerCommand@@YAPAU_object@@PAU1@0@Z$0
	DD	00H
	DD	FLAT:__unwindfunclet$?netPreserveServerCommand@@YAPAU_object@@PAU1@0@Z$4
xdata$x	ENDS
;	COMDAT xdata$x
xdata$x	SEGMENT
__ehfuncinfo$?netSendGuildSymbol@@YAPAU_object@@PAU1@0@Z DD 019930522H
	DD	01H
	DD	FLAT:__unwindtable$?netSendGuildSymbol@@YAPAU_object@@PAU1@0@Z
	DD	2 DUP(00H)
	DD	2 DUP(00H)
	DD	00H
	DD	01H
__unwindtable$?netSendGuildSymbol@@YAPAU_object@@PAU1@0@Z DD 0ffffffffH
	DD	FLAT:__unwindfunclet$?netSendGuildSymbol@@YAPAU_object@@PAU1@0@Z$0
xdata$x	ENDS
;	COMDAT xdata$x
xdata$x	SEGMENT
__ehfuncinfo$?netRecvGuildSymbol@@YAPAU_object@@PAU1@0@Z DD 019930522H
	DD	02H
	DD	FLAT:__unwindtable$?netRecvGuildSymbol@@YAPAU_object@@PAU1@0@Z
	DD	2 DUP(00H)
	DD	2 DUP(00H)
	DD	00H
	DD	01H
__unwindtable$?netRecvGuildSymbol@@YAPAU_object@@PAU1@0@Z DD 0ffffffffH
	DD	FLAT:__unwindfunclet$?netRecvGuildSymbol@@YAPAU_object@@PAU1@0@Z$0
	DD	00H
	DD	FLAT:__unwindfunclet$?netRecvGuildSymbol@@YAPAU_object@@PAU1@0@Z$1
xdata$x	ENDS
;	COMDAT xdata$x
xdata$x	SEGMENT
__ehfuncinfo$?push_back@?$list@V?$basic_string@DU?$char_traits@D@std@@V?$allocator@D@2@@std@@V?$allocator@V?$basic_string@DU?$char_traits@D@std@@V?$allocator@D@2@@std@@@2@@std@@QAEX$$QAV?$basic_string@DU?$char_traits@D@std@@V?$allocator@D@2@@2@@Z DD 019930522H
	DD	01H
	DD	FLAT:__unwindtable$?push_back@?$list@V?$basic_string@DU?$char_traits@D@std@@V?$allocator@D@2@@std@@V?$allocator@V?$basic_string@DU?$char_traits@D@std@@V?$allocator@D@2@@std@@@2@@std@@QAEX$$QAV?$basic_string@DU?$char_traits@D@std@@V?$allocator@D@2@@2@@Z
	DD	2 DUP(00H)
	DD	2 DUP(00H)
	DD	00H
	DD	01H
__unwindtable$?push_back@?$list@V?$basic_string@DU?$char_traits@D@std@@V?$allocator@D@2@@std@@V?$allocator@V?$basic_string@DU?$char_traits@D@std@@V?$allocator@D@2@@std@@@2@@std@@QAEX$$QAV?$basic_string@DU?$char_traits@D@std@@V?$allocator@D@2@@2@@Z DD 0ffffffffH
	DD	FLAT:__unwindfunclet$?push_back@?$list@V?$basic_string@DU?$char_traits@D@std@@V?$allocator@D@2@@std@@V?$allocator@V?$basic_string@DU?$char_traits@D@std@@V?$allocator@D@2@@std@@@2@@std@@QAEX$$QAV?$basic_string@DU?$char_traits@D@std@@V?$allocator@D@2@@2@@Z$1
xdata$x	ENDS
;	COMDAT xdata$x
xdata$x	SEGMENT
__ehfuncinfo$??$_Emplace@V?$basic_string@DU?$char_traits@D@std@@V?$allocator@D@2@@std@@@?$list@V?$basic_string@DU?$char_traits@D@std@@V?$allocator@D@2@@std@@V?$allocator@V?$basic_string@DU?$char_traits@D@std@@V?$allocator@D@2@@std@@@2@@std@@QAEPAU?$_List_node@V?$basic_string@DU?$char_traits@D@std@@V?$allocator@D@2@@std@@PAX@1@QAU21@$$QAV?$basic_string@DU?$char_traits@D@std@@V?$allocator@D@2@@1@@Z DD 019930522H
	DD	01H
	DD	FLAT:__unwindtable$??$_Emplace@V?$basic_string@DU?$char_traits@D@std@@V?$allocator@D@2@@std@@@?$list@V?$basic_string@DU?$char_traits@D@std@@V?$allocator@D@2@@std@@V?$allocator@V?$basic_string@DU?$char_traits@D@std@@V?$allocator@D@2@@std@@@2@@std@@QAEPAU?$_List_node@V?$basic_string@DU?$char_traits@D@std@@V?$allocator@D@2@@std@@PAX@1@QAU21@$$QAV?$basic_string@DU?$char_traits@D@std@@V?$allocator@D@2@@1@@Z
	DD	2 DUP(00H)
	DD	2 DUP(00H)
	DD	00H
	DD	01H
__unwindtable$??$_Emplace@V?$basic_string@DU?$char_traits@D@std@@V?$allocator@D@2@@std@@@?$list@V?$basic_string@DU?$char_traits@D@std@@V?$allocator@D@2@@std@@V?$allocator@V?$basic_string@DU?$char_traits@D@std@@V?$allocator@D@2@@std@@@2@@std@@QAEPAU?$_List_node@V?$basic_string@DU?$char_traits@D@std@@V?$allocator@D@2@@std@@PAX@1@QAU21@$$QAV?$basic_string@DU?$char_traits@D@std@@V?$allocator@D@2@@1@@Z DD 0ffffffffH
	DD	FLAT:__unwindfunclet$??$_Emplace@V?$basic_string@DU?$char_traits@D@std@@V?$allocator@D@2@@std@@@?$list@V?$basic_string@DU?$char_traits@D@std@@V?$allocator@D@2@@std@@V?$allocator@V?$basic_string@DU?$char_traits@D@std@@V?$allocator@D@2@@std@@@2@@std@@QAEPAU?$_List_node@V?$basic_string@DU?$char_traits@D@std@@V?$allocator@D@2@@std@@PAX@1@QAU21@$$QAV?$basic_string@DU?$char_traits@D@std@@V?$allocator@D@2@@1@@Z$1
xdata$x	ENDS
;	COMDAT xdata$x
xdata$x	SEGMENT
__ehfuncinfo$??$?0V?$basic_string@DU?$char_traits@D@std@@V?$allocator@D@2@@std@@@?$_List_node_emplace_op2@V?$allocator@U?$_List_node@V?$basic_string@DU?$char_traits@D@std@@V?$allocator@D@2@@std@@PAX@std@@@std@@@std@@QAE@AAV?$allocator@U?$_List_node@V?$basic_string@DU?$char_traits@D@std@@V?$allocator@D@2@@std@@PAX@std@@@1@$$QAV?$basic_string@DU?$char_traits@D@std@@V?$allocator@D@2@@1@@Z DD 019930522H
	DD	01H
	DD	FLAT:__unwindtable$??$?0V?$basic_string@DU?$char_traits@D@std@@V?$allocator@D@2@@std@@@?$_List_node_emplace_op2@V?$allocator@U?$_List_node@V?$basic_string@DU?$char_traits@D@std@@V?$allocator@D@2@@std@@PAX@std@@@std@@@std@@QAE@AAV?$allocator@U?$_List_node@V?$basic_string@DU?$char_traits@D@std@@V?$allocator@D@2@@std@@PAX@std@@@1@$$QAV?$basic_string@DU?$char_traits@D@std@@V?$allocator@D@2@@1@@Z
	DD	2 DUP(00H)
	DD	2 DUP(00H)
	DD	00H
	DD	01H
__unwindtable$??$?0V?$basic_string@DU?$char_traits@D@std@@V?$allocator@D@2@@std@@@?$_List_node_emplace_op2@V?$allocator@U?$_List_node@V?$basic_string@DU?$char_traits@D@std@@V?$allocator@D@2@@std@@PAX@std@@@std@@@std@@QAE@AAV?$allocator@U?$_List_node@V?$basic_string@DU?$char_traits@D@std@@V?$allocator@D@2@@std@@PAX@std@@@1@$$QAV?$basic_string@DU?$char_traits@D@std@@V?$allocator@D@2@@1@@Z DD 0ffffffffH
	DD	FLAT:__unwindfunclet$??$?0V?$basic_string@DU?$char_traits@D@std@@V?$allocator@D@2@@std@@@?$_List_node_emplace_op2@V?$allocator@U?$_List_node@V?$basic_string@DU?$char_traits@D@std@@V?$allocator@D@2@@std@@PAX@std@@@std@@@std@@QAE@AAV?$allocator@U?$_List_node@V?$basic_string@DU?$char_traits@D@std@@V?$allocator@D@2@@std@@PAX@std@@@1@$$QAV?$basic_string@DU?$char_traits@D@std@@V?$allocator@D@2@@1@@Z$0
?gs_stServerInfo@@3V?$basic_string@DU?$char_traits@D@std@@V?$allocator@D@2@@std@@A DB 00H ; gs_stServerInfo
	DB	00H
	DB	00H
	DB	00H
	DB	00H
	DB	00H
	DB	00H
	DB	00H
	DB	00H
	DB	00H
	DB	00H
	DB	00H
	DB	00H
	DB	00H
	DB	00H
	DB	00H
	DD	00H
	DD	0fH
?gs_stServerInfo$initializer$@@3P6AXXZA DD FLAT:??__Fgs_stServerInfo@@YAXXZ ; gs_stServerInfo$initializer$
?g_kList_strCommand$initializer$@@3P6AXXZA DD FLAT:??__Eg_kList_strCommand@@YAXXZ ; g_kList_strCommand$initializer$
; Function compile flags: /Ogtp
; File E:\Metin2_server\SolWayneSF v6\ClientVS22\source\UserInterface\PythonNetworkStreamModule.cpp
;	COMDAT ??__Fgs_stServerInfo@@YAXXZ
text$di	SEGMENT
??__Fgs_stServerInfo@@YAXXZ PROC			; `dynamic atexit destructor for 'gs_stServerInfo'', COMDAT

; 10   : static std::string gs_stServerInfo;

  00000	68 00 00 00 00	 push	 OFFSET ??__Fgs_stServerInfo@@YAXXZ ; `dynamic atexit destructor for 'gs_stServerInfo''
  00005	e8 00 00 00 00	 call	 _atexit
  0000a	59		 pop	 ecx
  0000b	c3		 ret	 0
??__Fgs_stServerInfo@@YAXXZ ENDP			; `dynamic atexit destructor for 'gs_stServerInfo''
text$di	ENDS
; Function compile flags: /Ogtp
; File C:\Program Files\Microsoft Visual Studio\2022\Community\VC\Tools\MSVC\14.34.31933\include\xstring
; File C:\Program Files\Microsoft Visual Studio\2022\Community\VC\Tools\MSVC\14.34.31933\include\xmemory
; File C:\Program Files\Microsoft Visual Studio\2022\Community\VC\Tools\MSVC\14.34.31933\include\xstring
; File C:\Program Files\Microsoft Visual Studio\2022\Community\VC\Tools\MSVC\14.34.31933\include\xmemory
; File C:\Program Files\Microsoft Visual Studio\2022\Community\VC\Tools\MSVC\14.34.31933\include\xstring
;	COMDAT ??__Fgs_stServerInfo@@YAXXZ
text$yd	SEGMENT
??__Fgs_stServerInfo@@YAXXZ PROC			; `dynamic atexit destructor for 'gs_stServerInfo'', COMDAT

; 2301 :         return _BUF_SIZE <= _Myres;

  00000	8b 0d 14 00 00
	00		 mov	 ecx, DWORD PTR ?gs_stServerInfo@@3V?$basic_string@DU?$char_traits@D@std@@V?$allocator@D@2@@std@@A+20
  00006	83 f9 10	 cmp	 ecx, 16			; 00000010H

; 5008 :         if (_My_data._Large_string_engaged()) {

  00009	72 2f		 jb	 SHORT $LN15@dynamic
; File C:\Program Files\Microsoft Visual Studio\2022\Community\VC\Tools\MSVC\14.34.31933\include\xmemory

; 830  :         _Deallocate<_New_alignof<_Ty>>(_Ptr, sizeof(_Ty) * _Count);

  0000b	8b 15 00 00 00
	00		 mov	 edx, DWORD PTR ?gs_stServerInfo@@3V?$basic_string@DU?$char_traits@D@std@@V?$allocator@D@2@@std@@A
; File C:\Program Files\Microsoft Visual Studio\2022\Community\VC\Tools\MSVC\14.34.31933\include\xstring

; 5013 :             _Al.deallocate(_Ptr, _My_data._Myres + 1);

  00011	41		 inc	 ecx
; File C:\Program Files\Microsoft Visual Studio\2022\Community\VC\Tools\MSVC\14.34.31933\include\xmemory

; 830  :         _Deallocate<_New_alignof<_Ty>>(_Ptr, sizeof(_Ty) * _Count);

  00012	8b c2		 mov	 eax, edx

; 251  :         if (_Bytes >= _Big_allocation_threshold) { // boost the alignment of big allocations to help autovectorization

  00014	81 f9 00 10 00
	00		 cmp	 ecx, 4096		; 00001000H
  0001a	72 14		 jb	 SHORT $LN27@dynamic

; 150  :     const uintptr_t _Ptr_container   = _Ptr_user[-1];

  0001c	8b 50 fc	 mov	 edx, DWORD PTR [eax-4]
  0001f	83 c1 23	 add	 ecx, 35			; 00000023H
  00022	2b c2		 sub	 eax, edx

; 151  : 
; 152  :     // If the following asserts, it likely means that we are performing
; 153  :     // an aligned delete on memory coming from an unaligned allocation.
; 154  :     _STL_ASSERT(_Ptr_user[-2] == _Big_allocation_sentinel, "invalid argument");
; 155  : 
; 156  :     // Extra paranoia on aligned allocation/deallocation; ensure _Ptr_container is
; 157  :     // in range [_Min_back_shift, _Non_user_size]
; 158  : #ifdef _DEBUG
; 159  :     constexpr uintptr_t _Min_back_shift = 2 * sizeof(void*);
; 160  : #else // ^^^ _DEBUG ^^^ // vvv !_DEBUG vvv
; 161  :     constexpr uintptr_t _Min_back_shift = sizeof(void*);
; 162  : #endif // _DEBUG
; 163  :     const uintptr_t _Back_shift = reinterpret_cast<uintptr_t>(_Ptr) - _Ptr_container;
; 164  :     _STL_VERIFY(_Back_shift >= _Min_back_shift && _Back_shift <= _Non_user_size, "invalid argument");

  00024	83 c0 fc	 add	 eax, -4			; fffffffcH
  00027	83 f8 1f	 cmp	 eax, 31			; 0000001fH
  0002a	0f 87 00 00 00
	00		 ja	 __invalid_parameter_noinfo_noreturn
$LN27@dynamic:

; 255  :         ::operator delete(_Ptr, _Bytes);

  00030	51		 push	 ecx
  00031	52		 push	 edx
  00032	e8 00 00 00 00	 call	 ??3@YAXPAXI@Z		; operator delete
  00037	83 c4 08	 add	 esp, 8
$LN15@dynamic:
; File C:\Program Files\Microsoft Visual Studio\2022\Community\VC\Tools\MSVC\14.34.31933\include\xstring

; 5016 :         _My_data._Mysize = 0;

  0003a	c7 05 10 00 00
	00 00 00 00 00	 mov	 DWORD PTR ?gs_stServerInfo@@3V?$basic_string@DU?$char_traits@D@std@@V?$allocator@D@2@@std@@A+16, 0

; 5017 :         _My_data._Myres  = _BUF_SIZE - 1;

  00044	c7 05 14 00 00
	00 0f 00 00 00	 mov	 DWORD PTR ?gs_stServerInfo@@3V?$basic_string@DU?$char_traits@D@std@@V?$allocator@D@2@@std@@A+20, 15 ; 0000000fH

; 5018 :         // the _Traits::assign is last so the codegen doesn't think the char write can alias this
; 5019 :         _Traits::assign(_My_data._Bx._Buf[0], _Elem());

  0004e	c6 05 00 00 00
	00 00		 mov	 BYTE PTR ?gs_stServerInfo@@3V?$basic_string@DU?$char_traits@D@std@@V?$allocator@D@2@@std@@A, 0
  00055	c3		 ret	 0
??__Fgs_stServerInfo@@YAXXZ ENDP			; `dynamic atexit destructor for 'gs_stServerInfo''
text$yd	ENDS
; Function compile flags: /Ogtp
; File E:\Metin2_server\SolWayneSF v6\ClientVS22\source\UserInterface\PythonNetworkStreamModule.cpp
; File C:\Program Files\Microsoft Visual Studio\2022\Community\VC\Tools\MSVC\14.34.31933\include\xmemory
; File E:\Metin2_server\SolWayneSF v6\ClientVS22\source\UserInterface\PythonNetworkStreamModule.cpp
; File C:\Program Files\Microsoft Visual Studio\2022\Community\VC\Tools\MSVC\14.34.31933\include\list
; File E:\Metin2_server\SolWayneSF v6\ClientVS22\source\UserInterface\PythonNetworkStreamModule.cpp
;	COMDAT ??__Eg_kList_strCommand@@YAXXZ
text$di	SEGMENT
??__Eg_kList_strCommand@@YAXXZ PROC			; `dynamic initializer for 'g_kList_strCommand'', COMDAT
; File C:\Program Files\Microsoft Visual Studio\2022\Community\VC\Tools\MSVC\14.34.31933\include\xmemory

; 77   :         return ::operator new(_Bytes);

  00000	6a 20		 push	 32			; 00000020H
  00002	e8 00 00 00 00	 call	 ??2@YAPAXI@Z		; operator new
; File E:\Metin2_server\SolWayneSF v6\ClientVS22\source\UserInterface\PythonNetworkStreamModule.cpp

; 12   : std::list<std::string> g_kList_strCommand;

  00007	68 00 00 00 00	 push	 OFFSET ??__Fg_kList_strCommand@@YAXXZ ; `dynamic atexit destructor for 'g_kList_strCommand''
; File C:\Program Files\Microsoft Visual Studio\2022\Community\VC\Tools\MSVC\14.34.31933\include\list

; 1834 :         _Construct_in_place(_Newhead->_Next, _Newhead);

  0000c	89 00		 mov	 DWORD PTR [eax], eax

; 1835 :         _Construct_in_place(_Newhead->_Prev, _Newhead);

  0000e	89 40 04	 mov	 DWORD PTR [eax+4], eax

; 1836 :         _Mypair._Myval2._Myhead = _Newhead;

  00011	a3 00 00 00 00	 mov	 DWORD PTR ?g_kList_strCommand@@3V?$list@V?$basic_string@DU?$char_traits@D@std@@V?$allocator@D@2@@std@@V?$allocator@V?$basic_string@DU?$char_traits@D@std@@V?$allocator@D@2@@std@@@2@@std@@A, eax
; File E:\Metin2_server\SolWayneSF v6\ClientVS22\source\UserInterface\PythonNetworkStreamModule.cpp

; 12   : std::list<std::string> g_kList_strCommand;

  00016	e8 00 00 00 00	 call	 _atexit
  0001b	83 c4 08	 add	 esp, 8
  0001e	c3		 ret	 0
??__Eg_kList_strCommand@@YAXXZ ENDP			; `dynamic initializer for 'g_kList_strCommand''
text$di	ENDS
; Function compile flags: /Ogtp
; File C:\Program Files\Microsoft Visual Studio\2022\Community\VC\Tools\MSVC\14.34.31933\include\list
; File C:\Program Files\Microsoft Visual Studio\2022\Community\VC\Tools\MSVC\14.34.31933\include\xmemory
;	COMDAT ??__Fg_kList_strCommand@@YAXXZ
text$yd	SEGMENT
??__Fg_kList_strCommand@@YAXXZ PROC			; `dynamic atexit destructor for 'g_kList_strCommand'', COMDAT
; File C:\Program Files\Microsoft Visual Studio\2022\Community\VC\Tools\MSVC\14.34.31933\include\list

; 1498 :         _Node::_Free_non_head(_Al, _My_data._Myhead);

  00000	8b 15 00 00 00
	00		 mov	 edx, DWORD PTR ?g_kList_strCommand@@3V?$list@V?$basic_string@DU?$char_traits@D@std@@V?$allocator@D@2@@std@@V?$allocator@V?$basic_string@DU?$char_traits@D@std@@V?$allocator@D@2@@std@@@2@@std@@A
  00006	e8 00 00 00 00	 call	 ??$_Free_non_head@V?$allocator@U?$_List_node@V?$basic_string@DU?$char_traits@D@std@@V?$allocator@D@2@@std@@PAX@std@@@std@@@?$_List_node@V?$basic_string@DU?$char_traits@D@std@@V?$allocator@D@2@@std@@PAX@std@@SAXAAV?$allocator@U?$_List_node@V?$basic_string@DU?$char_traits@D@std@@V?$allocator@D@2@@std@@PAX@std@@@1@PAU01@@Z ; std::_List_node<std::basic_string<char,std::char_traits<char>,std::allocator<char> >,void *>::_Free_non_head<std::allocator<std::_List_node<std::basic_string<char,std::char_traits<char>,std::allocator<char> >,void *> > >
; File C:\Program Files\Microsoft Visual Studio\2022\Community\VC\Tools\MSVC\14.34.31933\include\xmemory

; 255  :         ::operator delete(_Ptr, _Bytes);

  0000b	6a 20		 push	 32			; 00000020H
  0000d	ff 35 00 00 00
	00		 push	 DWORD PTR ?g_kList_strCommand@@3V?$list@V?$basic_string@DU?$char_traits@D@std@@V?$allocator@D@2@@std@@V?$allocator@V?$basic_string@DU?$char_traits@D@std@@V?$allocator@D@2@@std@@@2@@std@@A
  00013	e8 00 00 00 00	 call	 ??3@YAXPAXI@Z		; operator delete
  00018	83 c4 08	 add	 esp, 8
  0001b	c3		 ret	 0
??__Fg_kList_strCommand@@YAXXZ ENDP			; `dynamic atexit destructor for 'g_kList_strCommand''
text$yd	ENDS
; Function compile flags: /Ogtp
; File E:\Metin2_server\SolWayneSF v6\ClientVS22\source\UserInterface\PythonNetworkStreamModule.cpp
;	COMDAT ?netGetBettingGuildWarValue@@YAPAU_object@@PAU1@0@Z
_TEXT	SEGMENT
_szName$ = -4						; size = 4
_poSelf$ = 8						; size = 4
_poArgs$ = 12						; size = 4
?netGetBettingGuildWarValue@@YAPAU_object@@PAU1@0@Z PROC ; netGetBettingGuildWarValue, COMDAT

; 15   : {

  00000	55		 push	 ebp
  00001	8b ec		 mov	 ebp, esp
  00003	51		 push	 ecx

; 16   : 	char* szName;
; 17   : 	if (!PyTuple_GetString(poArgs, 0, &szName))

  00004	8d 45 fc	 lea	 eax, DWORD PTR _szName$[ebp]
  00007	50		 push	 eax
  00008	6a 00		 push	 0
  0000a	ff 75 0c	 push	 DWORD PTR _poArgs$[ebp]
  0000d	e8 00 00 00 00	 call	 ?PyTuple_GetString@@YA_NPAU_object@@HPAPAD@Z ; PyTuple_GetString
  00012	83 c4 0c	 add	 esp, 12			; 0000000cH
  00015	84 c0		 test	 al, al
  00017	75 0e		 jne	 SHORT $LN2@netGetBett

; 18   : 		return Py_BuildException();

  00019	6a 00		 push	 0
  0001b	e8 00 00 00 00	 call	 ?Py_BuildException@@YAPAU_object@@PBDZZ ; Py_BuildException
  00020	83 c4 04	 add	 esp, 4

; 23   : }

  00023	8b e5		 mov	 esp, ebp
  00025	5d		 pop	 ebp
  00026	c3		 ret	 0
$LN2@netGetBett:

; 19   : 
; 20   : 	
; 21   : 	CPythonNetworkStream& rkNetStream=CPythonNetworkStream::Instance();
; 22   : 	return Py_BuildValue("i", rkNetStream.EXPORT_GetBettingGuildWarValue(szName));

  00027	ff 75 fc	 push	 DWORD PTR _szName$[ebp]
  0002a	8b 0d 00 00 00
	00		 mov	 ecx, DWORD PTR ?ms_singleton@?$CSingleton@VCPythonNetworkStream@@@@0PAVCPythonNetworkStream@@A ; CSingleton<CPythonNetworkStream>::ms_singleton
  00030	e8 00 00 00 00	 call	 ?EXPORT_GetBettingGuildWarValue@CPythonNetworkStream@@QAEKPBD@Z ; CPythonNetworkStream::EXPORT_GetBettingGuildWarValue
  00035	50		 push	 eax
  00036	68 00 00 00 00	 push	 OFFSET ??_C@_01KBJDNOO@i@
  0003b	ff 15 00 00 00
	00		 call	 DWORD PTR __imp__Py_BuildValue
  00041	83 c4 08	 add	 esp, 8

; 23   : }

  00044	8b e5		 mov	 esp, ebp
  00046	5d		 pop	 ebp
  00047	c3		 ret	 0
?netGetBettingGuildWarValue@@YAPAU_object@@PAU1@0@Z ENDP ; netGetBettingGuildWarValue
_TEXT	ENDS
; Function compile flags: /Ogtp
; File E:\Metin2_server\SolWayneSF v6\ClientVS22\source\UserInterface\PythonNetworkStreamModule.cpp
; File C:\Program Files\Microsoft Visual Studio\2022\Community\VC\Tools\MSVC\14.34.31933\include\xstring
; File E:\Metin2_server\SolWayneSF v6\ClientVS22\source\UserInterface\PythonNetworkStreamModule.cpp
;	COMDAT ?netSetServerInfo@@YAPAU_object@@PAU1@0@Z
_TEXT	SEGMENT
_szFileName$ = -4					; size = 4
_poSelf$ = 8						; size = 4
_poArgs$ = 12						; size = 4
?netSetServerInfo@@YAPAU_object@@PAU1@0@Z PROC		; netSetServerInfo, COMDAT

; 26   : {

  00000	55		 push	 ebp
  00001	8b ec		 mov	 ebp, esp
  00003	51		 push	 ecx

; 27   : 	char* szFileName;
; 28   : 	if (!PyTuple_GetString(poArgs, 0, &szFileName))

  00004	8d 45 fc	 lea	 eax, DWORD PTR _szFileName$[ebp]
  00007	50		 push	 eax
  00008	6a 00		 push	 0
  0000a	ff 75 0c	 push	 DWORD PTR _poArgs$[ebp]
  0000d	e8 00 00 00 00	 call	 ?PyTuple_GetString@@YA_NPAU_object@@HPAPAD@Z ; PyTuple_GetString
  00012	83 c4 0c	 add	 esp, 12			; 0000000cH
  00015	84 c0		 test	 al, al
  00017	75 0e		 jne	 SHORT $LN2@netSetServ

; 29   : 		return Py_BuildException();

  00019	6a 00		 push	 0
  0001b	e8 00 00 00 00	 call	 ?Py_BuildException@@YAPAU_object@@PBDZZ ; Py_BuildException
  00020	83 c4 04	 add	 esp, 4

; 33   : }

  00023	8b e5		 mov	 esp, ebp
  00025	5d		 pop	 ebp
  00026	c3		 ret	 0
$LN2@netSetServ:
; File C:\Program Files\Microsoft Visual Studio\2022\Community\VC\Tools\MSVC\14.34.31933\include\xstring

; 415  :             return __builtin_strlen(_First);

  00027	8b 55 fc	 mov	 edx, DWORD PTR _szFileName$[ebp]
  0002a	8b ca		 mov	 ecx, edx
  0002c	56		 push	 esi
  0002d	8d 71 01	 lea	 esi, DWORD PTR [ecx+1]
$LL10@netSetServ:
  00030	8a 01		 mov	 al, BYTE PTR [ecx]
  00032	41		 inc	 ecx
  00033	84 c0		 test	 al, al
  00035	75 f9		 jne	 SHORT $LL10@netSetServ
  00037	2b ce		 sub	 ecx, esi

; 3546 :         return assign(_Ptr, _Convert_size<size_type>(_Traits::length(_Ptr)));

  00039	51		 push	 ecx
  0003a	52		 push	 edx
  0003b	b9 00 00 00 00	 mov	 ecx, OFFSET ?gs_stServerInfo@@3V?$basic_string@DU?$char_traits@D@std@@V?$allocator@D@2@@std@@A
  00040	e8 00 00 00 00	 call	 ?assign@?$basic_string@DU?$char_traits@D@std@@V?$allocator@D@2@@std@@QAEAAV12@QBDI@Z ; std::basic_string<char,std::char_traits<char>,std::allocator<char> >::assign
; File E:\Metin2_server\SolWayneSF v6\ClientVS22\source\UserInterface\PythonNetworkStreamModule.cpp

; 32   : 	return Py_BuildNone();

  00045	e8 00 00 00 00	 call	 ?Py_BuildNone@@YAPAU_object@@XZ ; Py_BuildNone
  0004a	5e		 pop	 esi

; 33   : }

  0004b	8b e5		 mov	 esp, ebp
  0004d	5d		 pop	 ebp
  0004e	c3		 ret	 0
?netSetServerInfo@@YAPAU_object@@PAU1@0@Z ENDP		; netSetServerInfo
_TEXT	ENDS
; Function compile flags: /Ogtp
; File E:\Metin2_server\SolWayneSF v6\ClientVS22\source\UserInterface\PythonNetworkStreamModule.cpp
; File C:\Program Files\Microsoft Visual Studio\2022\Community\VC\Tools\MSVC\14.34.31933\include\xstring
; File E:\Metin2_server\SolWayneSF v6\ClientVS22\source\UserInterface\PythonNetworkStreamModule.cpp
;	COMDAT ?netGetServerInfo@@YAPAU_object@@PAU1@0@Z
_TEXT	SEGMENT
_poSelf$ = 8						; size = 4
_poArgs$ = 12						; size = 4
?netGetServerInfo@@YAPAU_object@@PAU1@0@Z PROC		; netGetServerInfo, COMDAT
; File C:\Program Files\Microsoft Visual Studio\2022\Community\VC\Tools\MSVC\14.34.31933\include\xstring

; 2301 :         return _BUF_SIZE <= _Myres;

  00000	83 3d 14 00 00
	00 10		 cmp	 DWORD PTR ?gs_stServerInfo@@3V?$basic_string@DU?$char_traits@D@std@@V?$allocator@D@2@@std@@A+20, 16 ; 00000010H

; 2292 :         const value_type* _Result = _Bx._Buf;

  00007	b8 00 00 00 00	 mov	 eax, OFFSET ?gs_stServerInfo@@3V?$basic_string@DU?$char_traits@D@std@@V?$allocator@D@2@@std@@A

; 2293 :         if (_Large_string_engaged()) {

  0000c	0f 43 05 00 00
	00 00		 cmovae	 eax, DWORD PTR ?gs_stServerInfo@@3V?$basic_string@DU?$char_traits@D@std@@V?$allocator@D@2@@std@@A
; File E:\Metin2_server\SolWayneSF v6\ClientVS22\source\UserInterface\PythonNetworkStreamModule.cpp

; 37   : 	return Py_BuildValue("s", gs_stServerInfo.c_str());

  00013	50		 push	 eax
  00014	68 00 00 00 00	 push	 OFFSET ??_C@_01LKDEMHDF@s@
  00019	ff 15 00 00 00
	00		 call	 DWORD PTR __imp__Py_BuildValue
  0001f	83 c4 08	 add	 esp, 8

; 38   : }

  00022	c3		 ret	 0
?netGetServerInfo@@YAPAU_object@@PAU1@0@Z ENDP		; netGetServerInfo
_TEXT	ENDS
; Function compile flags: /Ogtp
; File E:\Metin2_server\SolWayneSF v6\ClientVS22\source\UserInterface\PythonNetworkStreamModule.cpp
; File C:\Program Files\Microsoft Visual Studio\2022\Community\VC\Tools\MSVC\14.34.31933\include\xstring
; File E:\Metin2_server\SolWayneSF v6\ClientVS22\source\UserInterface\PythonNetworkStreamModule.cpp
; File C:\Program Files\Microsoft Visual Studio\2022\Community\VC\Tools\MSVC\14.34.31933\include\list
; File C:\Program Files\Microsoft Visual Studio\2022\Community\VC\Tools\MSVC\14.34.31933\include\xmemory
; File C:\Program Files\Microsoft Visual Studio\2022\Community\VC\Tools\MSVC\14.34.31933\include\list
; File C:\Program Files\Microsoft Visual Studio\2022\Community\VC\Tools\MSVC\14.34.31933\include\xmemory
; File C:\Program Files\Microsoft Visual Studio\2022\Community\VC\Tools\MSVC\14.34.31933\include\xstring
; File C:\Program Files\Microsoft Visual Studio\2022\Community\VC\Tools\MSVC\14.34.31933\include\list
; File E:\Metin2_server\SolWayneSF v6\ClientVS22\source\UserInterface\PythonNetworkStreamModule.cpp
; File C:\Program Files\Microsoft Visual Studio\2022\Community\VC\Tools\MSVC\14.34.31933\include\list
; File E:\Metin2_server\SolWayneSF v6\ClientVS22\source\UserInterface\PythonNetworkStreamModule.cpp
;	COMDAT ?netPreserveServerCommand@@YAPAU_object@@PAU1@0@Z
_TEXT	SEGMENT
__Op$2 = -52						; size = 8
_szLine$ = -44						; size = 4
$T3 = -40						; size = 24
__$ArrayPad$ = -16					; size = 4
__$EHRec$ = -12						; size = 12
_poSelf$ = 8						; size = 4
_poArgs$ = 12						; size = 4
?netPreserveServerCommand@@YAPAU_object@@PAU1@0@Z PROC	; netPreserveServerCommand, COMDAT

; 41   : {

  00000	55		 push	 ebp
  00001	8b ec		 mov	 ebp, esp
  00003	6a ff		 push	 -1
  00005	68 00 00 00 00	 push	 __ehhandler$?netPreserveServerCommand@@YAPAU_object@@PAU1@0@Z
  0000a	64 a1 00 00 00
	00		 mov	 eax, DWORD PTR fs:0
  00010	50		 push	 eax
  00011	83 ec 28	 sub	 esp, 40			; 00000028H
  00014	a1 00 00 00 00	 mov	 eax, DWORD PTR ___security_cookie
  00019	33 c5		 xor	 eax, ebp
  0001b	89 45 f0	 mov	 DWORD PTR __$ArrayPad$[ebp], eax
  0001e	56		 push	 esi
  0001f	50		 push	 eax
  00020	8d 45 f4	 lea	 eax, DWORD PTR __$EHRec$[ebp]
  00023	64 a3 00 00 00
	00		 mov	 DWORD PTR fs:0, eax
  00029	8b 45 0c	 mov	 eax, DWORD PTR _poArgs$[ebp]

; 42   : 	char* szLine;
; 43   : 	if (!PyTuple_GetString(poArgs, 0, &szLine))

  0002c	8d 4d d4	 lea	 ecx, DWORD PTR _szLine$[ebp]
  0002f	51		 push	 ecx
  00030	6a 00		 push	 0
  00032	50		 push	 eax
  00033	e8 00 00 00 00	 call	 ?PyTuple_GetString@@YA_NPAU_object@@HPAPAD@Z ; PyTuple_GetString
  00038	83 c4 0c	 add	 esp, 12			; 0000000cH
  0003b	84 c0		 test	 al, al
  0003d	75 0f		 jne	 SHORT $LN2@netPreserv

; 44   : 		return Py_BuildException();

  0003f	6a 00		 push	 0
  00041	e8 00 00 00 00	 call	 ?Py_BuildException@@YAPAU_object@@PBDZZ ; Py_BuildException
  00046	83 c4 04	 add	 esp, 4
  00049	e9 b2 00 00 00	 jmp	 $LN1@netPreserv
$LN2@netPreserv:
; File C:\Program Files\Microsoft Visual Studio\2022\Community\VC\Tools\MSVC\14.34.31933\include\xstring

; 415  :             return __builtin_strlen(_First);

  0004e	8b 55 d4	 mov	 edx, DWORD PTR _szLine$[ebp]
  00051	0f 57 c0	 xorps	 xmm0, xmm0
  00054	8b ca		 mov	 ecx, edx

; 2348 :     size_type _Mysize = 0; // current length of string

  00056	c7 45 e8 00 00
	00 00		 mov	 DWORD PTR $T3[ebp+16], 0

; 2339 :         _CONSTEXPR20 _Bxty() noexcept : _Buf() {} // user-provided, for fancy pointers

  0005d	0f 11 45 d8	 movups	 XMMWORD PTR $T3[ebp], xmm0

; 2349 :     size_type _Myres  = 0; // current storage reserved for string

  00061	c7 45 ec 00 00
	00 00		 mov	 DWORD PTR $T3[ebp+20], 0

; 415  :             return __builtin_strlen(_First);

  00068	8d 71 01	 lea	 esi, DWORD PTR [ecx+1]
  0006b	0f 1f 44 00 00	 npad	 5
$LL179@netPreserv:
  00070	8a 01		 mov	 al, BYTE PTR [ecx]
  00072	41		 inc	 ecx
  00073	84 c0		 test	 al, al
  00075	75 f9		 jne	 SHORT $LL179@netPreserv
  00077	2b ce		 sub	 ecx, esi

; 2674 :         _Construct<_Construct_strategy::_From_ptr>(_Ptr, _Convert_size<size_type>(_Traits::length(_Ptr)));

  00079	51		 push	 ecx
  0007a	52		 push	 edx
  0007b	8d 4d d8	 lea	 ecx, DWORD PTR $T3[ebp]
  0007e	e8 00 00 00 00	 call	 ??$_Construct@$00PBD@?$basic_string@DU?$char_traits@D@std@@V?$allocator@D@2@@std@@AAEXQBDI@Z ; std::basic_string<char,std::char_traits<char>,std::allocator<char> >::_Construct<1,char const *>
; File E:\Metin2_server\SolWayneSF v6\ClientVS22\source\UserInterface\PythonNetworkStreamModule.cpp

; 46   : 	g_kList_strCommand.push_back(szLine);

  00083	c7 45 fc 00 00
	00 00		 mov	 DWORD PTR __$EHRec$[ebp+8], 0
; File C:\Program Files\Microsoft Visual Studio\2022\Community\VC\Tools\MSVC\14.34.31933\include\list

; 1012 :         if (_Mysize == max_size()) {

  0008a	81 3d 04 00 00
	00 ff ff ff 07	 cmp	 DWORD PTR ?g_kList_strCommand@@3V?$list@V?$basic_string@DU?$char_traits@D@std@@V?$allocator@D@2@@std@@V?$allocator@V?$basic_string@DU?$char_traits@D@std@@V?$allocator@D@2@@std@@@2@@std@@A+4, 134217727 ; 07ffffffH

; 971  :         _Emplace(_Mypair._Myval2._Myhead, _STD move(_Val));

  00094	8b 35 00 00 00
	00		 mov	 esi, DWORD PTR ?g_kList_strCommand@@3V?$list@V?$basic_string@DU?$char_traits@D@std@@V?$allocator@D@2@@std@@V?$allocator@V?$basic_string@DU?$char_traits@D@std@@V?$allocator@D@2@@std@@@2@@std@@A

; 1012 :         if (_Mysize == max_size()) {

  0009a	74 7e		 je	 SHORT $LN183@netPreserv
; File C:\Program Files\Microsoft Visual Studio\2022\Community\VC\Tools\MSVC\14.34.31933\include\xmemory

; 1005 :     _CONSTEXPR20 explicit _Alloc_construct_ptr(_Alloc& _Al_) : _Al(_Al_), _Ptr(nullptr) {}

  0009c	c7 45 cc 00 00
	00 00		 mov	 DWORD PTR __Op$2[ebp], OFFSET ?g_kList_strCommand@@3V?$list@V?$basic_string@DU?$char_traits@D@std@@V?$allocator@D@2@@std@@V?$allocator@V?$basic_string@DU?$char_traits@D@std@@V?$allocator@D@2@@std@@@2@@std@@A ; g_kList_strCommand
; File C:\Program Files\Microsoft Visual Studio\2022\Community\VC\Tools\MSVC\14.34.31933\include\list

; 584  :     explicit _List_node_emplace_op2(_Alnode& _Al_, _Valtys&&... _Vals) : _Alloc_construct_ptr<_Alnode>(_Al_) {

  000a3	c6 45 fc 01	 mov	 BYTE PTR __$EHRec$[ebp+8], 1
; File C:\Program Files\Microsoft Visual Studio\2022\Community\VC\Tools\MSVC\14.34.31933\include\xmemory

; 77   :         return ::operator new(_Bytes);

  000a7	6a 20		 push	 32			; 00000020H

; 1012 :         _Ptr = nullptr; // if allocate throws, prevents double-free

  000a9	c7 45 d0 00 00
	00 00		 mov	 DWORD PTR __Op$2[ebp+4], 0

; 77   :         return ::operator new(_Bytes);

  000b0	e8 00 00 00 00	 call	 ??2@YAPAXI@Z		; operator new

; 1013 :         _Ptr = _Al.allocate(1);

  000b5	8b c8		 mov	 ecx, eax
  000b7	0f 57 c0	 xorps	 xmm0, xmm0

; 77   :         return ::operator new(_Bytes);

  000ba	83 c4 04	 add	 esp, 4
; File C:\Program Files\Microsoft Visual Studio\2022\Community\VC\Tools\MSVC\14.34.31933\include\xstring

; 2339 :         _CONSTEXPR20 _Bxty() noexcept : _Buf() {} // user-provided, for fancy pointers

  000bd	0f 11 41 08	 movups	 XMMWORD PTR [ecx+8], xmm0

; 2348 :     size_type _Mysize = 0; // current length of string

  000c1	c7 41 18 00 00
	00 00		 mov	 DWORD PTR [ecx+24], 0

; 3137 :         _CSTD memcpy(_My_data_mem, _Right_data_mem, _Memcpy_val_size);

  000c8	0f 10 45 d8	 movups	 xmm0, XMMWORD PTR $T3[ebp]

; 2349 :     size_type _Myres  = 0; // current storage reserved for string

  000cc	c7 41 1c 00 00
	00 00		 mov	 DWORD PTR [ecx+28], 0

; 3137 :         _CSTD memcpy(_My_data_mem, _Right_data_mem, _Memcpy_val_size);

  000d3	0f 11 41 08	 movups	 XMMWORD PTR [ecx+8], xmm0
  000d7	f3 0f 7e 45 e8	 movq	 xmm0, QWORD PTR $T3[ebp+16]
  000dc	66 0f d6 41 18	 movq	 QWORD PTR [ecx+24], xmm0
; File C:\Program Files\Microsoft Visual Studio\2022\Community\VC\Tools\MSVC\14.34.31933\include\list

; 1017 :         ++_Mysize;

  000e1	ff 05 04 00 00
	00		 inc	 DWORD PTR ?g_kList_strCommand@@3V?$list@V?$basic_string@DU?$char_traits@D@std@@V?$allocator@D@2@@std@@V?$allocator@V?$basic_string@DU?$char_traits@D@std@@V?$allocator@D@2@@std@@@2@@std@@A+4

; 599  :         const pointer _Insert_after = _Insert_before->_Prev;

  000e7	8b 46 04	 mov	 eax, DWORD PTR [esi+4]

; 600  :         _Construct_in_place(this->_Ptr->_Next, _Insert_before);

  000ea	89 31		 mov	 DWORD PTR [ecx], esi

; 601  :         _Construct_in_place(this->_Ptr->_Prev, _Insert_after);

  000ec	89 41 04	 mov	 DWORD PTR [ecx+4], eax

; 602  :         const auto _Result    = this->_Ptr;
; 603  :         this->_Ptr            = pointer{};
; 604  :         _Insert_before->_Prev = _Result;

  000ef	89 4e 04	 mov	 DWORD PTR [esi+4], ecx

; 605  :         _Insert_after->_Next  = _Result;

  000f2	89 08		 mov	 DWORD PTR [eax], ecx
; File E:\Metin2_server\SolWayneSF v6\ClientVS22\source\UserInterface\PythonNetworkStreamModule.cpp

; 46   : 	g_kList_strCommand.push_back(szLine);

  000f4	c7 45 fc ff ff
	ff ff		 mov	 DWORD PTR __$EHRec$[ebp+8], -1

; 47   : 
; 48   : 	return Py_BuildNone();

  000fb	e8 00 00 00 00	 call	 ?Py_BuildNone@@YAPAU_object@@XZ ; Py_BuildNone
$LN1@netPreserv:

; 49   : }

  00100	8b 4d f4	 mov	 ecx, DWORD PTR __$EHRec$[ebp]
  00103	64 89 0d 00 00
	00 00		 mov	 DWORD PTR fs:0, ecx
  0010a	59		 pop	 ecx
  0010b	5e		 pop	 esi
  0010c	8b 4d f0	 mov	 ecx, DWORD PTR __$ArrayPad$[ebp]
  0010f	33 cd		 xor	 ecx, ebp
  00111	e8 00 00 00 00	 call	 @__security_check_cookie@4
  00116	8b e5		 mov	 esp, ebp
  00118	5d		 pop	 ebp
  00119	c3		 ret	 0
$LN183@netPreserv:
; File C:\Program Files\Microsoft Visual Studio\2022\Community\VC\Tools\MSVC\14.34.31933\include\list

; 1013 :             _Xlength_error("list too long");

  0011a	68 00 00 00 00	 push	 OFFSET ??_C@_0O@NKNMEGII@list?5too?5long@
  0011f	e8 00 00 00 00	 call	 ?_Xlength_error@std@@YAXPBD@Z ; std::_Xlength_error
$LN181@netPreserv:
  00124	cc		 int	 3
_TEXT	ENDS
;	COMDAT text$x
text$x	SEGMENT
__unwindfunclet$?netPreserveServerCommand@@YAPAU_object@@PAU1@0@Z$0:
  00000	8d 4d d8	 lea	 ecx, DWORD PTR $T3[ebp]
  00003	e9 00 00 00 00	 jmp	 ??1?$basic_string@DU?$char_traits@D@std@@V?$allocator@D@2@@std@@QAE@XZ ; std::basic_string<char,std::char_traits<char>,std::allocator<char> >::~basic_string<char,std::char_traits<char>,std::allocator<char> >
__unwindfunclet$?netPreserveServerCommand@@YAPAU_object@@PAU1@0@Z$4:
  00008	8d 4d cc	 lea	 ecx, DWORD PTR __Op$2[ebp]
  0000b	e9 00 00 00 00	 jmp	 ??1?$_Alloc_construct_ptr@V?$allocator@U?$_List_node@V?$basic_string@DU?$char_traits@D@std@@V?$allocator@D@2@@std@@PAX@std@@@std@@@std@@QAE@XZ ; std::_Alloc_construct_ptr<std::allocator<std::_List_node<std::basic_string<char,std::char_traits<char>,std::allocator<char> >,void *> > >::~_Alloc_construct_ptr<std::allocator<std::_List_node<std::basic_string<char,std::char_traits<char>,std::allocator<char> >,void *> > >
  00010	cc		 int	 3
  00011	cc		 int	 3
  00012	cc		 int	 3
  00013	cc		 int	 3
  00014	cc		 int	 3
__ehhandler$?netPreserveServerCommand@@YAPAU_object@@PAU1@0@Z:
  00015	90		 npad	 1
  00016	90		 npad	 1
  00017	8b 54 24 08	 mov	 edx, DWORD PTR [esp+8]
  0001b	8d 42 0c	 lea	 eax, DWORD PTR [edx+12]
  0001e	8b 4a d0	 mov	 ecx, DWORD PTR [edx-48]
  00021	33 c8		 xor	 ecx, eax
  00023	e8 00 00 00 00	 call	 @__security_check_cookie@4
  00028	8b 4a fc	 mov	 ecx, DWORD PTR [edx-4]
  0002b	33 c8		 xor	 ecx, eax
  0002d	e8 00 00 00 00	 call	 @__security_check_cookie@4
  00032	b8 00 00 00 00	 mov	 eax, OFFSET __ehfuncinfo$?netPreserveServerCommand@@YAPAU_object@@PAU1@0@Z
  00037	e9 00 00 00 00	 jmp	 ___CxxFrameHandler3
text$x	ENDS
?netPreserveServerCommand@@YAPAU_object@@PAU1@0@Z ENDP	; netPreserveServerCommand
; Function compile flags: /Ogtp
; File E:\Metin2_server\SolWayneSF v6\ClientVS22\source\UserInterface\PythonNetworkStreamModule.cpp
; File C:\Program Files\Microsoft Visual Studio\2022\Community\VC\Tools\MSVC\14.34.31933\include\list
; File E:\Metin2_server\SolWayneSF v6\ClientVS22\source\UserInterface\PythonNetworkStreamModule.cpp
; File C:\Program Files\Microsoft Visual Studio\2022\Community\VC\Tools\MSVC\14.34.31933\include\list
; File E:\Metin2_server\SolWayneSF v6\ClientVS22\source\UserInterface\PythonNetworkStreamModule.cpp
; File C:\Program Files\Microsoft Visual Studio\2022\Community\VC\Tools\MSVC\14.34.31933\include\list
; File E:\Metin2_server\SolWayneSF v6\ClientVS22\source\UserInterface\PythonNetworkStreamModule.cpp
; File C:\Program Files\Microsoft Visual Studio\2022\Community\VC\Tools\MSVC\14.34.31933\include\list
; File C:\Program Files\Microsoft Visual Studio\2022\Community\VC\Tools\MSVC\14.34.31933\include\xstring
; File E:\Metin2_server\SolWayneSF v6\ClientVS22\source\UserInterface\PythonNetworkStreamModule.cpp
;	COMDAT ?netGetPreservedServerCommand@@YAPAU_object@@PAU1@0@Z
_TEXT	SEGMENT
_strCommand$ = -28					; size = 24
__$ArrayPad$ = -4					; size = 4
_poSelf$ = 8						; size = 4
_poArgs$ = 12						; size = 4
?netGetPreservedServerCommand@@YAPAU_object@@PAU1@0@Z PROC ; netGetPreservedServerCommand, COMDAT

; 52   : {

  00000	55		 push	 ebp
  00001	8b ec		 mov	 ebp, esp
  00003	83 e4 f8	 and	 esp, -8			; fffffff8H
  00006	83 ec 1c	 sub	 esp, 28			; 0000001cH
  00009	a1 00 00 00 00	 mov	 eax, DWORD PTR ___security_cookie
  0000e	33 c4		 xor	 eax, esp
  00010	89 44 24 18	 mov	 DWORD PTR __$ArrayPad$[esp+28], eax
; File C:\Program Files\Microsoft Visual Studio\2022\Community\VC\Tools\MSVC\14.34.31933\include\list

; 1195 :         return _Mypair._Myval2._Mysize == 0;

  00014	83 3d 04 00 00
	00 00		 cmp	 DWORD PTR ?g_kList_strCommand@@3V?$list@V?$basic_string@DU?$char_traits@D@std@@V?$allocator@D@2@@std@@V?$allocator@V?$basic_string@DU?$char_traits@D@std@@V?$allocator@D@2@@std@@@2@@std@@A+4, 0
; File E:\Metin2_server\SolWayneSF v6\ClientVS22\source\UserInterface\PythonNetworkStreamModule.cpp

; 52   : {

  0001b	56		 push	 esi

; 53   : 	if (g_kList_strCommand.empty())

  0001c	75 23		 jne	 SHORT $LN2@netGetPres

; 54   : 		return Py_BuildValue("s", "");

  0001e	68 00 00 00 00	 push	 OFFSET ??_C@_00CNPNBAHC@@
  00023	68 00 00 00 00	 push	 OFFSET ??_C@_01LKDEMHDF@s@
  00028	ff 15 00 00 00
	00		 call	 DWORD PTR __imp__Py_BuildValue
  0002e	83 c4 08	 add	 esp, 8

; 60   : }

  00031	5e		 pop	 esi
  00032	8b 4c 24 18	 mov	 ecx, DWORD PTR __$ArrayPad$[esp+28]
  00036	33 cc		 xor	 ecx, esp
  00038	e8 00 00 00 00	 call	 @__security_check_cookie@4
  0003d	8b e5		 mov	 esp, ebp
  0003f	5d		 pop	 ebp
  00040	c3		 ret	 0
$LN2@netGetPres:
; File C:\Program Files\Microsoft Visual Studio\2022\Community\VC\Tools\MSVC\14.34.31933\include\list

; 1207 :         return _Mypair._Myval2._Myhead->_Next->_Myval;

  00041	a1 00 00 00 00	 mov	 eax, DWORD PTR ?g_kList_strCommand@@3V?$list@V?$basic_string@DU?$char_traits@D@std@@V?$allocator@D@2@@std@@V?$allocator@V?$basic_string@DU?$char_traits@D@std@@V?$allocator@D@2@@std@@@2@@std@@A
; File E:\Metin2_server\SolWayneSF v6\ClientVS22\source\UserInterface\PythonNetworkStreamModule.cpp

; 56   : 	std::string strCommand = g_kList_strCommand.front();

  00046	8d 4c 24 04	 lea	 ecx, DWORD PTR _strCommand$[esp+32]
; File C:\Program Files\Microsoft Visual Studio\2022\Community\VC\Tools\MSVC\14.34.31933\include\list

; 1207 :         return _Mypair._Myval2._Myhead->_Next->_Myval;

  0004a	8b 00		 mov	 eax, DWORD PTR [eax]
  0004c	83 c0 08	 add	 eax, 8
; File E:\Metin2_server\SolWayneSF v6\ClientVS22\source\UserInterface\PythonNetworkStreamModule.cpp

; 56   : 	std::string strCommand = g_kList_strCommand.front();

  0004f	50		 push	 eax
  00050	e8 00 00 00 00	 call	 ??0?$basic_string@DU?$char_traits@D@std@@V?$allocator@D@2@@std@@QAE@ABV01@@Z ; std::basic_string<char,std::char_traits<char>,std::allocator<char> >::basic_string<char,std::char_traits<char>,std::allocator<char> >
; File C:\Program Files\Microsoft Visual Studio\2022\Community\VC\Tools\MSVC\14.34.31933\include\list

; 1252 :         _Unchecked_erase(_Mypair._Myval2._Myhead->_Next);

  00055	a1 00 00 00 00	 mov	 eax, DWORD PTR ?g_kList_strCommand@@3V?$list@V?$basic_string@DU?$char_traits@D@std@@V?$allocator@D@2@@std@@V?$allocator@V?$basic_string@DU?$char_traits@D@std@@V?$allocator@D@2@@std@@@2@@std@@A
  0005a	8b 10		 mov	 edx, DWORD PTR [eax]

; 1418 :         const auto _Result = _Pnode->_Next;

  0005c	8b 0a		 mov	 ecx, DWORD PTR [edx]

; 1419 :         _Mypair._Myval2._Orphan_ptr2(_Pnode);
; 1420 :         --_Mypair._Myval2._Mysize;

  0005e	ff 0d 04 00 00
	00		 dec	 DWORD PTR ?g_kList_strCommand@@3V?$list@V?$basic_string@DU?$char_traits@D@std@@V?$allocator@D@2@@std@@V?$allocator@V?$basic_string@DU?$char_traits@D@std@@V?$allocator@D@2@@std@@@2@@std@@A+4

; 1421 :         _Pnode->_Prev->_Next = _Result;

  00064	8b 42 04	 mov	 eax, DWORD PTR [edx+4]
  00067	89 08		 mov	 DWORD PTR [eax], ecx

; 1422 :         _Result->_Prev       = _Pnode->_Prev;

  00069	8b 42 04	 mov	 eax, DWORD PTR [edx+4]
  0006c	89 41 04	 mov	 DWORD PTR [ecx+4], eax

; 1423 :         _Node::_Freenode(_Getal(), _Pnode);

  0006f	e8 00 00 00 00	 call	 ??$_Freenode@V?$allocator@U?$_List_node@V?$basic_string@DU?$char_traits@D@std@@V?$allocator@D@2@@std@@PAX@std@@@std@@@?$_List_node@V?$basic_string@DU?$char_traits@D@std@@V?$allocator@D@2@@std@@PAX@std@@SAXAAV?$allocator@U?$_List_node@V?$basic_string@DU?$char_traits@D@std@@V?$allocator@D@2@@std@@PAX@std@@@1@PAU01@@Z ; std::_List_node<std::basic_string<char,std::char_traits<char>,std::allocator<char> >,void *>::_Freenode<std::allocator<std::_List_node<std::basic_string<char,std::char_traits<char>,std::allocator<char> >,void *> > >
; File C:\Program Files\Microsoft Visual Studio\2022\Community\VC\Tools\MSVC\14.34.31933\include\xstring

; 2301 :         return _BUF_SIZE <= _Myres;

  00074	83 7c 24 18 10	 cmp	 DWORD PTR _strCommand$[esp+52], 16 ; 00000010H

; 2292 :         const value_type* _Result = _Bx._Buf;

  00079	8d 44 24 04	 lea	 eax, DWORD PTR _strCommand$[esp+32]

; 2293 :         if (_Large_string_engaged()) {

  0007d	0f 43 44 24 04	 cmovae	 eax, DWORD PTR _strCommand$[esp+32]
; File E:\Metin2_server\SolWayneSF v6\ClientVS22\source\UserInterface\PythonNetworkStreamModule.cpp

; 59   : 	return Py_BuildValue("s", strCommand.c_str());

  00082	50		 push	 eax
  00083	68 00 00 00 00	 push	 OFFSET ??_C@_01LKDEMHDF@s@
  00088	ff 15 00 00 00
	00		 call	 DWORD PTR __imp__Py_BuildValue
  0008e	83 c4 08	 add	 esp, 8
  00091	8d 4c 24 04	 lea	 ecx, DWORD PTR _strCommand$[esp+32]
  00095	8b f0		 mov	 esi, eax
  00097	e8 00 00 00 00	 call	 ??1?$basic_string@DU?$char_traits@D@std@@V?$allocator@D@2@@std@@QAE@XZ ; std::basic_string<char,std::char_traits<char>,std::allocator<char> >::~basic_string<char,std::char_traits<char>,std::allocator<char> >

; 60   : }

  0009c	8b 4c 24 1c	 mov	 ecx, DWORD PTR __$ArrayPad$[esp+32]
  000a0	8b c6		 mov	 eax, esi
  000a2	5e		 pop	 esi
  000a3	33 cc		 xor	 ecx, esp
  000a5	e8 00 00 00 00	 call	 @__security_check_cookie@4
  000aa	8b e5		 mov	 esp, ebp
  000ac	5d		 pop	 ebp
  000ad	c3		 ret	 0
?netGetPreservedServerCommand@@YAPAU_object@@PAU1@0@Z ENDP ; netGetPreservedServerCommand
_TEXT	ENDS
; Function compile flags: /Ogtp
; File E:\Metin2_server\SolWayneSF v6\ClientVS22\source\UserInterface\PythonNetworkStreamModule.cpp
;	COMDAT ?netStartGame@@YAPAU_object@@PAU1@0@Z
_TEXT	SEGMENT
_poSelf$ = 8						; size = 4
_poArgs$ = 12						; size = 4
?netStartGame@@YAPAU_object@@PAU1@0@Z PROC		; netStartGame, COMDAT

; 64   : 	CPythonNetworkStream& rkNetStream=CPythonNetworkStream::Instance();
; 65   : 	rkNetStream.StartGame();

  00000	8b 0d 00 00 00
	00		 mov	 ecx, DWORD PTR ?ms_singleton@?$CSingleton@VCPythonNetworkStream@@@@0PAVCPythonNetworkStream@@A ; CSingleton<CPythonNetworkStream>::ms_singleton
  00006	e8 00 00 00 00	 call	 ?StartGame@CPythonNetworkStream@@QAEXXZ ; CPythonNetworkStream::StartGame

; 66   : 
; 67   : 	return Py_BuildNone();

  0000b	e9 00 00 00 00	 jmp	 ?Py_BuildNone@@YAPAU_object@@XZ ; Py_BuildNone
?netStartGame@@YAPAU_object@@PAU1@0@Z ENDP		; netStartGame
_TEXT	ENDS
; Function compile flags: /Ogtp
; File E:\Metin2_server\SolWayneSF v6\ClientVS22\source\UserInterface\PythonNetworkStreamModule.cpp
;	COMDAT ?netIsTest@@YAPAU_object@@PAU1@0@Z
_TEXT	SEGMENT
_poSelf$ = 8						; size = 4
_poArgs$ = 12						; size = 4
?netIsTest@@YAPAU_object@@PAU1@0@Z PROC			; netIsTest, COMDAT

; 72   : 	return Py_BuildValue("i", __IS_TEST_SERVER_MODE__);

  00000	0f b6 05 00 00
	00 00		 movzx	 eax, BYTE PTR ?__IS_TEST_SERVER_MODE__@@3_NA ; __IS_TEST_SERVER_MODE__
  00007	50		 push	 eax
  00008	68 00 00 00 00	 push	 OFFSET ??_C@_01KBJDNOO@i@
  0000d	ff 15 00 00 00
	00		 call	 DWORD PTR __imp__Py_BuildValue
  00013	83 c4 08	 add	 esp, 8

; 73   : }

  00016	c3		 ret	 0
?netIsTest@@YAPAU_object@@PAU1@0@Z ENDP			; netIsTest
_TEXT	ENDS
; Function compile flags: /Ogtp
; File E:\Metin2_server\SolWayneSF v6\ClientVS22\source\UserInterface\PythonNetworkStreamModule.cpp
;	COMDAT ?netWarp@@YAPAU_object@@PAU1@0@Z
_TEXT	SEGMENT
_nX$ = -8						; size = 4
_nY$ = -4						; size = 4
_poSelf$ = 8						; size = 4
_poArgs$ = 12						; size = 4
?netWarp@@YAPAU_object@@PAU1@0@Z PROC			; netWarp, COMDAT

; 76   : {

  00000	55		 push	 ebp
  00001	8b ec		 mov	 ebp, esp
  00003	83 ec 08	 sub	 esp, 8

; 77   : 	int nX;
; 78   : 	if (!PyTuple_GetInteger(poArgs, 0, &nX))

  00006	8d 45 f8	 lea	 eax, DWORD PTR _nX$[ebp]
  00009	50		 push	 eax
  0000a	6a 00		 push	 0
  0000c	ff 75 0c	 push	 DWORD PTR _poArgs$[ebp]
  0000f	e8 00 00 00 00	 call	 ?PyTuple_GetInteger@@YA_NPAU_object@@HPAH@Z ; PyTuple_GetInteger
  00014	83 c4 0c	 add	 esp, 12			; 0000000cH
  00017	84 c0		 test	 al, al
  00019	75 0e		 jne	 SHORT $LN2@netWarp
$LN5@netWarp:

; 89   : }

  0001b	6a 00		 push	 0
  0001d	e8 00 00 00 00	 call	 ?Py_BuildException@@YAPAU_object@@PBDZZ ; Py_BuildException
  00022	83 c4 04	 add	 esp, 4
  00025	8b e5		 mov	 esp, ebp
  00027	5d		 pop	 ebp
  00028	c3		 ret	 0
$LN2@netWarp:

; 79   : 		return Py_BuildException();
; 80   : 
; 81   : 	int nY;
; 82   : 	if (!PyTuple_GetInteger(poArgs, 1, &nY))

  00029	8d 45 fc	 lea	 eax, DWORD PTR _nY$[ebp]
  0002c	50		 push	 eax
  0002d	6a 01		 push	 1
  0002f	ff 75 0c	 push	 DWORD PTR _poArgs$[ebp]
  00032	e8 00 00 00 00	 call	 ?PyTuple_GetInteger@@YA_NPAU_object@@HPAH@Z ; PyTuple_GetInteger
  00037	83 c4 0c	 add	 esp, 12			; 0000000cH
  0003a	84 c0		 test	 al, al
  0003c	74 dd		 je	 SHORT $LN5@netWarp

; 83   : 		return Py_BuildException();
; 84   : 
; 85   : 	CPythonNetworkStream& rkNetStream=CPythonNetworkStream::Instance();
; 86   : 	rkNetStream.Warp(nX, nY);

  0003e	ff 75 fc	 push	 DWORD PTR _nY$[ebp]
  00041	8b 0d 00 00 00
	00		 mov	 ecx, DWORD PTR ?ms_singleton@?$CSingleton@VCPythonNetworkStream@@@@0PAVCPythonNetworkStream@@A ; CSingleton<CPythonNetworkStream>::ms_singleton
  00047	ff 75 f8	 push	 DWORD PTR _nX$[ebp]
  0004a	e8 00 00 00 00	 call	 ?Warp@CPythonNetworkStream@@QAEXJJ@Z ; CPythonNetworkStream::Warp

; 87   : 
; 88   : 	return Py_BuildNone();

  0004f	e8 00 00 00 00	 call	 ?Py_BuildNone@@YAPAU_object@@XZ ; Py_BuildNone

; 89   : }

  00054	8b e5		 mov	 esp, ebp
  00056	5d		 pop	 ebp
  00057	c3		 ret	 0
?netWarp@@YAPAU_object@@PAU1@0@Z ENDP			; netWarp
_TEXT	ENDS
; Function compile flags: /Ogtp
; File E:\Metin2_server\SolWayneSF v6\ClientVS22\source\UserInterface\PythonNetworkStreamModule.cpp
;	COMDAT ?netLoadInsultList@@YAPAU_object@@PAU1@0@Z
_TEXT	SEGMENT
_szFileName$ = -4					; size = 4
_poSelf$ = 8						; size = 4
_poArgs$ = 12						; size = 4
?netLoadInsultList@@YAPAU_object@@PAU1@0@Z PROC		; netLoadInsultList, COMDAT

; 92   : {

  00000	55		 push	 ebp
  00001	8b ec		 mov	 ebp, esp
  00003	51		 push	 ecx

; 93   : 	char* szFileName;
; 94   : 	if (!PyTuple_GetString(poArgs, 0, &szFileName))

  00004	8d 45 fc	 lea	 eax, DWORD PTR _szFileName$[ebp]
  00007	50		 push	 eax
  00008	6a 00		 push	 0
  0000a	ff 75 0c	 push	 DWORD PTR _poArgs$[ebp]
  0000d	e8 00 00 00 00	 call	 ?PyTuple_GetString@@YA_NPAU_object@@HPAPAD@Z ; PyTuple_GetString
  00012	83 c4 0c	 add	 esp, 12			; 0000000cH
  00015	84 c0		 test	 al, al
  00017	75 0e		 jne	 SHORT $LN2@netLoadIns

; 95   : 		return Py_BuildException();

  00019	6a 00		 push	 0
  0001b	e8 00 00 00 00	 call	 ?Py_BuildException@@YAPAU_object@@PBDZZ ; Py_BuildException
  00020	83 c4 04	 add	 esp, 4

; 99   : }

  00023	8b e5		 mov	 esp, ebp
  00025	5d		 pop	 ebp
  00026	c3		 ret	 0
$LN2@netLoadIns:

; 96   : 
; 97   : 	CPythonNetworkStream& rkNetStream=CPythonNetworkStream::Instance();
; 98   : 	return Py_BuildValue("i", rkNetStream.LoadInsultList(szFileName));

  00027	ff 75 fc	 push	 DWORD PTR _szFileName$[ebp]
  0002a	8b 0d 00 00 00
	00		 mov	 ecx, DWORD PTR ?ms_singleton@?$CSingleton@VCPythonNetworkStream@@@@0PAVCPythonNetworkStream@@A ; CSingleton<CPythonNetworkStream>::ms_singleton
  00030	e8 00 00 00 00	 call	 ?LoadInsultList@CPythonNetworkStream@@QAE_NPBD@Z ; CPythonNetworkStream::LoadInsultList
  00035	0f b6 c0	 movzx	 eax, al
  00038	50		 push	 eax
  00039	68 00 00 00 00	 push	 OFFSET ??_C@_01KBJDNOO@i@
  0003e	ff 15 00 00 00
	00		 call	 DWORD PTR __imp__Py_BuildValue
  00044	83 c4 08	 add	 esp, 8

; 99   : }

  00047	8b e5		 mov	 esp, ebp
  00049	5d		 pop	 ebp
  0004a	c3		 ret	 0
?netLoadInsultList@@YAPAU_object@@PAU1@0@Z ENDP		; netLoadInsultList
_TEXT	ENDS
; Function compile flags: /Ogtp
; File E:\Metin2_server\SolWayneSF v6\ClientVS22\source\UserInterface\PythonNetworkStreamModule.cpp
;	COMDAT ?netUploadMark@@YAPAU_object@@PAU1@0@Z
_TEXT	SEGMENT
_szFileName$ = -4					; size = 4
_poSelf$ = 8						; size = 4
_poArgs$ = 12						; size = 4
?netUploadMark@@YAPAU_object@@PAU1@0@Z PROC		; netUploadMark, COMDAT

; 102  : {

  00000	55		 push	 ebp
  00001	8b ec		 mov	 ebp, esp
  00003	51		 push	 ecx

; 103  : 	char* szFileName;
; 104  : 	if (!PyTuple_GetString(poArgs, 0, &szFileName))

  00004	8d 45 fc	 lea	 eax, DWORD PTR _szFileName$[ebp]
  00007	50		 push	 eax
  00008	6a 00		 push	 0
  0000a	ff 75 0c	 push	 DWORD PTR _poArgs$[ebp]
  0000d	e8 00 00 00 00	 call	 ?PyTuple_GetString@@YA_NPAU_object@@HPAPAD@Z ; PyTuple_GetString
  00012	83 c4 0c	 add	 esp, 12			; 0000000cH
  00015	84 c0		 test	 al, al
  00017	75 0e		 jne	 SHORT $LN2@netUploadM

; 105  : 		return Py_BuildException();

  00019	6a 00		 push	 0
  0001b	e8 00 00 00 00	 call	 ?Py_BuildException@@YAPAU_object@@PBDZZ ; Py_BuildException
  00020	83 c4 04	 add	 esp, 4

; 109  : }

  00023	8b e5		 mov	 esp, ebp
  00025	5d		 pop	 ebp
  00026	c3		 ret	 0
$LN2@netUploadM:

; 106  : 
; 107  : 	CPythonNetworkStream& rkNetStream=CPythonNetworkStream::Instance();
; 108  : 	return Py_BuildValue("i", rkNetStream.UploadMark(szFileName));

  00027	ff 75 fc	 push	 DWORD PTR _szFileName$[ebp]
  0002a	8b 0d 00 00 00
	00		 mov	 ecx, DWORD PTR ?ms_singleton@?$CSingleton@VCPythonNetworkStream@@@@0PAVCPythonNetworkStream@@A ; CSingleton<CPythonNetworkStream>::ms_singleton
  00030	e8 00 00 00 00	 call	 ?UploadMark@CPythonNetworkStream@@QAEIPBD@Z ; CPythonNetworkStream::UploadMark
  00035	50		 push	 eax
  00036	68 00 00 00 00	 push	 OFFSET ??_C@_01KBJDNOO@i@
  0003b	ff 15 00 00 00
	00		 call	 DWORD PTR __imp__Py_BuildValue
  00041	83 c4 08	 add	 esp, 8

; 109  : }

  00044	8b e5		 mov	 esp, ebp
  00046	5d		 pop	 ebp
  00047	c3		 ret	 0
?netUploadMark@@YAPAU_object@@PAU1@0@Z ENDP		; netUploadMark
_TEXT	ENDS
; Function compile flags: /Ogtp
; File E:\Metin2_server\SolWayneSF v6\ClientVS22\source\UserInterface\PythonNetworkStreamModule.cpp
;	COMDAT ?netUploadSymbol@@YAPAU_object@@PAU1@0@Z
_TEXT	SEGMENT
_szFileName$ = -4					; size = 4
_poSelf$ = 8						; size = 4
_poArgs$ = 12						; size = 4
?netUploadSymbol@@YAPAU_object@@PAU1@0@Z PROC		; netUploadSymbol, COMDAT

; 112  : {

  00000	55		 push	 ebp
  00001	8b ec		 mov	 ebp, esp
  00003	51		 push	 ecx

; 113  : 	char* szFileName;
; 114  : 	if (!PyTuple_GetString(poArgs, 0, &szFileName))

  00004	8d 45 fc	 lea	 eax, DWORD PTR _szFileName$[ebp]
  00007	50		 push	 eax
  00008	6a 00		 push	 0
  0000a	ff 75 0c	 push	 DWORD PTR _poArgs$[ebp]
  0000d	e8 00 00 00 00	 call	 ?PyTuple_GetString@@YA_NPAU_object@@HPAPAD@Z ; PyTuple_GetString
  00012	83 c4 0c	 add	 esp, 12			; 0000000cH
  00015	84 c0		 test	 al, al
  00017	75 0e		 jne	 SHORT $LN2@netUploadS

; 115  : 		return Py_BuildException();

  00019	6a 00		 push	 0
  0001b	e8 00 00 00 00	 call	 ?Py_BuildException@@YAPAU_object@@PBDZZ ; Py_BuildException
  00020	83 c4 04	 add	 esp, 4

; 119  : }

  00023	8b e5		 mov	 esp, ebp
  00025	5d		 pop	 ebp
  00026	c3		 ret	 0
$LN2@netUploadS:

; 116  : 
; 117  : 	CPythonNetworkStream& rkNetStream=CPythonNetworkStream::Instance();
; 118  : 	return Py_BuildValue("i", rkNetStream.UploadSymbol(szFileName));

  00027	ff 75 fc	 push	 DWORD PTR _szFileName$[ebp]
  0002a	8b 0d 00 00 00
	00		 mov	 ecx, DWORD PTR ?ms_singleton@?$CSingleton@VCPythonNetworkStream@@@@0PAVCPythonNetworkStream@@A ; CSingleton<CPythonNetworkStream>::ms_singleton
  00030	e8 00 00 00 00	 call	 ?UploadSymbol@CPythonNetworkStream@@QAEIPBD@Z ; CPythonNetworkStream::UploadSymbol
  00035	50		 push	 eax
  00036	68 00 00 00 00	 push	 OFFSET ??_C@_01KBJDNOO@i@
  0003b	ff 15 00 00 00
	00		 call	 DWORD PTR __imp__Py_BuildValue
  00041	83 c4 08	 add	 esp, 8

; 119  : }

  00044	8b e5		 mov	 esp, ebp
  00046	5d		 pop	 ebp
  00047	c3		 ret	 0
?netUploadSymbol@@YAPAU_object@@PAU1@0@Z ENDP		; netUploadSymbol
_TEXT	ENDS
; Function compile flags: /Ogtp
; File E:\Metin2_server\SolWayneSF v6\ClientVS22\source\UserInterface\PythonNetworkStreamModule.cpp
;	COMDAT ?netGetGuildID@@YAPAU_object@@PAU1@0@Z
_TEXT	SEGMENT
_poSelf$ = 8						; size = 4
_poArgs$ = 12						; size = 4
?netGetGuildID@@YAPAU_object@@PAU1@0@Z PROC		; netGetGuildID, COMDAT

; 123  : 	CPythonNetworkStream& rkNetStream=CPythonNetworkStream::Instance();
; 124  : 	return Py_BuildValue("i", rkNetStream.GetGuildID());

  00000	8b 0d 00 00 00
	00		 mov	 ecx, DWORD PTR ?ms_singleton@?$CSingleton@VCPythonNetworkStream@@@@0PAVCPythonNetworkStream@@A ; CSingleton<CPythonNetworkStream>::ms_singleton
  00006	e8 00 00 00 00	 call	 ?GetGuildID@CPythonNetworkStream@@QAEKXZ ; CPythonNetworkStream::GetGuildID
  0000b	50		 push	 eax
  0000c	68 00 00 00 00	 push	 OFFSET ??_C@_01KBJDNOO@i@
  00011	ff 15 00 00 00
	00		 call	 DWORD PTR __imp__Py_BuildValue
  00017	83 c4 08	 add	 esp, 8

; 125  : }

  0001a	c3		 ret	 0
?netGetGuildID@@YAPAU_object@@PAU1@0@Z ENDP		; netGetGuildID
_TEXT	ENDS
; Function compile flags: /Ogtp
; File E:\Metin2_server\SolWayneSF v6\ClientVS22\source\UserInterface\PythonNetworkStreamModule.cpp
;	COMDAT ?netGetEmpireID@@YAPAU_object@@PAU1@0@Z
_TEXT	SEGMENT
_poSelf$ = 8						; size = 4
_poArgs$ = 12						; size = 4
?netGetEmpireID@@YAPAU_object@@PAU1@0@Z PROC		; netGetEmpireID, COMDAT

; 129  : 	CPythonNetworkStream& rkNetStream=CPythonNetworkStream::Instance();
; 130  : 	return Py_BuildValue("i", rkNetStream.GetEmpireID());

  00000	8b 0d 00 00 00
	00		 mov	 ecx, DWORD PTR ?ms_singleton@?$CSingleton@VCPythonNetworkStream@@@@0PAVCPythonNetworkStream@@A ; CSingleton<CPythonNetworkStream>::ms_singleton
  00006	e8 00 00 00 00	 call	 ?GetEmpireID@CPythonNetworkStream@@QAEKXZ ; CPythonNetworkStream::GetEmpireID
  0000b	50		 push	 eax
  0000c	68 00 00 00 00	 push	 OFFSET ??_C@_01KBJDNOO@i@
  00011	ff 15 00 00 00
	00		 call	 DWORD PTR __imp__Py_BuildValue
  00017	83 c4 08	 add	 esp, 8

; 131  : }

  0001a	c3		 ret	 0
?netGetEmpireID@@YAPAU_object@@PAU1@0@Z ENDP		; netGetEmpireID
_TEXT	ENDS
; Function compile flags: /Ogtp
; File E:\Metin2_server\SolWayneSF v6\ClientVS22\source\UserInterface\PythonNetworkStreamModule.cpp
;	COMDAT ?netGetMainActorVID@@YAPAU_object@@PAU1@0@Z
_TEXT	SEGMENT
_poSelf$ = 8						; size = 4
_poArgs$ = 12						; size = 4
?netGetMainActorVID@@YAPAU_object@@PAU1@0@Z PROC	; netGetMainActorVID, COMDAT

; 135  : 	CPythonNetworkStream& rkNetStream=CPythonNetworkStream::Instance();
; 136  : 	return Py_BuildValue("i", rkNetStream.GetMainActorVID());

  00000	8b 0d 00 00 00
	00		 mov	 ecx, DWORD PTR ?ms_singleton@?$CSingleton@VCPythonNetworkStream@@@@0PAVCPythonNetworkStream@@A ; CSingleton<CPythonNetworkStream>::ms_singleton
  00006	e8 00 00 00 00	 call	 ?GetMainActorVID@CPythonNetworkStream@@QAEKXZ ; CPythonNetworkStream::GetMainActorVID
  0000b	50		 push	 eax
  0000c	68 00 00 00 00	 push	 OFFSET ??_C@_01KBJDNOO@i@
  00011	ff 15 00 00 00
	00		 call	 DWORD PTR __imp__Py_BuildValue
  00017	83 c4 08	 add	 esp, 8

; 137  : }

  0001a	c3		 ret	 0
?netGetMainActorVID@@YAPAU_object@@PAU1@0@Z ENDP	; netGetMainActorVID
_TEXT	ENDS
; Function compile flags: /Ogtp
; File E:\Metin2_server\SolWayneSF v6\ClientVS22\source\UserInterface\PythonNetworkStreamModule.cpp
;	COMDAT ?netGetMainActorRace@@YAPAU_object@@PAU1@0@Z
_TEXT	SEGMENT
_poSelf$ = 8						; size = 4
_poArgs$ = 12						; size = 4
?netGetMainActorRace@@YAPAU_object@@PAU1@0@Z PROC	; netGetMainActorRace, COMDAT

; 141  : 	CPythonNetworkStream& rkNetStream=CPythonNetworkStream::Instance();
; 142  : 	return Py_BuildValue("i", rkNetStream.GetMainActorRace());

  00000	8b 0d 00 00 00
	00		 mov	 ecx, DWORD PTR ?ms_singleton@?$CSingleton@VCPythonNetworkStream@@@@0PAVCPythonNetworkStream@@A ; CSingleton<CPythonNetworkStream>::ms_singleton
  00006	e8 00 00 00 00	 call	 ?GetMainActorRace@CPythonNetworkStream@@QAEKXZ ; CPythonNetworkStream::GetMainActorRace
  0000b	50		 push	 eax
  0000c	68 00 00 00 00	 push	 OFFSET ??_C@_01KBJDNOO@i@
  00011	ff 15 00 00 00
	00		 call	 DWORD PTR __imp__Py_BuildValue
  00017	83 c4 08	 add	 esp, 8

; 143  : }

  0001a	c3		 ret	 0
?netGetMainActorRace@@YAPAU_object@@PAU1@0@Z ENDP	; netGetMainActorRace
_TEXT	ENDS
; Function compile flags: /Ogtp
; File E:\Metin2_server\SolWayneSF v6\ClientVS22\source\UserInterface\PythonNetworkStreamModule.cpp
;	COMDAT ?netGetMainActorEmpire@@YAPAU_object@@PAU1@0@Z
_TEXT	SEGMENT
_poSelf$ = 8						; size = 4
_poArgs$ = 12						; size = 4
?netGetMainActorEmpire@@YAPAU_object@@PAU1@0@Z PROC	; netGetMainActorEmpire, COMDAT

; 147  : 	CPythonNetworkStream& rkNetStream=CPythonNetworkStream::Instance();
; 148  : 	return Py_BuildValue("i", rkNetStream.GetMainActorEmpire());

  00000	8b 0d 00 00 00
	00		 mov	 ecx, DWORD PTR ?ms_singleton@?$CSingleton@VCPythonNetworkStream@@@@0PAVCPythonNetworkStream@@A ; CSingleton<CPythonNetworkStream>::ms_singleton
  00006	e8 00 00 00 00	 call	 ?GetMainActorEmpire@CPythonNetworkStream@@QAEKXZ ; CPythonNetworkStream::GetMainActorEmpire
  0000b	50		 push	 eax
  0000c	68 00 00 00 00	 push	 OFFSET ??_C@_01KBJDNOO@i@
  00011	ff 15 00 00 00
	00		 call	 DWORD PTR __imp__Py_BuildValue
  00017	83 c4 08	 add	 esp, 8

; 149  : }

  0001a	c3		 ret	 0
?netGetMainActorEmpire@@YAPAU_object@@PAU1@0@Z ENDP	; netGetMainActorEmpire
_TEXT	ENDS
; Function compile flags: /Ogtp
; File E:\Metin2_server\SolWayneSF v6\ClientVS22\source\UserInterface\PythonNetworkStreamModule.cpp
;	COMDAT ?netGetMainActorSkillGroup@@YAPAU_object@@PAU1@0@Z
_TEXT	SEGMENT
_poSelf$ = 8						; size = 4
_poArgs$ = 12						; size = 4
?netGetMainActorSkillGroup@@YAPAU_object@@PAU1@0@Z PROC	; netGetMainActorSkillGroup, COMDAT

; 153  : 	CPythonNetworkStream& rkNetStream=CPythonNetworkStream::Instance();
; 154  : 	return Py_BuildValue("i", rkNetStream.GetMainActorSkillGroup());

  00000	8b 0d 00 00 00
	00		 mov	 ecx, DWORD PTR ?ms_singleton@?$CSingleton@VCPythonNetworkStream@@@@0PAVCPythonNetworkStream@@A ; CSingleton<CPythonNetworkStream>::ms_singleton
  00006	e8 00 00 00 00	 call	 ?GetMainActorSkillGroup@CPythonNetworkStream@@QAEKXZ ; CPythonNetworkStream::GetMainActorSkillGroup
  0000b	50		 push	 eax
  0000c	68 00 00 00 00	 push	 OFFSET ??_C@_01KBJDNOO@i@
  00011	ff 15 00 00 00
	00		 call	 DWORD PTR __imp__Py_BuildValue
  00017	83 c4 08	 add	 esp, 8

; 155  : }

  0001a	c3		 ret	 0
?netGetMainActorSkillGroup@@YAPAU_object@@PAU1@0@Z ENDP	; netGetMainActorSkillGroup
_TEXT	ENDS
; Function compile flags: /Ogtp
; File E:\Metin2_server\SolWayneSF v6\ClientVS22\source\UserInterface\PythonNetworkStreamModule.cpp
;	COMDAT ?netGetAccountCharacterSlotDataInteger@@YAPAU_object@@PAU1@0@Z
_TEXT	SEGMENT
_nIndex$ = -8						; size = 4
_nType$ = -4						; size = 4
_poSelf$ = 8						; size = 4
_poArgs$ = 12						; size = 4
?netGetAccountCharacterSlotDataInteger@@YAPAU_object@@PAU1@0@Z PROC ; netGetAccountCharacterSlotDataInteger, COMDAT

; 165  : {

  00000	55		 push	 ebp
  00001	8b ec		 mov	 ebp, esp
  00003	83 ec 08	 sub	 esp, 8

; 166  : 	int nIndex;
; 167  : 	if (!PyTuple_GetInteger(poArgs, 0, &nIndex))

  00006	8d 45 f8	 lea	 eax, DWORD PTR _nIndex$[ebp]
  00009	50		 push	 eax
  0000a	6a 00		 push	 0
  0000c	ff 75 0c	 push	 DWORD PTR _poArgs$[ebp]
  0000f	e8 00 00 00 00	 call	 ?PyTuple_GetInteger@@YA_NPAU_object@@HPAH@Z ; PyTuple_GetInteger
  00014	83 c4 0c	 add	 esp, 12			; 0000000cH
  00017	84 c0		 test	 al, al
  00019	75 0e		 jne	 SHORT $LN2@netGetAcco
$LN5@netGetAcco:

; 177  : }

  0001b	6a 00		 push	 0
  0001d	e8 00 00 00 00	 call	 ?Py_BuildException@@YAPAU_object@@PBDZZ ; Py_BuildException
  00022	83 c4 04	 add	 esp, 4
  00025	8b e5		 mov	 esp, ebp
  00027	5d		 pop	 ebp
  00028	c3		 ret	 0
$LN2@netGetAcco:

; 168  : 		return Py_BuildException();
; 169  : 
; 170  : 	int nType;
; 171  : 	if (!PyTuple_GetInteger(poArgs, 1, &nType))

  00029	8d 45 fc	 lea	 eax, DWORD PTR _nType$[ebp]
  0002c	50		 push	 eax
  0002d	6a 01		 push	 1
  0002f	ff 75 0c	 push	 DWORD PTR _poArgs$[ebp]
  00032	e8 00 00 00 00	 call	 ?PyTuple_GetInteger@@YA_NPAU_object@@HPAH@Z ; PyTuple_GetInteger
  00037	83 c4 0c	 add	 esp, 12			; 0000000cH
  0003a	84 c0		 test	 al, al
  0003c	74 dd		 je	 SHORT $LN5@netGetAcco

; 172  : 		return Py_BuildException();
; 173  : 
; 174  : 	CPythonNetworkStream& rkNetStream=CPythonNetworkStream::Instance();
; 175  : 	UINT uResult=rkNetStream.GetAccountCharacterSlotDatau(nIndex, nType);

  0003e	ff 75 fc	 push	 DWORD PTR _nType$[ebp]
  00041	8b 0d 00 00 00
	00		 mov	 ecx, DWORD PTR ?ms_singleton@?$CSingleton@VCPythonNetworkStream@@@@0PAVCPythonNetworkStream@@A ; CSingleton<CPythonNetworkStream>::ms_singleton
  00047	ff 75 f8	 push	 DWORD PTR _nIndex$[ebp]
  0004a	e8 00 00 00 00	 call	 ?GetAccountCharacterSlotDatau@CPythonNetworkStream@@QAEIII@Z ; CPythonNetworkStream::GetAccountCharacterSlotDatau

; 176  : 	return Py_BuildValue("i", uResult);

  0004f	50		 push	 eax
  00050	68 00 00 00 00	 push	 OFFSET ??_C@_01KBJDNOO@i@
  00055	ff 15 00 00 00
	00		 call	 DWORD PTR __imp__Py_BuildValue
  0005b	83 c4 08	 add	 esp, 8

; 177  : }

  0005e	8b e5		 mov	 esp, ebp
  00060	5d		 pop	 ebp
  00061	c3		 ret	 0
?netGetAccountCharacterSlotDataInteger@@YAPAU_object@@PAU1@0@Z ENDP ; netGetAccountCharacterSlotDataInteger
_TEXT	ENDS
; Function compile flags: /Ogtp
; File E:\Metin2_server\SolWayneSF v6\ClientVS22\source\UserInterface\PythonNetworkStreamModule.cpp
;	COMDAT ?netGetAccountCharacterSlotDataString@@YAPAU_object@@PAU1@0@Z
_TEXT	SEGMENT
_nIndex$ = -8						; size = 4
_nType$ = -4						; size = 4
_poSelf$ = 8						; size = 4
_poArgs$ = 12						; size = 4
?netGetAccountCharacterSlotDataString@@YAPAU_object@@PAU1@0@Z PROC ; netGetAccountCharacterSlotDataString, COMDAT

; 180  : {

  00000	55		 push	 ebp
  00001	8b ec		 mov	 ebp, esp
  00003	83 ec 08	 sub	 esp, 8

; 181  : 	int nIndex;
; 182  : 	if (!PyTuple_GetInteger(poArgs, 0, &nIndex))

  00006	8d 45 f8	 lea	 eax, DWORD PTR _nIndex$[ebp]
  00009	50		 push	 eax
  0000a	6a 00		 push	 0
  0000c	ff 75 0c	 push	 DWORD PTR _poArgs$[ebp]
  0000f	e8 00 00 00 00	 call	 ?PyTuple_GetInteger@@YA_NPAU_object@@HPAH@Z ; PyTuple_GetInteger
  00014	83 c4 0c	 add	 esp, 12			; 0000000cH
  00017	84 c0		 test	 al, al
  00019	75 0e		 jne	 SHORT $LN2@netGetAcco
$LN5@netGetAcco:

; 191  : }

  0001b	6a 00		 push	 0
  0001d	e8 00 00 00 00	 call	 ?Py_BuildException@@YAPAU_object@@PBDZZ ; Py_BuildException
  00022	83 c4 04	 add	 esp, 4
  00025	8b e5		 mov	 esp, ebp
  00027	5d		 pop	 ebp
  00028	c3		 ret	 0
$LN2@netGetAcco:

; 183  : 		return Py_BuildException();
; 184  : 
; 185  : 	int nType;
; 186  : 	if (!PyTuple_GetInteger(poArgs, 1, &nType))

  00029	8d 45 fc	 lea	 eax, DWORD PTR _nType$[ebp]
  0002c	50		 push	 eax
  0002d	6a 01		 push	 1
  0002f	ff 75 0c	 push	 DWORD PTR _poArgs$[ebp]
  00032	e8 00 00 00 00	 call	 ?PyTuple_GetInteger@@YA_NPAU_object@@HPAH@Z ; PyTuple_GetInteger
  00037	83 c4 0c	 add	 esp, 12			; 0000000cH
  0003a	84 c0		 test	 al, al
  0003c	74 dd		 je	 SHORT $LN5@netGetAcco

; 187  : 		return Py_BuildException();
; 188  : 
; 189  : 	CPythonNetworkStream& rkNetStream=CPythonNetworkStream::Instance();
; 190  : 	return Py_BuildValue("s", rkNetStream.GetAccountCharacterSlotDataz(nIndex, nType));

  0003e	ff 75 fc	 push	 DWORD PTR _nType$[ebp]
  00041	8b 0d 00 00 00
	00		 mov	 ecx, DWORD PTR ?ms_singleton@?$CSingleton@VCPythonNetworkStream@@@@0PAVCPythonNetworkStream@@A ; CSingleton<CPythonNetworkStream>::ms_singleton
  00047	ff 75 f8	 push	 DWORD PTR _nIndex$[ebp]
  0004a	e8 00 00 00 00	 call	 ?GetAccountCharacterSlotDataz@CPythonNetworkStream@@QAEPBDII@Z ; CPythonNetworkStream::GetAccountCharacterSlotDataz
  0004f	50		 push	 eax
  00050	68 00 00 00 00	 push	 OFFSET ??_C@_01LKDEMHDF@s@
  00055	ff 15 00 00 00
	00		 call	 DWORD PTR __imp__Py_BuildValue
  0005b	83 c4 08	 add	 esp, 8

; 191  : }

  0005e	8b e5		 mov	 esp, ebp
  00060	5d		 pop	 ebp
  00061	c3		 ret	 0
?netGetAccountCharacterSlotDataString@@YAPAU_object@@PAU1@0@Z ENDP ; netGetAccountCharacterSlotDataString
_TEXT	ENDS
; Function compile flags: /Ogtp
; File E:\Metin2_server\SolWayneSF v6\ClientVS22\source\UserInterface\PythonNetworkStreamModule.cpp
;	COMDAT ?netGetFieldMusicFileName@@YAPAU_object@@PAU1@0@Z
_TEXT	SEGMENT
_poSelf$ = 8						; size = 4
_poArgs$ = 12						; size = 4
?netGetFieldMusicFileName@@YAPAU_object@@PAU1@0@Z PROC	; netGetFieldMusicFileName, COMDAT

; 196  : 	CPythonNetworkStream& rkNetStream=CPythonNetworkStream::Instance();
; 197  : 	return Py_BuildValue("s", rkNetStream.GetFieldMusicFileName());

  00000	e8 00 00 00 00	 call	 ?GetFieldMusicFileName@CPythonNetworkStream@@QAEPBDXZ ; CPythonNetworkStream::GetFieldMusicFileName
  00005	50		 push	 eax
  00006	68 00 00 00 00	 push	 OFFSET ??_C@_01LKDEMHDF@s@
  0000b	ff 15 00 00 00
	00		 call	 DWORD PTR __imp__Py_BuildValue
  00011	83 c4 08	 add	 esp, 8

; 198  : }

  00014	c3		 ret	 0
?netGetFieldMusicFileName@@YAPAU_object@@PAU1@0@Z ENDP	; netGetFieldMusicFileName
_TEXT	ENDS
; Function compile flags: /Ogtp
; File E:\Metin2_server\SolWayneSF v6\ClientVS22\source\UserInterface\PythonNetworkStreamModule.cpp
;	COMDAT ?netGetFieldMusicVolume@@YAPAU_object@@PAU1@0@Z
_TEXT	SEGMENT
_poSelf$ = 8						; size = 4
_poArgs$ = 12						; size = 4
?netGetFieldMusicVolume@@YAPAU_object@@PAU1@0@Z PROC	; netGetFieldMusicVolume, COMDAT

; 202  : 	CPythonNetworkStream& rkNetStream=CPythonNetworkStream::Instance();
; 203  : 	return Py_BuildValue("f", rkNetStream.GetFieldMusicVolume());

  00000	e8 00 00 00 00	 call	 ?GetFieldMusicVolume@CPythonNetworkStream@@QAEMXZ ; CPythonNetworkStream::GetFieldMusicVolume
  00005	f3 0f 5a c0	 cvtss2sd xmm0, xmm0
  00009	83 ec 08	 sub	 esp, 8
  0000c	f2 0f 11 04 24	 movsd	 QWORD PTR [esp], xmm0
  00011	68 00 00 00 00	 push	 OFFSET ??_C@_01INIBCBCB@f@
  00016	ff 15 00 00 00
	00		 call	 DWORD PTR __imp__Py_BuildValue
  0001c	83 c4 0c	 add	 esp, 12			; 0000000cH

; 204  : }

  0001f	c3		 ret	 0
?netGetFieldMusicVolume@@YAPAU_object@@PAU1@0@Z ENDP	; netGetFieldMusicVolume
_TEXT	ENDS
; Function compile flags: /Ogtp
; File E:\Metin2_server\SolWayneSF v6\ClientVS22\source\UserInterface\PythonNetworkStreamModule.cpp
;	COMDAT ?netSetPhaseWindow@@YAPAU_object@@PAU1@0@Z
_TEXT	SEGMENT
_ePhaseWnd$ = -8					; size = 4
_poPhaseWnd$ = -4					; size = 4
_poSelf$ = 8						; size = 4
_poArgs$ = 12						; size = 4
?netSetPhaseWindow@@YAPAU_object@@PAU1@0@Z PROC		; netSetPhaseWindow, COMDAT

; 208  : {

  00000	55		 push	 ebp
  00001	8b ec		 mov	 ebp, esp
  00003	83 ec 08	 sub	 esp, 8

; 209  : 	int ePhaseWnd;
; 210  : 	if (!PyTuple_GetInteger(poArgs, 0, &ePhaseWnd))

  00006	8d 45 f8	 lea	 eax, DWORD PTR _ePhaseWnd$[ebp]
  00009	50		 push	 eax
  0000a	6a 00		 push	 0
  0000c	ff 75 0c	 push	 DWORD PTR _poArgs$[ebp]
  0000f	e8 00 00 00 00	 call	 ?PyTuple_GetInteger@@YA_NPAU_object@@HPAH@Z ; PyTuple_GetInteger
  00014	83 c4 0c	 add	 esp, 12			; 0000000cH
  00017	84 c0		 test	 al, al
  00019	75 0e		 jne	 SHORT $LN2@netSetPhas
$LN5@netSetPhas:

; 220  : }

  0001b	6a 00		 push	 0
  0001d	e8 00 00 00 00	 call	 ?Py_BuildException@@YAPAU_object@@PBDZZ ; Py_BuildException
  00022	83 c4 04	 add	 esp, 4
  00025	8b e5		 mov	 esp, ebp
  00027	5d		 pop	 ebp
  00028	c3		 ret	 0
$LN2@netSetPhas:

; 211  : 		return Py_BuildException();
; 212  : 
; 213  : 	PyObject* poPhaseWnd;
; 214  : 	if (!PyTuple_GetObject(poArgs, 1, &poPhaseWnd))

  00029	8d 45 fc	 lea	 eax, DWORD PTR _poPhaseWnd$[ebp]
  0002c	50		 push	 eax
  0002d	6a 01		 push	 1
  0002f	ff 75 0c	 push	 DWORD PTR _poArgs$[ebp]
  00032	e8 00 00 00 00	 call	 ?PyTuple_GetObject@@YA_NPAU_object@@HPAPAU1@@Z ; PyTuple_GetObject
  00037	83 c4 0c	 add	 esp, 12			; 0000000cH
  0003a	84 c0		 test	 al, al
  0003c	74 dd		 je	 SHORT $LN5@netSetPhas

; 215  : 		return Py_BuildException();
; 216  : 
; 217  : 	CPythonNetworkStream& rkNetStream=CPythonNetworkStream::Instance();
; 218  : 	rkNetStream.SetPhaseWindow(ePhaseWnd, poPhaseWnd);

  0003e	ff 75 fc	 push	 DWORD PTR _poPhaseWnd$[ebp]
  00041	8b 0d 00 00 00
	00		 mov	 ecx, DWORD PTR ?ms_singleton@?$CSingleton@VCPythonNetworkStream@@@@0PAVCPythonNetworkStream@@A ; CSingleton<CPythonNetworkStream>::ms_singleton
  00047	ff 75 f8	 push	 DWORD PTR _ePhaseWnd$[ebp]
  0004a	e8 00 00 00 00	 call	 ?SetPhaseWindow@CPythonNetworkStream@@QAEXIPAU_object@@@Z ; CPythonNetworkStream::SetPhaseWindow

; 219  : 	return Py_BuildNone();

  0004f	e8 00 00 00 00	 call	 ?Py_BuildNone@@YAPAU_object@@XZ ; Py_BuildNone

; 220  : }

  00054	8b e5		 mov	 esp, ebp
  00056	5d		 pop	 ebp
  00057	c3		 ret	 0
?netSetPhaseWindow@@YAPAU_object@@PAU1@0@Z ENDP		; netSetPhaseWindow
_TEXT	ENDS
; Function compile flags: /Ogtp
; File E:\Metin2_server\SolWayneSF v6\ClientVS22\source\UserInterface\PythonNetworkStreamModule.cpp
;	COMDAT ?netClearPhaseWindow@@YAPAU_object@@PAU1@0@Z
_TEXT	SEGMENT
_ePhaseWnd$ = -8					; size = 4
_poPhaseWnd$ = -4					; size = 4
_poSelf$ = 8						; size = 4
_poArgs$ = 12						; size = 4
?netClearPhaseWindow@@YAPAU_object@@PAU1@0@Z PROC	; netClearPhaseWindow, COMDAT

; 223  : {

  00000	55		 push	 ebp
  00001	8b ec		 mov	 ebp, esp
  00003	83 ec 08	 sub	 esp, 8

; 224  : 	int ePhaseWnd;
; 225  : 	if (!PyTuple_GetInteger(poArgs, 0, &ePhaseWnd))

  00006	8d 45 f8	 lea	 eax, DWORD PTR _ePhaseWnd$[ebp]
  00009	50		 push	 eax
  0000a	6a 00		 push	 0
  0000c	ff 75 0c	 push	 DWORD PTR _poArgs$[ebp]
  0000f	e8 00 00 00 00	 call	 ?PyTuple_GetInteger@@YA_NPAU_object@@HPAH@Z ; PyTuple_GetInteger
  00014	83 c4 0c	 add	 esp, 12			; 0000000cH
  00017	84 c0		 test	 al, al
  00019	75 0e		 jne	 SHORT $LN2@netClearPh
$LN5@netClearPh:

; 235  : }

  0001b	6a 00		 push	 0
  0001d	e8 00 00 00 00	 call	 ?Py_BuildException@@YAPAU_object@@PBDZZ ; Py_BuildException
  00022	83 c4 04	 add	 esp, 4
  00025	8b e5		 mov	 esp, ebp
  00027	5d		 pop	 ebp
  00028	c3		 ret	 0
$LN2@netClearPh:

; 226  : 		return Py_BuildException();
; 227  : 
; 228  : 	PyObject* poPhaseWnd;
; 229  : 	if (!PyTuple_GetObject(poArgs, 1, &poPhaseWnd))

  00029	8d 45 fc	 lea	 eax, DWORD PTR _poPhaseWnd$[ebp]
  0002c	50		 push	 eax
  0002d	6a 01		 push	 1
  0002f	ff 75 0c	 push	 DWORD PTR _poArgs$[ebp]
  00032	e8 00 00 00 00	 call	 ?PyTuple_GetObject@@YA_NPAU_object@@HPAPAU1@@Z ; PyTuple_GetObject
  00037	83 c4 0c	 add	 esp, 12			; 0000000cH
  0003a	84 c0		 test	 al, al
  0003c	74 dd		 je	 SHORT $LN5@netClearPh

; 230  : 		return Py_BuildException();
; 231  : 
; 232  : 	CPythonNetworkStream& rkNetStream=CPythonNetworkStream::Instance();
; 233  : 	rkNetStream.ClearPhaseWindow(ePhaseWnd, poPhaseWnd);

  0003e	ff 75 fc	 push	 DWORD PTR _poPhaseWnd$[ebp]
  00041	8b 0d 00 00 00
	00		 mov	 ecx, DWORD PTR ?ms_singleton@?$CSingleton@VCPythonNetworkStream@@@@0PAVCPythonNetworkStream@@A ; CSingleton<CPythonNetworkStream>::ms_singleton
  00047	ff 75 f8	 push	 DWORD PTR _ePhaseWnd$[ebp]
  0004a	e8 00 00 00 00	 call	 ?ClearPhaseWindow@CPythonNetworkStream@@QAEXIPAU_object@@@Z ; CPythonNetworkStream::ClearPhaseWindow

; 234  : 	return Py_BuildNone();

  0004f	e8 00 00 00 00	 call	 ?Py_BuildNone@@YAPAU_object@@XZ ; Py_BuildNone

; 235  : }

  00054	8b e5		 mov	 esp, ebp
  00056	5d		 pop	 ebp
  00057	c3		 ret	 0
?netClearPhaseWindow@@YAPAU_object@@PAU1@0@Z ENDP	; netClearPhaseWindow
_TEXT	ENDS
; Function compile flags: /Ogtp
; File E:\Metin2_server\SolWayneSF v6\ClientVS22\source\UserInterface\PythonNetworkStreamModule.cpp
;	COMDAT ?netSetServerCommandParserWindow@@YAPAU_object@@PAU1@0@Z
_TEXT	SEGMENT
_poPhaseWnd$ = -4					; size = 4
_poSelf$ = 8						; size = 4
_poArgs$ = 12						; size = 4
?netSetServerCommandParserWindow@@YAPAU_object@@PAU1@0@Z PROC ; netSetServerCommandParserWindow, COMDAT

; 238  : {

  00000	55		 push	 ebp
  00001	8b ec		 mov	 ebp, esp
  00003	51		 push	 ecx

; 239  : 	PyObject* poPhaseWnd;
; 240  : 	if (!PyTuple_GetObject(poArgs, 0, &poPhaseWnd))

  00004	8d 45 fc	 lea	 eax, DWORD PTR _poPhaseWnd$[ebp]
  00007	50		 push	 eax
  00008	6a 00		 push	 0
  0000a	ff 75 0c	 push	 DWORD PTR _poArgs$[ebp]
  0000d	e8 00 00 00 00	 call	 ?PyTuple_GetObject@@YA_NPAU_object@@HPAPAU1@@Z ; PyTuple_GetObject
  00012	83 c4 0c	 add	 esp, 12			; 0000000cH
  00015	84 c0		 test	 al, al
  00017	75 0e		 jne	 SHORT $LN2@netSetServ

; 241  : 		return Py_BuildException();

  00019	6a 00		 push	 0
  0001b	e8 00 00 00 00	 call	 ?Py_BuildException@@YAPAU_object@@PBDZZ ; Py_BuildException
  00020	83 c4 04	 add	 esp, 4

; 246  : }

  00023	8b e5		 mov	 esp, ebp
  00025	5d		 pop	 ebp
  00026	c3		 ret	 0
$LN2@netSetServ:

; 242  : 
; 243  : 	CPythonNetworkStream& rkNetStream=CPythonNetworkStream::Instance();
; 244  : 	rkNetStream.SetServerCommandParserWindow(poPhaseWnd);

  00027	ff 75 fc	 push	 DWORD PTR _poPhaseWnd$[ebp]
  0002a	8b 0d 00 00 00
	00		 mov	 ecx, DWORD PTR ?ms_singleton@?$CSingleton@VCPythonNetworkStream@@@@0PAVCPythonNetworkStream@@A ; CSingleton<CPythonNetworkStream>::ms_singleton
  00030	e8 00 00 00 00	 call	 ?SetServerCommandParserWindow@CPythonNetworkStream@@QAEXPAU_object@@@Z ; CPythonNetworkStream::SetServerCommandParserWindow

; 245  : 	return Py_BuildNone();

  00035	e8 00 00 00 00	 call	 ?Py_BuildNone@@YAPAU_object@@XZ ; Py_BuildNone

; 246  : }

  0003a	8b e5		 mov	 esp, ebp
  0003c	5d		 pop	 ebp
  0003d	c3		 ret	 0
?netSetServerCommandParserWindow@@YAPAU_object@@PAU1@0@Z ENDP ; netSetServerCommandParserWindow
_TEXT	ENDS
; Function compile flags: /Ogtp
; File E:\Metin2_server\SolWayneSF v6\ClientVS22\source\UserInterface\PythonNetworkStreamModule.cpp
;	COMDAT ?netSetAccountConnectorHandler@@YAPAU_object@@PAU1@0@Z
_TEXT	SEGMENT
_poPhaseWnd$ = -4					; size = 4
_poSelf$ = 8						; size = 4
_poArgs$ = 12						; size = 4
?netSetAccountConnectorHandler@@YAPAU_object@@PAU1@0@Z PROC ; netSetAccountConnectorHandler, COMDAT

; 249  : {

  00000	55		 push	 ebp
  00001	8b ec		 mov	 ebp, esp
  00003	51		 push	 ecx

; 250  : 	PyObject* poPhaseWnd;
; 251  : 	if (!PyTuple_GetObject(poArgs, 0, &poPhaseWnd))

  00004	8d 45 fc	 lea	 eax, DWORD PTR _poPhaseWnd$[ebp]
  00007	50		 push	 eax
  00008	6a 00		 push	 0
  0000a	ff 75 0c	 push	 DWORD PTR _poArgs$[ebp]
  0000d	e8 00 00 00 00	 call	 ?PyTuple_GetObject@@YA_NPAU_object@@HPAPAU1@@Z ; PyTuple_GetObject
  00012	83 c4 0c	 add	 esp, 12			; 0000000cH
  00015	84 c0		 test	 al, al
  00017	75 0e		 jne	 SHORT $LN2@netSetAcco

; 252  : 		return Py_BuildException();

  00019	6a 00		 push	 0
  0001b	e8 00 00 00 00	 call	 ?Py_BuildException@@YAPAU_object@@PBDZZ ; Py_BuildException
  00020	83 c4 04	 add	 esp, 4

; 257  : }

  00023	8b e5		 mov	 esp, ebp
  00025	5d		 pop	 ebp
  00026	c3		 ret	 0
$LN2@netSetAcco:

; 253  : 
; 254  : 	CAccountConnector & rkAccountConnector = CAccountConnector::Instance();
; 255  : 	rkAccountConnector.SetHandler(poPhaseWnd);

  00027	ff 75 fc	 push	 DWORD PTR _poPhaseWnd$[ebp]
  0002a	8b 0d 00 00 00
	00		 mov	 ecx, DWORD PTR ?ms_singleton@?$CSingleton@VCAccountConnector@@@@0PAVCAccountConnector@@A ; CSingleton<CAccountConnector>::ms_singleton
  00030	e8 00 00 00 00	 call	 ?SetHandler@CAccountConnector@@QAEXPAU_object@@@Z ; CAccountConnector::SetHandler

; 256  : 	return Py_BuildNone();

  00035	e8 00 00 00 00	 call	 ?Py_BuildNone@@YAPAU_object@@XZ ; Py_BuildNone

; 257  : }

  0003a	8b e5		 mov	 esp, ebp
  0003c	5d		 pop	 ebp
  0003d	c3		 ret	 0
?netSetAccountConnectorHandler@@YAPAU_object@@PAU1@0@Z ENDP ; netSetAccountConnectorHandler
_TEXT	ENDS
; Function compile flags: /Ogtp
; File E:\Metin2_server\SolWayneSF v6\ClientVS22\source\UserInterface\PythonNetworkStreamModule.cpp
;	COMDAT ?netSetHandler@@YAPAU_object@@PAU1@0@Z
_TEXT	SEGMENT
_poHandler$ = -4					; size = 4
_poSelf$ = 8						; size = 4
_poArgs$ = 12						; size = 4
?netSetHandler@@YAPAU_object@@PAU1@0@Z PROC		; netSetHandler, COMDAT

; 260  : {

  00000	55		 push	 ebp
  00001	8b ec		 mov	 ebp, esp
  00003	51		 push	 ecx

; 261  : 	PyObject* poHandler;
; 262  : 
; 263  : 	if (!PyTuple_GetObject(poArgs, 0, &poHandler))

  00004	8d 45 fc	 lea	 eax, DWORD PTR _poHandler$[ebp]
  00007	50		 push	 eax
  00008	6a 00		 push	 0
  0000a	ff 75 0c	 push	 DWORD PTR _poArgs$[ebp]
  0000d	e8 00 00 00 00	 call	 ?PyTuple_GetObject@@YA_NPAU_object@@HPAPAU1@@Z ; PyTuple_GetObject
  00012	83 c4 0c	 add	 esp, 12			; 0000000cH
  00015	84 c0		 test	 al, al
  00017	75 0e		 jne	 SHORT $LN2@netSetHand

; 264  : 		return Py_BuildException();

  00019	6a 00		 push	 0
  0001b	e8 00 00 00 00	 call	 ?Py_BuildException@@YAPAU_object@@PBDZZ ; Py_BuildException
  00020	83 c4 04	 add	 esp, 4

; 269  : }

  00023	8b e5		 mov	 esp, ebp
  00025	5d		 pop	 ebp
  00026	c3		 ret	 0
$LN2@netSetHand:

; 265  : 
; 266  : 	CPythonNetworkStream& rkNetStream=CPythonNetworkStream::Instance();
; 267  : 	rkNetStream.SetHandler(poHandler);

  00027	ff 75 fc	 push	 DWORD PTR _poHandler$[ebp]
  0002a	8b 0d 00 00 00
	00		 mov	 ecx, DWORD PTR ?ms_singleton@?$CSingleton@VCPythonNetworkStream@@@@0PAVCPythonNetworkStream@@A ; CSingleton<CPythonNetworkStream>::ms_singleton
  00030	e8 00 00 00 00	 call	 ?SetHandler@CPythonNetworkStream@@QAEXPAU_object@@@Z ; CPythonNetworkStream::SetHandler

; 268  : 	return Py_BuildNone();

  00035	e8 00 00 00 00	 call	 ?Py_BuildNone@@YAPAU_object@@XZ ; Py_BuildNone

; 269  : }

  0003a	8b e5		 mov	 esp, ebp
  0003c	5d		 pop	 ebp
  0003d	c3		 ret	 0
?netSetHandler@@YAPAU_object@@PAU1@0@Z ENDP		; netSetHandler
_TEXT	ENDS
; Function compile flags: /Ogtp
; File E:\Metin2_server\SolWayneSF v6\ClientVS22\source\UserInterface\PythonNetworkStreamModule.cpp
;	COMDAT ?netSetTCPRecvBufferSize@@YAPAU_object@@PAU1@0@Z
_TEXT	SEGMENT
_bufSize$ = -4						; size = 4
_poSelf$ = 8						; size = 4
_poArgs$ = 12						; size = 4
?netSetTCPRecvBufferSize@@YAPAU_object@@PAU1@0@Z PROC	; netSetTCPRecvBufferSize, COMDAT

; 272  : {

  00000	55		 push	 ebp
  00001	8b ec		 mov	 ebp, esp
  00003	51		 push	 ecx

; 273  : 	int bufSize;
; 274  : 	if (!PyTuple_GetInteger(poArgs, 0, &bufSize))

  00004	8d 45 fc	 lea	 eax, DWORD PTR _bufSize$[ebp]
  00007	50		 push	 eax
  00008	6a 00		 push	 0
  0000a	ff 75 0c	 push	 DWORD PTR _poArgs$[ebp]
  0000d	e8 00 00 00 00	 call	 ?PyTuple_GetInteger@@YA_NPAU_object@@HPAH@Z ; PyTuple_GetInteger
  00012	83 c4 0c	 add	 esp, 12			; 0000000cH
  00015	84 c0		 test	 al, al
  00017	75 0e		 jne	 SHORT $LN2@netSetTCPR

; 275  : 		return Py_BuildException();

  00019	6a 00		 push	 0
  0001b	e8 00 00 00 00	 call	 ?Py_BuildException@@YAPAU_object@@PBDZZ ; Py_BuildException
  00020	83 c4 04	 add	 esp, 4

; 280  : }

  00023	8b e5		 mov	 esp, ebp
  00025	5d		 pop	 ebp
  00026	c3		 ret	 0
$LN2@netSetTCPR:

; 276  : 
; 277  : 	CPythonNetworkStream& rkNetStream=CPythonNetworkStream::Instance();
; 278  : 	rkNetStream.SetRecvBufferSize(bufSize);

  00027	ff 75 fc	 push	 DWORD PTR _bufSize$[ebp]
  0002a	8b 0d 00 00 00
	00		 mov	 ecx, DWORD PTR ?ms_singleton@?$CSingleton@VCPythonNetworkStream@@@@0PAVCPythonNetworkStream@@A ; CSingleton<CPythonNetworkStream>::ms_singleton
  00030	e8 00 00 00 00	 call	 ?SetRecvBufferSize@CNetworkStream@@QAEXH@Z ; CNetworkStream::SetRecvBufferSize

; 279  : 	return Py_BuildNone();

  00035	e8 00 00 00 00	 call	 ?Py_BuildNone@@YAPAU_object@@XZ ; Py_BuildNone

; 280  : }

  0003a	8b e5		 mov	 esp, ebp
  0003c	5d		 pop	 ebp
  0003d	c3		 ret	 0
?netSetTCPRecvBufferSize@@YAPAU_object@@PAU1@0@Z ENDP	; netSetTCPRecvBufferSize
_TEXT	ENDS
; Function compile flags: /Ogtp
; File E:\Metin2_server\SolWayneSF v6\ClientVS22\source\UserInterface\PythonNetworkStreamModule.cpp
;	COMDAT ?netSetTCPSendBufferSize@@YAPAU_object@@PAU1@0@Z
_TEXT	SEGMENT
_bufSize$ = -4						; size = 4
_poSelf$ = 8						; size = 4
_poArgs$ = 12						; size = 4
?netSetTCPSendBufferSize@@YAPAU_object@@PAU1@0@Z PROC	; netSetTCPSendBufferSize, COMDAT

; 283  : {

  00000	55		 push	 ebp
  00001	8b ec		 mov	 ebp, esp
  00003	51		 push	 ecx

; 284  : 	int bufSize;
; 285  : 	if (!PyTuple_GetInteger(poArgs, 0, &bufSize))

  00004	8d 45 fc	 lea	 eax, DWORD PTR _bufSize$[ebp]
  00007	50		 push	 eax
  00008	6a 00		 push	 0
  0000a	ff 75 0c	 push	 DWORD PTR _poArgs$[ebp]
  0000d	e8 00 00 00 00	 call	 ?PyTuple_GetInteger@@YA_NPAU_object@@HPAH@Z ; PyTuple_GetInteger
  00012	83 c4 0c	 add	 esp, 12			; 0000000cH
  00015	84 c0		 test	 al, al
  00017	75 0e		 jne	 SHORT $LN2@netSetTCPS

; 286  : 		return Py_BuildException();

  00019	6a 00		 push	 0
  0001b	e8 00 00 00 00	 call	 ?Py_BuildException@@YAPAU_object@@PBDZZ ; Py_BuildException
  00020	83 c4 04	 add	 esp, 4

; 291  : }

  00023	8b e5		 mov	 esp, ebp
  00025	5d		 pop	 ebp
  00026	c3		 ret	 0
$LN2@netSetTCPS:

; 287  : 
; 288  : 	CPythonNetworkStream& rkNetStream=CPythonNetworkStream::Instance();
; 289  : 	rkNetStream.SetSendBufferSize(bufSize);

  00027	ff 75 fc	 push	 DWORD PTR _bufSize$[ebp]
  0002a	8b 0d 00 00 00
	00		 mov	 ecx, DWORD PTR ?ms_singleton@?$CSingleton@VCPythonNetworkStream@@@@0PAVCPythonNetworkStream@@A ; CSingleton<CPythonNetworkStream>::ms_singleton
  00030	e8 00 00 00 00	 call	 ?SetSendBufferSize@CNetworkStream@@QAEXH@Z ; CNetworkStream::SetSendBufferSize

; 290  : 	return Py_BuildNone();

  00035	e8 00 00 00 00	 call	 ?Py_BuildNone@@YAPAU_object@@XZ ; Py_BuildNone

; 291  : }

  0003a	8b e5		 mov	 esp, ebp
  0003c	5d		 pop	 ebp
  0003d	c3		 ret	 0
?netSetTCPSendBufferSize@@YAPAU_object@@PAU1@0@Z ENDP	; netSetTCPSendBufferSize
_TEXT	ENDS
; Function compile flags: /Ogtp
; File E:\Metin2_server\SolWayneSF v6\ClientVS22\source\UserInterface\PythonNetworkStreamModule.cpp
;	COMDAT ?netSetUDPRecvBufferSize@@YAPAU_object@@PAU1@0@Z
_TEXT	SEGMENT
_bufSize$ = -4						; size = 4
_poSelf$ = 8						; size = 4
_poArgs$ = 12						; size = 4
?netSetUDPRecvBufferSize@@YAPAU_object@@PAU1@0@Z PROC	; netSetUDPRecvBufferSize, COMDAT

; 294  : {

  00000	55		 push	 ebp
  00001	8b ec		 mov	 ebp, esp
  00003	51		 push	 ecx

; 295  : 	int bufSize;
; 296  : 	if (!PyTuple_GetInteger(poArgs, 0, &bufSize))

  00004	8d 45 fc	 lea	 eax, DWORD PTR _bufSize$[ebp]
  00007	50		 push	 eax
  00008	6a 00		 push	 0
  0000a	ff 75 0c	 push	 DWORD PTR _poArgs$[ebp]
  0000d	e8 00 00 00 00	 call	 ?PyTuple_GetInteger@@YA_NPAU_object@@HPAH@Z ; PyTuple_GetInteger
  00012	83 c4 0c	 add	 esp, 12			; 0000000cH
  00015	84 c0		 test	 al, al
  00017	75 0e		 jne	 SHORT $LN2@netSetUDPR

; 297  : 		return Py_BuildException();

  00019	6a 00		 push	 0
  0001b	e8 00 00 00 00	 call	 ?Py_BuildException@@YAPAU_object@@PBDZZ ; Py_BuildException
  00020	83 c4 04	 add	 esp, 4

; 301  : }

  00023	8b e5		 mov	 esp, ebp
  00025	5d		 pop	 ebp
  00026	c3		 ret	 0
$LN2@netSetUDPR:

; 298  : 
; 299  : 	//CPythonNetworkDatagram::Instance().SetRecvBufferSize(bufSize);
; 300  : 	return Py_BuildNone();

  00027	e8 00 00 00 00	 call	 ?Py_BuildNone@@YAPAU_object@@XZ ; Py_BuildNone

; 301  : }

  0002c	8b e5		 mov	 esp, ebp
  0002e	5d		 pop	 ebp
  0002f	c3		 ret	 0
?netSetUDPRecvBufferSize@@YAPAU_object@@PAU1@0@Z ENDP	; netSetUDPRecvBufferSize
_TEXT	ENDS
; Function compile flags: /Ogtp
; File E:\Metin2_server\SolWayneSF v6\ClientVS22\source\UserInterface\PythonNetworkStreamModule.cpp
;	COMDAT ?netSetMarkServer@@YAPAU_object@@PAU1@0@Z
_TEXT	SEGMENT
_szAddr$ = -8						; size = 4
_port$ = -4						; size = 4
_poSelf$ = 8						; size = 4
_poArgs$ = 12						; size = 4
?netSetMarkServer@@YAPAU_object@@PAU1@0@Z PROC		; netSetMarkServer, COMDAT

; 304  : {

  00000	55		 push	 ebp
  00001	8b ec		 mov	 ebp, esp
  00003	83 ec 08	 sub	 esp, 8

; 305  : 	char* szAddr;
; 306  : 	if (!PyTuple_GetString(poArgs, 0, &szAddr))

  00006	8d 45 f8	 lea	 eax, DWORD PTR _szAddr$[ebp]
  00009	50		 push	 eax
  0000a	6a 00		 push	 0
  0000c	ff 75 0c	 push	 DWORD PTR _poArgs$[ebp]
  0000f	e8 00 00 00 00	 call	 ?PyTuple_GetString@@YA_NPAU_object@@HPAPAD@Z ; PyTuple_GetString
  00014	83 c4 0c	 add	 esp, 12			; 0000000cH
  00017	84 c0		 test	 al, al
  00019	75 0e		 jne	 SHORT $LN2@netSetMark
$LN5@netSetMark:

; 316  : }

  0001b	6a 00		 push	 0
  0001d	e8 00 00 00 00	 call	 ?Py_BuildException@@YAPAU_object@@PBDZZ ; Py_BuildException
  00022	83 c4 04	 add	 esp, 4
  00025	8b e5		 mov	 esp, ebp
  00027	5d		 pop	 ebp
  00028	c3		 ret	 0
$LN2@netSetMark:

; 307  : 		return Py_BuildException();
; 308  : 
; 309  : 	int port;
; 310  : 	if (!PyTuple_GetInteger(poArgs, 1, &port))

  00029	8d 45 fc	 lea	 eax, DWORD PTR _port$[ebp]
  0002c	50		 push	 eax
  0002d	6a 01		 push	 1
  0002f	ff 75 0c	 push	 DWORD PTR _poArgs$[ebp]
  00032	e8 00 00 00 00	 call	 ?PyTuple_GetInteger@@YA_NPAU_object@@HPAH@Z ; PyTuple_GetInteger
  00037	83 c4 0c	 add	 esp, 12			; 0000000cH
  0003a	84 c0		 test	 al, al
  0003c	74 dd		 je	 SHORT $LN5@netSetMark

; 311  : 		return Py_BuildException();
; 312  : 
; 313  : 	CPythonNetworkStream& rkNetStream=CPythonNetworkStream::Instance();
; 314  : 	rkNetStream.SetMarkServer(szAddr, port);

  0003e	ff 75 fc	 push	 DWORD PTR _port$[ebp]
  00041	8b 0d 00 00 00
	00		 mov	 ecx, DWORD PTR ?ms_singleton@?$CSingleton@VCPythonNetworkStream@@@@0PAVCPythonNetworkStream@@A ; CSingleton<CPythonNetworkStream>::ms_singleton
  00047	ff 75 f8	 push	 DWORD PTR _szAddr$[ebp]
  0004a	e8 00 00 00 00	 call	 ?SetMarkServer@CPythonNetworkStream@@QAEXPBDI@Z ; CPythonNetworkStream::SetMarkServer

; 315  : 	return Py_BuildNone();

  0004f	e8 00 00 00 00	 call	 ?Py_BuildNone@@YAPAU_object@@XZ ; Py_BuildNone

; 316  : }

  00054	8b e5		 mov	 esp, ebp
  00056	5d		 pop	 ebp
  00057	c3		 ret	 0
?netSetMarkServer@@YAPAU_object@@PAU1@0@Z ENDP		; netSetMarkServer
_TEXT	ENDS
; Function compile flags: /Ogtp
; File E:\Metin2_server\SolWayneSF v6\ClientVS22\source\UserInterface\PythonNetworkStreamModule.cpp
;	COMDAT ?netConnectTCP@@YAPAU_object@@PAU1@0@Z
_TEXT	SEGMENT
_szAddr$ = -8						; size = 4
_port$ = -4						; size = 4
_poSelf$ = 8						; size = 4
_poArgs$ = 12						; size = 4
?netConnectTCP@@YAPAU_object@@PAU1@0@Z PROC		; netConnectTCP, COMDAT

; 319  : {

  00000	55		 push	 ebp
  00001	8b ec		 mov	 ebp, esp
  00003	83 ec 08	 sub	 esp, 8

; 320  : 	char* szAddr;
; 321  : 	if (!PyTuple_GetString(poArgs, 0, &szAddr))

  00006	8d 45 f8	 lea	 eax, DWORD PTR _szAddr$[ebp]
  00009	50		 push	 eax
  0000a	6a 00		 push	 0
  0000c	ff 75 0c	 push	 DWORD PTR _poArgs$[ebp]
  0000f	e8 00 00 00 00	 call	 ?PyTuple_GetString@@YA_NPAU_object@@HPAPAD@Z ; PyTuple_GetString
  00014	83 c4 0c	 add	 esp, 12			; 0000000cH
  00017	84 c0		 test	 al, al
  00019	75 0e		 jne	 SHORT $LN2@netConnect
$LN5@netConnect:

; 331  : }

  0001b	6a 00		 push	 0
  0001d	e8 00 00 00 00	 call	 ?Py_BuildException@@YAPAU_object@@PBDZZ ; Py_BuildException
  00022	83 c4 04	 add	 esp, 4
  00025	8b e5		 mov	 esp, ebp
  00027	5d		 pop	 ebp
  00028	c3		 ret	 0
$LN2@netConnect:

; 322  : 		return Py_BuildException();
; 323  : 
; 324  : 	int port;
; 325  : 	if (!PyTuple_GetInteger(poArgs, 1, &port))

  00029	8d 45 fc	 lea	 eax, DWORD PTR _port$[ebp]
  0002c	50		 push	 eax
  0002d	6a 01		 push	 1
  0002f	ff 75 0c	 push	 DWORD PTR _poArgs$[ebp]
  00032	e8 00 00 00 00	 call	 ?PyTuple_GetInteger@@YA_NPAU_object@@HPAH@Z ; PyTuple_GetInteger
  00037	83 c4 0c	 add	 esp, 12			; 0000000cH
  0003a	84 c0		 test	 al, al
  0003c	74 dd		 je	 SHORT $LN5@netConnect

; 326  : 		return Py_BuildException();
; 327  : 
; 328  : 	CPythonNetworkStream& rkNetStream=CPythonNetworkStream::Instance();
; 329  : 	rkNetStream.ConnectLoginServer(szAddr, port);

  0003e	ff 75 fc	 push	 DWORD PTR _port$[ebp]
  00041	8b 0d 00 00 00
	00		 mov	 ecx, DWORD PTR ?ms_singleton@?$CSingleton@VCPythonNetworkStream@@@@0PAVCPythonNetworkStream@@A ; CSingleton<CPythonNetworkStream>::ms_singleton
  00047	ff 75 f8	 push	 DWORD PTR _szAddr$[ebp]
  0004a	e8 00 00 00 00	 call	 ?ConnectLoginServer@CPythonNetworkStream@@QAEXPBDI@Z ; CPythonNetworkStream::ConnectLoginServer

; 330  : 	return Py_BuildNone();

  0004f	e8 00 00 00 00	 call	 ?Py_BuildNone@@YAPAU_object@@XZ ; Py_BuildNone

; 331  : }

  00054	8b e5		 mov	 esp, ebp
  00056	5d		 pop	 ebp
  00057	c3		 ret	 0
?netConnectTCP@@YAPAU_object@@PAU1@0@Z ENDP		; netConnectTCP
_TEXT	ENDS
; Function compile flags: /Ogtp
; File E:\Metin2_server\SolWayneSF v6\ClientVS22\source\UserInterface\PythonNetworkStreamModule.cpp
;	COMDAT ?netConnectUDP@@YAPAU_object@@PAU1@0@Z
_TEXT	SEGMENT
_iPort$ = -8						; size = 4
_c_szIP$ = -4						; size = 4
_poSelf$ = 8						; size = 4
_poArgs$ = 12						; size = 4
?netConnectUDP@@YAPAU_object@@PAU1@0@Z PROC		; netConnectUDP, COMDAT

; 334  : {

  00000	55		 push	 ebp
  00001	8b ec		 mov	 ebp, esp
  00003	83 ec 08	 sub	 esp, 8

; 335  : 	char * c_szIP;
; 336  : 	if (!PyTuple_GetString(poArgs, 0, &c_szIP))

  00006	8d 45 fc	 lea	 eax, DWORD PTR _c_szIP$[ebp]
  00009	50		 push	 eax
  0000a	6a 00		 push	 0
  0000c	ff 75 0c	 push	 DWORD PTR _poArgs$[ebp]
  0000f	e8 00 00 00 00	 call	 ?PyTuple_GetString@@YA_NPAU_object@@HPAPAD@Z ; PyTuple_GetString
  00014	83 c4 0c	 add	 esp, 12			; 0000000cH
  00017	84 c0		 test	 al, al
  00019	75 0e		 jne	 SHORT $LN2@netConnect
$LN5@netConnect:

; 344  : }

  0001b	6a 00		 push	 0
  0001d	e8 00 00 00 00	 call	 ?Py_BuildException@@YAPAU_object@@PBDZZ ; Py_BuildException
  00022	83 c4 04	 add	 esp, 4
  00025	8b e5		 mov	 esp, ebp
  00027	5d		 pop	 ebp
  00028	c3		 ret	 0
$LN2@netConnect:

; 337  : 		return Py_BuildException();
; 338  : 	int iPort;
; 339  : 	if (!PyTuple_GetInteger(poArgs, 1, &iPort))

  00029	8d 45 f8	 lea	 eax, DWORD PTR _iPort$[ebp]
  0002c	50		 push	 eax
  0002d	6a 01		 push	 1
  0002f	ff 75 0c	 push	 DWORD PTR _poArgs$[ebp]
  00032	e8 00 00 00 00	 call	 ?PyTuple_GetInteger@@YA_NPAU_object@@HPAH@Z ; PyTuple_GetInteger
  00037	83 c4 0c	 add	 esp, 12			; 0000000cH
  0003a	84 c0		 test	 al, al
  0003c	74 dd		 je	 SHORT $LN5@netConnect

; 340  : 		return Py_BuildException();
; 341  : 
; 342  : 	//CPythonNetworkDatagram::Instance().SetConnection(c_szIP, iPort);
; 343  : 	return Py_BuildNone();

  0003e	e8 00 00 00 00	 call	 ?Py_BuildNone@@YAPAU_object@@XZ ; Py_BuildNone

; 344  : }

  00043	8b e5		 mov	 esp, ebp
  00045	5d		 pop	 ebp
  00046	c3		 ret	 0
?netConnectUDP@@YAPAU_object@@PAU1@0@Z ENDP		; netConnectUDP
_TEXT	ENDS
; Function compile flags: /Ogtp
; File E:\Metin2_server\SolWayneSF v6\ClientVS22\source\UserInterface\PythonNetworkStreamModule.cpp
;	COMDAT ?netConnectToAccountServer@@YAPAU_object@@PAU1@0@Z
_TEXT	SEGMENT
_addr$ = -16						; size = 4
_port$ = -12						; size = 4
_account_addr$ = -8					; size = 4
_account_port$ = -4					; size = 4
_poSelf$ = 8						; size = 4
_poArgs$ = 12						; size = 4
?netConnectToAccountServer@@YAPAU_object@@PAU1@0@Z PROC	; netConnectToAccountServer, COMDAT

; 347  : {

  00000	55		 push	 ebp
  00001	8b ec		 mov	 ebp, esp
  00003	83 ec 10	 sub	 esp, 16			; 00000010H

; 348  : 	char* addr;
; 349  : 	if (!PyTuple_GetString(poArgs, 0, &addr))

  00006	8d 45 f0	 lea	 eax, DWORD PTR _addr$[ebp]
  00009	56		 push	 esi
  0000a	8b 75 0c	 mov	 esi, DWORD PTR _poArgs$[ebp]
  0000d	50		 push	 eax
  0000e	6a 00		 push	 0
  00010	56		 push	 esi
  00011	e8 00 00 00 00	 call	 ?PyTuple_GetString@@YA_NPAU_object@@HPAPAD@Z ; PyTuple_GetString
  00016	83 c4 0c	 add	 esp, 12			; 0000000cH
  00019	84 c0		 test	 al, al
  0001b	75 0f		 jne	 SHORT $LN2@netConnect
$LN7@netConnect:

; 367  : }

  0001d	6a 00		 push	 0
  0001f	e8 00 00 00 00	 call	 ?Py_BuildException@@YAPAU_object@@PBDZZ ; Py_BuildException
  00024	83 c4 04	 add	 esp, 4
  00027	5e		 pop	 esi
  00028	8b e5		 mov	 esp, ebp
  0002a	5d		 pop	 ebp
  0002b	c3		 ret	 0
$LN2@netConnect:

; 350  : 		return Py_BuildException();
; 351  : 
; 352  : 	int port;
; 353  : 	if (!PyTuple_GetInteger(poArgs, 1, &port))

  0002c	8d 45 f4	 lea	 eax, DWORD PTR _port$[ebp]
  0002f	50		 push	 eax
  00030	6a 01		 push	 1
  00032	56		 push	 esi
  00033	e8 00 00 00 00	 call	 ?PyTuple_GetInteger@@YA_NPAU_object@@HPAH@Z ; PyTuple_GetInteger
  00038	83 c4 0c	 add	 esp, 12			; 0000000cH
  0003b	84 c0		 test	 al, al
  0003d	74 de		 je	 SHORT $LN7@netConnect

; 354  : 		return Py_BuildException();
; 355  : 
; 356  : 	char* account_addr;
; 357  : 	if (!PyTuple_GetString(poArgs, 2, &account_addr))

  0003f	8d 45 f8	 lea	 eax, DWORD PTR _account_addr$[ebp]
  00042	50		 push	 eax
  00043	6a 02		 push	 2
  00045	56		 push	 esi
  00046	e8 00 00 00 00	 call	 ?PyTuple_GetString@@YA_NPAU_object@@HPAPAD@Z ; PyTuple_GetString
  0004b	83 c4 0c	 add	 esp, 12			; 0000000cH
  0004e	84 c0		 test	 al, al
  00050	74 cb		 je	 SHORT $LN7@netConnect

; 358  : 		return Py_BuildException();
; 359  : 
; 360  : 	int account_port;
; 361  : 	if (!PyTuple_GetInteger(poArgs, 3, &account_port))

  00052	8d 45 fc	 lea	 eax, DWORD PTR _account_port$[ebp]
  00055	50		 push	 eax
  00056	6a 03		 push	 3
  00058	56		 push	 esi
  00059	e8 00 00 00 00	 call	 ?PyTuple_GetInteger@@YA_NPAU_object@@HPAH@Z ; PyTuple_GetInteger
  0005e	83 c4 0c	 add	 esp, 12			; 0000000cH
  00061	84 c0		 test	 al, al
  00063	74 b8		 je	 SHORT $LN7@netConnect

; 362  : 		return Py_BuildException();
; 363  : 
; 364  : 	CAccountConnector & rkAccountConnector = CAccountConnector::Instance();
; 365  : 	rkAccountConnector.Connect(addr, port, account_addr, account_port);

  00065	ff 75 fc	 push	 DWORD PTR _account_port$[ebp]
  00068	8b 0d 00 00 00
	00		 mov	 ecx, DWORD PTR ?ms_singleton@?$CSingleton@VCAccountConnector@@@@0PAVCAccountConnector@@A ; CSingleton<CAccountConnector>::ms_singleton
  0006e	ff 75 f8	 push	 DWORD PTR _account_addr$[ebp]
  00071	ff 75 f4	 push	 DWORD PTR _port$[ebp]
  00074	ff 75 f0	 push	 DWORD PTR _addr$[ebp]
  00077	e8 00 00 00 00	 call	 ?Connect@CAccountConnector@@QAE_NPBDH0H@Z ; CAccountConnector::Connect

; 366  : 	return Py_BuildNone();

  0007c	e8 00 00 00 00	 call	 ?Py_BuildNone@@YAPAU_object@@XZ ; Py_BuildNone
  00081	5e		 pop	 esi

; 367  : }

  00082	8b e5		 mov	 esp, ebp
  00084	5d		 pop	 ebp
  00085	c3		 ret	 0
?netConnectToAccountServer@@YAPAU_object@@PAU1@0@Z ENDP	; netConnectToAccountServer
_TEXT	ENDS
; Function compile flags: /Ogtp
; File E:\Metin2_server\SolWayneSF v6\ClientVS22\source\UserInterface\PythonNetworkStreamModule.cpp
;	COMDAT ?netTargetInfoLoad@@YAPAU_object@@PAU1@0@Z
_TEXT	SEGMENT
_dwVID$ = -4						; size = 4
_poSelf$ = 8						; size = 4
_poArgs$ = 12						; size = 4
?netTargetInfoLoad@@YAPAU_object@@PAU1@0@Z PROC		; netTargetInfoLoad, COMDAT

; 371  : {

  00000	55		 push	 ebp
  00001	8b ec		 mov	 ebp, esp
  00003	51		 push	 ecx

; 372  : 	DWORD dwVID;
; 373  : 
; 374  : 	if (!PyArg_ParseTuple(poArgs, "i", &dwVID))

  00004	8d 45 fc	 lea	 eax, DWORD PTR _dwVID$[ebp]
  00007	50		 push	 eax
  00008	68 00 00 00 00	 push	 OFFSET ??_C@_01KBJDNOO@i@
  0000d	ff 75 0c	 push	 DWORD PTR _poArgs$[ebp]
  00010	ff 15 00 00 00
	00		 call	 DWORD PTR __imp__PyArg_ParseTuple
  00016	83 c4 0c	 add	 esp, 12			; 0000000cH
  00019	85 c0		 test	 eax, eax
  0001b	75 0d		 jne	 SHORT $LN2@netTargetI

; 375  : 	{
; 376  : 		return Py_BuildException();

  0001d	50		 push	 eax
  0001e	e8 00 00 00 00	 call	 ?Py_BuildException@@YAPAU_object@@PBDZZ ; Py_BuildException
  00023	83 c4 04	 add	 esp, 4

; 387  : }

  00026	8b e5		 mov	 esp, ebp
  00028	5d		 pop	 ebp
  00029	c3		 ret	 0
$LN2@netTargetI:

; 377  : 	}
; 378  : 	if (dwVID < 0)
; 379  : 	{
; 380  : 		return Py_BuildNone();
; 381  : 	}
; 382  : 
; 383  : 	CPythonNetworkStream& rns = CPythonNetworkStream::Instance();
; 384  : 	rns.SendTargetInfoLoadPacket(dwVID);

  0002a	ff 75 fc	 push	 DWORD PTR _dwVID$[ebp]
  0002d	8b 0d 00 00 00
	00		 mov	 ecx, DWORD PTR ?ms_singleton@?$CSingleton@VCPythonNetworkStream@@@@0PAVCPythonNetworkStream@@A ; CSingleton<CPythonNetworkStream>::ms_singleton
  00033	e8 00 00 00 00	 call	 ?SendTargetInfoLoadPacket@CPythonNetworkStream@@QAE_NK@Z ; CPythonNetworkStream::SendTargetInfoLoadPacket

; 385  : 
; 386  : 	return Py_BuildNone();

  00038	e8 00 00 00 00	 call	 ?Py_BuildNone@@YAPAU_object@@XZ ; Py_BuildNone

; 387  : }

  0003d	8b e5		 mov	 esp, ebp
  0003f	5d		 pop	 ebp
  00040	c3		 ret	 0
?netTargetInfoLoad@@YAPAU_object@@PAU1@0@Z ENDP		; netTargetInfoLoad
_TEXT	ENDS
; Function compile flags: /Ogtp
; File E:\Metin2_server\SolWayneSF v6\ClientVS22\source\UserInterface\PythonNetworkStreamModule.cpp
;	COMDAT ?netSetLoginInfo@@YAPAU_object@@PAU1@0@Z
_TEXT	SEGMENT
_szName$ = -8						; size = 4
_szPwd$ = -4						; size = 4
_poSelf$ = 8						; size = 4
_poArgs$ = 12						; size = 4
?netSetLoginInfo@@YAPAU_object@@PAU1@0@Z PROC		; netSetLoginInfo, COMDAT

; 393  : {

  00000	55		 push	 ebp
  00001	8b ec		 mov	 ebp, esp
  00003	83 ec 08	 sub	 esp, 8

; 394  : 	char* szName;
; 395  : 	if (!PyTuple_GetString(poArgs, 0, &szName))

  00006	8d 45 f8	 lea	 eax, DWORD PTR _szName$[ebp]
  00009	56		 push	 esi
  0000a	8b 75 0c	 mov	 esi, DWORD PTR _poArgs$[ebp]
  0000d	50		 push	 eax
  0000e	6a 00		 push	 0
  00010	56		 push	 esi
  00011	e8 00 00 00 00	 call	 ?PyTuple_GetString@@YA_NPAU_object@@HPAPAD@Z ; PyTuple_GetString
  00016	83 c4 0c	 add	 esp, 12			; 0000000cH
  00019	84 c0		 test	 al, al
  0001b	75 0f		 jne	 SHORT $LN2@netSetLogi
$LN5@netSetLogi:

; 407  : }

  0001d	6a 00		 push	 0
  0001f	e8 00 00 00 00	 call	 ?Py_BuildException@@YAPAU_object@@PBDZZ ; Py_BuildException
  00024	83 c4 04	 add	 esp, 4
  00027	5e		 pop	 esi
  00028	8b e5		 mov	 esp, ebp
  0002a	5d		 pop	 ebp
  0002b	c3		 ret	 0
$LN2@netSetLogi:

; 396  : 		return Py_BuildException();
; 397  : 
; 398  : 	char* szPwd;
; 399  : 	if (!PyTuple_GetString(poArgs, 1, &szPwd))

  0002c	8d 45 fc	 lea	 eax, DWORD PTR _szPwd$[ebp]
  0002f	50		 push	 eax
  00030	6a 01		 push	 1
  00032	56		 push	 esi
  00033	e8 00 00 00 00	 call	 ?PyTuple_GetString@@YA_NPAU_object@@HPAPAD@Z ; PyTuple_GetString
  00038	83 c4 0c	 add	 esp, 12			; 0000000cH
  0003b	84 c0		 test	 al, al
  0003d	74 de		 je	 SHORT $LN5@netSetLogi

; 400  : 		return Py_BuildException();
; 401  : 
; 402  : 	CPythonNetworkStream& rkNetStream=CPythonNetworkStream::Instance();
; 403  : 	CAccountConnector & rkAccountConnector = CAccountConnector::Instance();
; 404  : 	rkNetStream.SetLoginInfo(szName, szPwd);

  0003f	ff 75 fc	 push	 DWORD PTR _szPwd$[ebp]
  00042	8b 0d 00 00 00
	00		 mov	 ecx, DWORD PTR ?ms_singleton@?$CSingleton@VCPythonNetworkStream@@@@0PAVCPythonNetworkStream@@A ; CSingleton<CPythonNetworkStream>::ms_singleton
  00048	ff 75 f8	 push	 DWORD PTR _szName$[ebp]
  0004b	8b 35 00 00 00
	00		 mov	 esi, DWORD PTR ?ms_singleton@?$CSingleton@VCAccountConnector@@@@0PAVCAccountConnector@@A ; CSingleton<CAccountConnector>::ms_singleton
  00051	e8 00 00 00 00	 call	 ?SetLoginInfo@CPythonNetworkStream@@QAEXPBD0@Z ; CPythonNetworkStream::SetLoginInfo

; 405  : 	rkAccountConnector.SetLoginInfo(szName, szPwd);

  00056	ff 75 fc	 push	 DWORD PTR _szPwd$[ebp]
  00059	8b ce		 mov	 ecx, esi
  0005b	ff 75 f8	 push	 DWORD PTR _szName$[ebp]
  0005e	e8 00 00 00 00	 call	 ?SetLoginInfo@CAccountConnector@@QAEXPBD0@Z ; CAccountConnector::SetLoginInfo

; 406  : 	return Py_BuildNone();

  00063	e8 00 00 00 00	 call	 ?Py_BuildNone@@YAPAU_object@@XZ ; Py_BuildNone
  00068	5e		 pop	 esi

; 407  : }

  00069	8b e5		 mov	 esp, ebp
  0006b	5d		 pop	 ebp
  0006c	c3		 ret	 0
?netSetLoginInfo@@YAPAU_object@@PAU1@0@Z ENDP		; netSetLoginInfo
_TEXT	ENDS
; Function compile flags: /Ogtp
; File E:\Metin2_server\SolWayneSF v6\ClientVS22\source\UserInterface\PythonNetworkStreamModule.cpp
;	COMDAT ?netSetOfflinePhase@@YAPAU_object@@PAU1@0@Z
_TEXT	SEGMENT
_poSelf$ = 8						; size = 4
_poArgs$ = 12						; size = 4
?netSetOfflinePhase@@YAPAU_object@@PAU1@0@Z PROC	; netSetOfflinePhase, COMDAT

; 411  : 	CPythonNetworkStream& rkNetStream=CPythonNetworkStream::Instance();
; 412  : 	rkNetStream.SetOffLinePhase();

  00000	8b 0d 00 00 00
	00		 mov	 ecx, DWORD PTR ?ms_singleton@?$CSingleton@VCPythonNetworkStream@@@@0PAVCPythonNetworkStream@@A ; CSingleton<CPythonNetworkStream>::ms_singleton
  00006	e8 00 00 00 00	 call	 ?SetOffLinePhase@CPythonNetworkStream@@QAEXXZ ; CPythonNetworkStream::SetOffLinePhase

; 413  : 	return Py_BuildNone();

  0000b	e9 00 00 00 00	 jmp	 ?Py_BuildNone@@YAPAU_object@@XZ ; Py_BuildNone
?netSetOfflinePhase@@YAPAU_object@@PAU1@0@Z ENDP	; netSetOfflinePhase
_TEXT	ENDS
; Function compile flags: /Ogtp
; File E:\Metin2_server\SolWayneSF v6\ClientVS22\source\UserInterface\PythonNetworkStreamModule.cpp
;	COMDAT ?netSendSelectEmpirePacket@@YAPAU_object@@PAU1@0@Z
_TEXT	SEGMENT
_iEmpireIndex$ = -4					; size = 4
_poSelf$ = 8						; size = 4
_poArgs$ = 12						; size = 4
?netSendSelectEmpirePacket@@YAPAU_object@@PAU1@0@Z PROC	; netSendSelectEmpirePacket, COMDAT

; 417  : {

  00000	55		 push	 ebp
  00001	8b ec		 mov	 ebp, esp
  00003	51		 push	 ecx

; 418  : 	int iEmpireIndex;
; 419  : 	if (!PyTuple_GetInteger(poArgs, 0, &iEmpireIndex))

  00004	8d 45 fc	 lea	 eax, DWORD PTR _iEmpireIndex$[ebp]
  00007	50		 push	 eax
  00008	6a 00		 push	 0
  0000a	ff 75 0c	 push	 DWORD PTR _poArgs$[ebp]
  0000d	e8 00 00 00 00	 call	 ?PyTuple_GetInteger@@YA_NPAU_object@@HPAH@Z ; PyTuple_GetInteger
  00012	83 c4 0c	 add	 esp, 12			; 0000000cH
  00015	84 c0		 test	 al, al
  00017	75 0e		 jne	 SHORT $LN2@netSendSel

; 420  : 		return Py_BuildException();

  00019	6a 00		 push	 0
  0001b	e8 00 00 00 00	 call	 ?Py_BuildException@@YAPAU_object@@PBDZZ ; Py_BuildException
  00020	83 c4 04	 add	 esp, 4

; 425  : }

  00023	8b e5		 mov	 esp, ebp
  00025	5d		 pop	 ebp
  00026	c3		 ret	 0
$LN2@netSendSel:

; 421  : 
; 422  : 	CPythonNetworkStream& rkNetStream=CPythonNetworkStream::Instance();
; 423  : 	rkNetStream.SendSelectEmpirePacket(iEmpireIndex);

  00027	ff 75 fc	 push	 DWORD PTR _iEmpireIndex$[ebp]
  0002a	8b 0d 00 00 00
	00		 mov	 ecx, DWORD PTR ?ms_singleton@?$CSingleton@VCPythonNetworkStream@@@@0PAVCPythonNetworkStream@@A ; CSingleton<CPythonNetworkStream>::ms_singleton
  00030	e8 00 00 00 00	 call	 ?SendSelectEmpirePacket@CPythonNetworkStream@@QAE_NK@Z ; CPythonNetworkStream::SendSelectEmpirePacket

; 424  : 	return Py_BuildNone();

  00035	e8 00 00 00 00	 call	 ?Py_BuildNone@@YAPAU_object@@XZ ; Py_BuildNone

; 425  : }

  0003a	8b e5		 mov	 esp, ebp
  0003c	5d		 pop	 ebp
  0003d	c3		 ret	 0
?netSendSelectEmpirePacket@@YAPAU_object@@PAU1@0@Z ENDP	; netSendSelectEmpirePacket
_TEXT	ENDS
; Function compile flags: /Ogtp
; File E:\Metin2_server\SolWayneSF v6\ClientVS22\source\UserInterface\PythonNetworkStreamModule.cpp
;	COMDAT ?netSendLoginPacket@@YAPAU_object@@PAU1@0@Z
_TEXT	SEGMENT
_szName$ = -8						; size = 4
_szPwd$ = -4						; size = 4
_poSelf$ = 8						; size = 4
_poArgs$ = 12						; size = 4
?netSendLoginPacket@@YAPAU_object@@PAU1@0@Z PROC	; netSendLoginPacket, COMDAT

; 428  : {

  00000	55		 push	 ebp
  00001	8b ec		 mov	 ebp, esp
  00003	83 ec 08	 sub	 esp, 8

; 429  : 	char* szName;
; 430  : 	if (!PyTuple_GetString(poArgs, 0, &szName))

  00006	8d 45 f8	 lea	 eax, DWORD PTR _szName$[ebp]
  00009	50		 push	 eax
  0000a	6a 00		 push	 0
  0000c	ff 75 0c	 push	 DWORD PTR _poArgs$[ebp]
  0000f	e8 00 00 00 00	 call	 ?PyTuple_GetString@@YA_NPAU_object@@HPAPAD@Z ; PyTuple_GetString
  00014	83 c4 0c	 add	 esp, 12			; 0000000cH
  00017	84 c0		 test	 al, al
  00019	75 0e		 jne	 SHORT $LN2@netSendLog
$LN5@netSendLog:

; 440  : }

  0001b	6a 00		 push	 0
  0001d	e8 00 00 00 00	 call	 ?Py_BuildException@@YAPAU_object@@PBDZZ ; Py_BuildException
  00022	83 c4 04	 add	 esp, 4
  00025	8b e5		 mov	 esp, ebp
  00027	5d		 pop	 ebp
  00028	c3		 ret	 0
$LN2@netSendLog:

; 431  : 		return Py_BuildException();
; 432  : 
; 433  : 	char* szPwd;
; 434  : 	if (!PyTuple_GetString(poArgs, 1, &szPwd))

  00029	8d 45 fc	 lea	 eax, DWORD PTR _szPwd$[ebp]
  0002c	50		 push	 eax
  0002d	6a 01		 push	 1
  0002f	ff 75 0c	 push	 DWORD PTR _poArgs$[ebp]
  00032	e8 00 00 00 00	 call	 ?PyTuple_GetString@@YA_NPAU_object@@HPAPAD@Z ; PyTuple_GetString
  00037	83 c4 0c	 add	 esp, 12			; 0000000cH
  0003a	84 c0		 test	 al, al
  0003c	74 dd		 je	 SHORT $LN5@netSendLog

; 435  : 		return Py_BuildException();
; 436  : 
; 437  : 	CPythonNetworkStream& rkNetStream=CPythonNetworkStream::Instance();
; 438  : 	rkNetStream.SendLoginPacket(szName, szPwd);

  0003e	ff 75 fc	 push	 DWORD PTR _szPwd$[ebp]
  00041	8b 0d 00 00 00
	00		 mov	 ecx, DWORD PTR ?ms_singleton@?$CSingleton@VCPythonNetworkStream@@@@0PAVCPythonNetworkStream@@A ; CSingleton<CPythonNetworkStream>::ms_singleton
  00047	ff 75 f8	 push	 DWORD PTR _szName$[ebp]
  0004a	e8 00 00 00 00	 call	 ?SendLoginPacket@CPythonNetworkStream@@QAE_NPBD0@Z ; CPythonNetworkStream::SendLoginPacket

; 439  : 	return Py_BuildNone();

  0004f	e8 00 00 00 00	 call	 ?Py_BuildNone@@YAPAU_object@@XZ ; Py_BuildNone

; 440  : }

  00054	8b e5		 mov	 esp, ebp
  00056	5d		 pop	 ebp
  00057	c3		 ret	 0
?netSendLoginPacket@@YAPAU_object@@PAU1@0@Z ENDP	; netSendLoginPacket
_TEXT	ENDS
; Function compile flags: /Ogtp
; File E:\Metin2_server\SolWayneSF v6\ClientVS22\source\UserInterface\PythonNetworkStreamModule.cpp
;	COMDAT ?netSendChinaMatrixCardPacket@@YAPAU_object@@PAU1@0@Z
_TEXT	SEGMENT
_szMatrixCardString$ = -4				; size = 4
_poSelf$ = 8						; size = 4
_poArgs$ = 12						; size = 4
?netSendChinaMatrixCardPacket@@YAPAU_object@@PAU1@0@Z PROC ; netSendChinaMatrixCardPacket, COMDAT

; 443  : {

  00000	55		 push	 ebp
  00001	8b ec		 mov	 ebp, esp
  00003	51		 push	 ecx

; 444  : 	char* szMatrixCardString;
; 445  : 	if (!PyTuple_GetString(poArgs, 0, &szMatrixCardString))

  00004	8d 45 fc	 lea	 eax, DWORD PTR _szMatrixCardString$[ebp]
  00007	50		 push	 eax
  00008	6a 00		 push	 0
  0000a	ff 75 0c	 push	 DWORD PTR _poArgs$[ebp]
  0000d	e8 00 00 00 00	 call	 ?PyTuple_GetString@@YA_NPAU_object@@HPAPAD@Z ; PyTuple_GetString
  00012	83 c4 0c	 add	 esp, 12			; 0000000cH
  00015	84 c0		 test	 al, al
  00017	75 0e		 jne	 SHORT $LN2@netSendChi

; 446  : 		return Py_BuildException();

  00019	6a 00		 push	 0
  0001b	e8 00 00 00 00	 call	 ?Py_BuildException@@YAPAU_object@@PBDZZ ; Py_BuildException
  00020	83 c4 04	 add	 esp, 4

; 451  : }

  00023	8b e5		 mov	 esp, ebp
  00025	5d		 pop	 ebp
  00026	c3		 ret	 0
$LN2@netSendChi:

; 447  : 
; 448  : 	CAccountConnector & rkAccountConnector = CAccountConnector::Instance();
; 449  : 	rkAccountConnector.SendChinaMatrixCardPacket(szMatrixCardString);

  00027	ff 75 fc	 push	 DWORD PTR _szMatrixCardString$[ebp]
  0002a	8b 0d 00 00 00
	00		 mov	 ecx, DWORD PTR ?ms_singleton@?$CSingleton@VCAccountConnector@@@@0PAVCAccountConnector@@A ; CSingleton<CAccountConnector>::ms_singleton
  00030	e8 00 00 00 00	 call	 ?SendChinaMatrixCardPacket@CAccountConnector@@QAE_NPBD@Z ; CAccountConnector::SendChinaMatrixCardPacket

; 450  : 	return Py_BuildNone();

  00035	e8 00 00 00 00	 call	 ?Py_BuildNone@@YAPAU_object@@XZ ; Py_BuildNone

; 451  : }

  0003a	8b e5		 mov	 esp, ebp
  0003c	5d		 pop	 ebp
  0003d	c3		 ret	 0
?netSendChinaMatrixCardPacket@@YAPAU_object@@PAU1@0@Z ENDP ; netSendChinaMatrixCardPacket
_TEXT	ENDS
; Function compile flags: /Ogtp
; File E:\Metin2_server\SolWayneSF v6\ClientVS22\source\UserInterface\PythonNetworkStreamModule.cpp
;	COMDAT ?netSendRunupMatrixCardPacket@@YAPAU_object@@PAU1@0@Z
_TEXT	SEGMENT
_szMatrixCardString$ = -4				; size = 4
_poSelf$ = 8						; size = 4
_poArgs$ = 12						; size = 4
?netSendRunupMatrixCardPacket@@YAPAU_object@@PAU1@0@Z PROC ; netSendRunupMatrixCardPacket, COMDAT

; 454  : {

  00000	55		 push	 ebp
  00001	8b ec		 mov	 ebp, esp
  00003	51		 push	 ecx

; 455  : 	char* szMatrixCardString;
; 456  : 	if (!PyTuple_GetString(poArgs, 0, &szMatrixCardString))

  00004	8d 45 fc	 lea	 eax, DWORD PTR _szMatrixCardString$[ebp]
  00007	50		 push	 eax
  00008	6a 00		 push	 0
  0000a	ff 75 0c	 push	 DWORD PTR _poArgs$[ebp]
  0000d	e8 00 00 00 00	 call	 ?PyTuple_GetString@@YA_NPAU_object@@HPAPAD@Z ; PyTuple_GetString
  00012	83 c4 0c	 add	 esp, 12			; 0000000cH
  00015	84 c0		 test	 al, al
  00017	75 0e		 jne	 SHORT $LN2@netSendRun

; 457  : 		return Py_BuildException();

  00019	6a 00		 push	 0
  0001b	e8 00 00 00 00	 call	 ?Py_BuildException@@YAPAU_object@@PBDZZ ; Py_BuildException
  00020	83 c4 04	 add	 esp, 4

; 462  : }

  00023	8b e5		 mov	 esp, ebp
  00025	5d		 pop	 ebp
  00026	c3		 ret	 0
$LN2@netSendRun:

; 458  : 
; 459  : 	CAccountConnector & rkAccountConnector = CAccountConnector::Instance();
; 460  : 	rkAccountConnector.SendRunupMatrixCardPacket(szMatrixCardString);

  00027	ff 75 fc	 push	 DWORD PTR _szMatrixCardString$[ebp]
  0002a	8b 0d 00 00 00
	00		 mov	 ecx, DWORD PTR ?ms_singleton@?$CSingleton@VCAccountConnector@@@@0PAVCAccountConnector@@A ; CSingleton<CAccountConnector>::ms_singleton
  00030	e8 00 00 00 00	 call	 ?SendRunupMatrixCardPacket@CAccountConnector@@QAE_NPBD@Z ; CAccountConnector::SendRunupMatrixCardPacket

; 461  : 	return Py_BuildNone();

  00035	e8 00 00 00 00	 call	 ?Py_BuildNone@@YAPAU_object@@XZ ; Py_BuildNone

; 462  : }

  0003a	8b e5		 mov	 esp, ebp
  0003c	5d		 pop	 ebp
  0003d	c3		 ret	 0
?netSendRunupMatrixCardPacket@@YAPAU_object@@PAU1@0@Z ENDP ; netSendRunupMatrixCardPacket
_TEXT	ENDS
; Function compile flags: /Ogtp
; File E:\Metin2_server\SolWayneSF v6\ClientVS22\source\UserInterface\PythonNetworkStreamModule.cpp
;	COMDAT ?netSendNEWCIBNPasspodAnswerPacket@@YAPAU_object@@PAU1@0@Z
_TEXT	SEGMENT
_szMatrixCardString$ = -4				; size = 4
_poSelf$ = 8						; size = 4
_poArgs$ = 12						; size = 4
?netSendNEWCIBNPasspodAnswerPacket@@YAPAU_object@@PAU1@0@Z PROC ; netSendNEWCIBNPasspodAnswerPacket, COMDAT

; 465  : {

  00000	55		 push	 ebp
  00001	8b ec		 mov	 ebp, esp
  00003	51		 push	 ecx

; 466  : 	char* szMatrixCardString;
; 467  : 	if (!PyTuple_GetString(poArgs, 0, &szMatrixCardString))

  00004	8d 45 fc	 lea	 eax, DWORD PTR _szMatrixCardString$[ebp]
  00007	50		 push	 eax
  00008	6a 00		 push	 0
  0000a	ff 75 0c	 push	 DWORD PTR _poArgs$[ebp]
  0000d	e8 00 00 00 00	 call	 ?PyTuple_GetString@@YA_NPAU_object@@HPAPAD@Z ; PyTuple_GetString
  00012	83 c4 0c	 add	 esp, 12			; 0000000cH
  00015	84 c0		 test	 al, al
  00017	75 0e		 jne	 SHORT $LN2@netSendNEW

; 468  : 		return Py_BuildException();

  00019	6a 00		 push	 0
  0001b	e8 00 00 00 00	 call	 ?Py_BuildException@@YAPAU_object@@PBDZZ ; Py_BuildException
  00020	83 c4 04	 add	 esp, 4

; 473  : }

  00023	8b e5		 mov	 esp, ebp
  00025	5d		 pop	 ebp
  00026	c3		 ret	 0
$LN2@netSendNEW:

; 469  : 
; 470  : 	CAccountConnector & rkAccountConnector = CAccountConnector::Instance();
; 471  : 	rkAccountConnector.SendNEWCIBNPasspodAnswerPacket(szMatrixCardString);

  00027	ff 75 fc	 push	 DWORD PTR _szMatrixCardString$[ebp]
  0002a	8b 0d 00 00 00
	00		 mov	 ecx, DWORD PTR ?ms_singleton@?$CSingleton@VCAccountConnector@@@@0PAVCAccountConnector@@A ; CSingleton<CAccountConnector>::ms_singleton
  00030	e8 00 00 00 00	 call	 ?SendNEWCIBNPasspodAnswerPacket@CAccountConnector@@QAE_NPBD@Z ; CAccountConnector::SendNEWCIBNPasspodAnswerPacket

; 472  : 	return Py_BuildNone();

  00035	e8 00 00 00 00	 call	 ?Py_BuildNone@@YAPAU_object@@XZ ; Py_BuildNone

; 473  : }

  0003a	8b e5		 mov	 esp, ebp
  0003c	5d		 pop	 ebp
  0003d	c3		 ret	 0
?netSendNEWCIBNPasspodAnswerPacket@@YAPAU_object@@PAU1@0@Z ENDP ; netSendNEWCIBNPasspodAnswerPacket
_TEXT	ENDS
; Function compile flags: /Ogtp
; File E:\Metin2_server\SolWayneSF v6\ClientVS22\source\UserInterface\PythonNetworkStreamModule.cpp
;	COMDAT ?netDirectEnter@@YAPAU_object@@PAU1@0@Z
_TEXT	SEGMENT
_nChrSlot$ = -4						; size = 4
_poSelf$ = 8						; size = 4
_poArgs$ = 12						; size = 4
?netDirectEnter@@YAPAU_object@@PAU1@0@Z PROC		; netDirectEnter, COMDAT

; 477  : {

  00000	55		 push	 ebp
  00001	8b ec		 mov	 ebp, esp
  00003	51		 push	 ecx

; 478  : 	int nChrSlot;
; 479  : 	if (!PyTuple_GetInteger(poArgs, 0, &nChrSlot))

  00004	8d 45 fc	 lea	 eax, DWORD PTR _nChrSlot$[ebp]
  00007	50		 push	 eax
  00008	6a 00		 push	 0
  0000a	ff 75 0c	 push	 DWORD PTR _poArgs$[ebp]
  0000d	e8 00 00 00 00	 call	 ?PyTuple_GetInteger@@YA_NPAU_object@@HPAH@Z ; PyTuple_GetInteger
  00012	83 c4 0c	 add	 esp, 12			; 0000000cH
  00015	84 c0		 test	 al, al
  00017	75 0e		 jne	 SHORT $LN2@netDirectE

; 480  : 		return Py_BuildException();

  00019	6a 00		 push	 0
  0001b	e8 00 00 00 00	 call	 ?Py_BuildException@@YAPAU_object@@PBDZZ ; Py_BuildException
  00020	83 c4 04	 add	 esp, 4

; 485  : }

  00023	8b e5		 mov	 esp, ebp
  00025	5d		 pop	 ebp
  00026	c3		 ret	 0
$LN2@netDirectE:

; 481  : 
; 482  : 	CPythonNetworkStream& rkNetStream=CPythonNetworkStream::Instance();
; 483  : 	rkNetStream.ConnectGameServer(nChrSlot);

  00027	ff 75 fc	 push	 DWORD PTR _nChrSlot$[ebp]
  0002a	8b 0d 00 00 00
	00		 mov	 ecx, DWORD PTR ?ms_singleton@?$CSingleton@VCPythonNetworkStream@@@@0PAVCPythonNetworkStream@@A ; CSingleton<CPythonNetworkStream>::ms_singleton
  00030	e8 00 00 00 00	 call	 ?ConnectGameServer@CPythonNetworkStream@@QAEXI@Z ; CPythonNetworkStream::ConnectGameServer

; 484  : 	return Py_BuildNone();

  00035	e8 00 00 00 00	 call	 ?Py_BuildNone@@YAPAU_object@@XZ ; Py_BuildNone

; 485  : }

  0003a	8b e5		 mov	 esp, ebp
  0003c	5d		 pop	 ebp
  0003d	c3		 ret	 0
?netDirectEnter@@YAPAU_object@@PAU1@0@Z ENDP		; netDirectEnter
_TEXT	ENDS
; Function compile flags: /Ogtp
; File E:\Metin2_server\SolWayneSF v6\ClientVS22\source\UserInterface\PythonNetworkStreamModule.cpp
;	COMDAT ?netSendSelectCharacterPacket@@YAPAU_object@@PAU1@0@Z
_TEXT	SEGMENT
_Index$ = -4						; size = 4
_poSelf$ = 8						; size = 4
_poArgs$ = 12						; size = 4
?netSendSelectCharacterPacket@@YAPAU_object@@PAU1@0@Z PROC ; netSendSelectCharacterPacket, COMDAT

; 488  : {

  00000	55		 push	 ebp
  00001	8b ec		 mov	 ebp, esp
  00003	51		 push	 ecx

; 489  : 	int Index;
; 490  : 	if (!PyTuple_GetInteger(poArgs, 0, &Index))

  00004	8d 45 fc	 lea	 eax, DWORD PTR _Index$[ebp]
  00007	50		 push	 eax
  00008	6a 00		 push	 0
  0000a	ff 75 0c	 push	 DWORD PTR _poArgs$[ebp]
  0000d	e8 00 00 00 00	 call	 ?PyTuple_GetInteger@@YA_NPAU_object@@HPAH@Z ; PyTuple_GetInteger
  00012	83 c4 0c	 add	 esp, 12			; 0000000cH
  00015	84 c0		 test	 al, al
  00017	75 0e		 jne	 SHORT $LN2@netSendSel

; 491  : 		return Py_BuildException();

  00019	6a 00		 push	 0
  0001b	e8 00 00 00 00	 call	 ?Py_BuildException@@YAPAU_object@@PBDZZ ; Py_BuildException
  00020	83 c4 04	 add	 esp, 4

; 496  : }

  00023	8b e5		 mov	 esp, ebp
  00025	5d		 pop	 ebp
  00026	c3		 ret	 0
$LN2@netSendSel:

; 492  : 
; 493  : 	CPythonNetworkStream& rkNetStream=CPythonNetworkStream::Instance();
; 494  : 	rkNetStream.SendSelectCharacterPacket((BYTE) Index);

  00027	ff 75 fc	 push	 DWORD PTR _Index$[ebp]
  0002a	8b 0d 00 00 00
	00		 mov	 ecx, DWORD PTR ?ms_singleton@?$CSingleton@VCPythonNetworkStream@@@@0PAVCPythonNetworkStream@@A ; CSingleton<CPythonNetworkStream>::ms_singleton
  00030	e8 00 00 00 00	 call	 ?SendSelectCharacterPacket@CPythonNetworkStream@@QAE_NE@Z ; CPythonNetworkStream::SendSelectCharacterPacket

; 495  : 	return Py_BuildNone();

  00035	e8 00 00 00 00	 call	 ?Py_BuildNone@@YAPAU_object@@XZ ; Py_BuildNone

; 496  : }

  0003a	8b e5		 mov	 esp, ebp
  0003c	5d		 pop	 ebp
  0003d	c3		 ret	 0
?netSendSelectCharacterPacket@@YAPAU_object@@PAU1@0@Z ENDP ; netSendSelectCharacterPacket
_TEXT	ENDS
; Function compile flags: /Ogtp
; File E:\Metin2_server\SolWayneSF v6\ClientVS22\source\UserInterface\PythonNetworkStreamModule.cpp
;	COMDAT ?netSendChangeNamePacket@@YAPAU_object@@PAU1@0@Z
_TEXT	SEGMENT
_iIndex$ = -8						; size = 4
_szName$ = -4						; size = 4
_poSelf$ = 8						; size = 4
_poArgs$ = 12						; size = 4
?netSendChangeNamePacket@@YAPAU_object@@PAU1@0@Z PROC	; netSendChangeNamePacket, COMDAT

; 499  : {

  00000	55		 push	 ebp
  00001	8b ec		 mov	 ebp, esp
  00003	83 ec 08	 sub	 esp, 8

; 500  : 	int iIndex;
; 501  : 	if (!PyTuple_GetInteger(poArgs, 0, &iIndex))

  00006	8d 45 f8	 lea	 eax, DWORD PTR _iIndex$[ebp]
  00009	50		 push	 eax
  0000a	6a 00		 push	 0
  0000c	ff 75 0c	 push	 DWORD PTR _poArgs$[ebp]
  0000f	e8 00 00 00 00	 call	 ?PyTuple_GetInteger@@YA_NPAU_object@@HPAH@Z ; PyTuple_GetInteger
  00014	83 c4 0c	 add	 esp, 12			; 0000000cH
  00017	84 c0		 test	 al, al
  00019	75 0e		 jne	 SHORT $LN2@netSendCha
$LN5@netSendCha:

; 510  : }

  0001b	6a 00		 push	 0
  0001d	e8 00 00 00 00	 call	 ?Py_BuildException@@YAPAU_object@@PBDZZ ; Py_BuildException
  00022	83 c4 04	 add	 esp, 4
  00025	8b e5		 mov	 esp, ebp
  00027	5d		 pop	 ebp
  00028	c3		 ret	 0
$LN2@netSendCha:

; 502  : 		return Py_BuildException();
; 503  : 	char* szName;
; 504  : 	if (!PyTuple_GetString(poArgs, 1, &szName))

  00029	8d 45 fc	 lea	 eax, DWORD PTR _szName$[ebp]
  0002c	50		 push	 eax
  0002d	6a 01		 push	 1
  0002f	ff 75 0c	 push	 DWORD PTR _poArgs$[ebp]
  00032	e8 00 00 00 00	 call	 ?PyTuple_GetString@@YA_NPAU_object@@HPAPAD@Z ; PyTuple_GetString
  00037	83 c4 0c	 add	 esp, 12			; 0000000cH
  0003a	84 c0		 test	 al, al
  0003c	74 dd		 je	 SHORT $LN5@netSendCha

; 505  : 		return Py_BuildException();
; 506  : 
; 507  : 	CPythonNetworkStream& rkNetStream=CPythonNetworkStream::Instance();
; 508  : 	rkNetStream.SendChangeNamePacket((BYTE)iIndex, szName);

  0003e	ff 75 fc	 push	 DWORD PTR _szName$[ebp]
  00041	8b 0d 00 00 00
	00		 mov	 ecx, DWORD PTR ?ms_singleton@?$CSingleton@VCPythonNetworkStream@@@@0PAVCPythonNetworkStream@@A ; CSingleton<CPythonNetworkStream>::ms_singleton
  00047	ff 75 f8	 push	 DWORD PTR _iIndex$[ebp]
  0004a	e8 00 00 00 00	 call	 ?SendChangeNamePacket@CPythonNetworkStream@@QAE_NEPBD@Z ; CPythonNetworkStream::SendChangeNamePacket

; 509  : 	return Py_BuildNone();

  0004f	e8 00 00 00 00	 call	 ?Py_BuildNone@@YAPAU_object@@XZ ; Py_BuildNone

; 510  : }

  00054	8b e5		 mov	 esp, ebp
  00056	5d		 pop	 ebp
  00057	c3		 ret	 0
?netSendChangeNamePacket@@YAPAU_object@@PAU1@0@Z ENDP	; netSendChangeNamePacket
_TEXT	ENDS
; Function compile flags: /Ogtp
; File E:\Metin2_server\SolWayneSF v6\ClientVS22\source\UserInterface\PythonNetworkStreamModule.cpp
;	COMDAT ?netEnableChatInsultFilter@@YAPAU_object@@PAU1@0@Z
_TEXT	SEGMENT
_nEnable$ = -4						; size = 4
_poSelf$ = 8						; size = 4
_poArgs$ = 12						; size = 4
?netEnableChatInsultFilter@@YAPAU_object@@PAU1@0@Z PROC	; netEnableChatInsultFilter, COMDAT

; 513  : {

  00000	55		 push	 ebp
  00001	8b ec		 mov	 ebp, esp
  00003	51		 push	 ecx

; 514  : 	int nEnable;
; 515  : 	if (!PyTuple_GetInteger(poArgs, 0, &nEnable))

  00004	8d 45 fc	 lea	 eax, DWORD PTR _nEnable$[ebp]
  00007	50		 push	 eax
  00008	6a 00		 push	 0
  0000a	ff 75 0c	 push	 DWORD PTR _poArgs$[ebp]
  0000d	e8 00 00 00 00	 call	 ?PyTuple_GetInteger@@YA_NPAU_object@@HPAH@Z ; PyTuple_GetInteger
  00012	83 c4 0c	 add	 esp, 12			; 0000000cH
  00015	84 c0		 test	 al, al
  00017	75 0e		 jne	 SHORT $LN2@netEnableC

; 516  : 		return Py_BuildException();

  00019	6a 00		 push	 0
  0001b	e8 00 00 00 00	 call	 ?Py_BuildException@@YAPAU_object@@PBDZZ ; Py_BuildException
  00020	83 c4 04	 add	 esp, 4

; 521  : }

  00023	8b e5		 mov	 esp, ebp
  00025	5d		 pop	 ebp
  00026	c3		 ret	 0
$LN2@netEnableC:

; 517  : 
; 518  : 	CPythonNetworkStream& rkNetStream=CPythonNetworkStream::Instance();
; 519  : 	rkNetStream.EnableChatInsultFilter(nEnable ? true : false);

  00027	83 7d fc 00	 cmp	 DWORD PTR _nEnable$[ebp], 0
  0002b	8b 0d 00 00 00
	00		 mov	 ecx, DWORD PTR ?ms_singleton@?$CSingleton@VCPythonNetworkStream@@@@0PAVCPythonNetworkStream@@A ; CSingleton<CPythonNetworkStream>::ms_singleton
  00031	0f 95 c0	 setne	 al
  00034	0f b6 c0	 movzx	 eax, al
  00037	50		 push	 eax
  00038	e8 00 00 00 00	 call	 ?EnableChatInsultFilter@CPythonNetworkStream@@QAEX_N@Z ; CPythonNetworkStream::EnableChatInsultFilter

; 520  : 	return Py_BuildNone();

  0003d	e8 00 00 00 00	 call	 ?Py_BuildNone@@YAPAU_object@@XZ ; Py_BuildNone

; 521  : }

  00042	8b e5		 mov	 esp, ebp
  00044	5d		 pop	 ebp
  00045	c3		 ret	 0
?netEnableChatInsultFilter@@YAPAU_object@@PAU1@0@Z ENDP	; netEnableChatInsultFilter
_TEXT	ENDS
; Function compile flags: /Ogtp
; File E:\Metin2_server\SolWayneSF v6\ClientVS22\source\UserInterface\PythonNetworkStreamModule.cpp
;	COMDAT ?netIsChatInsultIn@@YAPAU_object@@PAU1@0@Z
_TEXT	SEGMENT
_szMsg$ = -4						; size = 4
_poSelf$ = 8						; size = 4
_poArgs$ = 12						; size = 4
?netIsChatInsultIn@@YAPAU_object@@PAU1@0@Z PROC		; netIsChatInsultIn, COMDAT

; 524  : {

  00000	55		 push	 ebp
  00001	8b ec		 mov	 ebp, esp
  00003	51		 push	 ecx

; 525  : 	char* szMsg;
; 526  : 	if (!PyTuple_GetString(poArgs, 0, &szMsg))

  00004	8d 45 fc	 lea	 eax, DWORD PTR _szMsg$[ebp]
  00007	50		 push	 eax
  00008	6a 00		 push	 0
  0000a	ff 75 0c	 push	 DWORD PTR _poArgs$[ebp]
  0000d	e8 00 00 00 00	 call	 ?PyTuple_GetString@@YA_NPAU_object@@HPAPAD@Z ; PyTuple_GetString
  00012	83 c4 0c	 add	 esp, 12			; 0000000cH
  00015	84 c0		 test	 al, al
  00017	75 0e		 jne	 SHORT $LN2@netIsChatI

; 527  : 		return Py_BuildException();

  00019	6a 00		 push	 0
  0001b	e8 00 00 00 00	 call	 ?Py_BuildException@@YAPAU_object@@PBDZZ ; Py_BuildException
  00020	83 c4 04	 add	 esp, 4

; 531  : }

  00023	8b e5		 mov	 esp, ebp
  00025	5d		 pop	 ebp
  00026	c3		 ret	 0
$LN2@netIsChatI:

; 528  : 
; 529  : 	CPythonNetworkStream& rkNetStream=CPythonNetworkStream::Instance();
; 530  : 	return Py_BuildValue("i", rkNetStream.IsChatInsultIn(szMsg));

  00027	ff 75 fc	 push	 DWORD PTR _szMsg$[ebp]
  0002a	8b 0d 00 00 00
	00		 mov	 ecx, DWORD PTR ?ms_singleton@?$CSingleton@VCPythonNetworkStream@@@@0PAVCPythonNetworkStream@@A ; CSingleton<CPythonNetworkStream>::ms_singleton
  00030	e8 00 00 00 00	 call	 ?IsChatInsultIn@CPythonNetworkStream@@QAE_NPBD@Z ; CPythonNetworkStream::IsChatInsultIn
  00035	0f b6 c0	 movzx	 eax, al
  00038	50		 push	 eax
  00039	68 00 00 00 00	 push	 OFFSET ??_C@_01KBJDNOO@i@
  0003e	ff 15 00 00 00
	00		 call	 DWORD PTR __imp__Py_BuildValue
  00044	83 c4 08	 add	 esp, 8

; 531  : }

  00047	8b e5		 mov	 esp, ebp
  00049	5d		 pop	 ebp
  0004a	c3		 ret	 0
?netIsChatInsultIn@@YAPAU_object@@PAU1@0@Z ENDP		; netIsChatInsultIn
_TEXT	ENDS
; Function compile flags: /Ogtp
; File E:\Metin2_server\SolWayneSF v6\ClientVS22\source\UserInterface\PythonNetworkStreamModule.cpp
;	COMDAT ?netIsInsultIn@@YAPAU_object@@PAU1@0@Z
_TEXT	SEGMENT
_szMsg$ = -4						; size = 4
_poSelf$ = 8						; size = 4
_poArgs$ = 12						; size = 4
?netIsInsultIn@@YAPAU_object@@PAU1@0@Z PROC		; netIsInsultIn, COMDAT

; 535  : {

  00000	55		 push	 ebp
  00001	8b ec		 mov	 ebp, esp
  00003	51		 push	 ecx

; 536  : 	char* szMsg;
; 537  : 	if (!PyTuple_GetString(poArgs, 0, &szMsg))

  00004	8d 45 fc	 lea	 eax, DWORD PTR _szMsg$[ebp]
  00007	50		 push	 eax
  00008	6a 00		 push	 0
  0000a	ff 75 0c	 push	 DWORD PTR _poArgs$[ebp]
  0000d	e8 00 00 00 00	 call	 ?PyTuple_GetString@@YA_NPAU_object@@HPAPAD@Z ; PyTuple_GetString
  00012	83 c4 0c	 add	 esp, 12			; 0000000cH
  00015	84 c0		 test	 al, al
  00017	75 0e		 jne	 SHORT $LN2@netIsInsul

; 538  : 		return Py_BuildException();

  00019	6a 00		 push	 0
  0001b	e8 00 00 00 00	 call	 ?Py_BuildException@@YAPAU_object@@PBDZZ ; Py_BuildException
  00020	83 c4 04	 add	 esp, 4

; 542  : }

  00023	8b e5		 mov	 esp, ebp
  00025	5d		 pop	 ebp
  00026	c3		 ret	 0
$LN2@netIsInsul:

; 539  : 
; 540  : 	CPythonNetworkStream& rkNetStream=CPythonNetworkStream::Instance();
; 541  : 	return Py_BuildValue("i", rkNetStream.IsInsultIn(szMsg));

  00027	ff 75 fc	 push	 DWORD PTR _szMsg$[ebp]
  0002a	8b 0d 00 00 00
	00		 mov	 ecx, DWORD PTR ?ms_singleton@?$CSingleton@VCPythonNetworkStream@@@@0PAVCPythonNetworkStream@@A ; CSingleton<CPythonNetworkStream>::ms_singleton
  00030	e8 00 00 00 00	 call	 ?IsInsultIn@CPythonNetworkStream@@QAE_NPBD@Z ; CPythonNetworkStream::IsInsultIn
  00035	0f b6 c0	 movzx	 eax, al
  00038	50		 push	 eax
  00039	68 00 00 00 00	 push	 OFFSET ??_C@_01KBJDNOO@i@
  0003e	ff 15 00 00 00
	00		 call	 DWORD PTR __imp__Py_BuildValue
  00044	83 c4 08	 add	 esp, 8

; 542  : }

  00047	8b e5		 mov	 esp, ebp
  00049	5d		 pop	 ebp
  0004a	c3		 ret	 0
?netIsInsultIn@@YAPAU_object@@PAU1@0@Z ENDP		; netIsInsultIn
_TEXT	ENDS
; Function compile flags: /Ogtp
; File E:\Metin2_server\SolWayneSF v6\ClientVS22\source\UserInterface\PythonNetworkStreamModule.cpp
;	COMDAT ?netSendWhisperPacket@@YAPAU_object@@PAU1@0@Z
_TEXT	SEGMENT
_szName$ = -8						; size = 4
_szLine$ = -4						; size = 4
_poSelf$ = 8						; size = 4
_poArgs$ = 12						; size = 4
?netSendWhisperPacket@@YAPAU_object@@PAU1@0@Z PROC	; netSendWhisperPacket, COMDAT

; 545  : {

  00000	55		 push	 ebp
  00001	8b ec		 mov	 ebp, esp
  00003	83 ec 08	 sub	 esp, 8

; 546  : 	char* szName;
; 547  : 	char* szLine;
; 548  : 
; 549  : 	if (!PyTuple_GetString(poArgs, 0, &szName))

  00006	8d 45 f8	 lea	 eax, DWORD PTR _szName$[ebp]
  00009	50		 push	 eax
  0000a	6a 00		 push	 0
  0000c	ff 75 0c	 push	 DWORD PTR _poArgs$[ebp]
  0000f	e8 00 00 00 00	 call	 ?PyTuple_GetString@@YA_NPAU_object@@HPAPAD@Z ; PyTuple_GetString
  00014	83 c4 0c	 add	 esp, 12			; 0000000cH
  00017	84 c0		 test	 al, al
  00019	75 0e		 jne	 SHORT $LN2@netSendWhi
$LN5@netSendWhi:

; 558  : }

  0001b	6a 00		 push	 0
  0001d	e8 00 00 00 00	 call	 ?Py_BuildException@@YAPAU_object@@PBDZZ ; Py_BuildException
  00022	83 c4 04	 add	 esp, 4
  00025	8b e5		 mov	 esp, ebp
  00027	5d		 pop	 ebp
  00028	c3		 ret	 0
$LN2@netSendWhi:

; 550  : 		return Py_BuildException();
; 551  : 
; 552  : 	if (!PyTuple_GetString(poArgs, 1, &szLine))

  00029	8d 45 fc	 lea	 eax, DWORD PTR _szLine$[ebp]
  0002c	50		 push	 eax
  0002d	6a 01		 push	 1
  0002f	ff 75 0c	 push	 DWORD PTR _poArgs$[ebp]
  00032	e8 00 00 00 00	 call	 ?PyTuple_GetString@@YA_NPAU_object@@HPAPAD@Z ; PyTuple_GetString
  00037	83 c4 0c	 add	 esp, 12			; 0000000cH
  0003a	84 c0		 test	 al, al
  0003c	74 dd		 je	 SHORT $LN5@netSendWhi

; 553  : 		return Py_BuildException();
; 554  : 
; 555  : 	CPythonNetworkStream& rkNetStream=CPythonNetworkStream::Instance();
; 556  : 	rkNetStream.SendWhisperPacket(szName, szLine);

  0003e	ff 75 fc	 push	 DWORD PTR _szLine$[ebp]
  00041	8b 0d 00 00 00
	00		 mov	 ecx, DWORD PTR ?ms_singleton@?$CSingleton@VCPythonNetworkStream@@@@0PAVCPythonNetworkStream@@A ; CSingleton<CPythonNetworkStream>::ms_singleton
  00047	ff 75 f8	 push	 DWORD PTR _szName$[ebp]
  0004a	e8 00 00 00 00	 call	 ?SendWhisperPacket@CPythonNetworkStream@@QAE_NPBD0@Z ; CPythonNetworkStream::SendWhisperPacket

; 557  : 	return Py_BuildNone();

  0004f	e8 00 00 00 00	 call	 ?Py_BuildNone@@YAPAU_object@@XZ ; Py_BuildNone

; 558  : }

  00054	8b e5		 mov	 esp, ebp
  00056	5d		 pop	 ebp
  00057	c3		 ret	 0
?netSendWhisperPacket@@YAPAU_object@@PAU1@0@Z ENDP	; netSendWhisperPacket
_TEXT	ENDS
; Function compile flags: /Ogtp
; File E:\Metin2_server\SolWayneSF v6\ClientVS22\source\UserInterface\PythonNetworkStreamModule.cpp
;	COMDAT ?netSendMobileMessagePacket@@YAPAU_object@@PAU1@0@Z
_TEXT	SEGMENT
_szName$ = -8						; size = 4
_szLine$ = -4						; size = 4
_poSelf$ = 8						; size = 4
_poArgs$ = 12						; size = 4
?netSendMobileMessagePacket@@YAPAU_object@@PAU1@0@Z PROC ; netSendMobileMessagePacket, COMDAT

; 561  : {

  00000	55		 push	 ebp
  00001	8b ec		 mov	 ebp, esp
  00003	83 ec 08	 sub	 esp, 8

; 562  : 	char* szName;
; 563  : 	char* szLine;
; 564  : 	if (!PyTuple_GetString(poArgs, 0, &szName))

  00006	8d 45 f8	 lea	 eax, DWORD PTR _szName$[ebp]
  00009	50		 push	 eax
  0000a	6a 00		 push	 0
  0000c	ff 75 0c	 push	 DWORD PTR _poArgs$[ebp]
  0000f	e8 00 00 00 00	 call	 ?PyTuple_GetString@@YA_NPAU_object@@HPAPAD@Z ; PyTuple_GetString
  00014	83 c4 0c	 add	 esp, 12			; 0000000cH
  00017	84 c0		 test	 al, al
  00019	75 0e		 jne	 SHORT $LN2@netSendMob
$LN5@netSendMob:

; 573  : }

  0001b	6a 00		 push	 0
  0001d	e8 00 00 00 00	 call	 ?Py_BuildException@@YAPAU_object@@PBDZZ ; Py_BuildException
  00022	83 c4 04	 add	 esp, 4
  00025	8b e5		 mov	 esp, ebp
  00027	5d		 pop	 ebp
  00028	c3		 ret	 0
$LN2@netSendMob:

; 565  : 		return Py_BuildException();
; 566  : 
; 567  : 	if (!PyTuple_GetString(poArgs, 1, &szLine))

  00029	8d 45 fc	 lea	 eax, DWORD PTR _szLine$[ebp]
  0002c	50		 push	 eax
  0002d	6a 01		 push	 1
  0002f	ff 75 0c	 push	 DWORD PTR _poArgs$[ebp]
  00032	e8 00 00 00 00	 call	 ?PyTuple_GetString@@YA_NPAU_object@@HPAPAD@Z ; PyTuple_GetString
  00037	83 c4 0c	 add	 esp, 12			; 0000000cH
  0003a	84 c0		 test	 al, al
  0003c	74 dd		 je	 SHORT $LN5@netSendMob

; 568  : 		return Py_BuildException();
; 569  : 
; 570  : 	CPythonNetworkStream& rkNetStream=CPythonNetworkStream::Instance();
; 571  : 	rkNetStream.SendMobileMessagePacket(szName, szLine);

  0003e	ff 75 fc	 push	 DWORD PTR _szLine$[ebp]
  00041	8b 0d 00 00 00
	00		 mov	 ecx, DWORD PTR ?ms_singleton@?$CSingleton@VCPythonNetworkStream@@@@0PAVCPythonNetworkStream@@A ; CSingleton<CPythonNetworkStream>::ms_singleton
  00047	ff 75 f8	 push	 DWORD PTR _szName$[ebp]
  0004a	e8 00 00 00 00	 call	 ?SendMobileMessagePacket@CPythonNetworkStream@@QAE_NPBD0@Z ; CPythonNetworkStream::SendMobileMessagePacket

; 572  : 	return Py_BuildNone();

  0004f	e8 00 00 00 00	 call	 ?Py_BuildNone@@YAPAU_object@@XZ ; Py_BuildNone

; 573  : }

  00054	8b e5		 mov	 esp, ebp
  00056	5d		 pop	 ebp
  00057	c3		 ret	 0
?netSendMobileMessagePacket@@YAPAU_object@@PAU1@0@Z ENDP ; netSendMobileMessagePacket
_TEXT	ENDS
; Function compile flags: /Ogtp
; File E:\Metin2_server\SolWayneSF v6\ClientVS22\source\UserInterface\PythonNetworkStreamModule.cpp
;	COMDAT ?netSendCharacterPositionPacket@@YAPAU_object@@PAU1@0@Z
_TEXT	SEGMENT
_iPosition$ = -4					; size = 4
_poSelf$ = 8						; size = 4
_poArgs$ = 12						; size = 4
?netSendCharacterPositionPacket@@YAPAU_object@@PAU1@0@Z PROC ; netSendCharacterPositionPacket, COMDAT

; 576  : {

  00000	55		 push	 ebp
  00001	8b ec		 mov	 ebp, esp
  00003	51		 push	 ecx

; 577  : 	int iPosition;
; 578  : 	if (!PyTuple_GetInteger(poArgs, 0, &iPosition))

  00004	8d 45 fc	 lea	 eax, DWORD PTR _iPosition$[ebp]
  00007	50		 push	 eax
  00008	6a 00		 push	 0
  0000a	ff 75 0c	 push	 DWORD PTR _poArgs$[ebp]
  0000d	e8 00 00 00 00	 call	 ?PyTuple_GetInteger@@YA_NPAU_object@@HPAH@Z ; PyTuple_GetInteger
  00012	83 c4 0c	 add	 esp, 12			; 0000000cH
  00015	84 c0		 test	 al, al
  00017	75 0e		 jne	 SHORT $LN2@netSendCha

; 579  : 		return Py_BuildException();

  00019	6a 00		 push	 0
  0001b	e8 00 00 00 00	 call	 ?Py_BuildException@@YAPAU_object@@PBDZZ ; Py_BuildException
  00020	83 c4 04	 add	 esp, 4

; 584  : }

  00023	8b e5		 mov	 esp, ebp
  00025	5d		 pop	 ebp
  00026	c3		 ret	 0
$LN2@netSendCha:

; 580  : 
; 581  : 	CPythonNetworkStream& rkNetStream=CPythonNetworkStream::Instance();
; 582  : 	rkNetStream.SendCharacterPositionPacket((BYTE) iPosition);

  00027	ff 75 fc	 push	 DWORD PTR _iPosition$[ebp]
  0002a	8b 0d 00 00 00
	00		 mov	 ecx, DWORD PTR ?ms_singleton@?$CSingleton@VCPythonNetworkStream@@@@0PAVCPythonNetworkStream@@A ; CSingleton<CPythonNetworkStream>::ms_singleton
  00030	e8 00 00 00 00	 call	 ?SendCharacterPositionPacket@CPythonNetworkStream@@QAE_NE@Z ; CPythonNetworkStream::SendCharacterPositionPacket

; 583  : 	return Py_BuildNone();

  00035	e8 00 00 00 00	 call	 ?Py_BuildNone@@YAPAU_object@@XZ ; Py_BuildNone

; 584  : }

  0003a	8b e5		 mov	 esp, ebp
  0003c	5d		 pop	 ebp
  0003d	c3		 ret	 0
?netSendCharacterPositionPacket@@YAPAU_object@@PAU1@0@Z ENDP ; netSendCharacterPositionPacket
_TEXT	ENDS
; Function compile flags: /Ogtp
; File E:\Metin2_server\SolWayneSF v6\ClientVS22\source\UserInterface\PythonNetworkStreamModule.cpp
;	COMDAT ?netSendChatPacket@@YAPAU_object@@PAU1@0@Z
_TEXT	SEGMENT
_szLine$ = -8						; size = 4
_iType$ = -4						; size = 4
_poSelf$ = 8						; size = 4
_poArgs$ = 12						; size = 4
?netSendChatPacket@@YAPAU_object@@PAU1@0@Z PROC		; netSendChatPacket, COMDAT

; 587  : {

  00000	55		 push	 ebp
  00001	8b ec		 mov	 ebp, esp
  00003	83 ec 08	 sub	 esp, 8

; 588  : 	char* szLine;
; 589  : 	if (!PyTuple_GetString(poArgs, 0, &szLine))

  00006	8d 45 f8	 lea	 eax, DWORD PTR _szLine$[ebp]
  00009	50		 push	 eax
  0000a	6a 00		 push	 0
  0000c	ff 75 0c	 push	 DWORD PTR _poArgs$[ebp]
  0000f	e8 00 00 00 00	 call	 ?PyTuple_GetString@@YA_NPAU_object@@HPAPAD@Z ; PyTuple_GetString
  00014	83 c4 0c	 add	 esp, 12			; 0000000cH
  00017	84 c0		 test	 al, al
  00019	75 0e		 jne	 SHORT $LN2@netSendCha

; 590  : 		return Py_BuildException();

  0001b	6a 00		 push	 0
  0001d	e8 00 00 00 00	 call	 ?Py_BuildException@@YAPAU_object@@PBDZZ ; Py_BuildException
  00022	83 c4 04	 add	 esp, 4

; 600  : }

  00025	8b e5		 mov	 esp, ebp
  00027	5d		 pop	 ebp
  00028	c3		 ret	 0
$LN2@netSendCha:

; 591  : 	int iType;
; 592  : 	if (!PyTuple_GetInteger(poArgs, 1, &iType))

  00029	8d 45 fc	 lea	 eax, DWORD PTR _iType$[ebp]
  0002c	50		 push	 eax
  0002d	6a 01		 push	 1
  0002f	ff 75 0c	 push	 DWORD PTR _poArgs$[ebp]
  00032	e8 00 00 00 00	 call	 ?PyTuple_GetInteger@@YA_NPAU_object@@HPAH@Z ; PyTuple_GetInteger
  00037	8b 4d fc	 mov	 ecx, DWORD PTR _iType$[ebp]
  0003a	83 c4 0c	 add	 esp, 12			; 0000000cH
  0003d	33 d2		 xor	 edx, edx
  0003f	84 c0		 test	 al, al
  00041	0f 44 ca	 cmove	 ecx, edx

; 593  : 	{
; 594  : 		iType = CHAT_TYPE_TALKING;
; 595  : 	}
; 596  : 
; 597  : 	CPythonNetworkStream& rkNetStream=CPythonNetworkStream::Instance();
; 598  : 	rkNetStream.SendChatPacket(szLine, iType);

  00044	51		 push	 ecx
  00045	ff 75 f8	 push	 DWORD PTR _szLine$[ebp]
  00048	89 4d fc	 mov	 DWORD PTR _iType$[ebp], ecx
  0004b	8b 0d 00 00 00
	00		 mov	 ecx, DWORD PTR ?ms_singleton@?$CSingleton@VCPythonNetworkStream@@@@0PAVCPythonNetworkStream@@A ; CSingleton<CPythonNetworkStream>::ms_singleton
  00051	e8 00 00 00 00	 call	 ?SendChatPacket@CPythonNetworkStream@@QAE_NPBDE@Z ; CPythonNetworkStream::SendChatPacket

; 599  : 	return Py_BuildNone();

  00056	e8 00 00 00 00	 call	 ?Py_BuildNone@@YAPAU_object@@XZ ; Py_BuildNone

; 600  : }

  0005b	8b e5		 mov	 esp, ebp
  0005d	5d		 pop	 ebp
  0005e	c3		 ret	 0
?netSendChatPacket@@YAPAU_object@@PAU1@0@Z ENDP		; netSendChatPacket
_TEXT	ENDS
; Function compile flags: /Ogtp
; File E:\Metin2_server\SolWayneSF v6\ClientVS22\source\UserInterface\PythonNetworkStreamModule.cpp
;	COMDAT ?netSendEmoticon@@YAPAU_object@@PAU1@0@Z
_TEXT	SEGMENT
_eEmoticon$ = -4					; size = 4
_poSelf$ = 8						; size = 4
_poArgs$ = 12						; size = 4
?netSendEmoticon@@YAPAU_object@@PAU1@0@Z PROC		; netSendEmoticon, COMDAT

; 603  : {

  00000	55		 push	 ebp
  00001	8b ec		 mov	 ebp, esp
  00003	51		 push	 ecx

; 604  : 	int eEmoticon;
; 605  : 	if (!PyTuple_GetInteger(poArgs, 0, &eEmoticon))

  00004	8d 45 fc	 lea	 eax, DWORD PTR _eEmoticon$[ebp]
  00007	50		 push	 eax
  00008	6a 00		 push	 0
  0000a	ff 75 0c	 push	 DWORD PTR _poArgs$[ebp]
  0000d	e8 00 00 00 00	 call	 ?PyTuple_GetInteger@@YA_NPAU_object@@HPAH@Z ; PyTuple_GetInteger
  00012	83 c4 0c	 add	 esp, 12			; 0000000cH
  00015	84 c0		 test	 al, al
  00017	75 0e		 jne	 SHORT $LN2@netSendEmo

; 606  : 		return Py_BuildException();

  00019	6a 00		 push	 0
  0001b	e8 00 00 00 00	 call	 ?Py_BuildException@@YAPAU_object@@PBDZZ ; Py_BuildException
  00020	83 c4 04	 add	 esp, 4

; 611  : }

  00023	8b e5		 mov	 esp, ebp
  00025	5d		 pop	 ebp
  00026	c3		 ret	 0
$LN2@netSendEmo:

; 607  : 
; 608  : 	CPythonNetworkStream& rkNetStream=CPythonNetworkStream::Instance();
; 609  : 	rkNetStream.SendEmoticon(eEmoticon);

  00027	ff 75 fc	 push	 DWORD PTR _eEmoticon$[ebp]
  0002a	8b 0d 00 00 00
	00		 mov	 ecx, DWORD PTR ?ms_singleton@?$CSingleton@VCPythonNetworkStream@@@@0PAVCPythonNetworkStream@@A ; CSingleton<CPythonNetworkStream>::ms_singleton
  00030	e8 00 00 00 00	 call	 ?SendEmoticon@CPythonNetworkStream@@QAEXI@Z ; CPythonNetworkStream::SendEmoticon

; 610  : 	return Py_BuildNone();

  00035	e8 00 00 00 00	 call	 ?Py_BuildNone@@YAPAU_object@@XZ ; Py_BuildNone

; 611  : }

  0003a	8b e5		 mov	 esp, ebp
  0003c	5d		 pop	 ebp
  0003d	c3		 ret	 0
?netSendEmoticon@@YAPAU_object@@PAU1@0@Z ENDP		; netSendEmoticon
_TEXT	ENDS
; Function compile flags: /Ogtp
; File E:\Metin2_server\SolWayneSF v6\ClientVS22\source\UserInterface\PythonNetworkStreamModule.cpp
;	COMDAT ?netSendCreateCharacterPacket@@YAPAU_object@@PAU1@0@Z
_TEXT	SEGMENT
_name$ = -32						; size = 4
_job$ = -28						; size = 4
_shape$ = -24						; size = 4
_stat1$ = -20						; size = 4
_stat2$ = -16						; size = 4
_stat3$ = -12						; size = 4
_stat4$ = -8						; size = 4
_index$ = -4						; size = 4
_poSelf$ = 8						; size = 4
_poArgs$ = 12						; size = 4
?netSendCreateCharacterPacket@@YAPAU_object@@PAU1@0@Z PROC ; netSendCreateCharacterPacket, COMDAT

; 614  : {

  00000	55		 push	 ebp
  00001	8b ec		 mov	 ebp, esp
  00003	83 ec 20	 sub	 esp, 32			; 00000020H

; 615  : 	int index;
; 616  : 	if (!PyTuple_GetInteger(poArgs, 0, &index))

  00006	8d 45 fc	 lea	 eax, DWORD PTR _index$[ebp]
  00009	56		 push	 esi
  0000a	8b 75 0c	 mov	 esi, DWORD PTR _poArgs$[ebp]
  0000d	50		 push	 eax
  0000e	6a 00		 push	 0
  00010	56		 push	 esi
  00011	e8 00 00 00 00	 call	 ?PyTuple_GetInteger@@YA_NPAU_object@@HPAH@Z ; PyTuple_GetInteger
  00016	83 c4 0c	 add	 esp, 12			; 0000000cH
  00019	84 c0		 test	 al, al
  0001b	75 0f		 jne	 SHORT $LN2@netSendCre
$LN12@netSendCre:

; 650  : }

  0001d	6a 00		 push	 0
  0001f	e8 00 00 00 00	 call	 ?Py_BuildException@@YAPAU_object@@PBDZZ ; Py_BuildException
  00024	83 c4 04	 add	 esp, 4
  00027	5e		 pop	 esi
  00028	8b e5		 mov	 esp, ebp
  0002a	5d		 pop	 ebp
  0002b	c3		 ret	 0
$LN2@netSendCre:

; 617  : 		return Py_BuildException();
; 618  : 
; 619  : 	char* name;
; 620  : 	if (!PyTuple_GetString(poArgs, 1, &name))

  0002c	8d 45 e0	 lea	 eax, DWORD PTR _name$[ebp]
  0002f	50		 push	 eax
  00030	6a 01		 push	 1
  00032	56		 push	 esi
  00033	e8 00 00 00 00	 call	 ?PyTuple_GetString@@YA_NPAU_object@@HPAPAD@Z ; PyTuple_GetString
  00038	83 c4 0c	 add	 esp, 12			; 0000000cH
  0003b	84 c0		 test	 al, al
  0003d	74 de		 je	 SHORT $LN12@netSendCre

; 621  : 		return Py_BuildException();
; 622  : 
; 623  : 	int job;
; 624  : 	if (!PyTuple_GetInteger(poArgs, 2, &job))

  0003f	8d 45 e4	 lea	 eax, DWORD PTR _job$[ebp]
  00042	50		 push	 eax
  00043	6a 02		 push	 2
  00045	56		 push	 esi
  00046	e8 00 00 00 00	 call	 ?PyTuple_GetInteger@@YA_NPAU_object@@HPAH@Z ; PyTuple_GetInteger
  0004b	83 c4 0c	 add	 esp, 12			; 0000000cH
  0004e	84 c0		 test	 al, al
  00050	74 cb		 je	 SHORT $LN12@netSendCre

; 625  : 		return Py_BuildException();
; 626  : 
; 627  : 	int shape;
; 628  : 	if (!PyTuple_GetInteger(poArgs, 3, &shape))

  00052	8d 45 e8	 lea	 eax, DWORD PTR _shape$[ebp]
  00055	50		 push	 eax
  00056	6a 03		 push	 3
  00058	56		 push	 esi
  00059	e8 00 00 00 00	 call	 ?PyTuple_GetInteger@@YA_NPAU_object@@HPAH@Z ; PyTuple_GetInteger
  0005e	83 c4 0c	 add	 esp, 12			; 0000000cH
  00061	84 c0		 test	 al, al
  00063	74 b8		 je	 SHORT $LN12@netSendCre

; 629  : 		return Py_BuildException();
; 630  : 
; 631  : 	int stat1;
; 632  : 	if (!PyTuple_GetInteger(poArgs, 4, &stat1))

  00065	8d 45 ec	 lea	 eax, DWORD PTR _stat1$[ebp]
  00068	50		 push	 eax
  00069	6a 04		 push	 4
  0006b	56		 push	 esi
  0006c	e8 00 00 00 00	 call	 ?PyTuple_GetInteger@@YA_NPAU_object@@HPAH@Z ; PyTuple_GetInteger
  00071	83 c4 0c	 add	 esp, 12			; 0000000cH
  00074	84 c0		 test	 al, al
  00076	74 a5		 je	 SHORT $LN12@netSendCre

; 633  : 		return Py_BuildException();
; 634  : 	int stat2;
; 635  : 	if (!PyTuple_GetInteger(poArgs, 5, &stat2))

  00078	8d 45 f0	 lea	 eax, DWORD PTR _stat2$[ebp]
  0007b	50		 push	 eax
  0007c	6a 05		 push	 5
  0007e	56		 push	 esi
  0007f	e8 00 00 00 00	 call	 ?PyTuple_GetInteger@@YA_NPAU_object@@HPAH@Z ; PyTuple_GetInteger
  00084	83 c4 0c	 add	 esp, 12			; 0000000cH
  00087	84 c0		 test	 al, al
  00089	74 92		 je	 SHORT $LN12@netSendCre

; 636  : 		return Py_BuildException();
; 637  : 	int stat3;
; 638  : 	if (!PyTuple_GetInteger(poArgs, 6, &stat3))

  0008b	8d 45 f4	 lea	 eax, DWORD PTR _stat3$[ebp]
  0008e	50		 push	 eax
  0008f	6a 06		 push	 6
  00091	56		 push	 esi
  00092	e8 00 00 00 00	 call	 ?PyTuple_GetInteger@@YA_NPAU_object@@HPAH@Z ; PyTuple_GetInteger
  00097	83 c4 0c	 add	 esp, 12			; 0000000cH
  0009a	84 c0		 test	 al, al
  0009c	0f 84 7b ff ff
	ff		 je	 $LN12@netSendCre

; 639  : 		return Py_BuildException();
; 640  : 	int stat4;
; 641  : 	if (!PyTuple_GetInteger(poArgs, 7, &stat4))

  000a2	8d 45 f8	 lea	 eax, DWORD PTR _stat4$[ebp]
  000a5	50		 push	 eax
  000a6	6a 07		 push	 7
  000a8	56		 push	 esi
  000a9	e8 00 00 00 00	 call	 ?PyTuple_GetInteger@@YA_NPAU_object@@HPAH@Z ; PyTuple_GetInteger
  000ae	83 c4 0c	 add	 esp, 12			; 0000000cH
  000b1	84 c0		 test	 al, al
  000b3	0f 84 64 ff ff
	ff		 je	 $LN12@netSendCre

; 642  : 		return Py_BuildException();
; 643  : 
; 644  : 	if (index<0 && index>3)

  000b9	8b 45 fc	 mov	 eax, DWORD PTR _index$[ebp]
  000bc	85 c0		 test	 eax, eax
  000be	79 09		 jns	 SHORT $LN10@netSendCre
  000c0	83 f8 03	 cmp	 eax, 3
  000c3	0f 8f 54 ff ff
	ff		 jg	 $LN12@netSendCre
$LN10@netSendCre:

; 645  : 		return Py_BuildException();
; 646  : 
; 647  : 	CPythonNetworkStream& rkNetStream=CPythonNetworkStream::Instance();
; 648  : 	rkNetStream.SendCreateCharacterPacket((BYTE) index, name, (BYTE) job, (BYTE) shape, stat1, stat2, stat3, stat4);

  000c9	ff 75 f8	 push	 DWORD PTR _stat4$[ebp]
  000cc	8b 0d 00 00 00
	00		 mov	 ecx, DWORD PTR ?ms_singleton@?$CSingleton@VCPythonNetworkStream@@@@0PAVCPythonNetworkStream@@A ; CSingleton<CPythonNetworkStream>::ms_singleton
  000d2	ff 75 f4	 push	 DWORD PTR _stat3$[ebp]
  000d5	ff 75 f0	 push	 DWORD PTR _stat2$[ebp]
  000d8	ff 75 ec	 push	 DWORD PTR _stat1$[ebp]
  000db	ff 75 e8	 push	 DWORD PTR _shape$[ebp]
  000de	ff 75 e4	 push	 DWORD PTR _job$[ebp]
  000e1	ff 75 e0	 push	 DWORD PTR _name$[ebp]
  000e4	50		 push	 eax
  000e5	e8 00 00 00 00	 call	 ?SendCreateCharacterPacket@CPythonNetworkStream@@QAE_NEPBDEEEEEE@Z ; CPythonNetworkStream::SendCreateCharacterPacket

; 649  : 	return Py_BuildNone();

  000ea	e8 00 00 00 00	 call	 ?Py_BuildNone@@YAPAU_object@@XZ ; Py_BuildNone
  000ef	5e		 pop	 esi

; 650  : }

  000f0	8b e5		 mov	 esp, ebp
  000f2	5d		 pop	 ebp
  000f3	c3		 ret	 0
?netSendCreateCharacterPacket@@YAPAU_object@@PAU1@0@Z ENDP ; netSendCreateCharacterPacket
_TEXT	ENDS
; Function compile flags: /Ogtp
; File E:\Metin2_server\SolWayneSF v6\ClientVS22\source\UserInterface\PythonNetworkStreamModule.cpp
;	COMDAT ?netSendDestroyCharacterPacket@@YAPAU_object@@PAU1@0@Z
_TEXT	SEGMENT
_szPrivateCode$ = -8					; size = 4
_index$ = -4						; size = 4
_poSelf$ = 8						; size = 4
_poArgs$ = 12						; size = 4
?netSendDestroyCharacterPacket@@YAPAU_object@@PAU1@0@Z PROC ; netSendDestroyCharacterPacket, COMDAT

; 653  : {

  00000	55		 push	 ebp
  00001	8b ec		 mov	 ebp, esp
  00003	83 ec 08	 sub	 esp, 8

; 654  : 	int index;
; 655  : 	if (!PyTuple_GetInteger(poArgs, 0, &index))

  00006	8d 45 fc	 lea	 eax, DWORD PTR _index$[ebp]
  00009	50		 push	 eax
  0000a	6a 00		 push	 0
  0000c	ff 75 0c	 push	 DWORD PTR _poArgs$[ebp]
  0000f	e8 00 00 00 00	 call	 ?PyTuple_GetInteger@@YA_NPAU_object@@HPAH@Z ; PyTuple_GetInteger
  00014	83 c4 0c	 add	 esp, 12			; 0000000cH
  00017	84 c0		 test	 al, al
  00019	75 0e		 jne	 SHORT $LN2@netSendDes
$LN6@netSendDes:

; 668  : }

  0001b	6a 00		 push	 0
  0001d	e8 00 00 00 00	 call	 ?Py_BuildException@@YAPAU_object@@PBDZZ ; Py_BuildException
  00022	83 c4 04	 add	 esp, 4
  00025	8b e5		 mov	 esp, ebp
  00027	5d		 pop	 ebp
  00028	c3		 ret	 0
$LN2@netSendDes:

; 656  : 		return Py_BuildException();
; 657  : 
; 658  : 	char * szPrivateCode;
; 659  : 	if (!PyTuple_GetString(poArgs, 1, &szPrivateCode))

  00029	8d 45 f8	 lea	 eax, DWORD PTR _szPrivateCode$[ebp]
  0002c	50		 push	 eax
  0002d	6a 01		 push	 1
  0002f	ff 75 0c	 push	 DWORD PTR _poArgs$[ebp]
  00032	e8 00 00 00 00	 call	 ?PyTuple_GetString@@YA_NPAU_object@@HPAPAD@Z ; PyTuple_GetString
  00037	83 c4 0c	 add	 esp, 12			; 0000000cH
  0003a	84 c0		 test	 al, al
  0003c	74 dd		 je	 SHORT $LN6@netSendDes

; 660  : 		return Py_BuildException();
; 661  : 
; 662  : 	if (index<0 && index>3)

  0003e	8b 45 fc	 mov	 eax, DWORD PTR _index$[ebp]
  00041	85 c0		 test	 eax, eax
  00043	79 05		 jns	 SHORT $LN4@netSendDes
  00045	83 f8 03	 cmp	 eax, 3
  00048	7f d1		 jg	 SHORT $LN6@netSendDes
$LN4@netSendDes:

; 663  : 		return Py_BuildException();
; 664  : 	
; 665  : 	CPythonNetworkStream& rkNetStream=CPythonNetworkStream::Instance();
; 666  : 	rkNetStream.SendDestroyCharacterPacket((BYTE) index, szPrivateCode);

  0004a	ff 75 f8	 push	 DWORD PTR _szPrivateCode$[ebp]
  0004d	8b 0d 00 00 00
	00		 mov	 ecx, DWORD PTR ?ms_singleton@?$CSingleton@VCPythonNetworkStream@@@@0PAVCPythonNetworkStream@@A ; CSingleton<CPythonNetworkStream>::ms_singleton
  00053	50		 push	 eax
  00054	e8 00 00 00 00	 call	 ?SendDestroyCharacterPacket@CPythonNetworkStream@@QAE_NEPBD@Z ; CPythonNetworkStream::SendDestroyCharacterPacket

; 667  : 	return Py_BuildNone();

  00059	e8 00 00 00 00	 call	 ?Py_BuildNone@@YAPAU_object@@XZ ; Py_BuildNone

; 668  : }

  0005e	8b e5		 mov	 esp, ebp
  00060	5d		 pop	 ebp
  00061	c3		 ret	 0
?netSendDestroyCharacterPacket@@YAPAU_object@@PAU1@0@Z ENDP ; netSendDestroyCharacterPacket
_TEXT	ENDS
; Function compile flags: /Ogtp
; File E:\Metin2_server\SolWayneSF v6\ClientVS22\source\UserInterface\PythonNetworkStreamModule.cpp
;	COMDAT ?netSendEnterGamePacket@@YAPAU_object@@PAU1@0@Z
_TEXT	SEGMENT
_poSelf$ = 8						; size = 4
_poArgs$ = 12						; size = 4
?netSendEnterGamePacket@@YAPAU_object@@PAU1@0@Z PROC	; netSendEnterGamePacket, COMDAT

; 672  : 	CPythonNetworkStream& rkNetStream=CPythonNetworkStream::Instance();
; 673  : 	rkNetStream.SendEnterGame();

  00000	8b 0d 00 00 00
	00		 mov	 ecx, DWORD PTR ?ms_singleton@?$CSingleton@VCPythonNetworkStream@@@@0PAVCPythonNetworkStream@@A ; CSingleton<CPythonNetworkStream>::ms_singleton
  00006	e8 00 00 00 00	 call	 ?SendEnterGame@CPythonNetworkStream@@QAE_NXZ ; CPythonNetworkStream::SendEnterGame

; 674  : 	return Py_BuildNone();

  0000b	e9 00 00 00 00	 jmp	 ?Py_BuildNone@@YAPAU_object@@XZ ; Py_BuildNone
?netSendEnterGamePacket@@YAPAU_object@@PAU1@0@Z ENDP	; netSendEnterGamePacket
_TEXT	ENDS
; Function compile flags: /Ogtp
; File E:\Metin2_server\SolWayneSF v6\ClientVS22\source\UserInterface\PythonNetworkStreamModule.cpp
;	COMDAT ?netOnClickPacket@@YAPAU_object@@PAU1@0@Z
_TEXT	SEGMENT
_index$ = -4						; size = 4
_poSelf$ = 8						; size = 4
_poArgs$ = 12						; size = 4
?netOnClickPacket@@YAPAU_object@@PAU1@0@Z PROC		; netOnClickPacket, COMDAT

; 678  : {

  00000	55		 push	 ebp
  00001	8b ec		 mov	 ebp, esp
  00003	51		 push	 ecx

; 679  : 	int index;
; 680  : 	if (!PyTuple_GetInteger(poArgs, 0, &index))

  00004	8d 45 fc	 lea	 eax, DWORD PTR _index$[ebp]
  00007	50		 push	 eax
  00008	6a 00		 push	 0
  0000a	ff 75 0c	 push	 DWORD PTR _poArgs$[ebp]
  0000d	e8 00 00 00 00	 call	 ?PyTuple_GetInteger@@YA_NPAU_object@@HPAH@Z ; PyTuple_GetInteger
  00012	83 c4 0c	 add	 esp, 12			; 0000000cH
  00015	84 c0		 test	 al, al
  00017	75 0e		 jne	 SHORT $LN2@netOnClick

; 681  : 		return Py_BuildException();

  00019	6a 00		 push	 0
  0001b	e8 00 00 00 00	 call	 ?Py_BuildException@@YAPAU_object@@PBDZZ ; Py_BuildException
  00020	83 c4 04	 add	 esp, 4

; 687  : }

  00023	8b e5		 mov	 esp, ebp
  00025	5d		 pop	 ebp
  00026	c3		 ret	 0
$LN2@netOnClick:

; 682  : 
; 683  : 	CPythonNetworkStream& rkNetStream=CPythonNetworkStream::Instance();
; 684  : 	rkNetStream.SendOnClickPacket(index);

  00027	ff 75 fc	 push	 DWORD PTR _index$[ebp]
  0002a	8b 0d 00 00 00
	00		 mov	 ecx, DWORD PTR ?ms_singleton@?$CSingleton@VCPythonNetworkStream@@@@0PAVCPythonNetworkStream@@A ; CSingleton<CPythonNetworkStream>::ms_singleton
  00030	e8 00 00 00 00	 call	 ?SendOnClickPacket@CPythonNetworkStream@@QAE_NK@Z ; CPythonNetworkStream::SendOnClickPacket

; 685  : 
; 686  : 	return Py_BuildNone();

  00035	e8 00 00 00 00	 call	 ?Py_BuildNone@@YAPAU_object@@XZ ; Py_BuildNone

; 687  : }

  0003a	8b e5		 mov	 esp, ebp
  0003c	5d		 pop	 ebp
  0003d	c3		 ret	 0
?netOnClickPacket@@YAPAU_object@@PAU1@0@Z ENDP		; netOnClickPacket
_TEXT	ENDS
; Function compile flags: /Ogtp
; File E:\Metin2_server\SolWayneSF v6\ClientVS22\source\UserInterface\PythonNetworkStreamModule.cpp
; File E:\Metin2_server\SolWayneSF v6\ClientVS22\source\UserInterface\GameType.h
; File E:\Metin2_server\SolWayneSF v6\ClientVS22\source\UserInterface\PythonNetworkStreamModule.cpp
; File E:\Metin2_server\SolWayneSF v6\ClientVS22\source\UserInterface\GameType.h
; File E:\Metin2_server\SolWayneSF v6\ClientVS22\source\UserInterface\PythonNetworkStreamModule.cpp
;	COMDAT ?netSendItemUsePacket@@YAPAU_object@@PAU1@0@Z
_TEXT	SEGMENT
_Cell$ = -4						; size = 3
_poSelf$ = 8						; size = 4
_poArgs$ = 12						; size = 4
?netSendItemUsePacket@@YAPAU_object@@PAU1@0@Z PROC	; netSendItemUsePacket, COMDAT

; 690  : {

  00000	55		 push	 ebp
  00001	8b ec		 mov	 ebp, esp
  00003	51		 push	 ecx
  00004	56		 push	 esi

; 692  : 	switch (PyTuple_Size(poArgs))

  00005	8b 75 0c	 mov	 esi, DWORD PTR _poArgs$[ebp]
; File E:\Metin2_server\SolWayneSF v6\ClientVS22\source\UserInterface\GameType.h

; 202  : 		cell = WORD_MAX;

  00008	b8 ff ff 00 00	 mov	 eax, 65535		; 0000ffffH
; File E:\Metin2_server\SolWayneSF v6\ClientVS22\source\UserInterface\PythonNetworkStreamModule.cpp

; 692  : 	switch (PyTuple_Size(poArgs))

  0000d	56		 push	 esi
; File E:\Metin2_server\SolWayneSF v6\ClientVS22\source\UserInterface\GameType.h

; 201  : 		window_type =     INVENTORY;

  0000e	c6 45 fc 01	 mov	 BYTE PTR _Cell$[ebp], 1

; 202  : 		cell = WORD_MAX;

  00012	66 89 45 fd	 mov	 WORD PTR _Cell$[ebp+1], ax
; File E:\Metin2_server\SolWayneSF v6\ClientVS22\source\UserInterface\PythonNetworkStreamModule.cpp

; 692  : 	switch (PyTuple_Size(poArgs))

  00016	ff 15 00 00 00
	00		 call	 DWORD PTR __imp__PyTuple_Size
  0001c	83 c4 04	 add	 esp, 4
  0001f	83 e8 01	 sub	 eax, 1
  00022	74 20		 je	 SHORT $LN4@netSendIte
  00024	83 e8 01	 sub	 eax, 1
  00027	75 2e		 jne	 SHORT $LN13@netSendIte

; 696  : 			return Py_BuildException();
; 697  : 		break;
; 698  : 	case 2:
; 699  : 		if (!PyTuple_GetByte(poArgs, 0, &Cell.window_type))

  00029	8d 45 fc	 lea	 eax, DWORD PTR _Cell$[ebp]
  0002c	50		 push	 eax
  0002d	6a 00		 push	 0
  0002f	56		 push	 esi
  00030	e8 00 00 00 00	 call	 ?PyTuple_GetByte@@YA_NPAU_object@@HPAE@Z ; PyTuple_GetByte
  00035	83 c4 0c	 add	 esp, 12			; 0000000cH
  00038	84 c0		 test	 al, al
  0003a	74 1b		 je	 SHORT $LN13@netSendIte

; 700  : 			return Py_BuildException();
; 701  : 		if (!PyTuple_GetInteger(poArgs, 1, &Cell.cell))

  0003c	8d 45 fd	 lea	 eax, DWORD PTR _Cell$[ebp+1]
  0003f	50		 push	 eax
  00040	6a 01		 push	 1

; 702  : 			return Py_BuildException();

  00042	eb 06		 jmp	 SHORT $LN14@netSendIte
$LN4@netSendIte:

; 693  : 	{
; 694  : 	case 1:
; 695  : 		if (!PyTuple_GetInteger(poArgs, 0, &Cell.cell))

  00044	8d 45 fd	 lea	 eax, DWORD PTR _Cell$[ebp+1]
  00047	50		 push	 eax
  00048	6a 00		 push	 0
$LN14@netSendIte:

; 711  : }

  0004a	56		 push	 esi
  0004b	e8 00 00 00 00	 call	 ?PyTuple_GetInteger@@YA_NPAU_object@@HPAG@Z ; PyTuple_GetInteger
  00050	83 c4 0c	 add	 esp, 12			; 0000000cH
  00053	84 c0		 test	 al, al
  00055	75 0f		 jne	 SHORT $LN5@netSendIte
$LN13@netSendIte:
  00057	6a 00		 push	 0
  00059	e8 00 00 00 00	 call	 ?Py_BuildException@@YAPAU_object@@PBDZZ ; Py_BuildException
  0005e	83 c4 04	 add	 esp, 4
  00061	5e		 pop	 esi
  00062	8b e5		 mov	 esp, ebp
  00064	5d		 pop	 ebp
  00065	c3		 ret	 0
$LN5@netSendIte:

; 703  : 		break;
; 704  : 	default:
; 705  : 		return Py_BuildException();
; 706  : 	}
; 707  : 
; 708  : 	CPythonNetworkStream& rkNetStream=CPythonNetworkStream::Instance();
; 709  : 	rkNetStream.SendItemUsePacket(Cell);

  00066	66 8b 45 fc	 mov	 ax, WORD PTR _Cell$[ebp]
  0006a	51		 push	 ecx
  0006b	8b cc		 mov	 ecx, esp
  0006d	66 89 01	 mov	 WORD PTR [ecx], ax
  00070	8a 45 fe	 mov	 al, BYTE PTR _Cell$[ebp+2]
  00073	88 41 02	 mov	 BYTE PTR [ecx+2], al
  00076	8b 0d 00 00 00
	00		 mov	 ecx, DWORD PTR ?ms_singleton@?$CSingleton@VCPythonNetworkStream@@@@0PAVCPythonNetworkStream@@A ; CSingleton<CPythonNetworkStream>::ms_singleton
  0007c	e8 00 00 00 00	 call	 ?SendItemUsePacket@CPythonNetworkStream@@QAE_NUSItemPos@@@Z ; CPythonNetworkStream::SendItemUsePacket

; 710  : 	return Py_BuildNone();

  00081	e8 00 00 00 00	 call	 ?Py_BuildNone@@YAPAU_object@@XZ ; Py_BuildNone

; 711  : }

  00086	5e		 pop	 esi
  00087	8b e5		 mov	 esp, ebp
  00089	5d		 pop	 ebp
  0008a	c3		 ret	 0
?netSendItemUsePacket@@YAPAU_object@@PAU1@0@Z ENDP	; netSendItemUsePacket
_TEXT	ENDS
; Function compile flags: /Ogtp
; File E:\Metin2_server\SolWayneSF v6\ClientVS22\source\UserInterface\PythonNetworkStreamModule.cpp
; File E:\Metin2_server\SolWayneSF v6\ClientVS22\source\UserInterface\GameType.h
; File E:\Metin2_server\SolWayneSF v6\ClientVS22\source\UserInterface\PythonNetworkStreamModule.cpp
; File E:\Metin2_server\SolWayneSF v6\ClientVS22\source\UserInterface\GameType.h
; File E:\Metin2_server\SolWayneSF v6\ClientVS22\source\UserInterface\PythonNetworkStreamModule.cpp
;	COMDAT ?netSendItemUseToItemPacket@@YAPAU_object@@PAU1@0@Z
_TEXT	SEGMENT
_SourceCell$ = -8					; size = 3
_TargetCell$ = -4					; size = 3
_poSelf$ = 8						; size = 4
_poArgs$ = 12						; size = 4
?netSendItemUseToItemPacket@@YAPAU_object@@PAU1@0@Z PROC ; netSendItemUseToItemPacket, COMDAT

; 714  : {

  00000	55		 push	 ebp
  00001	8b ec		 mov	 ebp, esp
  00003	83 ec 08	 sub	 esp, 8
  00006	56		 push	 esi

; 717  : 	switch (PyTuple_Size(poArgs))

  00007	8b 75 0c	 mov	 esi, DWORD PTR _poArgs$[ebp]
; File E:\Metin2_server\SolWayneSF v6\ClientVS22\source\UserInterface\GameType.h

; 202  : 		cell = WORD_MAX;

  0000a	b8 ff ff 00 00	 mov	 eax, 65535		; 0000ffffH
; File E:\Metin2_server\SolWayneSF v6\ClientVS22\source\UserInterface\PythonNetworkStreamModule.cpp

; 717  : 	switch (PyTuple_Size(poArgs))

  0000f	56		 push	 esi
; File E:\Metin2_server\SolWayneSF v6\ClientVS22\source\UserInterface\GameType.h

; 201  : 		window_type =     INVENTORY;

  00010	c6 45 f8 01	 mov	 BYTE PTR _SourceCell$[ebp], 1

; 202  : 		cell = WORD_MAX;

  00014	66 89 45 f9	 mov	 WORD PTR _SourceCell$[ebp+1], ax

; 201  : 		window_type =     INVENTORY;

  00018	c6 45 fc 01	 mov	 BYTE PTR _TargetCell$[ebp], 1

; 202  : 		cell = WORD_MAX;

  0001c	66 89 45 fd	 mov	 WORD PTR _TargetCell$[ebp+1], ax
; File E:\Metin2_server\SolWayneSF v6\ClientVS22\source\UserInterface\PythonNetworkStreamModule.cpp

; 717  : 	switch (PyTuple_Size(poArgs))

  00020	ff 15 00 00 00
	00		 call	 DWORD PTR __imp__PyTuple_Size
  00026	83 c4 04	 add	 esp, 4
  00029	83 e8 02	 sub	 eax, 2
  0002c	74 60		 je	 SHORT $LN4@netSendIte
  0002e	83 e8 02	 sub	 eax, 2
  00031	75 4c		 jne	 SHORT $LN18@netSendIte

; 724  : 			return Py_BuildException();
; 725  : 		break;
; 726  : 	case 4:
; 727  : 		if (!PyTuple_GetByte(poArgs, 0, &SourceCell.window_type))

  00033	8d 45 f8	 lea	 eax, DWORD PTR _SourceCell$[ebp]
  00036	50		 push	 eax
  00037	6a 00		 push	 0
  00039	56		 push	 esi
  0003a	e8 00 00 00 00	 call	 ?PyTuple_GetByte@@YA_NPAU_object@@HPAE@Z ; PyTuple_GetByte
  0003f	83 c4 0c	 add	 esp, 12			; 0000000cH
  00042	84 c0		 test	 al, al
  00044	74 39		 je	 SHORT $LN18@netSendIte

; 728  : 			return Py_BuildException();
; 729  : 
; 730  : 		if (!PyTuple_GetInteger(poArgs, 1, &SourceCell.cell))

  00046	8d 45 f9	 lea	 eax, DWORD PTR _SourceCell$[ebp+1]
  00049	50		 push	 eax
  0004a	6a 01		 push	 1
  0004c	56		 push	 esi
  0004d	e8 00 00 00 00	 call	 ?PyTuple_GetInteger@@YA_NPAU_object@@HPAG@Z ; PyTuple_GetInteger
  00052	83 c4 0c	 add	 esp, 12			; 0000000cH
  00055	84 c0		 test	 al, al
  00057	74 26		 je	 SHORT $LN18@netSendIte

; 731  : 			return Py_BuildException();
; 732  : 
; 733  : 		if (!PyTuple_GetByte(poArgs, 2, &TargetCell.window_type))

  00059	8d 45 fc	 lea	 eax, DWORD PTR _TargetCell$[ebp]
  0005c	50		 push	 eax
  0005d	6a 02		 push	 2
  0005f	56		 push	 esi
  00060	e8 00 00 00 00	 call	 ?PyTuple_GetByte@@YA_NPAU_object@@HPAE@Z ; PyTuple_GetByte
  00065	83 c4 0c	 add	 esp, 12			; 0000000cH
  00068	84 c0		 test	 al, al
  0006a	74 13		 je	 SHORT $LN18@netSendIte

; 734  : 			return Py_BuildException();
; 735  : 
; 736  : 		if (!PyTuple_GetInteger(poArgs, 3, &TargetCell.cell))

  0006c	8d 45 fd	 lea	 eax, DWORD PTR _TargetCell$[ebp+1]
  0006f	50		 push	 eax
  00070	6a 03		 push	 3
  00072	56		 push	 esi
  00073	e8 00 00 00 00	 call	 ?PyTuple_GetInteger@@YA_NPAU_object@@HPAG@Z ; PyTuple_GetInteger
  00078	83 c4 0c	 add	 esp, 12			; 0000000cH
  0007b	84 c0		 test	 al, al
  0007d	75 35		 jne	 SHORT $LN6@netSendIte
$LN18@netSendIte:

; 745  : }

  0007f	6a 00		 push	 0
  00081	e8 00 00 00 00	 call	 ?Py_BuildException@@YAPAU_object@@PBDZZ ; Py_BuildException
  00086	83 c4 04	 add	 esp, 4
  00089	5e		 pop	 esi
  0008a	8b e5		 mov	 esp, ebp
  0008c	5d		 pop	 ebp
  0008d	c3		 ret	 0
$LN4@netSendIte:

; 718  : 	{
; 719  : 	case 2:
; 720  : 		if (!PyTuple_GetInteger(poArgs, 0, &SourceCell.cell))

  0008e	8d 45 f9	 lea	 eax, DWORD PTR _SourceCell$[ebp+1]
  00091	50		 push	 eax
  00092	6a 00		 push	 0
  00094	56		 push	 esi
  00095	e8 00 00 00 00	 call	 ?PyTuple_GetInteger@@YA_NPAU_object@@HPAG@Z ; PyTuple_GetInteger
  0009a	83 c4 0c	 add	 esp, 12			; 0000000cH
  0009d	84 c0		 test	 al, al
  0009f	74 de		 je	 SHORT $LN18@netSendIte

; 721  : 			return Py_BuildException();
; 722  : 
; 723  : 		if (!PyTuple_GetInteger(poArgs, 1, &TargetCell.cell))

  000a1	8d 45 fd	 lea	 eax, DWORD PTR _TargetCell$[ebp+1]
  000a4	50		 push	 eax
  000a5	6a 01		 push	 1
  000a7	56		 push	 esi
  000a8	e8 00 00 00 00	 call	 ?PyTuple_GetInteger@@YA_NPAU_object@@HPAG@Z ; PyTuple_GetInteger
  000ad	83 c4 0c	 add	 esp, 12			; 0000000cH
  000b0	84 c0		 test	 al, al
  000b2	74 cb		 je	 SHORT $LN18@netSendIte
$LN6@netSendIte:

; 737  : 			return Py_BuildException();
; 738  : 		break;
; 739  : 	default:
; 740  : 		return Py_BuildException();
; 741  : 	}
; 742  : 	CPythonNetworkStream& rkNetStream=CPythonNetworkStream::Instance();
; 743  : 	rkNetStream.SendItemUseToItemPacket(SourceCell, TargetCell);

  000b4	0f b7 45 fc	 movzx	 eax, WORD PTR _TargetCell$[ebp]
  000b8	51		 push	 ecx
  000b9	8b cc		 mov	 ecx, esp
  000bb	51		 push	 ecx
  000bc	66 89 01	 mov	 WORD PTR [ecx], ax
  000bf	8a 45 fe	 mov	 al, BYTE PTR _TargetCell$[ebp+2]
  000c2	88 41 02	 mov	 BYTE PTR [ecx+2], al
  000c5	8b cc		 mov	 ecx, esp
  000c7	0f b7 45 f8	 movzx	 eax, WORD PTR _SourceCell$[ebp]
  000cb	66 89 01	 mov	 WORD PTR [ecx], ax
  000ce	8a 45 fa	 mov	 al, BYTE PTR _SourceCell$[ebp+2]
  000d1	88 41 02	 mov	 BYTE PTR [ecx+2], al
  000d4	8b 0d 00 00 00
	00		 mov	 ecx, DWORD PTR ?ms_singleton@?$CSingleton@VCPythonNetworkStream@@@@0PAVCPythonNetworkStream@@A ; CSingleton<CPythonNetworkStream>::ms_singleton
  000da	e8 00 00 00 00	 call	 ?SendItemUseToItemPacket@CPythonNetworkStream@@QAE_NUSItemPos@@0@Z ; CPythonNetworkStream::SendItemUseToItemPacket

; 744  : 	return Py_BuildNone();

  000df	e8 00 00 00 00	 call	 ?Py_BuildNone@@YAPAU_object@@XZ ; Py_BuildNone

; 745  : }

  000e4	5e		 pop	 esi
  000e5	8b e5		 mov	 esp, ebp
  000e7	5d		 pop	 ebp
  000e8	c3		 ret	 0
?netSendItemUseToItemPacket@@YAPAU_object@@PAU1@0@Z ENDP ; netSendItemUseToItemPacket
_TEXT	ENDS
; Function compile flags: /Ogtp
; File E:\Metin2_server\SolWayneSF v6\ClientVS22\source\UserInterface\PythonNetworkStreamModule.cpp
; File E:\Metin2_server\SolWayneSF v6\ClientVS22\source\UserInterface\GameType.h
; File E:\Metin2_server\SolWayneSF v6\ClientVS22\source\UserInterface\PythonNetworkStreamModule.cpp
; File E:\Metin2_server\SolWayneSF v6\ClientVS22\source\UserInterface\GameType.h
; File E:\Metin2_server\SolWayneSF v6\ClientVS22\source\UserInterface\PythonNetworkStreamModule.cpp
;	COMDAT ?netSendItemDropPacket@@YAPAU_object@@PAU1@0@Z
_TEXT	SEGMENT
_Cell$ = -4						; size = 3
_poSelf$ = 8						; size = 4
_poArgs$ = 12						; size = 4
?netSendItemDropPacket@@YAPAU_object@@PAU1@0@Z PROC	; netSendItemDropPacket, COMDAT

; 748  : {

  00000	55		 push	 ebp
  00001	8b ec		 mov	 ebp, esp
  00003	51		 push	 ecx
  00004	56		 push	 esi

; 750  : 	switch (PyTuple_Size(poArgs))

  00005	8b 75 0c	 mov	 esi, DWORD PTR _poArgs$[ebp]
; File E:\Metin2_server\SolWayneSF v6\ClientVS22\source\UserInterface\GameType.h

; 202  : 		cell = WORD_MAX;

  00008	b8 ff ff 00 00	 mov	 eax, 65535		; 0000ffffH
; File E:\Metin2_server\SolWayneSF v6\ClientVS22\source\UserInterface\PythonNetworkStreamModule.cpp

; 750  : 	switch (PyTuple_Size(poArgs))

  0000d	56		 push	 esi
; File E:\Metin2_server\SolWayneSF v6\ClientVS22\source\UserInterface\GameType.h

; 201  : 		window_type =     INVENTORY;

  0000e	c6 45 fc 01	 mov	 BYTE PTR _Cell$[ebp], 1

; 202  : 		cell = WORD_MAX;

  00012	66 89 45 fd	 mov	 WORD PTR _Cell$[ebp+1], ax
; File E:\Metin2_server\SolWayneSF v6\ClientVS22\source\UserInterface\PythonNetworkStreamModule.cpp

; 750  : 	switch (PyTuple_Size(poArgs))

  00016	ff 15 00 00 00
	00		 call	 DWORD PTR __imp__PyTuple_Size
  0001c	83 c4 04	 add	 esp, 4
  0001f	83 e8 01	 sub	 eax, 1
  00022	74 20		 je	 SHORT $LN4@netSendIte
  00024	83 e8 01	 sub	 eax, 1
  00027	75 2e		 jne	 SHORT $LN13@netSendIte

; 754  : 			return Py_BuildException();
; 755  : 		break;
; 756  : 	case 2:
; 757  : 		if (!PyTuple_GetByte(poArgs, 0, &Cell.window_type))

  00029	8d 45 fc	 lea	 eax, DWORD PTR _Cell$[ebp]
  0002c	50		 push	 eax
  0002d	6a 00		 push	 0
  0002f	56		 push	 esi
  00030	e8 00 00 00 00	 call	 ?PyTuple_GetByte@@YA_NPAU_object@@HPAE@Z ; PyTuple_GetByte
  00035	83 c4 0c	 add	 esp, 12			; 0000000cH
  00038	84 c0		 test	 al, al
  0003a	74 1b		 je	 SHORT $LN13@netSendIte

; 758  : 			return Py_BuildException();
; 759  : 		if (!PyTuple_GetInteger(poArgs, 1, &Cell.cell))

  0003c	8d 45 fd	 lea	 eax, DWORD PTR _Cell$[ebp+1]
  0003f	50		 push	 eax
  00040	6a 01		 push	 1

; 760  : 			return Py_BuildException();

  00042	eb 06		 jmp	 SHORT $LN14@netSendIte
$LN4@netSendIte:

; 751  : 	{
; 752  : 	case 1:
; 753  : 		if (!PyTuple_GetInteger(poArgs, 0, &Cell.cell))

  00044	8d 45 fd	 lea	 eax, DWORD PTR _Cell$[ebp+1]
  00047	50		 push	 eax
  00048	6a 00		 push	 0
$LN14@netSendIte:

; 770  : }

  0004a	56		 push	 esi
  0004b	e8 00 00 00 00	 call	 ?PyTuple_GetInteger@@YA_NPAU_object@@HPAG@Z ; PyTuple_GetInteger
  00050	83 c4 0c	 add	 esp, 12			; 0000000cH
  00053	84 c0		 test	 al, al
  00055	75 0f		 jne	 SHORT $LN5@netSendIte
$LN13@netSendIte:
  00057	6a 00		 push	 0
  00059	e8 00 00 00 00	 call	 ?Py_BuildException@@YAPAU_object@@PBDZZ ; Py_BuildException
  0005e	83 c4 04	 add	 esp, 4
  00061	5e		 pop	 esi
  00062	8b e5		 mov	 esp, ebp
  00064	5d		 pop	 ebp
  00065	c3		 ret	 0
$LN5@netSendIte:

; 761  : 		break;
; 762  : 	default:
; 763  : 		return Py_BuildException();
; 764  : 	}
; 765  : 
; 766  : 
; 767  : 	CPythonNetworkStream& rkNetStream=CPythonNetworkStream::Instance();
; 768  : 	rkNetStream.SendItemDropPacket(Cell, 0);

  00066	66 8b 45 fc	 mov	 ax, WORD PTR _Cell$[ebp]
  0006a	6a 00		 push	 0
  0006c	51		 push	 ecx
  0006d	8b cc		 mov	 ecx, esp
  0006f	66 89 01	 mov	 WORD PTR [ecx], ax
  00072	8a 45 fe	 mov	 al, BYTE PTR _Cell$[ebp+2]
  00075	88 41 02	 mov	 BYTE PTR [ecx+2], al
  00078	8b 0d 00 00 00
	00		 mov	 ecx, DWORD PTR ?ms_singleton@?$CSingleton@VCPythonNetworkStream@@@@0PAVCPythonNetworkStream@@A ; CSingleton<CPythonNetworkStream>::ms_singleton
  0007e	e8 00 00 00 00	 call	 ?SendItemDropPacket@CPythonNetworkStream@@QAE_NUSItemPos@@K@Z ; CPythonNetworkStream::SendItemDropPacket

; 769  : 	return Py_BuildNone();

  00083	e8 00 00 00 00	 call	 ?Py_BuildNone@@YAPAU_object@@XZ ; Py_BuildNone

; 770  : }

  00088	5e		 pop	 esi
  00089	8b e5		 mov	 esp, ebp
  0008b	5d		 pop	 ebp
  0008c	c3		 ret	 0
?netSendItemDropPacket@@YAPAU_object@@PAU1@0@Z ENDP	; netSendItemDropPacket
_TEXT	ENDS
; Function compile flags: /Ogtp
; File E:\Metin2_server\SolWayneSF v6\ClientVS22\source\UserInterface\PythonNetworkStreamModule.cpp
; File E:\Metin2_server\SolWayneSF v6\ClientVS22\source\UserInterface\GameType.h
; File E:\Metin2_server\SolWayneSF v6\ClientVS22\source\UserInterface\PythonNetworkStreamModule.cpp
;	COMDAT ?netSendItemDestroyPacket@@YAPAU_object@@PAU1@0@Z
_TEXT	SEGMENT
_Cell$ = -4						; size = 3
_poSelf$ = 8						; size = 4
_poArgs$ = 12						; size = 4
?netSendItemDestroyPacket@@YAPAU_object@@PAU1@0@Z PROC	; netSendItemDestroyPacket, COMDAT

; 773  : {

  00000	55		 push	 ebp
  00001	8b ec		 mov	 ebp, esp
  00003	51		 push	 ecx
; File E:\Metin2_server\SolWayneSF v6\ClientVS22\source\UserInterface\GameType.h

; 202  : 		cell = WORD_MAX;

  00004	b8 ff ff 00 00	 mov	 eax, 65535		; 0000ffffH
  00009	c6 45 fc 01	 mov	 BYTE PTR _Cell$[ebp], 1
  0000d	66 89 45 fd	 mov	 WORD PTR _Cell$[ebp+1], ax
; File E:\Metin2_server\SolWayneSF v6\ClientVS22\source\UserInterface\PythonNetworkStreamModule.cpp

; 776  : 	if (!PyTuple_GetInteger(poArgs, 0, &Cell.cell))

  00011	8d 45 fd	 lea	 eax, DWORD PTR _Cell$[ebp+1]
  00014	50		 push	 eax
  00015	6a 00		 push	 0
  00017	ff 75 0c	 push	 DWORD PTR _poArgs$[ebp]
  0001a	e8 00 00 00 00	 call	 ?PyTuple_GetInteger@@YA_NPAU_object@@HPAG@Z ; PyTuple_GetInteger
  0001f	83 c4 0c	 add	 esp, 12			; 0000000cH
  00022	84 c0		 test	 al, al
  00024	75 0e		 jne	 SHORT $LN2@netSendIte

; 777  : 		return Py_BuildException();

  00026	6a 00		 push	 0
  00028	e8 00 00 00 00	 call	 ?Py_BuildException@@YAPAU_object@@PBDZZ ; Py_BuildException
  0002d	83 c4 04	 add	 esp, 4

; 781  : }

  00030	8b e5		 mov	 esp, ebp
  00032	5d		 pop	 ebp
  00033	c3		 ret	 0
$LN2@netSendIte:

; 778  : 	CPythonNetworkStream& rkNetStream = CPythonNetworkStream::Instance();
; 779  : 	rkNetStream.SendItemDestroyPacket(Cell);

  00034	66 8b 45 fc	 mov	 ax, WORD PTR _Cell$[ebp]
  00038	51		 push	 ecx
  00039	8b cc		 mov	 ecx, esp
  0003b	66 89 01	 mov	 WORD PTR [ecx], ax
  0003e	8a 45 fe	 mov	 al, BYTE PTR _Cell$[ebp+2]
  00041	88 41 02	 mov	 BYTE PTR [ecx+2], al
  00044	8b 0d 00 00 00
	00		 mov	 ecx, DWORD PTR ?ms_singleton@?$CSingleton@VCPythonNetworkStream@@@@0PAVCPythonNetworkStream@@A ; CSingleton<CPythonNetworkStream>::ms_singleton
  0004a	e8 00 00 00 00	 call	 ?SendItemDestroyPacket@CPythonNetworkStream@@QAE_NUSItemPos@@@Z ; CPythonNetworkStream::SendItemDestroyPacket

; 780  : 	return Py_BuildNone();

  0004f	e8 00 00 00 00	 call	 ?Py_BuildNone@@YAPAU_object@@XZ ; Py_BuildNone

; 781  : }

  00054	8b e5		 mov	 esp, ebp
  00056	5d		 pop	 ebp
  00057	c3		 ret	 0
?netSendItemDestroyPacket@@YAPAU_object@@PAU1@0@Z ENDP	; netSendItemDestroyPacket
_TEXT	ENDS
; Function compile flags: /Ogtp
; File E:\Metin2_server\SolWayneSF v6\ClientVS22\source\UserInterface\PythonNetworkStreamModule.cpp
; File E:\Metin2_server\SolWayneSF v6\ClientVS22\source\UserInterface\GameType.h
; File E:\Metin2_server\SolWayneSF v6\ClientVS22\source\UserInterface\PythonNetworkStreamModule.cpp
; File E:\Metin2_server\SolWayneSF v6\ClientVS22\source\UserInterface\GameType.h
; File E:\Metin2_server\SolWayneSF v6\ClientVS22\source\UserInterface\PythonNetworkStreamModule.cpp
;	COMDAT ?netSendItemDropPacketNew@@YAPAU_object@@PAU1@0@Z
_TEXT	SEGMENT
_count$ = -8						; size = 4
_Cell$ = -4						; size = 3
_poSelf$ = 8						; size = 4
_poArgs$ = 12						; size = 4
?netSendItemDropPacketNew@@YAPAU_object@@PAU1@0@Z PROC	; netSendItemDropPacketNew, COMDAT

; 784  : {

  00000	55		 push	 ebp
  00001	8b ec		 mov	 ebp, esp
  00003	83 ec 08	 sub	 esp, 8
  00006	56		 push	 esi

; 787  : 	switch (PyTuple_Size(poArgs))

  00007	8b 75 0c	 mov	 esi, DWORD PTR _poArgs$[ebp]
; File E:\Metin2_server\SolWayneSF v6\ClientVS22\source\UserInterface\GameType.h

; 202  : 		cell = WORD_MAX;

  0000a	b8 ff ff 00 00	 mov	 eax, 65535		; 0000ffffH
; File E:\Metin2_server\SolWayneSF v6\ClientVS22\source\UserInterface\PythonNetworkStreamModule.cpp

; 787  : 	switch (PyTuple_Size(poArgs))

  0000f	56		 push	 esi
; File E:\Metin2_server\SolWayneSF v6\ClientVS22\source\UserInterface\GameType.h

; 201  : 		window_type =     INVENTORY;

  00010	c6 45 fc 01	 mov	 BYTE PTR _Cell$[ebp], 1

; 202  : 		cell = WORD_MAX;

  00014	66 89 45 fd	 mov	 WORD PTR _Cell$[ebp+1], ax
; File E:\Metin2_server\SolWayneSF v6\ClientVS22\source\UserInterface\PythonNetworkStreamModule.cpp

; 787  : 	switch (PyTuple_Size(poArgs))

  00018	ff 15 00 00 00
	00		 call	 DWORD PTR __imp__PyTuple_Size
  0001e	83 c4 04	 add	 esp, 4
  00021	83 e8 02	 sub	 eax, 2
  00024	74 4d		 je	 SHORT $LN4@netSendIte
  00026	83 e8 01	 sub	 eax, 1
  00029	75 39		 jne	 SHORT $LN15@netSendIte

; 793  : 			return Py_BuildException();
; 794  : 
; 795  : 		break;
; 796  : 	case 3:
; 797  : 		if (!PyTuple_GetByte(poArgs, 0, &Cell.window_type))

  0002b	8d 45 fc	 lea	 eax, DWORD PTR _Cell$[ebp]
  0002e	50		 push	 eax
  0002f	6a 00		 push	 0
  00031	56		 push	 esi
  00032	e8 00 00 00 00	 call	 ?PyTuple_GetByte@@YA_NPAU_object@@HPAE@Z ; PyTuple_GetByte
  00037	83 c4 0c	 add	 esp, 12			; 0000000cH
  0003a	84 c0		 test	 al, al
  0003c	74 26		 je	 SHORT $LN15@netSendIte

; 798  : 			return Py_BuildException();
; 799  : 		if (!PyTuple_GetInteger(poArgs, 1, &Cell.cell))

  0003e	8d 45 fd	 lea	 eax, DWORD PTR _Cell$[ebp+1]
  00041	50		 push	 eax
  00042	6a 01		 push	 1
  00044	56		 push	 esi
  00045	e8 00 00 00 00	 call	 ?PyTuple_GetInteger@@YA_NPAU_object@@HPAG@Z ; PyTuple_GetInteger
  0004a	83 c4 0c	 add	 esp, 12			; 0000000cH
  0004d	84 c0		 test	 al, al
  0004f	74 13		 je	 SHORT $LN15@netSendIte

; 800  : 			return Py_BuildException();
; 801  : 		if (!PyTuple_GetInteger(poArgs, 2, &count))

  00051	8d 45 f8	 lea	 eax, DWORD PTR _count$[ebp]
  00054	50		 push	 eax
  00055	6a 02		 push	 2
  00057	56		 push	 esi
  00058	e8 00 00 00 00	 call	 ?PyTuple_GetInteger@@YA_NPAU_object@@HPAH@Z ; PyTuple_GetInteger
  0005d	83 c4 0c	 add	 esp, 12			; 0000000cH
  00060	84 c0		 test	 al, al
  00062	75 35		 jne	 SHORT $LN6@netSendIte
$LN15@netSendIte:

; 811  : }

  00064	6a 00		 push	 0
  00066	e8 00 00 00 00	 call	 ?Py_BuildException@@YAPAU_object@@PBDZZ ; Py_BuildException
  0006b	83 c4 04	 add	 esp, 4
  0006e	5e		 pop	 esi
  0006f	8b e5		 mov	 esp, ebp
  00071	5d		 pop	 ebp
  00072	c3		 ret	 0
$LN4@netSendIte:

; 788  : 	{
; 789  : 	case 2:
; 790  : 		if (!PyTuple_GetInteger(poArgs, 0, &Cell.cell))

  00073	8d 45 fd	 lea	 eax, DWORD PTR _Cell$[ebp+1]
  00076	50		 push	 eax
  00077	6a 00		 push	 0
  00079	56		 push	 esi
  0007a	e8 00 00 00 00	 call	 ?PyTuple_GetInteger@@YA_NPAU_object@@HPAG@Z ; PyTuple_GetInteger
  0007f	83 c4 0c	 add	 esp, 12			; 0000000cH
  00082	84 c0		 test	 al, al
  00084	74 de		 je	 SHORT $LN15@netSendIte

; 791  : 			return Py_BuildException();
; 792  : 		if (!PyTuple_GetInteger(poArgs, 1, &count))

  00086	8d 45 f8	 lea	 eax, DWORD PTR _count$[ebp]
  00089	50		 push	 eax
  0008a	6a 01		 push	 1
  0008c	56		 push	 esi
  0008d	e8 00 00 00 00	 call	 ?PyTuple_GetInteger@@YA_NPAU_object@@HPAH@Z ; PyTuple_GetInteger
  00092	83 c4 0c	 add	 esp, 12			; 0000000cH
  00095	84 c0		 test	 al, al
  00097	74 cb		 je	 SHORT $LN15@netSendIte
$LN6@netSendIte:

; 802  : 			return Py_BuildException();
; 803  : 		
; 804  : 		break;
; 805  : 	default:
; 806  : 		return Py_BuildException();
; 807  : 	}
; 808  : 	CPythonNetworkStream& rkNetStream=CPythonNetworkStream::Instance();
; 809  : 	rkNetStream.SendItemDropPacketNew(Cell, 0, count);

  00099	ff 75 f8	 push	 DWORD PTR _count$[ebp]
  0009c	66 8b 45 fc	 mov	 ax, WORD PTR _Cell$[ebp]
  000a0	6a 00		 push	 0
  000a2	51		 push	 ecx
  000a3	8b cc		 mov	 ecx, esp
  000a5	66 89 01	 mov	 WORD PTR [ecx], ax
  000a8	8a 45 fe	 mov	 al, BYTE PTR _Cell$[ebp+2]
  000ab	88 41 02	 mov	 BYTE PTR [ecx+2], al
  000ae	8b 0d 00 00 00
	00		 mov	 ecx, DWORD PTR ?ms_singleton@?$CSingleton@VCPythonNetworkStream@@@@0PAVCPythonNetworkStream@@A ; CSingleton<CPythonNetworkStream>::ms_singleton
  000b4	e8 00 00 00 00	 call	 ?SendItemDropPacketNew@CPythonNetworkStream@@QAE_NUSItemPos@@KK@Z ; CPythonNetworkStream::SendItemDropPacketNew

; 810  : 	return Py_BuildNone();

  000b9	e8 00 00 00 00	 call	 ?Py_BuildNone@@YAPAU_object@@XZ ; Py_BuildNone

; 811  : }

  000be	5e		 pop	 esi
  000bf	8b e5		 mov	 esp, ebp
  000c1	5d		 pop	 ebp
  000c2	c3		 ret	 0
?netSendItemDropPacketNew@@YAPAU_object@@PAU1@0@Z ENDP	; netSendItemDropPacketNew
_TEXT	ENDS
; Function compile flags: /Ogtp
; File E:\Metin2_server\SolWayneSF v6\ClientVS22\source\UserInterface\PythonNetworkStreamModule.cpp
; File E:\Metin2_server\SolWayneSF v6\ClientVS22\source\UserInterface\GameType.h
; File E:\Metin2_server\SolWayneSF v6\ClientVS22\source\UserInterface\PythonNetworkStreamModule.cpp
; File E:\Metin2_server\SolWayneSF v6\ClientVS22\source\UserInterface\GameType.h
; File E:\Metin2_server\SolWayneSF v6\ClientVS22\source\UserInterface\PythonNetworkStreamModule.cpp
;	COMDAT ?netSendElkDropPacket@@YAPAU_object@@PAU1@0@Z
_TEXT	SEGMENT
_iElk$ = -8						; size = 4
$T1 = -3						; size = 3
_poSelf$ = 8						; size = 4
_poArgs$ = 12						; size = 4
?netSendElkDropPacket@@YAPAU_object@@PAU1@0@Z PROC	; netSendElkDropPacket, COMDAT

; 814  : {

  00000	55		 push	 ebp
  00001	8b ec		 mov	 ebp, esp
  00003	83 ec 08	 sub	 esp, 8

; 815  : 	int iElk;
; 816  : 	if (!PyTuple_GetInteger(poArgs, 0, &iElk))

  00006	8d 45 f8	 lea	 eax, DWORD PTR _iElk$[ebp]
  00009	50		 push	 eax
  0000a	6a 00		 push	 0
  0000c	ff 75 0c	 push	 DWORD PTR _poArgs$[ebp]
  0000f	e8 00 00 00 00	 call	 ?PyTuple_GetInteger@@YA_NPAU_object@@HPAH@Z ; PyTuple_GetInteger
  00014	83 c4 0c	 add	 esp, 12			; 0000000cH
  00017	84 c0		 test	 al, al
  00019	75 0e		 jne	 SHORT $LN2@netSendElk

; 817  : 		return Py_BuildException();

  0001b	6a 00		 push	 0
  0001d	e8 00 00 00 00	 call	 ?Py_BuildException@@YAPAU_object@@PBDZZ ; Py_BuildException
  00022	83 c4 04	 add	 esp, 4

; 822  : }

  00025	8b e5		 mov	 esp, ebp
  00027	5d		 pop	 ebp
  00028	c3		 ret	 0
$LN2@netSendElk:

; 820  : 	rkNetStream.SendItemDropPacket(TItemPos(RESERVED_WINDOW, 0), (DWORD) iElk);

  00029	ff 75 f8	 push	 DWORD PTR _iElk$[ebp]
; File E:\Metin2_server\SolWayneSF v6\ClientVS22\source\UserInterface\GameType.h

; 207  :         cell = _cell;

  0002c	33 c0		 xor	 eax, eax
  0002e	c6 45 fd 00	 mov	 BYTE PTR $T1[ebp], 0
; File E:\Metin2_server\SolWayneSF v6\ClientVS22\source\UserInterface\PythonNetworkStreamModule.cpp

; 820  : 	rkNetStream.SendItemDropPacket(TItemPos(RESERVED_WINDOW, 0), (DWORD) iElk);

  00032	51		 push	 ecx
  00033	8b cc		 mov	 ecx, esp
; File E:\Metin2_server\SolWayneSF v6\ClientVS22\source\UserInterface\GameType.h

; 207  :         cell = _cell;

  00035	66 89 45 fe	 mov	 WORD PTR $T1[ebp+1], ax
; File E:\Metin2_server\SolWayneSF v6\ClientVS22\source\UserInterface\PythonNetworkStreamModule.cpp

; 820  : 	rkNetStream.SendItemDropPacket(TItemPos(RESERVED_WINDOW, 0), (DWORD) iElk);

  00039	66 8b 45 fd	 mov	 ax, WORD PTR $T1[ebp]
  0003d	66 89 01	 mov	 WORD PTR [ecx], ax
  00040	8a 45 ff	 mov	 al, BYTE PTR $T1[ebp+2]
  00043	88 41 02	 mov	 BYTE PTR [ecx+2], al
  00046	8b 0d 00 00 00
	00		 mov	 ecx, DWORD PTR ?ms_singleton@?$CSingleton@VCPythonNetworkStream@@@@0PAVCPythonNetworkStream@@A ; CSingleton<CPythonNetworkStream>::ms_singleton
  0004c	e8 00 00 00 00	 call	 ?SendItemDropPacket@CPythonNetworkStream@@QAE_NUSItemPos@@K@Z ; CPythonNetworkStream::SendItemDropPacket

; 821  : 	return Py_BuildNone();

  00051	e8 00 00 00 00	 call	 ?Py_BuildNone@@YAPAU_object@@XZ ; Py_BuildNone

; 822  : }

  00056	8b e5		 mov	 esp, ebp
  00058	5d		 pop	 ebp
  00059	c3		 ret	 0
?netSendElkDropPacket@@YAPAU_object@@PAU1@0@Z ENDP	; netSendElkDropPacket
_TEXT	ENDS
; Function compile flags: /Ogtp
; File E:\Metin2_server\SolWayneSF v6\ClientVS22\source\UserInterface\PythonNetworkStreamModule.cpp
; File E:\Metin2_server\SolWayneSF v6\ClientVS22\source\UserInterface\GameType.h
; File E:\Metin2_server\SolWayneSF v6\ClientVS22\source\UserInterface\PythonNetworkStreamModule.cpp
; File E:\Metin2_server\SolWayneSF v6\ClientVS22\source\UserInterface\GameType.h
; File E:\Metin2_server\SolWayneSF v6\ClientVS22\source\UserInterface\PythonNetworkStreamModule.cpp
;	COMDAT ?netSendGoldDropPacketNew@@YAPAU_object@@PAU1@0@Z
_TEXT	SEGMENT
_iElk$ = -8						; size = 4
$T1 = -3						; size = 3
_poSelf$ = 8						; size = 4
_poArgs$ = 12						; size = 4
?netSendGoldDropPacketNew@@YAPAU_object@@PAU1@0@Z PROC	; netSendGoldDropPacketNew, COMDAT

; 825  : {

  00000	55		 push	 ebp
  00001	8b ec		 mov	 ebp, esp
  00003	83 ec 08	 sub	 esp, 8

; 826  : 	int iElk;
; 827  : 	if (!PyTuple_GetInteger(poArgs, 0, &iElk))

  00006	8d 45 f8	 lea	 eax, DWORD PTR _iElk$[ebp]
  00009	50		 push	 eax
  0000a	6a 00		 push	 0
  0000c	ff 75 0c	 push	 DWORD PTR _poArgs$[ebp]
  0000f	e8 00 00 00 00	 call	 ?PyTuple_GetInteger@@YA_NPAU_object@@HPAH@Z ; PyTuple_GetInteger
  00014	83 c4 0c	 add	 esp, 12			; 0000000cH
  00017	6a 00		 push	 0
  00019	84 c0		 test	 al, al
  0001b	75 0c		 jne	 SHORT $LN2@netSendGol

; 828  : 		return Py_BuildException();

  0001d	e8 00 00 00 00	 call	 ?Py_BuildException@@YAPAU_object@@PBDZZ ; Py_BuildException
  00022	83 c4 04	 add	 esp, 4

; 833  : }

  00025	8b e5		 mov	 esp, ebp
  00027	5d		 pop	 ebp
  00028	c3		 ret	 0
$LN2@netSendGol:

; 831  : 	rkNetStream.SendItemDropPacketNew(TItemPos (RESERVED_WINDOW, 0), (DWORD) iElk, 0);

  00029	ff 75 f8	 push	 DWORD PTR _iElk$[ebp]
; File E:\Metin2_server\SolWayneSF v6\ClientVS22\source\UserInterface\GameType.h

; 207  :         cell = _cell;

  0002c	33 c0		 xor	 eax, eax
  0002e	c6 45 fd 00	 mov	 BYTE PTR $T1[ebp], 0
; File E:\Metin2_server\SolWayneSF v6\ClientVS22\source\UserInterface\PythonNetworkStreamModule.cpp

; 831  : 	rkNetStream.SendItemDropPacketNew(TItemPos (RESERVED_WINDOW, 0), (DWORD) iElk, 0);

  00032	51		 push	 ecx
  00033	8b cc		 mov	 ecx, esp
; File E:\Metin2_server\SolWayneSF v6\ClientVS22\source\UserInterface\GameType.h

; 207  :         cell = _cell;

  00035	66 89 45 fe	 mov	 WORD PTR $T1[ebp+1], ax
; File E:\Metin2_server\SolWayneSF v6\ClientVS22\source\UserInterface\PythonNetworkStreamModule.cpp

; 831  : 	rkNetStream.SendItemDropPacketNew(TItemPos (RESERVED_WINDOW, 0), (DWORD) iElk, 0);

  00039	66 8b 45 fd	 mov	 ax, WORD PTR $T1[ebp]
  0003d	66 89 01	 mov	 WORD PTR [ecx], ax
  00040	8a 45 ff	 mov	 al, BYTE PTR $T1[ebp+2]
  00043	88 41 02	 mov	 BYTE PTR [ecx+2], al
  00046	8b 0d 00 00 00
	00		 mov	 ecx, DWORD PTR ?ms_singleton@?$CSingleton@VCPythonNetworkStream@@@@0PAVCPythonNetworkStream@@A ; CSingleton<CPythonNetworkStream>::ms_singleton
  0004c	e8 00 00 00 00	 call	 ?SendItemDropPacketNew@CPythonNetworkStream@@QAE_NUSItemPos@@KK@Z ; CPythonNetworkStream::SendItemDropPacketNew

; 832  : 	return Py_BuildNone();

  00051	e8 00 00 00 00	 call	 ?Py_BuildNone@@YAPAU_object@@XZ ; Py_BuildNone

; 833  : }

  00056	8b e5		 mov	 esp, ebp
  00058	5d		 pop	 ebp
  00059	c3		 ret	 0
?netSendGoldDropPacketNew@@YAPAU_object@@PAU1@0@Z ENDP	; netSendGoldDropPacketNew
_TEXT	ENDS
; Function compile flags: /Ogtp
; File E:\Metin2_server\SolWayneSF v6\ClientVS22\source\UserInterface\PythonNetworkStreamModule.cpp
; File E:\Metin2_server\SolWayneSF v6\ClientVS22\source\UserInterface\GameType.h
; File E:\Metin2_server\SolWayneSF v6\ClientVS22\source\UserInterface\PythonNetworkStreamModule.cpp
; File E:\Metin2_server\SolWayneSF v6\ClientVS22\source\UserInterface\GameType.h
; File E:\Metin2_server\SolWayneSF v6\ClientVS22\source\UserInterface\PythonNetworkStreamModule.cpp
;	COMDAT ?netSendItemMovePacket@@YAPAU_object@@PAU1@0@Z
_TEXT	SEGMENT
_num$ = -12						; size = 4
_Cell$ = -8						; size = 3
_ChangeCell$ = -4					; size = 3
_poSelf$ = 8						; size = 4
_poArgs$ = 12						; size = 4
?netSendItemMovePacket@@YAPAU_object@@PAU1@0@Z PROC	; netSendItemMovePacket, COMDAT

; 836  : {

  00000	55		 push	 ebp
  00001	8b ec		 mov	 ebp, esp
  00003	83 ec 0c	 sub	 esp, 12			; 0000000cH
  00006	56		 push	 esi

; 841  : 	switch (PyTuple_Size(poArgs))

  00007	8b 75 0c	 mov	 esi, DWORD PTR _poArgs$[ebp]
; File E:\Metin2_server\SolWayneSF v6\ClientVS22\source\UserInterface\GameType.h

; 202  : 		cell = WORD_MAX;

  0000a	b8 ff ff 00 00	 mov	 eax, 65535		; 0000ffffH
; File E:\Metin2_server\SolWayneSF v6\ClientVS22\source\UserInterface\PythonNetworkStreamModule.cpp

; 841  : 	switch (PyTuple_Size(poArgs))

  0000f	56		 push	 esi
; File E:\Metin2_server\SolWayneSF v6\ClientVS22\source\UserInterface\GameType.h

; 201  : 		window_type =     INVENTORY;

  00010	c6 45 f8 01	 mov	 BYTE PTR _Cell$[ebp], 1

; 202  : 		cell = WORD_MAX;

  00014	66 89 45 f9	 mov	 WORD PTR _Cell$[ebp+1], ax

; 201  : 		window_type =     INVENTORY;

  00018	c6 45 fc 01	 mov	 BYTE PTR _ChangeCell$[ebp], 1

; 202  : 		cell = WORD_MAX;

  0001c	66 89 45 fd	 mov	 WORD PTR _ChangeCell$[ebp+1], ax
; File E:\Metin2_server\SolWayneSF v6\ClientVS22\source\UserInterface\PythonNetworkStreamModule.cpp

; 841  : 	switch (PyTuple_Size(poArgs))

  00020	ff 15 00 00 00
	00		 call	 DWORD PTR __imp__PyTuple_Size
  00026	83 c4 04	 add	 esp, 4
  00029	83 e8 03	 sub	 eax, 3
  0002c	74 73		 je	 SHORT $LN4@netSendIte
  0002e	83 e8 02	 sub	 eax, 2
  00031	75 5f		 jne	 SHORT $LN20@netSendIte

; 849  : 			return Py_BuildException();
; 850  : 		break;
; 851  : 	case 5:
; 852  : 		{
; 853  : 			if (!PyTuple_GetByte(poArgs, 0, &Cell.window_type))

  00033	8d 45 f8	 lea	 eax, DWORD PTR _Cell$[ebp]
  00036	50		 push	 eax
  00037	6a 00		 push	 0
  00039	56		 push	 esi
  0003a	e8 00 00 00 00	 call	 ?PyTuple_GetByte@@YA_NPAU_object@@HPAE@Z ; PyTuple_GetByte
  0003f	83 c4 0c	 add	 esp, 12			; 0000000cH
  00042	84 c0		 test	 al, al
  00044	74 4c		 je	 SHORT $LN20@netSendIte

; 854  : 				return Py_BuildException();
; 855  : 			if (!PyTuple_GetInteger(poArgs, 1, &Cell.cell))

  00046	8d 45 f9	 lea	 eax, DWORD PTR _Cell$[ebp+1]
  00049	50		 push	 eax
  0004a	6a 01		 push	 1
  0004c	56		 push	 esi
  0004d	e8 00 00 00 00	 call	 ?PyTuple_GetInteger@@YA_NPAU_object@@HPAG@Z ; PyTuple_GetInteger
  00052	83 c4 0c	 add	 esp, 12			; 0000000cH
  00055	84 c0		 test	 al, al
  00057	74 39		 je	 SHORT $LN20@netSendIte

; 856  : 				return Py_BuildException();
; 857  : 			if (!PyTuple_GetByte(poArgs, 2, &ChangeCell.window_type))

  00059	8d 45 fc	 lea	 eax, DWORD PTR _ChangeCell$[ebp]
  0005c	50		 push	 eax
  0005d	6a 02		 push	 2
  0005f	56		 push	 esi
  00060	e8 00 00 00 00	 call	 ?PyTuple_GetByte@@YA_NPAU_object@@HPAE@Z ; PyTuple_GetByte
  00065	83 c4 0c	 add	 esp, 12			; 0000000cH
  00068	84 c0		 test	 al, al
  0006a	74 26		 je	 SHORT $LN20@netSendIte

; 858  : 				return Py_BuildException();
; 859  : 			if (!PyTuple_GetInteger(poArgs, 3, &ChangeCell.cell))

  0006c	8d 45 fd	 lea	 eax, DWORD PTR _ChangeCell$[ebp+1]
  0006f	50		 push	 eax
  00070	6a 03		 push	 3
  00072	56		 push	 esi
  00073	e8 00 00 00 00	 call	 ?PyTuple_GetInteger@@YA_NPAU_object@@HPAG@Z ; PyTuple_GetInteger
  00078	83 c4 0c	 add	 esp, 12			; 0000000cH
  0007b	84 c0		 test	 al, al
  0007d	74 13		 je	 SHORT $LN20@netSendIte

; 860  : 				return Py_BuildException();
; 861  : 			if (!PyTuple_GetInteger(poArgs, 4, &num))

  0007f	8d 45 f4	 lea	 eax, DWORD PTR _num$[ebp]
  00082	50		 push	 eax
  00083	6a 04		 push	 4
  00085	56		 push	 esi
  00086	e8 00 00 00 00	 call	 ?PyTuple_GetInteger@@YA_NPAU_object@@HPAH@Z ; PyTuple_GetInteger
  0008b	83 c4 0c	 add	 esp, 12			; 0000000cH
  0008e	84 c0		 test	 al, al
  00090	75 48		 jne	 SHORT $LN7@netSendIte
$LN20@netSendIte:

; 872  : }

  00092	6a 00		 push	 0
  00094	e8 00 00 00 00	 call	 ?Py_BuildException@@YAPAU_object@@PBDZZ ; Py_BuildException
  00099	83 c4 04	 add	 esp, 4
  0009c	5e		 pop	 esi
  0009d	8b e5		 mov	 esp, ebp
  0009f	5d		 pop	 ebp
  000a0	c3		 ret	 0
$LN4@netSendIte:

; 842  : 	{
; 843  : 	case 3:
; 844  : 		if (!PyTuple_GetInteger(poArgs, 0, &Cell.cell))

  000a1	8d 45 f9	 lea	 eax, DWORD PTR _Cell$[ebp+1]
  000a4	50		 push	 eax
  000a5	6a 00		 push	 0
  000a7	56		 push	 esi
  000a8	e8 00 00 00 00	 call	 ?PyTuple_GetInteger@@YA_NPAU_object@@HPAG@Z ; PyTuple_GetInteger
  000ad	83 c4 0c	 add	 esp, 12			; 0000000cH
  000b0	84 c0		 test	 al, al
  000b2	74 de		 je	 SHORT $LN20@netSendIte

; 845  : 			return Py_BuildException();
; 846  : 		if (!PyTuple_GetInteger(poArgs, 1, &ChangeCell.cell))

  000b4	8d 45 fd	 lea	 eax, DWORD PTR _ChangeCell$[ebp+1]
  000b7	50		 push	 eax
  000b8	6a 01		 push	 1
  000ba	56		 push	 esi
  000bb	e8 00 00 00 00	 call	 ?PyTuple_GetInteger@@YA_NPAU_object@@HPAG@Z ; PyTuple_GetInteger
  000c0	83 c4 0c	 add	 esp, 12			; 0000000cH
  000c3	84 c0		 test	 al, al
  000c5	74 cb		 je	 SHORT $LN20@netSendIte

; 847  : 			return Py_BuildException();
; 848  : 		if (!PyTuple_GetInteger(poArgs, 2, &num))

  000c7	8d 45 f4	 lea	 eax, DWORD PTR _num$[ebp]
  000ca	50		 push	 eax
  000cb	6a 02		 push	 2
  000cd	56		 push	 esi
  000ce	e8 00 00 00 00	 call	 ?PyTuple_GetInteger@@YA_NPAU_object@@HPAH@Z ; PyTuple_GetInteger
  000d3	83 c4 0c	 add	 esp, 12			; 0000000cH
  000d6	84 c0		 test	 al, al
  000d8	74 b8		 je	 SHORT $LN20@netSendIte
$LN7@netSendIte:

; 862  : 				return Py_BuildException();
; 863  : 		}
; 864  : 		break;
; 865  : 	default:
; 866  : 		return Py_BuildException();
; 867  : 	}
; 868  : 
; 869  : 	CPythonNetworkStream& rkNetStream=CPythonNetworkStream::Instance();
; 870  : 	rkNetStream.SendItemMovePacket(Cell, ChangeCell, (BYTE) num);

  000da	ff 75 f4	 push	 DWORD PTR _num$[ebp]
  000dd	0f b7 45 fc	 movzx	 eax, WORD PTR _ChangeCell$[ebp]
  000e1	51		 push	 ecx
  000e2	8b cc		 mov	 ecx, esp
  000e4	51		 push	 ecx
  000e5	66 89 01	 mov	 WORD PTR [ecx], ax
  000e8	8a 45 fe	 mov	 al, BYTE PTR _ChangeCell$[ebp+2]
  000eb	88 41 02	 mov	 BYTE PTR [ecx+2], al
  000ee	8b cc		 mov	 ecx, esp
  000f0	0f b7 45 f8	 movzx	 eax, WORD PTR _Cell$[ebp]
  000f4	66 89 01	 mov	 WORD PTR [ecx], ax
  000f7	8a 45 fa	 mov	 al, BYTE PTR _Cell$[ebp+2]
  000fa	88 41 02	 mov	 BYTE PTR [ecx+2], al
  000fd	8b 0d 00 00 00
	00		 mov	 ecx, DWORD PTR ?ms_singleton@?$CSingleton@VCPythonNetworkStream@@@@0PAVCPythonNetworkStream@@A ; CSingleton<CPythonNetworkStream>::ms_singleton
  00103	e8 00 00 00 00	 call	 ?SendItemMovePacket@CPythonNetworkStream@@QAE_NUSItemPos@@0E@Z ; CPythonNetworkStream::SendItemMovePacket

; 871  : 	return Py_BuildNone();

  00108	e8 00 00 00 00	 call	 ?Py_BuildNone@@YAPAU_object@@XZ ; Py_BuildNone

; 872  : }

  0010d	5e		 pop	 esi
  0010e	8b e5		 mov	 esp, ebp
  00110	5d		 pop	 ebp
  00111	c3		 ret	 0
?netSendItemMovePacket@@YAPAU_object@@PAU1@0@Z ENDP	; netSendItemMovePacket
_TEXT	ENDS
; Function compile flags: /Ogtp
; File E:\Metin2_server\SolWayneSF v6\ClientVS22\source\UserInterface\PythonNetworkStreamModule.cpp
;	COMDAT ?netSendItemPickUpPacket@@YAPAU_object@@PAU1@0@Z
_TEXT	SEGMENT
_vid$ = -4						; size = 4
_poSelf$ = 8						; size = 4
_poArgs$ = 12						; size = 4
?netSendItemPickUpPacket@@YAPAU_object@@PAU1@0@Z PROC	; netSendItemPickUpPacket, COMDAT

; 875  : {

  00000	55		 push	 ebp
  00001	8b ec		 mov	 ebp, esp
  00003	51		 push	 ecx

; 876  : 	int vid;
; 877  : 	if (!PyTuple_GetInteger(poArgs, 0, &vid))

  00004	8d 45 fc	 lea	 eax, DWORD PTR _vid$[ebp]
  00007	50		 push	 eax
  00008	6a 00		 push	 0
  0000a	ff 75 0c	 push	 DWORD PTR _poArgs$[ebp]
  0000d	e8 00 00 00 00	 call	 ?PyTuple_GetInteger@@YA_NPAU_object@@HPAH@Z ; PyTuple_GetInteger
  00012	83 c4 0c	 add	 esp, 12			; 0000000cH
  00015	84 c0		 test	 al, al
  00017	75 0e		 jne	 SHORT $LN2@netSendIte

; 878  : 		return Py_BuildException();

  00019	6a 00		 push	 0
  0001b	e8 00 00 00 00	 call	 ?Py_BuildException@@YAPAU_object@@PBDZZ ; Py_BuildException
  00020	83 c4 04	 add	 esp, 4

; 883  : }

  00023	8b e5		 mov	 esp, ebp
  00025	5d		 pop	 ebp
  00026	c3		 ret	 0
$LN2@netSendIte:

; 879  : 
; 880  : 	CPythonNetworkStream& rkNetStream=CPythonNetworkStream::Instance();
; 881  : 	rkNetStream.SendItemPickUpPacket(vid);

  00027	ff 75 fc	 push	 DWORD PTR _vid$[ebp]
  0002a	8b 0d 00 00 00
	00		 mov	 ecx, DWORD PTR ?ms_singleton@?$CSingleton@VCPythonNetworkStream@@@@0PAVCPythonNetworkStream@@A ; CSingleton<CPythonNetworkStream>::ms_singleton
  00030	e8 00 00 00 00	 call	 ?SendItemPickUpPacket@CPythonNetworkStream@@QAE_NK@Z ; CPythonNetworkStream::SendItemPickUpPacket

; 882  : 	return Py_BuildNone();

  00035	e8 00 00 00 00	 call	 ?Py_BuildNone@@YAPAU_object@@XZ ; Py_BuildNone

; 883  : }

  0003a	8b e5		 mov	 esp, ebp
  0003c	5d		 pop	 ebp
  0003d	c3		 ret	 0
?netSendItemPickUpPacket@@YAPAU_object@@PAU1@0@Z ENDP	; netSendItemPickUpPacket
_TEXT	ENDS
; Function compile flags: /Ogtp
; File E:\Metin2_server\SolWayneSF v6\ClientVS22\source\UserInterface\PythonNetworkStreamModule.cpp
; File E:\Metin2_server\SolWayneSF v6\ClientVS22\source\UserInterface\GameType.h
; File E:\Metin2_server\SolWayneSF v6\ClientVS22\source\UserInterface\PythonNetworkStreamModule.cpp
; File E:\Metin2_server\SolWayneSF v6\ClientVS22\source\UserInterface\GameType.h
; File E:\Metin2_server\SolWayneSF v6\ClientVS22\source\UserInterface\PythonNetworkStreamModule.cpp
;	COMDAT ?netSendGiveItemPacket@@YAPAU_object@@PAU1@0@Z
_TEXT	SEGMENT
_iTargetVID$ = -12					; size = 4
_iItemCount$ = -8					; size = 4
_Cell$ = -4						; size = 3
_poSelf$ = 8						; size = 4
_poArgs$ = 12						; size = 4
?netSendGiveItemPacket@@YAPAU_object@@PAU1@0@Z PROC	; netSendGiveItemPacket, COMDAT

; 886  : {

  00000	55		 push	 ebp
  00001	8b ec		 mov	 ebp, esp
  00003	83 ec 0c	 sub	 esp, 12			; 0000000cH
  00006	56		 push	 esi

; 890  : 	switch (PyTuple_Size(poArgs))

  00007	8b 75 0c	 mov	 esi, DWORD PTR _poArgs$[ebp]
; File E:\Metin2_server\SolWayneSF v6\ClientVS22\source\UserInterface\GameType.h

; 202  : 		cell = WORD_MAX;

  0000a	b8 ff ff 00 00	 mov	 eax, 65535		; 0000ffffH
; File E:\Metin2_server\SolWayneSF v6\ClientVS22\source\UserInterface\PythonNetworkStreamModule.cpp

; 890  : 	switch (PyTuple_Size(poArgs))

  0000f	56		 push	 esi
; File E:\Metin2_server\SolWayneSF v6\ClientVS22\source\UserInterface\GameType.h

; 201  : 		window_type =     INVENTORY;

  00010	c6 45 fc 01	 mov	 BYTE PTR _Cell$[ebp], 1

; 202  : 		cell = WORD_MAX;

  00014	66 89 45 fd	 mov	 WORD PTR _Cell$[ebp+1], ax
; File E:\Metin2_server\SolWayneSF v6\ClientVS22\source\UserInterface\PythonNetworkStreamModule.cpp

; 890  : 	switch (PyTuple_Size(poArgs))

  00018	ff 15 00 00 00
	00		 call	 DWORD PTR __imp__PyTuple_Size
  0001e	83 c4 04	 add	 esp, 4
  00021	83 e8 03	 sub	 eax, 3
  00024	74 64		 je	 SHORT $LN4@netSendGiv
  00026	83 e8 01	 sub	 eax, 1
  00029	0f 85 94 00 00
	00		 jne	 $LN7@netSendGiv

; 898  : 			return Py_BuildException();
; 899  : 		break;
; 900  : 	case 4:
; 901  : 		if (!PyTuple_GetInteger(poArgs, 0, &iTargetVID))

  0002f	8d 45 f4	 lea	 eax, DWORD PTR _iTargetVID$[ebp]
  00032	50		 push	 eax
  00033	6a 00		 push	 0
  00035	56		 push	 esi
  00036	e8 00 00 00 00	 call	 ?PyTuple_GetInteger@@YA_NPAU_object@@HPAH@Z ; PyTuple_GetInteger
  0003b	83 c4 0c	 add	 esp, 12			; 0000000cH
  0003e	84 c0		 test	 al, al
  00040	74 39		 je	 SHORT $LN17@netSendGiv

; 902  : 			return Py_BuildException();
; 903  : 		if (!PyTuple_GetByte(poArgs, 1, &Cell.window_type))

  00042	8d 45 fc	 lea	 eax, DWORD PTR _Cell$[ebp]
  00045	50		 push	 eax
  00046	6a 01		 push	 1
  00048	56		 push	 esi
  00049	e8 00 00 00 00	 call	 ?PyTuple_GetByte@@YA_NPAU_object@@HPAE@Z ; PyTuple_GetByte
  0004e	83 c4 0c	 add	 esp, 12			; 0000000cH
  00051	84 c0		 test	 al, al
  00053	74 26		 je	 SHORT $LN17@netSendGiv

; 904  : 			return Py_BuildException();
; 905  : 		if (!PyTuple_GetInteger(poArgs, 2, &Cell.cell))

  00055	8d 45 fd	 lea	 eax, DWORD PTR _Cell$[ebp+1]
  00058	50		 push	 eax
  00059	6a 02		 push	 2
  0005b	56		 push	 esi
  0005c	e8 00 00 00 00	 call	 ?PyTuple_GetInteger@@YA_NPAU_object@@HPAG@Z ; PyTuple_GetInteger
  00061	83 c4 0c	 add	 esp, 12			; 0000000cH
  00064	84 c0		 test	 al, al
  00066	74 13		 je	 SHORT $LN17@netSendGiv

; 906  : 			return Py_BuildException();
; 907  : 		if (!PyTuple_GetInteger(poArgs, 3, &iItemCount))

  00068	8d 45 f8	 lea	 eax, DWORD PTR _iItemCount$[ebp]
  0006b	50		 push	 eax
  0006c	6a 03		 push	 3
  0006e	56		 push	 esi
  0006f	e8 00 00 00 00	 call	 ?PyTuple_GetInteger@@YA_NPAU_object@@HPAH@Z ; PyTuple_GetInteger
  00074	83 c4 0c	 add	 esp, 12			; 0000000cH
  00077	84 c0		 test	 al, al
  00079	75 48		 jne	 SHORT $LN7@netSendGiv
$LN17@netSendGiv:

; 917  : }

  0007b	6a 00		 push	 0
  0007d	e8 00 00 00 00	 call	 ?Py_BuildException@@YAPAU_object@@PBDZZ ; Py_BuildException
  00082	83 c4 04	 add	 esp, 4
  00085	5e		 pop	 esi
  00086	8b e5		 mov	 esp, ebp
  00088	5d		 pop	 ebp
  00089	c3		 ret	 0
$LN4@netSendGiv:

; 891  : 	{
; 892  : 	case 3:
; 893  : 		if (!PyTuple_GetInteger(poArgs, 0, &iTargetVID))

  0008a	8d 45 f4	 lea	 eax, DWORD PTR _iTargetVID$[ebp]
  0008d	50		 push	 eax
  0008e	6a 00		 push	 0
  00090	56		 push	 esi
  00091	e8 00 00 00 00	 call	 ?PyTuple_GetInteger@@YA_NPAU_object@@HPAH@Z ; PyTuple_GetInteger
  00096	83 c4 0c	 add	 esp, 12			; 0000000cH
  00099	84 c0		 test	 al, al
  0009b	74 de		 je	 SHORT $LN17@netSendGiv

; 894  : 			return Py_BuildException();
; 895  : 		if (!PyTuple_GetInteger(poArgs, 1, &Cell.cell))

  0009d	8d 45 fd	 lea	 eax, DWORD PTR _Cell$[ebp+1]
  000a0	50		 push	 eax
  000a1	6a 01		 push	 1
  000a3	56		 push	 esi
  000a4	e8 00 00 00 00	 call	 ?PyTuple_GetInteger@@YA_NPAU_object@@HPAG@Z ; PyTuple_GetInteger
  000a9	83 c4 0c	 add	 esp, 12			; 0000000cH
  000ac	84 c0		 test	 al, al
  000ae	74 cb		 je	 SHORT $LN17@netSendGiv

; 896  : 			return Py_BuildException();
; 897  : 		if (!PyTuple_GetInteger(poArgs, 2, &iItemCount))

  000b0	8d 45 f8	 lea	 eax, DWORD PTR _iItemCount$[ebp]
  000b3	50		 push	 eax
  000b4	6a 02		 push	 2
  000b6	56		 push	 esi
  000b7	e8 00 00 00 00	 call	 ?PyTuple_GetInteger@@YA_NPAU_object@@HPAH@Z ; PyTuple_GetInteger
  000bc	83 c4 0c	 add	 esp, 12			; 0000000cH
  000bf	84 c0		 test	 al, al
  000c1	74 b8		 je	 SHORT $LN17@netSendGiv
$LN7@netSendGiv:

; 908  : 			return Py_BuildException();
; 909  : 		break;
; 910  : 	default:
; 911  : 		break;
; 912  : 	}
; 913  : 
; 914  : 	CPythonNetworkStream& rkNetStream=CPythonNetworkStream::Instance();
; 915  : 	rkNetStream.SendGiveItemPacket(iTargetVID, Cell, iItemCount);

  000c3	ff 75 f8	 push	 DWORD PTR _iItemCount$[ebp]
  000c6	66 8b 45 fc	 mov	 ax, WORD PTR _Cell$[ebp]
  000ca	51		 push	 ecx
  000cb	8b cc		 mov	 ecx, esp
  000cd	ff 75 f4	 push	 DWORD PTR _iTargetVID$[ebp]
  000d0	66 89 01	 mov	 WORD PTR [ecx], ax
  000d3	8a 45 fe	 mov	 al, BYTE PTR _Cell$[ebp+2]
  000d6	88 41 02	 mov	 BYTE PTR [ecx+2], al
  000d9	8b 0d 00 00 00
	00		 mov	 ecx, DWORD PTR ?ms_singleton@?$CSingleton@VCPythonNetworkStream@@@@0PAVCPythonNetworkStream@@A ; CSingleton<CPythonNetworkStream>::ms_singleton
  000df	e8 00 00 00 00	 call	 ?SendGiveItemPacket@CPythonNetworkStream@@QAE_NKUSItemPos@@H@Z ; CPythonNetworkStream::SendGiveItemPacket

; 916  : 	return Py_BuildNone();

  000e4	e8 00 00 00 00	 call	 ?Py_BuildNone@@YAPAU_object@@XZ ; Py_BuildNone

; 917  : }

  000e9	5e		 pop	 esi
  000ea	8b e5		 mov	 esp, ebp
  000ec	5d		 pop	 ebp
  000ed	c3		 ret	 0
?netSendGiveItemPacket@@YAPAU_object@@PAU1@0@Z ENDP	; netSendGiveItemPacket
_TEXT	ENDS
; Function compile flags: /Ogtp
; File E:\Metin2_server\SolWayneSF v6\ClientVS22\source\UserInterface\PythonNetworkStreamModule.cpp
;	COMDAT ?netSendShopEndPacket@@YAPAU_object@@PAU1@0@Z
_TEXT	SEGMENT
_poSelf$ = 8						; size = 4
_poArgs$ = 12						; size = 4
?netSendShopEndPacket@@YAPAU_object@@PAU1@0@Z PROC	; netSendShopEndPacket, COMDAT

; 921  : 	CPythonNetworkStream& rkNetStream=CPythonNetworkStream::Instance();
; 922  : 	rkNetStream.SendShopEndPacket();

  00000	8b 0d 00 00 00
	00		 mov	 ecx, DWORD PTR ?ms_singleton@?$CSingleton@VCPythonNetworkStream@@@@0PAVCPythonNetworkStream@@A ; CSingleton<CPythonNetworkStream>::ms_singleton
  00006	e8 00 00 00 00	 call	 ?SendShopEndPacket@CPythonNetworkStream@@QAE_NXZ ; CPythonNetworkStream::SendShopEndPacket

; 923  : 	return Py_BuildNone();

  0000b	e9 00 00 00 00	 jmp	 ?Py_BuildNone@@YAPAU_object@@XZ ; Py_BuildNone
?netSendShopEndPacket@@YAPAU_object@@PAU1@0@Z ENDP	; netSendShopEndPacket
_TEXT	ENDS
; Function compile flags: /Ogtp
; File E:\Metin2_server\SolWayneSF v6\ClientVS22\source\UserInterface\PythonNetworkStreamModule.cpp
;	COMDAT ?netSendShopBuyPacket@@YAPAU_object@@PAU1@0@Z
_TEXT	SEGMENT
_iCount$ = -4						; size = 4
_poSelf$ = 8						; size = 4
_poArgs$ = 12						; size = 4
?netSendShopBuyPacket@@YAPAU_object@@PAU1@0@Z PROC	; netSendShopBuyPacket, COMDAT

; 927  : {

  00000	55		 push	 ebp
  00001	8b ec		 mov	 ebp, esp
  00003	51		 push	 ecx

; 928  : 	int iCount;
; 929  : 	if (!PyTuple_GetInteger(poArgs, 0, &iCount))

  00004	8d 45 fc	 lea	 eax, DWORD PTR _iCount$[ebp]
  00007	50		 push	 eax
  00008	6a 00		 push	 0
  0000a	ff 75 0c	 push	 DWORD PTR _poArgs$[ebp]
  0000d	e8 00 00 00 00	 call	 ?PyTuple_GetInteger@@YA_NPAU_object@@HPAH@Z ; PyTuple_GetInteger
  00012	83 c4 0c	 add	 esp, 12			; 0000000cH
  00015	84 c0		 test	 al, al
  00017	75 0e		 jne	 SHORT $LN2@netSendSho

; 930  : 		return Py_BuildException();

  00019	6a 00		 push	 0
  0001b	e8 00 00 00 00	 call	 ?Py_BuildException@@YAPAU_object@@PBDZZ ; Py_BuildException
  00020	83 c4 04	 add	 esp, 4

; 935  : }

  00023	8b e5		 mov	 esp, ebp
  00025	5d		 pop	 ebp
  00026	c3		 ret	 0
$LN2@netSendSho:

; 931  : 
; 932  : 	CPythonNetworkStream& rkNetStream=CPythonNetworkStream::Instance();
; 933  : 	rkNetStream.SendShopBuyPacket(iCount);

  00027	ff 75 fc	 push	 DWORD PTR _iCount$[ebp]
  0002a	8b 0d 00 00 00
	00		 mov	 ecx, DWORD PTR ?ms_singleton@?$CSingleton@VCPythonNetworkStream@@@@0PAVCPythonNetworkStream@@A ; CSingleton<CPythonNetworkStream>::ms_singleton
  00030	e8 00 00 00 00	 call	 ?SendShopBuyPacket@CPythonNetworkStream@@QAE_NE@Z ; CPythonNetworkStream::SendShopBuyPacket

; 934  : 	return Py_BuildNone();

  00035	e8 00 00 00 00	 call	 ?Py_BuildNone@@YAPAU_object@@XZ ; Py_BuildNone

; 935  : }

  0003a	8b e5		 mov	 esp, ebp
  0003c	5d		 pop	 ebp
  0003d	c3		 ret	 0
?netSendShopBuyPacket@@YAPAU_object@@PAU1@0@Z ENDP	; netSendShopBuyPacket
_TEXT	ENDS
; Function compile flags: /Ogtp
; File E:\Metin2_server\SolWayneSF v6\ClientVS22\source\UserInterface\PythonNetworkStreamModule.cpp
;	COMDAT ?netSendShopSellPacket@@YAPAU_object@@PAU1@0@Z
_TEXT	SEGMENT
_iSlotNumber$ = -4					; size = 4
_poSelf$ = 8						; size = 4
_poArgs$ = 12						; size = 4
?netSendShopSellPacket@@YAPAU_object@@PAU1@0@Z PROC	; netSendShopSellPacket, COMDAT

; 938  : {

  00000	55		 push	 ebp
  00001	8b ec		 mov	 ebp, esp
  00003	51		 push	 ecx

; 939  : 	int iSlotNumber;
; 940  : 	if (!PyTuple_GetInteger(poArgs, 0, &iSlotNumber))

  00004	8d 45 fc	 lea	 eax, DWORD PTR _iSlotNumber$[ebp]
  00007	50		 push	 eax
  00008	6a 00		 push	 0
  0000a	ff 75 0c	 push	 DWORD PTR _poArgs$[ebp]
  0000d	e8 00 00 00 00	 call	 ?PyTuple_GetInteger@@YA_NPAU_object@@HPAH@Z ; PyTuple_GetInteger
  00012	83 c4 0c	 add	 esp, 12			; 0000000cH
  00015	84 c0		 test	 al, al
  00017	75 0e		 jne	 SHORT $LN2@netSendSho

; 941  : 		return Py_BuildException();

  00019	6a 00		 push	 0
  0001b	e8 00 00 00 00	 call	 ?Py_BuildException@@YAPAU_object@@PBDZZ ; Py_BuildException
  00020	83 c4 04	 add	 esp, 4

; 945  : }

  00023	8b e5		 mov	 esp, ebp
  00025	5d		 pop	 ebp
  00026	c3		 ret	 0
$LN2@netSendSho:

; 942  : 	CPythonNetworkStream& rkNetStream=CPythonNetworkStream::Instance();
; 943  : 	rkNetStream.SendShopSellPacket(iSlotNumber);

  00027	ff 75 fc	 push	 DWORD PTR _iSlotNumber$[ebp]
  0002a	8b 0d 00 00 00
	00		 mov	 ecx, DWORD PTR ?ms_singleton@?$CSingleton@VCPythonNetworkStream@@@@0PAVCPythonNetworkStream@@A ; CSingleton<CPythonNetworkStream>::ms_singleton
  00030	e8 00 00 00 00	 call	 ?SendShopSellPacket@CPythonNetworkStream@@QAE_NE@Z ; CPythonNetworkStream::SendShopSellPacket

; 944  : 	return Py_BuildNone();

  00035	e8 00 00 00 00	 call	 ?Py_BuildNone@@YAPAU_object@@XZ ; Py_BuildNone

; 945  : }

  0003a	8b e5		 mov	 esp, ebp
  0003c	5d		 pop	 ebp
  0003d	c3		 ret	 0
?netSendShopSellPacket@@YAPAU_object@@PAU1@0@Z ENDP	; netSendShopSellPacket
_TEXT	ENDS
; Function compile flags: /Ogtp
; File E:\Metin2_server\SolWayneSF v6\ClientVS22\source\UserInterface\PythonNetworkStreamModule.cpp
;	COMDAT ?netSendShopSellPacketNew@@YAPAU_object@@PAU1@0@Z
_TEXT	SEGMENT
_iSlotNumber$ = -8					; size = 4
_iCount$ = -4						; size = 4
_poSelf$ = 8						; size = 4
_poArgs$ = 12						; size = 4
?netSendShopSellPacketNew@@YAPAU_object@@PAU1@0@Z PROC	; netSendShopSellPacketNew, COMDAT

; 948  : {

  00000	55		 push	 ebp
  00001	8b ec		 mov	 ebp, esp
  00003	83 ec 08	 sub	 esp, 8

; 949  : 	int iSlotNumber;
; 950  : 	if (!PyTuple_GetInteger(poArgs, 0, &iSlotNumber))

  00006	8d 45 f8	 lea	 eax, DWORD PTR _iSlotNumber$[ebp]
  00009	50		 push	 eax
  0000a	6a 00		 push	 0
  0000c	ff 75 0c	 push	 DWORD PTR _poArgs$[ebp]
  0000f	e8 00 00 00 00	 call	 ?PyTuple_GetInteger@@YA_NPAU_object@@HPAH@Z ; PyTuple_GetInteger
  00014	83 c4 0c	 add	 esp, 12			; 0000000cH
  00017	84 c0		 test	 al, al
  00019	75 0e		 jne	 SHORT $LN2@netSendSho
$LN5@netSendSho:

; 958  : }

  0001b	6a 00		 push	 0
  0001d	e8 00 00 00 00	 call	 ?Py_BuildException@@YAPAU_object@@PBDZZ ; Py_BuildException
  00022	83 c4 04	 add	 esp, 4
  00025	8b e5		 mov	 esp, ebp
  00027	5d		 pop	 ebp
  00028	c3		 ret	 0
$LN2@netSendSho:

; 951  : 		return Py_BuildException();
; 952  : 	int iCount;
; 953  : 	if (!PyTuple_GetInteger(poArgs, 1, &iCount))

  00029	8d 45 fc	 lea	 eax, DWORD PTR _iCount$[ebp]
  0002c	50		 push	 eax
  0002d	6a 01		 push	 1
  0002f	ff 75 0c	 push	 DWORD PTR _poArgs$[ebp]
  00032	e8 00 00 00 00	 call	 ?PyTuple_GetInteger@@YA_NPAU_object@@HPAH@Z ; PyTuple_GetInteger
  00037	83 c4 0c	 add	 esp, 12			; 0000000cH
  0003a	84 c0		 test	 al, al
  0003c	74 dd		 je	 SHORT $LN5@netSendSho

; 954  : 		return Py_BuildException();
; 955  : 	CPythonNetworkStream& rkNetStream=CPythonNetworkStream::Instance();
; 956  : 	rkNetStream.SendShopSellPacketNew(iSlotNumber, iCount);

  0003e	ff 75 fc	 push	 DWORD PTR _iCount$[ebp]
  00041	8b 0d 00 00 00
	00		 mov	 ecx, DWORD PTR ?ms_singleton@?$CSingleton@VCPythonNetworkStream@@@@0PAVCPythonNetworkStream@@A ; CSingleton<CPythonNetworkStream>::ms_singleton
  00047	ff 75 f8	 push	 DWORD PTR _iSlotNumber$[ebp]
  0004a	e8 00 00 00 00	 call	 ?SendShopSellPacketNew@CPythonNetworkStream@@QAE_NEE@Z ; CPythonNetworkStream::SendShopSellPacketNew

; 957  : 	return Py_BuildNone();

  0004f	e8 00 00 00 00	 call	 ?Py_BuildNone@@YAPAU_object@@XZ ; Py_BuildNone

; 958  : }

  00054	8b e5		 mov	 esp, ebp
  00056	5d		 pop	 ebp
  00057	c3		 ret	 0
?netSendShopSellPacketNew@@YAPAU_object@@PAU1@0@Z ENDP	; netSendShopSellPacketNew
_TEXT	ENDS
; Function compile flags: /Ogtp
; File E:\Metin2_server\SolWayneSF v6\ClientVS22\source\UserInterface\PythonNetworkStreamModule.cpp
;	COMDAT ?netSendExchangeStartPacket@@YAPAU_object@@PAU1@0@Z
_TEXT	SEGMENT
_vid$ = -4						; size = 4
_poSelf$ = 8						; size = 4
_poArgs$ = 12						; size = 4
?netSendExchangeStartPacket@@YAPAU_object@@PAU1@0@Z PROC ; netSendExchangeStartPacket, COMDAT

; 961  : {

  00000	55		 push	 ebp
  00001	8b ec		 mov	 ebp, esp
  00003	51		 push	 ecx

; 962  : 	int vid;
; 963  : 	if (!PyTuple_GetInteger(poArgs, 0, &vid))

  00004	8d 45 fc	 lea	 eax, DWORD PTR _vid$[ebp]
  00007	50		 push	 eax
  00008	6a 00		 push	 0
  0000a	ff 75 0c	 push	 DWORD PTR _poArgs$[ebp]
  0000d	e8 00 00 00 00	 call	 ?PyTuple_GetInteger@@YA_NPAU_object@@HPAH@Z ; PyTuple_GetInteger
  00012	83 c4 0c	 add	 esp, 12			; 0000000cH
  00015	84 c0		 test	 al, al
  00017	75 0e		 jne	 SHORT $LN2@netSendExc

; 964  : 		return Py_BuildException();

  00019	6a 00		 push	 0
  0001b	e8 00 00 00 00	 call	 ?Py_BuildException@@YAPAU_object@@PBDZZ ; Py_BuildException
  00020	83 c4 04	 add	 esp, 4

; 969  : }

  00023	8b e5		 mov	 esp, ebp
  00025	5d		 pop	 ebp
  00026	c3		 ret	 0
$LN2@netSendExc:

; 965  : 
; 966  : 	CPythonNetworkStream& rkNetStream=CPythonNetworkStream::Instance();
; 967  : 	rkNetStream.SendExchangeStartPacket(vid);

  00027	ff 75 fc	 push	 DWORD PTR _vid$[ebp]
  0002a	8b 0d 00 00 00
	00		 mov	 ecx, DWORD PTR ?ms_singleton@?$CSingleton@VCPythonNetworkStream@@@@0PAVCPythonNetworkStream@@A ; CSingleton<CPythonNetworkStream>::ms_singleton
  00030	e8 00 00 00 00	 call	 ?SendExchangeStartPacket@CPythonNetworkStream@@QAE_NK@Z ; CPythonNetworkStream::SendExchangeStartPacket

; 968  : 	return Py_BuildNone();

  00035	e8 00 00 00 00	 call	 ?Py_BuildNone@@YAPAU_object@@XZ ; Py_BuildNone

; 969  : }

  0003a	8b e5		 mov	 esp, ebp
  0003c	5d		 pop	 ebp
  0003d	c3		 ret	 0
?netSendExchangeStartPacket@@YAPAU_object@@PAU1@0@Z ENDP ; netSendExchangeStartPacket
_TEXT	ENDS
; Function compile flags: /Ogtp
; File E:\Metin2_server\SolWayneSF v6\ClientVS22\source\UserInterface\PythonNetworkStreamModule.cpp
;	COMDAT ?netSendExchangeElkAddPacket@@YAPAU_object@@PAU1@0@Z
_TEXT	SEGMENT
_iElk$ = -8						; size = 8
_poSelf$ = 8						; size = 4
_poArgs$ = 12						; size = 4
?netSendExchangeElkAddPacket@@YAPAU_object@@PAU1@0@Z PROC ; netSendExchangeElkAddPacket, COMDAT

; 972  : {

  00000	55		 push	 ebp
  00001	8b ec		 mov	 ebp, esp
  00003	83 ec 08	 sub	 esp, 8

; 973  : 	long long iElk;
; 974  : 	if (!PyTuple_GetLongLong(poArgs, 0, &iElk))

  00006	8d 45 f8	 lea	 eax, DWORD PTR _iElk$[ebp]
  00009	50		 push	 eax
  0000a	6a 00		 push	 0
  0000c	ff 75 0c	 push	 DWORD PTR _poArgs$[ebp]
  0000f	e8 00 00 00 00	 call	 ?PyTuple_GetLongLong@@YA_NPAU_object@@HPA_J@Z ; PyTuple_GetLongLong
  00014	83 c4 0c	 add	 esp, 12			; 0000000cH
  00017	84 c0		 test	 al, al
  00019	75 0e		 jne	 SHORT $LN2@netSendExc

; 975  : 		return Py_BuildException();

  0001b	6a 00		 push	 0
  0001d	e8 00 00 00 00	 call	 ?Py_BuildException@@YAPAU_object@@PBDZZ ; Py_BuildException
  00022	83 c4 04	 add	 esp, 4

; 980  : }

  00025	8b e5		 mov	 esp, ebp
  00027	5d		 pop	 ebp
  00028	c3		 ret	 0
$LN2@netSendExc:

; 976  : 
; 977  : 	CPythonNetworkStream& rkNetStream=CPythonNetworkStream::Instance();
; 978  : 	rkNetStream.SendExchangeElkAddPacket(iElk);

  00029	ff 75 fc	 push	 DWORD PTR _iElk$[ebp+4]
  0002c	8b 0d 00 00 00
	00		 mov	 ecx, DWORD PTR ?ms_singleton@?$CSingleton@VCPythonNetworkStream@@@@0PAVCPythonNetworkStream@@A ; CSingleton<CPythonNetworkStream>::ms_singleton
  00032	ff 75 f8	 push	 DWORD PTR _iElk$[ebp]
  00035	e8 00 00 00 00	 call	 ?SendExchangeElkAddPacket@CPythonNetworkStream@@QAE_N_J@Z ; CPythonNetworkStream::SendExchangeElkAddPacket

; 979  : 	return Py_BuildNone();

  0003a	e8 00 00 00 00	 call	 ?Py_BuildNone@@YAPAU_object@@XZ ; Py_BuildNone

; 980  : }

  0003f	8b e5		 mov	 esp, ebp
  00041	5d		 pop	 ebp
  00042	c3		 ret	 0
?netSendExchangeElkAddPacket@@YAPAU_object@@PAU1@0@Z ENDP ; netSendExchangeElkAddPacket
_TEXT	ENDS
; Function compile flags: /Ogtp
; File E:\Metin2_server\SolWayneSF v6\ClientVS22\source\UserInterface\PythonNetworkStreamModule.cpp
; File E:\Metin2_server\SolWayneSF v6\ClientVS22\source\UserInterface\GameType.h
; File E:\Metin2_server\SolWayneSF v6\ClientVS22\source\UserInterface\PythonNetworkStreamModule.cpp
; File E:\Metin2_server\SolWayneSF v6\ClientVS22\source\UserInterface\GameType.h
; File E:\Metin2_server\SolWayneSF v6\ClientVS22\source\UserInterface\PythonNetworkStreamModule.cpp
;	COMDAT ?netSendExchangeItemAddPacket@@YAPAU_object@@PAU1@0@Z
_TEXT	SEGMENT
_iDisplaySlotIndex$ = -16				; size = 4
$T1 = -11						; size = 3
_wSlotIndex$ = -8					; size = 2
_bWindowType$ = -1					; size = 1
_poSelf$ = 8						; size = 4
_poArgs$ = 12						; size = 4
?netSendExchangeItemAddPacket@@YAPAU_object@@PAU1@0@Z PROC ; netSendExchangeItemAddPacket, COMDAT

; 983  : {

  00000	55		 push	 ebp
  00001	8b ec		 mov	 ebp, esp
  00003	83 ec 10	 sub	 esp, 16			; 00000010H

; 984  : 	BYTE bWindowType;
; 985  : 	if (!PyTuple_GetInteger(poArgs, 0, &bWindowType))

  00006	8d 45 ff	 lea	 eax, DWORD PTR _bWindowType$[ebp]
  00009	56		 push	 esi
  0000a	8b 75 0c	 mov	 esi, DWORD PTR _poArgs$[ebp]
  0000d	50		 push	 eax
  0000e	6a 00		 push	 0
  00010	56		 push	 esi
  00011	e8 00 00 00 00	 call	 ?PyTuple_GetInteger@@YA_NPAU_object@@HPAE@Z ; PyTuple_GetInteger
  00016	83 c4 0c	 add	 esp, 12			; 0000000cH
  00019	84 c0		 test	 al, al
  0001b	75 0f		 jne	 SHORT $LN2@netSendExc
$LN8@netSendExc:

; 997  : }

  0001d	6a 00		 push	 0
  0001f	e8 00 00 00 00	 call	 ?Py_BuildException@@YAPAU_object@@PBDZZ ; Py_BuildException
  00024	83 c4 04	 add	 esp, 4
  00027	5e		 pop	 esi
  00028	8b e5		 mov	 esp, ebp
  0002a	5d		 pop	 ebp
  0002b	c3		 ret	 0
$LN2@netSendExc:

; 986  : 		return Py_BuildException();
; 987  : 	WORD wSlotIndex;
; 988  : 	if (!PyTuple_GetInteger(poArgs, 1, &wSlotIndex))

  0002c	8d 45 f8	 lea	 eax, DWORD PTR _wSlotIndex$[ebp]
  0002f	50		 push	 eax
  00030	6a 01		 push	 1
  00032	56		 push	 esi
  00033	e8 00 00 00 00	 call	 ?PyTuple_GetInteger@@YA_NPAU_object@@HPAG@Z ; PyTuple_GetInteger
  00038	83 c4 0c	 add	 esp, 12			; 0000000cH
  0003b	84 c0		 test	 al, al
  0003d	74 de		 je	 SHORT $LN8@netSendExc

; 989  : 		return Py_BuildException();
; 990  : 	int iDisplaySlotIndex;
; 991  : 	if (!PyTuple_GetInteger(poArgs, 2, &iDisplaySlotIndex))

  0003f	8d 45 f0	 lea	 eax, DWORD PTR _iDisplaySlotIndex$[ebp]
  00042	50		 push	 eax
  00043	6a 02		 push	 2
  00045	56		 push	 esi
  00046	e8 00 00 00 00	 call	 ?PyTuple_GetInteger@@YA_NPAU_object@@HPAH@Z ; PyTuple_GetInteger
  0004b	83 c4 0c	 add	 esp, 12			; 0000000cH
  0004e	84 c0		 test	 al, al
  00050	74 cb		 je	 SHORT $LN8@netSendExc

; 995  : 	rkNetStream.SendExchangeItemAddPacket(TItemPos(bWindowType, wSlotIndex), iDisplaySlotIndex);

  00052	ff 75 f0	 push	 DWORD PTR _iDisplaySlotIndex$[ebp]
; File E:\Metin2_server\SolWayneSF v6\ClientVS22\source\UserInterface\GameType.h

; 206  :         window_type = _window_type;

  00055	8a 45 ff	 mov	 al, BYTE PTR _bWindowType$[ebp]
  00058	88 45 f5	 mov	 BYTE PTR $T1[ebp], al

; 207  :         cell = _cell;

  0005b	0f b7 45 f8	 movzx	 eax, WORD PTR _wSlotIndex$[ebp]
; File E:\Metin2_server\SolWayneSF v6\ClientVS22\source\UserInterface\PythonNetworkStreamModule.cpp

; 995  : 	rkNetStream.SendExchangeItemAddPacket(TItemPos(bWindowType, wSlotIndex), iDisplaySlotIndex);

  0005f	51		 push	 ecx
  00060	8b cc		 mov	 ecx, esp
; File E:\Metin2_server\SolWayneSF v6\ClientVS22\source\UserInterface\GameType.h

; 207  :         cell = _cell;

  00062	66 89 45 f6	 mov	 WORD PTR $T1[ebp+1], ax
; File E:\Metin2_server\SolWayneSF v6\ClientVS22\source\UserInterface\PythonNetworkStreamModule.cpp

; 995  : 	rkNetStream.SendExchangeItemAddPacket(TItemPos(bWindowType, wSlotIndex), iDisplaySlotIndex);

  00066	0f b7 45 f5	 movzx	 eax, WORD PTR $T1[ebp]
  0006a	66 89 01	 mov	 WORD PTR [ecx], ax
  0006d	8a 45 f7	 mov	 al, BYTE PTR $T1[ebp+2]
  00070	88 41 02	 mov	 BYTE PTR [ecx+2], al
  00073	8b 0d 00 00 00
	00		 mov	 ecx, DWORD PTR ?ms_singleton@?$CSingleton@VCPythonNetworkStream@@@@0PAVCPythonNetworkStream@@A ; CSingleton<CPythonNetworkStream>::ms_singleton
  00079	e8 00 00 00 00	 call	 ?SendExchangeItemAddPacket@CPythonNetworkStream@@QAE_NUSItemPos@@E@Z ; CPythonNetworkStream::SendExchangeItemAddPacket

; 996  : 	return Py_BuildNone();

  0007e	e8 00 00 00 00	 call	 ?Py_BuildNone@@YAPAU_object@@XZ ; Py_BuildNone

; 997  : }

  00083	5e		 pop	 esi
  00084	8b e5		 mov	 esp, ebp
  00086	5d		 pop	 ebp
  00087	c3		 ret	 0
?netSendExchangeItemAddPacket@@YAPAU_object@@PAU1@0@Z ENDP ; netSendExchangeItemAddPacket
_TEXT	ENDS
; Function compile flags: /Ogtp
; File E:\Metin2_server\SolWayneSF v6\ClientVS22\source\UserInterface\PythonNetworkStreamModule.cpp
;	COMDAT ?netSendExchangeItemDelPacket@@YAPAU_object@@PAU1@0@Z
_TEXT	SEGMENT
_pos$ = -4						; size = 4
_poSelf$ = 8						; size = 4
_poArgs$ = 12						; size = 4
?netSendExchangeItemDelPacket@@YAPAU_object@@PAU1@0@Z PROC ; netSendExchangeItemDelPacket, COMDAT

; 1000 : {

  00000	55		 push	 ebp
  00001	8b ec		 mov	 ebp, esp
  00003	51		 push	 ecx

; 1001 : 	int pos;
; 1002 : 	if (!PyTuple_GetInteger(poArgs, 0, &pos))

  00004	8d 45 fc	 lea	 eax, DWORD PTR _pos$[ebp]
  00007	50		 push	 eax
  00008	6a 00		 push	 0
  0000a	ff 75 0c	 push	 DWORD PTR _poArgs$[ebp]
  0000d	e8 00 00 00 00	 call	 ?PyTuple_GetInteger@@YA_NPAU_object@@HPAH@Z ; PyTuple_GetInteger
  00012	83 c4 0c	 add	 esp, 12			; 0000000cH
  00015	84 c0		 test	 al, al
  00017	75 0e		 jne	 SHORT $LN2@netSendExc

; 1003 : 		return Py_BuildException();

  00019	6a 00		 push	 0
  0001b	e8 00 00 00 00	 call	 ?Py_BuildException@@YAPAU_object@@PBDZZ ; Py_BuildException
  00020	83 c4 04	 add	 esp, 4

; 1008 : }

  00023	8b e5		 mov	 esp, ebp
  00025	5d		 pop	 ebp
  00026	c3		 ret	 0
$LN2@netSendExc:

; 1004 : 
; 1005 : 	CPythonNetworkStream& rkNetStream=CPythonNetworkStream::Instance();
; 1006 : 	rkNetStream.SendExchangeItemDelPacket((BYTE) pos);

  00027	51		 push	 ecx
  00028	e8 00 00 00 00	 call	 ?SendExchangeItemDelPacket@CPythonNetworkStream@@QAE_NE@Z ; CPythonNetworkStream::SendExchangeItemDelPacket

; 1007 : 	return Py_BuildNone();

  0002d	e8 00 00 00 00	 call	 ?Py_BuildNone@@YAPAU_object@@XZ ; Py_BuildNone

; 1008 : }

  00032	8b e5		 mov	 esp, ebp
  00034	5d		 pop	 ebp
  00035	c3		 ret	 0
?netSendExchangeItemDelPacket@@YAPAU_object@@PAU1@0@Z ENDP ; netSendExchangeItemDelPacket
_TEXT	ENDS
; Function compile flags: /Ogtp
; File E:\Metin2_server\SolWayneSF v6\ClientVS22\source\UserInterface\PythonNetworkStreamModule.cpp
;	COMDAT ?netSendExchangeAcceptPacket@@YAPAU_object@@PAU1@0@Z
_TEXT	SEGMENT
_poSelf$ = 8						; size = 4
_poArgs$ = 12						; size = 4
?netSendExchangeAcceptPacket@@YAPAU_object@@PAU1@0@Z PROC ; netSendExchangeAcceptPacket, COMDAT

; 1012 : 	CPythonNetworkStream& rkNetStream=CPythonNetworkStream::Instance();
; 1013 : 	rkNetStream.SendExchangeAcceptPacket();

  00000	8b 0d 00 00 00
	00		 mov	 ecx, DWORD PTR ?ms_singleton@?$CSingleton@VCPythonNetworkStream@@@@0PAVCPythonNetworkStream@@A ; CSingleton<CPythonNetworkStream>::ms_singleton
  00006	e8 00 00 00 00	 call	 ?SendExchangeAcceptPacket@CPythonNetworkStream@@QAE_NXZ ; CPythonNetworkStream::SendExchangeAcceptPacket

; 1014 : 	return Py_BuildNone();

  0000b	e9 00 00 00 00	 jmp	 ?Py_BuildNone@@YAPAU_object@@XZ ; Py_BuildNone
?netSendExchangeAcceptPacket@@YAPAU_object@@PAU1@0@Z ENDP ; netSendExchangeAcceptPacket
_TEXT	ENDS
; Function compile flags: /Ogtp
; File E:\Metin2_server\SolWayneSF v6\ClientVS22\source\UserInterface\PythonNetworkStreamModule.cpp
;	COMDAT ?netSendExchangeExitPacket@@YAPAU_object@@PAU1@0@Z
_TEXT	SEGMENT
_poSelf$ = 8						; size = 4
_poArgs$ = 12						; size = 4
?netSendExchangeExitPacket@@YAPAU_object@@PAU1@0@Z PROC	; netSendExchangeExitPacket, COMDAT

; 1019 : 	CPythonNetworkStream& rkNetStream=CPythonNetworkStream::Instance();
; 1020 : 	rkNetStream.SendExchangeExitPacket();

  00000	8b 0d 00 00 00
	00		 mov	 ecx, DWORD PTR ?ms_singleton@?$CSingleton@VCPythonNetworkStream@@@@0PAVCPythonNetworkStream@@A ; CSingleton<CPythonNetworkStream>::ms_singleton
  00006	e8 00 00 00 00	 call	 ?SendExchangeExitPacket@CPythonNetworkStream@@QAE_NXZ ; CPythonNetworkStream::SendExchangeExitPacket

; 1021 : 	return Py_BuildNone();

  0000b	e9 00 00 00 00	 jmp	 ?Py_BuildNone@@YAPAU_object@@XZ ; Py_BuildNone
?netSendExchangeExitPacket@@YAPAU_object@@PAU1@0@Z ENDP	; netSendExchangeExitPacket
_TEXT	ENDS
; Function compile flags: /Ogtp
; File E:\Metin2_server\SolWayneSF v6\ClientVS22\source\UserInterface\PythonNetworkStreamModule.cpp
;	COMDAT ?netExitApplication@@YAPAU_object@@PAU1@0@Z
_TEXT	SEGMENT
_poSelf$ = 8						; size = 4
_poArgs$ = 12						; size = 4
?netExitApplication@@YAPAU_object@@PAU1@0@Z PROC	; netExitApplication, COMDAT

; 1026 : 	CPythonNetworkStream& rkNetStream=CPythonNetworkStream::Instance();
; 1027 : 	rkNetStream.ExitApplication();

  00000	8b 0d 00 00 00
	00		 mov	 ecx, DWORD PTR ?ms_singleton@?$CSingleton@VCPythonNetworkStream@@@@0PAVCPythonNetworkStream@@A ; CSingleton<CPythonNetworkStream>::ms_singleton
  00006	e8 00 00 00 00	 call	 ?ExitApplication@CPythonNetworkStream@@QAEXXZ ; CPythonNetworkStream::ExitApplication

; 1028 : 	return Py_BuildNone();

  0000b	e9 00 00 00 00	 jmp	 ?Py_BuildNone@@YAPAU_object@@XZ ; Py_BuildNone
?netExitApplication@@YAPAU_object@@PAU1@0@Z ENDP	; netExitApplication
_TEXT	ENDS
; Function compile flags: /Ogtp
; File E:\Metin2_server\SolWayneSF v6\ClientVS22\source\UserInterface\PythonNetworkStreamModule.cpp
;	COMDAT ?netExitGame@@YAPAU_object@@PAU1@0@Z
_TEXT	SEGMENT
_poSelf$ = 8						; size = 4
_poArgs$ = 12						; size = 4
?netExitGame@@YAPAU_object@@PAU1@0@Z PROC		; netExitGame, COMDAT

; 1033 : 	CPythonNetworkStream& rkNetStream=CPythonNetworkStream::Instance();
; 1034 : 	rkNetStream.ExitGame();

  00000	8b 0d 00 00 00
	00		 mov	 ecx, DWORD PTR ?ms_singleton@?$CSingleton@VCPythonNetworkStream@@@@0PAVCPythonNetworkStream@@A ; CSingleton<CPythonNetworkStream>::ms_singleton
  00006	e8 00 00 00 00	 call	 ?ExitGame@CPythonNetworkStream@@QAEXXZ ; CPythonNetworkStream::ExitGame

; 1035 : 	return Py_BuildNone();

  0000b	e9 00 00 00 00	 jmp	 ?Py_BuildNone@@YAPAU_object@@XZ ; Py_BuildNone
?netExitGame@@YAPAU_object@@PAU1@0@Z ENDP		; netExitGame
_TEXT	ENDS
; Function compile flags: /Ogtp
; File E:\Metin2_server\SolWayneSF v6\ClientVS22\source\UserInterface\PythonNetworkStreamModule.cpp
;	COMDAT ?netLogOutGame@@YAPAU_object@@PAU1@0@Z
_TEXT	SEGMENT
_poSelf$ = 8						; size = 4
_poArgs$ = 12						; size = 4
?netLogOutGame@@YAPAU_object@@PAU1@0@Z PROC		; netLogOutGame, COMDAT

; 1040 : 	CPythonNetworkStream& rkNetStream=CPythonNetworkStream::Instance();
; 1041 : 	rkNetStream.LogOutGame();

  00000	8b 0d 00 00 00
	00		 mov	 ecx, DWORD PTR ?ms_singleton@?$CSingleton@VCPythonNetworkStream@@@@0PAVCPythonNetworkStream@@A ; CSingleton<CPythonNetworkStream>::ms_singleton
  00006	e8 00 00 00 00	 call	 ?LogOutGame@CPythonNetworkStream@@QAEXXZ ; CPythonNetworkStream::LogOutGame

; 1042 : 	return Py_BuildNone();

  0000b	e9 00 00 00 00	 jmp	 ?Py_BuildNone@@YAPAU_object@@XZ ; Py_BuildNone
?netLogOutGame@@YAPAU_object@@PAU1@0@Z ENDP		; netLogOutGame
_TEXT	ENDS
; Function compile flags: /Ogtp
; File E:\Metin2_server\SolWayneSF v6\ClientVS22\source\UserInterface\PythonNetworkStreamModule.cpp
;	COMDAT ?netDisconnect@@YAPAU_object@@PAU1@0@Z
_TEXT	SEGMENT
_poSelf$ = 8						; size = 4
_poArgs$ = 12						; size = 4
?netDisconnect@@YAPAU_object@@PAU1@0@Z PROC		; netDisconnect, COMDAT

; 1046 : {

  00000	56		 push	 esi

; 1047 : 	CPythonNetworkStream& rkNetStream=CPythonNetworkStream::Instance();

  00001	8b 35 00 00 00
	00		 mov	 esi, DWORD PTR ?ms_singleton@?$CSingleton@VCPythonNetworkStream@@@@0PAVCPythonNetworkStream@@A ; CSingleton<CPythonNetworkStream>::ms_singleton

; 1048 : 	rkNetStream.SetOffLinePhase();

  00007	8b ce		 mov	 ecx, esi
  00009	e8 00 00 00 00	 call	 ?SetOffLinePhase@CPythonNetworkStream@@QAEXXZ ; CPythonNetworkStream::SetOffLinePhase

; 1049 : 	rkNetStream.Disconnect();

  0000e	8b ce		 mov	 ecx, esi
  00010	e8 00 00 00 00	 call	 ?Disconnect@CNetworkStream@@QAEXXZ ; CNetworkStream::Disconnect

; 1050 : 
; 1051 : 	return Py_BuildNone();

  00015	5e		 pop	 esi
  00016	e9 00 00 00 00	 jmp	 ?Py_BuildNone@@YAPAU_object@@XZ ; Py_BuildNone
?netDisconnect@@YAPAU_object@@PAU1@0@Z ENDP		; netDisconnect
_TEXT	ENDS
; Function compile flags: /Ogtp
; File E:\Metin2_server\SolWayneSF v6\ClientVS22\source\UserInterface\PythonNetworkStreamModule.cpp
;	COMDAT ?netIsConnect@@YAPAU_object@@PAU1@0@Z
_TEXT	SEGMENT
_poSelf$ = 8						; size = 4
_poArgs$ = 12						; size = 4
?netIsConnect@@YAPAU_object@@PAU1@0@Z PROC		; netIsConnect, COMDAT

; 1056 : 	CPythonNetworkStream& rkNetStream=CPythonNetworkStream::Instance();
; 1057 : 	return Py_BuildValue("i", rkNetStream.IsOnline());

  00000	8b 0d 00 00 00
	00		 mov	 ecx, DWORD PTR ?ms_singleton@?$CSingleton@VCPythonNetworkStream@@@@0PAVCPythonNetworkStream@@A ; CSingleton<CPythonNetworkStream>::ms_singleton
  00006	e8 00 00 00 00	 call	 ?IsOnline@CNetworkStream@@QAE_NXZ ; CNetworkStream::IsOnline
  0000b	0f b6 c0	 movzx	 eax, al
  0000e	50		 push	 eax
  0000f	68 00 00 00 00	 push	 OFFSET ??_C@_01KBJDNOO@i@
  00014	ff 15 00 00 00
	00		 call	 DWORD PTR __imp__Py_BuildValue
  0001a	83 c4 08	 add	 esp, 8

; 1058 : }

  0001d	c3		 ret	 0
?netIsConnect@@YAPAU_object@@PAU1@0@Z ENDP		; netIsConnect
_TEXT	ENDS
; Function compile flags: /Ogtp
; File E:\Metin2_server\SolWayneSF v6\ClientVS22\source\UserInterface\PythonNetworkStreamModule.cpp
;	COMDAT ?netToggleGameDebugInfo@@YAPAU_object@@PAU1@0@Z
_TEXT	SEGMENT
_poSelf$ = 8						; size = 4
_poArgs$ = 12						; size = 4
?netToggleGameDebugInfo@@YAPAU_object@@PAU1@0@Z PROC	; netToggleGameDebugInfo, COMDAT

; 1062 : 	CPythonNetworkStream& rkNetStream=CPythonNetworkStream::Instance();
; 1063 : 	rkNetStream.ToggleGameDebugInfo();

  00000	8b 0d 00 00 00
	00		 mov	 ecx, DWORD PTR ?ms_singleton@?$CSingleton@VCPythonNetworkStream@@@@0PAVCPythonNetworkStream@@A ; CSingleton<CPythonNetworkStream>::ms_singleton
  00006	e8 00 00 00 00	 call	 ?ToggleGameDebugInfo@CPythonNetworkStream@@QAEXXZ ; CPythonNetworkStream::ToggleGameDebugInfo

; 1064 : 	return Py_BuildNone();

  0000b	e9 00 00 00 00	 jmp	 ?Py_BuildNone@@YAPAU_object@@XZ ; Py_BuildNone
?netToggleGameDebugInfo@@YAPAU_object@@PAU1@0@Z ENDP	; netToggleGameDebugInfo
_TEXT	ENDS
; Function compile flags: /Ogtp
; File E:\Metin2_server\SolWayneSF v6\ClientVS22\source\UserInterface\PythonNetworkStreamModule.cpp
;	COMDAT ?netRegisterEmoticonString@@YAPAU_object@@PAU1@0@Z
_TEXT	SEGMENT
_pcEmoticonString$ = -4					; size = 4
_poSelf$ = 8						; size = 4
_poArgs$ = 12						; size = 4
?netRegisterEmoticonString@@YAPAU_object@@PAU1@0@Z PROC	; netRegisterEmoticonString, COMDAT

; 1068 : {

  00000	55		 push	 ebp
  00001	8b ec		 mov	 ebp, esp
  00003	51		 push	 ecx

; 1069 : 	char * pcEmoticonString;
; 1070 : 	if (!PyTuple_GetString(poArgs, 0, &pcEmoticonString))

  00004	8d 45 fc	 lea	 eax, DWORD PTR _pcEmoticonString$[ebp]
  00007	50		 push	 eax
  00008	6a 00		 push	 0
  0000a	ff 75 0c	 push	 DWORD PTR _poArgs$[ebp]
  0000d	e8 00 00 00 00	 call	 ?PyTuple_GetString@@YA_NPAU_object@@HPAPAD@Z ; PyTuple_GetString
  00012	83 c4 0c	 add	 esp, 12			; 0000000cH
  00015	84 c0		 test	 al, al
  00017	75 0e		 jne	 SHORT $LN2@netRegiste

; 1071 : 		return Py_BuildException();

  00019	6a 00		 push	 0
  0001b	e8 00 00 00 00	 call	 ?Py_BuildException@@YAPAU_object@@PBDZZ ; Py_BuildException
  00020	83 c4 04	 add	 esp, 4

; 1076 : }

  00023	8b e5		 mov	 esp, ebp
  00025	5d		 pop	 ebp
  00026	c3		 ret	 0
$LN2@netRegiste:

; 1072 : 
; 1073 : 	CPythonNetworkStream& rkNetStream=CPythonNetworkStream::Instance();
; 1074 : 	rkNetStream.RegisterEmoticonString(pcEmoticonString);

  00027	ff 75 fc	 push	 DWORD PTR _pcEmoticonString$[ebp]
  0002a	8b 0d 00 00 00
	00		 mov	 ecx, DWORD PTR ?ms_singleton@?$CSingleton@VCPythonNetworkStream@@@@0PAVCPythonNetworkStream@@A ; CSingleton<CPythonNetworkStream>::ms_singleton
  00030	e8 00 00 00 00	 call	 ?RegisterEmoticonString@CPythonNetworkStream@@QAEXPBD@Z ; CPythonNetworkStream::RegisterEmoticonString

; 1075 : 	return Py_BuildNone();

  00035	e8 00 00 00 00	 call	 ?Py_BuildNone@@YAPAU_object@@XZ ; Py_BuildNone

; 1076 : }

  0003a	8b e5		 mov	 esp, ebp
  0003c	5d		 pop	 ebp
  0003d	c3		 ret	 0
?netRegisterEmoticonString@@YAPAU_object@@PAU1@0@Z ENDP	; netRegisterEmoticonString
_TEXT	ENDS
; Function compile flags: /Ogtp
; File E:\Metin2_server\SolWayneSF v6\ClientVS22\source\UserInterface\PythonNetworkStreamModule.cpp
;	COMDAT ?netSendMessengerAddByVIDPacket@@YAPAU_object@@PAU1@0@Z
_TEXT	SEGMENT
_vid$ = -4						; size = 4
_poSelf$ = 8						; size = 4
_poArgs$ = 12						; size = 4
?netSendMessengerAddByVIDPacket@@YAPAU_object@@PAU1@0@Z PROC ; netSendMessengerAddByVIDPacket, COMDAT

; 1079 : {

  00000	55		 push	 ebp
  00001	8b ec		 mov	 ebp, esp
  00003	51		 push	 ecx

; 1080 : 	int vid;
; 1081 : 	if (!PyTuple_GetInteger(poArgs, 0, &vid))

  00004	8d 45 fc	 lea	 eax, DWORD PTR _vid$[ebp]
  00007	50		 push	 eax
  00008	6a 00		 push	 0
  0000a	ff 75 0c	 push	 DWORD PTR _poArgs$[ebp]
  0000d	e8 00 00 00 00	 call	 ?PyTuple_GetInteger@@YA_NPAU_object@@HPAH@Z ; PyTuple_GetInteger
  00012	83 c4 0c	 add	 esp, 12			; 0000000cH
  00015	84 c0		 test	 al, al
  00017	75 0e		 jne	 SHORT $LN2@netSendMes

; 1082 : 		return Py_BuildException();

  00019	6a 00		 push	 0
  0001b	e8 00 00 00 00	 call	 ?Py_BuildException@@YAPAU_object@@PBDZZ ; Py_BuildException
  00020	83 c4 04	 add	 esp, 4

; 1088 : }

  00023	8b e5		 mov	 esp, ebp
  00025	5d		 pop	 ebp
  00026	c3		 ret	 0
$LN2@netSendMes:

; 1083 : 
; 1084 : 	CPythonNetworkStream& rns=CPythonNetworkStream::Instance();
; 1085 : 	rns.SendMessengerAddByVIDPacket(vid);

  00027	ff 75 fc	 push	 DWORD PTR _vid$[ebp]
  0002a	8b 0d 00 00 00
	00		 mov	 ecx, DWORD PTR ?ms_singleton@?$CSingleton@VCPythonNetworkStream@@@@0PAVCPythonNetworkStream@@A ; CSingleton<CPythonNetworkStream>::ms_singleton
  00030	e8 00 00 00 00	 call	 ?SendMessengerAddByVIDPacket@CPythonNetworkStream@@QAE_NK@Z ; CPythonNetworkStream::SendMessengerAddByVIDPacket

; 1086 : 	
; 1087 : 	return Py_BuildNone();

  00035	e8 00 00 00 00	 call	 ?Py_BuildNone@@YAPAU_object@@XZ ; Py_BuildNone

; 1088 : }

  0003a	8b e5		 mov	 esp, ebp
  0003c	5d		 pop	 ebp
  0003d	c3		 ret	 0
?netSendMessengerAddByVIDPacket@@YAPAU_object@@PAU1@0@Z ENDP ; netSendMessengerAddByVIDPacket
_TEXT	ENDS
; Function compile flags: /Ogtp
; File E:\Metin2_server\SolWayneSF v6\ClientVS22\source\UserInterface\PythonNetworkStreamModule.cpp
;	COMDAT ?netSendMessengerAddByNamePacket@@YAPAU_object@@PAU1@0@Z
_TEXT	SEGMENT
_szName$ = -4						; size = 4
_poSelf$ = 8						; size = 4
_poArgs$ = 12						; size = 4
?netSendMessengerAddByNamePacket@@YAPAU_object@@PAU1@0@Z PROC ; netSendMessengerAddByNamePacket, COMDAT

; 1091 : {

  00000	55		 push	 ebp
  00001	8b ec		 mov	 ebp, esp
  00003	51		 push	 ecx

; 1092 : 	char * szName;
; 1093 : 	if (!PyTuple_GetString(poArgs, 0, &szName))

  00004	8d 45 fc	 lea	 eax, DWORD PTR _szName$[ebp]
  00007	50		 push	 eax
  00008	6a 00		 push	 0
  0000a	ff 75 0c	 push	 DWORD PTR _poArgs$[ebp]
  0000d	e8 00 00 00 00	 call	 ?PyTuple_GetString@@YA_NPAU_object@@HPAPAD@Z ; PyTuple_GetString
  00012	83 c4 0c	 add	 esp, 12			; 0000000cH
  00015	84 c0		 test	 al, al
  00017	75 0e		 jne	 SHORT $LN2@netSendMes

; 1094 : 		return Py_BuildException();

  00019	6a 00		 push	 0
  0001b	e8 00 00 00 00	 call	 ?Py_BuildException@@YAPAU_object@@PBDZZ ; Py_BuildException
  00020	83 c4 04	 add	 esp, 4

; 1100 : }

  00023	8b e5		 mov	 esp, ebp
  00025	5d		 pop	 ebp
  00026	c3		 ret	 0
$LN2@netSendMes:

; 1095 : 
; 1096 : 	CPythonNetworkStream& rns=CPythonNetworkStream::Instance();
; 1097 : 	rns.SendMessengerAddByNamePacket(szName);

  00027	ff 75 fc	 push	 DWORD PTR _szName$[ebp]
  0002a	8b 0d 00 00 00
	00		 mov	 ecx, DWORD PTR ?ms_singleton@?$CSingleton@VCPythonNetworkStream@@@@0PAVCPythonNetworkStream@@A ; CSingleton<CPythonNetworkStream>::ms_singleton
  00030	e8 00 00 00 00	 call	 ?SendMessengerAddByNamePacket@CPythonNetworkStream@@QAE_NPBD@Z ; CPythonNetworkStream::SendMessengerAddByNamePacket

; 1098 : 	
; 1099 : 	return Py_BuildNone();

  00035	e8 00 00 00 00	 call	 ?Py_BuildNone@@YAPAU_object@@XZ ; Py_BuildNone

; 1100 : }

  0003a	8b e5		 mov	 esp, ebp
  0003c	5d		 pop	 ebp
  0003d	c3		 ret	 0
?netSendMessengerAddByNamePacket@@YAPAU_object@@PAU1@0@Z ENDP ; netSendMessengerAddByNamePacket
_TEXT	ENDS
; Function compile flags: /Ogtp
; File E:\Metin2_server\SolWayneSF v6\ClientVS22\source\UserInterface\PythonNetworkStreamModule.cpp
;	COMDAT ?netSendMessengerRemovePacket@@YAPAU_object@@PAU1@0@Z
_TEXT	SEGMENT
_szKey$ = -8						; size = 4
_szName$ = -4						; size = 4
_poSelf$ = 8						; size = 4
_poArgs$ = 12						; size = 4
?netSendMessengerRemovePacket@@YAPAU_object@@PAU1@0@Z PROC ; netSendMessengerRemovePacket, COMDAT

; 1103 : {

  00000	55		 push	 ebp
  00001	8b ec		 mov	 ebp, esp
  00003	83 ec 08	 sub	 esp, 8

; 1104 : 	char * szKey;
; 1105 : 	if (!PyTuple_GetString(poArgs, 0, &szKey))

  00006	8d 45 f8	 lea	 eax, DWORD PTR _szKey$[ebp]
  00009	50		 push	 eax
  0000a	6a 00		 push	 0
  0000c	ff 75 0c	 push	 DWORD PTR _poArgs$[ebp]
  0000f	e8 00 00 00 00	 call	 ?PyTuple_GetString@@YA_NPAU_object@@HPAPAD@Z ; PyTuple_GetString
  00014	83 c4 0c	 add	 esp, 12			; 0000000cH
  00017	84 c0		 test	 al, al
  00019	75 0e		 jne	 SHORT $LN2@netSendMes
$LN5@netSendMes:

; 1115 : }

  0001b	6a 00		 push	 0
  0001d	e8 00 00 00 00	 call	 ?Py_BuildException@@YAPAU_object@@PBDZZ ; Py_BuildException
  00022	83 c4 04	 add	 esp, 4
  00025	8b e5		 mov	 esp, ebp
  00027	5d		 pop	 ebp
  00028	c3		 ret	 0
$LN2@netSendMes:

; 1106 : 		return Py_BuildException();
; 1107 : 	char * szName;
; 1108 : 	if (!PyTuple_GetString(poArgs, 1, &szName))

  00029	8d 45 fc	 lea	 eax, DWORD PTR _szName$[ebp]
  0002c	50		 push	 eax
  0002d	6a 01		 push	 1
  0002f	ff 75 0c	 push	 DWORD PTR _poArgs$[ebp]
  00032	e8 00 00 00 00	 call	 ?PyTuple_GetString@@YA_NPAU_object@@HPAPAD@Z ; PyTuple_GetString
  00037	83 c4 0c	 add	 esp, 12			; 0000000cH
  0003a	84 c0		 test	 al, al
  0003c	74 dd		 je	 SHORT $LN5@netSendMes

; 1109 : 		return Py_BuildException();
; 1110 : 
; 1111 : 	CPythonNetworkStream& rns=CPythonNetworkStream::Instance();
; 1112 : 	rns.SendMessengerRemovePacket(szKey, szName);

  0003e	ff 75 fc	 push	 DWORD PTR _szName$[ebp]
  00041	8b 0d 00 00 00
	00		 mov	 ecx, DWORD PTR ?ms_singleton@?$CSingleton@VCPythonNetworkStream@@@@0PAVCPythonNetworkStream@@A ; CSingleton<CPythonNetworkStream>::ms_singleton
  00047	ff 75 f8	 push	 DWORD PTR _szKey$[ebp]
  0004a	e8 00 00 00 00	 call	 ?SendMessengerRemovePacket@CPythonNetworkStream@@QAE_NPBD0@Z ; CPythonNetworkStream::SendMessengerRemovePacket

; 1113 : 	
; 1114 : 	return Py_BuildNone();

  0004f	e8 00 00 00 00	 call	 ?Py_BuildNone@@YAPAU_object@@XZ ; Py_BuildNone

; 1115 : }

  00054	8b e5		 mov	 esp, ebp
  00056	5d		 pop	 ebp
  00057	c3		 ret	 0
?netSendMessengerRemovePacket@@YAPAU_object@@PAU1@0@Z ENDP ; netSendMessengerRemovePacket
_TEXT	ENDS
; Function compile flags: /Ogtp
; File E:\Metin2_server\SolWayneSF v6\ClientVS22\source\UserInterface\PythonNetworkStreamModule.cpp
;	COMDAT ?netSendPartyInvitePacket@@YAPAU_object@@PAU1@0@Z
_TEXT	SEGMENT
_vid$ = -4						; size = 4
_poSelf$ = 8						; size = 4
_poArgs$ = 12						; size = 4
?netSendPartyInvitePacket@@YAPAU_object@@PAU1@0@Z PROC	; netSendPartyInvitePacket, COMDAT

; 1118 : {

  00000	55		 push	 ebp
  00001	8b ec		 mov	 ebp, esp
  00003	51		 push	 ecx

; 1119 : 	int vid;
; 1120 : 	if (!PyTuple_GetInteger(poArgs, 0, &vid))

  00004	8d 45 fc	 lea	 eax, DWORD PTR _vid$[ebp]
  00007	50		 push	 eax
  00008	6a 00		 push	 0
  0000a	ff 75 0c	 push	 DWORD PTR _poArgs$[ebp]
  0000d	e8 00 00 00 00	 call	 ?PyTuple_GetInteger@@YA_NPAU_object@@HPAH@Z ; PyTuple_GetInteger
  00012	83 c4 0c	 add	 esp, 12			; 0000000cH
  00015	84 c0		 test	 al, al
  00017	75 0e		 jne	 SHORT $LN2@netSendPar

; 1121 : 		return Py_BuildException();

  00019	6a 00		 push	 0
  0001b	e8 00 00 00 00	 call	 ?Py_BuildException@@YAPAU_object@@PBDZZ ; Py_BuildException
  00020	83 c4 04	 add	 esp, 4

; 1127 : }

  00023	8b e5		 mov	 esp, ebp
  00025	5d		 pop	 ebp
  00026	c3		 ret	 0
$LN2@netSendPar:

; 1122 : 
; 1123 : 	CPythonNetworkStream& rns=CPythonNetworkStream::Instance();
; 1124 : 	rns.SendPartyInvitePacket(vid);

  00027	ff 75 fc	 push	 DWORD PTR _vid$[ebp]
  0002a	8b 0d 00 00 00
	00		 mov	 ecx, DWORD PTR ?ms_singleton@?$CSingleton@VCPythonNetworkStream@@@@0PAVCPythonNetworkStream@@A ; CSingleton<CPythonNetworkStream>::ms_singleton
  00030	e8 00 00 00 00	 call	 ?SendPartyInvitePacket@CPythonNetworkStream@@QAE_NK@Z ; CPythonNetworkStream::SendPartyInvitePacket

; 1125 : 
; 1126 : 	return Py_BuildNone();

  00035	e8 00 00 00 00	 call	 ?Py_BuildNone@@YAPAU_object@@XZ ; Py_BuildNone

; 1127 : }

  0003a	8b e5		 mov	 esp, ebp
  0003c	5d		 pop	 ebp
  0003d	c3		 ret	 0
?netSendPartyInvitePacket@@YAPAU_object@@PAU1@0@Z ENDP	; netSendPartyInvitePacket
_TEXT	ENDS
; Function compile flags: /Ogtp
; File E:\Metin2_server\SolWayneSF v6\ClientVS22\source\UserInterface\PythonNetworkStreamModule.cpp
;	COMDAT ?netSendPartyInviteAnswerPacket@@YAPAU_object@@PAU1@0@Z
_TEXT	SEGMENT
_vid$ = -8						; size = 4
_answer$ = -4						; size = 4
_poSelf$ = 8						; size = 4
_poArgs$ = 12						; size = 4
?netSendPartyInviteAnswerPacket@@YAPAU_object@@PAU1@0@Z PROC ; netSendPartyInviteAnswerPacket, COMDAT

; 1130 : {

  00000	55		 push	 ebp
  00001	8b ec		 mov	 ebp, esp
  00003	83 ec 08	 sub	 esp, 8

; 1131 : 	int vid;
; 1132 : 	if (!PyTuple_GetInteger(poArgs, 0, &vid))

  00006	8d 45 f8	 lea	 eax, DWORD PTR _vid$[ebp]
  00009	50		 push	 eax
  0000a	6a 00		 push	 0
  0000c	ff 75 0c	 push	 DWORD PTR _poArgs$[ebp]
  0000f	e8 00 00 00 00	 call	 ?PyTuple_GetInteger@@YA_NPAU_object@@HPAH@Z ; PyTuple_GetInteger
  00014	83 c4 0c	 add	 esp, 12			; 0000000cH
  00017	84 c0		 test	 al, al
  00019	75 0e		 jne	 SHORT $LN2@netSendPar
$LN5@netSendPar:

; 1142 : }

  0001b	6a 00		 push	 0
  0001d	e8 00 00 00 00	 call	 ?Py_BuildException@@YAPAU_object@@PBDZZ ; Py_BuildException
  00022	83 c4 04	 add	 esp, 4
  00025	8b e5		 mov	 esp, ebp
  00027	5d		 pop	 ebp
  00028	c3		 ret	 0
$LN2@netSendPar:

; 1133 : 		return Py_BuildException();
; 1134 : 	int answer;
; 1135 : 	if (!PyTuple_GetInteger(poArgs, 1, &answer))

  00029	8d 45 fc	 lea	 eax, DWORD PTR _answer$[ebp]
  0002c	50		 push	 eax
  0002d	6a 01		 push	 1
  0002f	ff 75 0c	 push	 DWORD PTR _poArgs$[ebp]
  00032	e8 00 00 00 00	 call	 ?PyTuple_GetInteger@@YA_NPAU_object@@HPAH@Z ; PyTuple_GetInteger
  00037	83 c4 0c	 add	 esp, 12			; 0000000cH
  0003a	84 c0		 test	 al, al
  0003c	74 dd		 je	 SHORT $LN5@netSendPar

; 1136 : 		return Py_BuildException();
; 1137 : 
; 1138 : 	CPythonNetworkStream& rns=CPythonNetworkStream::Instance();
; 1139 : 	rns.SendPartyInviteAnswerPacket(vid, answer);

  0003e	ff 75 fc	 push	 DWORD PTR _answer$[ebp]
  00041	8b 0d 00 00 00
	00		 mov	 ecx, DWORD PTR ?ms_singleton@?$CSingleton@VCPythonNetworkStream@@@@0PAVCPythonNetworkStream@@A ; CSingleton<CPythonNetworkStream>::ms_singleton
  00047	ff 75 f8	 push	 DWORD PTR _vid$[ebp]
  0004a	e8 00 00 00 00	 call	 ?SendPartyInviteAnswerPacket@CPythonNetworkStream@@QAE_NKE@Z ; CPythonNetworkStream::SendPartyInviteAnswerPacket

; 1140 : 
; 1141 : 	return Py_BuildNone();

  0004f	e8 00 00 00 00	 call	 ?Py_BuildNone@@YAPAU_object@@XZ ; Py_BuildNone

; 1142 : }

  00054	8b e5		 mov	 esp, ebp
  00056	5d		 pop	 ebp
  00057	c3		 ret	 0
?netSendPartyInviteAnswerPacket@@YAPAU_object@@PAU1@0@Z ENDP ; netSendPartyInviteAnswerPacket
_TEXT	ENDS
; Function compile flags: /Ogtp
; File E:\Metin2_server\SolWayneSF v6\ClientVS22\source\UserInterface\PythonNetworkStreamModule.cpp
;	COMDAT ?netSendPartyExitPacket@@YAPAU_object@@PAU1@0@Z
_TEXT	SEGMENT
_dwPID$ = -4						; size = 4
_poSelf$ = 8						; size = 4
_poArgs$ = 12						; size = 4
?netSendPartyExitPacket@@YAPAU_object@@PAU1@0@Z PROC	; netSendPartyExitPacket, COMDAT

; 1145 : {

  00000	55		 push	 ebp
  00001	8b ec		 mov	 ebp, esp
  00003	51		 push	 ecx
  00004	56		 push	 esi

; 1146 : 	IAbstractPlayer& rPlayer=IAbstractPlayer::GetSingleton();

  00005	8b 35 00 00 00
	00		 mov	 esi, DWORD PTR ?ms_singleton@?$TAbstractSingleton@VIAbstractPlayer@@@@0PAVIAbstractPlayer@@A ; TAbstractSingleton<IAbstractPlayer>::ms_singleton

; 1147 : 
; 1148 : 	CPythonNetworkStream& rns=CPythonNetworkStream::Instance();
; 1149 : 
; 1150 : 	DWORD dwVID = rPlayer.GetMainCharacterIndex();

  0000b	8b ce		 mov	 ecx, esi
  0000d	57		 push	 edi
  0000e	8b 3d 00 00 00
	00		 mov	 edi, DWORD PTR ?ms_singleton@?$CSingleton@VCPythonNetworkStream@@@@0PAVCPythonNetworkStream@@A ; CSingleton<CPythonNetworkStream>::ms_singleton
  00014	8b 06		 mov	 eax, DWORD PTR [esi]
  00016	ff 50 04	 call	 DWORD PTR [eax+4]

; 1151 : 	DWORD dwPID;
; 1152 : 	if (rPlayer.PartyMemberVIDToPID(dwVID, &dwPID))

  00019	8b 16		 mov	 edx, DWORD PTR [esi]
  0001b	8d 4d fc	 lea	 ecx, DWORD PTR _dwPID$[ebp]
  0001e	51		 push	 ecx
  0001f	50		 push	 eax
  00020	8b ce		 mov	 ecx, esi
  00022	8b 52 28	 mov	 edx, DWORD PTR [edx+40]
  00025	ff d2		 call	 edx
  00027	84 c0		 test	 al, al
  00029	74 0a		 je	 SHORT $LN2@netSendPar

; 1153 : 		rns.SendPartyRemovePacket(dwPID);

  0002b	ff 75 fc	 push	 DWORD PTR _dwPID$[ebp]
  0002e	8b cf		 mov	 ecx, edi
  00030	e8 00 00 00 00	 call	 ?SendPartyRemovePacket@CPythonNetworkStream@@QAE_NK@Z ; CPythonNetworkStream::SendPartyRemovePacket
$LN2@netSendPar:

; 1154 : 
; 1155 : 	return Py_BuildNone();

  00035	e8 00 00 00 00	 call	 ?Py_BuildNone@@YAPAU_object@@XZ ; Py_BuildNone
  0003a	5f		 pop	 edi
  0003b	5e		 pop	 esi

; 1156 : }

  0003c	8b e5		 mov	 esp, ebp
  0003e	5d		 pop	 ebp
  0003f	c3		 ret	 0
?netSendPartyExitPacket@@YAPAU_object@@PAU1@0@Z ENDP	; netSendPartyExitPacket
_TEXT	ENDS
; Function compile flags: /Ogtp
; File E:\Metin2_server\SolWayneSF v6\ClientVS22\source\UserInterface\PythonNetworkStreamModule.cpp
;	COMDAT ?netSendPartyRemovePacket@@YAPAU_object@@PAU1@0@Z
_TEXT	SEGMENT
_vid$ = -4						; size = 4
_poSelf$ = 8						; size = 4
_poArgs$ = 12						; size = 4
?netSendPartyRemovePacket@@YAPAU_object@@PAU1@0@Z PROC	; netSendPartyRemovePacket, COMDAT

; 1159 : {

  00000	55		 push	 ebp
  00001	8b ec		 mov	 ebp, esp
  00003	51		 push	 ecx

; 1160 : 	int vid;
; 1161 : 	if (!PyTuple_GetInteger(poArgs, 0, &vid))

  00004	8d 45 fc	 lea	 eax, DWORD PTR _vid$[ebp]
  00007	50		 push	 eax
  00008	6a 00		 push	 0
  0000a	ff 75 0c	 push	 DWORD PTR _poArgs$[ebp]
  0000d	e8 00 00 00 00	 call	 ?PyTuple_GetInteger@@YA_NPAU_object@@HPAH@Z ; PyTuple_GetInteger
  00012	83 c4 0c	 add	 esp, 12			; 0000000cH
  00015	84 c0		 test	 al, al
  00017	75 0e		 jne	 SHORT $LN2@netSendPar

; 1162 : 		return Py_BuildException();

  00019	6a 00		 push	 0
  0001b	e8 00 00 00 00	 call	 ?Py_BuildException@@YAPAU_object@@PBDZZ ; Py_BuildException
  00020	83 c4 04	 add	 esp, 4

; 1168 : }

  00023	8b e5		 mov	 esp, ebp
  00025	5d		 pop	 ebp
  00026	c3		 ret	 0
$LN2@netSendPar:

; 1163 : 
; 1164 : 	CPythonNetworkStream& rns=CPythonNetworkStream::Instance();
; 1165 : 	rns.SendPartyRemovePacket(vid);

  00027	ff 75 fc	 push	 DWORD PTR _vid$[ebp]
  0002a	8b 0d 00 00 00
	00		 mov	 ecx, DWORD PTR ?ms_singleton@?$CSingleton@VCPythonNetworkStream@@@@0PAVCPythonNetworkStream@@A ; CSingleton<CPythonNetworkStream>::ms_singleton
  00030	e8 00 00 00 00	 call	 ?SendPartyRemovePacket@CPythonNetworkStream@@QAE_NK@Z ; CPythonNetworkStream::SendPartyRemovePacket

; 1166 : 
; 1167 : 	return Py_BuildNone();

  00035	e8 00 00 00 00	 call	 ?Py_BuildNone@@YAPAU_object@@XZ ; Py_BuildNone

; 1168 : }

  0003a	8b e5		 mov	 esp, ebp
  0003c	5d		 pop	 ebp
  0003d	c3		 ret	 0
?netSendPartyRemovePacket@@YAPAU_object@@PAU1@0@Z ENDP	; netSendPartyRemovePacket
_TEXT	ENDS
; Function compile flags: /Ogtp
; File E:\Metin2_server\SolWayneSF v6\ClientVS22\source\UserInterface\PythonNetworkStreamModule.cpp
;	COMDAT ?netSendPartySetStatePacket@@YAPAU_object@@PAU1@0@Z
_TEXT	SEGMENT
_iVID$ = -12						; size = 4
_iState$ = -8						; size = 4
_iFlag$ = -4						; size = 4
_poSelf$ = 8						; size = 4
_poArgs$ = 12						; size = 4
?netSendPartySetStatePacket@@YAPAU_object@@PAU1@0@Z PROC ; netSendPartySetStatePacket, COMDAT

; 1171 : {

  00000	55		 push	 ebp
  00001	8b ec		 mov	 ebp, esp
  00003	83 ec 0c	 sub	 esp, 12			; 0000000cH

; 1172 : 	int iVID;
; 1173 : 	if (!PyTuple_GetInteger(poArgs, 0, &iVID))

  00006	8d 45 f4	 lea	 eax, DWORD PTR _iVID$[ebp]
  00009	56		 push	 esi
  0000a	8b 75 0c	 mov	 esi, DWORD PTR _poArgs$[ebp]
  0000d	50		 push	 eax
  0000e	6a 00		 push	 0
  00010	56		 push	 esi
  00011	e8 00 00 00 00	 call	 ?PyTuple_GetInteger@@YA_NPAU_object@@HPAH@Z ; PyTuple_GetInteger
  00016	83 c4 0c	 add	 esp, 12			; 0000000cH
  00019	84 c0		 test	 al, al
  0001b	75 0f		 jne	 SHORT $LN2@netSendPar
$LN6@netSendPar:

; 1186 : }

  0001d	6a 00		 push	 0
  0001f	e8 00 00 00 00	 call	 ?Py_BuildException@@YAPAU_object@@PBDZZ ; Py_BuildException
  00024	83 c4 04	 add	 esp, 4
  00027	5e		 pop	 esi
  00028	8b e5		 mov	 esp, ebp
  0002a	5d		 pop	 ebp
  0002b	c3		 ret	 0
$LN2@netSendPar:

; 1174 : 		return Py_BuildException();
; 1175 : 	int iState;
; 1176 : 	if (!PyTuple_GetInteger(poArgs, 1, &iState))

  0002c	8d 45 f8	 lea	 eax, DWORD PTR _iState$[ebp]
  0002f	50		 push	 eax
  00030	6a 01		 push	 1
  00032	56		 push	 esi
  00033	e8 00 00 00 00	 call	 ?PyTuple_GetInteger@@YA_NPAU_object@@HPAH@Z ; PyTuple_GetInteger
  00038	83 c4 0c	 add	 esp, 12			; 0000000cH
  0003b	84 c0		 test	 al, al
  0003d	74 de		 je	 SHORT $LN6@netSendPar

; 1177 : 		return Py_BuildException();
; 1178 : 	int iFlag;
; 1179 : 	if (!PyTuple_GetInteger(poArgs, 2, &iFlag))

  0003f	8d 45 fc	 lea	 eax, DWORD PTR _iFlag$[ebp]
  00042	50		 push	 eax
  00043	6a 02		 push	 2
  00045	56		 push	 esi
  00046	e8 00 00 00 00	 call	 ?PyTuple_GetInteger@@YA_NPAU_object@@HPAH@Z ; PyTuple_GetInteger
  0004b	83 c4 0c	 add	 esp, 12			; 0000000cH
  0004e	84 c0		 test	 al, al
  00050	74 cb		 je	 SHORT $LN6@netSendPar

; 1180 : 		return Py_BuildException();
; 1181 : 
; 1182 : 	CPythonNetworkStream& rns=CPythonNetworkStream::Instance();
; 1183 : 	rns.SendPartySetStatePacket(iVID, iState, iFlag);

  00052	ff 75 fc	 push	 DWORD PTR _iFlag$[ebp]
  00055	8b 0d 00 00 00
	00		 mov	 ecx, DWORD PTR ?ms_singleton@?$CSingleton@VCPythonNetworkStream@@@@0PAVCPythonNetworkStream@@A ; CSingleton<CPythonNetworkStream>::ms_singleton
  0005b	ff 75 f8	 push	 DWORD PTR _iState$[ebp]
  0005e	ff 75 f4	 push	 DWORD PTR _iVID$[ebp]
  00061	e8 00 00 00 00	 call	 ?SendPartySetStatePacket@CPythonNetworkStream@@QAE_NKEE@Z ; CPythonNetworkStream::SendPartySetStatePacket

; 1184 : 
; 1185 : 	return Py_BuildNone();

  00066	e8 00 00 00 00	 call	 ?Py_BuildNone@@YAPAU_object@@XZ ; Py_BuildNone
  0006b	5e		 pop	 esi

; 1186 : }

  0006c	8b e5		 mov	 esp, ebp
  0006e	5d		 pop	 ebp
  0006f	c3		 ret	 0
?netSendPartySetStatePacket@@YAPAU_object@@PAU1@0@Z ENDP ; netSendPartySetStatePacket
_TEXT	ENDS
; Function compile flags: /Ogtp
; File E:\Metin2_server\SolWayneSF v6\ClientVS22\source\UserInterface\PythonNetworkStreamModule.cpp
;	COMDAT ?netSendPartyUseSkillPacket@@YAPAU_object@@PAU1@0@Z
_TEXT	SEGMENT
_iSkillIndex$ = -8					; size = 4
_iVID$ = -4						; size = 4
_poSelf$ = 8						; size = 4
_poArgs$ = 12						; size = 4
?netSendPartyUseSkillPacket@@YAPAU_object@@PAU1@0@Z PROC ; netSendPartyUseSkillPacket, COMDAT

; 1189 : {

  00000	55		 push	 ebp
  00001	8b ec		 mov	 ebp, esp
  00003	83 ec 08	 sub	 esp, 8

; 1190 : 	int iSkillIndex;
; 1191 : 	if (!PyTuple_GetInteger(poArgs, 0, &iSkillIndex))

  00006	8d 45 f8	 lea	 eax, DWORD PTR _iSkillIndex$[ebp]
  00009	50		 push	 eax
  0000a	6a 00		 push	 0
  0000c	ff 75 0c	 push	 DWORD PTR _poArgs$[ebp]
  0000f	e8 00 00 00 00	 call	 ?PyTuple_GetInteger@@YA_NPAU_object@@HPAH@Z ; PyTuple_GetInteger
  00014	83 c4 0c	 add	 esp, 12			; 0000000cH
  00017	84 c0		 test	 al, al
  00019	75 0e		 jne	 SHORT $LN2@netSendPar
$LN5@netSendPar:

; 1201 : }

  0001b	6a 00		 push	 0
  0001d	e8 00 00 00 00	 call	 ?Py_BuildException@@YAPAU_object@@PBDZZ ; Py_BuildException
  00022	83 c4 04	 add	 esp, 4
  00025	8b e5		 mov	 esp, ebp
  00027	5d		 pop	 ebp
  00028	c3		 ret	 0
$LN2@netSendPar:

; 1192 : 		return Py_BuildException();
; 1193 : 	int iVID;
; 1194 : 	if (!PyTuple_GetInteger(poArgs, 1, &iVID))

  00029	8d 45 fc	 lea	 eax, DWORD PTR _iVID$[ebp]
  0002c	50		 push	 eax
  0002d	6a 01		 push	 1
  0002f	ff 75 0c	 push	 DWORD PTR _poArgs$[ebp]
  00032	e8 00 00 00 00	 call	 ?PyTuple_GetInteger@@YA_NPAU_object@@HPAH@Z ; PyTuple_GetInteger
  00037	83 c4 0c	 add	 esp, 12			; 0000000cH
  0003a	84 c0		 test	 al, al
  0003c	74 dd		 je	 SHORT $LN5@netSendPar

; 1195 : 		return Py_BuildException();
; 1196 : 
; 1197 : 	CPythonNetworkStream& rns=CPythonNetworkStream::Instance();
; 1198 : 	rns.SendPartyUseSkillPacket(iSkillIndex, iVID);

  0003e	ff 75 fc	 push	 DWORD PTR _iVID$[ebp]
  00041	8b 0d 00 00 00
	00		 mov	 ecx, DWORD PTR ?ms_singleton@?$CSingleton@VCPythonNetworkStream@@@@0PAVCPythonNetworkStream@@A ; CSingleton<CPythonNetworkStream>::ms_singleton
  00047	ff 75 f8	 push	 DWORD PTR _iSkillIndex$[ebp]
  0004a	e8 00 00 00 00	 call	 ?SendPartyUseSkillPacket@CPythonNetworkStream@@QAE_NEK@Z ; CPythonNetworkStream::SendPartyUseSkillPacket

; 1199 : 
; 1200 : 	return Py_BuildNone();

  0004f	e8 00 00 00 00	 call	 ?Py_BuildNone@@YAPAU_object@@XZ ; Py_BuildNone

; 1201 : }

  00054	8b e5		 mov	 esp, ebp
  00056	5d		 pop	 ebp
  00057	c3		 ret	 0
?netSendPartyUseSkillPacket@@YAPAU_object@@PAU1@0@Z ENDP ; netSendPartyUseSkillPacket
_TEXT	ENDS
; Function compile flags: /Ogtp
; File E:\Metin2_server\SolWayneSF v6\ClientVS22\source\UserInterface\PythonNetworkStreamModule.cpp
;	COMDAT ?netSendPartyParameterPacket@@YAPAU_object@@PAU1@0@Z
_TEXT	SEGMENT
_iMode$ = -4						; size = 4
_poSelf$ = 8						; size = 4
_poArgs$ = 12						; size = 4
?netSendPartyParameterPacket@@YAPAU_object@@PAU1@0@Z PROC ; netSendPartyParameterPacket, COMDAT

; 1204 : {

  00000	55		 push	 ebp
  00001	8b ec		 mov	 ebp, esp
  00003	51		 push	 ecx

; 1205 : 	int iMode;
; 1206 : 	if (!PyTuple_GetInteger(poArgs, 0, &iMode))

  00004	8d 45 fc	 lea	 eax, DWORD PTR _iMode$[ebp]
  00007	50		 push	 eax
  00008	6a 00		 push	 0
  0000a	ff 75 0c	 push	 DWORD PTR _poArgs$[ebp]
  0000d	e8 00 00 00 00	 call	 ?PyTuple_GetInteger@@YA_NPAU_object@@HPAH@Z ; PyTuple_GetInteger
  00012	83 c4 0c	 add	 esp, 12			; 0000000cH
  00015	84 c0		 test	 al, al
  00017	75 0e		 jne	 SHORT $LN2@netSendPar

; 1207 : 		return Py_BuildException();

  00019	6a 00		 push	 0
  0001b	e8 00 00 00 00	 call	 ?Py_BuildException@@YAPAU_object@@PBDZZ ; Py_BuildException
  00020	83 c4 04	 add	 esp, 4

; 1213 : }

  00023	8b e5		 mov	 esp, ebp
  00025	5d		 pop	 ebp
  00026	c3		 ret	 0
$LN2@netSendPar:

; 1208 : 
; 1209 : 	CPythonNetworkStream& rns=CPythonNetworkStream::Instance();
; 1210 : 	rns.SendPartyParameterPacket(iMode);

  00027	ff 75 fc	 push	 DWORD PTR _iMode$[ebp]
  0002a	8b 0d 00 00 00
	00		 mov	 ecx, DWORD PTR ?ms_singleton@?$CSingleton@VCPythonNetworkStream@@@@0PAVCPythonNetworkStream@@A ; CSingleton<CPythonNetworkStream>::ms_singleton
  00030	e8 00 00 00 00	 call	 ?SendPartyParameterPacket@CPythonNetworkStream@@QAE_NE@Z ; CPythonNetworkStream::SendPartyParameterPacket

; 1211 : 
; 1212 : 	return Py_BuildNone();

  00035	e8 00 00 00 00	 call	 ?Py_BuildNone@@YAPAU_object@@XZ ; Py_BuildNone

; 1213 : }

  0003a	8b e5		 mov	 esp, ebp
  0003c	5d		 pop	 ebp
  0003d	c3		 ret	 0
?netSendPartyParameterPacket@@YAPAU_object@@PAU1@0@Z ENDP ; netSendPartyParameterPacket
_TEXT	ENDS
; Function compile flags: /Ogtp
; File E:\Metin2_server\SolWayneSF v6\ClientVS22\source\UserInterface\PythonNetworkStreamModule.cpp
;	COMDAT ?netSendSafeboxSaveMoneyPacket@@YAPAU_object@@PAU1@0@Z
_TEXT	SEGMENT
_iMoney$ = -4						; size = 4
_poSelf$ = 8						; size = 4
_poArgs$ = 12						; size = 4
?netSendSafeboxSaveMoneyPacket@@YAPAU_object@@PAU1@0@Z PROC ; netSendSafeboxSaveMoneyPacket, COMDAT

; 1216 : {

  00000	55		 push	 ebp
  00001	8b ec		 mov	 ebp, esp
  00003	51		 push	 ecx

; 1217 : 	int iMoney;
; 1218 : 	if (!PyTuple_GetInteger(poArgs, 0, &iMoney))

  00004	8d 45 fc	 lea	 eax, DWORD PTR _iMoney$[ebp]
  00007	50		 push	 eax
  00008	6a 00		 push	 0
  0000a	ff 75 0c	 push	 DWORD PTR _poArgs$[ebp]
  0000d	e8 00 00 00 00	 call	 ?PyTuple_GetInteger@@YA_NPAU_object@@HPAH@Z ; PyTuple_GetInteger
  00012	83 c4 0c	 add	 esp, 12			; 0000000cH
  00015	84 c0		 test	 al, al
  00017	75 0e		 jne	 SHORT $LN2@netSendSaf

; 1219 : 		return Py_BuildException();

  00019	6a 00		 push	 0
  0001b	e8 00 00 00 00	 call	 ?Py_BuildException@@YAPAU_object@@PBDZZ ; Py_BuildException
  00020	83 c4 04	 add	 esp, 4

; 1225 : }

  00023	8b e5		 mov	 esp, ebp
  00025	5d		 pop	 ebp
  00026	c3		 ret	 0
$LN2@netSendSaf:

; 1220 : 
; 1221 : 	CPythonNetworkStream& rns=CPythonNetworkStream::Instance();
; 1222 : 	rns.SendSafeBoxMoneyPacket(SAFEBOX_MONEY_STATE_SAVE, iMoney);
; 1223 : 
; 1224 : 	return Py_BuildNone();

  00027	e8 00 00 00 00	 call	 ?Py_BuildNone@@YAPAU_object@@XZ ; Py_BuildNone

; 1225 : }

  0002c	8b e5		 mov	 esp, ebp
  0002e	5d		 pop	 ebp
  0002f	c3		 ret	 0
?netSendSafeboxSaveMoneyPacket@@YAPAU_object@@PAU1@0@Z ENDP ; netSendSafeboxSaveMoneyPacket
_TEXT	ENDS
; Function compile flags: /Ogtp
; File E:\Metin2_server\SolWayneSF v6\ClientVS22\source\UserInterface\PythonNetworkStreamModule.cpp
;	COMDAT ?netSendSafeboxWithdrawMoneyPacket@@YAPAU_object@@PAU1@0@Z
_TEXT	SEGMENT
_iMoney$ = -4						; size = 4
_poSelf$ = 8						; size = 4
_poArgs$ = 12						; size = 4
?netSendSafeboxWithdrawMoneyPacket@@YAPAU_object@@PAU1@0@Z PROC ; netSendSafeboxWithdrawMoneyPacket, COMDAT

; 1228 : {

  00000	55		 push	 ebp
  00001	8b ec		 mov	 ebp, esp
  00003	51		 push	 ecx

; 1229 : 	int iMoney;
; 1230 : 	if (!PyTuple_GetInteger(poArgs, 0, &iMoney))

  00004	8d 45 fc	 lea	 eax, DWORD PTR _iMoney$[ebp]
  00007	50		 push	 eax
  00008	6a 00		 push	 0
  0000a	ff 75 0c	 push	 DWORD PTR _poArgs$[ebp]
  0000d	e8 00 00 00 00	 call	 ?PyTuple_GetInteger@@YA_NPAU_object@@HPAH@Z ; PyTuple_GetInteger
  00012	83 c4 0c	 add	 esp, 12			; 0000000cH
  00015	84 c0		 test	 al, al
  00017	75 0e		 jne	 SHORT $LN2@netSendSaf

; 1231 : 		return Py_BuildException();

  00019	6a 00		 push	 0
  0001b	e8 00 00 00 00	 call	 ?Py_BuildException@@YAPAU_object@@PBDZZ ; Py_BuildException
  00020	83 c4 04	 add	 esp, 4

; 1237 : }

  00023	8b e5		 mov	 esp, ebp
  00025	5d		 pop	 ebp
  00026	c3		 ret	 0
$LN2@netSendSaf:

; 1232 : 
; 1233 : 	CPythonNetworkStream& rns=CPythonNetworkStream::Instance();
; 1234 : 	rns.SendSafeBoxMoneyPacket(SAFEBOX_MONEY_STATE_WITHDRAW, iMoney);
; 1235 : 
; 1236 : 	return Py_BuildNone();

  00027	e8 00 00 00 00	 call	 ?Py_BuildNone@@YAPAU_object@@XZ ; Py_BuildNone

; 1237 : }

  0002c	8b e5		 mov	 esp, ebp
  0002e	5d		 pop	 ebp
  0002f	c3		 ret	 0
?netSendSafeboxWithdrawMoneyPacket@@YAPAU_object@@PAU1@0@Z ENDP ; netSendSafeboxWithdrawMoneyPacket
_TEXT	ENDS
; Function compile flags: /Ogtp
; File E:\Metin2_server\SolWayneSF v6\ClientVS22\source\UserInterface\PythonNetworkStreamModule.cpp
; File E:\Metin2_server\SolWayneSF v6\ClientVS22\source\UserInterface\GameType.h
; File E:\Metin2_server\SolWayneSF v6\ClientVS22\source\UserInterface\PythonNetworkStreamModule.cpp
; File E:\Metin2_server\SolWayneSF v6\ClientVS22\source\UserInterface\GameType.h
; File E:\Metin2_server\SolWayneSF v6\ClientVS22\source\UserInterface\PythonNetworkStreamModule.cpp
;	COMDAT ?netSendSafeboxCheckinPacket@@YAPAU_object@@PAU1@0@Z
_TEXT	SEGMENT
_iSafeBoxPos$ = -8					; size = 4
_InventoryPos$ = -4					; size = 3
_poSelf$ = 8						; size = 4
_poArgs$ = 12						; size = 4
?netSendSafeboxCheckinPacket@@YAPAU_object@@PAU1@0@Z PROC ; netSendSafeboxCheckinPacket, COMDAT

; 1240 : {

  00000	55		 push	 ebp
  00001	8b ec		 mov	 ebp, esp
  00003	83 ec 08	 sub	 esp, 8
  00006	56		 push	 esi

; 1244 : 	switch (PyTuple_Size(poArgs))

  00007	8b 75 0c	 mov	 esi, DWORD PTR _poArgs$[ebp]
; File E:\Metin2_server\SolWayneSF v6\ClientVS22\source\UserInterface\GameType.h

; 202  : 		cell = WORD_MAX;

  0000a	b8 ff ff 00 00	 mov	 eax, 65535		; 0000ffffH
; File E:\Metin2_server\SolWayneSF v6\ClientVS22\source\UserInterface\PythonNetworkStreamModule.cpp

; 1244 : 	switch (PyTuple_Size(poArgs))

  0000f	56		 push	 esi
; File E:\Metin2_server\SolWayneSF v6\ClientVS22\source\UserInterface\GameType.h

; 201  : 		window_type =     INVENTORY;

  00010	c6 45 fc 01	 mov	 BYTE PTR _InventoryPos$[ebp], 1

; 202  : 		cell = WORD_MAX;

  00014	66 89 45 fd	 mov	 WORD PTR _InventoryPos$[ebp+1], ax
; File E:\Metin2_server\SolWayneSF v6\ClientVS22\source\UserInterface\PythonNetworkStreamModule.cpp

; 1244 : 	switch (PyTuple_Size(poArgs))

  00018	ff 15 00 00 00
	00		 call	 DWORD PTR __imp__PyTuple_Size
  0001e	83 c4 04	 add	 esp, 4
  00021	83 e8 02	 sub	 eax, 2
  00024	74 4d		 je	 SHORT $LN4@netSendSaf
  00026	83 e8 01	 sub	 eax, 1
  00029	75 6e		 jne	 SHORT $LN6@netSendSaf

; 1251 : 			return Py_BuildException();
; 1252 : 		break;
; 1253 : 	case 3:
; 1254 : 		if (!PyTuple_GetInteger(poArgs, 0, &InventoryPos.window_type))

  0002b	8d 45 fc	 lea	 eax, DWORD PTR _InventoryPos$[ebp]
  0002e	50		 push	 eax
  0002f	6a 00		 push	 0
  00031	56		 push	 esi
  00032	e8 00 00 00 00	 call	 ?PyTuple_GetInteger@@YA_NPAU_object@@HPAE@Z ; PyTuple_GetInteger
  00037	83 c4 0c	 add	 esp, 12			; 0000000cH
  0003a	84 c0		 test	 al, al
  0003c	74 26		 je	 SHORT $LN14@netSendSaf

; 1255 : 			return Py_BuildException();
; 1256 : 		if (!PyTuple_GetInteger(poArgs, 1, &InventoryPos.cell))

  0003e	8d 45 fd	 lea	 eax, DWORD PTR _InventoryPos$[ebp+1]
  00041	50		 push	 eax
  00042	6a 01		 push	 1
  00044	56		 push	 esi
  00045	e8 00 00 00 00	 call	 ?PyTuple_GetInteger@@YA_NPAU_object@@HPAG@Z ; PyTuple_GetInteger
  0004a	83 c4 0c	 add	 esp, 12			; 0000000cH
  0004d	84 c0		 test	 al, al
  0004f	74 13		 je	 SHORT $LN14@netSendSaf

; 1257 : 			return Py_BuildException();
; 1258 : 		if (!PyTuple_GetInteger(poArgs, 2, &iSafeBoxPos))

  00051	8d 45 f8	 lea	 eax, DWORD PTR _iSafeBoxPos$[ebp]
  00054	50		 push	 eax
  00055	6a 02		 push	 2
  00057	56		 push	 esi
  00058	e8 00 00 00 00	 call	 ?PyTuple_GetInteger@@YA_NPAU_object@@HPAH@Z ; PyTuple_GetInteger
  0005d	83 c4 0c	 add	 esp, 12			; 0000000cH
  00060	84 c0		 test	 al, al
  00062	75 35		 jne	 SHORT $LN6@netSendSaf
$LN14@netSendSaf:

; 1268 : }

  00064	6a 00		 push	 0
  00066	e8 00 00 00 00	 call	 ?Py_BuildException@@YAPAU_object@@PBDZZ ; Py_BuildException
  0006b	83 c4 04	 add	 esp, 4
  0006e	5e		 pop	 esi
  0006f	8b e5		 mov	 esp, ebp
  00071	5d		 pop	 ebp
  00072	c3		 ret	 0
$LN4@netSendSaf:

; 1245 : 	{
; 1246 : 	case 2:
; 1247 : 		InventoryPos.window_type = INVENTORY;
; 1248 : 		if (!PyTuple_GetInteger(poArgs, 0, &InventoryPos.cell))

  00073	8d 45 fd	 lea	 eax, DWORD PTR _InventoryPos$[ebp+1]
  00076	50		 push	 eax
  00077	6a 00		 push	 0
  00079	56		 push	 esi
  0007a	e8 00 00 00 00	 call	 ?PyTuple_GetInteger@@YA_NPAU_object@@HPAG@Z ; PyTuple_GetInteger
  0007f	83 c4 0c	 add	 esp, 12			; 0000000cH
  00082	84 c0		 test	 al, al
  00084	74 de		 je	 SHORT $LN14@netSendSaf

; 1249 : 			return Py_BuildException();
; 1250 : 		if (!PyTuple_GetInteger(poArgs, 1, &iSafeBoxPos))

  00086	8d 45 f8	 lea	 eax, DWORD PTR _iSafeBoxPos$[ebp]
  00089	50		 push	 eax
  0008a	6a 01		 push	 1
  0008c	56		 push	 esi
  0008d	e8 00 00 00 00	 call	 ?PyTuple_GetInteger@@YA_NPAU_object@@HPAH@Z ; PyTuple_GetInteger
  00092	83 c4 0c	 add	 esp, 12			; 0000000cH
  00095	84 c0		 test	 al, al
  00097	74 cb		 je	 SHORT $LN14@netSendSaf
$LN6@netSendSaf:

; 1259 : 			return Py_BuildException();
; 1260 : 		break;
; 1261 : 
; 1262 : 	}
; 1263 : 
; 1264 : 	CPythonNetworkStream& rns=CPythonNetworkStream::Instance();
; 1265 : 	rns.SendSafeBoxCheckinPacket(InventoryPos, iSafeBoxPos);

  00099	ff 75 f8	 push	 DWORD PTR _iSafeBoxPos$[ebp]
  0009c	66 8b 45 fc	 mov	 ax, WORD PTR _InventoryPos$[ebp]
  000a0	51		 push	 ecx
  000a1	8b cc		 mov	 ecx, esp
  000a3	66 89 01	 mov	 WORD PTR [ecx], ax
  000a6	8a 45 fe	 mov	 al, BYTE PTR _InventoryPos$[ebp+2]
  000a9	88 41 02	 mov	 BYTE PTR [ecx+2], al
  000ac	8b 0d 00 00 00
	00		 mov	 ecx, DWORD PTR ?ms_singleton@?$CSingleton@VCPythonNetworkStream@@@@0PAVCPythonNetworkStream@@A ; CSingleton<CPythonNetworkStream>::ms_singleton
  000b2	e8 00 00 00 00	 call	 ?SendSafeBoxCheckinPacket@CPythonNetworkStream@@QAE_NUSItemPos@@E@Z ; CPythonNetworkStream::SendSafeBoxCheckinPacket

; 1266 : 
; 1267 : 	return Py_BuildNone();

  000b7	e8 00 00 00 00	 call	 ?Py_BuildNone@@YAPAU_object@@XZ ; Py_BuildNone

; 1268 : }

  000bc	5e		 pop	 esi
  000bd	8b e5		 mov	 esp, ebp
  000bf	5d		 pop	 ebp
  000c0	c3		 ret	 0
?netSendSafeboxCheckinPacket@@YAPAU_object@@PAU1@0@Z ENDP ; netSendSafeboxCheckinPacket
_TEXT	ENDS
; Function compile flags: /Ogtp
; File E:\Metin2_server\SolWayneSF v6\ClientVS22\source\UserInterface\PythonNetworkStreamModule.cpp
; File E:\Metin2_server\SolWayneSF v6\ClientVS22\source\UserInterface\GameType.h
; File E:\Metin2_server\SolWayneSF v6\ClientVS22\source\UserInterface\PythonNetworkStreamModule.cpp
; File E:\Metin2_server\SolWayneSF v6\ClientVS22\source\UserInterface\GameType.h
; File E:\Metin2_server\SolWayneSF v6\ClientVS22\source\UserInterface\PythonNetworkStreamModule.cpp
;	COMDAT ?netSendSafeboxCheckoutPacket@@YAPAU_object@@PAU1@0@Z
_TEXT	SEGMENT
_iSafeBoxPos$ = -8					; size = 4
_InventoryPos$ = -4					; size = 3
_poSelf$ = 8						; size = 4
_poArgs$ = 12						; size = 4
?netSendSafeboxCheckoutPacket@@YAPAU_object@@PAU1@0@Z PROC ; netSendSafeboxCheckoutPacket, COMDAT

; 1271 : {

  00000	55		 push	 ebp
  00001	8b ec		 mov	 ebp, esp
  00003	83 ec 08	 sub	 esp, 8
  00006	56		 push	 esi

; 1275 : 	switch (PyTuple_Size(poArgs))

  00007	8b 75 0c	 mov	 esi, DWORD PTR _poArgs$[ebp]
; File E:\Metin2_server\SolWayneSF v6\ClientVS22\source\UserInterface\GameType.h

; 202  : 		cell = WORD_MAX;

  0000a	b8 ff ff 00 00	 mov	 eax, 65535		; 0000ffffH
; File E:\Metin2_server\SolWayneSF v6\ClientVS22\source\UserInterface\PythonNetworkStreamModule.cpp

; 1275 : 	switch (PyTuple_Size(poArgs))

  0000f	56		 push	 esi
; File E:\Metin2_server\SolWayneSF v6\ClientVS22\source\UserInterface\GameType.h

; 201  : 		window_type =     INVENTORY;

  00010	c6 45 fc 01	 mov	 BYTE PTR _InventoryPos$[ebp], 1

; 202  : 		cell = WORD_MAX;

  00014	66 89 45 fd	 mov	 WORD PTR _InventoryPos$[ebp+1], ax
; File E:\Metin2_server\SolWayneSF v6\ClientVS22\source\UserInterface\PythonNetworkStreamModule.cpp

; 1275 : 	switch (PyTuple_Size(poArgs))

  00018	ff 15 00 00 00
	00		 call	 DWORD PTR __imp__PyTuple_Size
  0001e	83 c4 04	 add	 esp, 4
  00021	83 e8 02	 sub	 eax, 2
  00024	74 4d		 je	 SHORT $LN4@netSendSaf
  00026	83 e8 01	 sub	 eax, 1
  00029	75 6e		 jne	 SHORT $LN6@netSendSaf

; 1281 : 			return Py_BuildException();
; 1282 : 		break;
; 1283 : 	case 3:
; 1284 : 		if (!PyTuple_GetInteger(poArgs, 0, &iSafeBoxPos))

  0002b	8d 45 f8	 lea	 eax, DWORD PTR _iSafeBoxPos$[ebp]
  0002e	50		 push	 eax
  0002f	6a 00		 push	 0
  00031	56		 push	 esi
  00032	e8 00 00 00 00	 call	 ?PyTuple_GetInteger@@YA_NPAU_object@@HPAH@Z ; PyTuple_GetInteger
  00037	83 c4 0c	 add	 esp, 12			; 0000000cH
  0003a	84 c0		 test	 al, al
  0003c	74 26		 je	 SHORT $LN15@netSendSaf

; 1285 : 			return Py_BuildException();
; 1286 : 		if (!PyTuple_GetInteger(poArgs, 1, &InventoryPos.window_type))

  0003e	8d 45 fc	 lea	 eax, DWORD PTR _InventoryPos$[ebp]
  00041	50		 push	 eax
  00042	6a 01		 push	 1
  00044	56		 push	 esi
  00045	e8 00 00 00 00	 call	 ?PyTuple_GetInteger@@YA_NPAU_object@@HPAE@Z ; PyTuple_GetInteger
  0004a	83 c4 0c	 add	 esp, 12			; 0000000cH
  0004d	84 c0		 test	 al, al
  0004f	74 13		 je	 SHORT $LN15@netSendSaf

; 1287 : 			return Py_BuildException();
; 1288 : 		if (!PyTuple_GetInteger(poArgs, 2, &InventoryPos.cell))

  00051	8d 45 fd	 lea	 eax, DWORD PTR _InventoryPos$[ebp+1]
  00054	50		 push	 eax
  00055	6a 02		 push	 2
  00057	56		 push	 esi
  00058	e8 00 00 00 00	 call	 ?PyTuple_GetInteger@@YA_NPAU_object@@HPAG@Z ; PyTuple_GetInteger
  0005d	83 c4 0c	 add	 esp, 12			; 0000000cH
  00060	84 c0		 test	 al, al
  00062	75 35		 jne	 SHORT $LN6@netSendSaf
$LN15@netSendSaf:

; 1299 : }

  00064	6a 00		 push	 0
  00066	e8 00 00 00 00	 call	 ?Py_BuildException@@YAPAU_object@@PBDZZ ; Py_BuildException
  0006b	83 c4 04	 add	 esp, 4
  0006e	5e		 pop	 esi
  0006f	8b e5		 mov	 esp, ebp
  00071	5d		 pop	 ebp
  00072	c3		 ret	 0
$LN4@netSendSaf:

; 1276 : 	{
; 1277 : 	case 2:
; 1278 : 		if (!PyTuple_GetInteger(poArgs, 0, &iSafeBoxPos))

  00073	8d 45 f8	 lea	 eax, DWORD PTR _iSafeBoxPos$[ebp]
  00076	50		 push	 eax
  00077	6a 00		 push	 0
  00079	56		 push	 esi
  0007a	e8 00 00 00 00	 call	 ?PyTuple_GetInteger@@YA_NPAU_object@@HPAH@Z ; PyTuple_GetInteger
  0007f	83 c4 0c	 add	 esp, 12			; 0000000cH
  00082	84 c0		 test	 al, al
  00084	74 de		 je	 SHORT $LN15@netSendSaf

; 1279 : 			return Py_BuildException();
; 1280 : 		if (!PyTuple_GetInteger(poArgs, 1, &InventoryPos.cell))

  00086	8d 45 fd	 lea	 eax, DWORD PTR _InventoryPos$[ebp+1]
  00089	50		 push	 eax
  0008a	6a 01		 push	 1
  0008c	56		 push	 esi
  0008d	e8 00 00 00 00	 call	 ?PyTuple_GetInteger@@YA_NPAU_object@@HPAG@Z ; PyTuple_GetInteger
  00092	83 c4 0c	 add	 esp, 12			; 0000000cH
  00095	84 c0		 test	 al, al
  00097	74 cb		 je	 SHORT $LN15@netSendSaf
$LN6@netSendSaf:

; 1289 : 			return Py_BuildException();
; 1290 : 		break;
; 1291 : 	default:
; 1292 : 		break;
; 1293 : 	}
; 1294 : 
; 1295 : 	CPythonNetworkStream& rns=CPythonNetworkStream::Instance();
; 1296 : 	rns.SendSafeBoxCheckoutPacket(iSafeBoxPos, InventoryPos);

  00099	66 8b 45 fc	 mov	 ax, WORD PTR _InventoryPos$[ebp]
  0009d	51		 push	 ecx
  0009e	8b cc		 mov	 ecx, esp
  000a0	ff 75 f8	 push	 DWORD PTR _iSafeBoxPos$[ebp]
  000a3	66 89 01	 mov	 WORD PTR [ecx], ax
  000a6	8a 45 fe	 mov	 al, BYTE PTR _InventoryPos$[ebp+2]
  000a9	88 41 02	 mov	 BYTE PTR [ecx+2], al
  000ac	8b 0d 00 00 00
	00		 mov	 ecx, DWORD PTR ?ms_singleton@?$CSingleton@VCPythonNetworkStream@@@@0PAVCPythonNetworkStream@@A ; CSingleton<CPythonNetworkStream>::ms_singleton
  000b2	e8 00 00 00 00	 call	 ?SendSafeBoxCheckoutPacket@CPythonNetworkStream@@QAE_NEUSItemPos@@@Z ; CPythonNetworkStream::SendSafeBoxCheckoutPacket

; 1297 : 
; 1298 : 	return Py_BuildNone();

  000b7	e8 00 00 00 00	 call	 ?Py_BuildNone@@YAPAU_object@@XZ ; Py_BuildNone

; 1299 : }

  000bc	5e		 pop	 esi
  000bd	8b e5		 mov	 esp, ebp
  000bf	5d		 pop	 ebp
  000c0	c3		 ret	 0
?netSendSafeboxCheckoutPacket@@YAPAU_object@@PAU1@0@Z ENDP ; netSendSafeboxCheckoutPacket
_TEXT	ENDS
; Function compile flags: /Ogtp
; File E:\Metin2_server\SolWayneSF v6\ClientVS22\source\UserInterface\PythonNetworkStreamModule.cpp
;	COMDAT ?netSendSafeboxItemMovePacket@@YAPAU_object@@PAU1@0@Z
_TEXT	SEGMENT
_iSourcePos$ = -12					; size = 4
_iTargetPos$ = -8					; size = 4
_iCount$ = -4						; size = 4
_poSelf$ = 8						; size = 4
_poArgs$ = 12						; size = 4
?netSendSafeboxItemMovePacket@@YAPAU_object@@PAU1@0@Z PROC ; netSendSafeboxItemMovePacket, COMDAT

; 1302 : {

  00000	55		 push	 ebp
  00001	8b ec		 mov	 ebp, esp
  00003	83 ec 0c	 sub	 esp, 12			; 0000000cH

; 1303 : 	int iSourcePos;
; 1304 : 	if (!PyTuple_GetInteger(poArgs, 0, &iSourcePos))

  00006	8d 45 f4	 lea	 eax, DWORD PTR _iSourcePos$[ebp]
  00009	56		 push	 esi
  0000a	8b 75 0c	 mov	 esi, DWORD PTR _poArgs$[ebp]
  0000d	50		 push	 eax
  0000e	6a 00		 push	 0
  00010	56		 push	 esi
  00011	e8 00 00 00 00	 call	 ?PyTuple_GetInteger@@YA_NPAU_object@@HPAH@Z ; PyTuple_GetInteger
  00016	83 c4 0c	 add	 esp, 12			; 0000000cH
  00019	84 c0		 test	 al, al
  0001b	75 0f		 jne	 SHORT $LN2@netSendSaf
$LN6@netSendSaf:

; 1317 : }

  0001d	6a 00		 push	 0
  0001f	e8 00 00 00 00	 call	 ?Py_BuildException@@YAPAU_object@@PBDZZ ; Py_BuildException
  00024	83 c4 04	 add	 esp, 4
  00027	5e		 pop	 esi
  00028	8b e5		 mov	 esp, ebp
  0002a	5d		 pop	 ebp
  0002b	c3		 ret	 0
$LN2@netSendSaf:

; 1305 : 		return Py_BuildException();
; 1306 : 	int iTargetPos;
; 1307 : 	if (!PyTuple_GetInteger(poArgs, 1, &iTargetPos))

  0002c	8d 45 f8	 lea	 eax, DWORD PTR _iTargetPos$[ebp]
  0002f	50		 push	 eax
  00030	6a 01		 push	 1
  00032	56		 push	 esi
  00033	e8 00 00 00 00	 call	 ?PyTuple_GetInteger@@YA_NPAU_object@@HPAH@Z ; PyTuple_GetInteger
  00038	83 c4 0c	 add	 esp, 12			; 0000000cH
  0003b	84 c0		 test	 al, al
  0003d	74 de		 je	 SHORT $LN6@netSendSaf

; 1308 : 		return Py_BuildException();
; 1309 : 	int iCount;
; 1310 : 	if (!PyTuple_GetInteger(poArgs, 2, &iCount))

  0003f	8d 45 fc	 lea	 eax, DWORD PTR _iCount$[ebp]
  00042	50		 push	 eax
  00043	6a 02		 push	 2
  00045	56		 push	 esi
  00046	e8 00 00 00 00	 call	 ?PyTuple_GetInteger@@YA_NPAU_object@@HPAH@Z ; PyTuple_GetInteger
  0004b	83 c4 0c	 add	 esp, 12			; 0000000cH
  0004e	84 c0		 test	 al, al
  00050	74 cb		 je	 SHORT $LN6@netSendSaf

; 1311 : 		return Py_BuildException();
; 1312 : 
; 1313 : 	CPythonNetworkStream& rns=CPythonNetworkStream::Instance();
; 1314 : 	rns.SendSafeBoxItemMovePacket(iSourcePos, iTargetPos, iCount);

  00052	ff 75 fc	 push	 DWORD PTR _iCount$[ebp]
  00055	8b 0d 00 00 00
	00		 mov	 ecx, DWORD PTR ?ms_singleton@?$CSingleton@VCPythonNetworkStream@@@@0PAVCPythonNetworkStream@@A ; CSingleton<CPythonNetworkStream>::ms_singleton
  0005b	ff 75 f8	 push	 DWORD PTR _iTargetPos$[ebp]
  0005e	ff 75 f4	 push	 DWORD PTR _iSourcePos$[ebp]
  00061	e8 00 00 00 00	 call	 ?SendSafeBoxItemMovePacket@CPythonNetworkStream@@QAE_NEEE@Z ; CPythonNetworkStream::SendSafeBoxItemMovePacket

; 1315 : 
; 1316 : 	return Py_BuildNone();

  00066	e8 00 00 00 00	 call	 ?Py_BuildNone@@YAPAU_object@@XZ ; Py_BuildNone
  0006b	5e		 pop	 esi

; 1317 : }

  0006c	8b e5		 mov	 esp, ebp
  0006e	5d		 pop	 ebp
  0006f	c3		 ret	 0
?netSendSafeboxItemMovePacket@@YAPAU_object@@PAU1@0@Z ENDP ; netSendSafeboxItemMovePacket
_TEXT	ENDS
; Function compile flags: /Ogtp
; File E:\Metin2_server\SolWayneSF v6\ClientVS22\source\UserInterface\PythonNetworkStreamModule.cpp
; File E:\Metin2_server\SolWayneSF v6\ClientVS22\source\UserInterface\GameType.h
; File E:\Metin2_server\SolWayneSF v6\ClientVS22\source\UserInterface\PythonNetworkStreamModule.cpp
; File E:\Metin2_server\SolWayneSF v6\ClientVS22\source\UserInterface\GameType.h
; File E:\Metin2_server\SolWayneSF v6\ClientVS22\source\UserInterface\PythonNetworkStreamModule.cpp
;	COMDAT ?netSendMallCheckoutPacket@@YAPAU_object@@PAU1@0@Z
_TEXT	SEGMENT
_iMallPos$ = -8						; size = 4
_InventoryPos$ = -4					; size = 3
_poSelf$ = 8						; size = 4
_poArgs$ = 12						; size = 4
?netSendMallCheckoutPacket@@YAPAU_object@@PAU1@0@Z PROC	; netSendMallCheckoutPacket, COMDAT

; 1320 : {

  00000	55		 push	 ebp
  00001	8b ec		 mov	 ebp, esp
  00003	83 ec 08	 sub	 esp, 8
  00006	56		 push	 esi

; 1324 : 	switch (PyTuple_Size(poArgs))

  00007	8b 75 0c	 mov	 esi, DWORD PTR _poArgs$[ebp]
; File E:\Metin2_server\SolWayneSF v6\ClientVS22\source\UserInterface\GameType.h

; 202  : 		cell = WORD_MAX;

  0000a	b8 ff ff 00 00	 mov	 eax, 65535		; 0000ffffH
; File E:\Metin2_server\SolWayneSF v6\ClientVS22\source\UserInterface\PythonNetworkStreamModule.cpp

; 1324 : 	switch (PyTuple_Size(poArgs))

  0000f	56		 push	 esi
; File E:\Metin2_server\SolWayneSF v6\ClientVS22\source\UserInterface\GameType.h

; 201  : 		window_type =     INVENTORY;

  00010	c6 45 fc 01	 mov	 BYTE PTR _InventoryPos$[ebp], 1

; 202  : 		cell = WORD_MAX;

  00014	66 89 45 fd	 mov	 WORD PTR _InventoryPos$[ebp+1], ax
; File E:\Metin2_server\SolWayneSF v6\ClientVS22\source\UserInterface\PythonNetworkStreamModule.cpp

; 1324 : 	switch (PyTuple_Size(poArgs))

  00018	ff 15 00 00 00
	00		 call	 DWORD PTR __imp__PyTuple_Size
  0001e	83 c4 04	 add	 esp, 4
  00021	83 e8 02	 sub	 eax, 2
  00024	74 4d		 je	 SHORT $LN4@netSendMal
  00026	83 e8 01	 sub	 eax, 1
  00029	75 39		 jne	 SHORT $LN15@netSendMal

; 1330 : 			return Py_BuildException();
; 1331 : 		break;
; 1332 : 	case 3:
; 1333 : 		if (!PyTuple_GetInteger(poArgs, 0, &iMallPos))

  0002b	8d 45 f8	 lea	 eax, DWORD PTR _iMallPos$[ebp]
  0002e	50		 push	 eax
  0002f	6a 00		 push	 0
  00031	56		 push	 esi
  00032	e8 00 00 00 00	 call	 ?PyTuple_GetInteger@@YA_NPAU_object@@HPAH@Z ; PyTuple_GetInteger
  00037	83 c4 0c	 add	 esp, 12			; 0000000cH
  0003a	84 c0		 test	 al, al
  0003c	74 26		 je	 SHORT $LN15@netSendMal

; 1334 : 			return Py_BuildException();
; 1335 : 		if (!PyTuple_GetInteger(poArgs, 1, &InventoryPos.window_type))

  0003e	8d 45 fc	 lea	 eax, DWORD PTR _InventoryPos$[ebp]
  00041	50		 push	 eax
  00042	6a 01		 push	 1
  00044	56		 push	 esi
  00045	e8 00 00 00 00	 call	 ?PyTuple_GetInteger@@YA_NPAU_object@@HPAE@Z ; PyTuple_GetInteger
  0004a	83 c4 0c	 add	 esp, 12			; 0000000cH
  0004d	84 c0		 test	 al, al
  0004f	74 13		 je	 SHORT $LN15@netSendMal

; 1336 : 			return Py_BuildException();
; 1337 : 		if (!PyTuple_GetInteger(poArgs, 2, &InventoryPos.cell))

  00051	8d 45 fd	 lea	 eax, DWORD PTR _InventoryPos$[ebp+1]
  00054	50		 push	 eax
  00055	6a 02		 push	 2
  00057	56		 push	 esi
  00058	e8 00 00 00 00	 call	 ?PyTuple_GetInteger@@YA_NPAU_object@@HPAG@Z ; PyTuple_GetInteger
  0005d	83 c4 0c	 add	 esp, 12			; 0000000cH
  00060	84 c0		 test	 al, al
  00062	75 35		 jne	 SHORT $LN6@netSendMal
$LN15@netSendMal:

; 1347 : }

  00064	6a 00		 push	 0
  00066	e8 00 00 00 00	 call	 ?Py_BuildException@@YAPAU_object@@PBDZZ ; Py_BuildException
  0006b	83 c4 04	 add	 esp, 4
  0006e	5e		 pop	 esi
  0006f	8b e5		 mov	 esp, ebp
  00071	5d		 pop	 ebp
  00072	c3		 ret	 0
$LN4@netSendMal:

; 1325 : 	{
; 1326 : 	case 2:
; 1327 : 		if (!PyTuple_GetInteger(poArgs, 0, &iMallPos))

  00073	8d 45 f8	 lea	 eax, DWORD PTR _iMallPos$[ebp]
  00076	50		 push	 eax
  00077	6a 00		 push	 0
  00079	56		 push	 esi
  0007a	e8 00 00 00 00	 call	 ?PyTuple_GetInteger@@YA_NPAU_object@@HPAH@Z ; PyTuple_GetInteger
  0007f	83 c4 0c	 add	 esp, 12			; 0000000cH
  00082	84 c0		 test	 al, al
  00084	74 de		 je	 SHORT $LN15@netSendMal

; 1328 : 			return Py_BuildException();
; 1329 : 		if (!PyTuple_GetInteger(poArgs, 1, &InventoryPos.cell))

  00086	8d 45 fd	 lea	 eax, DWORD PTR _InventoryPos$[ebp+1]
  00089	50		 push	 eax
  0008a	6a 01		 push	 1
  0008c	56		 push	 esi
  0008d	e8 00 00 00 00	 call	 ?PyTuple_GetInteger@@YA_NPAU_object@@HPAG@Z ; PyTuple_GetInteger
  00092	83 c4 0c	 add	 esp, 12			; 0000000cH
  00095	84 c0		 test	 al, al
  00097	74 cb		 je	 SHORT $LN15@netSendMal
$LN6@netSendMal:

; 1338 : 			return Py_BuildException();
; 1339 : 		break;
; 1340 : 	default:
; 1341 : 		return Py_BuildException();
; 1342 : 	}
; 1343 : 	CPythonNetworkStream& rns=CPythonNetworkStream::Instance();
; 1344 : 	rns.SendMallCheckoutPacket(iMallPos, InventoryPos);

  00099	66 8b 45 fc	 mov	 ax, WORD PTR _InventoryPos$[ebp]
  0009d	51		 push	 ecx
  0009e	8b cc		 mov	 ecx, esp
  000a0	ff 75 f8	 push	 DWORD PTR _iMallPos$[ebp]
  000a3	66 89 01	 mov	 WORD PTR [ecx], ax
  000a6	8a 45 fe	 mov	 al, BYTE PTR _InventoryPos$[ebp+2]
  000a9	88 41 02	 mov	 BYTE PTR [ecx+2], al
  000ac	8b 0d 00 00 00
	00		 mov	 ecx, DWORD PTR ?ms_singleton@?$CSingleton@VCPythonNetworkStream@@@@0PAVCPythonNetworkStream@@A ; CSingleton<CPythonNetworkStream>::ms_singleton
  000b2	e8 00 00 00 00	 call	 ?SendMallCheckoutPacket@CPythonNetworkStream@@QAE_NEUSItemPos@@@Z ; CPythonNetworkStream::SendMallCheckoutPacket

; 1345 : 
; 1346 : 	return Py_BuildNone();

  000b7	e8 00 00 00 00	 call	 ?Py_BuildNone@@YAPAU_object@@XZ ; Py_BuildNone

; 1347 : }

  000bc	5e		 pop	 esi
  000bd	8b e5		 mov	 esp, ebp
  000bf	5d		 pop	 ebp
  000c0	c3		 ret	 0
?netSendMallCheckoutPacket@@YAPAU_object@@PAU1@0@Z ENDP	; netSendMallCheckoutPacket
_TEXT	ENDS
; Function compile flags: /Ogtp
; File E:\Metin2_server\SolWayneSF v6\ClientVS22\source\UserInterface\PythonNetworkStreamModule.cpp
;	COMDAT ?netSendAnswerMakeGuildPacket@@YAPAU_object@@PAU1@0@Z
_TEXT	SEGMENT
_szName$ = -4						; size = 4
_poSelf$ = 8						; size = 4
_poArgs$ = 12						; size = 4
?netSendAnswerMakeGuildPacket@@YAPAU_object@@PAU1@0@Z PROC ; netSendAnswerMakeGuildPacket, COMDAT

; 1350 : {

  00000	55		 push	 ebp
  00001	8b ec		 mov	 ebp, esp
  00003	51		 push	 ecx

; 1351 : 	char * szName;
; 1352 : 	if (!PyTuple_GetString(poArgs, 0, &szName))

  00004	8d 45 fc	 lea	 eax, DWORD PTR _szName$[ebp]
  00007	50		 push	 eax
  00008	6a 00		 push	 0
  0000a	ff 75 0c	 push	 DWORD PTR _poArgs$[ebp]
  0000d	e8 00 00 00 00	 call	 ?PyTuple_GetString@@YA_NPAU_object@@HPAPAD@Z ; PyTuple_GetString
  00012	83 c4 0c	 add	 esp, 12			; 0000000cH
  00015	84 c0		 test	 al, al
  00017	75 0e		 jne	 SHORT $LN2@netSendAns

; 1353 : 		return Py_BuildException();

  00019	6a 00		 push	 0
  0001b	e8 00 00 00 00	 call	 ?Py_BuildException@@YAPAU_object@@PBDZZ ; Py_BuildException
  00020	83 c4 04	 add	 esp, 4

; 1359 : }

  00023	8b e5		 mov	 esp, ebp
  00025	5d		 pop	 ebp
  00026	c3		 ret	 0
$LN2@netSendAns:

; 1354 : 
; 1355 : 	CPythonNetworkStream& rns=CPythonNetworkStream::Instance();
; 1356 : 	rns.SendAnswerMakeGuildPacket(szName);

  00027	ff 75 fc	 push	 DWORD PTR _szName$[ebp]
  0002a	8b 0d 00 00 00
	00		 mov	 ecx, DWORD PTR ?ms_singleton@?$CSingleton@VCPythonNetworkStream@@@@0PAVCPythonNetworkStream@@A ; CSingleton<CPythonNetworkStream>::ms_singleton
  00030	e8 00 00 00 00	 call	 ?SendAnswerMakeGuildPacket@CPythonNetworkStream@@QAE_NPBD@Z ; CPythonNetworkStream::SendAnswerMakeGuildPacket

; 1357 : 
; 1358 : 	return Py_BuildNone();

  00035	e8 00 00 00 00	 call	 ?Py_BuildNone@@YAPAU_object@@XZ ; Py_BuildNone

; 1359 : }

  0003a	8b e5		 mov	 esp, ebp
  0003c	5d		 pop	 ebp
  0003d	c3		 ret	 0
?netSendAnswerMakeGuildPacket@@YAPAU_object@@PAU1@0@Z ENDP ; netSendAnswerMakeGuildPacket
_TEXT	ENDS
; Function compile flags: /Ogtp
; File E:\Metin2_server\SolWayneSF v6\ClientVS22\source\UserInterface\PythonNetworkStreamModule.cpp
;	COMDAT ?netSendQuestInputStringPacket@@YAPAU_object@@PAU1@0@Z
_TEXT	SEGMENT
_szString$ = -4						; size = 4
_poSelf$ = 8						; size = 4
_poArgs$ = 12						; size = 4
?netSendQuestInputStringPacket@@YAPAU_object@@PAU1@0@Z PROC ; netSendQuestInputStringPacket, COMDAT

; 1362 : {

  00000	55		 push	 ebp
  00001	8b ec		 mov	 ebp, esp
  00003	51		 push	 ecx

; 1363 : 	char * szString;
; 1364 : 	if (!PyTuple_GetString(poArgs, 0, &szString))

  00004	8d 45 fc	 lea	 eax, DWORD PTR _szString$[ebp]
  00007	50		 push	 eax
  00008	6a 00		 push	 0
  0000a	ff 75 0c	 push	 DWORD PTR _poArgs$[ebp]
  0000d	e8 00 00 00 00	 call	 ?PyTuple_GetString@@YA_NPAU_object@@HPAPAD@Z ; PyTuple_GetString
  00012	83 c4 0c	 add	 esp, 12			; 0000000cH
  00015	84 c0		 test	 al, al
  00017	75 0e		 jne	 SHORT $LN2@netSendQue

; 1365 : 		return Py_BuildException();

  00019	6a 00		 push	 0
  0001b	e8 00 00 00 00	 call	 ?Py_BuildException@@YAPAU_object@@PBDZZ ; Py_BuildException
  00020	83 c4 04	 add	 esp, 4

; 1371 : }

  00023	8b e5		 mov	 esp, ebp
  00025	5d		 pop	 ebp
  00026	c3		 ret	 0
$LN2@netSendQue:

; 1366 : 
; 1367 : 	CPythonNetworkStream& rns=CPythonNetworkStream::Instance();
; 1368 : 	rns.SendQuestInputStringPacket(szString);

  00027	ff 75 fc	 push	 DWORD PTR _szString$[ebp]
  0002a	8b 0d 00 00 00
	00		 mov	 ecx, DWORD PTR ?ms_singleton@?$CSingleton@VCPythonNetworkStream@@@@0PAVCPythonNetworkStream@@A ; CSingleton<CPythonNetworkStream>::ms_singleton
  00030	e8 00 00 00 00	 call	 ?SendQuestInputStringPacket@CPythonNetworkStream@@QAE_NPBD@Z ; CPythonNetworkStream::SendQuestInputStringPacket

; 1369 : 
; 1370 : 	return Py_BuildNone();

  00035	e8 00 00 00 00	 call	 ?Py_BuildNone@@YAPAU_object@@XZ ; Py_BuildNone

; 1371 : }

  0003a	8b e5		 mov	 esp, ebp
  0003c	5d		 pop	 ebp
  0003d	c3		 ret	 0
?netSendQuestInputStringPacket@@YAPAU_object@@PAU1@0@Z ENDP ; netSendQuestInputStringPacket
_TEXT	ENDS
; Function compile flags: /Ogtp
; File E:\Metin2_server\SolWayneSF v6\ClientVS22\source\UserInterface\PythonNetworkStreamModule.cpp
;	COMDAT ?netSendQuestConfirmPacket@@YAPAU_object@@PAU1@0@Z
_TEXT	SEGMENT
_iAnswer$ = -8						; size = 4
_iPID$ = -4						; size = 4
_poSelf$ = 8						; size = 4
_poArgs$ = 12						; size = 4
?netSendQuestConfirmPacket@@YAPAU_object@@PAU1@0@Z PROC	; netSendQuestConfirmPacket, COMDAT

; 1374 : {

  00000	55		 push	 ebp
  00001	8b ec		 mov	 ebp, esp
  00003	83 ec 08	 sub	 esp, 8

; 1375 : 	int iAnswer;
; 1376 : 	if (!PyTuple_GetInteger(poArgs, 0, &iAnswer))

  00006	8d 45 f8	 lea	 eax, DWORD PTR _iAnswer$[ebp]
  00009	50		 push	 eax
  0000a	6a 00		 push	 0
  0000c	ff 75 0c	 push	 DWORD PTR _poArgs$[ebp]
  0000f	e8 00 00 00 00	 call	 ?PyTuple_GetInteger@@YA_NPAU_object@@HPAH@Z ; PyTuple_GetInteger
  00014	83 c4 0c	 add	 esp, 12			; 0000000cH
  00017	84 c0		 test	 al, al
  00019	75 0e		 jne	 SHORT $LN2@netSendQue
$LN5@netSendQue:

; 1386 : }

  0001b	6a 00		 push	 0
  0001d	e8 00 00 00 00	 call	 ?Py_BuildException@@YAPAU_object@@PBDZZ ; Py_BuildException
  00022	83 c4 04	 add	 esp, 4
  00025	8b e5		 mov	 esp, ebp
  00027	5d		 pop	 ebp
  00028	c3		 ret	 0
$LN2@netSendQue:

; 1377 : 		return Py_BuildException();
; 1378 : 	int iPID;
; 1379 : 	if (!PyTuple_GetInteger(poArgs, 1, &iPID))

  00029	8d 45 fc	 lea	 eax, DWORD PTR _iPID$[ebp]
  0002c	50		 push	 eax
  0002d	6a 01		 push	 1
  0002f	ff 75 0c	 push	 DWORD PTR _poArgs$[ebp]
  00032	e8 00 00 00 00	 call	 ?PyTuple_GetInteger@@YA_NPAU_object@@HPAH@Z ; PyTuple_GetInteger
  00037	83 c4 0c	 add	 esp, 12			; 0000000cH
  0003a	84 c0		 test	 al, al
  0003c	74 dd		 je	 SHORT $LN5@netSendQue

; 1380 : 		return Py_BuildException();
; 1381 : 
; 1382 : 	CPythonNetworkStream& rns=CPythonNetworkStream::Instance();
; 1383 : 	rns.SendQuestConfirmPacket(iAnswer, iPID);

  0003e	ff 75 fc	 push	 DWORD PTR _iPID$[ebp]
  00041	8b 0d 00 00 00
	00		 mov	 ecx, DWORD PTR ?ms_singleton@?$CSingleton@VCPythonNetworkStream@@@@0PAVCPythonNetworkStream@@A ; CSingleton<CPythonNetworkStream>::ms_singleton
  00047	ff 75 f8	 push	 DWORD PTR _iAnswer$[ebp]
  0004a	e8 00 00 00 00	 call	 ?SendQuestConfirmPacket@CPythonNetworkStream@@QAE_NEK@Z ; CPythonNetworkStream::SendQuestConfirmPacket

; 1384 : 
; 1385 : 	return Py_BuildNone();

  0004f	e8 00 00 00 00	 call	 ?Py_BuildNone@@YAPAU_object@@XZ ; Py_BuildNone

; 1386 : }

  00054	8b e5		 mov	 esp, ebp
  00056	5d		 pop	 ebp
  00057	c3		 ret	 0
?netSendQuestConfirmPacket@@YAPAU_object@@PAU1@0@Z ENDP	; netSendQuestConfirmPacket
_TEXT	ENDS
; Function compile flags: /Ogtp
; File E:\Metin2_server\SolWayneSF v6\ClientVS22\source\UserInterface\PythonNetworkStreamModule.cpp
;	COMDAT ?netSendGuildAddMemberPacket@@YAPAU_object@@PAU1@0@Z
_TEXT	SEGMENT
_iVID$ = -4						; size = 4
_poSelf$ = 8						; size = 4
_poArgs$ = 12						; size = 4
?netSendGuildAddMemberPacket@@YAPAU_object@@PAU1@0@Z PROC ; netSendGuildAddMemberPacket, COMDAT

; 1389 : {

  00000	55		 push	 ebp
  00001	8b ec		 mov	 ebp, esp
  00003	51		 push	 ecx

; 1390 : 	int iVID;
; 1391 : 	if (!PyTuple_GetInteger(poArgs, 0, &iVID))

  00004	8d 45 fc	 lea	 eax, DWORD PTR _iVID$[ebp]
  00007	50		 push	 eax
  00008	6a 00		 push	 0
  0000a	ff 75 0c	 push	 DWORD PTR _poArgs$[ebp]
  0000d	e8 00 00 00 00	 call	 ?PyTuple_GetInteger@@YA_NPAU_object@@HPAH@Z ; PyTuple_GetInteger
  00012	83 c4 0c	 add	 esp, 12			; 0000000cH
  00015	84 c0		 test	 al, al
  00017	75 0e		 jne	 SHORT $LN2@netSendGui

; 1392 : 		return Py_BuildException();

  00019	6a 00		 push	 0
  0001b	e8 00 00 00 00	 call	 ?Py_BuildException@@YAPAU_object@@PBDZZ ; Py_BuildException
  00020	83 c4 04	 add	 esp, 4

; 1398 : }

  00023	8b e5		 mov	 esp, ebp
  00025	5d		 pop	 ebp
  00026	c3		 ret	 0
$LN2@netSendGui:

; 1393 : 
; 1394 : 	CPythonNetworkStream& rns=CPythonNetworkStream::Instance();
; 1395 : 	rns.SendGuildAddMemberPacket(iVID);

  00027	ff 75 fc	 push	 DWORD PTR _iVID$[ebp]
  0002a	8b 0d 00 00 00
	00		 mov	 ecx, DWORD PTR ?ms_singleton@?$CSingleton@VCPythonNetworkStream@@@@0PAVCPythonNetworkStream@@A ; CSingleton<CPythonNetworkStream>::ms_singleton
  00030	e8 00 00 00 00	 call	 ?SendGuildAddMemberPacket@CPythonNetworkStream@@QAE_NK@Z ; CPythonNetworkStream::SendGuildAddMemberPacket

; 1396 : 
; 1397 : 	return Py_BuildNone();

  00035	e8 00 00 00 00	 call	 ?Py_BuildNone@@YAPAU_object@@XZ ; Py_BuildNone

; 1398 : }

  0003a	8b e5		 mov	 esp, ebp
  0003c	5d		 pop	 ebp
  0003d	c3		 ret	 0
?netSendGuildAddMemberPacket@@YAPAU_object@@PAU1@0@Z ENDP ; netSendGuildAddMemberPacket
_TEXT	ENDS
; Function compile flags: /Ogtp
; File E:\Metin2_server\SolWayneSF v6\ClientVS22\source\UserInterface\PythonNetworkStreamModule.cpp
;	COMDAT ?netSendGuildRemoveMemberPacket@@YAPAU_object@@PAU1@0@Z
_TEXT	SEGMENT
_pGuildMemberData$ = -8					; size = 4
_szKey$ = -4						; size = 4
_poSelf$ = 8						; size = 4
_poArgs$ = 12						; size = 4
?netSendGuildRemoveMemberPacket@@YAPAU_object@@PAU1@0@Z PROC ; netSendGuildRemoveMemberPacket, COMDAT

; 1401 : {

  00000	55		 push	 ebp
  00001	8b ec		 mov	 ebp, esp
  00003	83 ec 08	 sub	 esp, 8

; 1402 : 	char * szKey;
; 1403 : 	if (!PyTuple_GetString(poArgs, 0, &szKey))

  00006	8d 45 fc	 lea	 eax, DWORD PTR _szKey$[ebp]
  00009	50		 push	 eax
  0000a	6a 00		 push	 0
  0000c	ff 75 0c	 push	 DWORD PTR _poArgs$[ebp]
  0000f	e8 00 00 00 00	 call	 ?PyTuple_GetString@@YA_NPAU_object@@HPAPAD@Z ; PyTuple_GetString
  00014	83 c4 0c	 add	 esp, 12			; 0000000cH
  00017	84 c0		 test	 al, al
  00019	75 0e		 jne	 SHORT $LN2@netSendGui

; 1404 : 		return Py_BuildException();

  0001b	6a 00		 push	 0
  0001d	e8 00 00 00 00	 call	 ?Py_BuildException@@YAPAU_object@@PBDZZ ; Py_BuildException
  00022	83 c4 04	 add	 esp, 4

; 1415 : 
; 1416 : 	return Py_BuildNone();
; 1417 : }

  00025	8b e5		 mov	 esp, ebp
  00027	5d		 pop	 ebp
  00028	c3		 ret	 0
$LN2@netSendGui:

; 1405 : 
; 1406 : 	CPythonGuild::TGuildMemberData * pGuildMemberData;
; 1407 : 	if (!CPythonGuild::Instance().GetMemberDataPtrByName(szKey, &pGuildMemberData))

  00029	8b 0d 00 00 00
	00		 mov	 ecx, DWORD PTR ?ms_singleton@?$CSingleton@VCPythonGuild@@@@0PAVCPythonGuild@@A ; CSingleton<CPythonGuild>::ms_singleton
  0002f	8d 45 f8	 lea	 eax, DWORD PTR _pGuildMemberData$[ebp]
  00032	50		 push	 eax
  00033	ff 75 fc	 push	 DWORD PTR _szKey$[ebp]
  00036	e8 00 00 00 00	 call	 ?GetMemberDataPtrByName@CPythonGuild@@QAEHPBDPAPAUSGuildMemberData@1@@Z ; CPythonGuild::GetMemberDataPtrByName
  0003b	85 c0		 test	 eax, eax
  0003d	75 19		 jne	 SHORT $LN3@netSendGui

; 1408 : 	{
; 1409 : 		TraceError("netSendGuildRemoveMemberPacket(szKey=%s) - Can't Find Guild Member\n", szKey);

  0003f	ff 75 fc	 push	 DWORD PTR _szKey$[ebp]
  00042	68 00 00 00 00	 push	 OFFSET ??_C@_0EE@CPCFCFHF@netSendGuildRemoveMemberPacket?$CI@
  00047	e8 00 00 00 00	 call	 ?TraceError@@YAXPBDZZ	; TraceError
  0004c	83 c4 08	 add	 esp, 8

; 1415 : 
; 1416 : 	return Py_BuildNone();
; 1417 : }

  0004f	e8 00 00 00 00	 call	 ?Py_BuildNone@@YAPAU_object@@XZ ; Py_BuildNone
  00054	8b e5		 mov	 esp, ebp
  00056	5d		 pop	 ebp
  00057	c3		 ret	 0
$LN3@netSendGui:

; 1410 : 		return Py_BuildNone();
; 1411 : 	}
; 1412 : 
; 1413 : 	CPythonNetworkStream& rns=CPythonNetworkStream::Instance();
; 1414 : 	rns.SendGuildRemoveMemberPacket(pGuildMemberData->dwPID);

  00058	8b 45 f8	 mov	 eax, DWORD PTR _pGuildMemberData$[ebp]
  0005b	8b 0d 00 00 00
	00		 mov	 ecx, DWORD PTR ?ms_singleton@?$CSingleton@VCPythonNetworkStream@@@@0PAVCPythonNetworkStream@@A ; CSingleton<CPythonNetworkStream>::ms_singleton
  00061	ff 30		 push	 DWORD PTR [eax]
  00063	e8 00 00 00 00	 call	 ?SendGuildRemoveMemberPacket@CPythonNetworkStream@@QAE_NK@Z ; CPythonNetworkStream::SendGuildRemoveMemberPacket

; 1415 : 
; 1416 : 	return Py_BuildNone();
; 1417 : }

  00068	e8 00 00 00 00	 call	 ?Py_BuildNone@@YAPAU_object@@XZ ; Py_BuildNone
  0006d	8b e5		 mov	 esp, ebp
  0006f	5d		 pop	 ebp
  00070	c3		 ret	 0
?netSendGuildRemoveMemberPacket@@YAPAU_object@@PAU1@0@Z ENDP ; netSendGuildRemoveMemberPacket
_TEXT	ENDS
; Function compile flags: /Ogtp
; File E:\Metin2_server\SolWayneSF v6\ClientVS22\source\UserInterface\PythonNetworkStreamModule.cpp
;	COMDAT ?netSendGuildChangeGradeNamePacket@@YAPAU_object@@PAU1@0@Z
_TEXT	SEGMENT
_iGradeNumber$ = -8					; size = 4
_szGradeName$ = -4					; size = 4
_poSelf$ = 8						; size = 4
_poArgs$ = 12						; size = 4
?netSendGuildChangeGradeNamePacket@@YAPAU_object@@PAU1@0@Z PROC ; netSendGuildChangeGradeNamePacket, COMDAT

; 1420 : {

  00000	55		 push	 ebp
  00001	8b ec		 mov	 ebp, esp
  00003	83 ec 08	 sub	 esp, 8

; 1421 : 	int iGradeNumber;
; 1422 : 	if (!PyTuple_GetInteger(poArgs, 0, &iGradeNumber))

  00006	8d 45 f8	 lea	 eax, DWORD PTR _iGradeNumber$[ebp]
  00009	50		 push	 eax
  0000a	6a 00		 push	 0
  0000c	ff 75 0c	 push	 DWORD PTR _poArgs$[ebp]
  0000f	e8 00 00 00 00	 call	 ?PyTuple_GetInteger@@YA_NPAU_object@@HPAH@Z ; PyTuple_GetInteger
  00014	83 c4 0c	 add	 esp, 12			; 0000000cH
  00017	84 c0		 test	 al, al
  00019	75 0e		 jne	 SHORT $LN2@netSendGui
$LN5@netSendGui:

; 1432 : }

  0001b	6a 00		 push	 0
  0001d	e8 00 00 00 00	 call	 ?Py_BuildException@@YAPAU_object@@PBDZZ ; Py_BuildException
  00022	83 c4 04	 add	 esp, 4
  00025	8b e5		 mov	 esp, ebp
  00027	5d		 pop	 ebp
  00028	c3		 ret	 0
$LN2@netSendGui:

; 1423 : 		return Py_BuildException();
; 1424 : 	char * szGradeName;
; 1425 : 	if (!PyTuple_GetString(poArgs, 1, &szGradeName))

  00029	8d 45 fc	 lea	 eax, DWORD PTR _szGradeName$[ebp]
  0002c	50		 push	 eax
  0002d	6a 01		 push	 1
  0002f	ff 75 0c	 push	 DWORD PTR _poArgs$[ebp]
  00032	e8 00 00 00 00	 call	 ?PyTuple_GetString@@YA_NPAU_object@@HPAPAD@Z ; PyTuple_GetString
  00037	83 c4 0c	 add	 esp, 12			; 0000000cH
  0003a	84 c0		 test	 al, al
  0003c	74 dd		 je	 SHORT $LN5@netSendGui

; 1426 : 		return Py_BuildException();
; 1427 : 
; 1428 : 	CPythonNetworkStream& rns=CPythonNetworkStream::Instance();
; 1429 : 	rns.SendGuildChangeGradeNamePacket(iGradeNumber, szGradeName);

  0003e	ff 75 fc	 push	 DWORD PTR _szGradeName$[ebp]
  00041	8b 0d 00 00 00
	00		 mov	 ecx, DWORD PTR ?ms_singleton@?$CSingleton@VCPythonNetworkStream@@@@0PAVCPythonNetworkStream@@A ; CSingleton<CPythonNetworkStream>::ms_singleton
  00047	ff 75 f8	 push	 DWORD PTR _iGradeNumber$[ebp]
  0004a	e8 00 00 00 00	 call	 ?SendGuildChangeGradeNamePacket@CPythonNetworkStream@@QAE_NEPBD@Z ; CPythonNetworkStream::SendGuildChangeGradeNamePacket

; 1430 : 
; 1431 : 	return Py_BuildNone();

  0004f	e8 00 00 00 00	 call	 ?Py_BuildNone@@YAPAU_object@@XZ ; Py_BuildNone

; 1432 : }

  00054	8b e5		 mov	 esp, ebp
  00056	5d		 pop	 ebp
  00057	c3		 ret	 0
?netSendGuildChangeGradeNamePacket@@YAPAU_object@@PAU1@0@Z ENDP ; netSendGuildChangeGradeNamePacket
_TEXT	ENDS
; Function compile flags: /Ogtp
; File E:\Metin2_server\SolWayneSF v6\ClientVS22\source\UserInterface\PythonNetworkStreamModule.cpp
;	COMDAT ?netSendGuildChangeGradeAuthorityPacket@@YAPAU_object@@PAU1@0@Z
_TEXT	SEGMENT
_iGradeNumber$ = -8					; size = 4
_iAuthority$ = -4					; size = 4
_poSelf$ = 8						; size = 4
_poArgs$ = 12						; size = 4
?netSendGuildChangeGradeAuthorityPacket@@YAPAU_object@@PAU1@0@Z PROC ; netSendGuildChangeGradeAuthorityPacket, COMDAT

; 1435 : {

  00000	55		 push	 ebp
  00001	8b ec		 mov	 ebp, esp
  00003	83 ec 08	 sub	 esp, 8

; 1436 : 	int iGradeNumber;
; 1437 : 	if (!PyTuple_GetInteger(poArgs, 0, &iGradeNumber))

  00006	8d 45 f8	 lea	 eax, DWORD PTR _iGradeNumber$[ebp]
  00009	50		 push	 eax
  0000a	6a 00		 push	 0
  0000c	ff 75 0c	 push	 DWORD PTR _poArgs$[ebp]
  0000f	e8 00 00 00 00	 call	 ?PyTuple_GetInteger@@YA_NPAU_object@@HPAH@Z ; PyTuple_GetInteger
  00014	83 c4 0c	 add	 esp, 12			; 0000000cH
  00017	84 c0		 test	 al, al
  00019	75 0e		 jne	 SHORT $LN2@netSendGui
$LN5@netSendGui:

; 1447 : }

  0001b	6a 00		 push	 0
  0001d	e8 00 00 00 00	 call	 ?Py_BuildException@@YAPAU_object@@PBDZZ ; Py_BuildException
  00022	83 c4 04	 add	 esp, 4
  00025	8b e5		 mov	 esp, ebp
  00027	5d		 pop	 ebp
  00028	c3		 ret	 0
$LN2@netSendGui:

; 1438 : 		return Py_BuildException();
; 1439 : 	int iAuthority;
; 1440 : 	if (!PyTuple_GetInteger(poArgs, 1, &iAuthority))

  00029	8d 45 fc	 lea	 eax, DWORD PTR _iAuthority$[ebp]
  0002c	50		 push	 eax
  0002d	6a 01		 push	 1
  0002f	ff 75 0c	 push	 DWORD PTR _poArgs$[ebp]
  00032	e8 00 00 00 00	 call	 ?PyTuple_GetInteger@@YA_NPAU_object@@HPAH@Z ; PyTuple_GetInteger
  00037	83 c4 0c	 add	 esp, 12			; 0000000cH
  0003a	84 c0		 test	 al, al
  0003c	74 dd		 je	 SHORT $LN5@netSendGui

; 1441 : 		return Py_BuildException();
; 1442 : 
; 1443 : 	CPythonNetworkStream& rns=CPythonNetworkStream::Instance();
; 1444 : 	rns.SendGuildChangeGradeAuthorityPacket(iGradeNumber, iAuthority);

  0003e	ff 75 fc	 push	 DWORD PTR _iAuthority$[ebp]
  00041	8b 0d 00 00 00
	00		 mov	 ecx, DWORD PTR ?ms_singleton@?$CSingleton@VCPythonNetworkStream@@@@0PAVCPythonNetworkStream@@A ; CSingleton<CPythonNetworkStream>::ms_singleton
  00047	ff 75 f8	 push	 DWORD PTR _iGradeNumber$[ebp]
  0004a	e8 00 00 00 00	 call	 ?SendGuildChangeGradeAuthorityPacket@CPythonNetworkStream@@QAE_NEE@Z ; CPythonNetworkStream::SendGuildChangeGradeAuthorityPacket

; 1445 : 
; 1446 : 	return Py_BuildNone();

  0004f	e8 00 00 00 00	 call	 ?Py_BuildNone@@YAPAU_object@@XZ ; Py_BuildNone

; 1447 : }

  00054	8b e5		 mov	 esp, ebp
  00056	5d		 pop	 ebp
  00057	c3		 ret	 0
?netSendGuildChangeGradeAuthorityPacket@@YAPAU_object@@PAU1@0@Z ENDP ; netSendGuildChangeGradeAuthorityPacket
_TEXT	ENDS
; Function compile flags: /Ogtp
; File E:\Metin2_server\SolWayneSF v6\ClientVS22\source\UserInterface\PythonNetworkStreamModule.cpp
;	COMDAT ?netSendGuildOfferPacket@@YAPAU_object@@PAU1@0@Z
_TEXT	SEGMENT
_iExperience$ = -4					; size = 4
_poSelf$ = 8						; size = 4
_poArgs$ = 12						; size = 4
?netSendGuildOfferPacket@@YAPAU_object@@PAU1@0@Z PROC	; netSendGuildOfferPacket, COMDAT

; 1450 : {

  00000	55		 push	 ebp
  00001	8b ec		 mov	 ebp, esp
  00003	51		 push	 ecx

; 1451 : 	int iExperience;
; 1452 : 	if (!PyTuple_GetInteger(poArgs, 0, &iExperience))

  00004	8d 45 fc	 lea	 eax, DWORD PTR _iExperience$[ebp]
  00007	50		 push	 eax
  00008	6a 00		 push	 0
  0000a	ff 75 0c	 push	 DWORD PTR _poArgs$[ebp]
  0000d	e8 00 00 00 00	 call	 ?PyTuple_GetInteger@@YA_NPAU_object@@HPAH@Z ; PyTuple_GetInteger
  00012	83 c4 0c	 add	 esp, 12			; 0000000cH
  00015	84 c0		 test	 al, al
  00017	75 0e		 jne	 SHORT $LN2@netSendGui

; 1453 : 		return Py_BuildException();

  00019	6a 00		 push	 0
  0001b	e8 00 00 00 00	 call	 ?Py_BuildException@@YAPAU_object@@PBDZZ ; Py_BuildException
  00020	83 c4 04	 add	 esp, 4

; 1459 : }

  00023	8b e5		 mov	 esp, ebp
  00025	5d		 pop	 ebp
  00026	c3		 ret	 0
$LN2@netSendGui:

; 1454 : 
; 1455 : 	CPythonNetworkStream& rns=CPythonNetworkStream::Instance();
; 1456 : 	rns.SendGuildOfferPacket(iExperience);

  00027	ff 75 fc	 push	 DWORD PTR _iExperience$[ebp]
  0002a	8b 0d 00 00 00
	00		 mov	 ecx, DWORD PTR ?ms_singleton@?$CSingleton@VCPythonNetworkStream@@@@0PAVCPythonNetworkStream@@A ; CSingleton<CPythonNetworkStream>::ms_singleton
  00030	e8 00 00 00 00	 call	 ?SendGuildOfferPacket@CPythonNetworkStream@@QAE_NK@Z ; CPythonNetworkStream::SendGuildOfferPacket

; 1457 : 
; 1458 : 	return Py_BuildNone();

  00035	e8 00 00 00 00	 call	 ?Py_BuildNone@@YAPAU_object@@XZ ; Py_BuildNone

; 1459 : }

  0003a	8b e5		 mov	 esp, ebp
  0003c	5d		 pop	 ebp
  0003d	c3		 ret	 0
?netSendGuildOfferPacket@@YAPAU_object@@PAU1@0@Z ENDP	; netSendGuildOfferPacket
_TEXT	ENDS
; Function compile flags: /Ogtp
; File E:\Metin2_server\SolWayneSF v6\ClientVS22\source\UserInterface\PythonNetworkStreamModule.cpp
;	COMDAT ?netSnedGuildPostCommentPacket@@YAPAU_object@@PAU1@0@Z
_TEXT	SEGMENT
_szComment$ = -4					; size = 4
_poSelf$ = 8						; size = 4
_poArgs$ = 12						; size = 4
?netSnedGuildPostCommentPacket@@YAPAU_object@@PAU1@0@Z PROC ; netSnedGuildPostCommentPacket, COMDAT

; 1462 : {

  00000	55		 push	 ebp
  00001	8b ec		 mov	 ebp, esp
  00003	51		 push	 ecx

; 1463 : 	char * szComment;
; 1464 : 	if (!PyTuple_GetString(poArgs, 0, &szComment))

  00004	8d 45 fc	 lea	 eax, DWORD PTR _szComment$[ebp]
  00007	50		 push	 eax
  00008	6a 00		 push	 0
  0000a	ff 75 0c	 push	 DWORD PTR _poArgs$[ebp]
  0000d	e8 00 00 00 00	 call	 ?PyTuple_GetString@@YA_NPAU_object@@HPAPAD@Z ; PyTuple_GetString
  00012	83 c4 0c	 add	 esp, 12			; 0000000cH
  00015	84 c0		 test	 al, al
  00017	75 0e		 jne	 SHORT $LN2@netSnedGui

; 1465 : 		return Py_BuildException();

  00019	6a 00		 push	 0
  0001b	e8 00 00 00 00	 call	 ?Py_BuildException@@YAPAU_object@@PBDZZ ; Py_BuildException
  00020	83 c4 04	 add	 esp, 4

; 1471 : }

  00023	8b e5		 mov	 esp, ebp
  00025	5d		 pop	 ebp
  00026	c3		 ret	 0
$LN2@netSnedGui:

; 1466 : 
; 1467 : 	CPythonNetworkStream& rns=CPythonNetworkStream::Instance();
; 1468 : 	rns.SendGuildPostCommentPacket(szComment);

  00027	ff 75 fc	 push	 DWORD PTR _szComment$[ebp]
  0002a	8b 0d 00 00 00
	00		 mov	 ecx, DWORD PTR ?ms_singleton@?$CSingleton@VCPythonNetworkStream@@@@0PAVCPythonNetworkStream@@A ; CSingleton<CPythonNetworkStream>::ms_singleton
  00030	e8 00 00 00 00	 call	 ?SendGuildPostCommentPacket@CPythonNetworkStream@@QAE_NPBD@Z ; CPythonNetworkStream::SendGuildPostCommentPacket

; 1469 : 
; 1470 : 	return Py_BuildNone();

  00035	e8 00 00 00 00	 call	 ?Py_BuildNone@@YAPAU_object@@XZ ; Py_BuildNone

; 1471 : }

  0003a	8b e5		 mov	 esp, ebp
  0003c	5d		 pop	 ebp
  0003d	c3		 ret	 0
?netSnedGuildPostCommentPacket@@YAPAU_object@@PAU1@0@Z ENDP ; netSnedGuildPostCommentPacket
_TEXT	ENDS
; Function compile flags: /Ogtp
; File E:\Metin2_server\SolWayneSF v6\ClientVS22\source\UserInterface\PythonNetworkStreamModule.cpp
;	COMDAT ?netSnedGuildDeleteCommentPacket@@YAPAU_object@@PAU1@0@Z
_TEXT	SEGMENT
_iIndex$ = -4						; size = 4
_poSelf$ = 8						; size = 4
_poArgs$ = 12						; size = 4
?netSnedGuildDeleteCommentPacket@@YAPAU_object@@PAU1@0@Z PROC ; netSnedGuildDeleteCommentPacket, COMDAT

; 1474 : {

  00000	55		 push	 ebp
  00001	8b ec		 mov	 ebp, esp
  00003	51		 push	 ecx

; 1475 : 	int iIndex;
; 1476 : 	if (!PyTuple_GetInteger(poArgs, 0, &iIndex))

  00004	8d 45 fc	 lea	 eax, DWORD PTR _iIndex$[ebp]
  00007	50		 push	 eax
  00008	6a 00		 push	 0
  0000a	ff 75 0c	 push	 DWORD PTR _poArgs$[ebp]
  0000d	e8 00 00 00 00	 call	 ?PyTuple_GetInteger@@YA_NPAU_object@@HPAH@Z ; PyTuple_GetInteger
  00012	83 c4 0c	 add	 esp, 12			; 0000000cH
  00015	84 c0		 test	 al, al
  00017	75 0e		 jne	 SHORT $LN2@netSnedGui

; 1477 : 		return Py_BuildException();

  00019	6a 00		 push	 0
  0001b	e8 00 00 00 00	 call	 ?Py_BuildException@@YAPAU_object@@PBDZZ ; Py_BuildException
  00020	83 c4 04	 add	 esp, 4

; 1483 : }

  00023	8b e5		 mov	 esp, ebp
  00025	5d		 pop	 ebp
  00026	c3		 ret	 0
$LN2@netSnedGui:

; 1478 : 
; 1479 : 	CPythonNetworkStream& rns=CPythonNetworkStream::Instance();
; 1480 : 	rns.SendGuildDeleteCommentPacket(iIndex);

  00027	ff 75 fc	 push	 DWORD PTR _iIndex$[ebp]
  0002a	8b 0d 00 00 00
	00		 mov	 ecx, DWORD PTR ?ms_singleton@?$CSingleton@VCPythonNetworkStream@@@@0PAVCPythonNetworkStream@@A ; CSingleton<CPythonNetworkStream>::ms_singleton
  00030	e8 00 00 00 00	 call	 ?SendGuildDeleteCommentPacket@CPythonNetworkStream@@QAE_NK@Z ; CPythonNetworkStream::SendGuildDeleteCommentPacket

; 1481 : 
; 1482 : 	return Py_BuildNone();

  00035	e8 00 00 00 00	 call	 ?Py_BuildNone@@YAPAU_object@@XZ ; Py_BuildNone

; 1483 : }

  0003a	8b e5		 mov	 esp, ebp
  0003c	5d		 pop	 ebp
  0003d	c3		 ret	 0
?netSnedGuildDeleteCommentPacket@@YAPAU_object@@PAU1@0@Z ENDP ; netSnedGuildDeleteCommentPacket
_TEXT	ENDS
; Function compile flags: /Ogtp
; File E:\Metin2_server\SolWayneSF v6\ClientVS22\source\UserInterface\PythonNetworkStreamModule.cpp
;	COMDAT ?netSendGuildRefreshCommentsPacket@@YAPAU_object@@PAU1@0@Z
_TEXT	SEGMENT
_iHightestIndex$ = -4					; size = 4
_poSelf$ = 8						; size = 4
_poArgs$ = 12						; size = 4
?netSendGuildRefreshCommentsPacket@@YAPAU_object@@PAU1@0@Z PROC ; netSendGuildRefreshCommentsPacket, COMDAT

; 1486 : {

  00000	55		 push	 ebp
  00001	8b ec		 mov	 ebp, esp
  00003	51		 push	 ecx

; 1487 : 	int iHightestIndex;
; 1488 : 	if (!PyTuple_GetInteger(poArgs, 0, &iHightestIndex))

  00004	8d 45 fc	 lea	 eax, DWORD PTR _iHightestIndex$[ebp]
  00007	50		 push	 eax
  00008	6a 00		 push	 0
  0000a	ff 75 0c	 push	 DWORD PTR _poArgs$[ebp]
  0000d	e8 00 00 00 00	 call	 ?PyTuple_GetInteger@@YA_NPAU_object@@HPAH@Z ; PyTuple_GetInteger
  00012	83 c4 0c	 add	 esp, 12			; 0000000cH
  00015	84 c0		 test	 al, al
  00017	75 0e		 jne	 SHORT $LN2@netSendGui

; 1489 : 		return Py_BuildException();

  00019	6a 00		 push	 0
  0001b	e8 00 00 00 00	 call	 ?Py_BuildException@@YAPAU_object@@PBDZZ ; Py_BuildException
  00020	83 c4 04	 add	 esp, 4

; 1495 : }

  00023	8b e5		 mov	 esp, ebp
  00025	5d		 pop	 ebp
  00026	c3		 ret	 0
$LN2@netSendGui:

; 1490 : 
; 1491 : 	CPythonNetworkStream& rns=CPythonNetworkStream::Instance();
; 1492 : 	rns.SendGuildRefreshCommentsPacket(iHightestIndex);

  00027	ff 75 fc	 push	 DWORD PTR _iHightestIndex$[ebp]
  0002a	8b 0d 00 00 00
	00		 mov	 ecx, DWORD PTR ?ms_singleton@?$CSingleton@VCPythonNetworkStream@@@@0PAVCPythonNetworkStream@@A ; CSingleton<CPythonNetworkStream>::ms_singleton
  00030	e8 00 00 00 00	 call	 ?SendGuildRefreshCommentsPacket@CPythonNetworkStream@@QAE_NK@Z ; CPythonNetworkStream::SendGuildRefreshCommentsPacket

; 1493 : 
; 1494 : 	return Py_BuildNone();

  00035	e8 00 00 00 00	 call	 ?Py_BuildNone@@YAPAU_object@@XZ ; Py_BuildNone

; 1495 : }

  0003a	8b e5		 mov	 esp, ebp
  0003c	5d		 pop	 ebp
  0003d	c3		 ret	 0
?netSendGuildRefreshCommentsPacket@@YAPAU_object@@PAU1@0@Z ENDP ; netSendGuildRefreshCommentsPacket
_TEXT	ENDS
; Function compile flags: /Ogtp
; File E:\Metin2_server\SolWayneSF v6\ClientVS22\source\UserInterface\PythonNetworkStreamModule.cpp
;	COMDAT ?netSendGuildChangeMemberGradePacket@@YAPAU_object@@PAU1@0@Z
_TEXT	SEGMENT
_iPID$ = -8						; size = 4
_iGradeNumber$ = -4					; size = 4
_poSelf$ = 8						; size = 4
_poArgs$ = 12						; size = 4
?netSendGuildChangeMemberGradePacket@@YAPAU_object@@PAU1@0@Z PROC ; netSendGuildChangeMemberGradePacket, COMDAT

; 1498 : {

  00000	55		 push	 ebp
  00001	8b ec		 mov	 ebp, esp
  00003	83 ec 08	 sub	 esp, 8

; 1499 : 	int iPID;
; 1500 : 	if (!PyTuple_GetInteger(poArgs, 0, &iPID))

  00006	8d 45 f8	 lea	 eax, DWORD PTR _iPID$[ebp]
  00009	50		 push	 eax
  0000a	6a 00		 push	 0
  0000c	ff 75 0c	 push	 DWORD PTR _poArgs$[ebp]
  0000f	e8 00 00 00 00	 call	 ?PyTuple_GetInteger@@YA_NPAU_object@@HPAH@Z ; PyTuple_GetInteger
  00014	83 c4 0c	 add	 esp, 12			; 0000000cH
  00017	84 c0		 test	 al, al
  00019	75 0e		 jne	 SHORT $LN2@netSendGui
$LN5@netSendGui:

; 1510 : }

  0001b	6a 00		 push	 0
  0001d	e8 00 00 00 00	 call	 ?Py_BuildException@@YAPAU_object@@PBDZZ ; Py_BuildException
  00022	83 c4 04	 add	 esp, 4
  00025	8b e5		 mov	 esp, ebp
  00027	5d		 pop	 ebp
  00028	c3		 ret	 0
$LN2@netSendGui:

; 1501 : 		return Py_BuildException();
; 1502 : 	int iGradeNumber;
; 1503 : 	if (!PyTuple_GetInteger(poArgs, 1, &iGradeNumber))

  00029	8d 45 fc	 lea	 eax, DWORD PTR _iGradeNumber$[ebp]
  0002c	50		 push	 eax
  0002d	6a 01		 push	 1
  0002f	ff 75 0c	 push	 DWORD PTR _poArgs$[ebp]
  00032	e8 00 00 00 00	 call	 ?PyTuple_GetInteger@@YA_NPAU_object@@HPAH@Z ; PyTuple_GetInteger
  00037	83 c4 0c	 add	 esp, 12			; 0000000cH
  0003a	84 c0		 test	 al, al
  0003c	74 dd		 je	 SHORT $LN5@netSendGui

; 1504 : 		return Py_BuildException();
; 1505 : 
; 1506 : 	CPythonNetworkStream& rns=CPythonNetworkStream::Instance();
; 1507 : 	rns.SendGuildChangeMemberGradePacket(iPID, iGradeNumber);

  0003e	ff 75 fc	 push	 DWORD PTR _iGradeNumber$[ebp]
  00041	8b 0d 00 00 00
	00		 mov	 ecx, DWORD PTR ?ms_singleton@?$CSingleton@VCPythonNetworkStream@@@@0PAVCPythonNetworkStream@@A ; CSingleton<CPythonNetworkStream>::ms_singleton
  00047	ff 75 f8	 push	 DWORD PTR _iPID$[ebp]
  0004a	e8 00 00 00 00	 call	 ?SendGuildChangeMemberGradePacket@CPythonNetworkStream@@QAE_NKE@Z ; CPythonNetworkStream::SendGuildChangeMemberGradePacket

; 1508 : 
; 1509 : 	return Py_BuildNone();

  0004f	e8 00 00 00 00	 call	 ?Py_BuildNone@@YAPAU_object@@XZ ; Py_BuildNone

; 1510 : }

  00054	8b e5		 mov	 esp, ebp
  00056	5d		 pop	 ebp
  00057	c3		 ret	 0
?netSendGuildChangeMemberGradePacket@@YAPAU_object@@PAU1@0@Z ENDP ; netSendGuildChangeMemberGradePacket
_TEXT	ENDS
; Function compile flags: /Ogtp
; File E:\Metin2_server\SolWayneSF v6\ClientVS22\source\UserInterface\PythonNetworkStreamModule.cpp
;	COMDAT ?netSendGuildUseSkillPacket@@YAPAU_object@@PAU1@0@Z
_TEXT	SEGMENT
_iSkillID$ = -8						; size = 4
_iTargetVID$ = -4					; size = 4
_poSelf$ = 8						; size = 4
_poArgs$ = 12						; size = 4
?netSendGuildUseSkillPacket@@YAPAU_object@@PAU1@0@Z PROC ; netSendGuildUseSkillPacket, COMDAT

; 1513 : {

  00000	55		 push	 ebp
  00001	8b ec		 mov	 ebp, esp
  00003	83 ec 08	 sub	 esp, 8

; 1514 : 	int iSkillID;
; 1515 : 	if (!PyTuple_GetInteger(poArgs, 0, &iSkillID))

  00006	8d 45 f8	 lea	 eax, DWORD PTR _iSkillID$[ebp]
  00009	50		 push	 eax
  0000a	6a 00		 push	 0
  0000c	ff 75 0c	 push	 DWORD PTR _poArgs$[ebp]
  0000f	e8 00 00 00 00	 call	 ?PyTuple_GetInteger@@YA_NPAU_object@@HPAH@Z ; PyTuple_GetInteger
  00014	83 c4 0c	 add	 esp, 12			; 0000000cH
  00017	84 c0		 test	 al, al
  00019	75 0e		 jne	 SHORT $LN2@netSendGui
$LN5@netSendGui:

; 1525 : }

  0001b	6a 00		 push	 0
  0001d	e8 00 00 00 00	 call	 ?Py_BuildException@@YAPAU_object@@PBDZZ ; Py_BuildException
  00022	83 c4 04	 add	 esp, 4
  00025	8b e5		 mov	 esp, ebp
  00027	5d		 pop	 ebp
  00028	c3		 ret	 0
$LN2@netSendGui:

; 1516 : 		return Py_BuildException();
; 1517 : 	int iTargetVID;
; 1518 : 	if (!PyTuple_GetInteger(poArgs, 1, &iTargetVID))

  00029	8d 45 fc	 lea	 eax, DWORD PTR _iTargetVID$[ebp]
  0002c	50		 push	 eax
  0002d	6a 01		 push	 1
  0002f	ff 75 0c	 push	 DWORD PTR _poArgs$[ebp]
  00032	e8 00 00 00 00	 call	 ?PyTuple_GetInteger@@YA_NPAU_object@@HPAH@Z ; PyTuple_GetInteger
  00037	83 c4 0c	 add	 esp, 12			; 0000000cH
  0003a	84 c0		 test	 al, al
  0003c	74 dd		 je	 SHORT $LN5@netSendGui

; 1519 : 		return Py_BuildException();
; 1520 : 
; 1521 : 	CPythonNetworkStream& rns=CPythonNetworkStream::Instance();
; 1522 : 	rns.SendGuildUseSkillPacket(iSkillID, iTargetVID);

  0003e	ff 75 fc	 push	 DWORD PTR _iTargetVID$[ebp]
  00041	8b 0d 00 00 00
	00		 mov	 ecx, DWORD PTR ?ms_singleton@?$CSingleton@VCPythonNetworkStream@@@@0PAVCPythonNetworkStream@@A ; CSingleton<CPythonNetworkStream>::ms_singleton
  00047	ff 75 f8	 push	 DWORD PTR _iSkillID$[ebp]
  0004a	e8 00 00 00 00	 call	 ?SendGuildUseSkillPacket@CPythonNetworkStream@@QAE_NKK@Z ; CPythonNetworkStream::SendGuildUseSkillPacket

; 1523 : 
; 1524 : 	return Py_BuildNone();

  0004f	e8 00 00 00 00	 call	 ?Py_BuildNone@@YAPAU_object@@XZ ; Py_BuildNone

; 1525 : }

  00054	8b e5		 mov	 esp, ebp
  00056	5d		 pop	 ebp
  00057	c3		 ret	 0
?netSendGuildUseSkillPacket@@YAPAU_object@@PAU1@0@Z ENDP ; netSendGuildUseSkillPacket
_TEXT	ENDS
; Function compile flags: /Ogtp
; File E:\Metin2_server\SolWayneSF v6\ClientVS22\source\UserInterface\PythonNetworkStreamModule.cpp
;	COMDAT ?netSendGuildChangeMemberGeneralPacket@@YAPAU_object@@PAU1@0@Z
_TEXT	SEGMENT
_iPID$ = -8						; size = 4
_iFlag$ = -4						; size = 4
_poSelf$ = 8						; size = 4
_poArgs$ = 12						; size = 4
?netSendGuildChangeMemberGeneralPacket@@YAPAU_object@@PAU1@0@Z PROC ; netSendGuildChangeMemberGeneralPacket, COMDAT

; 1528 : {

  00000	55		 push	 ebp
  00001	8b ec		 mov	 ebp, esp
  00003	83 ec 08	 sub	 esp, 8

; 1529 : 	int iPID;
; 1530 : 	if (!PyTuple_GetInteger(poArgs, 0, &iPID))

  00006	8d 45 f8	 lea	 eax, DWORD PTR _iPID$[ebp]
  00009	50		 push	 eax
  0000a	6a 00		 push	 0
  0000c	ff 75 0c	 push	 DWORD PTR _poArgs$[ebp]
  0000f	e8 00 00 00 00	 call	 ?PyTuple_GetInteger@@YA_NPAU_object@@HPAH@Z ; PyTuple_GetInteger
  00014	83 c4 0c	 add	 esp, 12			; 0000000cH
  00017	84 c0		 test	 al, al
  00019	75 0e		 jne	 SHORT $LN2@netSendGui
$LN5@netSendGui:

; 1540 : }

  0001b	6a 00		 push	 0
  0001d	e8 00 00 00 00	 call	 ?Py_BuildException@@YAPAU_object@@PBDZZ ; Py_BuildException
  00022	83 c4 04	 add	 esp, 4
  00025	8b e5		 mov	 esp, ebp
  00027	5d		 pop	 ebp
  00028	c3		 ret	 0
$LN2@netSendGui:

; 1531 : 		return Py_BuildException();
; 1532 : 	int iFlag;
; 1533 : 	if (!PyTuple_GetInteger(poArgs, 1, &iFlag))

  00029	8d 45 fc	 lea	 eax, DWORD PTR _iFlag$[ebp]
  0002c	50		 push	 eax
  0002d	6a 01		 push	 1
  0002f	ff 75 0c	 push	 DWORD PTR _poArgs$[ebp]
  00032	e8 00 00 00 00	 call	 ?PyTuple_GetInteger@@YA_NPAU_object@@HPAH@Z ; PyTuple_GetInteger
  00037	83 c4 0c	 add	 esp, 12			; 0000000cH
  0003a	84 c0		 test	 al, al
  0003c	74 dd		 je	 SHORT $LN5@netSendGui

; 1534 : 		return Py_BuildException();
; 1535 : 
; 1536 : 	CPythonNetworkStream& rns=CPythonNetworkStream::Instance();
; 1537 : 	rns.SendGuildChangeMemberGeneralPacket(iPID, iFlag);

  0003e	ff 75 fc	 push	 DWORD PTR _iFlag$[ebp]
  00041	8b 0d 00 00 00
	00		 mov	 ecx, DWORD PTR ?ms_singleton@?$CSingleton@VCPythonNetworkStream@@@@0PAVCPythonNetworkStream@@A ; CSingleton<CPythonNetworkStream>::ms_singleton
  00047	ff 75 f8	 push	 DWORD PTR _iPID$[ebp]
  0004a	e8 00 00 00 00	 call	 ?SendGuildChangeMemberGeneralPacket@CPythonNetworkStream@@QAE_NKE@Z ; CPythonNetworkStream::SendGuildChangeMemberGeneralPacket

; 1538 : 
; 1539 : 	return Py_BuildNone();

  0004f	e8 00 00 00 00	 call	 ?Py_BuildNone@@YAPAU_object@@XZ ; Py_BuildNone

; 1540 : }

  00054	8b e5		 mov	 esp, ebp
  00056	5d		 pop	 ebp
  00057	c3		 ret	 0
?netSendGuildChangeMemberGeneralPacket@@YAPAU_object@@PAU1@0@Z ENDP ; netSendGuildChangeMemberGeneralPacket
_TEXT	ENDS
; Function compile flags: /Ogtp
; File E:\Metin2_server\SolWayneSF v6\ClientVS22\source\UserInterface\PythonNetworkStreamModule.cpp
;	COMDAT ?netSendGuildInviteAnswerPacket@@YAPAU_object@@PAU1@0@Z
_TEXT	SEGMENT
_iGuildID$ = -8						; size = 4
_iAnswer$ = -4						; size = 4
_poSelf$ = 8						; size = 4
_poArgs$ = 12						; size = 4
?netSendGuildInviteAnswerPacket@@YAPAU_object@@PAU1@0@Z PROC ; netSendGuildInviteAnswerPacket, COMDAT

; 1543 : {

  00000	55		 push	 ebp
  00001	8b ec		 mov	 ebp, esp
  00003	83 ec 08	 sub	 esp, 8

; 1544 : 	int iGuildID;
; 1545 : 	if (!PyTuple_GetInteger(poArgs, 0, &iGuildID))

  00006	8d 45 f8	 lea	 eax, DWORD PTR _iGuildID$[ebp]
  00009	50		 push	 eax
  0000a	6a 00		 push	 0
  0000c	ff 75 0c	 push	 DWORD PTR _poArgs$[ebp]
  0000f	e8 00 00 00 00	 call	 ?PyTuple_GetInteger@@YA_NPAU_object@@HPAH@Z ; PyTuple_GetInteger
  00014	83 c4 0c	 add	 esp, 12			; 0000000cH
  00017	84 c0		 test	 al, al
  00019	75 0e		 jne	 SHORT $LN2@netSendGui
$LN5@netSendGui:

; 1555 : }

  0001b	6a 00		 push	 0
  0001d	e8 00 00 00 00	 call	 ?Py_BuildException@@YAPAU_object@@PBDZZ ; Py_BuildException
  00022	83 c4 04	 add	 esp, 4
  00025	8b e5		 mov	 esp, ebp
  00027	5d		 pop	 ebp
  00028	c3		 ret	 0
$LN2@netSendGui:

; 1546 : 		return Py_BuildException();
; 1547 : 	int iAnswer;
; 1548 : 	if (!PyTuple_GetInteger(poArgs, 1, &iAnswer))

  00029	8d 45 fc	 lea	 eax, DWORD PTR _iAnswer$[ebp]
  0002c	50		 push	 eax
  0002d	6a 01		 push	 1
  0002f	ff 75 0c	 push	 DWORD PTR _poArgs$[ebp]
  00032	e8 00 00 00 00	 call	 ?PyTuple_GetInteger@@YA_NPAU_object@@HPAH@Z ; PyTuple_GetInteger
  00037	83 c4 0c	 add	 esp, 12			; 0000000cH
  0003a	84 c0		 test	 al, al
  0003c	74 dd		 je	 SHORT $LN5@netSendGui

; 1549 : 		return Py_BuildException();
; 1550 : 
; 1551 : 	CPythonNetworkStream& rns=CPythonNetworkStream::Instance();
; 1552 : 	rns.SendGuildInviteAnswerPacket(iGuildID, iAnswer);

  0003e	ff 75 fc	 push	 DWORD PTR _iAnswer$[ebp]
  00041	8b 0d 00 00 00
	00		 mov	 ecx, DWORD PTR ?ms_singleton@?$CSingleton@VCPythonNetworkStream@@@@0PAVCPythonNetworkStream@@A ; CSingleton<CPythonNetworkStream>::ms_singleton
  00047	ff 75 f8	 push	 DWORD PTR _iGuildID$[ebp]
  0004a	e8 00 00 00 00	 call	 ?SendGuildInviteAnswerPacket@CPythonNetworkStream@@QAE_NKE@Z ; CPythonNetworkStream::SendGuildInviteAnswerPacket

; 1553 : 
; 1554 : 	return Py_BuildNone();

  0004f	e8 00 00 00 00	 call	 ?Py_BuildNone@@YAPAU_object@@XZ ; Py_BuildNone

; 1555 : }

  00054	8b e5		 mov	 esp, ebp
  00056	5d		 pop	 ebp
  00057	c3		 ret	 0
?netSendGuildInviteAnswerPacket@@YAPAU_object@@PAU1@0@Z ENDP ; netSendGuildInviteAnswerPacket
_TEXT	ENDS
; Function compile flags: /Ogtp
; File E:\Metin2_server\SolWayneSF v6\ClientVS22\source\UserInterface\PythonNetworkStreamModule.cpp
;	COMDAT ?netSendGuildChargeGSPPacket@@YAPAU_object@@PAU1@0@Z
_TEXT	SEGMENT
_iGSP$ = -4						; size = 4
_poSelf$ = 8						; size = 4
_poArgs$ = 12						; size = 4
?netSendGuildChargeGSPPacket@@YAPAU_object@@PAU1@0@Z PROC ; netSendGuildChargeGSPPacket, COMDAT

; 1558 : {

  00000	55		 push	 ebp
  00001	8b ec		 mov	 ebp, esp
  00003	51		 push	 ecx

; 1559 : 	int iGSP;
; 1560 : 	if (!PyTuple_GetInteger(poArgs, 0, &iGSP))

  00004	8d 45 fc	 lea	 eax, DWORD PTR _iGSP$[ebp]
  00007	50		 push	 eax
  00008	6a 00		 push	 0
  0000a	ff 75 0c	 push	 DWORD PTR _poArgs$[ebp]
  0000d	e8 00 00 00 00	 call	 ?PyTuple_GetInteger@@YA_NPAU_object@@HPAH@Z ; PyTuple_GetInteger
  00012	83 c4 0c	 add	 esp, 12			; 0000000cH
  00015	84 c0		 test	 al, al
  00017	75 0e		 jne	 SHORT $LN2@netSendGui

; 1561 : 		return Py_BuildException();

  00019	6a 00		 push	 0
  0001b	e8 00 00 00 00	 call	 ?Py_BuildException@@YAPAU_object@@PBDZZ ; Py_BuildException
  00020	83 c4 04	 add	 esp, 4

; 1567 : }

  00023	8b e5		 mov	 esp, ebp
  00025	5d		 pop	 ebp
  00026	c3		 ret	 0
$LN2@netSendGui:

; 1562 : 
; 1563 : 	CPythonNetworkStream& rns=CPythonNetworkStream::Instance();
; 1564 : 	rns.SendGuildChargeGSPPacket(iGSP);

  00027	ff 75 fc	 push	 DWORD PTR _iGSP$[ebp]
  0002a	8b 0d 00 00 00
	00		 mov	 ecx, DWORD PTR ?ms_singleton@?$CSingleton@VCPythonNetworkStream@@@@0PAVCPythonNetworkStream@@A ; CSingleton<CPythonNetworkStream>::ms_singleton
  00030	e8 00 00 00 00	 call	 ?SendGuildChargeGSPPacket@CPythonNetworkStream@@QAE_NK@Z ; CPythonNetworkStream::SendGuildChargeGSPPacket

; 1565 : 
; 1566 : 	return Py_BuildNone();

  00035	e8 00 00 00 00	 call	 ?Py_BuildNone@@YAPAU_object@@XZ ; Py_BuildNone

; 1567 : }

  0003a	8b e5		 mov	 esp, ebp
  0003c	5d		 pop	 ebp
  0003d	c3		 ret	 0
?netSendGuildChargeGSPPacket@@YAPAU_object@@PAU1@0@Z ENDP ; netSendGuildChargeGSPPacket
_TEXT	ENDS
; Function compile flags: /Ogtp
; File E:\Metin2_server\SolWayneSF v6\ClientVS22\source\UserInterface\PythonNetworkStreamModule.cpp
;	COMDAT ?netSendGuildDepositMoneyPacket@@YAPAU_object@@PAU1@0@Z
_TEXT	SEGMENT
_iGSP$ = -4						; size = 4
_poSelf$ = 8						; size = 4
_poArgs$ = 12						; size = 4
?netSendGuildDepositMoneyPacket@@YAPAU_object@@PAU1@0@Z PROC ; netSendGuildDepositMoneyPacket, COMDAT

; 1570 : {

  00000	55		 push	 ebp
  00001	8b ec		 mov	 ebp, esp
  00003	51		 push	 ecx

; 1571 : 	int iGSP;
; 1572 : 	if (!PyTuple_GetInteger(poArgs, 0, &iGSP))

  00004	8d 45 fc	 lea	 eax, DWORD PTR _iGSP$[ebp]
  00007	50		 push	 eax
  00008	6a 00		 push	 0
  0000a	ff 75 0c	 push	 DWORD PTR _poArgs$[ebp]
  0000d	e8 00 00 00 00	 call	 ?PyTuple_GetInteger@@YA_NPAU_object@@HPAH@Z ; PyTuple_GetInteger
  00012	83 c4 0c	 add	 esp, 12			; 0000000cH
  00015	84 c0		 test	 al, al
  00017	75 0e		 jne	 SHORT $LN2@netSendGui

; 1573 : 		return Py_BuildException();

  00019	6a 00		 push	 0
  0001b	e8 00 00 00 00	 call	 ?Py_BuildException@@YAPAU_object@@PBDZZ ; Py_BuildException
  00020	83 c4 04	 add	 esp, 4

; 1579 : }

  00023	8b e5		 mov	 esp, ebp
  00025	5d		 pop	 ebp
  00026	c3		 ret	 0
$LN2@netSendGui:

; 1574 : 
; 1575 : 	CPythonNetworkStream& rns=CPythonNetworkStream::Instance();
; 1576 : 	rns.SendGuildDepositMoneyPacket(iGSP);

  00027	ff 75 fc	 push	 DWORD PTR _iGSP$[ebp]
  0002a	8b 0d 00 00 00
	00		 mov	 ecx, DWORD PTR ?ms_singleton@?$CSingleton@VCPythonNetworkStream@@@@0PAVCPythonNetworkStream@@A ; CSingleton<CPythonNetworkStream>::ms_singleton
  00030	e8 00 00 00 00	 call	 ?SendGuildDepositMoneyPacket@CPythonNetworkStream@@QAE_NK@Z ; CPythonNetworkStream::SendGuildDepositMoneyPacket

; 1577 : 
; 1578 : 	return Py_BuildNone();

  00035	e8 00 00 00 00	 call	 ?Py_BuildNone@@YAPAU_object@@XZ ; Py_BuildNone

; 1579 : }

  0003a	8b e5		 mov	 esp, ebp
  0003c	5d		 pop	 ebp
  0003d	c3		 ret	 0
?netSendGuildDepositMoneyPacket@@YAPAU_object@@PAU1@0@Z ENDP ; netSendGuildDepositMoneyPacket
_TEXT	ENDS
; Function compile flags: /Ogtp
; File E:\Metin2_server\SolWayneSF v6\ClientVS22\source\UserInterface\PythonNetworkStreamModule.cpp
;	COMDAT ?netSendGuildWithdrawMoneyPacket@@YAPAU_object@@PAU1@0@Z
_TEXT	SEGMENT
_iGSP$ = -4						; size = 4
_poSelf$ = 8						; size = 4
_poArgs$ = 12						; size = 4
?netSendGuildWithdrawMoneyPacket@@YAPAU_object@@PAU1@0@Z PROC ; netSendGuildWithdrawMoneyPacket, COMDAT

; 1582 : {

  00000	55		 push	 ebp
  00001	8b ec		 mov	 ebp, esp
  00003	51		 push	 ecx

; 1583 : 	int iGSP;
; 1584 : 	if (!PyTuple_GetInteger(poArgs, 0, &iGSP))

  00004	8d 45 fc	 lea	 eax, DWORD PTR _iGSP$[ebp]
  00007	50		 push	 eax
  00008	6a 00		 push	 0
  0000a	ff 75 0c	 push	 DWORD PTR _poArgs$[ebp]
  0000d	e8 00 00 00 00	 call	 ?PyTuple_GetInteger@@YA_NPAU_object@@HPAH@Z ; PyTuple_GetInteger
  00012	83 c4 0c	 add	 esp, 12			; 0000000cH
  00015	84 c0		 test	 al, al
  00017	75 0e		 jne	 SHORT $LN2@netSendGui

; 1585 : 		return Py_BuildException();

  00019	6a 00		 push	 0
  0001b	e8 00 00 00 00	 call	 ?Py_BuildException@@YAPAU_object@@PBDZZ ; Py_BuildException
  00020	83 c4 04	 add	 esp, 4

; 1591 : }

  00023	8b e5		 mov	 esp, ebp
  00025	5d		 pop	 ebp
  00026	c3		 ret	 0
$LN2@netSendGui:

; 1586 : 
; 1587 : 	CPythonNetworkStream& rns=CPythonNetworkStream::Instance();
; 1588 : 	rns.SendGuildWithdrawMoneyPacket(iGSP);

  00027	ff 75 fc	 push	 DWORD PTR _iGSP$[ebp]
  0002a	8b 0d 00 00 00
	00		 mov	 ecx, DWORD PTR ?ms_singleton@?$CSingleton@VCPythonNetworkStream@@@@0PAVCPythonNetworkStream@@A ; CSingleton<CPythonNetworkStream>::ms_singleton
  00030	e8 00 00 00 00	 call	 ?SendGuildWithdrawMoneyPacket@CPythonNetworkStream@@QAE_NK@Z ; CPythonNetworkStream::SendGuildWithdrawMoneyPacket

; 1589 : 
; 1590 : 	return Py_BuildNone();

  00035	e8 00 00 00 00	 call	 ?Py_BuildNone@@YAPAU_object@@XZ ; Py_BuildNone

; 1591 : }

  0003a	8b e5		 mov	 esp, ebp
  0003c	5d		 pop	 ebp
  0003d	c3		 ret	 0
?netSendGuildWithdrawMoneyPacket@@YAPAU_object@@PAU1@0@Z ENDP ; netSendGuildWithdrawMoneyPacket
_TEXT	ENDS
; Function compile flags: /Ogtp
; File E:\Metin2_server\SolWayneSF v6\ClientVS22\source\UserInterface\PythonNetworkStreamModule.cpp
;	COMDAT ?netSendRequestRefineInfoPacket@@YAPAU_object@@PAU1@0@Z
_TEXT	SEGMENT
_iSlotIndex$ = -4					; size = 4
_poSelf$ = 8						; size = 4
_poArgs$ = 12						; size = 4
?netSendRequestRefineInfoPacket@@YAPAU_object@@PAU1@0@Z PROC ; netSendRequestRefineInfoPacket, COMDAT

; 1594 : {

  00000	55		 push	 ebp
  00001	8b ec		 mov	 ebp, esp
  00003	51		 push	 ecx

; 1595 : 	int iSlotIndex;
; 1596 : 	if (!PyTuple_GetInteger(poArgs, 0, &iSlotIndex))

  00004	8d 45 fc	 lea	 eax, DWORD PTR _iSlotIndex$[ebp]
  00007	50		 push	 eax
  00008	6a 00		 push	 0
  0000a	ff 75 0c	 push	 DWORD PTR _poArgs$[ebp]
  0000d	e8 00 00 00 00	 call	 ?PyTuple_GetInteger@@YA_NPAU_object@@HPAH@Z ; PyTuple_GetInteger
  00012	83 c4 0c	 add	 esp, 12			; 0000000cH
  00015	84 c0		 test	 al, al
  00017	75 0e		 jne	 SHORT $LN2@netSendReq

; 1597 : 		return Py_BuildException();

  00019	6a 00		 push	 0
  0001b	e8 00 00 00 00	 call	 ?Py_BuildException@@YAPAU_object@@PBDZZ ; Py_BuildException
  00020	83 c4 04	 add	 esp, 4

; 1604 : }

  00023	8b e5		 mov	 esp, ebp
  00025	5d		 pop	 ebp
  00026	c3		 ret	 0
$LN2@netSendReq:

; 1598 : 
; 1599 : //	CPythonNetworkStream& rns=CPythonNetworkStream::Instance();
; 1600 : //	rns.SendRequestRefineInfoPacket(iSlotIndex);
; 1601 : 	assert(!"netSendRequestRefineInfoPacket -     ");
; 1602 : 
; 1603 : 	return Py_BuildNone();

  00027	e8 00 00 00 00	 call	 ?Py_BuildNone@@YAPAU_object@@XZ ; Py_BuildNone

; 1604 : }

  0002c	8b e5		 mov	 esp, ebp
  0002e	5d		 pop	 ebp
  0002f	c3		 ret	 0
?netSendRequestRefineInfoPacket@@YAPAU_object@@PAU1@0@Z ENDP ; netSendRequestRefineInfoPacket
_TEXT	ENDS
; Function compile flags: /Ogtp
; File E:\Metin2_server\SolWayneSF v6\ClientVS22\source\UserInterface\PythonNetworkStreamModule.cpp
;	COMDAT ?netSendRefinePacket@@YAPAU_object@@PAU1@0@Z
_TEXT	SEGMENT
_iSlotIndex$ = -8					; size = 4
_iType$ = -4						; size = 4
_poSelf$ = 8						; size = 4
_poArgs$ = 12						; size = 4
?netSendRefinePacket@@YAPAU_object@@PAU1@0@Z PROC	; netSendRefinePacket, COMDAT

; 1607 : {

  00000	55		 push	 ebp
  00001	8b ec		 mov	 ebp, esp
  00003	83 ec 08	 sub	 esp, 8

; 1608 : 	int iSlotIndex;
; 1609 : 	if (!PyTuple_GetInteger(poArgs, 0, &iSlotIndex))

  00006	8d 45 f8	 lea	 eax, DWORD PTR _iSlotIndex$[ebp]
  00009	50		 push	 eax
  0000a	6a 00		 push	 0
  0000c	ff 75 0c	 push	 DWORD PTR _poArgs$[ebp]
  0000f	e8 00 00 00 00	 call	 ?PyTuple_GetInteger@@YA_NPAU_object@@HPAH@Z ; PyTuple_GetInteger
  00014	83 c4 0c	 add	 esp, 12			; 0000000cH
  00017	84 c0		 test	 al, al
  00019	75 0e		 jne	 SHORT $LN2@netSendRef
$LN5@netSendRef:

; 1619 : }

  0001b	6a 00		 push	 0
  0001d	e8 00 00 00 00	 call	 ?Py_BuildException@@YAPAU_object@@PBDZZ ; Py_BuildException
  00022	83 c4 04	 add	 esp, 4
  00025	8b e5		 mov	 esp, ebp
  00027	5d		 pop	 ebp
  00028	c3		 ret	 0
$LN2@netSendRef:

; 1610 : 		return Py_BuildException();
; 1611 : 	int iType;
; 1612 : 	if (!PyTuple_GetInteger(poArgs, 1, &iType))

  00029	8d 45 fc	 lea	 eax, DWORD PTR _iType$[ebp]
  0002c	50		 push	 eax
  0002d	6a 01		 push	 1
  0002f	ff 75 0c	 push	 DWORD PTR _poArgs$[ebp]
  00032	e8 00 00 00 00	 call	 ?PyTuple_GetInteger@@YA_NPAU_object@@HPAH@Z ; PyTuple_GetInteger
  00037	83 c4 0c	 add	 esp, 12			; 0000000cH
  0003a	84 c0		 test	 al, al
  0003c	74 dd		 je	 SHORT $LN5@netSendRef

; 1613 : 		return Py_BuildException();
; 1614 : 
; 1615 : 	CPythonNetworkStream& rns=CPythonNetworkStream::Instance();
; 1616 : 	rns.SendRefinePacket(iSlotIndex, iType);

  0003e	ff 75 fc	 push	 DWORD PTR _iType$[ebp]
  00041	8b 0d 00 00 00
	00		 mov	 ecx, DWORD PTR ?ms_singleton@?$CSingleton@VCPythonNetworkStream@@@@0PAVCPythonNetworkStream@@A ; CSingleton<CPythonNetworkStream>::ms_singleton
  00047	ff 75 f8	 push	 DWORD PTR _iSlotIndex$[ebp]
  0004a	e8 00 00 00 00	 call	 ?SendRefinePacket@CPythonNetworkStream@@QAE_NEE@Z ; CPythonNetworkStream::SendRefinePacket

; 1617 : 
; 1618 : 	return Py_BuildNone();

  0004f	e8 00 00 00 00	 call	 ?Py_BuildNone@@YAPAU_object@@XZ ; Py_BuildNone

; 1619 : }

  00054	8b e5		 mov	 esp, ebp
  00056	5d		 pop	 ebp
  00057	c3		 ret	 0
?netSendRefinePacket@@YAPAU_object@@PAU1@0@Z ENDP	; netSendRefinePacket
_TEXT	ENDS
; Function compile flags: /Ogtp
; File E:\Metin2_server\SolWayneSF v6\ClientVS22\source\UserInterface\PythonNetworkStreamModule.cpp
;	COMDAT ?netSendSelectItemPacket@@YAPAU_object@@PAU1@0@Z
_TEXT	SEGMENT
_iItemPos$ = -4						; size = 4
_poSelf$ = 8						; size = 4
_poArgs$ = 12						; size = 4
?netSendSelectItemPacket@@YAPAU_object@@PAU1@0@Z PROC	; netSendSelectItemPacket, COMDAT

; 1622 : {

  00000	55		 push	 ebp
  00001	8b ec		 mov	 ebp, esp
  00003	51		 push	 ecx

; 1623 : 	int iItemPos;
; 1624 : 	if (!PyTuple_GetInteger(poArgs, 0, &iItemPos))

  00004	8d 45 fc	 lea	 eax, DWORD PTR _iItemPos$[ebp]
  00007	50		 push	 eax
  00008	6a 00		 push	 0
  0000a	ff 75 0c	 push	 DWORD PTR _poArgs$[ebp]
  0000d	e8 00 00 00 00	 call	 ?PyTuple_GetInteger@@YA_NPAU_object@@HPAH@Z ; PyTuple_GetInteger
  00012	83 c4 0c	 add	 esp, 12			; 0000000cH
  00015	84 c0		 test	 al, al
  00017	75 0e		 jne	 SHORT $LN2@netSendSel

; 1625 : 		return Py_BuildException();

  00019	6a 00		 push	 0
  0001b	e8 00 00 00 00	 call	 ?Py_BuildException@@YAPAU_object@@PBDZZ ; Py_BuildException
  00020	83 c4 04	 add	 esp, 4

; 1631 : }

  00023	8b e5		 mov	 esp, ebp
  00025	5d		 pop	 ebp
  00026	c3		 ret	 0
$LN2@netSendSel:

; 1626 : 
; 1627 : 	CPythonNetworkStream& rns=CPythonNetworkStream::Instance();
; 1628 : 	rns.SendSelectItemPacket(iItemPos);

  00027	ff 75 fc	 push	 DWORD PTR _iItemPos$[ebp]
  0002a	8b 0d 00 00 00
	00		 mov	 ecx, DWORD PTR ?ms_singleton@?$CSingleton@VCPythonNetworkStream@@@@0PAVCPythonNetworkStream@@A ; CSingleton<CPythonNetworkStream>::ms_singleton
  00030	e8 00 00 00 00	 call	 ?SendSelectItemPacket@CPythonNetworkStream@@QAE_NK@Z ; CPythonNetworkStream::SendSelectItemPacket

; 1629 : 
; 1630 : 	return Py_BuildNone();

  00035	e8 00 00 00 00	 call	 ?Py_BuildNone@@YAPAU_object@@XZ ; Py_BuildNone

; 1631 : }

  0003a	8b e5		 mov	 esp, ebp
  0003c	5d		 pop	 ebp
  0003d	c3		 ret	 0
?netSendSelectItemPacket@@YAPAU_object@@PAU1@0@Z ENDP	; netSendSelectItemPacket
_TEXT	ENDS
; Function compile flags: /Ogtp
; File E:\Metin2_server\SolWayneSF v6\ClientVS22\source\UserInterface\PythonNetworkStreamModule.cpp
;	COMDAT ?netSetPacketSequenceMode@@YAPAU_object@@PAU1@0@Z
_TEXT	SEGMENT
_poSelf$ = 8						; size = 4
_poArgs$ = 12						; size = 4
?netSetPacketSequenceMode@@YAPAU_object@@PAU1@0@Z PROC	; netSetPacketSequenceMode, COMDAT

; 1635 : 	CPythonNetworkStream& rns=CPythonNetworkStream::Instance();
; 1636 : 	CAccountConnector & rkAccountConnector = CAccountConnector::Instance();
; 1637 : 	rns.SetPacketSequenceMode(true);

  00000	8b 0d 00 00 00
	00		 mov	 ecx, DWORD PTR ?ms_singleton@?$CSingleton@VCPythonNetworkStream@@@@0PAVCPythonNetworkStream@@A ; CSingleton<CPythonNetworkStream>::ms_singleton
  00006	56		 push	 esi
  00007	8b 35 00 00 00
	00		 mov	 esi, DWORD PTR ?ms_singleton@?$CSingleton@VCAccountConnector@@@@0PAVCAccountConnector@@A ; CSingleton<CAccountConnector>::ms_singleton
  0000d	6a 01		 push	 1
  0000f	e8 00 00 00 00	 call	 ?SetPacketSequenceMode@CNetworkStream@@QAEX_N@Z ; CNetworkStream::SetPacketSequenceMode

; 1638 : 	rkAccountConnector.SetPacketSequenceMode(true);

  00014	6a 01		 push	 1
  00016	8b ce		 mov	 ecx, esi
  00018	e8 00 00 00 00	 call	 ?SetPacketSequenceMode@CNetworkStream@@QAEX_N@Z ; CNetworkStream::SetPacketSequenceMode

; 1639 : 
; 1640 : 	return Py_BuildNone();

  0001d	5e		 pop	 esi
  0001e	e9 00 00 00 00	 jmp	 ?Py_BuildNone@@YAPAU_object@@XZ ; Py_BuildNone
?netSetPacketSequenceMode@@YAPAU_object@@PAU1@0@Z ENDP	; netSetPacketSequenceMode
_TEXT	ENDS
; Function compile flags: /Ogtp
; File E:\Metin2_server\SolWayneSF v6\ClientVS22\source\UserInterface\PythonNetworkStreamModule.cpp
;	COMDAT ?netSetEmpireLanguageMode@@YAPAU_object@@PAU1@0@Z
_TEXT	SEGMENT
_iMode$ = -4						; size = 4
_poSelf$ = 8						; size = 4
_poArgs$ = 12						; size = 4
?netSetEmpireLanguageMode@@YAPAU_object@@PAU1@0@Z PROC	; netSetEmpireLanguageMode, COMDAT

; 1644 : {

  00000	55		 push	 ebp
  00001	8b ec		 mov	 ebp, esp
  00003	51		 push	 ecx

; 1645 : 	int iMode;
; 1646 : 	if (!PyTuple_GetInteger(poArgs, 0, &iMode))

  00004	8d 45 fc	 lea	 eax, DWORD PTR _iMode$[ebp]
  00007	50		 push	 eax
  00008	6a 00		 push	 0
  0000a	ff 75 0c	 push	 DWORD PTR _poArgs$[ebp]
  0000d	e8 00 00 00 00	 call	 ?PyTuple_GetInteger@@YA_NPAU_object@@HPAH@Z ; PyTuple_GetInteger
  00012	83 c4 0c	 add	 esp, 12			; 0000000cH
  00015	84 c0		 test	 al, al
  00017	75 0e		 jne	 SHORT $LN2@netSetEmpi

; 1647 : 		return Py_BuildException();

  00019	6a 00		 push	 0
  0001b	e8 00 00 00 00	 call	 ?Py_BuildException@@YAPAU_object@@PBDZZ ; Py_BuildException
  00020	83 c4 04	 add	 esp, 4

; 1653 : }

  00023	8b e5		 mov	 esp, ebp
  00025	5d		 pop	 ebp
  00026	c3		 ret	 0
$LN2@netSetEmpi:

; 1648 : 
; 1649 : 	//CPythonNetworkStream& rns=CPythonNetworkStream::Instance();
; 1650 : 	gs_bEmpireLanuageEnable = iMode;

  00027	8b 45 fc	 mov	 eax, DWORD PTR _iMode$[ebp]
  0002a	a3 00 00 00 00	 mov	 DWORD PTR ?gs_bEmpireLanuageEnable@@3HA, eax ; gs_bEmpireLanuageEnable

; 1651 : 
; 1652 : 	return Py_BuildNone();

  0002f	e8 00 00 00 00	 call	 ?Py_BuildNone@@YAPAU_object@@XZ ; Py_BuildNone

; 1653 : }

  00034	8b e5		 mov	 esp, ebp
  00036	5d		 pop	 ebp
  00037	c3		 ret	 0
?netSetEmpireLanguageMode@@YAPAU_object@@PAU1@0@Z ENDP	; netSetEmpireLanguageMode
_TEXT	ENDS
; Function compile flags: /Ogtp
; File E:\Metin2_server\SolWayneSF v6\ClientVS22\source\UserInterface\PythonNetworkStreamModule.cpp
;	COMDAT ?netSetSkillGroupFake@@YAPAU_object@@PAU1@0@Z
_TEXT	SEGMENT
_iIndex$ = -4						; size = 4
_poSelf$ = 8						; size = 4
_poArgs$ = 12						; size = 4
?netSetSkillGroupFake@@YAPAU_object@@PAU1@0@Z PROC	; netSetSkillGroupFake, COMDAT

; 1656 : {

  00000	55		 push	 ebp
  00001	8b ec		 mov	 ebp, esp
  00003	51		 push	 ecx

; 1657 : 	int iIndex;
; 1658 : 	if (!PyTuple_GetInteger(poArgs, 0, &iIndex))

  00004	8d 45 fc	 lea	 eax, DWORD PTR _iIndex$[ebp]
  00007	50		 push	 eax
  00008	6a 00		 push	 0
  0000a	ff 75 0c	 push	 DWORD PTR _poArgs$[ebp]
  0000d	e8 00 00 00 00	 call	 ?PyTuple_GetInteger@@YA_NPAU_object@@HPAH@Z ; PyTuple_GetInteger
  00012	83 c4 0c	 add	 esp, 12			; 0000000cH
  00015	84 c0		 test	 al, al
  00017	75 0e		 jne	 SHORT $LN2@netSetSkil

; 1659 : 		return Py_BuildException();

  00019	6a 00		 push	 0
  0001b	e8 00 00 00 00	 call	 ?Py_BuildException@@YAPAU_object@@PBDZZ ; Py_BuildException
  00020	83 c4 04	 add	 esp, 4

; 1665 : }

  00023	8b e5		 mov	 esp, ebp
  00025	5d		 pop	 ebp
  00026	c3		 ret	 0
$LN2@netSetSkil:

; 1660 : 
; 1661 : 	CPythonNetworkStream& rns=CPythonNetworkStream::Instance();
; 1662 : 	rns.__TEST_SetSkillGroupFake(iIndex);

  00027	ff 75 fc	 push	 DWORD PTR _iIndex$[ebp]
  0002a	8b 0d 00 00 00
	00		 mov	 ecx, DWORD PTR ?ms_singleton@?$CSingleton@VCPythonNetworkStream@@@@0PAVCPythonNetworkStream@@A ; CSingleton<CPythonNetworkStream>::ms_singleton
  00030	e8 00 00 00 00	 call	 ?__TEST_SetSkillGroupFake@CPythonNetworkStream@@QAEXH@Z ; CPythonNetworkStream::__TEST_SetSkillGroupFake

; 1663 : 
; 1664 : 	return Py_BuildNone();

  00035	e8 00 00 00 00	 call	 ?Py_BuildNone@@YAPAU_object@@XZ ; Py_BuildNone

; 1665 : }

  0003a	8b e5		 mov	 esp, ebp
  0003c	5d		 pop	 ebp
  0003d	c3		 ret	 0
?netSetSkillGroupFake@@YAPAU_object@@PAU1@0@Z ENDP	; netSetSkillGroupFake
_TEXT	ENDS
; Function compile flags: /Ogtp
; File E:\Metin2_server\SolWayneSF v6\ClientVS22\source\UserInterface\PythonNetworkStreamModule.cpp
;	COMDAT ?netSendGuildSymbol@@YAPAU_object@@PAU1@0@Z
_TEXT	SEGMENT
_uiError$ = -52						; size = 4
_iGuildID$ = -48					; size = 4
_szFileName$ = -44					; size = 4
_szIP$ = -40						; size = 4
_iPort$ = -36						; size = 4
_kAddress$ = -32					; size = 16
__$ArrayPad$ = -16					; size = 4
__$EHRec$ = -12						; size = 12
_poSelf$ = 8						; size = 4
_poArgs$ = 12						; size = 4
?netSendGuildSymbol@@YAPAU_object@@PAU1@0@Z PROC	; netSendGuildSymbol, COMDAT

; 1671 : {

  00000	55		 push	 ebp
  00001	8b ec		 mov	 ebp, esp
  00003	6a ff		 push	 -1
  00005	68 00 00 00 00	 push	 __ehhandler$?netSendGuildSymbol@@YAPAU_object@@PAU1@0@Z
  0000a	64 a1 00 00 00
	00		 mov	 eax, DWORD PTR fs:0
  00010	50		 push	 eax
  00011	83 ec 28	 sub	 esp, 40			; 00000028H
  00014	a1 00 00 00 00	 mov	 eax, DWORD PTR ___security_cookie
  00019	33 c5		 xor	 eax, ebp
  0001b	89 45 f0	 mov	 DWORD PTR __$ArrayPad$[ebp], eax
  0001e	56		 push	 esi
  0001f	50		 push	 eax
  00020	8d 45 f4	 lea	 eax, DWORD PTR __$EHRec$[ebp]
  00023	64 a3 00 00 00
	00		 mov	 DWORD PTR fs:0, eax
  00029	8b 75 0c	 mov	 esi, DWORD PTR _poArgs$[ebp]

; 1672 : 	char * szIP;
; 1673 : 	if (!PyTuple_GetString(poArgs, 0, &szIP))

  0002c	8d 45 d8	 lea	 eax, DWORD PTR _szIP$[ebp]
  0002f	50		 push	 eax
  00030	6a 00		 push	 0
  00032	56		 push	 esi
  00033	e8 00 00 00 00	 call	 ?PyTuple_GetString@@YA_NPAU_object@@HPAPAD@Z ; PyTuple_GetString
  00038	83 c4 0c	 add	 esp, 12			; 0000000cH
  0003b	84 c0		 test	 al, al
  0003d	75 0f		 jne	 SHORT $LN2@netSendGui
$LN10@netSendGui:

; 1697 : }

  0003f	6a 00		 push	 0
  00041	e8 00 00 00 00	 call	 ?Py_BuildException@@YAPAU_object@@PBDZZ ; Py_BuildException
  00046	83 c4 04	 add	 esp, 4
  00049	e9 84 00 00 00	 jmp	 $LN1@netSendGui
$LN2@netSendGui:

; 1674 : 		return Py_BuildException();
; 1675 : 	int iPort;
; 1676 : 	if (!PyTuple_GetInteger(poArgs, 1, &iPort))

  0004e	8d 45 dc	 lea	 eax, DWORD PTR _iPort$[ebp]
  00051	50		 push	 eax
  00052	6a 01		 push	 1
  00054	56		 push	 esi
  00055	e8 00 00 00 00	 call	 ?PyTuple_GetInteger@@YA_NPAU_object@@HPAH@Z ; PyTuple_GetInteger
  0005a	83 c4 0c	 add	 esp, 12			; 0000000cH
  0005d	84 c0		 test	 al, al
  0005f	74 de		 je	 SHORT $LN10@netSendGui

; 1677 : 		return Py_BuildException();
; 1678 : 	char * szFileName;
; 1679 : 	if (!PyTuple_GetString(poArgs, 2, &szFileName))

  00061	8d 45 d4	 lea	 eax, DWORD PTR _szFileName$[ebp]
  00064	50		 push	 eax
  00065	6a 02		 push	 2
  00067	56		 push	 esi
  00068	e8 00 00 00 00	 call	 ?PyTuple_GetString@@YA_NPAU_object@@HPAPAD@Z ; PyTuple_GetString
  0006d	83 c4 0c	 add	 esp, 12			; 0000000cH
  00070	84 c0		 test	 al, al
  00072	74 cb		 je	 SHORT $LN10@netSendGui

; 1680 : 		return Py_BuildException();
; 1681 : 	int iGuildID;
; 1682 : 	if (!PyTuple_GetInteger(poArgs, 3, &iGuildID))

  00074	8d 45 d0	 lea	 eax, DWORD PTR _iGuildID$[ebp]
  00077	50		 push	 eax
  00078	6a 03		 push	 3
  0007a	56		 push	 esi
  0007b	e8 00 00 00 00	 call	 ?PyTuple_GetInteger@@YA_NPAU_object@@HPAH@Z ; PyTuple_GetInteger
  00080	83 c4 0c	 add	 esp, 12			; 0000000cH
  00083	84 c0		 test	 al, al
  00085	74 b8		 je	 SHORT $LN10@netSendGui

; 1683 : 		return Py_BuildException();
; 1684 : 
; 1685 : 	CNetworkAddress kAddress;

  00087	8d 4d e0	 lea	 ecx, DWORD PTR _kAddress$[ebp]
  0008a	e8 00 00 00 00	 call	 ??0CNetworkAddress@@QAE@XZ ; CNetworkAddress::CNetworkAddress
  0008f	c7 45 fc 00 00
	00 00		 mov	 DWORD PTR __$EHRec$[ebp+8], 0

; 1686 : 	kAddress.Set(szIP, iPort);

  00096	8d 4d e0	 lea	 ecx, DWORD PTR _kAddress$[ebp]
  00099	ff 75 dc	 push	 DWORD PTR _iPort$[ebp]
  0009c	ff 75 d8	 push	 DWORD PTR _szIP$[ebp]
  0009f	e8 00 00 00 00	 call	 ?Set@CNetworkAddress@@QAE_NPBDH@Z ; CNetworkAddress::Set

; 1687 : 
; 1688 : 	UINT uiError;
; 1689 : 
; 1690 : 	CGuildMarkUploader& rkGuildMarkUploader=CGuildMarkUploader::Instance();
; 1691 : 	if (!rkGuildMarkUploader.ConnectToSendSymbol(kAddress, 0, 0, iGuildID, szFileName, &uiError))

  000a4	8b 0d 00 00 00
	00		 mov	 ecx, DWORD PTR ?ms_singleton@?$CSingleton@VCGuildMarkUploader@@@@0PAVCGuildMarkUploader@@A ; CSingleton<CGuildMarkUploader>::ms_singleton
  000aa	8d 45 cc	 lea	 eax, DWORD PTR _uiError$[ebp]
  000ad	50		 push	 eax
  000ae	ff 75 d4	 push	 DWORD PTR _szFileName$[ebp]
  000b1	8d 45 e0	 lea	 eax, DWORD PTR _kAddress$[ebp]
  000b4	ff 75 d0	 push	 DWORD PTR _iGuildID$[ebp]
  000b7	6a 00		 push	 0
  000b9	6a 00		 push	 0
  000bb	50		 push	 eax
  000bc	e8 00 00 00 00	 call	 ?ConnectToSendSymbol@CGuildMarkUploader@@QAE_NABVCNetworkAddress@@KKKPBDPAI@Z ; CGuildMarkUploader::ConnectToSendSymbol

; 1692 : 	{
; 1693 : 		assert(!"Failed connecting to send symbol");
; 1694 : 	}
; 1695 : 
; 1696 : 	return Py_BuildNone();

  000c1	e8 00 00 00 00	 call	 ?Py_BuildNone@@YAPAU_object@@XZ ; Py_BuildNone
  000c6	8d 4d e0	 lea	 ecx, DWORD PTR _kAddress$[ebp]
  000c9	8b f0		 mov	 esi, eax
  000cb	e8 00 00 00 00	 call	 ??1CNetworkAddress@@QAE@XZ ; CNetworkAddress::~CNetworkAddress
  000d0	8b c6		 mov	 eax, esi
$LN1@netSendGui:

; 1697 : }

  000d2	8b 4d f4	 mov	 ecx, DWORD PTR __$EHRec$[ebp]
  000d5	64 89 0d 00 00
	00 00		 mov	 DWORD PTR fs:0, ecx
  000dc	59		 pop	 ecx
  000dd	5e		 pop	 esi
  000de	8b 4d f0	 mov	 ecx, DWORD PTR __$ArrayPad$[ebp]
  000e1	33 cd		 xor	 ecx, ebp
  000e3	e8 00 00 00 00	 call	 @__security_check_cookie@4
  000e8	8b e5		 mov	 esp, ebp
  000ea	5d		 pop	 ebp
  000eb	c3		 ret	 0
_TEXT	ENDS
;	COMDAT text$x
text$x	SEGMENT
__unwindfunclet$?netSendGuildSymbol@@YAPAU_object@@PAU1@0@Z$0:
  00000	8d 4d e0	 lea	 ecx, DWORD PTR _kAddress$[ebp]
  00003	e9 00 00 00 00	 jmp	 ??1CNetworkAddress@@QAE@XZ ; CNetworkAddress::~CNetworkAddress
  00008	cc		 int	 3
  00009	cc		 int	 3
  0000a	cc		 int	 3
  0000b	cc		 int	 3
  0000c	cc		 int	 3
__ehhandler$?netSendGuildSymbol@@YAPAU_object@@PAU1@0@Z:
  0000d	90		 npad	 1
  0000e	90		 npad	 1
  0000f	8b 54 24 08	 mov	 edx, DWORD PTR [esp+8]
  00013	8d 42 0c	 lea	 eax, DWORD PTR [edx+12]
  00016	8b 4a d0	 mov	 ecx, DWORD PTR [edx-48]
  00019	33 c8		 xor	 ecx, eax
  0001b	e8 00 00 00 00	 call	 @__security_check_cookie@4
  00020	8b 4a fc	 mov	 ecx, DWORD PTR [edx-4]
  00023	33 c8		 xor	 ecx, eax
  00025	e8 00 00 00 00	 call	 @__security_check_cookie@4
  0002a	b8 00 00 00 00	 mov	 eax, OFFSET __ehfuncinfo$?netSendGuildSymbol@@YAPAU_object@@PAU1@0@Z
  0002f	e9 00 00 00 00	 jmp	 ___CxxFrameHandler3
text$x	ENDS
?netSendGuildSymbol@@YAPAU_object@@PAU1@0@Z ENDP	; netSendGuildSymbol
; Function compile flags: /Ogtp
; File E:\Metin2_server\SolWayneSF v6\ClientVS22\source\UserInterface\PythonNetworkStreamModule.cpp
;	COMDAT ?netDisconnectUploader@@YAPAU_object@@PAU1@0@Z
_TEXT	SEGMENT
_poSelf$ = 8						; size = 4
_poArgs$ = 12						; size = 4
?netDisconnectUploader@@YAPAU_object@@PAU1@0@Z PROC	; netDisconnectUploader, COMDAT

; 1701 : 	CGuildMarkUploader& rkGuildMarkUploader=CGuildMarkUploader::Instance();
; 1702 : 	rkGuildMarkUploader.Disconnect();

  00000	8b 0d 00 00 00
	00		 mov	 ecx, DWORD PTR ?ms_singleton@?$CSingleton@VCGuildMarkUploader@@@@0PAVCGuildMarkUploader@@A ; CSingleton<CGuildMarkUploader>::ms_singleton
  00006	e8 00 00 00 00	 call	 ?Disconnect@CGuildMarkUploader@@QAEXXZ ; CGuildMarkUploader::Disconnect

; 1703 : 	return Py_BuildNone();

  0000b	e9 00 00 00 00	 jmp	 ?Py_BuildNone@@YAPAU_object@@XZ ; Py_BuildNone
?netDisconnectUploader@@YAPAU_object@@PAU1@0@Z ENDP	; netDisconnectUploader
_TEXT	ENDS
; Function compile flags: /Ogtp
; File E:\Metin2_server\SolWayneSF v6\ClientVS22\source\UserInterface\PythonNetworkStreamModule.cpp
; File C:\Program Files\Microsoft Visual Studio\2022\Community\VC\Tools\MSVC\14.34.31933\include\vector
; File E:\Metin2_server\SolWayneSF v6\ClientVS22\source\UserInterface\PythonNetworkStreamModule.cpp
; File C:\Program Files\Microsoft Visual Studio\2022\Community\VC\Tools\MSVC\14.34.31933\include\vector
; File E:\Metin2_server\SolWayneSF v6\ClientVS22\source\UserInterface\PythonNetworkStreamModule.cpp
; File C:\Program Files\Microsoft Visual Studio\2022\Community\VC\Tools\MSVC\14.34.31933\include\vector
; File E:\Metin2_server\SolWayneSF v6\ClientVS22\source\UserInterface\PythonNetworkStreamModule.cpp
; File C:\Program Files\Microsoft Visual Studio\2022\Community\VC\Tools\MSVC\14.34.31933\include\vector
; File E:\Metin2_server\SolWayneSF v6\ClientVS22\source\UserInterface\PythonNetworkStreamModule.cpp
; File C:\Program Files\Microsoft Visual Studio\2022\Community\VC\Tools\MSVC\14.34.31933\include\vector
; File C:\Program Files\Microsoft Visual Studio\2022\Community\VC\Tools\MSVC\14.34.31933\include\xmemory
; File C:\Program Files\Microsoft Visual Studio\2022\Community\VC\Tools\MSVC\14.34.31933\include\vector
; File C:\Program Files\Microsoft Visual Studio\2022\Community\VC\Tools\MSVC\14.34.31933\include\xmemory
; File E:\Metin2_server\SolWayneSF v6\ClientVS22\source\UserInterface\PythonNetworkStreamModule.cpp
; File C:\Program Files\Microsoft Visual Studio\2022\Community\VC\Tools\MSVC\14.34.31933\include\xmemory
; File E:\Metin2_server\SolWayneSF v6\ClientVS22\source\UserInterface\PythonNetworkStreamModule.cpp
;	COMDAT ?netRecvGuildSymbol@@YAPAU_object@@PAU1@0@Z
_TEXT	SEGMENT
$T2 = -60						; size = 4
_iGuildID$ = -56					; size = 4
_szIP$ = -52						; size = 4
_iPort$ = -48						; size = 4
_kVec_dwGuildID$ = -44					; size = 12
_kAddress$ = -32					; size = 16
__$ArrayPad$ = -16					; size = 4
__$EHRec$ = -12						; size = 12
_poSelf$ = 8						; size = 4
_poArgs$ = 12						; size = 4
?netRecvGuildSymbol@@YAPAU_object@@PAU1@0@Z PROC	; netRecvGuildSymbol, COMDAT

; 1707 : {

  00000	55		 push	 ebp
  00001	8b ec		 mov	 ebp, esp
  00003	6a ff		 push	 -1
  00005	68 00 00 00 00	 push	 __ehhandler$?netRecvGuildSymbol@@YAPAU_object@@PAU1@0@Z
  0000a	64 a1 00 00 00
	00		 mov	 eax, DWORD PTR fs:0
  00010	50		 push	 eax
  00011	83 ec 30	 sub	 esp, 48			; 00000030H
  00014	a1 00 00 00 00	 mov	 eax, DWORD PTR ___security_cookie
  00019	33 c5		 xor	 eax, ebp
  0001b	89 45 f0	 mov	 DWORD PTR __$ArrayPad$[ebp], eax
  0001e	56		 push	 esi
  0001f	50		 push	 eax
  00020	8d 45 f4	 lea	 eax, DWORD PTR __$EHRec$[ebp]
  00023	64 a3 00 00 00
	00		 mov	 DWORD PTR fs:0, eax
  00029	8b 75 0c	 mov	 esi, DWORD PTR _poArgs$[ebp]

; 1708 : 	char * szIP;
; 1709 : 	if (!PyTuple_GetString(poArgs, 0, &szIP))

  0002c	8d 45 cc	 lea	 eax, DWORD PTR _szIP$[ebp]
  0002f	50		 push	 eax
  00030	6a 00		 push	 0
  00032	56		 push	 esi
  00033	e8 00 00 00 00	 call	 ?PyTuple_GetString@@YA_NPAU_object@@HPAPAD@Z ; PyTuple_GetString
  00038	83 c4 0c	 add	 esp, 12			; 0000000cH
  0003b	84 c0		 test	 al, al
  0003d	75 0f		 jne	 SHORT $LN2@netRecvGui
$LN54@netRecvGui:

; 1732 : }

  0003f	6a 00		 push	 0
  00041	e8 00 00 00 00	 call	 ?Py_BuildException@@YAPAU_object@@PBDZZ ; Py_BuildException
  00046	83 c4 04	 add	 esp, 4
  00049	e9 cb 00 00 00	 jmp	 $LN1@netRecvGui
$LN2@netRecvGui:

; 1710 : 		return Py_BuildException();
; 1711 : 	int iPort;
; 1712 : 	if (!PyTuple_GetInteger(poArgs, 1, &iPort))

  0004e	8d 45 d0	 lea	 eax, DWORD PTR _iPort$[ebp]
  00051	50		 push	 eax
  00052	6a 01		 push	 1
  00054	56		 push	 esi
  00055	e8 00 00 00 00	 call	 ?PyTuple_GetInteger@@YA_NPAU_object@@HPAH@Z ; PyTuple_GetInteger
  0005a	83 c4 0c	 add	 esp, 12			; 0000000cH
  0005d	84 c0		 test	 al, al
  0005f	74 de		 je	 SHORT $LN54@netRecvGui

; 1713 : 		return Py_BuildException();
; 1714 : 	int iGuildID;
; 1715 : 	if (!PyTuple_GetInteger(poArgs, 2, &iGuildID))

  00061	8d 45 c8	 lea	 eax, DWORD PTR _iGuildID$[ebp]
  00064	50		 push	 eax
  00065	6a 02		 push	 2
  00067	56		 push	 esi
  00068	e8 00 00 00 00	 call	 ?PyTuple_GetInteger@@YA_NPAU_object@@HPAH@Z ; PyTuple_GetInteger
  0006d	83 c4 0c	 add	 esp, 12			; 0000000cH
  00070	84 c0		 test	 al, al
  00072	74 cb		 je	 SHORT $LN54@netRecvGui

; 1716 : 		return Py_BuildException();
; 1717 : 
; 1718 : 	CNetworkAddress kAddress;

  00074	8d 4d e0	 lea	 ecx, DWORD PTR _kAddress$[ebp]
  00077	e8 00 00 00 00	 call	 ??0CNetworkAddress@@QAE@XZ ; CNetworkAddress::CNetworkAddress
  0007c	c7 45 fc 00 00
	00 00		 mov	 DWORD PTR __$EHRec$[ebp+8], 0

; 1719 : 	kAddress.Set(szIP, iPort);

  00083	8d 4d e0	 lea	 ecx, DWORD PTR _kAddress$[ebp]
  00086	ff 75 d0	 push	 DWORD PTR _iPort$[ebp]
  00089	ff 75 cc	 push	 DWORD PTR _szIP$[ebp]
  0008c	e8 00 00 00 00	 call	 ?Set@CNetworkAddress@@QAE_NPBDH@Z ; CNetworkAddress::Set
; File C:\Program Files\Microsoft Visual Studio\2022\Community\VC\Tools\MSVC\14.34.31933\include\vector

; 390  :     _CONSTEXPR20 _Vector_val() noexcept : _Myfirst(), _Mylast(), _Myend() {}

  00091	c7 45 d4 00 00
	00 00		 mov	 DWORD PTR _kVec_dwGuildID$[ebp], 0
  00098	c7 45 d8 00 00
	00 00		 mov	 DWORD PTR _kVec_dwGuildID$[ebp+4], 0
  0009f	c7 45 dc 00 00
	00 00		 mov	 DWORD PTR _kVec_dwGuildID$[ebp+8], 0
; File E:\Metin2_server\SolWayneSF v6\ClientVS22\source\UserInterface\PythonNetworkStreamModule.cpp

; 1721 : 	std::vector<DWORD> kVec_dwGuildID;

  000a6	c6 45 fc 01	 mov	 BYTE PTR __$EHRec$[ebp+8], 1
; File C:\Program Files\Microsoft Visual Studio\2022\Community\VC\Tools\MSVC\14.34.31933\include\vector

; 848  :         return *_Emplace_reallocate(_Mylast, _STD forward<_Valty>(_Val)...);

  000aa	8d 4d d4	 lea	 ecx, DWORD PTR _kVec_dwGuildID$[ebp]
; File E:\Metin2_server\SolWayneSF v6\ClientVS22\source\UserInterface\PythonNetworkStreamModule.cpp

; 1723 : 	kVec_dwGuildID.push_back(iGuildID);

  000ad	8b 45 c8	 mov	 eax, DWORD PTR _iGuildID$[ebp]
  000b0	89 45 c4	 mov	 DWORD PTR $T2[ebp], eax
; File C:\Program Files\Microsoft Visual Studio\2022\Community\VC\Tools\MSVC\14.34.31933\include\vector

; 848  :         return *_Emplace_reallocate(_Mylast, _STD forward<_Valty>(_Val)...);

  000b3	8d 45 c4	 lea	 eax, DWORD PTR $T2[ebp]
  000b6	50		 push	 eax
  000b7	6a 00		 push	 0
  000b9	e8 00 00 00 00	 call	 ??$_Emplace_reallocate@K@?$vector@KV?$allocator@K@std@@@std@@AAEPAKQAK$$QAK@Z ; std::vector<unsigned long,std::allocator<unsigned long> >::_Emplace_reallocate<unsigned long>
; File E:\Metin2_server\SolWayneSF v6\ClientVS22\source\UserInterface\PythonNetworkStreamModule.cpp

; 1726 : 	if (!rkGuildMarkDownloader.ConnectToRecvSymbol(kAddress, 0, 0, kVec_dwGuildID))

  000be	8b 0d 00 00 00
	00		 mov	 ecx, DWORD PTR ?ms_singleton@?$CSingleton@VCGuildMarkDownloader@@@@0PAVCGuildMarkDownloader@@A ; CSingleton<CGuildMarkDownloader>::ms_singleton
  000c4	8d 45 d4	 lea	 eax, DWORD PTR _kVec_dwGuildID$[ebp]
  000c7	50		 push	 eax
  000c8	6a 00		 push	 0
  000ca	6a 00		 push	 0
  000cc	8d 45 e0	 lea	 eax, DWORD PTR _kAddress$[ebp]
  000cf	50		 push	 eax
  000d0	e8 00 00 00 00	 call	 ?ConnectToRecvSymbol@CGuildMarkDownloader@@QAE_NABVCNetworkAddress@@KKABV?$vector@KV?$allocator@K@std@@@std@@@Z ; CGuildMarkDownloader::ConnectToRecvSymbol

; 1731 : 	return Py_BuildNone();

  000d5	e8 00 00 00 00	 call	 ?Py_BuildNone@@YAPAU_object@@XZ ; Py_BuildNone
; File C:\Program Files\Microsoft Visual Studio\2022\Community\VC\Tools\MSVC\14.34.31933\include\vector

; 2107 :         if (_Myfirst) { // destroy and deallocate old array

  000da	8b 55 d4	 mov	 edx, DWORD PTR _kVec_dwGuildID$[ebp]
; File E:\Metin2_server\SolWayneSF v6\ClientVS22\source\UserInterface\PythonNetworkStreamModule.cpp

; 1731 : 	return Py_BuildNone();

  000dd	8b f0		 mov	 esi, eax
; File C:\Program Files\Microsoft Visual Studio\2022\Community\VC\Tools\MSVC\14.34.31933\include\vector

; 2107 :         if (_Myfirst) { // destroy and deallocate old array

  000df	85 d2		 test	 edx, edx
  000e1	74 2c		 je	 SHORT $LN34@netRecvGui

; 2110 :             _Al.deallocate(_Myfirst, static_cast<size_type>(_Myend - _Myfirst));

  000e3	8b 4d dc	 mov	 ecx, DWORD PTR _kVec_dwGuildID$[ebp+8]
; File C:\Program Files\Microsoft Visual Studio\2022\Community\VC\Tools\MSVC\14.34.31933\include\xmemory

; 830  :         _Deallocate<_New_alignof<_Ty>>(_Ptr, sizeof(_Ty) * _Count);

  000e6	8b c2		 mov	 eax, edx
; File C:\Program Files\Microsoft Visual Studio\2022\Community\VC\Tools\MSVC\14.34.31933\include\vector

; 2110 :             _Al.deallocate(_Myfirst, static_cast<size_type>(_Myend - _Myfirst));

  000e8	2b ca		 sub	 ecx, edx
; File C:\Program Files\Microsoft Visual Studio\2022\Community\VC\Tools\MSVC\14.34.31933\include\xmemory

; 830  :         _Deallocate<_New_alignof<_Ty>>(_Ptr, sizeof(_Ty) * _Count);

  000ea	83 e1 fc	 and	 ecx, -4			; fffffffcH

; 251  :         if (_Bytes >= _Big_allocation_threshold) { // boost the alignment of big allocations to help autovectorization

  000ed	81 f9 00 10 00
	00		 cmp	 ecx, 4096		; 00001000H
  000f3	72 10		 jb	 SHORT $LN46@netRecvGui

; 150  :     const uintptr_t _Ptr_container   = _Ptr_user[-1];

  000f5	8b 50 fc	 mov	 edx, DWORD PTR [eax-4]
  000f8	83 c1 23	 add	 ecx, 35			; 00000023H
  000fb	2b c2		 sub	 eax, edx

; 164  :     _STL_VERIFY(_Back_shift >= _Min_back_shift && _Back_shift <= _Non_user_size, "invalid argument");

  000fd	83 c0 fc	 add	 eax, -4			; fffffffcH
  00100	83 f8 1f	 cmp	 eax, 31			; 0000001fH
  00103	77 2e		 ja	 SHORT $LN56@netRecvGui
$LN46@netRecvGui:

; 255  :         ::operator delete(_Ptr, _Bytes);

  00105	51		 push	 ecx
  00106	52		 push	 edx
  00107	e8 00 00 00 00	 call	 ??3@YAXPAXI@Z		; operator delete
  0010c	83 c4 08	 add	 esp, 8
$LN34@netRecvGui:
; File E:\Metin2_server\SolWayneSF v6\ClientVS22\source\UserInterface\PythonNetworkStreamModule.cpp

; 1731 : 	return Py_BuildNone();

  0010f	8d 4d e0	 lea	 ecx, DWORD PTR _kAddress$[ebp]
  00112	e8 00 00 00 00	 call	 ??1CNetworkAddress@@QAE@XZ ; CNetworkAddress::~CNetworkAddress
  00117	8b c6		 mov	 eax, esi
$LN1@netRecvGui:

; 1732 : }

  00119	8b 4d f4	 mov	 ecx, DWORD PTR __$EHRec$[ebp]
  0011c	64 89 0d 00 00
	00 00		 mov	 DWORD PTR fs:0, ecx
  00123	59		 pop	 ecx
  00124	5e		 pop	 esi
  00125	8b 4d f0	 mov	 ecx, DWORD PTR __$ArrayPad$[ebp]
  00128	33 cd		 xor	 ecx, ebp
  0012a	e8 00 00 00 00	 call	 @__security_check_cookie@4
  0012f	8b e5		 mov	 esp, ebp
  00131	5d		 pop	 ebp
  00132	c3		 ret	 0
$LN56@netRecvGui:
; File C:\Program Files\Microsoft Visual Studio\2022\Community\VC\Tools\MSVC\14.34.31933\include\xmemory

; 164  :     _STL_VERIFY(_Back_shift >= _Min_back_shift && _Back_shift <= _Non_user_size, "invalid argument");

  00133	e8 00 00 00 00	 call	 __invalid_parameter_noinfo_noreturn
$LN53@netRecvGui:
  00138	cc		 int	 3
_TEXT	ENDS
;	COMDAT text$x
text$x	SEGMENT
__unwindfunclet$?netRecvGuildSymbol@@YAPAU_object@@PAU1@0@Z$0:
  00000	8d 4d e0	 lea	 ecx, DWORD PTR _kAddress$[ebp]
  00003	e9 00 00 00 00	 jmp	 ??1CNetworkAddress@@QAE@XZ ; CNetworkAddress::~CNetworkAddress
__unwindfunclet$?netRecvGuildSymbol@@YAPAU_object@@PAU1@0@Z$1:
  00008	8d 4d d4	 lea	 ecx, DWORD PTR _kVec_dwGuildID$[ebp]
  0000b	e9 00 00 00 00	 jmp	 ??1?$vector@KV?$allocator@K@std@@@std@@QAE@XZ ; std::vector<unsigned long,std::allocator<unsigned long> >::~vector<unsigned long,std::allocator<unsigned long> >
  00010	cc		 int	 3
  00011	cc		 int	 3
  00012	cc		 int	 3
  00013	cc		 int	 3
  00014	cc		 int	 3
__ehhandler$?netRecvGuildSymbol@@YAPAU_object@@PAU1@0@Z:
  00015	90		 npad	 1
  00016	90		 npad	 1
  00017	8b 54 24 08	 mov	 edx, DWORD PTR [esp+8]
  0001b	8d 42 0c	 lea	 eax, DWORD PTR [edx+12]
  0001e	8b 4a c8	 mov	 ecx, DWORD PTR [edx-56]
  00021	33 c8		 xor	 ecx, eax
  00023	e8 00 00 00 00	 call	 @__security_check_cookie@4
  00028	8b 4a fc	 mov	 ecx, DWORD PTR [edx-4]
  0002b	33 c8		 xor	 ecx, eax
  0002d	e8 00 00 00 00	 call	 @__security_check_cookie@4
  00032	b8 00 00 00 00	 mov	 eax, OFFSET __ehfuncinfo$?netRecvGuildSymbol@@YAPAU_object@@PAU1@0@Z
  00037	e9 00 00 00 00	 jmp	 ___CxxFrameHandler3
text$x	ENDS
?netRecvGuildSymbol@@YAPAU_object@@PAU1@0@Z ENDP	; netRecvGuildSymbol
; Function compile flags: /Ogtp
; File E:\Metin2_server\SolWayneSF v6\ClientVS22\source\UserInterface\PythonNetworkStreamModule.cpp
;	COMDAT ?netRegisterErrorLog@@YAPAU_object@@PAU1@0@Z
_TEXT	SEGMENT
_szLog$ = -4						; size = 4
_poSelf$ = 8						; size = 4
_poArgs$ = 12						; size = 4
?netRegisterErrorLog@@YAPAU_object@@PAU1@0@Z PROC	; netRegisterErrorLog, COMDAT

; 1735 : {

  00000	55		 push	 ebp
  00001	8b ec		 mov	 ebp, esp
  00003	51		 push	 ecx

; 1736 : 	char * szLog;
; 1737 : 	if (!PyTuple_GetString(poArgs, 0, &szLog))

  00004	8d 45 fc	 lea	 eax, DWORD PTR _szLog$[ebp]
  00007	50		 push	 eax
  00008	6a 00		 push	 0
  0000a	ff 75 0c	 push	 DWORD PTR _poArgs$[ebp]
  0000d	e8 00 00 00 00	 call	 ?PyTuple_GetString@@YA_NPAU_object@@HPAPAD@Z ; PyTuple_GetString
  00012	83 c4 0c	 add	 esp, 12			; 0000000cH
  00015	84 c0		 test	 al, al
  00017	75 0e		 jne	 SHORT $LN2@netRegiste

; 1738 : 		return Py_BuildException();

  00019	6a 00		 push	 0
  0001b	e8 00 00 00 00	 call	 ?Py_BuildException@@YAPAU_object@@PBDZZ ; Py_BuildException
  00020	83 c4 04	 add	 esp, 4

; 1741 : }

  00023	8b e5		 mov	 esp, ebp
  00025	5d		 pop	 ebp
  00026	c3		 ret	 0
$LN2@netRegiste:

; 1739 : 
; 1740 : 	return Py_BuildNone();

  00027	e8 00 00 00 00	 call	 ?Py_BuildNone@@YAPAU_object@@XZ ; Py_BuildNone

; 1741 : }

  0002c	8b e5		 mov	 esp, ebp
  0002e	5d		 pop	 ebp
  0002f	c3		 ret	 0
?netRegisterErrorLog@@YAPAU_object@@PAU1@0@Z ENDP	; netRegisterErrorLog
_TEXT	ENDS
; Function compile flags: /Ogtp
; File E:\Metin2_server\SolWayneSF v6\ClientVS22\source\UserInterface\PythonNetworkStreamModule.cpp
;	COMDAT ?initnet@@YAXXZ
_TEXT	SEGMENT
?initnet@@YAXXZ PROC					; initnet, COMDAT

; 1744 : {

  00000	56		 push	 esi
  00001	57		 push	 edi

; 1745 : 	static PyMethodDef s_methods[] =
; 1746 : 	{
; 1747 : 		{ "GetBettingGuildWarValue",			netGetBettingGuildWarValue,				METH_VARARGS },
; 1748 : 		{ "EnableChatInsultFilter",				netEnableChatInsultFilter,				METH_VARARGS },
; 1749 : 		{ "SetServerInfo",						netSetServerInfo,						METH_VARARGS },
; 1750 : 		{ "GetServerInfo",						netGetServerInfo,						METH_VARARGS },
; 1751 : 		{ "PreserveServerCommand",				netPreserveServerCommand,				METH_VARARGS },
; 1752 : 		{ "GetPreservedServerCommand",			netGetPreservedServerCommand,			METH_VARARGS },
; 1753 : 
; 1754 : 		{ "StartGame",							netStartGame,							METH_VARARGS },
; 1755 : 		{ "Warp",								netWarp,								METH_VARARGS },
; 1756 : 		{ "IsTest",								netIsTest,								METH_VARARGS },
; 1757 : 		{ "SetMarkServer",						netSetMarkServer,						METH_VARARGS },
; 1758 : 		{ "IsChatInsultIn",						netIsChatInsultIn,						METH_VARARGS },
; 1759 : 		{ "IsInsultIn",							netIsInsultIn,							METH_VARARGS },
; 1760 : 		{ "LoadInsultList",						netLoadInsultList,						METH_VARARGS },
; 1761 : 		{ "UploadMark",							netUploadMark,							METH_VARARGS },
; 1762 : 		{ "UploadSymbol",						netUploadSymbol,						METH_VARARGS },
; 1763 : 		{ "GetGuildID",							netGetGuildID,							METH_VARARGS },
; 1764 : 		{ "GetEmpireID",						netGetEmpireID,							METH_VARARGS },
; 1765 : 		{ "GetMainActorVID",					netGetMainActorVID,						METH_VARARGS },
; 1766 : 		{ "GetMainActorRace",					netGetMainActorRace,					METH_VARARGS },
; 1767 : 		{ "GetMainActorEmpire",					netGetMainActorEmpire,					METH_VARARGS },
; 1768 : 		{ "GetMainActorSkillGroup",				netGetMainActorSkillGroup,				METH_VARARGS },
; 1769 : 		{ "GetAccountCharacterSlotDataInteger",	netGetAccountCharacterSlotDataInteger,	METH_VARARGS },
; 1770 : 		{ "GetAccountCharacterSlotDataString",	netGetAccountCharacterSlotDataString,	METH_VARARGS },
; 1771 : 
; 1772 : 		// FIELD_MUSIC
; 1773 : 		{ "GetFieldMusicFileName",				netGetFieldMusicFileName,				METH_VARARGS },
; 1774 : 		{ "GetFieldMusicVolume",				netGetFieldMusicVolume,					METH_VARARGS },
; 1775 : 		// END_OF_FIELD_MUSIC
; 1776 : 
; 1777 : 		{ "ToggleGameDebugInfo",				netToggleGameDebugInfo,					METH_VARARGS },
; 1778 : 		{ "SetLoginInfo",						netSetLoginInfo,						METH_VARARGS },
; 1779 : 		{ "SetPhaseWindow",						netSetPhaseWindow,						METH_VARARGS },
; 1780 : 		{ "ClearPhaseWindow",					netClearPhaseWindow,					METH_VARARGS },
; 1781 : 		{ "SetServerCommandParserWindow",		netSetServerCommandParserWindow,		METH_VARARGS },
; 1782 : 		{ "SetAccountConnectorHandler",			netSetAccountConnectorHandler,			METH_VARARGS },
; 1783 : 		{ "SetHandler",							netSetHandler,							METH_VARARGS },
; 1784 : 		{ "SetTCPRecvBufferSize",				netSetTCPRecvBufferSize,				METH_VARARGS },
; 1785 : 		{ "SetTCPSendBufferSize",				netSetTCPSendBufferSize,				METH_VARARGS },
; 1786 : 		{ "SetUDPRecvBufferSize",				netSetUDPRecvBufferSize,				METH_VARARGS },
; 1787 : 		{ "DirectEnter",						netDirectEnter,							METH_VARARGS },
; 1788 : 
; 1789 : 		{ "LogOutGame",							netLogOutGame,							METH_VARARGS },
; 1790 : 		{ "ExitGame",							netExitGame,							METH_VARARGS },
; 1791 : 		{ "ExitApplication",					netExitApplication,						METH_VARARGS },
; 1792 : 		{ "ConnectTCP",							netConnectTCP,							METH_VARARGS },
; 1793 : 		{ "ConnectUDP",							netConnectUDP,							METH_VARARGS },
; 1794 : 		{ "ConnectToAccountServer",				netConnectToAccountServer,				METH_VARARGS },
; 1795 : #ifdef ENABLE_SEND_TARGET_INFO
; 1796 : 		{ "SendTargetInfoLoad",					netTargetInfoLoad,						METH_VARARGS },
; 1797 : #endif
; 1798 : 
; 1799 : 		{ "SendLoginPacket",					netSendLoginPacket,						METH_VARARGS },
; 1800 : 		{ "SendChinaMatrixCardPacket",			netSendChinaMatrixCardPacket,			METH_VARARGS },
; 1801 : 		{ "SendRunupMatrixCardPacket",			netSendRunupMatrixCardPacket,			METH_VARARGS },
; 1802 : 		{ "SendNEWCIBNPasspodAnswerPacket",		netSendNEWCIBNPasspodAnswerPacket,		METH_VARARGS },
; 1803 : 		{ "SendSelectEmpirePacket",				netSendSelectEmpirePacket,				METH_VARARGS },
; 1804 : 		{ "SendSelectCharacterPacket",			netSendSelectCharacterPacket,			METH_VARARGS },
; 1805 : 		{ "SendChangeNamePacket",				netSendChangeNamePacket,				METH_VARARGS },
; 1806 : 		{ "SendCreateCharacterPacket",			netSendCreateCharacterPacket,			METH_VARARGS },
; 1807 : 		{ "SendDestroyCharacterPacket",			netSendDestroyCharacterPacket,			METH_VARARGS },
; 1808 : 		{ "SendEnterGamePacket",				netSendEnterGamePacket,					METH_VARARGS },
; 1809 : 
; 1810 : 		{ "SendItemUsePacket",					netSendItemUsePacket,					METH_VARARGS },
; 1811 : 		{ "SendItemUseToItemPacket",			netSendItemUseToItemPacket,				METH_VARARGS },
; 1812 : 		{ "SendItemDropPacket",					netSendItemDropPacket,					METH_VARARGS },
; 1813 : 		{ "SendItemDropPacketNew",				netSendItemDropPacketNew,				METH_VARARGS },
; 1814 : 		{ "SendItemDestroyPacket",				netSendItemDestroyPacket,				METH_VARARGS },
; 1815 : 		{ "SendElkDropPacket",					netSendElkDropPacket,					METH_VARARGS },
; 1816 : 		{ "SendGoldDropPacketNew",				netSendGoldDropPacketNew,				METH_VARARGS },
; 1817 : 		{ "SendItemMovePacket",					netSendItemMovePacket,					METH_VARARGS },
; 1818 : 		{ "SendItemPickUpPacket",				netSendItemPickUpPacket,				METH_VARARGS },
; 1819 : 		{ "SendGiveItemPacket",					netSendGiveItemPacket,					METH_VARARGS },
; 1820 : 
; 1821 : 		{ "SetOfflinePhase",					netSetOfflinePhase,						METH_VARARGS },
; 1822 : 		{ "Disconnect",							netDisconnect,							METH_VARARGS },
; 1823 : 		{ "IsConnect",							netIsConnect,							METH_VARARGS },
; 1824 : 
; 1825 : 		{ "SendChatPacket",						netSendChatPacket,						METH_VARARGS },
; 1826 : 		{ "SendEmoticon",						netSendEmoticon,						METH_VARARGS },
; 1827 : 		{ "SendWhisperPacket",					netSendWhisperPacket,					METH_VARARGS },
; 1828 : 		{ "SendMobileMessagePacket",			netSendMobileMessagePacket,				METH_VARARGS },
; 1829 : 
; 1830 : 		{ "SendCharacterPositionPacket",		netSendCharacterPositionPacket,			METH_VARARGS },
; 1831 : 
; 1832 : 		{ "SendShopEndPacket",					netSendShopEndPacket,					METH_VARARGS },
; 1833 : 		{ "SendShopBuyPacket",					netSendShopBuyPacket,					METH_VARARGS },
; 1834 : 		{ "SendShopSellPacket",					netSendShopSellPacket,					METH_VARARGS },
; 1835 : 		{ "SendShopSellPacketNew",				netSendShopSellPacketNew,				METH_VARARGS },
; 1836 : 
; 1837 : 		{ "SendExchangeStartPacket",			netSendExchangeStartPacket,				METH_VARARGS },
; 1838 : 		{ "SendExchangeItemAddPacket",			netSendExchangeItemAddPacket,			METH_VARARGS },
; 1839 : 		{ "SendExchangeItemDelPacket",			netSendExchangeItemDelPacket,			METH_VARARGS },
; 1840 : 		{ "SendExchangeElkAddPacket",			netSendExchangeElkAddPacket,			METH_VARARGS },
; 1841 : 		{ "SendExchangeAcceptPacket",			netSendExchangeAcceptPacket,			METH_VARARGS },
; 1842 : 		{ "SendExchangeExitPacket",				netSendExchangeExitPacket,				METH_VARARGS },
; 1843 : 
; 1844 : 		{ "SendOnClickPacket",					netOnClickPacket,						METH_VARARGS },
; 1845 : 		
; 1846 : 		// Emoticon String
; 1847 : 		{ "RegisterEmoticonString",				netRegisterEmoticonString,				METH_VARARGS },
; 1848 : 
; 1849 : 		// Messenger
; 1850 : 		{ "SendMessengerAddByVIDPacket",		netSendMessengerAddByVIDPacket,			METH_VARARGS },
; 1851 : 		{ "SendMessengerAddByNamePacket",		netSendMessengerAddByNamePacket,		METH_VARARGS },
; 1852 : 		{ "SendMessengerRemovePacket",			netSendMessengerRemovePacket,			METH_VARARGS },
; 1853 : 
; 1854 : 		// Party
; 1855 : 		{ "SendPartyInvitePacket",				netSendPartyInvitePacket,				METH_VARARGS },
; 1856 : 		{ "SendPartyInviteAnswerPacket",		netSendPartyInviteAnswerPacket,			METH_VARARGS },
; 1857 : 		{ "SendPartyExitPacket",				netSendPartyExitPacket,					METH_VARARGS },
; 1858 : 		{ "SendPartyRemovePacket",				netSendPartyRemovePacket,				METH_VARARGS },
; 1859 : 		{ "SendPartySetStatePacket",			netSendPartySetStatePacket,				METH_VARARGS },
; 1860 : 		{ "SendPartyUseSkillPacket",			netSendPartyUseSkillPacket,				METH_VARARGS },
; 1861 : 		{ "SendPartyParameterPacket",			netSendPartyParameterPacket,			METH_VARARGS },
; 1862 : 
; 1863 : 		// Safebox
; 1864 : 		{ "SendSafeboxSaveMoneyPacket",			netSendSafeboxSaveMoneyPacket,			METH_VARARGS },
; 1865 : 		{ "SendSafeboxWithdrawMoneyPacket",		netSendSafeboxWithdrawMoneyPacket,		METH_VARARGS },
; 1866 : 		{ "SendSafeboxCheckinPacket",			netSendSafeboxCheckinPacket,			METH_VARARGS },
; 1867 : 		{ "SendSafeboxCheckoutPacket",			netSendSafeboxCheckoutPacket,			METH_VARARGS },
; 1868 : 		{ "SendSafeboxItemMovePacket",			netSendSafeboxItemMovePacket,			METH_VARARGS },
; 1869 : 
; 1870 : 		// Mall
; 1871 : 		{ "SendMallCheckoutPacket",				netSendMallCheckoutPacket,				METH_VARARGS },
; 1872 : 
; 1873 : 		// Guild
; 1874 : 		{ "SendAnswerMakeGuildPacket",				netSendAnswerMakeGuildPacket,				METH_VARARGS },
; 1875 : 		{ "SendQuestInputStringPacket",				netSendQuestInputStringPacket,				METH_VARARGS },
; 1876 : 		{ "SendQuestConfirmPacket",					netSendQuestConfirmPacket,					METH_VARARGS },
; 1877 : 		{ "SendGuildAddMemberPacket",				netSendGuildAddMemberPacket,				METH_VARARGS },
; 1878 : 		{ "SendGuildRemoveMemberPacket",			netSendGuildRemoveMemberPacket,				METH_VARARGS },
; 1879 : 		{ "SendGuildChangeGradeNamePacket",			netSendGuildChangeGradeNamePacket,			METH_VARARGS },
; 1880 : 		{ "SendGuildChangeGradeAuthorityPacket",	netSendGuildChangeGradeAuthorityPacket,		METH_VARARGS },
; 1881 : 		{ "SendGuildOfferPacket",					netSendGuildOfferPacket,					METH_VARARGS },
; 1882 : 		{ "SendGuildPostCommentPacket",				netSnedGuildPostCommentPacket,				METH_VARARGS },
; 1883 : 		{ "SendGuildDeleteCommentPacket",			netSnedGuildDeleteCommentPacket,			METH_VARARGS },
; 1884 : 		{ "SendGuildRefreshCommentsPacket",			netSendGuildRefreshCommentsPacket,			METH_VARARGS },
; 1885 : 		{ "SendGuildChangeMemberGradePacket",		netSendGuildChangeMemberGradePacket,		METH_VARARGS },
; 1886 : 		{ "SendGuildUseSkillPacket",				netSendGuildUseSkillPacket,					METH_VARARGS },
; 1887 : 		{ "SendGuildChangeMemberGeneralPacket",		netSendGuildChangeMemberGeneralPacket,		METH_VARARGS },
; 1888 : 		{ "SendGuildInviteAnswerPacket",			netSendGuildInviteAnswerPacket,				METH_VARARGS },
; 1889 : 		{ "SendGuildChargeGSPPacket",				netSendGuildChargeGSPPacket,				METH_VARARGS },
; 1890 : 		{ "SendGuildDepositMoneyPacket",			netSendGuildDepositMoneyPacket,				METH_VARARGS },
; 1891 : 		{ "SendGuildWithdrawMoneyPacket",			netSendGuildWithdrawMoneyPacket,			METH_VARARGS },
; 1892 : 
; 1893 : 		// Refine
; 1894 : 		{ "SendRequestRefineInfoPacket",			netSendRequestRefineInfoPacket,				METH_VARARGS },
; 1895 : 		{ "SendRefinePacket",						netSendRefinePacket,						METH_VARARGS },
; 1896 : 		{ "SendSelectItemPacket",					netSendSelectItemPacket,					METH_VARARGS },
; 1897 : 
; 1898 : 		// SYSTEM
; 1899 : 		{ "SetPacketSequenceMode",					netSetPacketSequenceMode,					METH_VARARGS },
; 1900 : 		{ "SetEmpireLanguageMode",					netSetEmpireLanguageMode,					METH_VARARGS },
; 1901 : 
; 1902 : 		// For Test
; 1903 : 		{ "SetSkillGroupFake",						netSetSkillGroupFake,						METH_VARARGS },
; 1904 : 
; 1905 : 		// Guild Symbol
; 1906 : 		{ "SendGuildSymbol",						netSendGuildSymbol,							METH_VARARGS },
; 1907 : 		{ "DisconnectUploader",						netDisconnectUploader,						METH_VARARGS },
; 1908 : 		{ "RecvGuildSymbol",						netRecvGuildSymbol,							METH_VARARGS },
; 1909 : 
; 1910 : 		// Log
; 1911 : 		{ "RegisterErrorLog",						netRegisterErrorLog,						METH_VARARGS },
; 1912 : 
; 1913 : 		{ NULL,										NULL,										NULL },
; 1914 : 	};
; 1915 : 
; 1916 : 	PyObject* poModule = Py_InitModule("net", s_methods);

  00002	68 f5 03 00 00	 push	 1013			; 000003f5H
  00007	6a 00		 push	 0
  00009	6a 00		 push	 0
  0000b	68 00 00 00 00	 push	 OFFSET ?s_methods@?1??initnet@@YAXXZ@4PAUPyMethodDef@@A
  00010	68 00 00 00 00	 push	 OFFSET ??_C@_03NBFOK@net@
  00015	ff 15 00 00 00
	00		 call	 DWORD PTR __imp__Py_InitModule4

; 1917 : 
; 1918 : 	PyModule_AddIntConstant(poModule, "ERROR_NONE", CPythonNetworkStream::ERROR_NONE);

  0001b	8b 35 00 00 00
	00		 mov	 esi, DWORD PTR __imp__PyModule_AddIntConstant
  00021	8b f8		 mov	 edi, eax
  00023	6a 00		 push	 0
  00025	68 00 00 00 00	 push	 OFFSET ??_C@_0L@LILDODAP@ERROR_NONE@
  0002a	57		 push	 edi
  0002b	ff d6		 call	 esi

; 1919 : 	PyModule_AddIntConstant(poModule, "ERROR_CONNECT_MARK_SERVER", CPythonNetworkStream::ERROR_CONNECT_MARK_SERVER);

  0002d	6a 02		 push	 2
  0002f	68 00 00 00 00	 push	 OFFSET ??_C@_0BK@BILAANNF@ERROR_CONNECT_MARK_SERVER@
  00034	57		 push	 edi
  00035	ff d6		 call	 esi

; 1920 : 	PyModule_AddIntConstant(poModule, "ERROR_LOAD_MARK", CPythonNetworkStream::ERROR_LOAD_MARK);

  00037	6a 03		 push	 3
  00039	68 00 00 00 00	 push	 OFFSET ??_C@_0BA@NEJKKBEJ@ERROR_LOAD_MARK@
  0003e	57		 push	 edi
  0003f	ff d6		 call	 esi

; 1921 : 	PyModule_AddIntConstant(poModule, "ERROR_MARK_WIDTH", CPythonNetworkStream::ERROR_MARK_WIDTH);

  00041	6a 04		 push	 4
  00043	68 00 00 00 00	 push	 OFFSET ??_C@_0BB@FEGLKDMB@ERROR_MARK_WIDTH@
  00048	57		 push	 edi
  00049	ff d6		 call	 esi
  0004b	83 c4 44	 add	 esp, 68			; 00000044H

; 1922 : 	PyModule_AddIntConstant(poModule, "ERROR_MARK_HEIGHT", CPythonNetworkStream::ERROR_MARK_HEIGHT);

  0004e	6a 05		 push	 5
  00050	68 00 00 00 00	 push	 OFFSET ??_C@_0BC@GOIIBBEJ@ERROR_MARK_HEIGHT@
  00055	57		 push	 edi
  00056	ff d6		 call	 esi

; 1923 : 
; 1924 : 	// MARK_BUG_FIX
; 1925 : 	PyModule_AddIntConstant(poModule, "ERROR_MARK_UPLOAD_NEED_RECONNECT", CPythonNetworkStream::ERROR_MARK_UPLOAD_NEED_RECONNECT);	

  00058	6a 06		 push	 6
  0005a	68 00 00 00 00	 push	 OFFSET ??_C@_0CB@BOPIDGGI@ERROR_MARK_UPLOAD_NEED_RECONNEC@
  0005f	57		 push	 edi
  00060	ff d6		 call	 esi

; 1926 : 	PyModule_AddIntConstant(poModule, "ERROR_MARK_CHECK_NEED_RECONNECT", CPythonNetworkStream::ERROR_MARK_CHECK_NEED_RECONNECT);	

  00062	6a 07		 push	 7
  00064	68 00 00 00 00	 push	 OFFSET ??_C@_0CA@JMHMMKLO@ERROR_MARK_CHECK_NEED_RECONNECT@
  00069	57		 push	 edi
  0006a	ff d6		 call	 esi

; 1927 : 	// END_OF_MARK_BUG_FIX
; 1928 : 
; 1929 : 	PyModule_AddIntConstant(poModule, "PHASE_WINDOW_LOGIN", CPythonNetworkStream::PHASE_WINDOW_LOGIN);

  0006c	6a 01		 push	 1
  0006e	68 00 00 00 00	 push	 OFFSET ??_C@_0BD@JBLBGAIB@PHASE_WINDOW_LOGIN@
  00073	57		 push	 edi
  00074	ff d6		 call	 esi

; 1930 : 	PyModule_AddIntConstant(poModule, "PHASE_WINDOW_SELECT", CPythonNetworkStream::PHASE_WINDOW_SELECT);

  00076	6a 02		 push	 2
  00078	68 00 00 00 00	 push	 OFFSET ??_C@_0BE@EBCKEIDN@PHASE_WINDOW_SELECT@
  0007d	57		 push	 edi
  0007e	ff d6		 call	 esi

; 1931 : 	PyModule_AddIntConstant(poModule, "PHASE_WINDOW_CREATE", CPythonNetworkStream::PHASE_WINDOW_CREATE);

  00080	6a 03		 push	 3
  00082	68 00 00 00 00	 push	 OFFSET ??_C@_0BE@PAOFIFBD@PHASE_WINDOW_CREATE@
  00087	57		 push	 edi
  00088	ff d6		 call	 esi
  0008a	83 c4 48	 add	 esp, 72			; 00000048H

; 1932 : 	PyModule_AddIntConstant(poModule, "PHASE_WINDOW_LOAD", CPythonNetworkStream::PHASE_WINDOW_LOAD);

  0008d	6a 04		 push	 4
  0008f	68 00 00 00 00	 push	 OFFSET ??_C@_0BC@PFELHICG@PHASE_WINDOW_LOAD@
  00094	57		 push	 edi
  00095	ff d6		 call	 esi

; 1933 : 	PyModule_AddIntConstant(poModule, "PHASE_WINDOW_GAME", CPythonNetworkStream::PHASE_WINDOW_GAME);

  00097	6a 05		 push	 5
  00099	68 00 00 00 00	 push	 OFFSET ??_C@_0BC@HCEFPGCB@PHASE_WINDOW_GAME@
  0009e	57		 push	 edi
  0009f	ff d6		 call	 esi

; 1934 : 	PyModule_AddIntConstant(poModule, "PHASE_WINDOW_EMPIRE", CPythonNetworkStream::PHASE_WINDOW_EMPIRE);

  000a1	6a 06		 push	 6
  000a3	68 00 00 00 00	 push	 OFFSET ??_C@_0BE@IIMEMMI@PHASE_WINDOW_EMPIRE@
  000a8	57		 push	 edi
  000a9	ff d6		 call	 esi

; 1935 : 	PyModule_AddIntConstant(poModule, "PHASE_WINDOW_LOGO", CPythonNetworkStream::PHASE_WINDOW_LOGO);

  000ab	6a 00		 push	 0
  000ad	68 00 00 00 00	 push	 OFFSET ??_C@_0BC@BCDCNNFP@PHASE_WINDOW_LOGO@
  000b2	57		 push	 edi
  000b3	ff d6		 call	 esi

; 1936 : 
; 1937 : 	PyModule_AddIntConstant(poModule, "ACCOUNT_CHARACTER_SLOT_ID", CPythonNetworkStream::ACCOUNT_CHARACTER_SLOT_ID);

  000b5	6a 00		 push	 0
  000b7	68 00 00 00 00	 push	 OFFSET ??_C@_0BK@HDGGAJBJ@ACCOUNT_CHARACTER_SLOT_ID@
  000bc	57		 push	 edi
  000bd	ff d6		 call	 esi

; 1938 : 	PyModule_AddIntConstant(poModule, "ACCOUNT_CHARACTER_SLOT_NAME", CPythonNetworkStream::ACCOUNT_CHARACTER_SLOT_NAME);

  000bf	6a 01		 push	 1
  000c1	68 00 00 00 00	 push	 OFFSET ??_C@_0BM@JCGOOLCL@ACCOUNT_CHARACTER_SLOT_NAME@
  000c6	57		 push	 edi
  000c7	ff d6		 call	 esi
  000c9	83 c4 48	 add	 esp, 72			; 00000048H

; 1939 : 	PyModule_AddIntConstant(poModule, "ACCOUNT_CHARACTER_SLOT_RACE", CPythonNetworkStream::ACCOUNT_CHARACTER_SLOT_RACE);

  000cc	6a 02		 push	 2
  000ce	68 00 00 00 00	 push	 OFFSET ??_C@_0BM@DNOALMKC@ACCOUNT_CHARACTER_SLOT_RACE@
  000d3	57		 push	 edi
  000d4	ff d6		 call	 esi

; 1940 : 	PyModule_AddIntConstant(poModule, "ACCOUNT_CHARACTER_SLOT_LEVEL", CPythonNetworkStream::ACCOUNT_CHARACTER_SLOT_LEVEL);

  000d6	6a 03		 push	 3
  000d8	68 00 00 00 00	 push	 OFFSET ??_C@_0BN@MPLCEAPH@ACCOUNT_CHARACTER_SLOT_LEVEL@
  000dd	57		 push	 edi
  000de	ff d6		 call	 esi

; 1941 : 	PyModule_AddIntConstant(poModule, "ACCOUNT_CHARACTER_SLOT_STR", CPythonNetworkStream::ACCOUNT_CHARACTER_SLOT_STR);

  000e0	6a 04		 push	 4
  000e2	68 00 00 00 00	 push	 OFFSET ??_C@_0BL@MPBHOFJE@ACCOUNT_CHARACTER_SLOT_STR@
  000e7	57		 push	 edi
  000e8	ff d6		 call	 esi

; 1942 : 	PyModule_AddIntConstant(poModule, "ACCOUNT_CHARACTER_SLOT_DEX", CPythonNetworkStream::ACCOUNT_CHARACTER_SLOT_DEX);

  000ea	6a 05		 push	 5
  000ec	68 00 00 00 00	 push	 OFFSET ??_C@_0BL@OFNCKLHP@ACCOUNT_CHARACTER_SLOT_DEX@
  000f1	57		 push	 edi
  000f2	ff d6		 call	 esi

; 1943 : 	PyModule_AddIntConstant(poModule, "ACCOUNT_CHARACTER_SLOT_INT", CPythonNetworkStream::ACCOUNT_CHARACTER_SLOT_INT);

  000f4	6a 07		 push	 7
  000f6	68 00 00 00 00	 push	 OFFSET ??_C@_0BL@LHFINDEP@ACCOUNT_CHARACTER_SLOT_INT@
  000fb	57		 push	 edi
  000fc	ff d6		 call	 esi

; 1944 : 	PyModule_AddIntConstant(poModule, "ACCOUNT_CHARACTER_SLOT_HTH", CPythonNetworkStream::ACCOUNT_CHARACTER_SLOT_HTH);

  000fe	6a 06		 push	 6
  00100	68 00 00 00 00	 push	 OFFSET ??_C@_0BL@PICCMPNB@ACCOUNT_CHARACTER_SLOT_HTH@
  00105	57		 push	 edi
  00106	ff d6		 call	 esi
  00108	83 c4 48	 add	 esp, 72			; 00000048H

; 1945 : 	PyModule_AddIntConstant(poModule, "ACCOUNT_CHARACTER_SLOT_PLAYTIME", CPythonNetworkStream::ACCOUNT_CHARACTER_SLOT_PLAYTIME);

  0010b	6a 08		 push	 8
  0010d	68 00 00 00 00	 push	 OFFSET ??_C@_0CA@KFILFMPG@ACCOUNT_CHARACTER_SLOT_PLAYTIME@
  00112	57		 push	 edi
  00113	ff d6		 call	 esi

; 1946 : 	PyModule_AddIntConstant(poModule, "ACCOUNT_CHARACTER_SLOT_FORM", CPythonNetworkStream::ACCOUNT_CHARACTER_SLOT_FORM);

  00115	6a 09		 push	 9
  00117	68 00 00 00 00	 push	 OFFSET ??_C@_0BM@JNGCLJJM@ACCOUNT_CHARACTER_SLOT_FORM@
  0011c	57		 push	 edi
  0011d	ff d6		 call	 esi

; 1947 : 	PyModule_AddIntConstant(poModule, "ACCOUNT_CHARACTER_SLOT_ADDR", CPythonNetworkStream::ACCOUNT_CHARACTER_SLOT_ADDR);

  0011f	6a 0a		 push	 10			; 0000000aH
  00121	68 00 00 00 00	 push	 OFFSET ??_C@_0BM@CNLCDDNB@ACCOUNT_CHARACTER_SLOT_ADDR@
  00126	57		 push	 edi
  00127	ff d6		 call	 esi

; 1948 : 	PyModule_AddIntConstant(poModule, "ACCOUNT_CHARACTER_SLOT_PORT", CPythonNetworkStream::ACCOUNT_CHARACTER_SLOT_PORT);

  00129	6a 0b		 push	 11			; 0000000bH
  0012b	68 00 00 00 00	 push	 OFFSET ??_C@_0BM@OJMCHCKG@ACCOUNT_CHARACTER_SLOT_PORT@
  00130	57		 push	 edi
  00131	ff d6		 call	 esi

; 1949 : 	PyModule_AddIntConstant(poModule, "ACCOUNT_CHARACTER_SLOT_GUILD_ID", CPythonNetworkStream::ACCOUNT_CHARACTER_SLOT_GUILD_ID);

  00133	6a 0c		 push	 12			; 0000000cH
  00135	68 00 00 00 00	 push	 OFFSET ??_C@_0CA@GFKKICFN@ACCOUNT_CHARACTER_SLOT_GUILD_ID@
  0013a	57		 push	 edi
  0013b	ff d6		 call	 esi

; 1950 : 	PyModule_AddIntConstant(poModule, "ACCOUNT_CHARACTER_SLOT_GUILD_NAME", CPythonNetworkStream::ACCOUNT_CHARACTER_SLOT_GUILD_NAME);

  0013d	6a 0d		 push	 13			; 0000000dH
  0013f	68 00 00 00 00	 push	 OFFSET ??_C@_0CC@HMBBCNEO@ACCOUNT_CHARACTER_SLOT_GUILD_NA@
  00144	57		 push	 edi
  00145	ff d6		 call	 esi
  00147	83 c4 48	 add	 esp, 72			; 00000048H

; 1951 : 	PyModule_AddIntConstant(poModule, "ACCOUNT_CHARACTER_SLOT_CHANGE_NAME_FLAG", CPythonNetworkStream::ACCOUNT_CHARACTER_SLOT_CHANGE_NAME_FLAG);

  0014a	6a 0e		 push	 14			; 0000000eH
  0014c	68 00 00 00 00	 push	 OFFSET ??_C@_0CI@NIHCCHJE@ACCOUNT_CHARACTER_SLOT_CHANGE_N@
  00151	57		 push	 edi
  00152	ff d6		 call	 esi

; 1952 : 	PyModule_AddIntConstant(poModule, "ACCOUNT_CHARACTER_SLOT_HAIR", CPythonNetworkStream::ACCOUNT_CHARACTER_SLOT_HAIR);

  00154	6a 0f		 push	 15			; 0000000fH
  00156	68 00 00 00 00	 push	 OFFSET ??_C@_0BM@BPKEDCMB@ACCOUNT_CHARACTER_SLOT_HAIR@
  0015b	57		 push	 edi
  0015c	ff d6		 call	 esi

; 1953 : 	#ifdef ENABLE_SASH_SYSTEM
; 1954 : 	PyModule_AddIntConstant(poModule, "ACCOUNT_CHARACTER_SLOT_SASH", CPythonNetworkStream::ACCOUNT_CHARACTER_SLOT_SASH);

  0015e	6a 10		 push	 16			; 00000010H
  00160	68 00 00 00 00	 push	 OFFSET ??_C@_0BM@KJAIEICP@ACCOUNT_CHARACTER_SLOT_SASH@
  00165	57		 push	 edi
  00166	ff d6		 call	 esi

; 1955 : 	#endif
; 1956 : 
; 1957 : 	PyModule_AddIntConstant(poModule, "SERVER_COMMAND_LOG_OUT",	CPythonNetworkStream::SERVER_COMMAND_LOG_OUT);

  00168	6a 00		 push	 0
  0016a	68 00 00 00 00	 push	 OFFSET ??_C@_0BH@IJCJGIEO@SERVER_COMMAND_LOG_OUT@
  0016f	57		 push	 edi
  00170	ff d6		 call	 esi

; 1958 : 	PyModule_AddIntConstant(poModule, "SERVER_COMMAND_RETURN_TO_SELECT_CHARACTER",	CPythonNetworkStream::SERVER_COMMAND_RETURN_TO_SELECT_CHARACTER);

  00172	6a 01		 push	 1
  00174	68 00 00 00 00	 push	 OFFSET ??_C@_0CK@IDBHOJE@SERVER_COMMAND_RETURN_TO_SELECT@
  00179	57		 push	 edi
  0017a	ff d6		 call	 esi

; 1959 : 	PyModule_AddIntConstant(poModule, "SERVER_COMMAND_QUIT",	CPythonNetworkStream::SERVER_COMMAND_QUIT);

  0017c	6a 02		 push	 2
  0017e	68 00 00 00 00	 push	 OFFSET ??_C@_0BE@FCDHFIHM@SERVER_COMMAND_QUIT@
  00183	57		 push	 edi
  00184	ff d6		 call	 esi
  00186	83 c4 48	 add	 esp, 72			; 00000048H

; 1960 : 
; 1961 : 	PyModule_AddIntConstant(poModule, "EMPIRE_A", 1);

  00189	6a 01		 push	 1
  0018b	68 00 00 00 00	 push	 OFFSET ??_C@_08FEHCOLFL@EMPIRE_A@
  00190	57		 push	 edi
  00191	ff d6		 call	 esi

; 1962 : 	PyModule_AddIntConstant(poModule, "EMPIRE_B", 2);

  00193	6a 02		 push	 2
  00195	68 00 00 00 00	 push	 OFFSET ??_C@_08HPFPLIJI@EMPIRE_B@
  0019a	57		 push	 edi
  0019b	ff d6		 call	 esi

; 1963 : 	PyModule_AddIntConstant(poModule, "EMPIRE_C", 3);

  0019d	6a 03		 push	 3
  0019f	68 00 00 00 00	 push	 OFFSET ??_C@_08GGEEIJNJ@EMPIRE_C@
  001a4	57		 push	 edi
  001a5	ff d6		 call	 esi

; 1964 : 	PyModule_AddIntConstant(poModule, "DS_SUB_HEADER_REFINE_FAIL", DS_SUB_HEADER_REFINE_FAIL);

  001a7	6a 05		 push	 5
  001a9	68 00 00 00 00	 push	 OFFSET ??_C@_0BK@IMPJEABP@DS_SUB_HEADER_REFINE_FAIL@
  001ae	57		 push	 edi
  001af	ff d6		 call	 esi

; 1965 : 	PyModule_AddIntConstant(poModule, "DS_SUB_HEADER_REFINE_FAIL_MAX_REFINE", DS_SUB_HEADER_REFINE_FAIL_MAX_REFINE);

  001b1	6a 06		 push	 6
  001b3	68 00 00 00 00	 push	 OFFSET ??_C@_0CF@NHMIOPGD@DS_SUB_HEADER_REFINE_FAIL_MAX_R@
  001b8	57		 push	 edi
  001b9	ff d6		 call	 esi

; 1966 : 	PyModule_AddIntConstant(poModule, "DS_SUB_HEADER_REFINE_FAIL_INVALID_MATERIAL", DS_SUB_HEADER_REFINE_FAIL_INVALID_MATERIAL);

  001bb	6a 07		 push	 7
  001bd	68 00 00 00 00	 push	 OFFSET ??_C@_0CL@CHMHFOOJ@DS_SUB_HEADER_REFINE_FAIL_INVAL@
  001c2	57		 push	 edi
  001c3	ff d6		 call	 esi
  001c5	83 c4 48	 add	 esp, 72			; 00000048H

; 1967 : 	PyModule_AddIntConstant(poModule, "DS_SUB_HEADER_REFINE_FAIL_NOT_ENOUGH_MONEY", DS_SUB_HEADER_REFINE_FAIL_NOT_ENOUGH_MONEY);

  001c8	6a 08		 push	 8
  001ca	68 00 00 00 00	 push	 OFFSET ??_C@_0CL@DKLCPNME@DS_SUB_HEADER_REFINE_FAIL_NOT_E@
  001cf	57		 push	 edi
  001d0	ff d6		 call	 esi

; 1968 : 	PyModule_AddIntConstant(poModule, "DS_SUB_HEADER_REFINE_FAIL_NOT_ENOUGH_MATERIAL", DS_SUB_HEADER_REFINE_FAIL_NOT_ENOUGH_MATERIAL);

  001d2	6a 09		 push	 9
  001d4	68 00 00 00 00	 push	 OFFSET ??_C@_0CO@HIKHGDBM@DS_SUB_HEADER_REFINE_FAIL_NOT_E@
  001d9	57		 push	 edi
  001da	ff d6		 call	 esi

; 1969 : 	PyModule_AddIntConstant(poModule, "DS_SUB_HEADER_REFINE_FAIL_TOO_MUCH_MATERIAL", DS_SUB_HEADER_REFINE_FAIL_TOO_MUCH_MATERIAL);

  001dc	6a 0a		 push	 10			; 0000000aH
  001de	68 00 00 00 00	 push	 OFFSET ??_C@_0CM@PJCLJBCJ@DS_SUB_HEADER_REFINE_FAIL_TOO_M@
  001e3	57		 push	 edi
  001e4	ff d6		 call	 esi

; 1970 : 	PyModule_AddIntConstant(poModule, "DS_SUB_HEADER_REFINE_SUCCEED", DS_SUB_HEADER_REFINE_SUCCEED);

  001e6	6a 0b		 push	 11			; 0000000bH
  001e8	68 00 00 00 00	 push	 OFFSET ??_C@_0BN@OJONLPHM@DS_SUB_HEADER_REFINE_SUCCEED@
  001ed	57		 push	 edi
  001ee	ff d6		 call	 esi
  001f0	83 c4 30	 add	 esp, 48			; 00000030H
  001f3	5f		 pop	 edi
  001f4	5e		 pop	 esi

; 1971 : }

  001f5	c3		 ret	 0
?initnet@@YAXXZ ENDP					; initnet
_TEXT	ENDS
; Function compile flags: /Ogtp
; File E:\Metin2_server\SolWayneSF v6\ClientVS22\source\eterBase\Singleton.h
;	COMDAT ?Instance@?$CSingleton@VCAccountConnector@@@@SAAAVCAccountConnector@@XZ
_TEXT	SEGMENT
?Instance@?$CSingleton@VCAccountConnector@@@@SAAAVCAccountConnector@@XZ PROC ; CSingleton<CAccountConnector>::Instance, COMDAT

; 26   : 		assert(ms_singleton);
; 27   : 		return (*ms_singleton);

  00000	a1 00 00 00 00	 mov	 eax, DWORD PTR ?ms_singleton@?$CSingleton@VCAccountConnector@@@@0PAVCAccountConnector@@A ; CSingleton<CAccountConnector>::ms_singleton

; 28   : 	}

  00005	c3		 ret	 0
?Instance@?$CSingleton@VCAccountConnector@@@@SAAAVCAccountConnector@@XZ ENDP ; CSingleton<CAccountConnector>::Instance
_TEXT	ENDS
; Function compile flags: /Ogtp
; File C:\Program Files\Microsoft Visual Studio\2022\Community\VC\Tools\MSVC\14.34.31933\include\list
;	COMDAT ?pop_front@?$list@V?$basic_string@DU?$char_traits@D@std@@V?$allocator@D@2@@std@@V?$allocator@V?$basic_string@DU?$char_traits@D@std@@V?$allocator@D@2@@std@@@2@@std@@QAEXXZ
_TEXT	SEGMENT
?pop_front@?$list@V?$basic_string@DU?$char_traits@D@std@@V?$allocator@D@2@@std@@V?$allocator@V?$basic_string@DU?$char_traits@D@std@@V?$allocator@D@2@@std@@@2@@std@@QAEXXZ PROC ; std::list<std::basic_string<char,std::char_traits<char>,std::allocator<char> >,std::allocator<std::basic_string<char,std::char_traits<char>,std::allocator<char> > > >::pop_front, COMDAT
; _this$dead$ = ecx

; 1248 : #if _CONTAINER_DEBUG_LEVEL > 0
; 1249 :         _STL_VERIFY(_Mypair._Myval2._Mysize != 0, "pop_front called on empty list");
; 1250 : #endif // _CONTAINER_DEBUG_LEVEL > 0
; 1251 : 
; 1252 :         _Unchecked_erase(_Mypair._Myval2._Myhead->_Next);

  00000	a1 00 00 00 00	 mov	 eax, DWORD PTR ?g_kList_strCommand@@3V?$list@V?$basic_string@DU?$char_traits@D@std@@V?$allocator@D@2@@std@@V?$allocator@V?$basic_string@DU?$char_traits@D@std@@V?$allocator@D@2@@std@@@2@@std@@A
  00005	8b 10		 mov	 edx, DWORD PTR [eax]

; 1418 :         const auto _Result = _Pnode->_Next;

  00007	8b 0a		 mov	 ecx, DWORD PTR [edx]

; 1419 :         _Mypair._Myval2._Orphan_ptr2(_Pnode);
; 1420 :         --_Mypair._Myval2._Mysize;

  00009	ff 0d 04 00 00
	00		 dec	 DWORD PTR ?g_kList_strCommand@@3V?$list@V?$basic_string@DU?$char_traits@D@std@@V?$allocator@D@2@@std@@V?$allocator@V?$basic_string@DU?$char_traits@D@std@@V?$allocator@D@2@@std@@@2@@std@@A+4

; 1421 :         _Pnode->_Prev->_Next = _Result;

  0000f	8b 42 04	 mov	 eax, DWORD PTR [edx+4]
  00012	89 08		 mov	 DWORD PTR [eax], ecx

; 1422 :         _Result->_Prev       = _Pnode->_Prev;

  00014	8b 42 04	 mov	 eax, DWORD PTR [edx+4]
  00017	89 41 04	 mov	 DWORD PTR [ecx+4], eax

; 1423 :         _Node::_Freenode(_Getal(), _Pnode);

  0001a	e9 00 00 00 00	 jmp	 ??$_Freenode@V?$allocator@U?$_List_node@V?$basic_string@DU?$char_traits@D@std@@V?$allocator@D@2@@std@@PAX@std@@@std@@@?$_List_node@V?$basic_string@DU?$char_traits@D@std@@V?$allocator@D@2@@std@@PAX@std@@SAXAAV?$allocator@U?$_List_node@V?$basic_string@DU?$char_traits@D@std@@V?$allocator@D@2@@std@@PAX@std@@@1@PAU01@@Z ; std::_List_node<std::basic_string<char,std::char_traits<char>,std::allocator<char> >,void *>::_Freenode<std::allocator<std::_List_node<std::basic_string<char,std::char_traits<char>,std::allocator<char> >,void *> > >
?pop_front@?$list@V?$basic_string@DU?$char_traits@D@std@@V?$allocator@D@2@@std@@V?$allocator@V?$basic_string@DU?$char_traits@D@std@@V?$allocator@D@2@@std@@@2@@std@@QAEXXZ ENDP ; std::list<std::basic_string<char,std::char_traits<char>,std::allocator<char> >,std::allocator<std::basic_string<char,std::char_traits<char>,std::allocator<char> > > >::pop_front
_TEXT	ENDS
; Function compile flags: /Ogtp
; File C:\Program Files\Microsoft Visual Studio\2022\Community\VC\Tools\MSVC\14.34.31933\include\list
;	COMDAT ?front@?$list@V?$basic_string@DU?$char_traits@D@std@@V?$allocator@D@2@@std@@V?$allocator@V?$basic_string@DU?$char_traits@D@std@@V?$allocator@D@2@@std@@@2@@std@@QAEAAV?$basic_string@DU?$char_traits@D@std@@V?$allocator@D@2@@2@XZ
_TEXT	SEGMENT
?front@?$list@V?$basic_string@DU?$char_traits@D@std@@V?$allocator@D@2@@std@@V?$allocator@V?$basic_string@DU?$char_traits@D@std@@V?$allocator@D@2@@std@@@2@@std@@QAEAAV?$basic_string@DU?$char_traits@D@std@@V?$allocator@D@2@@2@XZ PROC ; std::list<std::basic_string<char,std::char_traits<char>,std::allocator<char> >,std::allocator<std::basic_string<char,std::char_traits<char>,std::allocator<char> > > >::front, COMDAT
; _this$dead$ = ecx

; 1203 : #if _CONTAINER_DEBUG_LEVEL > 0
; 1204 :         _STL_VERIFY(_Mypair._Myval2._Mysize != 0, "front() called on empty list");
; 1205 : #endif // _CONTAINER_DEBUG_LEVEL > 0
; 1206 : 
; 1207 :         return _Mypair._Myval2._Myhead->_Next->_Myval;

  00000	a1 00 00 00 00	 mov	 eax, DWORD PTR ?g_kList_strCommand@@3V?$list@V?$basic_string@DU?$char_traits@D@std@@V?$allocator@D@2@@std@@V?$allocator@V?$basic_string@DU?$char_traits@D@std@@V?$allocator@D@2@@std@@@2@@std@@A
  00005	8b 00		 mov	 eax, DWORD PTR [eax]
  00007	83 c0 08	 add	 eax, 8

; 1208 :     }

  0000a	c3		 ret	 0
?front@?$list@V?$basic_string@DU?$char_traits@D@std@@V?$allocator@D@2@@std@@V?$allocator@V?$basic_string@DU?$char_traits@D@std@@V?$allocator@D@2@@std@@@2@@std@@QAEAAV?$basic_string@DU?$char_traits@D@std@@V?$allocator@D@2@@2@XZ ENDP ; std::list<std::basic_string<char,std::char_traits<char>,std::allocator<char> >,std::allocator<std::basic_string<char,std::char_traits<char>,std::allocator<char> > > >::front
_TEXT	ENDS
; Function compile flags: /Ogtp
; File C:\Program Files\Microsoft Visual Studio\2022\Community\VC\Tools\MSVC\14.34.31933\include\list
;	COMDAT ?empty@?$list@V?$basic_string@DU?$char_traits@D@std@@V?$allocator@D@2@@std@@V?$allocator@V?$basic_string@DU?$char_traits@D@std@@V?$allocator@D@2@@std@@@2@@std@@QBE_NXZ
_TEXT	SEGMENT
?empty@?$list@V?$basic_string@DU?$char_traits@D@std@@V?$allocator@D@2@@std@@V?$allocator@V?$basic_string@DU?$char_traits@D@std@@V?$allocator@D@2@@std@@@2@@std@@QBE_NXZ PROC ; std::list<std::basic_string<char,std::char_traits<char>,std::allocator<char> >,std::allocator<std::basic_string<char,std::char_traits<char>,std::allocator<char> > > >::empty, COMDAT
; _this$dead$ = ecx

; 1195 :         return _Mypair._Myval2._Mysize == 0;

  00000	83 3d 04 00 00
	00 00		 cmp	 DWORD PTR ?g_kList_strCommand@@3V?$list@V?$basic_string@DU?$char_traits@D@std@@V?$allocator@D@2@@std@@V?$allocator@V?$basic_string@DU?$char_traits@D@std@@V?$allocator@D@2@@std@@@2@@std@@A+4, 0
  00007	0f 94 c0	 sete	 al

; 1196 :     }

  0000a	c3		 ret	 0
?empty@?$list@V?$basic_string@DU?$char_traits@D@std@@V?$allocator@D@2@@std@@V?$allocator@V?$basic_string@DU?$char_traits@D@std@@V?$allocator@D@2@@std@@@2@@std@@QBE_NXZ ENDP ; std::list<std::basic_string<char,std::char_traits<char>,std::allocator<char> >,std::allocator<std::basic_string<char,std::char_traits<char>,std::allocator<char> > > >::empty
_TEXT	ENDS
; Function compile flags: /Ogtp
; File C:\Program Files\Microsoft Visual Studio\2022\Community\VC\Tools\MSVC\14.34.31933\include\list
; File C:\Program Files\Microsoft Visual Studio\2022\Community\VC\Tools\MSVC\14.34.31933\include\xmemory
; File C:\Program Files\Microsoft Visual Studio\2022\Community\VC\Tools\MSVC\14.34.31933\include\list
; File C:\Program Files\Microsoft Visual Studio\2022\Community\VC\Tools\MSVC\14.34.31933\include\xmemory
; File C:\Program Files\Microsoft Visual Studio\2022\Community\VC\Tools\MSVC\14.34.31933\include\xstring
; File C:\Program Files\Microsoft Visual Studio\2022\Community\VC\Tools\MSVC\14.34.31933\include\xmemory
; File C:\Program Files\Microsoft Visual Studio\2022\Community\VC\Tools\MSVC\14.34.31933\include\xstring
; File C:\Program Files\Microsoft Visual Studio\2022\Community\VC\Tools\MSVC\14.34.31933\include\list
;	COMDAT ?push_back@?$list@V?$basic_string@DU?$char_traits@D@std@@V?$allocator@D@2@@std@@V?$allocator@V?$basic_string@DU?$char_traits@D@std@@V?$allocator@D@2@@std@@@2@@std@@QAEX$$QAV?$basic_string@DU?$char_traits@D@std@@V?$allocator@D@2@@2@@Z
_TEXT	SEGMENT
__Op$2 = -20						; size = 8
__$EHRec$ = -12						; size = 12
__Val$ = 8						; size = 4
?push_back@?$list@V?$basic_string@DU?$char_traits@D@std@@V?$allocator@D@2@@std@@V?$allocator@V?$basic_string@DU?$char_traits@D@std@@V?$allocator@D@2@@std@@@2@@std@@QAEX$$QAV?$basic_string@DU?$char_traits@D@std@@V?$allocator@D@2@@2@@Z PROC ; std::list<std::basic_string<char,std::char_traits<char>,std::allocator<char> >,std::allocator<std::basic_string<char,std::char_traits<char>,std::allocator<char> > > >::push_back, COMDAT
; _this$dead$ = ecx

; 970  :     void push_back(_Ty&& _Val) { // insert element at end

  00000	55		 push	 ebp
  00001	8b ec		 mov	 ebp, esp
  00003	6a ff		 push	 -1
  00005	68 00 00 00 00	 push	 __ehhandler$?push_back@?$list@V?$basic_string@DU?$char_traits@D@std@@V?$allocator@D@2@@std@@V?$allocator@V?$basic_string@DU?$char_traits@D@std@@V?$allocator@D@2@@std@@@2@@std@@QAEX$$QAV?$basic_string@DU?$char_traits@D@std@@V?$allocator@D@2@@2@@Z
  0000a	64 a1 00 00 00
	00		 mov	 eax, DWORD PTR fs:0
  00010	50		 push	 eax
  00011	83 ec 08	 sub	 esp, 8
  00014	56		 push	 esi
  00015	a1 00 00 00 00	 mov	 eax, DWORD PTR ___security_cookie
  0001a	33 c5		 xor	 eax, ebp
  0001c	50		 push	 eax
  0001d	8d 45 f4	 lea	 eax, DWORD PTR __$EHRec$[ebp]
  00020	64 a3 00 00 00
	00		 mov	 DWORD PTR fs:0, eax

; 1012 :         if (_Mysize == max_size()) {

  00026	81 3d 04 00 00
	00 ff ff ff 07	 cmp	 DWORD PTR ?g_kList_strCommand@@3V?$list@V?$basic_string@DU?$char_traits@D@std@@V?$allocator@D@2@@std@@V?$allocator@V?$basic_string@DU?$char_traits@D@std@@V?$allocator@D@2@@std@@@2@@std@@A+4, 134217727 ; 07ffffffH

; 971  :         _Emplace(_Mypair._Myval2._Myhead, _STD move(_Val));

  00030	8b 35 00 00 00
	00		 mov	 esi, DWORD PTR ?g_kList_strCommand@@3V?$list@V?$basic_string@DU?$char_traits@D@std@@V?$allocator@D@2@@std@@V?$allocator@V?$basic_string@DU?$char_traits@D@std@@V?$allocator@D@2@@std@@@2@@std@@A

; 1012 :         if (_Mysize == max_size()) {

  00036	0f 84 80 00 00
	00		 je	 $LN136@push_back
; File C:\Program Files\Microsoft Visual Studio\2022\Community\VC\Tools\MSVC\14.34.31933\include\xmemory

; 1005 :     _CONSTEXPR20 explicit _Alloc_construct_ptr(_Alloc& _Al_) : _Al(_Al_), _Ptr(nullptr) {}

  0003c	c7 45 ec 00 00
	00 00		 mov	 DWORD PTR __Op$2[ebp], OFFSET ?g_kList_strCommand@@3V?$list@V?$basic_string@DU?$char_traits@D@std@@V?$allocator@D@2@@std@@V?$allocator@V?$basic_string@DU?$char_traits@D@std@@V?$allocator@D@2@@std@@@2@@std@@A ; g_kList_strCommand
; File C:\Program Files\Microsoft Visual Studio\2022\Community\VC\Tools\MSVC\14.34.31933\include\list

; 584  :     explicit _List_node_emplace_op2(_Alnode& _Al_, _Valtys&&... _Vals) : _Alloc_construct_ptr<_Alnode>(_Al_) {

  00043	c7 45 fc 00 00
	00 00		 mov	 DWORD PTR __$EHRec$[ebp+8], 0
; File C:\Program Files\Microsoft Visual Studio\2022\Community\VC\Tools\MSVC\14.34.31933\include\xmemory

; 77   :         return ::operator new(_Bytes);

  0004a	6a 20		 push	 32			; 00000020H

; 1012 :         _Ptr = nullptr; // if allocate throws, prevents double-free

  0004c	c7 45 f0 00 00
	00 00		 mov	 DWORD PTR __Op$2[ebp+4], 0

; 77   :         return ::operator new(_Bytes);

  00053	e8 00 00 00 00	 call	 ??2@YAPAXI@Z		; operator new
; File C:\Program Files\Microsoft Visual Studio\2022\Community\VC\Tools\MSVC\14.34.31933\include\xstring

; 3137 :         _CSTD memcpy(_My_data_mem, _Right_data_mem, _Memcpy_val_size);

  00058	8b 4d 08	 mov	 ecx, DWORD PTR __Val$[ebp]
; File C:\Program Files\Microsoft Visual Studio\2022\Community\VC\Tools\MSVC\14.34.31933\include\xmemory

; 1013 :         _Ptr = _Al.allocate(1);

  0005b	8b d0		 mov	 edx, eax
  0005d	0f 57 c0	 xorps	 xmm0, xmm0

; 77   :         return ::operator new(_Bytes);

  00060	83 c4 04	 add	 esp, 4
; File C:\Program Files\Microsoft Visual Studio\2022\Community\VC\Tools\MSVC\14.34.31933\include\xstring

; 2339 :         _CONSTEXPR20 _Bxty() noexcept : _Buf() {} // user-provided, for fancy pointers

  00063	0f 11 42 08	 movups	 XMMWORD PTR [edx+8], xmm0

; 2348 :     size_type _Mysize = 0; // current length of string

  00067	c7 42 18 00 00
	00 00		 mov	 DWORD PTR [edx+24], 0

; 2349 :     size_type _Myres  = 0; // current storage reserved for string

  0006e	c7 42 1c 00 00
	00 00		 mov	 DWORD PTR [edx+28], 0

; 3137 :         _CSTD memcpy(_My_data_mem, _Right_data_mem, _Memcpy_val_size);

  00075	0f 10 01	 movups	 xmm0, XMMWORD PTR [ecx]
  00078	0f 11 42 08	 movups	 XMMWORD PTR [edx+8], xmm0
  0007c	f3 0f 7e 41 10	 movq	 xmm0, QWORD PTR [ecx+16]
  00081	66 0f d6 42 18	 movq	 QWORD PTR [edx+24], xmm0

; 4995 :         _My_data._Mysize = 0;

  00086	c7 41 10 00 00
	00 00		 mov	 DWORD PTR [ecx+16], 0

; 4996 :         _My_data._Myres  = _BUF_SIZE - 1;

  0008d	c7 41 14 0f 00
	00 00		 mov	 DWORD PTR [ecx+20], 15	; 0000000fH

; 4997 :         _My_data._Activate_SSO_buffer();
; 4998 : 
; 4999 :         // the _Traits::assign is last so the codegen doesn't think the char write can alias this
; 5000 :         _Traits::assign(_My_data._Bx._Buf[0], _Elem());

  00094	c6 01 00	 mov	 BYTE PTR [ecx], 0
; File C:\Program Files\Microsoft Visual Studio\2022\Community\VC\Tools\MSVC\14.34.31933\include\list

; 1017 :         ++_Mysize;

  00097	ff 05 04 00 00
	00		 inc	 DWORD PTR ?g_kList_strCommand@@3V?$list@V?$basic_string@DU?$char_traits@D@std@@V?$allocator@D@2@@std@@V?$allocator@V?$basic_string@DU?$char_traits@D@std@@V?$allocator@D@2@@std@@@2@@std@@A+4

; 599  :         const pointer _Insert_after = _Insert_before->_Prev;

  0009d	8b 46 04	 mov	 eax, DWORD PTR [esi+4]

; 600  :         _Construct_in_place(this->_Ptr->_Next, _Insert_before);

  000a0	89 32		 mov	 DWORD PTR [edx], esi

; 601  :         _Construct_in_place(this->_Ptr->_Prev, _Insert_after);

  000a2	89 42 04	 mov	 DWORD PTR [edx+4], eax

; 602  :         const auto _Result    = this->_Ptr;
; 603  :         this->_Ptr            = pointer{};
; 604  :         _Insert_before->_Prev = _Result;

  000a5	89 56 04	 mov	 DWORD PTR [esi+4], edx

; 605  :         _Insert_after->_Next  = _Result;

  000a8	89 10		 mov	 DWORD PTR [eax], edx

; 972  :     }

  000aa	8b 4d f4	 mov	 ecx, DWORD PTR __$EHRec$[ebp]
  000ad	64 89 0d 00 00
	00 00		 mov	 DWORD PTR fs:0, ecx
  000b4	59		 pop	 ecx
  000b5	5e		 pop	 esi
  000b6	8b e5		 mov	 esp, ebp
  000b8	5d		 pop	 ebp
  000b9	c2 04 00	 ret	 4
$LN136@push_back:

; 1013 :             _Xlength_error("list too long");

  000bc	68 00 00 00 00	 push	 OFFSET ??_C@_0O@NKNMEGII@list?5too?5long@
  000c1	e8 00 00 00 00	 call	 ?_Xlength_error@std@@YAXPBD@Z ; std::_Xlength_error
$LN134@push_back:
  000c6	cc		 int	 3
_TEXT	ENDS
;	COMDAT text$x
text$x	SEGMENT
__unwindfunclet$?push_back@?$list@V?$basic_string@DU?$char_traits@D@std@@V?$allocator@D@2@@std@@V?$allocator@V?$basic_string@DU?$char_traits@D@std@@V?$allocator@D@2@@std@@@2@@std@@QAEX$$QAV?$basic_string@DU?$char_traits@D@std@@V?$allocator@D@2@@2@@Z$1:
  00000	8d 4d ec	 lea	 ecx, DWORD PTR __Op$2[ebp]
  00003	e9 00 00 00 00	 jmp	 ??1?$_Alloc_construct_ptr@V?$allocator@U?$_List_node@V?$basic_string@DU?$char_traits@D@std@@V?$allocator@D@2@@std@@PAX@std@@@std@@@std@@QAE@XZ ; std::_Alloc_construct_ptr<std::allocator<std::_List_node<std::basic_string<char,std::char_traits<char>,std::allocator<char> >,void *> > >::~_Alloc_construct_ptr<std::allocator<std::_List_node<std::basic_string<char,std::char_traits<char>,std::allocator<char> >,void *> > >
  00008	cc		 int	 3
  00009	cc		 int	 3
  0000a	cc		 int	 3
  0000b	cc		 int	 3
  0000c	cc		 int	 3
__ehhandler$?push_back@?$list@V?$basic_string@DU?$char_traits@D@std@@V?$allocator@D@2@@std@@V?$allocator@V?$basic_string@DU?$char_traits@D@std@@V?$allocator@D@2@@std@@@2@@std@@QAEX$$QAV?$basic_string@DU?$char_traits@D@std@@V?$allocator@D@2@@2@@Z:
  0000d	90		 npad	 1
  0000e	90		 npad	 1
  0000f	8b 54 24 08	 mov	 edx, DWORD PTR [esp+8]
  00013	8d 42 0c	 lea	 eax, DWORD PTR [edx+12]
  00016	8b 4a f0	 mov	 ecx, DWORD PTR [edx-16]
  00019	33 c8		 xor	 ecx, eax
  0001b	e8 00 00 00 00	 call	 @__security_check_cookie@4
  00020	b8 00 00 00 00	 mov	 eax, OFFSET __ehfuncinfo$?push_back@?$list@V?$basic_string@DU?$char_traits@D@std@@V?$allocator@D@2@@std@@V?$allocator@V?$basic_string@DU?$char_traits@D@std@@V?$allocator@D@2@@std@@@2@@std@@QAEX$$QAV?$basic_string@DU?$char_traits@D@std@@V?$allocator@D@2@@2@@Z
  00025	e9 00 00 00 00	 jmp	 ___CxxFrameHandler3
text$x	ENDS
?push_back@?$list@V?$basic_string@DU?$char_traits@D@std@@V?$allocator@D@2@@std@@V?$allocator@V?$basic_string@DU?$char_traits@D@std@@V?$allocator@D@2@@std@@@2@@std@@QAEX$$QAV?$basic_string@DU?$char_traits@D@std@@V?$allocator@D@2@@2@@Z ENDP ; std::list<std::basic_string<char,std::char_traits<char>,std::allocator<char> >,std::allocator<std::basic_string<char,std::char_traits<char>,std::allocator<char> > > >::push_back
; Function compile flags: /Ogtp
; File C:\Program Files\Microsoft Visual Studio\2022\Community\VC\Tools\MSVC\14.34.31933\include\list
;	COMDAT ?_Unchecked_erase@?$list@V?$basic_string@DU?$char_traits@D@std@@V?$allocator@D@2@@std@@V?$allocator@V?$basic_string@DU?$char_traits@D@std@@V?$allocator@D@2@@std@@@2@@std@@AAEPAU?$_List_node@V?$basic_string@DU?$char_traits@D@std@@V?$allocator@D@2@@std@@PAX@2@QAU32@@Z
_TEXT	SEGMENT
__Pnode$ = 8						; size = 4
?_Unchecked_erase@?$list@V?$basic_string@DU?$char_traits@D@std@@V?$allocator@D@2@@std@@V?$allocator@V?$basic_string@DU?$char_traits@D@std@@V?$allocator@D@2@@std@@@2@@std@@AAEPAU?$_List_node@V?$basic_string@DU?$char_traits@D@std@@V?$allocator@D@2@@std@@PAX@2@QAU32@@Z PROC ; std::list<std::basic_string<char,std::char_traits<char>,std::allocator<char> >,std::allocator<std::basic_string<char,std::char_traits<char>,std::allocator<char> > > >::_Unchecked_erase, COMDAT
; _this$dead$ = ecx

; 1417 :     _Nodeptr _Unchecked_erase(const _Nodeptr _Pnode) noexcept { // erase element at _Pnode

  00000	55		 push	 ebp
  00001	8b ec		 mov	 ebp, esp

; 1418 :         const auto _Result = _Pnode->_Next;

  00003	8b 55 08	 mov	 edx, DWORD PTR __Pnode$[ebp]
  00006	56		 push	 esi
  00007	8b 32		 mov	 esi, DWORD PTR [edx]

; 1419 :         _Mypair._Myval2._Orphan_ptr2(_Pnode);
; 1420 :         --_Mypair._Myval2._Mysize;

  00009	ff 0d 04 00 00
	00		 dec	 DWORD PTR ?g_kList_strCommand@@3V?$list@V?$basic_string@DU?$char_traits@D@std@@V?$allocator@D@2@@std@@V?$allocator@V?$basic_string@DU?$char_traits@D@std@@V?$allocator@D@2@@std@@@2@@std@@A+4

; 1421 :         _Pnode->_Prev->_Next = _Result;

  0000f	8b 4a 04	 mov	 ecx, DWORD PTR [edx+4]
  00012	89 31		 mov	 DWORD PTR [ecx], esi

; 1422 :         _Result->_Prev       = _Pnode->_Prev;

  00014	8b 4a 04	 mov	 ecx, DWORD PTR [edx+4]
  00017	89 4e 04	 mov	 DWORD PTR [esi+4], ecx

; 1423 :         _Node::_Freenode(_Getal(), _Pnode);

  0001a	e8 00 00 00 00	 call	 ??$_Freenode@V?$allocator@U?$_List_node@V?$basic_string@DU?$char_traits@D@std@@V?$allocator@D@2@@std@@PAX@std@@@std@@@?$_List_node@V?$basic_string@DU?$char_traits@D@std@@V?$allocator@D@2@@std@@PAX@std@@SAXAAV?$allocator@U?$_List_node@V?$basic_string@DU?$char_traits@D@std@@V?$allocator@D@2@@std@@PAX@std@@@1@PAU01@@Z ; std::_List_node<std::basic_string<char,std::char_traits<char>,std::allocator<char> >,void *>::_Freenode<std::allocator<std::_List_node<std::basic_string<char,std::char_traits<char>,std::allocator<char> >,void *> > >

; 1424 :         return _Result;

  0001f	8b c6		 mov	 eax, esi
  00021	5e		 pop	 esi

; 1425 :     }

  00022	5d		 pop	 ebp
  00023	c2 04 00	 ret	 4
?_Unchecked_erase@?$list@V?$basic_string@DU?$char_traits@D@std@@V?$allocator@D@2@@std@@V?$allocator@V?$basic_string@DU?$char_traits@D@std@@V?$allocator@D@2@@std@@@2@@std@@AAEPAU?$_List_node@V?$basic_string@DU?$char_traits@D@std@@V?$allocator@D@2@@std@@PAX@2@QAU32@@Z ENDP ; std::list<std::basic_string<char,std::char_traits<char>,std::allocator<char> >,std::allocator<std::basic_string<char,std::char_traits<char>,std::allocator<char> > > >::_Unchecked_erase
_TEXT	ENDS
; Function compile flags: /Ogtp
; File C:\Program Files\Microsoft Visual Studio\2022\Community\VC\Tools\MSVC\14.34.31933\include\list
;	COMDAT ?_Orphan_ptr2@?$_List_val@U?$_List_simple_types@V?$basic_string@DU?$char_traits@D@std@@V?$allocator@D@2@@std@@@std@@@std@@QAEXPAU?$_List_node@V?$basic_string@DU?$char_traits@D@std@@V?$allocator@D@2@@std@@PAX@2@@Z
_TEXT	SEGMENT
__Ptr$dead$ = 8						; size = 4
?_Orphan_ptr2@?$_List_val@U?$_List_simple_types@V?$basic_string@DU?$char_traits@D@std@@V?$allocator@D@2@@std@@@std@@@std@@QAEXPAU?$_List_node@V?$basic_string@DU?$char_traits@D@std@@V?$allocator@D@2@@std@@PAX@2@@Z PROC ; std::_List_val<std::_List_simple_types<std::basic_string<char,std::char_traits<char>,std::allocator<char> > > >::_Orphan_ptr2, COMDAT
; _this$dead$ = ecx

; 357  : #if _ITERATOR_DEBUG_LEVEL == 2
; 358  :         _Lockit _Lock(_LOCK_DEBUG);
; 359  :         _Iterator_base12** _Pnext = &this->_Myproxy->_Myfirstiter;
; 360  :         const auto _Head          = _Myhead;
; 361  :         while (*_Pnext) {
; 362  :             _Iterator_base12** _Pnextnext = &(*_Pnext)->_Mynextiter;
; 363  :             const auto _Pnextptr          = static_cast<_List_const_iterator<_List_val>&>(**_Pnext)._Ptr;
; 364  :             if (_Pnextptr == _Head || _Pnextptr != _Ptr) {
; 365  :                 // iterator is end() or doesn't point at the one we are orphaning, move on
; 366  :                 _Pnext = _Pnextnext;
; 367  :             } else { // orphan the iterator
; 368  :                 (*_Pnext)->_Myproxy = nullptr;
; 369  :                 *_Pnext             = *_Pnextnext;
; 370  :             }
; 371  :         }
; 372  : #else // ^^^ _ITERATOR_DEBUG_LEVEL == 2 ^^^ // vvv _ITERATOR_DEBUG_LEVEL != 2 vvv
; 373  :         (void) _Ptr;
; 374  : #endif // _ITERATOR_DEBUG_LEVEL == 2
; 375  :     }

  00000	c2 04 00	 ret	 4
?_Orphan_ptr2@?$_List_val@U?$_List_simple_types@V?$basic_string@DU?$char_traits@D@std@@V?$allocator@D@2@@std@@@std@@@std@@QAEXPAU?$_List_node@V?$basic_string@DU?$char_traits@D@std@@V?$allocator@D@2@@std@@PAX@2@@Z ENDP ; std::_List_val<std::_List_simple_types<std::basic_string<char,std::char_traits<char>,std::allocator<char> > > >::_Orphan_ptr2
_TEXT	ENDS
; Function compile flags: /Ogtp
; File C:\Program Files\Microsoft Visual Studio\2022\Community\VC\Tools\MSVC\14.34.31933\include\list
; File C:\Program Files\Microsoft Visual Studio\2022\Community\VC\Tools\MSVC\14.34.31933\include\xmemory
; File C:\Program Files\Microsoft Visual Studio\2022\Community\VC\Tools\MSVC\14.34.31933\include\list
; File C:\Program Files\Microsoft Visual Studio\2022\Community\VC\Tools\MSVC\14.34.31933\include\xmemory
; File C:\Program Files\Microsoft Visual Studio\2022\Community\VC\Tools\MSVC\14.34.31933\include\xstring
; File C:\Program Files\Microsoft Visual Studio\2022\Community\VC\Tools\MSVC\14.34.31933\include\xmemory
; File C:\Program Files\Microsoft Visual Studio\2022\Community\VC\Tools\MSVC\14.34.31933\include\xstring
; File C:\Program Files\Microsoft Visual Studio\2022\Community\VC\Tools\MSVC\14.34.31933\include\list
;	COMDAT ??$_Emplace@V?$basic_string@DU?$char_traits@D@std@@V?$allocator@D@2@@std@@@?$list@V?$basic_string@DU?$char_traits@D@std@@V?$allocator@D@2@@std@@V?$allocator@V?$basic_string@DU?$char_traits@D@std@@V?$allocator@D@2@@std@@@2@@std@@QAEPAU?$_List_node@V?$basic_string@DU?$char_traits@D@std@@V?$allocator@D@2@@std@@PAX@1@QAU21@$$QAV?$basic_string@DU?$char_traits@D@std@@V?$allocator@D@2@@1@@Z
_TEXT	SEGMENT
__Op$ = -20						; size = 8
__$EHRec$ = -12						; size = 12
__Where$ = 8						; size = 4
_<_Val_0>$ = 12						; size = 4
??$_Emplace@V?$basic_string@DU?$char_traits@D@std@@V?$allocator@D@2@@std@@@?$list@V?$basic_string@DU?$char_traits@D@std@@V?$allocator@D@2@@std@@V?$allocator@V?$basic_string@DU?$char_traits@D@std@@V?$allocator@D@2@@std@@@2@@std@@QAEPAU?$_List_node@V?$basic_string@DU?$char_traits@D@std@@V?$allocator@D@2@@std@@PAX@1@QAU21@$$QAV?$basic_string@DU?$char_traits@D@std@@V?$allocator@D@2@@1@@Z PROC ; std::list<std::basic_string<char,std::char_traits<char>,std::allocator<char> >,std::allocator<std::basic_string<char,std::char_traits<char>,std::allocator<char> > > >::_Emplace<std::basic_string<char,std::char_traits<char>,std::allocator<char> > >, COMDAT
; _this$dead$ = ecx

; 1010 :     _Nodeptr _Emplace(const _Nodeptr _Where, _Valty&&... _Val) { // insert element at _Where

  00000	55		 push	 ebp
  00001	8b ec		 mov	 ebp, esp
  00003	6a ff		 push	 -1
  00005	68 00 00 00 00	 push	 __ehhandler$??$_Emplace@V?$basic_string@DU?$char_traits@D@std@@V?$allocator@D@2@@std@@@?$list@V?$basic_string@DU?$char_traits@D@std@@V?$allocator@D@2@@std@@V?$allocator@V?$basic_string@DU?$char_traits@D@std@@V?$allocator@D@2@@std@@@2@@std@@QAEPAU?$_List_node@V?$basic_string@DU?$char_traits@D@std@@V?$allocator@D@2@@std@@PAX@1@QAU21@$$QAV?$basic_string@DU?$char_traits@D@std@@V?$allocator@D@2@@1@@Z
  0000a	64 a1 00 00 00
	00		 mov	 eax, DWORD PTR fs:0
  00010	50		 push	 eax
  00011	83 ec 08	 sub	 esp, 8
  00014	a1 00 00 00 00	 mov	 eax, DWORD PTR ___security_cookie
  00019	33 c5		 xor	 eax, ebp
  0001b	50		 push	 eax
  0001c	8d 45 f4	 lea	 eax, DWORD PTR __$EHRec$[ebp]
  0001f	64 a3 00 00 00
	00		 mov	 DWORD PTR fs:0, eax

; 1011 :         size_type& _Mysize = _Mypair._Myval2._Mysize;
; 1012 :         if (_Mysize == max_size()) {

  00025	81 3d 04 00 00
	00 ff ff ff 07	 cmp	 DWORD PTR ?g_kList_strCommand@@3V?$list@V?$basic_string@DU?$char_traits@D@std@@V?$allocator@D@2@@std@@V?$allocator@V?$basic_string@DU?$char_traits@D@std@@V?$allocator@D@2@@std@@@2@@std@@A+4, 134217727 ; 07ffffffH
  0002f	0f 84 84 00 00
	00		 je	 $LN133@Emplace
; File C:\Program Files\Microsoft Visual Studio\2022\Community\VC\Tools\MSVC\14.34.31933\include\xmemory

; 1005 :     _CONSTEXPR20 explicit _Alloc_construct_ptr(_Alloc& _Al_) : _Al(_Al_), _Ptr(nullptr) {}

  00035	c7 45 ec 00 00
	00 00		 mov	 DWORD PTR __Op$[ebp], OFFSET ?g_kList_strCommand@@3V?$list@V?$basic_string@DU?$char_traits@D@std@@V?$allocator@D@2@@std@@V?$allocator@V?$basic_string@DU?$char_traits@D@std@@V?$allocator@D@2@@std@@@2@@std@@A ; g_kList_strCommand
; File C:\Program Files\Microsoft Visual Studio\2022\Community\VC\Tools\MSVC\14.34.31933\include\list

; 584  :     explicit _List_node_emplace_op2(_Alnode& _Al_, _Valtys&&... _Vals) : _Alloc_construct_ptr<_Alnode>(_Al_) {

  0003c	c7 45 fc 00 00
	00 00		 mov	 DWORD PTR __$EHRec$[ebp+8], 0
; File C:\Program Files\Microsoft Visual Studio\2022\Community\VC\Tools\MSVC\14.34.31933\include\xmemory

; 77   :         return ::operator new(_Bytes);

  00043	6a 20		 push	 32			; 00000020H

; 1012 :         _Ptr = nullptr; // if allocate throws, prevents double-free

  00045	c7 45 f0 00 00
	00 00		 mov	 DWORD PTR __Op$[ebp+4], 0

; 77   :         return ::operator new(_Bytes);

  0004c	e8 00 00 00 00	 call	 ??2@YAPAXI@Z		; operator new
; File C:\Program Files\Microsoft Visual Studio\2022\Community\VC\Tools\MSVC\14.34.31933\include\xstring

; 3137 :         _CSTD memcpy(_My_data_mem, _Right_data_mem, _Memcpy_val_size);

  00051	8b 4d 0c	 mov	 ecx, DWORD PTR _<_Val_0>$[ebp]
; File C:\Program Files\Microsoft Visual Studio\2022\Community\VC\Tools\MSVC\14.34.31933\include\xmemory

; 1013 :         _Ptr = _Al.allocate(1);

  00054	8b d0		 mov	 edx, eax
  00056	0f 57 c0	 xorps	 xmm0, xmm0

; 77   :         return ::operator new(_Bytes);

  00059	83 c4 04	 add	 esp, 4
; File C:\Program Files\Microsoft Visual Studio\2022\Community\VC\Tools\MSVC\14.34.31933\include\xstring

; 2339 :         _CONSTEXPR20 _Bxty() noexcept : _Buf() {} // user-provided, for fancy pointers

  0005c	0f 11 42 08	 movups	 XMMWORD PTR [edx+8], xmm0

; 2348 :     size_type _Mysize = 0; // current length of string

  00060	c7 42 18 00 00
	00 00		 mov	 DWORD PTR [edx+24], 0

; 2349 :     size_type _Myres  = 0; // current storage reserved for string

  00067	c7 42 1c 00 00
	00 00		 mov	 DWORD PTR [edx+28], 0

; 3137 :         _CSTD memcpy(_My_data_mem, _Right_data_mem, _Memcpy_val_size);

  0006e	0f 10 01	 movups	 xmm0, XMMWORD PTR [ecx]
  00071	0f 11 42 08	 movups	 XMMWORD PTR [edx+8], xmm0
  00075	f3 0f 7e 41 10	 movq	 xmm0, QWORD PTR [ecx+16]
  0007a	66 0f d6 42 18	 movq	 QWORD PTR [edx+24], xmm0

; 4995 :         _My_data._Mysize = 0;

  0007f	c7 41 10 00 00
	00 00		 mov	 DWORD PTR [ecx+16], 0

; 4996 :         _My_data._Myres  = _BUF_SIZE - 1;

  00086	c7 41 14 0f 00
	00 00		 mov	 DWORD PTR [ecx+20], 15	; 0000000fH

; 4997 :         _My_data._Activate_SSO_buffer();
; 4998 : 
; 4999 :         // the _Traits::assign is last so the codegen doesn't think the char write can alias this
; 5000 :         _Traits::assign(_My_data._Bx._Buf[0], _Elem());

  0008d	c6 01 00	 mov	 BYTE PTR [ecx], 0
; File C:\Program Files\Microsoft Visual Studio\2022\Community\VC\Tools\MSVC\14.34.31933\include\list

; 599  :         const pointer _Insert_after = _Insert_before->_Prev;

  00090	8b 4d 08	 mov	 ecx, DWORD PTR __Where$[ebp]

; 1014 :         }
; 1015 : 
; 1016 :         _List_node_emplace_op2<_Alnode> _Op{_Getal(), _STD forward<_Valty>(_Val)...};
; 1017 :         ++_Mysize;

  00093	ff 05 04 00 00
	00		 inc	 DWORD PTR ?g_kList_strCommand@@3V?$list@V?$basic_string@DU?$char_traits@D@std@@V?$allocator@D@2@@std@@V?$allocator@V?$basic_string@DU?$char_traits@D@std@@V?$allocator@D@2@@std@@@2@@std@@A+4

; 599  :         const pointer _Insert_after = _Insert_before->_Prev;

  00099	8b 41 04	 mov	 eax, DWORD PTR [ecx+4]

; 600  :         _Construct_in_place(this->_Ptr->_Next, _Insert_before);

  0009c	89 0a		 mov	 DWORD PTR [edx], ecx

; 601  :         _Construct_in_place(this->_Ptr->_Prev, _Insert_after);

  0009e	89 42 04	 mov	 DWORD PTR [edx+4], eax

; 602  :         const auto _Result    = this->_Ptr;
; 603  :         this->_Ptr            = pointer{};
; 604  :         _Insert_before->_Prev = _Result;

  000a1	89 51 04	 mov	 DWORD PTR [ecx+4], edx

; 605  :         _Insert_after->_Next  = _Result;

  000a4	89 10		 mov	 DWORD PTR [eax], edx

; 1018 :         return _Op._Transfer_before(_Where);

  000a6	8b c2		 mov	 eax, edx

; 1019 :     }

  000a8	8b 4d f4	 mov	 ecx, DWORD PTR __$EHRec$[ebp]
  000ab	64 89 0d 00 00
	00 00		 mov	 DWORD PTR fs:0, ecx
  000b2	59		 pop	 ecx
  000b3	8b e5		 mov	 esp, ebp
  000b5	5d		 pop	 ebp
  000b6	c2 08 00	 ret	 8
$LN133@Emplace:

; 1013 :             _Xlength_error("list too long");

  000b9	68 00 00 00 00	 push	 OFFSET ??_C@_0O@NKNMEGII@list?5too?5long@
  000be	e8 00 00 00 00	 call	 ?_Xlength_error@std@@YAXPBD@Z ; std::_Xlength_error
$LN131@Emplace:
  000c3	cc		 int	 3
_TEXT	ENDS
;	COMDAT text$x
text$x	SEGMENT
__unwindfunclet$??$_Emplace@V?$basic_string@DU?$char_traits@D@std@@V?$allocator@D@2@@std@@@?$list@V?$basic_string@DU?$char_traits@D@std@@V?$allocator@D@2@@std@@V?$allocator@V?$basic_string@DU?$char_traits@D@std@@V?$allocator@D@2@@std@@@2@@std@@QAEPAU?$_List_node@V?$basic_string@DU?$char_traits@D@std@@V?$allocator@D@2@@std@@PAX@1@QAU21@$$QAV?$basic_string@DU?$char_traits@D@std@@V?$allocator@D@2@@1@@Z$1:
  00000	8d 4d ec	 lea	 ecx, DWORD PTR __Op$[ebp]
  00003	e9 00 00 00 00	 jmp	 ??1?$_Alloc_construct_ptr@V?$allocator@U?$_List_node@V?$basic_string@DU?$char_traits@D@std@@V?$allocator@D@2@@std@@PAX@std@@@std@@@std@@QAE@XZ ; std::_Alloc_construct_ptr<std::allocator<std::_List_node<std::basic_string<char,std::char_traits<char>,std::allocator<char> >,void *> > >::~_Alloc_construct_ptr<std::allocator<std::_List_node<std::basic_string<char,std::char_traits<char>,std::allocator<char> >,void *> > >
  00008	cc		 int	 3
  00009	cc		 int	 3
  0000a	cc		 int	 3
  0000b	cc		 int	 3
  0000c	cc		 int	 3
__ehhandler$??$_Emplace@V?$basic_string@DU?$char_traits@D@std@@V?$allocator@D@2@@std@@@?$list@V?$basic_string@DU?$char_traits@D@std@@V?$allocator@D@2@@std@@V?$allocator@V?$basic_string@DU?$char_traits@D@std@@V?$allocator@D@2@@std@@@2@@std@@QAEPAU?$_List_node@V?$basic_string@DU?$char_traits@D@std@@V?$allocator@D@2@@std@@PAX@1@QAU21@$$QAV?$basic_string@DU?$char_traits@D@std@@V?$allocator@D@2@@1@@Z:
  0000d	90		 npad	 1
  0000e	90		 npad	 1
  0000f	8b 54 24 08	 mov	 edx, DWORD PTR [esp+8]
  00013	8d 42 0c	 lea	 eax, DWORD PTR [edx+12]
  00016	8b 4a f4	 mov	 ecx, DWORD PTR [edx-12]
  00019	33 c8		 xor	 ecx, eax
  0001b	e8 00 00 00 00	 call	 @__security_check_cookie@4
  00020	b8 00 00 00 00	 mov	 eax, OFFSET __ehfuncinfo$??$_Emplace@V?$basic_string@DU?$char_traits@D@std@@V?$allocator@D@2@@std@@@?$list@V?$basic_string@DU?$char_traits@D@std@@V?$allocator@D@2@@std@@V?$allocator@V?$basic_string@DU?$char_traits@D@std@@V?$allocator@D@2@@std@@@2@@std@@QAEPAU?$_List_node@V?$basic_string@DU?$char_traits@D@std@@V?$allocator@D@2@@std@@PAX@1@QAU21@$$QAV?$basic_string@DU?$char_traits@D@std@@V?$allocator@D@2@@1@@Z
  00025	e9 00 00 00 00	 jmp	 ___CxxFrameHandler3
text$x	ENDS
??$_Emplace@V?$basic_string@DU?$char_traits@D@std@@V?$allocator@D@2@@std@@@?$list@V?$basic_string@DU?$char_traits@D@std@@V?$allocator@D@2@@std@@V?$allocator@V?$basic_string@DU?$char_traits@D@std@@V?$allocator@D@2@@std@@@2@@std@@QAEPAU?$_List_node@V?$basic_string@DU?$char_traits@D@std@@V?$allocator@D@2@@std@@PAX@1@QAU21@$$QAV?$basic_string@DU?$char_traits@D@std@@V?$allocator@D@2@@1@@Z ENDP ; std::list<std::basic_string<char,std::char_traits<char>,std::allocator<char> >,std::allocator<std::basic_string<char,std::char_traits<char>,std::allocator<char> > > >::_Emplace<std::basic_string<char,std::char_traits<char>,std::allocator<char> > >
; Function compile flags: /Ogtp
; File C:\Program Files\Microsoft Visual Studio\2022\Community\VC\Tools\MSVC\14.34.31933\include\list
; File C:\Program Files\Microsoft Visual Studio\2022\Community\VC\Tools\MSVC\14.34.31933\include\xmemory
; File C:\Program Files\Microsoft Visual Studio\2022\Community\VC\Tools\MSVC\14.34.31933\include\list
; File C:\Program Files\Microsoft Visual Studio\2022\Community\VC\Tools\MSVC\14.34.31933\include\xmemory
; File C:\Program Files\Microsoft Visual Studio\2022\Community\VC\Tools\MSVC\14.34.31933\include\xstring
; File C:\Program Files\Microsoft Visual Studio\2022\Community\VC\Tools\MSVC\14.34.31933\include\xmemory
; File C:\Program Files\Microsoft Visual Studio\2022\Community\VC\Tools\MSVC\14.34.31933\include\xstring
; File C:\Program Files\Microsoft Visual Studio\2022\Community\VC\Tools\MSVC\14.34.31933\include\list
; File C:\Program Files\Microsoft Visual Studio\2022\Community\VC\Tools\MSVC\14.34.31933\include\xstring
; File C:\Program Files\Microsoft Visual Studio\2022\Community\VC\Tools\MSVC\14.34.31933\include\list
;	COMDAT ??$?0V?$basic_string@DU?$char_traits@D@std@@V?$allocator@D@2@@std@@@?$_List_node_emplace_op2@V?$allocator@U?$_List_node@V?$basic_string@DU?$char_traits@D@std@@V?$allocator@D@2@@std@@PAX@std@@@std@@@std@@QAE@AAV?$allocator@U?$_List_node@V?$basic_string@DU?$char_traits@D@std@@V?$allocator@D@2@@std@@PAX@std@@@1@$$QAV?$basic_string@DU?$char_traits@D@std@@V?$allocator@D@2@@1@@Z
_TEXT	SEGMENT
_this$ = -16						; size = 4
__$EHRec$ = -12						; size = 12
__Al_$ = 8						; size = 4
_<_Vals_0>$ = 12					; size = 4
??$?0V?$basic_string@DU?$char_traits@D@std@@V?$allocator@D@2@@std@@@?$_List_node_emplace_op2@V?$allocator@U?$_List_node@V?$basic_string@DU?$char_traits@D@std@@V?$allocator@D@2@@std@@PAX@std@@@std@@@std@@QAE@AAV?$allocator@U?$_List_node@V?$basic_string@DU?$char_traits@D@std@@V?$allocator@D@2@@std@@PAX@std@@@1@$$QAV?$basic_string@DU?$char_traits@D@std@@V?$allocator@D@2@@1@@Z PROC ; std::_List_node_emplace_op2<std::allocator<std::_List_node<std::basic_string<char,std::char_traits<char>,std::allocator<char> >,void *> > >::_List_node_emplace_op2<std::allocator<std::_List_node<std::basic_string<char,std::char_traits<char>,std::allocator<char> >,void *> > ><std::basic_string<char,std::char_traits<char>,std::allocator<char> > >, COMDAT
; _this$ = ecx

; 584  :     explicit _List_node_emplace_op2(_Alnode& _Al_, _Valtys&&... _Vals) : _Alloc_construct_ptr<_Alnode>(_Al_) {

  00000	55		 push	 ebp
  00001	8b ec		 mov	 ebp, esp
  00003	6a ff		 push	 -1
  00005	68 00 00 00 00	 push	 __ehhandler$??$?0V?$basic_string@DU?$char_traits@D@std@@V?$allocator@D@2@@std@@@?$_List_node_emplace_op2@V?$allocator@U?$_List_node@V?$basic_string@DU?$char_traits@D@std@@V?$allocator@D@2@@std@@PAX@std@@@std@@@std@@QAE@AAV?$allocator@U?$_List_node@V?$basic_string@DU?$char_traits@D@std@@V?$allocator@D@2@@std@@PAX@std@@@1@$$QAV?$basic_string@DU?$char_traits@D@std@@V?$allocator@D@2@@1@@Z
  0000a	64 a1 00 00 00
	00		 mov	 eax, DWORD PTR fs:0
  00010	50		 push	 eax
  00011	51		 push	 ecx
  00012	56		 push	 esi
  00013	a1 00 00 00 00	 mov	 eax, DWORD PTR ___security_cookie
  00018	33 c5		 xor	 eax, ebp
  0001a	50		 push	 eax
  0001b	8d 45 f4	 lea	 eax, DWORD PTR __$EHRec$[ebp]
  0001e	64 a3 00 00 00
	00		 mov	 DWORD PTR fs:0, eax
  00024	8b f1		 mov	 esi, ecx
  00026	89 75 f0	 mov	 DWORD PTR _this$[ebp], esi
; File C:\Program Files\Microsoft Visual Studio\2022\Community\VC\Tools\MSVC\14.34.31933\include\xmemory

; 1005 :     _CONSTEXPR20 explicit _Alloc_construct_ptr(_Alloc& _Al_) : _Al(_Al_), _Ptr(nullptr) {}

  00029	8b 45 08	 mov	 eax, DWORD PTR __Al_$[ebp]
  0002c	89 06		 mov	 DWORD PTR [esi], eax
  0002e	c7 46 04 00 00
	00 00		 mov	 DWORD PTR [esi+4], 0
; File C:\Program Files\Microsoft Visual Studio\2022\Community\VC\Tools\MSVC\14.34.31933\include\list

; 584  :     explicit _List_node_emplace_op2(_Alnode& _Al_, _Valtys&&... _Vals) : _Alloc_construct_ptr<_Alnode>(_Al_) {

  00035	c7 45 fc 00 00
	00 00		 mov	 DWORD PTR __$EHRec$[ebp+8], 0
; File C:\Program Files\Microsoft Visual Studio\2022\Community\VC\Tools\MSVC\14.34.31933\include\xmemory

; 77   :         return ::operator new(_Bytes);

  0003c	6a 20		 push	 32			; 00000020H

; 1012 :         _Ptr = nullptr; // if allocate throws, prevents double-free

  0003e	c7 46 04 00 00
	00 00		 mov	 DWORD PTR [esi+4], 0

; 77   :         return ::operator new(_Bytes);

  00045	e8 00 00 00 00	 call	 ??2@YAPAXI@Z		; operator new
; File C:\Program Files\Microsoft Visual Studio\2022\Community\VC\Tools\MSVC\14.34.31933\include\xstring

; 3137 :         _CSTD memcpy(_My_data_mem, _Right_data_mem, _Memcpy_val_size);

  0004a	8b 4d 0c	 mov	 ecx, DWORD PTR _<_Vals_0>$[ebp]
  0004d	0f 57 c0	 xorps	 xmm0, xmm0
; File C:\Program Files\Microsoft Visual Studio\2022\Community\VC\Tools\MSVC\14.34.31933\include\xmemory

; 1013 :         _Ptr = _Al.allocate(1);

  00050	89 46 04	 mov	 DWORD PTR [esi+4], eax

; 77   :         return ::operator new(_Bytes);

  00053	83 c4 04	 add	 esp, 4
; File C:\Program Files\Microsoft Visual Studio\2022\Community\VC\Tools\MSVC\14.34.31933\include\xstring

; 2339 :         _CONSTEXPR20 _Bxty() noexcept : _Buf() {} // user-provided, for fancy pointers

  00056	0f 11 40 08	 movups	 XMMWORD PTR [eax+8], xmm0

; 2348 :     size_type _Mysize = 0; // current length of string

  0005a	c7 40 18 00 00
	00 00		 mov	 DWORD PTR [eax+24], 0

; 2349 :     size_type _Myres  = 0; // current storage reserved for string

  00061	c7 40 1c 00 00
	00 00		 mov	 DWORD PTR [eax+28], 0

; 3137 :         _CSTD memcpy(_My_data_mem, _Right_data_mem, _Memcpy_val_size);

  00068	0f 10 01	 movups	 xmm0, XMMWORD PTR [ecx]
  0006b	0f 11 40 08	 movups	 XMMWORD PTR [eax+8], xmm0
  0006f	f3 0f 7e 41 10	 movq	 xmm0, QWORD PTR [ecx+16]
  00074	66 0f d6 40 18	 movq	 QWORD PTR [eax+24], xmm0
; File C:\Program Files\Microsoft Visual Studio\2022\Community\VC\Tools\MSVC\14.34.31933\include\list

; 587  :     }

  00079	8b c6		 mov	 eax, esi
; File C:\Program Files\Microsoft Visual Studio\2022\Community\VC\Tools\MSVC\14.34.31933\include\xstring

; 4995 :         _My_data._Mysize = 0;

  0007b	c7 41 10 00 00
	00 00		 mov	 DWORD PTR [ecx+16], 0

; 4996 :         _My_data._Myres  = _BUF_SIZE - 1;

  00082	c7 41 14 0f 00
	00 00		 mov	 DWORD PTR [ecx+20], 15	; 0000000fH

; 4997 :         _My_data._Activate_SSO_buffer();
; 4998 : 
; 4999 :         // the _Traits::assign is last so the codegen doesn't think the char write can alias this
; 5000 :         _Traits::assign(_My_data._Bx._Buf[0], _Elem());

  00089	c6 01 00	 mov	 BYTE PTR [ecx], 0
; File C:\Program Files\Microsoft Visual Studio\2022\Community\VC\Tools\MSVC\14.34.31933\include\list

; 587  :     }

  0008c	8b 4d f4	 mov	 ecx, DWORD PTR __$EHRec$[ebp]
  0008f	64 89 0d 00 00
	00 00		 mov	 DWORD PTR fs:0, ecx
  00096	59		 pop	 ecx
  00097	5e		 pop	 esi
  00098	8b e5		 mov	 esp, ebp
  0009a	5d		 pop	 ebp
  0009b	c2 08 00	 ret	 8
_TEXT	ENDS
;	COMDAT text$x
text$x	SEGMENT
__unwindfunclet$??$?0V?$basic_string@DU?$char_traits@D@std@@V?$allocator@D@2@@std@@@?$_List_node_emplace_op2@V?$allocator@U?$_List_node@V?$basic_string@DU?$char_traits@D@std@@V?$allocator@D@2@@std@@PAX@std@@@std@@@std@@QAE@AAV?$allocator@U?$_List_node@V?$basic_string@DU?$char_traits@D@std@@V?$allocator@D@2@@std@@PAX@std@@@1@$$QAV?$basic_string@DU?$char_traits@D@std@@V?$allocator@D@2@@1@@Z$0:
  00000	8b 4d f0	 mov	 ecx, DWORD PTR _this$[ebp]
  00003	e9 00 00 00 00	 jmp	 ??1?$_Alloc_construct_ptr@V?$allocator@U?$_List_node@V?$basic_string@DU?$char_traits@D@std@@V?$allocator@D@2@@std@@PAX@std@@@std@@@std@@QAE@XZ ; std::_Alloc_construct_ptr<std::allocator<std::_List_node<std::basic_string<char,std::char_traits<char>,std::allocator<char> >,void *> > >::~_Alloc_construct_ptr<std::allocator<std::_List_node<std::basic_string<char,std::char_traits<char>,std::allocator<char> >,void *> > >
  00008	cc		 int	 3
  00009	cc		 int	 3
  0000a	cc		 int	 3
  0000b	cc		 int	 3
  0000c	cc		 int	 3
__ehhandler$??$?0V?$basic_string@DU?$char_traits@D@std@@V?$allocator@D@2@@std@@@?$_List_node_emplace_op2@V?$allocator@U?$_List_node@V?$basic_string@DU?$char_traits@D@std@@V?$allocator@D@2@@std@@PAX@std@@@std@@@std@@QAE@AAV?$allocator@U?$_List_node@V?$basic_string@DU?$char_traits@D@std@@V?$allocator@D@2@@std@@PAX@std@@@1@$$QAV?$basic_string@DU?$char_traits@D@std@@V?$allocator@D@2@@1@@Z:
  0000d	90		 npad	 1
  0000e	90		 npad	 1
  0000f	8b 54 24 08	 mov	 edx, DWORD PTR [esp+8]
  00013	8d 42 0c	 lea	 eax, DWORD PTR [edx+12]
  00016	8b 4a f4	 mov	 ecx, DWORD PTR [edx-12]
  00019	33 c8		 xor	 ecx, eax
  0001b	e8 00 00 00 00	 call	 @__security_check_cookie@4
  00020	b8 00 00 00 00	 mov	 eax, OFFSET __ehfuncinfo$??$?0V?$basic_string@DU?$char_traits@D@std@@V?$allocator@D@2@@std@@@?$_List_node_emplace_op2@V?$allocator@U?$_List_node@V?$basic_string@DU?$char_traits@D@std@@V?$allocator@D@2@@std@@PAX@std@@@std@@@std@@QAE@AAV?$allocator@U?$_List_node@V?$basic_string@DU?$char_traits@D@std@@V?$allocator@D@2@@std@@PAX@std@@@1@$$QAV?$basic_string@DU?$char_traits@D@std@@V?$allocator@D@2@@1@@Z
  00025	e9 00 00 00 00	 jmp	 ___CxxFrameHandler3
text$x	ENDS
??$?0V?$basic_string@DU?$char_traits@D@std@@V?$allocator@D@2@@std@@@?$_List_node_emplace_op2@V?$allocator@U?$_List_node@V?$basic_string@DU?$char_traits@D@std@@V?$allocator@D@2@@std@@PAX@std@@@std@@@std@@QAE@AAV?$allocator@U?$_List_node@V?$basic_string@DU?$char_traits@D@std@@V?$allocator@D@2@@std@@PAX@std@@@1@$$QAV?$basic_string@DU?$char_traits@D@std@@V?$allocator@D@2@@1@@Z ENDP ; std::_List_node_emplace_op2<std::allocator<std::_List_node<std::basic_string<char,std::char_traits<char>,std::allocator<char> >,void *> > >::_List_node_emplace_op2<std::allocator<std::_List_node<std::basic_string<char,std::char_traits<char>,std::allocator<char> >,void *> > ><std::basic_string<char,std::char_traits<char>,std::allocator<char> > >
; Function compile flags: /Ogtp
; File C:\Program Files\Microsoft Visual Studio\2022\Community\VC\Tools\MSVC\14.34.31933\include\xmemory
; File C:\Program Files\Microsoft Visual Studio\2022\Community\VC\Tools\MSVC\14.34.31933\include\xstring
; File C:\Program Files\Microsoft Visual Studio\2022\Community\VC\Tools\MSVC\14.34.31933\include\xmemory
;	COMDAT ??$construct@V?$basic_string@DU?$char_traits@D@std@@V?$allocator@D@2@@std@@V12@@?$_Default_allocator_traits@V?$allocator@U?$_List_node@V?$basic_string@DU?$char_traits@D@std@@V?$allocator@D@2@@std@@PAX@std@@@std@@@std@@SAXAAV?$allocator@U?$_List_node@V?$basic_string@DU?$char_traits@D@std@@V?$allocator@D@2@@std@@PAX@std@@@1@QAV?$basic_string@DU?$char_traits@D@std@@V?$allocator@D@2@@1@$$QAV31@@Z
_TEXT	SEGMENT
_<_Args_0>$ = 8						; size = 4
??$construct@V?$basic_string@DU?$char_traits@D@std@@V?$allocator@D@2@@std@@V12@@?$_Default_allocator_traits@V?$allocator@U?$_List_node@V?$basic_string@DU?$char_traits@D@std@@V?$allocator@D@2@@std@@PAX@std@@@std@@@std@@SAXAAV?$allocator@U?$_List_node@V?$basic_string@DU?$char_traits@D@std@@V?$allocator@D@2@@std@@PAX@std@@@1@QAV?$basic_string@DU?$char_traits@D@std@@V?$allocator@D@2@@1@$$QAV31@@Z PROC ; std::_Default_allocator_traits<std::allocator<std::_List_node<std::basic_string<char,std::char_traits<char>,std::allocator<char> >,void *> > >::construct<std::basic_string<char,std::char_traits<char>,std::allocator<char> >,std::basic_string<char,std::char_traits<char>,std::allocator<char> > >, COMDAT
; ___formal$dead$ = ecx
; __Ptr$ = edx

; 673  :     static _CONSTEXPR20 void construct(_Alloc&, _Objty* const _Ptr, _Types&&... _Args) {

  00000	55		 push	 ebp
  00001	8b ec		 mov	 ebp, esp
; File C:\Program Files\Microsoft Visual Studio\2022\Community\VC\Tools\MSVC\14.34.31933\include\xstring

; 3137 :         _CSTD memcpy(_My_data_mem, _Right_data_mem, _Memcpy_val_size);

  00003	8b 45 08	 mov	 eax, DWORD PTR _<_Args_0>$[ebp]
  00006	0f 57 c0	 xorps	 xmm0, xmm0

; 2339 :         _CONSTEXPR20 _Bxty() noexcept : _Buf() {} // user-provided, for fancy pointers

  00009	0f 11 02	 movups	 XMMWORD PTR [edx], xmm0

; 2348 :     size_type _Mysize = 0; // current length of string

  0000c	c7 42 10 00 00
	00 00		 mov	 DWORD PTR [edx+16], 0

; 2349 :     size_type _Myres  = 0; // current storage reserved for string

  00013	c7 42 14 00 00
	00 00		 mov	 DWORD PTR [edx+20], 0

; 3137 :         _CSTD memcpy(_My_data_mem, _Right_data_mem, _Memcpy_val_size);

  0001a	0f 10 00	 movups	 xmm0, XMMWORD PTR [eax]
  0001d	0f 11 02	 movups	 XMMWORD PTR [edx], xmm0
  00020	f3 0f 7e 40 10	 movq	 xmm0, QWORD PTR [eax+16]
  00025	66 0f d6 42 10	 movq	 QWORD PTR [edx+16], xmm0

; 4995 :         _My_data._Mysize = 0;

  0002a	c7 40 10 00 00
	00 00		 mov	 DWORD PTR [eax+16], 0

; 4996 :         _My_data._Myres  = _BUF_SIZE - 1;

  00031	c7 40 14 0f 00
	00 00		 mov	 DWORD PTR [eax+20], 15	; 0000000fH

; 4997 :         _My_data._Activate_SSO_buffer();
; 4998 : 
; 4999 :         // the _Traits::assign is last so the codegen doesn't think the char write can alias this
; 5000 :         _Traits::assign(_My_data._Bx._Buf[0], _Elem());

  00038	c6 00 00	 mov	 BYTE PTR [eax], 0
; File C:\Program Files\Microsoft Visual Studio\2022\Community\VC\Tools\MSVC\14.34.31933\include\xmemory

; 682  :     }

  0003b	5d		 pop	 ebp
  0003c	c3		 ret	 0
??$construct@V?$basic_string@DU?$char_traits@D@std@@V?$allocator@D@2@@std@@V12@@?$_Default_allocator_traits@V?$allocator@U?$_List_node@V?$basic_string@DU?$char_traits@D@std@@V?$allocator@D@2@@std@@PAX@std@@@std@@@std@@SAXAAV?$allocator@U?$_List_node@V?$basic_string@DU?$char_traits@D@std@@V?$allocator@D@2@@std@@PAX@std@@@1@QAV?$basic_string@DU?$char_traits@D@std@@V?$allocator@D@2@@1@$$QAV31@@Z ENDP ; std::_Default_allocator_traits<std::allocator<std::_List_node<std::basic_string<char,std::char_traits<char>,std::allocator<char> >,void *> > >::construct<std::basic_string<char,std::char_traits<char>,std::allocator<char> >,std::basic_string<char,std::char_traits<char>,std::allocator<char> > >
_TEXT	ENDS
; Function compile flags: /Ogtp
; File E:\Metin2_server\SolWayneSF v6\ClientVS22\source\UserInterface\GameType.h
;	COMDAT ??0SItemPos@@QAE@EG@Z
_TEXT	SEGMENT
__window_type$ = 8					; size = 1
__cell$ = 12						; size = 2
??0SItemPos@@QAE@EG@Z PROC				; SItemPos::SItemPos, COMDAT
; _this$ = ecx

; 204  : 	SItemPos (BYTE _window_type, WORD _cell)

  00000	55		 push	 ebp
  00001	8b ec		 mov	 ebp, esp

; 205  :     {
; 206  :         window_type = _window_type;

  00003	8a 45 08	 mov	 al, BYTE PTR __window_type$[ebp]
  00006	88 01		 mov	 BYTE PTR [ecx], al

; 207  :         cell = _cell;

  00008	66 8b 45 0c	 mov	 ax, WORD PTR __cell$[ebp]
  0000c	66 89 41 01	 mov	 WORD PTR [ecx+1], ax

; 208  :     }

  00010	8b c1		 mov	 eax, ecx
  00012	5d		 pop	 ebp
  00013	c2 08 00	 ret	 8
??0SItemPos@@QAE@EG@Z ENDP				; SItemPos::SItemPos
_TEXT	ENDS
; Function compile flags: /Ogtp
; File E:\Metin2_server\SolWayneSF v6\ClientVS22\source\UserInterface\GameType.h
;	COMDAT ??0SItemPos@@QAE@XZ
_TEXT	SEGMENT
??0SItemPos@@QAE@XZ PROC				; SItemPos::SItemPos, COMDAT
; _this$ = ecx

; 200  :     {
; 201  : 		window_type =     INVENTORY;
; 202  : 		cell = WORD_MAX;

  00000	b8 ff ff 00 00	 mov	 eax, 65535		; 0000ffffH
  00005	c6 01 01	 mov	 BYTE PTR [ecx], 1
  00008	66 89 41 01	 mov	 WORD PTR [ecx+1], ax

; 203  :     }

  0000c	8b c1		 mov	 eax, ecx
  0000e	c3		 ret	 0
??0SItemPos@@QAE@XZ ENDP				; SItemPos::SItemPos
_TEXT	ENDS
END
