; Listing generated by Microsoft (R) Optimizing Compiler Version 19.34.31937.0 

	TITLE	e:\metin2_server\solwaynesf v6\clientvs22\vs_files\userinterface\distribute\pythonnetworkstream.obj
	.686P
	.XMM
	include listing.inc
	.model	flat

INCLUDELIB OLDNAMES

PUBLIC	??_C@_0O@ODIJHOCP@?1phase_select@		; `string'
PUBLIC	??_C@_05CMMBDMDD@?1quit@			; `string'
PUBLIC	??_C@_0M@PCENNPGA@?$CFd?4?$CFd?4?$CFd?4?$CFd@	; `string'
PUBLIC	??_C@_07FOABJBDD@?1logout@			; `string'
PUBLIC	??_C@_0FP@JGOINIOH@CPythonNetworkStream?3?3CheckPack@ ; `string'
PUBLIC	??_C@_0CH@LALGPME@Unknown?5packet?5header?3?5?$CFd?0?5last@ ; `string'
PUBLIC	??_C@_0CF@JLNGLGD@recv?5ping?5packet?4?5?$CIsecuritymode@ ; `string'
PUBLIC	??_C@_0EA@JMANDMEJ@Phase?5?$CFs?5does?5not?5handle?5this?5h@ ; `string'
PUBLIC	??_C@_0N@HHLEGKEL@SetGamePhase@			; `string'
PUBLIC	??_C@_0CG@IOPHKJBJ@?C?$LD?$LI?$KO?$LF?G?A?v?5?$LO?J?$MA?$LK?5?F?P?E?$LG?5?G?l?$LE?u?5?$CFd?0?5sta@ ; `string'
PUBLIC	??_C@_0BO@NMFMGDDG@?$CD?$CD?5Network?5?9?5OffLine?5Phase?5?$CD?$CD@ ; `string'
PUBLIC	??_C@_07NNEFBBEG@OffLine@			; `string'
PUBLIC	??_C@_0P@MDCECFOM@OBSERVER_COUNT@		; `string'
PUBLIC	??_C@_0O@PJEEOCNO@SetLoginPhase@		; `string'
PUBLIC	??_C@_0BO@OMGIOKNA@PythonNetworkMainStream?5Clear@ ; `string'
PUBLIC	??_C@_0O@FEJHKOEO@BETTING_MONEY@		; `string'
PUBLIC	??_R2CMainPacketHeaderMap@@8			; CMainPacketHeaderMap::`RTTI Base Class Array'
PUBLIC	??_R2CNetworkPacketHeaderMap@@8			; CNetworkPacketHeaderMap::`RTTI Base Class Array'
PUBLIC	??_R2?$CFuncObject@VCPythonNetworkStream@@@@8	; CFuncObject<CPythonNetworkStream>::`RTTI Base Class Array'
PUBLIC	??_R2?$CSingleton@VCPythonNetworkStream@@@@8	; CSingleton<CPythonNetworkStream>::`RTTI Base Class Array'
PUBLIC	??_R2CPythonNetworkStream@@8			; CPythonNetworkStream::`RTTI Base Class Array'
PUBLIC	??_R1A@?0A@EA@CMainPacketHeaderMap@@8		; CMainPacketHeaderMap::`RTTI Base Class Descriptor at (0,-1,0,64)'
PUBLIC	??_R1A@?0A@EA@CNetworkPacketHeaderMap@@8	; CNetworkPacketHeaderMap::`RTTI Base Class Descriptor at (0,-1,0,64)'
PUBLIC	??_R1A@?0A@EA@?$CFuncObject@VCPythonNetworkStream@@@@8 ; CFuncObject<CPythonNetworkStream>::`RTTI Base Class Descriptor at (0,-1,0,64)'
PUBLIC	??_R1A@?0A@EA@CPythonNetworkStream@@8		; CPythonNetworkStream::`RTTI Base Class Descriptor at (0,-1,0,64)'
PUBLIC	??_R1HM@?0A@EA@?$CSingleton@VCPythonNetworkStream@@@@8 ; CSingleton<CPythonNetworkStream>::`RTTI Base Class Descriptor at (124,-1,0,64)'
PUBLIC	??_R1A@?0A@EA@?$CSingleton@VCPythonNetworkStream@@@@8 ; CSingleton<CPythonNetworkStream>::`RTTI Base Class Descriptor at (0,-1,0,64)'
PUBLIC	??_R0?AVCNetworkPacketHeaderMap@@@8		; CNetworkPacketHeaderMap `RTTI Type Descriptor'
PUBLIC	??_R3CNetworkPacketHeaderMap@@8			; CNetworkPacketHeaderMap::`RTTI Class Hierarchy Descriptor'
PUBLIC	??_R0?AVCMainPacketHeaderMap@@@8		; CMainPacketHeaderMap `RTTI Type Descriptor'
PUBLIC	??_R3CMainPacketHeaderMap@@8			; CMainPacketHeaderMap::`RTTI Class Hierarchy Descriptor'
PUBLIC	??_R0?AV?$CFuncObject@VCPythonNetworkStream@@@@@8 ; CFuncObject<CPythonNetworkStream> `RTTI Type Descriptor'
PUBLIC	??_R3?$CFuncObject@VCPythonNetworkStream@@@@8	; CFuncObject<CPythonNetworkStream>::`RTTI Class Hierarchy Descriptor'
PUBLIC	??_R0?AV?$CSingleton@VCPythonNetworkStream@@@@@8 ; CSingleton<CPythonNetworkStream> `RTTI Type Descriptor'
PUBLIC	??_R3?$CSingleton@VCPythonNetworkStream@@@@8	; CSingleton<CPythonNetworkStream>::`RTTI Class Hierarchy Descriptor'
PUBLIC	??_R0?AVCPythonNetworkStream@@@8		; CPythonNetworkStream `RTTI Type Descriptor'
PUBLIC	??_R3CPythonNetworkStream@@8			; CPythonNetworkStream::`RTTI Class Hierarchy Descriptor'
PUBLIC	??_R4CMainPacketHeaderMap@@6B@			; CMainPacketHeaderMap::`RTTI Complete Object Locator'
PUBLIC	??_R4?$CFuncObject@VCPythonNetworkStream@@@@6B@	; CFuncObject<CPythonNetworkStream>::`RTTI Complete Object Locator'
PUBLIC	??_R4CPythonNetworkStream@@6B?$CSingleton@VCPythonNetworkStream@@@@@ ; CPythonNetworkStream::`RTTI Complete Object Locator'
PUBLIC	??_R4?$CSingleton@VCPythonNetworkStream@@@@6B@	; CSingleton<CPythonNetworkStream>::`RTTI Complete Object Locator'
PUBLIC	??_R4CPythonNetworkStream@@6BCNetworkStream@@@	; CPythonNetworkStream::`RTTI Complete Object Locator'
PUBLIC	??_7?$CFuncObject@VCPythonNetworkStream@@@@6B@	; CFuncObject<CPythonNetworkStream>::`vftable'
PUBLIC	??_7?$CSingleton@VCPythonNetworkStream@@@@6B@	; CSingleton<CPythonNetworkStream>::`vftable'
PUBLIC	??_7CPythonNetworkStream@@6BCNetworkStream@@@	; CPythonNetworkStream::`vftable'
PUBLIC	??_7CPythonNetworkStream@@6B?$CSingleton@VCPythonNetworkStream@@@@@ ; CPythonNetworkStream::`vftable'
PUBLIC	?g_iLastPacket@@3PAHA				; g_iLastPacket
PUBLIC	??_7CMainPacketHeaderMap@@6B@			; CMainPacketHeaderMap::`vftable'
EXTRN	?OnConnectSuccess@CNetworkStream@@MAEXXZ:PROC	; CNetworkStream::OnConnectSuccess
EXTRN	??1CNetworkAddress@@QAE@XZ:PROC			; CNetworkAddress::~CNetworkAddress
EXTRN	??0CNetworkAddress@@QAE@XZ:PROC			; CNetworkAddress::CNetworkAddress
EXTRN	?Get@CNetworkPacketHeaderMap@@QAE_NHPAUSPacketType@1@@Z:PROC ; CNetworkPacketHeaderMap::Get
EXTRN	?ClearRecvBuffer@CNetworkStream@@QAEXXZ:PROC	; CNetworkStream::ClearRecvBuffer
EXTRN	?Connect@CNetworkStream@@QAE_NKHH@Z:PROC	; CNetworkStream::Connect
EXTRN	?Set@CNetworkAddress@@QAE_NPBDH@Z:PROC		; CNetworkAddress::Set
EXTRN	?Set@CNetworkPacketHeaderMap@@QAEXHUSPacketType@1@@Z:PROC ; CNetworkPacketHeaderMap::Set
EXTRN	?IsOnline@CNetworkStream@@QAE_NXZ:PROC		; CNetworkStream::IsOnline
EXTRN	??1CNetworkPacketHeaderMap@@UAE@XZ:PROC		; CNetworkPacketHeaderMap::~CNetworkPacketHeaderMap
EXTRN	??0CNetworkPacketHeaderMap@@QAE@XZ:PROC		; CNetworkPacketHeaderMap::CNetworkPacketHeaderMap
?g_iLastPacket@@3PAHA DD 02H DUP (?)			; g_iLastPacket
_BSS	ENDS
;	COMDAT ??_7CMainPacketHeaderMap@@6B@
CONST	SEGMENT
??_7CMainPacketHeaderMap@@6B@ DD FLAT:??_R4CMainPacketHeaderMap@@6B@ ; CMainPacketHeaderMap::`vftable'
	DD	FLAT:??_ECMainPacketHeaderMap@@UAEPAXI@Z
CONST	ENDS
;	COMDAT ?sc_szEmpty@?1??GetAccountCharacterSlotDataz@CPythonNetworkStream@@QAEPBDII@Z@4PBDB
CONST	SEGMENT
?sc_szEmpty@?1??GetAccountCharacterSlotDataz@CPythonNetworkStream@@QAEPBDII@Z@4PBDB DD FLAT:??_C@_00CNPNBAHC@@ ; `CPythonNetworkStream::GetAccountCharacterSlotDataz'::`2'::sc_szEmpty
CONST	ENDS
;	COMDAT ??_7CPythonNetworkStream@@6B?$CSingleton@VCPythonNetworkStream@@@@@
CONST	SEGMENT
??_7CPythonNetworkStream@@6B?$CSingleton@VCPythonNetworkStream@@@@@ DD FLAT:??_R4CPythonNetworkStream@@6B?$CSingleton@VCPythonNetworkStream@@@@@ ; CPythonNetworkStream::`vftable'
	DD	FLAT:??_ECPythonNetworkStream@@WHM@AEPAXI@Z
CONST	ENDS
;	COMDAT ??_7CPythonNetworkStream@@6BCNetworkStream@@@
CONST	SEGMENT
??_7CPythonNetworkStream@@6BCNetworkStream@@@ DD FLAT:??_R4CPythonNetworkStream@@6BCNetworkStream@@@ ; CPythonNetworkStream::`vftable'
	DD	FLAT:??_ECPythonNetworkStream@@UAEPAXI@Z
	DD	FLAT:?OnConnectSuccess@CNetworkStream@@MAEXXZ
	DD	FLAT:?OnConnectFailure@CPythonNetworkStream@@MAEXXZ
	DD	FLAT:?OnRemoteDisconnect@CPythonNetworkStream@@MAEXXZ
	DD	FLAT:?OnDisconnect@CPythonNetworkStream@@MAEXXZ
	DD	FLAT:?OnProcess@CPythonNetworkStream@@MAE_NXZ
CONST	ENDS
;	COMDAT ??_7?$CSingleton@VCPythonNetworkStream@@@@6B@
CONST	SEGMENT
??_7?$CSingleton@VCPythonNetworkStream@@@@6B@ DD FLAT:??_R4?$CSingleton@VCPythonNetworkStream@@@@6B@ ; CSingleton<CPythonNetworkStream>::`vftable'
	DD	FLAT:??_E?$CSingleton@VCPythonNetworkStream@@@@UAEPAXI@Z
CONST	ENDS
;	COMDAT ??_7?$CFuncObject@VCPythonNetworkStream@@@@6B@
CONST	SEGMENT
??_7?$CFuncObject@VCPythonNetworkStream@@@@6B@ DD FLAT:??_R4?$CFuncObject@VCPythonNetworkStream@@@@6B@ ; CFuncObject<CPythonNetworkStream>::`vftable'
	DD	FLAT:??_E?$CFuncObject@VCPythonNetworkStream@@@@UAEPAXI@Z
CONST	ENDS
;	COMDAT ??_R4CPythonNetworkStream@@6BCNetworkStream@@@
rdata$r	SEGMENT
??_R4CPythonNetworkStream@@6BCNetworkStream@@@ DD 00H	; CPythonNetworkStream::`RTTI Complete Object Locator'
	DD	00H
	DD	00H
	DD	FLAT:??_R0?AVCPythonNetworkStream@@@8
	DD	FLAT:??_R3CPythonNetworkStream@@8
rdata$r	ENDS
;	COMDAT ??_R4?$CSingleton@VCPythonNetworkStream@@@@6B@
rdata$r	SEGMENT
??_R4?$CSingleton@VCPythonNetworkStream@@@@6B@ DD 00H	; CSingleton<CPythonNetworkStream>::`RTTI Complete Object Locator'
	DD	00H
	DD	00H
	DD	FLAT:??_R0?AV?$CSingleton@VCPythonNetworkStream@@@@@8
	DD	FLAT:??_R3?$CSingleton@VCPythonNetworkStream@@@@8
rdata$r	ENDS
;	COMDAT ??_R4CPythonNetworkStream@@6B?$CSingleton@VCPythonNetworkStream@@@@@
rdata$r	SEGMENT
??_R4CPythonNetworkStream@@6B?$CSingleton@VCPythonNetworkStream@@@@@ DD 00H ; CPythonNetworkStream::`RTTI Complete Object Locator'
	DD	07cH
	DD	00H
	DD	FLAT:??_R0?AVCPythonNetworkStream@@@8
	DD	FLAT:??_R3CPythonNetworkStream@@8
rdata$r	ENDS
;	COMDAT ??_R4?$CFuncObject@VCPythonNetworkStream@@@@6B@
rdata$r	SEGMENT
??_R4?$CFuncObject@VCPythonNetworkStream@@@@6B@ DD 00H	; CFuncObject<CPythonNetworkStream>::`RTTI Complete Object Locator'
	DD	00H
	DD	00H
	DD	FLAT:??_R0?AV?$CFuncObject@VCPythonNetworkStream@@@@@8
	DD	FLAT:??_R3?$CFuncObject@VCPythonNetworkStream@@@@8
rdata$r	ENDS
;	COMDAT ??_R4CMainPacketHeaderMap@@6B@
rdata$r	SEGMENT
??_R4CMainPacketHeaderMap@@6B@ DD 00H			; CMainPacketHeaderMap::`RTTI Complete Object Locator'
	DD	00H
	DD	00H
	DD	FLAT:??_R0?AVCMainPacketHeaderMap@@@8
	DD	FLAT:??_R3CMainPacketHeaderMap@@8
rdata$r	ENDS
;	COMDAT ??_R3CPythonNetworkStream@@8
rdata$r	SEGMENT
??_R3CPythonNetworkStream@@8 DD 00H			; CPythonNetworkStream::`RTTI Class Hierarchy Descriptor'
	DD	01H
	DD	03H
	DD	FLAT:??_R2CPythonNetworkStream@@8
rdata$r	ENDS
;	COMDAT ??_R0?AVCPythonNetworkStream@@@8
data$rs	SEGMENT
??_R0?AVCPythonNetworkStream@@@8 DD FLAT:??_7type_info@@6B@ ; CPythonNetworkStream `RTTI Type Descriptor'
	DD	00H
	DB	'.?AVCPythonNetworkStream@@', 00H
data$rs	ENDS
;	COMDAT ??_R3?$CSingleton@VCPythonNetworkStream@@@@8
rdata$r	SEGMENT
??_R3?$CSingleton@VCPythonNetworkStream@@@@8 DD 00H	; CSingleton<CPythonNetworkStream>::`RTTI Class Hierarchy Descriptor'
	DD	00H
	DD	01H
	DD	FLAT:??_R2?$CSingleton@VCPythonNetworkStream@@@@8
rdata$r	ENDS
;	COMDAT ??_R0?AV?$CSingleton@VCPythonNetworkStream@@@@@8
data$rs	SEGMENT
??_R0?AV?$CSingleton@VCPythonNetworkStream@@@@@8 DD FLAT:??_7type_info@@6B@ ; CSingleton<CPythonNetworkStream> `RTTI Type Descriptor'
	DD	00H
	DB	'.?AV?$CSingleton@VCPythonNetworkStream@@@@', 00H
data$rs	ENDS
;	COMDAT ??_R3?$CFuncObject@VCPythonNetworkStream@@@@8
rdata$r	SEGMENT
??_R3?$CFuncObject@VCPythonNetworkStream@@@@8 DD 00H	; CFuncObject<CPythonNetworkStream>::`RTTI Class Hierarchy Descriptor'
	DD	00H
	DD	01H
	DD	FLAT:??_R2?$CFuncObject@VCPythonNetworkStream@@@@8
rdata$r	ENDS
;	COMDAT ??_R0?AV?$CFuncObject@VCPythonNetworkStream@@@@@8
data$rs	SEGMENT
??_R0?AV?$CFuncObject@VCPythonNetworkStream@@@@@8 DD FLAT:??_7type_info@@6B@ ; CFuncObject<CPythonNetworkStream> `RTTI Type Descriptor'
	DD	00H
	DB	'.?AV?$CFuncObject@VCPythonNetworkStream@@@@', 00H
data$rs	ENDS
;	COMDAT ??_R3CMainPacketHeaderMap@@8
rdata$r	SEGMENT
??_R3CMainPacketHeaderMap@@8 DD 00H			; CMainPacketHeaderMap::`RTTI Class Hierarchy Descriptor'
	DD	00H
	DD	02H
	DD	FLAT:??_R2CMainPacketHeaderMap@@8
rdata$r	ENDS
;	COMDAT ??_R0?AVCMainPacketHeaderMap@@@8
data$rs	SEGMENT
??_R0?AVCMainPacketHeaderMap@@@8 DD FLAT:??_7type_info@@6B@ ; CMainPacketHeaderMap `RTTI Type Descriptor'
	DD	00H
	DB	'.?AVCMainPacketHeaderMap@@', 00H
data$rs	ENDS
;	COMDAT ??_R3CNetworkPacketHeaderMap@@8
rdata$r	SEGMENT
??_R3CNetworkPacketHeaderMap@@8 DD 00H			; CNetworkPacketHeaderMap::`RTTI Class Hierarchy Descriptor'
	DD	00H
	DD	01H
	DD	FLAT:??_R2CNetworkPacketHeaderMap@@8
rdata$r	ENDS
;	COMDAT ??_R0?AVCNetworkPacketHeaderMap@@@8
data$rs	SEGMENT
??_R0?AVCNetworkPacketHeaderMap@@@8 DD FLAT:??_7type_info@@6B@ ; CNetworkPacketHeaderMap `RTTI Type Descriptor'
	DD	00H
	DB	'.?AVCNetworkPacketHeaderMap@@', 00H
data$rs	ENDS
;	COMDAT ??_R1A@?0A@EA@?$CSingleton@VCPythonNetworkStream@@@@8
rdata$r	SEGMENT
??_R1A@?0A@EA@?$CSingleton@VCPythonNetworkStream@@@@8 DD FLAT:??_R0?AV?$CSingleton@VCPythonNetworkStream@@@@@8 ; CSingleton<CPythonNetworkStream>::`RTTI Base Class Descriptor at (0,-1,0,64)'
	DD	00H
	DD	00H
	DD	0ffffffffH
	DD	00H
	DD	040H
	DD	FLAT:??_R3?$CSingleton@VCPythonNetworkStream@@@@8
rdata$r	ENDS
;	COMDAT ??_R1HM@?0A@EA@?$CSingleton@VCPythonNetworkStream@@@@8
rdata$r	SEGMENT
??_R1HM@?0A@EA@?$CSingleton@VCPythonNetworkStream@@@@8 DD FLAT:??_R0?AV?$CSingleton@VCPythonNetworkStream@@@@@8 ; CSingleton<CPythonNetworkStream>::`RTTI Base Class Descriptor at (124,-1,0,64)'
	DD	00H
	DD	07cH
	DD	0ffffffffH
	DD	00H
	DD	040H
	DD	FLAT:??_R3?$CSingleton@VCPythonNetworkStream@@@@8
rdata$r	ENDS
;	COMDAT ??_R1A@?0A@EA@CPythonNetworkStream@@8
rdata$r	SEGMENT
??_R1A@?0A@EA@CPythonNetworkStream@@8 DD FLAT:??_R0?AVCPythonNetworkStream@@@8 ; CPythonNetworkStream::`RTTI Base Class Descriptor at (0,-1,0,64)'
	DD	02H
	DD	00H
	DD	0ffffffffH
	DD	00H
	DD	040H
	DD	FLAT:??_R3CPythonNetworkStream@@8
rdata$r	ENDS
;	COMDAT ??_R1A@?0A@EA@?$CFuncObject@VCPythonNetworkStream@@@@8
rdata$r	SEGMENT
??_R1A@?0A@EA@?$CFuncObject@VCPythonNetworkStream@@@@8 DD FLAT:??_R0?AV?$CFuncObject@VCPythonNetworkStream@@@@@8 ; CFuncObject<CPythonNetworkStream>::`RTTI Base Class Descriptor at (0,-1,0,64)'
	DD	00H
	DD	00H
	DD	0ffffffffH
	DD	00H
	DD	040H
	DD	FLAT:??_R3?$CFuncObject@VCPythonNetworkStream@@@@8
rdata$r	ENDS
;	COMDAT ??_R1A@?0A@EA@CNetworkPacketHeaderMap@@8
rdata$r	SEGMENT
??_R1A@?0A@EA@CNetworkPacketHeaderMap@@8 DD FLAT:??_R0?AVCNetworkPacketHeaderMap@@@8 ; CNetworkPacketHeaderMap::`RTTI Base Class Descriptor at (0,-1,0,64)'
	DD	00H
	DD	00H
	DD	0ffffffffH
	DD	00H
	DD	040H
	DD	FLAT:??_R3CNetworkPacketHeaderMap@@8
rdata$r	ENDS
;	COMDAT ??_R1A@?0A@EA@CMainPacketHeaderMap@@8
rdata$r	SEGMENT
??_R1A@?0A@EA@CMainPacketHeaderMap@@8 DD FLAT:??_R0?AVCMainPacketHeaderMap@@@8 ; CMainPacketHeaderMap::`RTTI Base Class Descriptor at (0,-1,0,64)'
	DD	01H
	DD	00H
	DD	0ffffffffH
	DD	00H
	DD	040H
	DD	FLAT:??_R3CMainPacketHeaderMap@@8
rdata$r	ENDS
;	COMDAT ??_R2CPythonNetworkStream@@8
rdata$r	SEGMENT
??_R2CPythonNetworkStream@@8 DD FLAT:??_R1A@?0A@EA@CPythonNetworkStream@@8 ; CPythonNetworkStream::`RTTI Base Class Array'
	DD	FLAT:??_R1A@?0A@EA@CNetworkStream@@8
	DD	FLAT:??_R1HM@?0A@EA@?$CSingleton@VCPythonNetworkStream@@@@8
rdata$r	ENDS
;	COMDAT ??_R2?$CSingleton@VCPythonNetworkStream@@@@8
rdata$r	SEGMENT
??_R2?$CSingleton@VCPythonNetworkStream@@@@8 DD FLAT:??_R1A@?0A@EA@?$CSingleton@VCPythonNetworkStream@@@@8 ; CSingleton<CPythonNetworkStream>::`RTTI Base Class Array'
rdata$r	ENDS
;	COMDAT ??_R2?$CFuncObject@VCPythonNetworkStream@@@@8
rdata$r	SEGMENT
??_R2?$CFuncObject@VCPythonNetworkStream@@@@8 DD FLAT:??_R1A@?0A@EA@?$CFuncObject@VCPythonNetworkStream@@@@8 ; CFuncObject<CPythonNetworkStream>::`RTTI Base Class Array'
rdata$r	ENDS
;	COMDAT ??_R2CNetworkPacketHeaderMap@@8
rdata$r	SEGMENT
??_R2CNetworkPacketHeaderMap@@8 DD FLAT:??_R1A@?0A@EA@CNetworkPacketHeaderMap@@8 ; CNetworkPacketHeaderMap::`RTTI Base Class Array'
rdata$r	ENDS
;	COMDAT ??_R2CMainPacketHeaderMap@@8
rdata$r	SEGMENT
??_R2CMainPacketHeaderMap@@8 DD FLAT:??_R1A@?0A@EA@CMainPacketHeaderMap@@8 ; CMainPacketHeaderMap::`RTTI Base Class Array'
	DD	FLAT:??_R1A@?0A@EA@CNetworkPacketHeaderMap@@8
rdata$r	ENDS
;	COMDAT ??_C@_0O@FEJHKOEO@BETTING_MONEY@
CONST	SEGMENT
??_C@_0O@FEJHKOEO@BETTING_MONEY@ DB 'BETTING_MONEY', 00H ; `string'
CONST	ENDS
;	COMDAT ??_C@_0BO@OMGIOKNA@PythonNetworkMainStream?5Clear@
CONST	SEGMENT
??_C@_0BO@OMGIOKNA@PythonNetworkMainStream?5Clear@ DB 'PythonNetworkMainS'
	DB	'tream Clear', 00H				; `string'
CONST	ENDS
;	COMDAT ??_C@_0O@PJEEOCNO@SetLoginPhase@
CONST	SEGMENT
??_C@_0O@PJEEOCNO@SetLoginPhase@ DB 'SetLoginPhase', 00H ; `string'
CONST	ENDS
;	COMDAT ??_C@_0P@MDCECFOM@OBSERVER_COUNT@
CONST	SEGMENT
??_C@_0P@MDCECFOM@OBSERVER_COUNT@ DB 'OBSERVER_COUNT', 00H ; `string'
CONST	ENDS
;	COMDAT ??_C@_07NNEFBBEG@OffLine@
CONST	SEGMENT
??_C@_07NNEFBBEG@OffLine@ DB 'OffLine', 00H		; `string'
CONST	ENDS
;	COMDAT ??_C@_0BO@NMFMGDDG@?$CD?$CD?5Network?5?9?5OffLine?5Phase?5?$CD?$CD@
CONST	SEGMENT
??_C@_0BO@NMFMGDDG@?$CD?$CD?5Network?5?9?5OffLine?5Phase?5?$CD?$CD@ DB '#'
	DB	'# Network - OffLine Phase ##', 00H		; `string'
CONST	ENDS
;	COMDAT ??_C@_0CG@IOPHKJBJ@?C?$LD?$LI?$KO?$LF?G?A?v?5?$LO?J?$MA?$LK?5?F?P?E?$LG?5?G?l?$LE?u?5?$CFd?0?5sta@
CONST	SEGMENT
??_C@_0CG@IOPHKJBJ@?C?$LD?$LI?$KO?$LF?G?A?v?5?$LO?J?$MA?$LK?5?F?P?E?$LG?5?G?l?$LE?u?5?$CFd?0?5sta@ DB 0c3H
	DB	0b3H, 0b8H, 0aeH, 0b5H, 0c7H, 0c1H, 0f6H, ' ', 0beH, 0caH, 0c0H
	DB	0baH, ' ', 0c6H, 0d0H, 0c5H, 0b6H, ' ', 0c7H, 0ecH, 0b4H, 0f5H
	DB	' %d, state %s', 0aH, 00H			; `string'
CONST	ENDS
;	COMDAT ??_C@_0N@HHLEGKEL@SetGamePhase@
CONST	SEGMENT
??_C@_0N@HHLEGKEL@SetGamePhase@ DB 'SetGamePhase', 00H	; `string'
CONST	ENDS
;	COMDAT ??_C@_0EA@JMANDMEJ@Phase?5?$CFs?5does?5not?5handle?5this?5h@
CONST	SEGMENT
??_C@_0EA@JMANDMEJ@Phase?5?$CFs?5does?5not?5handle?5this?5h@ DB 'Phase %s'
	DB	' does not handle this header (header: %d, last: %d, %d)', 00H ; `string'
CONST	ENDS
;	COMDAT ??_C@_0CF@JLNGLGD@recv?5ping?5packet?4?5?$CIsecuritymode@
CONST	SEGMENT
??_C@_0CF@JLNGLGD@recv?5ping?5packet?4?5?$CIsecuritymode@ DB 'recv ping p'
	DB	'acket. (securitymode %u)', 0aH, 00H		; `string'
CONST	ENDS
;	COMDAT ??_C@_0CH@LALGPME@Unknown?5packet?5header?3?5?$CFd?0?5last@
CONST	SEGMENT
??_C@_0CH@LALGPME@Unknown?5packet?5header?3?5?$CFd?0?5last@ DB 'Unknown p'
	DB	'acket header: %d, last: %d %d', 00H		; `string'
CONST	ENDS
;	COMDAT ??_C@_0FP@JGOINIOH@CPythonNetworkStream?3?3CheckPack@
CONST	SEGMENT
??_C@_0FP@JGOINIOH@CPythonNetworkStream?3?3CheckPack@ DB 'CPythonNetworkS'
	DB	'tream::CheckPacket - Not enough dynamic packet size: header %'
	DB	'd packet size: %d', 0aH, 00H		; `string'
CONST	ENDS
;	COMDAT ??_C@_07FOABJBDD@?1logout@
CONST	SEGMENT
??_C@_07FOABJBDD@?1logout@ DB '/logout', 00H		; `string'
CONST	ENDS
;	COMDAT ??_C@_0M@PCENNPGA@?$CFd?4?$CFd?4?$CFd?4?$CFd@
CONST	SEGMENT
??_C@_0M@PCENNPGA@?$CFd?4?$CFd?4?$CFd?4?$CFd@ DB '%d.%d.%d.%d', 00H ; `string'
CONST	ENDS
;	COMDAT ??_C@_05CMMBDMDD@?1quit@
CONST	SEGMENT
??_C@_05CMMBDMDD@?1quit@ DB '/quit', 00H		; `string'
CONST	ENDS
;	COMDAT ??_C@_0O@ODIJHOCP@?1phase_select@
CONST	SEGMENT
??_C@_0O@ODIJHOCP@?1phase_select@ DB '/phase_select', 00H ; `string'
PUBLIC	??_ECPythonNetworkStream@@WHM@AEPAXI@Z		; [thunk]:CPythonNetworkStream::`vector deleting destructor'
PUBLIC	??$to_address@PAU_object@@@std@@YAPAPAU_object@@QAPAU1@@Z ; std::to_address<_object *>
PUBLIC	??$_To_address@PAPAU_object@@@std@@YA?A_PABQAPAU_object@@@Z ; std::_To_address<_object * *>
PUBLIC	??$_Fill_zero_memset@PAPAU_object@@@std@@YAXPAPAU_object@@I@Z ; std::_Fill_zero_memset<_object * *>
PUBLIC	??$_Is_all_bits_zero@PAU_object@@@std@@YA_NABQAU_object@@@Z ; std::_Is_all_bits_zero<_object *>
PUBLIC	??$_Adl_verify_range@PAPAU_object@@PAPAU1@@std@@YAXABQAPAU_object@@0@Z ; std::_Adl_verify_range<_object * *,_object * *>
PUBLIC	??0?$_Deque_val@U?$_Deque_simple_types@V?$basic_string@DU?$char_traits@D@std@@V?$allocator@D@2@@std@@@std@@@std@@QAE@XZ ; std::_Deque_val<std::_Deque_simple_types<std::basic_string<char,std::char_traits<char>,std::allocator<char> > > >::_Deque_val<std::_Deque_simple_types<std::basic_string<char,std::char_traits<char>,std::allocator<char> > > >
PUBLIC	??$_Destroy_in_place@PAV?$basic_string@DU?$char_traits@D@std@@V?$allocator@D@2@@std@@@std@@YAXAAPAV?$basic_string@DU?$char_traits@D@std@@V?$allocator@D@2@@0@@Z ; std::_Destroy_in_place<std::basic_string<char,std::char_traits<char>,std::allocator<char> > *>
PUBLIC	??$?0V?$basic_string@DU?$char_traits@D@std@@V?$allocator@D@2@@std@@@?$allocator@PAV?$basic_string@DU?$char_traits@D@std@@V?$allocator@D@2@@std@@@std@@QAE@ABV?$allocator@V?$basic_string@DU?$char_traits@D@std@@V?$allocator@D@2@@std@@@1@@Z ; std::allocator<std::basic_string<char,std::char_traits<char>,std::allocator<char> > *>::allocator<std::basic_string<char,std::char_traits<char>,std::allocator<char> > *><std::basic_string<char,std::char_traits<char>,std::allocator<char> > >
PUBLIC	??$?0$$V@?$_Compressed_pair@V?$allocator@V?$basic_string@DU?$char_traits@D@std@@V?$allocator@D@2@@std@@@std@@V?$_Deque_val@U?$_Deque_simple_types@V?$basic_string@DU?$char_traits@D@std@@V?$allocator@D@2@@std@@@std@@@2@$00@std@@QAE@U_Zero_then_variadic_args_t@1@@Z ; std::_Compressed_pair<std::allocator<std::basic_string<char,std::char_traits<char>,std::allocator<char> > >,std::_Deque_val<std::_Deque_simple_types<std::basic_string<char,std::char_traits<char>,std::allocator<char> > > >,1>::_Compressed_pair<std::allocator<std::basic_string<char,std::char_traits<char>,std::allocator<char> > >,std::_Deque_val<std::_Deque_simple_types<std::basic_string<char,std::char_traits<char>,std::allocator<char> > > >,1><>
PUBLIC	??$?0V?$basic_string@DU?$char_traits@D@std@@V?$allocator@D@2@@std@@@?$allocator@U_Container_proxy@std@@@std@@QAE@ABV?$allocator@V?$basic_string@DU?$char_traits@D@std@@V?$allocator@D@2@@std@@@1@@Z ; std::allocator<std::_Container_proxy>::allocator<std::_Container_proxy><std::basic_string<char,std::char_traits<char>,std::allocator<char> > >
PUBLIC	??$fill@PAPAU_object@@PAU1@@std@@YAXQAPAU_object@@0ABQAU1@@Z ; std::fill<_object * *,_object *>
PUBLIC	??$_Get_unwrapped@ABQAPAU_object@@@std@@YA?A_TABQAPAU_object@@@Z ; std::_Get_unwrapped<_object * * const &>
PUBLIC	?_Getblock@?$_Deque_val@U?$_Deque_simple_types@V?$basic_string@DU?$char_traits@D@std@@V?$allocator@D@2@@std@@@std@@@std@@QBEII@Z ; std::_Deque_val<std::_Deque_simple_types<std::basic_string<char,std::char_traits<char>,std::allocator<char> > > >::_Getblock
PUBLIC	?_Get_data@?$deque@V?$basic_string@DU?$char_traits@D@std@@V?$allocator@D@2@@std@@V?$allocator@V?$basic_string@DU?$char_traits@D@std@@V?$allocator@D@2@@std@@@2@@std@@ABEABV?$_Deque_val@U?$_Deque_simple_types@V?$basic_string@DU?$char_traits@D@std@@V?$allocator@D@2@@std@@@std@@@2@XZ ; std::deque<std::basic_string<char,std::char_traits<char>,std::allocator<char> >,std::allocator<std::basic_string<char,std::char_traits<char>,std::allocator<char> > > >::_Get_data
PUBLIC	?_Getblock@?$deque@V?$basic_string@DU?$char_traits@D@std@@V?$allocator@D@2@@std@@V?$allocator@V?$basic_string@DU?$char_traits@D@std@@V?$allocator@D@2@@std@@@2@@std@@ABEII@Z ; std::deque<std::basic_string<char,std::char_traits<char>,std::allocator<char> >,std::allocator<std::basic_string<char,std::char_traits<char>,std::allocator<char> > > >::_Getblock
PUBLIC	?_Myoff@?$deque@V?$basic_string@DU?$char_traits@D@std@@V?$allocator@D@2@@std@@V?$allocator@V?$basic_string@DU?$char_traits@D@std@@V?$allocator@D@2@@std@@@2@@std@@AAEAAIXZ ; std::deque<std::basic_string<char,std::char_traits<char>,std::allocator<char> >,std::allocator<std::basic_string<char,std::char_traits<char>,std::allocator<char> > > >::_Myoff
PUBLIC	?_Mysize@?$deque@V?$basic_string@DU?$char_traits@D@std@@V?$allocator@D@2@@std@@V?$allocator@V?$basic_string@DU?$char_traits@D@std@@V?$allocator@D@2@@std@@@2@@std@@AAEAAIXZ ; std::deque<std::basic_string<char,std::char_traits<char>,std::allocator<char> >,std::allocator<std::basic_string<char,std::char_traits<char>,std::allocator<char> > > >::_Mysize
PUBLIC	?_Mysize@?$deque@V?$basic_string@DU?$char_traits@D@std@@V?$allocator@D@2@@std@@V?$allocator@V?$basic_string@DU?$char_traits@D@std@@V?$allocator@D@2@@std@@@2@@std@@ABEABIXZ ; std::deque<std::basic_string<char,std::char_traits<char>,std::allocator<char> >,std::allocator<std::basic_string<char,std::char_traits<char>,std::allocator<char> > > >::_Mysize
PUBLIC	?deallocate@?$allocator@PAV?$basic_string@DU?$char_traits@D@std@@V?$allocator@D@2@@std@@@std@@QAEXQAPAV?$basic_string@DU?$char_traits@D@std@@V?$allocator@D@2@@2@I@Z ; std::allocator<std::basic_string<char,std::char_traits<char>,std::allocator<char> > *>::deallocate
PUBLIC	?empty@?$deque@V?$basic_string@DU?$char_traits@D@std@@V?$allocator@D@2@@std@@V?$allocator@V?$basic_string@DU?$char_traits@D@std@@V?$allocator@D@2@@std@@@2@@std@@QBE_NXZ ; std::deque<std::basic_string<char,std::char_traits<char>,std::allocator<char> >,std::allocator<std::basic_string<char,std::char_traits<char>,std::allocator<char> > > >::empty
PUBLIC	?pop_back@?$deque@V?$basic_string@DU?$char_traits@D@std@@V?$allocator@D@2@@std@@V?$allocator@V?$basic_string@DU?$char_traits@D@std@@V?$allocator@D@2@@std@@@2@@std@@QAEXXZ ; std::deque<std::basic_string<char,std::char_traits<char>,std::allocator<char> >,std::allocator<std::basic_string<char,std::char_traits<char>,std::allocator<char> > > >::pop_back
PUBLIC	?_Orphan_all@?$deque@V?$basic_string@DU?$char_traits@D@std@@V?$allocator@D@2@@std@@V?$allocator@V?$basic_string@DU?$char_traits@D@std@@V?$allocator@D@2@@std@@@2@@std@@AAEXXZ ; std::deque<std::basic_string<char,std::char_traits<char>,std::allocator<char> >,std::allocator<std::basic_string<char,std::char_traits<char>,std::allocator<char> > > >::_Orphan_all
PUBLIC	?_Map@?$deque@V?$basic_string@DU?$char_traits@D@std@@V?$allocator@D@2@@std@@V?$allocator@V?$basic_string@DU?$char_traits@D@std@@V?$allocator@D@2@@std@@@2@@std@@AAEAAPAPAV?$basic_string@DU?$char_traits@D@std@@V?$allocator@D@2@@2@XZ ; std::deque<std::basic_string<char,std::char_traits<char>,std::allocator<char> >,std::allocator<std::basic_string<char,std::char_traits<char>,std::allocator<char> > > >::_Map
PUBLIC	?_Mapsize@?$deque@V?$basic_string@DU?$char_traits@D@std@@V?$allocator@D@2@@std@@V?$allocator@V?$basic_string@DU?$char_traits@D@std@@V?$allocator@D@2@@std@@@2@@std@@AAEAAIXZ ; std::deque<std::basic_string<char,std::char_traits<char>,std::allocator<char> >,std::allocator<std::basic_string<char,std::char_traits<char>,std::allocator<char> > > >::_Mapsize
PUBLIC	?_Get_first@?$_Compressed_pair@V?$allocator@V?$basic_string@DU?$char_traits@D@std@@V?$allocator@D@2@@std@@@std@@V?$_Deque_val@U?$_Deque_simple_types@V?$basic_string@DU?$char_traits@D@std@@V?$allocator@D@2@@std@@@std@@@2@$00@std@@QAEAAV?$allocator@V?$basic_string@DU?$char_traits@D@std@@V?$allocator@D@2@@std@@@2@XZ ; std::_Compressed_pair<std::allocator<std::basic_string<char,std::char_traits<char>,std::allocator<char> > >,std::_Deque_val<std::_Deque_simple_types<std::basic_string<char,std::char_traits<char>,std::allocator<char> > > >,1>::_Get_first
PUBLIC	?Clear@?$CRef@VCNetworkActorManager@@@@QAEXXZ	; CRef<CNetworkActorManager>::Clear
PUBLIC	?SetPointer@?$CRef@VCNetworkActorManager@@@@QAEXPAVCReferenceObject@@@Z ; CRef<CNetworkActorManager>::SetPointer
PUBLIC	?_Tidy@?$deque@V?$basic_string@DU?$char_traits@D@std@@V?$allocator@D@2@@std@@V?$allocator@V?$basic_string@DU?$char_traits@D@std@@V?$allocator@D@2@@std@@@2@@std@@AAEXXZ ; std::deque<std::basic_string<char,std::char_traits<char>,std::allocator<char> >,std::allocator<std::basic_string<char,std::char_traits<char>,std::allocator<char> > > >::_Tidy
PUBLIC	?_Getal@?$deque@V?$basic_string@DU?$char_traits@D@std@@V?$allocator@D@2@@std@@V?$allocator@V?$basic_string@DU?$char_traits@D@std@@V?$allocator@D@2@@std@@@2@@std@@AAEAAV?$allocator@V?$basic_string@DU?$char_traits@D@std@@V?$allocator@D@2@@std@@@2@XZ ; std::deque<std::basic_string<char,std::char_traits<char>,std::allocator<char> >,std::allocator<std::basic_string<char,std::char_traits<char>,std::allocator<char> > > >::_Getal
PUBLIC	?_Get_data@?$deque@V?$basic_string@DU?$char_traits@D@std@@V?$allocator@D@2@@std@@V?$allocator@V?$basic_string@DU?$char_traits@D@std@@V?$allocator@D@2@@std@@@2@@std@@AAEAAV?$_Deque_val@U?$_Deque_simple_types@V?$basic_string@DU?$char_traits@D@std@@V?$allocator@D@2@@std@@@std@@@2@XZ ; std::deque<std::basic_string<char,std::char_traits<char>,std::allocator<char> >,std::allocator<std::basic_string<char,std::char_traits<char>,std::allocator<char> > > >::_Get_data
PUBLIC	??_G?$CSingleton@VCPythonNetworkStream@@@@UAEPAXI@Z ; CSingleton<CPythonNetworkStream>::`scalar deleting destructor'
PUBLIC	??_G?$CFuncObject@VCPythonNetworkStream@@@@UAEPAXI@Z ; CFuncObject<CPythonNetworkStream>::`scalar deleting destructor'
PUBLIC	??0?$CSingleton@VCPythonNetworkStream@@@@QAE@XZ	; CSingleton<CPythonNetworkStream>::CSingleton<CPythonNetworkStream>
PUBLIC	??1?$CSingleton@VCPythonNetworkStream@@@@UAE@XZ	; CSingleton<CPythonNetworkStream>::~CSingleton<CPythonNetworkStream>
PUBLIC	??0?$CFuncObject@VCPythonNetworkStream@@@@QAE@XZ ; CFuncObject<CPythonNetworkStream>::CFuncObject<CPythonNetworkStream>
PUBLIC	??1?$CFuncObject@VCPythonNetworkStream@@@@UAE@XZ ; CFuncObject<CPythonNetworkStream>::~CFuncObject<CPythonNetworkStream>
PUBLIC	?Clear@?$CFuncObject@VCPythonNetworkStream@@@@QAEXXZ ; CFuncObject<CPythonNetworkStream>::Clear
PUBLIC	?Set@?$CFuncObject@VCPythonNetworkStream@@@@QAEXPAVCPythonNetworkStream@@P82@AEXXZ@Z ; CFuncObject<CPythonNetworkStream>::Set
PUBLIC	?IsEmpty@?$CFuncObject@VCPythonNetworkStream@@@@QAE_NXZ ; CFuncObject<CPythonNetworkStream>::IsEmpty
PUBLIC	?Run@?$CFuncObject@VCPythonNetworkStream@@@@QAEXXZ ; CFuncObject<CPythonNetworkStream>::Run
PUBLIC	??0?$CRef@VCNetworkActorManager@@@@QAE@XZ	; CRef<CNetworkActorManager>::CRef<CNetworkActorManager>
PUBLIC	??1?$CRef@VCNetworkActorManager@@@@QAE@XZ	; CRef<CNetworkActorManager>::~CRef<CNetworkActorManager>
PUBLIC	??4?$CRef@VCNetworkActorManager@@@@QAEXPAVCReferenceObject@@@Z ; CRef<CNetworkActorManager>::operator=
PUBLIC	??C?$CRef@VCNetworkActorManager@@@@QBEPAVCNetworkActorManager@@XZ ; CRef<CNetworkActorManager>::operator->
PUBLIC	??0?$deque@V?$basic_string@DU?$char_traits@D@std@@V?$allocator@D@2@@std@@V?$allocator@V?$basic_string@DU?$char_traits@D@std@@V?$allocator@D@2@@std@@@2@@std@@QAE@XZ ; std::deque<std::basic_string<char,std::char_traits<char>,std::allocator<char> >,std::allocator<std::basic_string<char,std::char_traits<char>,std::allocator<char> > > >::deque<std::basic_string<char,std::char_traits<char>,std::allocator<char> >,std::allocator<std::basic_string<char,std::char_traits<char>,std::allocator<char> > > >
PUBLIC	??1?$deque@V?$basic_string@DU?$char_traits@D@std@@V?$allocator@D@2@@std@@V?$allocator@V?$basic_string@DU?$char_traits@D@std@@V?$allocator@D@2@@std@@@2@@std@@QAE@XZ ; std::deque<std::basic_string<char,std::char_traits<char>,std::allocator<char> >,std::allocator<std::basic_string<char,std::char_traits<char>,std::allocator<char> > > >::~deque<std::basic_string<char,std::char_traits<char>,std::allocator<char> >,std::allocator<std::basic_string<char,std::char_traits<char>,std::allocator<char> > > >
PUBLIC	?Instance@?$CSingleton@VCGuildMarkDownloader@@@@SAAAVCGuildMarkDownloader@@XZ ; CSingleton<CGuildMarkDownloader>::Instance
PUBLIC	?Instance@?$CSingleton@VCGuildMarkUploader@@@@SAAAVCGuildMarkUploader@@XZ ; CSingleton<CGuildMarkUploader>::Instance
PUBLIC	??1SMarkAuth@CPythonNetworkStream@@QAE@XZ	; CPythonNetworkStream::SMarkAuth::~SMarkAuth
PUBLIC	??0SMarkAuth@CPythonNetworkStream@@QAE@XZ	; CPythonNetworkStream::SMarkAuth::SMarkAuth
PUBLIC	??_GCPythonNetworkStream@@UAEPAXI@Z		; CPythonNetworkStream::`scalar deleting destructor'
PUBLIC	?SendEmoticon@CPythonNetworkStream@@QAEXI@Z	; CPythonNetworkStream::SendEmoticon
PUBLIC	?__ServerTimeSync_Initialize@CPythonNetworkStream@@IAEXXZ ; CPythonNetworkStream::__ServerTimeSync_Initialize
PUBLIC	?EXPORT_GetBettingGuildWarValue@CPythonNetworkStream@@QAEKPBD@Z ; CPythonNetworkStream::EXPORT_GetBettingGuildWarValue
PUBLIC	?__BettingGuildWar_Initialize@CPythonNetworkStream@@AAEXXZ ; CPythonNetworkStream::__BettingGuildWar_Initialize
PUBLIC	?__InitializeMarkAuth@CPythonNetworkStream@@IAEXXZ ; CPythonNetworkStream::__InitializeMarkAuth
PUBLIC	?__DirectEnterMode_IsSet@CPythonNetworkStream@@AAE_NXZ ; CPythonNetworkStream::__DirectEnterMode_IsSet
PUBLIC	?__DirectEnterMode_Set@CPythonNetworkStream@@AAEXI@Z ; CPythonNetworkStream::__DirectEnterMode_Set
PUBLIC	?__DirectEnterMode_Initialize@CPythonNetworkStream@@AAEXXZ ; CPythonNetworkStream::__DirectEnterMode_Initialize
PUBLIC	?__ClearSelectCharacterData@CPythonNetworkStream@@IAEXXZ ; CPythonNetworkStream::__ClearSelectCharacterData
PUBLIC	?GetEmpireID@CPythonNetworkStream@@QAEKXZ	; CPythonNetworkStream::GetEmpireID
PUBLIC	?SetEmpireID@CPythonNetworkStream@@QAEXK@Z	; CPythonNetworkStream::SetEmpireID
PUBLIC	?GetMainActorSkillGroup@CPythonNetworkStream@@QAEKXZ ; CPythonNetworkStream::GetMainActorSkillGroup
PUBLIC	?GetMainActorEmpire@CPythonNetworkStream@@QAEKXZ ; CPythonNetworkStream::GetMainActorEmpire
PUBLIC	?GetMainActorRace@CPythonNetworkStream@@QAEKXZ	; CPythonNetworkStream::GetMainActorRace
PUBLIC	?GetMainActorVID@CPythonNetworkStream@@QAEKXZ	; CPythonNetworkStream::GetMainActorVID
PUBLIC	?SetHandler@CPythonNetworkStream@@QAEXPAU_object@@@Z ; CPythonNetworkStream::SetHandler
PUBLIC	?SetGameOffline@CPythonNetworkStream@@IAEXXZ	; CPythonNetworkStream::SetGameOffline
PUBLIC	?SetGameOnline@CPythonNetworkStream@@IAEXXZ	; CPythonNetworkStream::SetGameOnline
PUBLIC	?ClosePhase@CPythonNetworkStream@@QAEXXZ	; CPythonNetworkStream::ClosePhase
PUBLIC	?SetOffLinePhase@CPythonNetworkStream@@QAEXXZ	; CPythonNetworkStream::SetOffLinePhase
PUBLIC	?OnProcess@CPythonNetworkStream@@MAE_NXZ	; CPythonNetworkStream::OnProcess
PUBLIC	?RecvDefaultPacket@CPythonNetworkStream@@IAE_NH@Z ; CPythonNetworkStream::RecvDefaultPacket
PUBLIC	?RecvPingPacket@CPythonNetworkStream@@IAE_NXZ	; CPythonNetworkStream::RecvPingPacket
PUBLIC	?RecvPhasePacket@CPythonNetworkStream@@IAE_NXZ	; CPythonNetworkStream::RecvPhasePacket
PUBLIC	?RecvErrorPacket@CPythonNetworkStream@@IAE_NH@Z	; CPythonNetworkStream::RecvErrorPacket
PUBLIC	?CheckPacket@CPythonNetworkStream@@IAE_NPAE@Z	; CPythonNetworkStream::CheckPacket
PUBLIC	?SetLoginInfo@CPythonNetworkStream@@QAEXPBD0@Z	; CPythonNetworkStream::SetLoginInfo
PUBLIC	?ConnectGameServer@CPythonNetworkStream@@QAEXI@Z ; CPythonNetworkStream::ConnectGameServer
PUBLIC	?SetMarkServer@CPythonNetworkStream@@QAEXPBDI@Z	; CPythonNetworkStream::SetMarkServer
PUBLIC	?ConnectLoginServer@CPythonNetworkStream@@QAEXPBDI@Z ; CPythonNetworkStream::ConnectLoginServer
PUBLIC	?GetAccountCharacterSlotDataz@CPythonNetworkStream@@QAEPBDII@Z ; CPythonNetworkStream::GetAccountCharacterSlotDataz
PUBLIC	?GetAccountCharacterSlotDatau@CPythonNetworkStream@@QAEIII@Z ; CPythonNetworkStream::GetAccountCharacterSlotDatau
PUBLIC	?IsSelectedEmpire@CPythonNetworkStream@@QAE_NXZ	; CPythonNetworkStream::IsSelectedEmpire
PUBLIC	?SetServerCommandParserWindow@CPythonNetworkStream@@QAEXPAU_object@@@Z ; CPythonNetworkStream::SetServerCommandParserWindow
PUBLIC	?ClearPhaseWindow@CPythonNetworkStream@@QAEXIPAU_object@@@Z ; CPythonNetworkStream::ClearPhaseWindow
PUBLIC	?SetPhaseWindow@CPythonNetworkStream@@QAEXIPAU_object@@@Z ; CPythonNetworkStream::SetPhaseWindow
PUBLIC	?__DownloadSymbol@CPythonNetworkStream@@IAEXABV?$vector@KV?$allocator@K@std@@@std@@@Z ; CPythonNetworkStream::__DownloadSymbol
PUBLIC	?__DownloadMark@CPythonNetworkStream@@IAEXXZ	; CPythonNetworkStream::__DownloadMark
PUBLIC	?UploadSymbol@CPythonNetworkStream@@QAEIPBD@Z	; CPythonNetworkStream::UploadSymbol
PUBLIC	?UploadMark@CPythonNetworkStream@@QAEIPBD@Z	; CPythonNetworkStream::UploadMark
PUBLIC	?GetGuildID@CPythonNetworkStream@@QAEKXZ	; CPythonNetworkStream::GetGuildID
PUBLIC	?__IsNotPing@CPythonNetworkStream@@IAE_NXZ	; CPythonNetworkStream::__IsNotPing
PUBLIC	?AbsoluteExitApplication@CPythonNetworkStream@@QAEXXZ ; CPythonNetworkStream::AbsoluteExitApplication
PUBLIC	?AbsoluteExitGame@CPythonNetworkStream@@QAEXXZ	; CPythonNetworkStream::AbsoluteExitGame
PUBLIC	?LogOutGame@CPythonNetworkStream@@QAEXXZ	; CPythonNetworkStream::LogOutGame
PUBLIC	?ExitGame@CPythonNetworkStream@@QAEXXZ		; CPythonNetworkStream::ExitGame
PUBLIC	?ExitApplication@CPythonNetworkStream@@QAEXXZ	; CPythonNetworkStream::ExitApplication
PUBLIC	??1CMainPacketHeaderMap@@UAE@XZ			; CMainPacketHeaderMap::~CMainPacketHeaderMap
PUBLIC	??_GCMainPacketHeaderMap@@UAEPAXI@Z		; CMainPacketHeaderMap::`scalar deleting destructor'
PUBLIC	??0CMainPacketHeaderMap@@QAE@XZ			; CMainPacketHeaderMap::CMainPacketHeaderMap
PUBLIC	?__LeaveOfflinePhase@CPythonNetworkStream@@IAEXXZ ; CPythonNetworkStream::__LeaveOfflinePhase
PUBLIC	??0SPacketType@CNetworkPacketHeaderMap@@QAE@H_N@Z ; CNetworkPacketHeaderMap::SPacketType::SPacketType
PUBLIC	??0CPythonNetworkStream@@QAE@XZ			; CPythonNetworkStream::CPythonNetworkStream
PUBLIC	??1CPythonNetworkStream@@UAE@XZ			; CPythonNetworkStream::~CPythonNetworkStream
PUBLIC	?SetWaitFlag@CPythonNetworkStream@@QAEXXZ	; CPythonNetworkStream::SetWaitFlag
PUBLIC	?ClearLoginInfo@CPythonNetworkStream@@QAEXXZ	; CPythonNetworkStream::ClearLoginInfo
PUBLIC	?SetLoginKey@CPythonNetworkStream@@QAEXK@Z	; CPythonNetworkStream::SetLoginKey
EXTRN	??_ECPythonNetworkStream@@UAEPAXI@Z:PROC	; CPythonNetworkStream::`vector deleting destructor'
EXTRN	??_E?$CSingleton@VCPythonNetworkStream@@@@UAEPAXI@Z:PROC ; CSingleton<CPythonNetworkStream>::`vector deleting destructor'
EXTRN	??_E?$CFuncObject@VCPythonNetworkStream@@@@UAEPAXI@Z:PROC ; CFuncObject<CPythonNetworkStream>::`vector deleting destructor'
EXTRN	??_ECMainPacketHeaderMap@@UAEPAXI@Z:PROC	; CMainPacketHeaderMap::`vector deleting destructor'
?gs_nextDownloadMarkTime@@3KA DD 01H DUP (?)		; gs_nextDownloadMarkTime
_BSS	ENDS
;	COMDAT ?s_szAddr@?6??GetAccountCharacterSlotDataz@CPythonNetworkStream@@QAEPBDII@Z@4PADA
_BSS	SEGMENT
?s_szAddr@?6??GetAccountCharacterSlotDataz@CPythonNetworkStream@@QAEPBDII@Z@4PADA DB 0100H DUP (?) ; `CPythonNetworkStream::GetAccountCharacterSlotDataz'::`7'::s_szAddr
_BSS	ENDS
;	COMDAT ?$TSS0@?1??CheckPacket@CPythonNetworkStream@@IAE_NPAE@Z@4HA
_BSS	SEGMENT
?$TSS0@?1??CheckPacket@CPythonNetworkStream@@IAE_NPAE@Z@4HA DD 01H DUP (?) ; `CPythonNetworkStream::CheckPacket'::`2'::$TSS0
_BSS	ENDS
;	COMDAT ?s_packetHeaderMap@?1??CheckPacket@CPythonNetworkStream@@IAE_NPAE@Z@4VCMainPacketHeaderMap@@A
_BSS	SEGMENT
?s_packetHeaderMap@?1??CheckPacket@CPythonNetworkStream@@IAE_NPAE@Z@4VCMainPacketHeaderMap@@A DB 0cH DUP (?) ; `CPythonNetworkStream::CheckPacket'::`2'::s_packetHeaderMap
_BSS	ENDS
;	COMDAT xdata$x
xdata$x	SEGMENT
__ehfuncinfo$??1CPythonNetworkStream@@UAE@XZ DD 019930522H
	DD	01H
	DD	FLAT:__unwindtable$??1CPythonNetworkStream@@UAE@XZ
	DD	2 DUP(00H)
	DD	2 DUP(00H)
	DD	00H
	DD	05H
__unwindtable$??1CPythonNetworkStream@@UAE@XZ DD 0ffffffffH
	DD	FLAT:___std_terminate
xdata$x	ENDS
;	COMDAT xdata$x
xdata$x	SEGMENT
__ehfuncinfo$??0CPythonNetworkStream@@QAE@XZ DD 019930522H
	DD	010H
	DD	FLAT:__unwindtable$??0CPythonNetworkStream@@QAE@XZ
	DD	2 DUP(00H)
	DD	2 DUP(00H)
	DD	00H
	DD	01H
	ORG $+4
__unwindtable$??0CPythonNetworkStream@@QAE@XZ DD 0ffffffffH
	DD	FLAT:__unwindfunclet$??0CPythonNetworkStream@@QAE@XZ$0
	DD	00H
	DD	FLAT:__unwindfunclet$??0CPythonNetworkStream@@QAE@XZ$1
	DD	01H
	DD	FLAT:__unwindfunclet$??0CPythonNetworkStream@@QAE@XZ$2
	DD	02H
	DD	FLAT:__unwindfunclet$??0CPythonNetworkStream@@QAE@XZ$3
	DD	03H
	DD	FLAT:__unwindfunclet$??0CPythonNetworkStream@@QAE@XZ$4
	DD	04H
	DD	FLAT:__unwindfunclet$??0CPythonNetworkStream@@QAE@XZ$5
	DD	05H
	DD	FLAT:__unwindfunclet$??0CPythonNetworkStream@@QAE@XZ$6
	DD	06H
	DD	FLAT:__unwindfunclet$??0CPythonNetworkStream@@QAE@XZ$7
	DD	07H
	DD	FLAT:__unwindfunclet$??0CPythonNetworkStream@@QAE@XZ$8
	DD	08H
	DD	FLAT:__unwindfunclet$??0CPythonNetworkStream@@QAE@XZ$9
	DD	09H
	DD	FLAT:__unwindfunclet$??0CPythonNetworkStream@@QAE@XZ$10
	DD	0aH
	DD	FLAT:__unwindfunclet$??0CPythonNetworkStream@@QAE@XZ$11
	DD	0bH
	DD	FLAT:__unwindfunclet$??0CPythonNetworkStream@@QAE@XZ$12
	DD	0cH
	DD	FLAT:__unwindfunclet$??0CPythonNetworkStream@@QAE@XZ$13
	DD	0dH
	DD	FLAT:__unwindfunclet$??0CPythonNetworkStream@@QAE@XZ$14
	DD	0eH
	DD	FLAT:__unwindfunclet$??0CPythonNetworkStream@@QAE@XZ$15
xdata$x	ENDS
;	COMDAT xdata$x
xdata$x	SEGMENT
__ehfuncinfo$??0CMainPacketHeaderMap@@QAE@XZ DD 019930522H
	DD	01H
	DD	FLAT:__unwindtable$??0CMainPacketHeaderMap@@QAE@XZ
	DD	2 DUP(00H)
	DD	2 DUP(00H)
	DD	00H
	DD	01H
__unwindtable$??0CMainPacketHeaderMap@@QAE@XZ DD 0ffffffffH
	DD	FLAT:__unwindfunclet$??0CMainPacketHeaderMap@@QAE@XZ$0
xdata$x	ENDS
;	COMDAT xdata$x
xdata$x	SEGMENT
__ehfuncinfo$?CheckPacket@CPythonNetworkStream@@IAE_NPAE@Z DD 019930522H
	DD	01H
	DD	FLAT:__unwindtable$?CheckPacket@CPythonNetworkStream@@IAE_NPAE@Z
	DD	2 DUP(00H)
	DD	2 DUP(00H)
	DD	00H
	DD	01H
__unwindtable$?CheckPacket@CPythonNetworkStream@@IAE_NPAE@Z DD 0ffffffffH
	DD	FLAT:__unwindfunclet$?CheckPacket@CPythonNetworkStream@@IAE_NPAE@Z$0
xdata$x	ENDS
;	COMDAT xdata$x
xdata$x	SEGMENT
__ehfuncinfo$??1?$CRef@VCNetworkActorManager@@@@QAE@XZ DD 019930522H
	DD	00H
	DD	00H
	DD	2 DUP(00H)
	DD	2 DUP(00H)
	DD	00H
	DD	05H
; Function compile flags: /Ogtp
; File E:\Metin2_server\SolWayneSF v6\ClientVS22\source\UserInterface\PythonNetworkStream.cpp
;	COMDAT ?SetLoginKey@CPythonNetworkStream@@QAEXK@Z
_TEXT	SEGMENT
_dwLoginKey$ = 8					; size = 4
?SetLoginKey@CPythonNetworkStream@@QAEXK@Z PROC		; CPythonNetworkStream::SetLoginKey, COMDAT
; _this$ = ecx

; 508  : {

  00000	55		 push	 ebp
  00001	8b ec		 mov	 ebp, esp

; 509  : 	m_dwLoginKey = dwLoginKey;

  00003	8b 45 08	 mov	 eax, DWORD PTR _dwLoginKey$[ebp]
  00006	89 81 24 01 00
	00		 mov	 DWORD PTR [ecx+292], eax

; 510  : }

  0000c	5d		 pop	 ebp
  0000d	c2 04 00	 ret	 4
?SetLoginKey@CPythonNetworkStream@@QAEXK@Z ENDP		; CPythonNetworkStream::SetLoginKey
_TEXT	ENDS
; Function compile flags: /Ogtp
; File E:\Metin2_server\SolWayneSF v6\ClientVS22\source\UserInterface\PythonNetworkStream.cpp
; File C:\Program Files\Microsoft Visual Studio\2022\Community\VC\Tools\MSVC\14.34.31933\include\xstring
; File E:\Metin2_server\SolWayneSF v6\ClientVS22\source\UserInterface\PythonNetworkStream.cpp
; File C:\Program Files\Microsoft Visual Studio\2022\Community\VC\Tools\MSVC\14.34.31933\include\xstring
; File E:\Metin2_server\SolWayneSF v6\ClientVS22\source\UserInterface\PythonNetworkStream.cpp
;	COMDAT ?ClearLoginInfo@CPythonNetworkStream@@QAEXXZ
_TEXT	SEGMENT
?ClearLoginInfo@CPythonNetworkStream@@QAEXXZ PROC	; CPythonNetworkStream::ClearLoginInfo, COMDAT
; _this$ = ecx
; File C:\Program Files\Microsoft Visual Studio\2022\Community\VC\Tools\MSVC\14.34.31933\include\xstring

; 3546 :         return assign(_Ptr, _Convert_size<size_type>(_Traits::length(_Ptr)));

  00000	6a 00		 push	 0
  00002	68 00 00 00 00	 push	 OFFSET ??_C@_00CNPNBAHC@@
; File E:\Metin2_server\SolWayneSF v6\ClientVS22\source\UserInterface\PythonNetworkStream.cpp

; 504  : 	m_stPassword = "";

  00007	81 c1 dc 00 00
	00		 add	 ecx, 220		; 000000dcH
; File C:\Program Files\Microsoft Visual Studio\2022\Community\VC\Tools\MSVC\14.34.31933\include\xstring

; 3546 :         return assign(_Ptr, _Convert_size<size_type>(_Traits::length(_Ptr)));

  0000d	e8 00 00 00 00	 call	 ?assign@?$basic_string@DU?$char_traits@D@std@@V?$allocator@D@2@@std@@QAEAAV12@QBDI@Z ; std::basic_string<char,std::char_traits<char>,std::allocator<char> >::assign
; File E:\Metin2_server\SolWayneSF v6\ClientVS22\source\UserInterface\PythonNetworkStream.cpp

; 505  : }

  00012	c3		 ret	 0
?ClearLoginInfo@CPythonNetworkStream@@QAEXXZ ENDP	; CPythonNetworkStream::ClearLoginInfo
_TEXT	ENDS
; Function compile flags: /Ogtp
; File E:\Metin2_server\SolWayneSF v6\ClientVS22\source\UserInterface\PythonNetworkStream.cpp
;	COMDAT ?SetWaitFlag@CPythonNetworkStream@@QAEXXZ
_TEXT	SEGMENT
?SetWaitFlag@CPythonNetworkStream@@QAEXXZ PROC		; CPythonNetworkStream::SetWaitFlag, COMDAT
; _this$ = ecx

; 873  : 	m_isWaitLoginKey = TRUE;

  00000	c7 81 28 01 00
	00 01 00 00 00	 mov	 DWORD PTR [ecx+296], 1

; 874  : }

  0000a	c3		 ret	 0
?SetWaitFlag@CPythonNetworkStream@@QAEXXZ ENDP		; CPythonNetworkStream::SetWaitFlag
_TEXT	ENDS
; Function compile flags: /Ogtp
; File E:\Metin2_server\SolWayneSF v6\ClientVS22\source\UserInterface\PythonNetworkStream.cpp
; File C:\Program Files\Microsoft Visual Studio\2022\Community\VC\Tools\MSVC\14.34.31933\include\deque
; File C:\Program Files\Microsoft Visual Studio\2022\Community\VC\Tools\MSVC\14.34.31933\include\utility
; File C:\Program Files\Microsoft Visual Studio\2022\Community\VC\Tools\MSVC\14.34.31933\include\xmemory
; File C:\Program Files\Microsoft Visual Studio\2022\Community\VC\Tools\MSVC\14.34.31933\include\utility
; File C:\Program Files\Microsoft Visual Studio\2022\Community\VC\Tools\MSVC\14.34.31933\include\xmemory
; File E:\Metin2_server\SolWayneSF v6\ClientVS22\source\UserInterface\PythonNetworkStream.cpp
; File C:\Program Files\Microsoft Visual Studio\2022\Community\VC\Tools\MSVC\14.34.31933\include\vector
; File E:\Metin2_server\SolWayneSF v6\ClientVS22\source\eterlib\Ref.h
; File E:\Metin2_server\SolWayneSF v6\ClientVS22\source\UserInterface\PythonNetworkStream.cpp
; File E:\Metin2_server\SolWayneSF v6\ClientVS22\source\eterlib\Ref.h
; File E:\Metin2_server\SolWayneSF v6\ClientVS22\source\UserInterface\PythonNetworkStream.cpp
; File C:\Program Files\Microsoft Visual Studio\2022\Community\VC\Tools\MSVC\14.34.31933\include\xstring
; File C:\Program Files\Microsoft Visual Studio\2022\Community\VC\Tools\MSVC\14.34.31933\include\xmemory
; File C:\Program Files\Microsoft Visual Studio\2022\Community\VC\Tools\MSVC\14.34.31933\include\xstring
; File C:\Program Files\Microsoft Visual Studio\2022\Community\VC\Tools\MSVC\14.34.31933\include\xmemory
; File C:\Program Files\Microsoft Visual Studio\2022\Community\VC\Tools\MSVC\14.34.31933\include\xstring
; File C:\Program Files\Microsoft Visual Studio\2022\Community\VC\Tools\MSVC\14.34.31933\include\xmemory
; File C:\Program Files\Microsoft Visual Studio\2022\Community\VC\Tools\MSVC\14.34.31933\include\xstring
; File C:\Program Files\Microsoft Visual Studio\2022\Community\VC\Tools\MSVC\14.34.31933\include\xmemory
; File C:\Program Files\Microsoft Visual Studio\2022\Community\VC\Tools\MSVC\14.34.31933\include\xstring
; File C:\Program Files\Microsoft Visual Studio\2022\Community\VC\Tools\MSVC\14.34.31933\include\xmemory
; File C:\Program Files\Microsoft Visual Studio\2022\Community\VC\Tools\MSVC\14.34.31933\include\xstring
; File C:\Program Files\Microsoft Visual Studio\2022\Community\VC\Tools\MSVC\14.34.31933\include\xmemory
; File C:\Program Files\Microsoft Visual Studio\2022\Community\VC\Tools\MSVC\14.34.31933\include\xstring
; File C:\Program Files\Microsoft Visual Studio\2022\Community\VC\Tools\MSVC\14.34.31933\include\xmemory
; File C:\Program Files\Microsoft Visual Studio\2022\Community\VC\Tools\MSVC\14.34.31933\include\xstring
; File C:\Program Files\Microsoft Visual Studio\2022\Community\VC\Tools\MSVC\14.34.31933\include\xmemory
; File C:\Program Files\Microsoft Visual Studio\2022\Community\VC\Tools\MSVC\14.34.31933\include\xstring
; File C:\Program Files\Microsoft Visual Studio\2022\Community\VC\Tools\MSVC\14.34.31933\include\xmemory
; File C:\Program Files\Microsoft Visual Studio\2022\Community\VC\Tools\MSVC\14.34.31933\include\xstring
; File C:\Program Files\Microsoft Visual Studio\2022\Community\VC\Tools\MSVC\14.34.31933\include\xmemory
; File C:\Program Files\Microsoft Visual Studio\2022\Community\VC\Tools\MSVC\14.34.31933\include\xstring
; File E:\Metin2_server\SolWayneSF v6\ClientVS22\source\UserInterface\PythonNetworkStream.cpp
; File C:\Program Files\Microsoft Visual Studio\2022\Community\VC\Tools\MSVC\14.34.31933\include\xstring
; File E:\Metin2_server\SolWayneSF v6\ClientVS22\source\eterBase\Singleton.h
; File E:\Metin2_server\SolWayneSF v6\ClientVS22\source\UserInterface\PythonNetworkStream.cpp
; File C:\Program Files\Microsoft Visual Studio\2022\Community\VC\Tools\MSVC\14.34.31933\include\xmemory
; File E:\Metin2_server\SolWayneSF v6\ClientVS22\source\UserInterface\PythonNetworkStream.cpp
;	COMDAT ??1CPythonNetworkStream@@UAE@XZ
_TEXT	SEGMENT
__$EHRec$ = -12						; size = 12
??1CPythonNetworkStream@@UAE@XZ PROC			; CPythonNetworkStream::~CPythonNetworkStream, COMDAT
; _this$ = ecx

; 923  : {

  00000	55		 push	 ebp
  00001	8b ec		 mov	 ebp, esp
  00003	6a ff		 push	 -1
  00005	68 00 00 00 00	 push	 __ehhandler$??1CPythonNetworkStream@@UAE@XZ
  0000a	64 a1 00 00 00
	00		 mov	 eax, DWORD PTR fs:0
  00010	50		 push	 eax
  00011	56		 push	 esi
  00012	57		 push	 edi
  00013	a1 00 00 00 00	 mov	 eax, DWORD PTR ___security_cookie
  00018	33 c5		 xor	 eax, ebp
  0001a	50		 push	 eax
  0001b	8d 45 f4	 lea	 eax, DWORD PTR __$EHRec$[ebp]
  0001e	64 a3 00 00 00
	00		 mov	 DWORD PTR fs:0, eax
  00024	8b f9		 mov	 edi, ecx

; 924  : 	Tracen("PythonNetworkMainStream Clear");

  00026	68 00 00 00 00	 push	 OFFSET ??_C@_0BO@OMGIOKNA@PythonNetworkMainStream?5Clear@
  0002b	c7 07 00 00 00
	00		 mov	 DWORD PTR [edi], OFFSET ??_7CPythonNetworkStream@@6BCNetworkStream@@@
  00031	c7 47 7c 00 00
	00 00		 mov	 DWORD PTR [edi+124], OFFSET ??_7CPythonNetworkStream@@6B?$CSingleton@VCPythonNetworkStream@@@@@
  00038	e8 00 00 00 00	 call	 ?Tracen@@YAXPBD@Z	; Tracen
  0003d	83 c4 04	 add	 esp, 4
; File C:\Program Files\Microsoft Visual Studio\2022\Community\VC\Tools\MSVC\14.34.31933\include\deque

; 905  :         _Tidy();

  00040	8d 8f 2c 79 00
	00		 lea	 ecx, DWORD PTR [edi+31020]
  00046	e8 00 00 00 00	 call	 ?_Tidy@?$deque@V?$basic_string@DU?$char_traits@D@std@@V?$allocator@D@2@@std@@V?$allocator@V?$basic_string@DU?$char_traits@D@std@@V?$allocator@D@2@@std@@@2@@std@@AAEXXZ ; std::deque<std::basic_string<char,std::char_traits<char>,std::allocator<char> >,std::allocator<std::basic_string<char,std::char_traits<char>,std::allocator<char> > > >::_Tidy
; File C:\Program Files\Microsoft Visual Studio\2022\Community\VC\Tools\MSVC\14.34.31933\include\utility

; 653  :     _Ty _Old_val = static_cast<_Ty&&>(_Val);

  0004b	8b 87 2c 79 00
	00		 mov	 eax, DWORD PTR [edi+31020]
; File C:\Program Files\Microsoft Visual Studio\2022\Community\VC\Tools\MSVC\14.34.31933\include\xmemory

; 255  :         ::operator delete(_Ptr, _Bytes);

  00051	6a 08		 push	 8
  00053	50		 push	 eax
; File C:\Program Files\Microsoft Visual Studio\2022\Community\VC\Tools\MSVC\14.34.31933\include\utility

; 654  :     _Val         = static_cast<_Other&&>(_New_val);

  00054	c7 87 2c 79 00
	00 00 00 00 00	 mov	 DWORD PTR [edi+31020], 0
; File C:\Program Files\Microsoft Visual Studio\2022\Community\VC\Tools\MSVC\14.34.31933\include\xmemory

; 255  :         ::operator delete(_Ptr, _Bytes);

  0005e	e8 00 00 00 00	 call	 ??3@YAXPAXI@Z		; operator delete
  00063	83 c4 08	 add	 esp, 8
; File E:\Metin2_server\SolWayneSF v6\ClientVS22\source\UserInterface\PythonNetworkStream.cpp

; 925  : }

  00066	8d 8f 1c 79 00
	00		 lea	 ecx, DWORD PTR [edi+31004]
  0006c	e8 00 00 00 00	 call	 ??1CInsultChecker@@UAE@XZ ; CInsultChecker::~CInsultChecker
  00071	8d 8f 00 79 00
	00		 lea	 ecx, DWORD PTR [edi+30976]
  00077	e8 00 00 00 00	 call	 ??1CNetworkAddress@@QAE@XZ ; CNetworkAddress::~CNetworkAddress
  0007c	8d 8f 28 03 00
	00		 lea	 ecx, DWORD PTR [edi+808]
; File C:\Program Files\Microsoft Visual Studio\2022\Community\VC\Tools\MSVC\14.34.31933\include\vector

; 830  :         _Tidy();

  00082	e8 00 00 00 00	 call	 ?_Tidy@?$vector@V?$basic_string@DU?$char_traits@D@std@@V?$allocator@D@2@@std@@V?$allocator@V?$basic_string@DU?$char_traits@D@std@@V?$allocator@D@2@@std@@@2@@std@@AAEXXZ ; std::vector<std::basic_string<char,std::char_traits<char>,std::allocator<char> >,std::allocator<std::basic_string<char,std::char_traits<char>,std::allocator<char> > > >::_Tidy
; File E:\Metin2_server\SolWayneSF v6\ClientVS22\source\eterlib\Ref.h

; 37   : 		{

  00087	c7 45 fc 00 00
	00 00		 mov	 DWORD PTR __$EHRec$[ebp+8], 0

; 53   : 			if (m_pObject)

  0008e	8b 8f 14 03 00
	00		 mov	 ecx, DWORD PTR [edi+788]
  00094	85 c9		 test	 ecx, ecx
  00096	74 0f		 je	 SHORT $LN64@CPythonNet

; 54   : 			{
; 55   : 				m_pObject->Release();

  00098	e8 00 00 00 00	 call	 ?Release@CReferenceObject@@QAEXXZ ; CReferenceObject::Release

; 56   : 				m_pObject = NULL;

  0009d	c7 87 14 03 00
	00 00 00 00 00	 mov	 DWORD PTR [edi+788], 0
$LN64@CPythonNet:
; File E:\Metin2_server\SolWayneSF v6\ClientVS22\source\UserInterface\PythonNetworkStream.cpp

; 925  : }

  000a7	68 00 00 00 00	 push	 OFFSET ??1?$basic_string@DU?$char_traits@D@std@@V?$allocator@D@2@@std@@QAE@XZ ; std::basic_string<char,std::char_traits<char>,std::allocator<char> >::~basic_string<char,std::char_traits<char>,std::allocator<char> >
  000ac	6a 04		 push	 4
  000ae	6a 18		 push	 24			; 00000018H
  000b0	8d 87 b0 02 00
	00		 lea	 eax, DWORD PTR [edi+688]
; File E:\Metin2_server\SolWayneSF v6\ClientVS22\source\eterlib\Ref.h

; 39   : 		}

  000b6	c7 45 fc ff ff
	ff ff		 mov	 DWORD PTR __$EHRec$[ebp+8], -1
; File E:\Metin2_server\SolWayneSF v6\ClientVS22\source\UserInterface\PythonNetworkStream.cpp

; 925  : }

  000bd	50		 push	 eax
  000be	e8 00 00 00 00	 call	 ??_M@YGXPAXIIP6EX0@Z@Z
  000c3	c7 87 60 01 00
	00 00 00 00 00	 mov	 DWORD PTR [edi+352], OFFSET ??_7?$CFuncObject@VCPythonNetworkStream@@@@6B@
  000cd	c7 87 48 01 00
	00 00 00 00 00	 mov	 DWORD PTR [edi+328], OFFSET ??_7?$CFuncObject@VCPythonNetworkStream@@@@6B@
; File C:\Program Files\Microsoft Visual Studio\2022\Community\VC\Tools\MSVC\14.34.31933\include\xstring

; 2301 :         return _BUF_SIZE <= _Myres;

  000d7	8b 8f 40 01 00
	00		 mov	 ecx, DWORD PTR [edi+320]
  000dd	83 f9 10	 cmp	 ecx, 16			; 00000010H

; 5008 :         if (_My_data._Large_string_engaged()) {

  000e0	72 2f		 jb	 SHORT $LN78@CPythonNet
; File C:\Program Files\Microsoft Visual Studio\2022\Community\VC\Tools\MSVC\14.34.31933\include\xmemory

; 830  :         _Deallocate<_New_alignof<_Ty>>(_Ptr, sizeof(_Ty) * _Count);

  000e2	8b 87 2c 01 00
	00		 mov	 eax, DWORD PTR [edi+300]
; File C:\Program Files\Microsoft Visual Studio\2022\Community\VC\Tools\MSVC\14.34.31933\include\xstring

; 5013 :             _Al.deallocate(_Ptr, _My_data._Myres + 1);

  000e8	41		 inc	 ecx
; File C:\Program Files\Microsoft Visual Studio\2022\Community\VC\Tools\MSVC\14.34.31933\include\xmemory

; 251  :         if (_Bytes >= _Big_allocation_threshold) { // boost the alignment of big allocations to help autovectorization

  000e9	81 f9 00 10 00
	00		 cmp	 ecx, 4096		; 00001000H
  000ef	72 16		 jb	 SHORT $LN90@CPythonNet

; 150  :     const uintptr_t _Ptr_container   = _Ptr_user[-1];

  000f1	8b 50 fc	 mov	 edx, DWORD PTR [eax-4]
  000f4	83 c1 23	 add	 ecx, 35			; 00000023H

; 151  : 
; 152  :     // If the following asserts, it likely means that we are performing
; 153  :     // an aligned delete on memory coming from an unaligned allocation.
; 154  :     _STL_ASSERT(_Ptr_user[-2] == _Big_allocation_sentinel, "invalid argument");
; 155  : 
; 156  :     // Extra paranoia on aligned allocation/deallocation; ensure _Ptr_container is
; 157  :     // in range [_Min_back_shift, _Non_user_size]
; 158  : #ifdef _DEBUG
; 159  :     constexpr uintptr_t _Min_back_shift = 2 * sizeof(void*);
; 160  : #else // ^^^ _DEBUG ^^^ // vvv !_DEBUG vvv
; 161  :     constexpr uintptr_t _Min_back_shift = sizeof(void*);
; 162  : #endif // _DEBUG
; 163  :     const uintptr_t _Back_shift = reinterpret_cast<uintptr_t>(_Ptr) - _Ptr_container;

  000f7	2b c2		 sub	 eax, edx

; 164  :     _STL_VERIFY(_Back_shift >= _Min_back_shift && _Back_shift <= _Non_user_size, "invalid argument");

  000f9	83 c0 fc	 add	 eax, -4			; fffffffcH
  000fc	83 f8 1f	 cmp	 eax, 31			; 0000001fH
  000ff	0f 87 a0 01 00
	00		 ja	 $LN203@CPythonNet

; 165  :     _Ptr = reinterpret_cast<void*>(_Ptr_container);

  00105	8b c2		 mov	 eax, edx
$LN90@CPythonNet:

; 255  :         ::operator delete(_Ptr, _Bytes);

  00107	51		 push	 ecx
  00108	50		 push	 eax
  00109	e8 00 00 00 00	 call	 ??3@YAXPAXI@Z		; operator delete
  0010e	83 c4 08	 add	 esp, 8
$LN78@CPythonNet:
; File C:\Program Files\Microsoft Visual Studio\2022\Community\VC\Tools\MSVC\14.34.31933\include\xstring

; 5016 :         _My_data._Mysize = 0;

  00111	c7 87 3c 01 00
	00 00 00 00 00	 mov	 DWORD PTR [edi+316], 0

; 5017 :         _My_data._Myres  = _BUF_SIZE - 1;

  0011b	c7 87 40 01 00
	00 0f 00 00 00	 mov	 DWORD PTR [edi+320], 15	; 0000000fH

; 5018 :         // the _Traits::assign is last so the codegen doesn't think the char write can alias this
; 5019 :         _Traits::assign(_My_data._Bx._Buf[0], _Elem());

  00125	c6 87 2c 01 00
	00 00		 mov	 BYTE PTR [edi+300], 0

; 2301 :         return _BUF_SIZE <= _Myres;

  0012c	8b 8f 20 01 00
	00		 mov	 ecx, DWORD PTR [edi+288]
  00132	83 f9 10	 cmp	 ecx, 16			; 00000010H

; 5008 :         if (_My_data._Large_string_engaged()) {

  00135	72 2f		 jb	 SHORT $LN107@CPythonNet
; File C:\Program Files\Microsoft Visual Studio\2022\Community\VC\Tools\MSVC\14.34.31933\include\xmemory

; 830  :         _Deallocate<_New_alignof<_Ty>>(_Ptr, sizeof(_Ty) * _Count);

  00137	8b 87 0c 01 00
	00		 mov	 eax, DWORD PTR [edi+268]
; File C:\Program Files\Microsoft Visual Studio\2022\Community\VC\Tools\MSVC\14.34.31933\include\xstring

; 5013 :             _Al.deallocate(_Ptr, _My_data._Myres + 1);

  0013d	41		 inc	 ecx
; File C:\Program Files\Microsoft Visual Studio\2022\Community\VC\Tools\MSVC\14.34.31933\include\xmemory

; 251  :         if (_Bytes >= _Big_allocation_threshold) { // boost the alignment of big allocations to help autovectorization

  0013e	81 f9 00 10 00
	00		 cmp	 ecx, 4096		; 00001000H
  00144	72 16		 jb	 SHORT $LN119@CPythonNet

; 150  :     const uintptr_t _Ptr_container   = _Ptr_user[-1];

  00146	8b 50 fc	 mov	 edx, DWORD PTR [eax-4]
  00149	83 c1 23	 add	 ecx, 35			; 00000023H

; 151  : 
; 152  :     // If the following asserts, it likely means that we are performing
; 153  :     // an aligned delete on memory coming from an unaligned allocation.
; 154  :     _STL_ASSERT(_Ptr_user[-2] == _Big_allocation_sentinel, "invalid argument");
; 155  : 
; 156  :     // Extra paranoia on aligned allocation/deallocation; ensure _Ptr_container is
; 157  :     // in range [_Min_back_shift, _Non_user_size]
; 158  : #ifdef _DEBUG
; 159  :     constexpr uintptr_t _Min_back_shift = 2 * sizeof(void*);
; 160  : #else // ^^^ _DEBUG ^^^ // vvv !_DEBUG vvv
; 161  :     constexpr uintptr_t _Min_back_shift = sizeof(void*);
; 162  : #endif // _DEBUG
; 163  :     const uintptr_t _Back_shift = reinterpret_cast<uintptr_t>(_Ptr) - _Ptr_container;

  0014c	2b c2		 sub	 eax, edx

; 164  :     _STL_VERIFY(_Back_shift >= _Min_back_shift && _Back_shift <= _Non_user_size, "invalid argument");

  0014e	83 c0 fc	 add	 eax, -4			; fffffffcH
  00151	83 f8 1f	 cmp	 eax, 31			; 0000001fH
  00154	0f 87 4b 01 00
	00		 ja	 $LN203@CPythonNet

; 165  :     _Ptr = reinterpret_cast<void*>(_Ptr_container);

  0015a	8b c2		 mov	 eax, edx
$LN119@CPythonNet:

; 255  :         ::operator delete(_Ptr, _Bytes);

  0015c	51		 push	 ecx
  0015d	50		 push	 eax
  0015e	e8 00 00 00 00	 call	 ??3@YAXPAXI@Z		; operator delete
  00163	83 c4 08	 add	 esp, 8
$LN107@CPythonNet:
; File C:\Program Files\Microsoft Visual Studio\2022\Community\VC\Tools\MSVC\14.34.31933\include\xstring

; 5016 :         _My_data._Mysize = 0;

  00166	c7 87 1c 01 00
	00 00 00 00 00	 mov	 DWORD PTR [edi+284], 0

; 5017 :         _My_data._Myres  = _BUF_SIZE - 1;

  00170	c7 87 20 01 00
	00 0f 00 00 00	 mov	 DWORD PTR [edi+288], 15	; 0000000fH

; 5018 :         // the _Traits::assign is last so the codegen doesn't think the char write can alias this
; 5019 :         _Traits::assign(_My_data._Bx._Buf[0], _Elem());

  0017a	c6 87 0c 01 00
	00 00		 mov	 BYTE PTR [edi+268], 0

; 2301 :         return _BUF_SIZE <= _Myres;

  00181	8b 8f 08 01 00
	00		 mov	 ecx, DWORD PTR [edi+264]
  00187	83 f9 10	 cmp	 ecx, 16			; 00000010H

; 5008 :         if (_My_data._Large_string_engaged()) {

  0018a	72 2f		 jb	 SHORT $LN136@CPythonNet
; File C:\Program Files\Microsoft Visual Studio\2022\Community\VC\Tools\MSVC\14.34.31933\include\xmemory

; 830  :         _Deallocate<_New_alignof<_Ty>>(_Ptr, sizeof(_Ty) * _Count);

  0018c	8b 87 f4 00 00
	00		 mov	 eax, DWORD PTR [edi+244]
; File C:\Program Files\Microsoft Visual Studio\2022\Community\VC\Tools\MSVC\14.34.31933\include\xstring

; 5013 :             _Al.deallocate(_Ptr, _My_data._Myres + 1);

  00192	41		 inc	 ecx
; File C:\Program Files\Microsoft Visual Studio\2022\Community\VC\Tools\MSVC\14.34.31933\include\xmemory

; 251  :         if (_Bytes >= _Big_allocation_threshold) { // boost the alignment of big allocations to help autovectorization

  00193	81 f9 00 10 00
	00		 cmp	 ecx, 4096		; 00001000H
  00199	72 16		 jb	 SHORT $LN148@CPythonNet

; 150  :     const uintptr_t _Ptr_container   = _Ptr_user[-1];

  0019b	8b 50 fc	 mov	 edx, DWORD PTR [eax-4]
  0019e	83 c1 23	 add	 ecx, 35			; 00000023H

; 151  : 
; 152  :     // If the following asserts, it likely means that we are performing
; 153  :     // an aligned delete on memory coming from an unaligned allocation.
; 154  :     _STL_ASSERT(_Ptr_user[-2] == _Big_allocation_sentinel, "invalid argument");
; 155  : 
; 156  :     // Extra paranoia on aligned allocation/deallocation; ensure _Ptr_container is
; 157  :     // in range [_Min_back_shift, _Non_user_size]
; 158  : #ifdef _DEBUG
; 159  :     constexpr uintptr_t _Min_back_shift = 2 * sizeof(void*);
; 160  : #else // ^^^ _DEBUG ^^^ // vvv !_DEBUG vvv
; 161  :     constexpr uintptr_t _Min_back_shift = sizeof(void*);
; 162  : #endif // _DEBUG
; 163  :     const uintptr_t _Back_shift = reinterpret_cast<uintptr_t>(_Ptr) - _Ptr_container;

  001a1	2b c2		 sub	 eax, edx

; 164  :     _STL_VERIFY(_Back_shift >= _Min_back_shift && _Back_shift <= _Non_user_size, "invalid argument");

  001a3	83 c0 fc	 add	 eax, -4			; fffffffcH
  001a6	83 f8 1f	 cmp	 eax, 31			; 0000001fH
  001a9	0f 87 f6 00 00
	00		 ja	 $LN203@CPythonNet

; 165  :     _Ptr = reinterpret_cast<void*>(_Ptr_container);

  001af	8b c2		 mov	 eax, edx
$LN148@CPythonNet:

; 255  :         ::operator delete(_Ptr, _Bytes);

  001b1	51		 push	 ecx
  001b2	50		 push	 eax
  001b3	e8 00 00 00 00	 call	 ??3@YAXPAXI@Z		; operator delete
  001b8	83 c4 08	 add	 esp, 8
$LN136@CPythonNet:
; File C:\Program Files\Microsoft Visual Studio\2022\Community\VC\Tools\MSVC\14.34.31933\include\xstring

; 5016 :         _My_data._Mysize = 0;

  001bb	c7 87 04 01 00
	00 00 00 00 00	 mov	 DWORD PTR [edi+260], 0

; 5017 :         _My_data._Myres  = _BUF_SIZE - 1;

  001c5	c7 87 08 01 00
	00 0f 00 00 00	 mov	 DWORD PTR [edi+264], 15	; 0000000fH

; 5018 :         // the _Traits::assign is last so the codegen doesn't think the char write can alias this
; 5019 :         _Traits::assign(_My_data._Bx._Buf[0], _Elem());

  001cf	c6 87 f4 00 00
	00 00		 mov	 BYTE PTR [edi+244], 0

; 2301 :         return _BUF_SIZE <= _Myres;

  001d6	8b 8f f0 00 00
	00		 mov	 ecx, DWORD PTR [edi+240]
  001dc	83 f9 10	 cmp	 ecx, 16			; 00000010H

; 5008 :         if (_My_data._Large_string_engaged()) {

  001df	72 2f		 jb	 SHORT $LN165@CPythonNet
; File C:\Program Files\Microsoft Visual Studio\2022\Community\VC\Tools\MSVC\14.34.31933\include\xmemory

; 830  :         _Deallocate<_New_alignof<_Ty>>(_Ptr, sizeof(_Ty) * _Count);

  001e1	8b 87 dc 00 00
	00		 mov	 eax, DWORD PTR [edi+220]
; File C:\Program Files\Microsoft Visual Studio\2022\Community\VC\Tools\MSVC\14.34.31933\include\xstring

; 5013 :             _Al.deallocate(_Ptr, _My_data._Myres + 1);

  001e7	41		 inc	 ecx
; File C:\Program Files\Microsoft Visual Studio\2022\Community\VC\Tools\MSVC\14.34.31933\include\xmemory

; 251  :         if (_Bytes >= _Big_allocation_threshold) { // boost the alignment of big allocations to help autovectorization

  001e8	81 f9 00 10 00
	00		 cmp	 ecx, 4096		; 00001000H
  001ee	72 16		 jb	 SHORT $LN177@CPythonNet

; 150  :     const uintptr_t _Ptr_container   = _Ptr_user[-1];

  001f0	8b 50 fc	 mov	 edx, DWORD PTR [eax-4]
  001f3	83 c1 23	 add	 ecx, 35			; 00000023H

; 151  : 
; 152  :     // If the following asserts, it likely means that we are performing
; 153  :     // an aligned delete on memory coming from an unaligned allocation.
; 154  :     _STL_ASSERT(_Ptr_user[-2] == _Big_allocation_sentinel, "invalid argument");
; 155  : 
; 156  :     // Extra paranoia on aligned allocation/deallocation; ensure _Ptr_container is
; 157  :     // in range [_Min_back_shift, _Non_user_size]
; 158  : #ifdef _DEBUG
; 159  :     constexpr uintptr_t _Min_back_shift = 2 * sizeof(void*);
; 160  : #else // ^^^ _DEBUG ^^^ // vvv !_DEBUG vvv
; 161  :     constexpr uintptr_t _Min_back_shift = sizeof(void*);
; 162  : #endif // _DEBUG
; 163  :     const uintptr_t _Back_shift = reinterpret_cast<uintptr_t>(_Ptr) - _Ptr_container;

  001f6	2b c2		 sub	 eax, edx

; 164  :     _STL_VERIFY(_Back_shift >= _Min_back_shift && _Back_shift <= _Non_user_size, "invalid argument");

  001f8	83 c0 fc	 add	 eax, -4			; fffffffcH
  001fb	83 f8 1f	 cmp	 eax, 31			; 0000001fH
  001fe	0f 87 a1 00 00
	00		 ja	 $LN203@CPythonNet

; 165  :     _Ptr = reinterpret_cast<void*>(_Ptr_container);

  00204	8b c2		 mov	 eax, edx
$LN177@CPythonNet:

; 255  :         ::operator delete(_Ptr, _Bytes);

  00206	51		 push	 ecx
  00207	50		 push	 eax
  00208	e8 00 00 00 00	 call	 ??3@YAXPAXI@Z		; operator delete
  0020d	83 c4 08	 add	 esp, 8
$LN165@CPythonNet:
; File C:\Program Files\Microsoft Visual Studio\2022\Community\VC\Tools\MSVC\14.34.31933\include\xstring

; 5016 :         _My_data._Mysize = 0;

  00210	c7 87 ec 00 00
	00 00 00 00 00	 mov	 DWORD PTR [edi+236], 0

; 5017 :         _My_data._Myres  = _BUF_SIZE - 1;

  0021a	c7 87 f0 00 00
	00 0f 00 00 00	 mov	 DWORD PTR [edi+240], 15	; 0000000fH

; 5018 :         // the _Traits::assign is last so the codegen doesn't think the char write can alias this
; 5019 :         _Traits::assign(_My_data._Bx._Buf[0], _Elem());

  00224	c6 87 dc 00 00
	00 00		 mov	 BYTE PTR [edi+220], 0

; 2301 :         return _BUF_SIZE <= _Myres;

  0022b	8b 8f d8 00 00
	00		 mov	 ecx, DWORD PTR [edi+216]
  00231	83 f9 10	 cmp	 ecx, 16			; 00000010H

; 5008 :         if (_My_data._Large_string_engaged()) {

  00234	72 2b		 jb	 SHORT $LN194@CPythonNet
; File C:\Program Files\Microsoft Visual Studio\2022\Community\VC\Tools\MSVC\14.34.31933\include\xmemory

; 830  :         _Deallocate<_New_alignof<_Ty>>(_Ptr, sizeof(_Ty) * _Count);

  00236	8b 87 c4 00 00
	00		 mov	 eax, DWORD PTR [edi+196]
; File C:\Program Files\Microsoft Visual Studio\2022\Community\VC\Tools\MSVC\14.34.31933\include\xstring

; 5013 :             _Al.deallocate(_Ptr, _My_data._Myres + 1);

  0023c	41		 inc	 ecx
; File C:\Program Files\Microsoft Visual Studio\2022\Community\VC\Tools\MSVC\14.34.31933\include\xmemory

; 251  :         if (_Bytes >= _Big_allocation_threshold) { // boost the alignment of big allocations to help autovectorization

  0023d	81 f9 00 10 00
	00		 cmp	 ecx, 4096		; 00001000H
  00243	72 12		 jb	 SHORT $LN206@CPythonNet

; 150  :     const uintptr_t _Ptr_container   = _Ptr_user[-1];

  00245	8b 50 fc	 mov	 edx, DWORD PTR [eax-4]
  00248	83 c1 23	 add	 ecx, 35			; 00000023H

; 151  : 
; 152  :     // If the following asserts, it likely means that we are performing
; 153  :     // an aligned delete on memory coming from an unaligned allocation.
; 154  :     _STL_ASSERT(_Ptr_user[-2] == _Big_allocation_sentinel, "invalid argument");
; 155  : 
; 156  :     // Extra paranoia on aligned allocation/deallocation; ensure _Ptr_container is
; 157  :     // in range [_Min_back_shift, _Non_user_size]
; 158  : #ifdef _DEBUG
; 159  :     constexpr uintptr_t _Min_back_shift = 2 * sizeof(void*);
; 160  : #else // ^^^ _DEBUG ^^^ // vvv !_DEBUG vvv
; 161  :     constexpr uintptr_t _Min_back_shift = sizeof(void*);
; 162  : #endif // _DEBUG
; 163  :     const uintptr_t _Back_shift = reinterpret_cast<uintptr_t>(_Ptr) - _Ptr_container;

  0024b	2b c2		 sub	 eax, edx

; 164  :     _STL_VERIFY(_Back_shift >= _Min_back_shift && _Back_shift <= _Non_user_size, "invalid argument");

  0024d	83 c0 fc	 add	 eax, -4			; fffffffcH
  00250	83 f8 1f	 cmp	 eax, 31			; 0000001fH
  00253	77 50		 ja	 SHORT $LN203@CPythonNet

; 165  :     _Ptr = reinterpret_cast<void*>(_Ptr_container);

  00255	8b c2		 mov	 eax, edx
$LN206@CPythonNet:

; 255  :         ::operator delete(_Ptr, _Bytes);

  00257	51		 push	 ecx
  00258	50		 push	 eax
  00259	e8 00 00 00 00	 call	 ??3@YAXPAXI@Z		; operator delete
  0025e	83 c4 08	 add	 esp, 8
$LN194@CPythonNet:
; File C:\Program Files\Microsoft Visual Studio\2022\Community\VC\Tools\MSVC\14.34.31933\include\xstring

; 5016 :         _My_data._Mysize = 0;

  00261	c7 87 d4 00 00
	00 00 00 00 00	 mov	 DWORD PTR [edi+212], 0
; File E:\Metin2_server\SolWayneSF v6\ClientVS22\source\UserInterface\PythonNetworkStream.cpp

; 925  : }

  0026b	8b cf		 mov	 ecx, edi
; File C:\Program Files\Microsoft Visual Studio\2022\Community\VC\Tools\MSVC\14.34.31933\include\xstring

; 5017 :         _My_data._Myres  = _BUF_SIZE - 1;

  0026d	c7 87 d8 00 00
	00 0f 00 00 00	 mov	 DWORD PTR [edi+216], 15	; 0000000fH

; 5018 :         // the _Traits::assign is last so the codegen doesn't think the char write can alias this
; 5019 :         _Traits::assign(_My_data._Bx._Buf[0], _Elem());

  00277	c6 87 c4 00 00
	00 00		 mov	 BYTE PTR [edi+196], 0
; File E:\Metin2_server\SolWayneSF v6\ClientVS22\source\eterBase\Singleton.h

; 19   : 	{ 

  0027e	c7 47 7c 00 00
	00 00		 mov	 DWORD PTR [edi+124], OFFSET ??_7?$CSingleton@VCPythonNetworkStream@@@@6B@

; 20   : 		assert(ms_singleton);
; 21   : 		ms_singleton = 0; 

  00285	c7 05 00 00 00
	00 00 00 00 00	 mov	 DWORD PTR ?ms_singleton@?$CSingleton@VCPythonNetworkStream@@@@0PAVCPythonNetworkStream@@A, 0 ; CSingleton<CPythonNetworkStream>::ms_singleton
; File E:\Metin2_server\SolWayneSF v6\ClientVS22\source\UserInterface\PythonNetworkStream.cpp

; 925  : }

  0028f	e8 00 00 00 00	 call	 ??1CNetworkStream@@UAE@XZ ; CNetworkStream::~CNetworkStream
  00294	8b 4d f4	 mov	 ecx, DWORD PTR __$EHRec$[ebp]
  00297	64 89 0d 00 00
	00 00		 mov	 DWORD PTR fs:0, ecx
  0029e	59		 pop	 ecx
  0029f	5f		 pop	 edi
  002a0	5e		 pop	 esi
  002a1	8b e5		 mov	 esp, ebp
  002a3	5d		 pop	 ebp
  002a4	c3		 ret	 0
$LN203@CPythonNet:
; File C:\Program Files\Microsoft Visual Studio\2022\Community\VC\Tools\MSVC\14.34.31933\include\xmemory

; 164  :     _STL_VERIFY(_Back_shift >= _Min_back_shift && _Back_shift <= _Non_user_size, "invalid argument");

  002a5	e8 00 00 00 00	 call	 __invalid_parameter_noinfo_noreturn
$LN214@CPythonNet:
  002aa	cc		 int	 3
  002ab	cc		 int	 3
  002ac	cc		 int	 3
  002ad	cc		 int	 3
  002ae	cc		 int	 3
  002af	cc		 int	 3
_TEXT	ENDS
;	COMDAT text$x
text$x	SEGMENT
__ehhandler$??1CPythonNetworkStream@@UAE@XZ:
  00000	90		 npad	 1
  00001	90		 npad	 1
  00002	8b 54 24 08	 mov	 edx, DWORD PTR [esp+8]
  00006	8d 42 0c	 lea	 eax, DWORD PTR [edx+12]
  00009	8b 4a f4	 mov	 ecx, DWORD PTR [edx-12]
  0000c	33 c8		 xor	 ecx, eax
  0000e	e8 00 00 00 00	 call	 @__security_check_cookie@4
  00013	b8 00 00 00 00	 mov	 eax, OFFSET __ehfuncinfo$??1CPythonNetworkStream@@UAE@XZ
  00018	e9 00 00 00 00	 jmp	 ___CxxFrameHandler3
text$x	ENDS
??1CPythonNetworkStream@@UAE@XZ ENDP			; CPythonNetworkStream::~CPythonNetworkStream
; Function compile flags: /Ogtp
; File E:\Metin2_server\SolWayneSF v6\ClientVS22\source\UserInterface\PythonNetworkStream.cpp
; File E:\Metin2_server\SolWayneSF v6\ClientVS22\source\eterBase\Singleton.h
; File E:\Metin2_server\SolWayneSF v6\ClientVS22\source\UserInterface\PythonNetworkStream.cpp
; File C:\Program Files\Microsoft Visual Studio\2022\Community\VC\Tools\MSVC\14.34.31933\include\xstring
; File E:\Metin2_server\SolWayneSF v6\ClientVS22\source\EterLib\FuncObject.h
; File E:\Metin2_server\SolWayneSF v6\ClientVS22\source\UserInterface\PythonNetworkStream.cpp
; File E:\Metin2_server\SolWayneSF v6\ClientVS22\source\eterlib\Ref.h
; File C:\Program Files\Microsoft Visual Studio\2022\Community\VC\Tools\MSVC\14.34.31933\include\vector
; File E:\Metin2_server\SolWayneSF v6\ClientVS22\source\UserInterface\PythonNetworkStream.cpp
; File C:\Program Files\Microsoft Visual Studio\2022\Community\VC\Tools\MSVC\14.34.31933\include\xmemory
; File C:\Program Files\Microsoft Visual Studio\2022\Community\VC\Tools\MSVC\14.34.31933\include\deque
; File C:\Program Files\Microsoft Visual Studio\2022\Community\VC\Tools\MSVC\14.34.31933\include\xmemory
; File E:\Metin2_server\SolWayneSF v6\ClientVS22\source\UserInterface\PythonNetworkStream.cpp
; File E:\Metin2_server\SolWayneSF v6\ClientVS22\source\eterlib\Ref.h
; File E:\Metin2_server\SolWayneSF v6\ClientVS22\source\UserInterface\PythonNetworkStream.cpp
; File E:\Metin2_server\SolWayneSF v6\ClientVS22\source\EterLib\FuncObject.h
; File C:\Program Files\Microsoft Visual Studio\2022\Community\VC\Tools\MSVC\14.34.31933\include\xstring
; File E:\Metin2_server\SolWayneSF v6\ClientVS22\source\EterLib\FuncObject.h
; File E:\Metin2_server\SolWayneSF v6\ClientVS22\source\UserInterface\PythonNetworkStream.cpp
; File E:\Metin2_server\SolWayneSF v6\ClientVS22\source\EterLib\FuncObject.h
; File E:\Metin2_server\SolWayneSF v6\ClientVS22\source\UserInterface\PythonNetworkStream.cpp
; File C:\Program Files\Microsoft Visual Studio\2022\Community\VC\Tools\MSVC\14.34.31933\include\xstring
; File C:\Program Files\Microsoft Visual Studio\2022\Community\VC\Tools\MSVC\14.34.31933\include\utility
; File C:\Program Files\Microsoft Visual Studio\2022\Community\VC\Tools\MSVC\14.34.31933\include\xstring
; File C:\Program Files\Microsoft Visual Studio\2022\Community\VC\Tools\MSVC\14.34.31933\include\xmemory
; File C:\Program Files\Microsoft Visual Studio\2022\Community\VC\Tools\MSVC\14.34.31933\include\xstring
; File E:\Metin2_server\SolWayneSF v6\ClientVS22\source\UserInterface\PythonNetworkStream.cpp
; File C:\Program Files\Microsoft Visual Studio\2022\Community\VC\Tools\MSVC\14.34.31933\include\xutility
; File E:\Metin2_server\SolWayneSF v6\ClientVS22\source\UserInterface\PythonNetworkStream.cpp
; File C:\Program Files\Microsoft Visual Studio\2022\Community\VC\Tools\MSVC\14.34.31933\include\xutility
; File E:\Metin2_server\SolWayneSF v6\ClientVS22\source\UserInterface\PythonNetworkStream.cpp
;	COMDAT ??0CPythonNetworkStream@@QAE@XZ
_TEXT	SEGMENT
_this$ = -24						; size = 4
$T2 = -20						; size = 4
_this$ = -20						; size = 4
$T3 = -20						; size = 4
$T4 = -20						; size = 4
tv1551 = -16						; size = 4
__$EHRec$ = -12						; size = 12
??0CPythonNetworkStream@@QAE@XZ PROC			; CPythonNetworkStream::CPythonNetworkStream, COMDAT
; _this$ = ecx

; 885  : {

  00000	55		 push	 ebp
  00001	8b ec		 mov	 ebp, esp
  00003	6a ff		 push	 -1
  00005	68 00 00 00 00	 push	 __ehhandler$??0CPythonNetworkStream@@QAE@XZ
  0000a	64 a1 00 00 00
	00		 mov	 eax, DWORD PTR fs:0
  00010	50		 push	 eax
  00011	83 ec 0c	 sub	 esp, 12			; 0000000cH
  00014	56		 push	 esi
  00015	57		 push	 edi
  00016	a1 00 00 00 00	 mov	 eax, DWORD PTR ___security_cookie
  0001b	33 c5		 xor	 eax, ebp
  0001d	50		 push	 eax
  0001e	8d 45 f4	 lea	 eax, DWORD PTR __$EHRec$[ebp]
  00021	64 a3 00 00 00
	00		 mov	 DWORD PTR fs:0, eax
  00027	8b f9		 mov	 edi, ecx
  00029	89 7d e8	 mov	 DWORD PTR _this$[ebp], edi
  0002c	e8 00 00 00 00	 call	 ??0CNetworkStream@@QAE@XZ ; CNetworkStream::CNetworkStream
  00031	c7 45 fc 00 00
	00 00		 mov	 DWORD PTR __$EHRec$[ebp+8], 0
; File E:\Metin2_server\SolWayneSF v6\ClientVS22\source\eterBase\Singleton.h

; 15   : 		ms_singleton = (T*) ((int) this + offset);

  00038	8b c7		 mov	 eax, edi
  0003a	c7 47 7c 00 00
	00 00		 mov	 DWORD PTR [edi+124], OFFSET ??_7?$CSingleton@VCPythonNetworkStream@@@@6B@
  00041	a3 00 00 00 00	 mov	 DWORD PTR ?ms_singleton@?$CSingleton@VCPythonNetworkStream@@@@0PAVCPythonNetworkStream@@A, eax ; CSingleton<CPythonNetworkStream>::ms_singleton
; File E:\Metin2_server\SolWayneSF v6\ClientVS22\source\UserInterface\PythonNetworkStream.cpp

; 885  : {

  00046	c7 07 00 00 00
	00		 mov	 DWORD PTR [edi], OFFSET ??_7CPythonNetworkStream@@6BCNetworkStream@@@
  0004c	0f 57 c0	 xorps	 xmm0, xmm0
  0004f	c7 47 7c 00 00
	00 00		 mov	 DWORD PTR [edi+124], OFFSET ??_7CPythonNetworkStream@@6B?$CSingleton@VCPythonNetworkStream@@@@@
; File C:\Program Files\Microsoft Visual Studio\2022\Community\VC\Tools\MSVC\14.34.31933\include\xstring

; 2339 :         _CONSTEXPR20 _Bxty() noexcept : _Buf() {} // user-provided, for fancy pointers

  00056	0f 11 87 c4 00
	00 00		 movups	 XMMWORD PTR [edi+196], xmm0

; 4995 :         _My_data._Mysize = 0;

  0005d	c7 87 d4 00 00
	00 00 00 00 00	 mov	 DWORD PTR [edi+212], 0

; 4996 :         _My_data._Myres  = _BUF_SIZE - 1;

  00067	c7 87 d8 00 00
	00 0f 00 00 00	 mov	 DWORD PTR [edi+216], 15	; 0000000fH

; 4997 :         _My_data._Activate_SSO_buffer();
; 4998 : 
; 4999 :         // the _Traits::assign is last so the codegen doesn't think the char write can alias this
; 5000 :         _Traits::assign(_My_data._Bx._Buf[0], _Elem());

  00071	c6 87 c4 00 00
	00 00		 mov	 BYTE PTR [edi+196], 0

; 2339 :         _CONSTEXPR20 _Bxty() noexcept : _Buf() {} // user-provided, for fancy pointers

  00078	0f 11 87 dc 00
	00 00		 movups	 XMMWORD PTR [edi+220], xmm0

; 4995 :         _My_data._Mysize = 0;

  0007f	c7 87 ec 00 00
	00 00 00 00 00	 mov	 DWORD PTR [edi+236], 0

; 4996 :         _My_data._Myres  = _BUF_SIZE - 1;

  00089	c7 87 f0 00 00
	00 0f 00 00 00	 mov	 DWORD PTR [edi+240], 15	; 0000000fH

; 4997 :         _My_data._Activate_SSO_buffer();
; 4998 : 
; 4999 :         // the _Traits::assign is last so the codegen doesn't think the char write can alias this
; 5000 :         _Traits::assign(_My_data._Bx._Buf[0], _Elem());

  00093	c6 87 dc 00 00
	00 00		 mov	 BYTE PTR [edi+220], 0

; 2339 :         _CONSTEXPR20 _Bxty() noexcept : _Buf() {} // user-provided, for fancy pointers

  0009a	0f 11 87 f4 00
	00 00		 movups	 XMMWORD PTR [edi+244], xmm0

; 4995 :         _My_data._Mysize = 0;

  000a1	c7 87 04 01 00
	00 00 00 00 00	 mov	 DWORD PTR [edi+260], 0

; 4996 :         _My_data._Myres  = _BUF_SIZE - 1;

  000ab	c7 87 08 01 00
	00 0f 00 00 00	 mov	 DWORD PTR [edi+264], 15	; 0000000fH

; 4997 :         _My_data._Activate_SSO_buffer();
; 4998 : 
; 4999 :         // the _Traits::assign is last so the codegen doesn't think the char write can alias this
; 5000 :         _Traits::assign(_My_data._Bx._Buf[0], _Elem());

  000b5	c6 87 f4 00 00
	00 00		 mov	 BYTE PTR [edi+244], 0

; 2339 :         _CONSTEXPR20 _Bxty() noexcept : _Buf() {} // user-provided, for fancy pointers

  000bc	0f 11 87 0c 01
	00 00		 movups	 XMMWORD PTR [edi+268], xmm0

; 2348 :     size_type _Mysize = 0; // current length of string

  000c3	8d 8f 1c 01 00
	00		 lea	 ecx, DWORD PTR [edi+284]

; 4996 :         _My_data._Myres  = _BUF_SIZE - 1;

  000c9	c7 87 20 01 00
	00 0f 00 00 00	 mov	 DWORD PTR [edi+288], 15	; 0000000fH
  000d3	c7 01 00 00 00
	00		 mov	 DWORD PTR [ecx], 0

; 2348 :     size_type _Mysize = 0; // current length of string

  000d9	89 4d f0	 mov	 DWORD PTR tv1551[ebp], ecx

; 5000 :         _Traits::assign(_My_data._Bx._Buf[0], _Elem());

  000dc	c6 87 0c 01 00
	00 00		 mov	 BYTE PTR [edi+268], 0

; 2339 :         _CONSTEXPR20 _Bxty() noexcept : _Buf() {} // user-provided, for fancy pointers

  000e3	0f 11 87 2c 01
	00 00		 movups	 XMMWORD PTR [edi+300], xmm0

; 4995 :         _My_data._Mysize = 0;

  000ea	c7 87 3c 01 00
	00 00 00 00 00	 mov	 DWORD PTR [edi+316], 0

; 4996 :         _My_data._Myres  = _BUF_SIZE - 1;

  000f4	c7 87 40 01 00
	00 0f 00 00 00	 mov	 DWORD PTR [edi+320], 15	; 0000000fH

; 4997 :         _My_data._Activate_SSO_buffer();
; 4998 : 
; 4999 :         // the _Traits::assign is last so the codegen doesn't think the char write can alias this
; 5000 :         _Traits::assign(_My_data._Bx._Buf[0], _Elem());

  000fe	c6 87 2c 01 00
	00 00		 mov	 BYTE PTR [edi+300], 0
; File E:\Metin2_server\SolWayneSF v6\ClientVS22\source\EterLib\FuncObject.h

; 8    : 		{

  00105	c7 87 48 01 00
	00 00 00 00 00	 mov	 DWORD PTR [edi+328], OFFSET ??_7?$CFuncObject@VCPythonNetworkStream@@@@6B@

; 18   : 			m_pSelfObject = NULL;

  0010f	c7 87 50 01 00
	00 00 00 00 00	 mov	 DWORD PTR [edi+336], 0

; 19   : 			m_pFuncObject = NULL;

  00119	c7 87 58 01 00
	00 00 00 00 00	 mov	 DWORD PTR [edi+344], 0
  00123	c7 87 5c 01 00
	00 00 00 00 00	 mov	 DWORD PTR [edi+348], 0

; 8    : 		{

  0012d	c7 87 60 01 00
	00 00 00 00 00	 mov	 DWORD PTR [edi+352], OFFSET ??_7?$CFuncObject@VCPythonNetworkStream@@@@6B@

; 18   : 			m_pSelfObject = NULL;

  00137	c7 87 68 01 00
	00 00 00 00 00	 mov	 DWORD PTR [edi+360], 0

; 19   : 			m_pFuncObject = NULL;

  00141	c7 87 70 01 00
	00 00 00 00 00	 mov	 DWORD PTR [edi+368], 0
  0014b	c7 87 74 01 00
	00 00 00 00 00	 mov	 DWORD PTR [edi+372], 0
; File E:\Metin2_server\SolWayneSF v6\ClientVS22\source\UserInterface\PythonNetworkStream.cpp

; 885  : {

  00155	68 00 00 00 00	 push	 OFFSET ??1?$basic_string@DU?$char_traits@D@std@@V?$allocator@D@2@@std@@QAE@XZ ; std::basic_string<char,std::char_traits<char>,std::allocator<char> >::~basic_string<char,std::char_traits<char>,std::allocator<char> >
  0015a	68 00 00 00 00	 push	 OFFSET ??0?$basic_string@DU?$char_traits@D@std@@V?$allocator@D@2@@std@@QAE@XZ ; std::basic_string<char,std::char_traits<char>,std::allocator<char> >::basic_string<char,std::char_traits<char>,std::allocator<char> >
  0015f	6a 04		 push	 4
  00161	6a 18		 push	 24			; 00000018H
  00163	8d 87 b0 02 00
	00		 lea	 eax, DWORD PTR [edi+688]
  00169	c6 45 fc 08	 mov	 BYTE PTR __$EHRec$[ebp+8], 8
  0016d	50		 push	 eax
  0016e	e8 00 00 00 00	 call	 ??_L@YGXPAXIIP6EX0@Z1@Z
; File E:\Metin2_server\SolWayneSF v6\ClientVS22\source\eterlib\Ref.h

; 20   : 		CRef() : m_pObject(NULL)

  00173	c7 87 14 03 00
	00 00 00 00 00	 mov	 DWORD PTR [edi+788], 0
; File C:\Program Files\Microsoft Visual Studio\2022\Community\VC\Tools\MSVC\14.34.31933\include\vector

; 390  :     _CONSTEXPR20 _Vector_val() noexcept : _Myfirst(), _Mylast(), _Myend() {}

  0017d	c7 87 28 03 00
	00 00 00 00 00	 mov	 DWORD PTR [edi+808], 0
  00187	c7 87 2c 03 00
	00 00 00 00 00	 mov	 DWORD PTR [edi+812], 0
  00191	c7 87 30 03 00
	00 00 00 00 00	 mov	 DWORD PTR [edi+816], 0
; File E:\Metin2_server\SolWayneSF v6\ClientVS22\source\UserInterface\PythonNetworkStream.cpp

; 885  : {

  0019b	8d 8f 00 79 00
	00		 lea	 ecx, DWORD PTR [edi+30976]
  001a1	c6 45 fc 0b	 mov	 BYTE PTR __$EHRec$[ebp+8], 11 ; 0000000bH
  001a5	89 4d ec	 mov	 DWORD PTR _this$[ebp], ecx
  001a8	e8 00 00 00 00	 call	 ??0CNetworkAddress@@QAE@XZ ; CNetworkAddress::CNetworkAddress
  001ad	8d 8f 1c 79 00
	00		 lea	 ecx, DWORD PTR [edi+31004]
  001b3	c6 45 fc 0c	 mov	 BYTE PTR __$EHRec$[ebp+8], 12 ; 0000000cH
  001b7	e8 00 00 00 00	 call	 ??0CInsultChecker@@QAE@XZ ; CInsultChecker::CInsultChecker
  001bc	c6 45 fc 0d	 mov	 BYTE PTR __$EHRec$[ebp+8], 13 ; 0000000dH
  001c0	8d b7 2c 79 00
	00		 lea	 esi, DWORD PTR [edi+31020]
; File C:\Program Files\Microsoft Visual Studio\2022\Community\VC\Tools\MSVC\14.34.31933\include\xmemory

; 77   :         return ::operator new(_Bytes);

  001c6	6a 08		 push	 8

; 1080 :     _Container_proxy* _Myproxy = nullptr;

  001c8	c7 06 00 00 00
	00		 mov	 DWORD PTR [esi], 0
; File C:\Program Files\Microsoft Visual Studio\2022\Community\VC\Tools\MSVC\14.34.31933\include\deque

; 560  :     _Deque_val() noexcept : _Map(), _Mapsize(0), _Myoff(0), _Mysize(0) {}

  001ce	c7 46 04 00 00
	00 00		 mov	 DWORD PTR [esi+4], 0
  001d5	c7 46 08 00 00
	00 00		 mov	 DWORD PTR [esi+8], 0
  001dc	c7 46 0c 00 00
	00 00		 mov	 DWORD PTR [esi+12], 0
  001e3	c7 46 10 00 00
	00 00		 mov	 DWORD PTR [esi+16], 0
; File C:\Program Files\Microsoft Visual Studio\2022\Community\VC\Tools\MSVC\14.34.31933\include\xmemory

; 77   :         return ::operator new(_Bytes);

  001ea	e8 00 00 00 00	 call	 ??2@YAPAXI@Z		; operator new

; 1050 :     mutable _Iterator_base12* _Myfirstiter = nullptr;

  001ef	c7 40 04 00 00
	00 00		 mov	 DWORD PTR [eax+4], 0

; 1068 :         _New_proxy->_Mycont = this;

  001f6	89 06		 mov	 DWORD PTR [esi], eax
  001f8	89 30		 mov	 DWORD PTR [eax], esi
; File E:\Metin2_server\SolWayneSF v6\ClientVS22\source\UserInterface\PythonNetworkStream.cpp

; 886  : 	m_rokNetActorMgr=new CNetworkActorManager;

  001fa	6a 20		 push	 32			; 00000020H
  001fc	c6 45 fc 0e	 mov	 BYTE PTR __$EHRec$[ebp+8], 14 ; 0000000eH
  00200	e8 00 00 00 00	 call	 ??2@YAPAXI@Z		; operator new
  00205	83 c4 08	 add	 esp, 8
  00208	89 45 ec	 mov	 DWORD PTR $T4[ebp], eax
  0020b	8b c8		 mov	 ecx, eax
  0020d	c6 45 fc 0f	 mov	 BYTE PTR __$EHRec$[ebp+8], 15 ; 0000000fH
  00211	e8 00 00 00 00	 call	 ??0CNetworkActorManager@@QAE@XZ ; CNetworkActorManager::CNetworkActorManager
  00216	c6 45 fc 0e	 mov	 BYTE PTR __$EHRec$[ebp+8], 14 ; 0000000eH
; File E:\Metin2_server\SolWayneSF v6\ClientVS22\source\eterlib\Ref.h

; 67   : 			CReferenceObject* pOldObject = m_pObject;

  0021a	8b b7 14 03 00
	00		 mov	 esi, DWORD PTR [edi+788]

; 68   : 
; 69   : 			m_pObject = pObject;

  00220	89 87 14 03 00
	00		 mov	 DWORD PTR [edi+788], eax

; 70   : 
; 71   : 			if (m_pObject)

  00226	85 c0		 test	 eax, eax
  00228	74 07		 je	 SHORT $LN141@CPythonNet

; 72   : 				m_pObject->AddReference();

  0022a	8b c8		 mov	 ecx, eax
  0022c	e8 00 00 00 00	 call	 ?AddReference@CReferenceObject@@QAEXXZ ; CReferenceObject::AddReference
$LN141@CPythonNet:

; 73   : 
; 74   : 			if (pOldObject)

  00231	85 f6		 test	 esi, esi
  00233	74 07		 je	 SHORT $LN142@CPythonNet

; 75   : 				pOldObject->Release();

  00235	8b ce		 mov	 ecx, esi
  00237	e8 00 00 00 00	 call	 ?Release@CReferenceObject@@QAEXXZ ; CReferenceObject::Release
$LN142@CPythonNet:
; File E:\Metin2_server\SolWayneSF v6\ClientVS22\source\UserInterface\PythonNetworkStream.cpp

; 888  : 	memset(m_akSimplePlayerInfo, 0, sizeof(m_akSimplePlayerInfo));

  0023c	68 04 01 00 00	 push	 260			; 00000104H
  00241	8d 87 9c 01 00
	00		 lea	 eax, DWORD PTR [edi+412]
  00247	6a 00		 push	 0
  00249	50		 push	 eax
  0024a	e8 00 00 00 00	 call	 _memset
; File E:\Metin2_server\SolWayneSF v6\ClientVS22\source\EterLib\FuncObject.h

; 18   : 			m_pSelfObject = NULL;

  0024f	c7 87 50 01 00
	00 00 00 00 00	 mov	 DWORD PTR [edi+336], 0
; File C:\Program Files\Microsoft Visual Studio\2022\Community\VC\Tools\MSVC\14.34.31933\include\xstring

; 3527 :         if (_Count <= _Mypair._Myval2._Myres) {

  00259	8d b7 0c 01 00
	00		 lea	 esi, DWORD PTR [edi+268]
; File E:\Metin2_server\SolWayneSF v6\ClientVS22\source\EterLib\FuncObject.h

; 19   : 			m_pFuncObject = NULL;

  0025f	c7 87 58 01 00
	00 00 00 00 00	 mov	 DWORD PTR [edi+344], 0
; File E:\Metin2_server\SolWayneSF v6\ClientVS22\source\UserInterface\PythonNetworkStream.cpp

; 888  : 	memset(m_akSimplePlayerInfo, 0, sizeof(m_akSimplePlayerInfo));

  00269	83 c4 0c	 add	 esp, 12			; 0000000cH
; File E:\Metin2_server\SolWayneSF v6\ClientVS22\source\EterLib\FuncObject.h

; 19   : 			m_pFuncObject = NULL;

  0026c	c7 87 5c 01 00
	00 00 00 00 00	 mov	 DWORD PTR [edi+348], 0
; File E:\Metin2_server\SolWayneSF v6\ClientVS22\source\UserInterface\PythonNetworkStream.cpp

; 892  : 	m_dwEmpireID = 0;

  00276	c7 87 b4 00 00
	00 00 00 00 00	 mov	 DWORD PTR [edi+180], 0

; 893  : 	m_dwGuildID = 0;

  00280	c7 87 b0 00 00
	00 00 00 00 00	 mov	 DWORD PTR [edi+176], 0

; 894  : 
; 895  : 	m_dwMainActorVID = 0;

  0028a	c7 87 98 00 00
	00 00 00 00 00	 mov	 DWORD PTR [edi+152], 0

; 896  : 	m_dwMainActorRace = 0;

  00294	c7 87 9c 00 00
	00 00 00 00 00	 mov	 DWORD PTR [edi+156], 0

; 897  : 	m_dwMainActorEmpire = 0;

  0029e	c7 87 a0 00 00
	00 00 00 00 00	 mov	 DWORD PTR [edi+160], 0

; 898  : 	m_dwMainActorSkillGroup = 0;

  002a8	c7 87 a4 00 00
	00 00 00 00 00	 mov	 DWORD PTR [edi+164], 0

; 899  : 	m_poHandler = NULL;

  002b2	c7 87 78 01 00
	00 00 00 00 00	 mov	 DWORD PTR [edi+376], 0

; 900  : 
; 901  : 	m_dwLastGamePingTime = 0;

  002bc	c7 87 c0 00 00
	00 00 00 00 00	 mov	 DWORD PTR [edi+192], 0

; 902  : 
; 903  : 	m_dwLoginKey = 0;

  002c6	c7 87 24 01 00
	00 00 00 00 00	 mov	 DWORD PTR [edi+292], 0

; 904  : 	m_isWaitLoginKey = FALSE;

  002d0	c7 87 28 01 00
	00 00 00 00 00	 mov	 DWORD PTR [edi+296], 0

; 905  : 	m_isStartGame = FALSE;

  002da	c7 87 ac 00 00
	00 00 00 00 00	 mov	 DWORD PTR [edi+172], 0

; 906  : 	m_isEnableChatInsultFilter = FALSE;

  002e4	66 c7 87 28 79
	00 00 00 00	 mov	 WORD PTR [edi+31016], 0
; File C:\Program Files\Microsoft Visual Studio\2022\Community\VC\Tools\MSVC\14.34.31933\include\xstring

; 3527 :         if (_Count <= _Mypair._Myval2._Myres) {

  002ed	8b 4e 14	 mov	 ecx, DWORD PTR [esi+20]
  002f0	83 f9 07	 cmp	 ecx, 7
  002f3	72 29		 jb	 SHORT $LN176@CPythonNet

; 2301 :         return _BUF_SIZE <= _Myres;

  002f5	83 f9 10	 cmp	 ecx, 16			; 00000010H

; 2284 :         if (_Large_string_engaged()) {

  002f8	72 02		 jb	 SHORT $LN156@CPythonNet

; 2285 :             _Result = _Unfancy(_Bx._Ptr);

  002fa	8b 36		 mov	 esi, DWORD PTR [esi]
$LN156@CPythonNet:

; 3530 :             _Mypair._Myval2._Mysize = _Count;

  002fc	8b 45 f0	 mov	 eax, DWORD PTR tv1551[ebp]

; 117  :         _CSTD memmove(_First1, _First2, _Count * sizeof(_Elem));

  002ff	6a 07		 push	 7
  00301	68 00 00 00 00	 push	 OFFSET ??_C@_07NNEFBBEG@OffLine@
  00306	56		 push	 esi

; 3530 :             _Mypair._Myval2._Mysize = _Count;

  00307	c7 00 07 00 00
	00		 mov	 DWORD PTR [eax], 7

; 117  :         _CSTD memmove(_First1, _First2, _Count * sizeof(_Elem));

  0030d	e8 00 00 00 00	 call	 _memmove
  00312	83 c4 0c	 add	 esp, 12			; 0000000cH

; 3532 :             _Traits::assign(_Old_ptr[_Count], _Elem());

  00315	c6 46 07 00	 mov	 BYTE PTR [esi+7], 0

; 3533 :             return *this;

  00319	e9 dc 00 00 00	 jmp	 $LN179@CPythonNet
$LN176@CPythonNet:

; 4885 :         if (_Old > _Max - _Old / 2) { // similarly, geometric overflows

  0031e	8b d1		 mov	 edx, ecx
  00320	b8 ff ff ff 7f	 mov	 eax, 2147483647		; 7fffffffH
  00325	d1 ea		 shr	 edx, 1
  00327	2b c2		 sub	 eax, edx
  00329	3b c8		 cmp	 ecx, eax
  0032b	76 0e		 jbe	 SHORT $LN185@CPythonNet

; 4886 :             return _Max;

  0032d	c7 45 ec ff ff
	ff 7f		 mov	 DWORD PTR $T2[ebp], 2147483647 ; 7fffffffH
  00334	b8 00 00 00 80	 mov	 eax, -2147483648	; 80000000H
  00339	eb 1a		 jmp	 SHORT $LN281@CPythonNet
$LN185@CPythonNet:

; 4887 :         }
; 4888 : 
; 4889 :         return (_STD max)(_Masked, _Old + _Old / 2);

  0033b	8d 04 0a	 lea	 eax, DWORD PTR [edx+ecx]
; File C:\Program Files\Microsoft Visual Studio\2022\Community\VC\Tools\MSVC\14.34.31933\include\utility

; 43   :     return _Left < _Right ? _Right : _Left;

  0033e	b9 0f 00 00 00	 mov	 ecx, 15			; 0000000fH
  00343	3b c1		 cmp	 eax, ecx
  00345	0f 47 c8	 cmova	 ecx, eax
  00348	89 4d ec	 mov	 DWORD PTR $T2[ebp], ecx
; File C:\Program Files\Microsoft Visual Studio\2022\Community\VC\Tools\MSVC\14.34.31933\include\xstring

; 4907 :         const pointer _New_ptr        = _Al.allocate(_New_capacity + 1); // throws

  0034b	8d 41 01	 lea	 eax, DWORD PTR [ecx+1]
; File C:\Program Files\Microsoft Visual Studio\2022\Community\VC\Tools\MSVC\14.34.31933\include\xmemory

; 228  :         if (_Bytes >= _Big_allocation_threshold) { // boost the alignment of big allocations to help autovectorization

  0034e	3d 00 10 00 00	 cmp	 eax, 4096		; 00001000H
  00353	72 3c		 jb	 SHORT $LN193@CPythonNet
$LN281@CPythonNet:

; 229  :             return _Allocate_manually_vector_aligned<_Traits>(_Bytes);

  00355	50		 push	 eax
  00356	e8 00 00 00 00	 call	 ??$_Allocate_manually_vector_aligned@U_Default_allocate_traits@std@@@std@@YAPAXI@Z ; std::_Allocate_manually_vector_aligned<std::_Default_allocate_traits>
  0035b	8b d0		 mov	 edx, eax
  0035d	83 c4 04	 add	 esp, 4
  00360	8b 45 f0	 mov	 eax, DWORD PTR tv1551[ebp]
  00363	c7 00 07 00 00
	00		 mov	 DWORD PTR [eax], 7
  00369	8b 45 ec	 mov	 eax, DWORD PTR $T2[ebp]
  0036c	89 46 14	 mov	 DWORD PTR [esi+20], eax
  0036f	8b 0d 00 00 00
	00		 mov	 ecx, DWORD PTR ??_C@_07NNEFBBEG@OffLine@
  00375	89 0a		 mov	 DWORD PTR [edx], ecx
  00377	66 8b 0d 04 00
	00 00		 mov	 cx, WORD PTR ??_C@_07NNEFBBEG@OffLine@+4
  0037e	66 89 4a 04	 mov	 WORD PTR [edx+4], cx
  00382	8a 0d 06 00 00
	00		 mov	 cl, BYTE PTR ??_C@_07NNEFBBEG@OffLine@+6
  00388	88 4a 06	 mov	 BYTE PTR [edx+6], cl
  0038b	c6 42 07 00	 mov	 BYTE PTR [edx+7], 0
  0038f	eb 67		 jmp	 SHORT $LN178@CPythonNet
$LN193@CPythonNet:

; 230  :         }
; 231  :     }
; 232  : #endif // defined(_M_IX86) || defined(_M_X64)
; 233  : 
; 234  :     if (_Bytes != 0) {

  00391	85 c0		 test	 eax, eax
  00393	74 39		 je	 SHORT $LN194@CPythonNet

; 77   :         return ::operator new(_Bytes);

  00395	50		 push	 eax
  00396	e8 00 00 00 00	 call	 ??2@YAPAXI@Z		; operator new

; 235  :         return _Traits::_Allocate(_Bytes);

  0039b	8b d0		 mov	 edx, eax

; 77   :         return ::operator new(_Bytes);

  0039d	83 c4 04	 add	 esp, 4

; 235  :         return _Traits::_Allocate(_Bytes);

  003a0	8b 45 f0	 mov	 eax, DWORD PTR tv1551[ebp]
  003a3	c7 00 07 00 00
	00		 mov	 DWORD PTR [eax], 7
  003a9	8b 45 ec	 mov	 eax, DWORD PTR $T2[ebp]
  003ac	89 46 14	 mov	 DWORD PTR [esi+20], eax
  003af	a1 00 00 00 00	 mov	 eax, DWORD PTR ??_C@_07NNEFBBEG@OffLine@
  003b4	89 02		 mov	 DWORD PTR [edx], eax
  003b6	66 a1 04 00 00
	00		 mov	 ax, WORD PTR ??_C@_07NNEFBBEG@OffLine@+4
  003bc	66 89 42 04	 mov	 WORD PTR [edx+4], ax
  003c0	a0 06 00 00 00	 mov	 al, BYTE PTR ??_C@_07NNEFBBEG@OffLine@+6
  003c5	88 42 06	 mov	 BYTE PTR [edx+6], al
  003c8	c6 42 07 00	 mov	 BYTE PTR [edx+7], 0
  003cc	eb 2a		 jmp	 SHORT $LN178@CPythonNet
$LN194@CPythonNet:

; 236  :     }
; 237  : 
; 238  :     return nullptr;

  003ce	8b 45 f0	 mov	 eax, DWORD PTR tv1551[ebp]
  003d1	33 d2		 xor	 edx, edx
  003d3	89 4e 14	 mov	 DWORD PTR [esi+20], ecx
  003d6	c7 00 07 00 00
	00		 mov	 DWORD PTR [eax], 7
  003dc	a1 00 00 00 00	 mov	 eax, DWORD PTR ??_C@_07NNEFBBEG@OffLine@
  003e1	89 02		 mov	 DWORD PTR [edx], eax
  003e3	66 a1 04 00 00
	00		 mov	 ax, WORD PTR ??_C@_07NNEFBBEG@OffLine@+4
  003e9	66 89 42 04	 mov	 WORD PTR [edx+4], ax
  003ed	a0 06 00 00 00	 mov	 al, BYTE PTR ??_C@_07NNEFBBEG@OffLine@+6
  003f2	88 42 06	 mov	 BYTE PTR [edx+6], al
  003f5	88 52 07	 mov	 BYTE PTR [edx+7], dl
$LN178@CPythonNet:
; File C:\Program Files\Microsoft Visual Studio\2022\Community\VC\Tools\MSVC\14.34.31933\include\xstring

; 4923 :             _Construct_in_place(_Mypair._Myval2._Bx._Ptr, _New_ptr);

  003f8	89 16		 mov	 DWORD PTR [esi], edx
$LN179@CPythonNet:
; File E:\Metin2_server\SolWayneSF v6\ClientVS22\source\UserInterface\PythonNetworkStream.cpp

; 910  : 	__InitializeGamePhase();

  003fa	8b cf		 mov	 ecx, edi
  003fc	e8 00 00 00 00	 call	 ?__InitializeGamePhase@CPythonNetworkStream@@IAEXXZ ; CPythonNetworkStream::__InitializeGamePhase

; 911  : 	__InitializeMarkAuth();

  00401	8b cf		 mov	 ecx, edi
  00403	e8 00 00 00 00	 call	 ?__InitializeMarkAuth@CPythonNetworkStream@@IAEXXZ ; CPythonNetworkStream::__InitializeMarkAuth

; 912  : 
; 913  : 	__DirectEnterMode_Initialize();

  00408	e8 00 00 00 00	 call	 ?__DirectEnterMode_Initialize@CPythonNetworkStream@@AAEXXZ ; CPythonNetworkStream::__DirectEnterMode_Initialize

; 914  : 	__BettingGuildWar_Initialize();

  0040d	e8 00 00 00 00	 call	 ?__BettingGuildWar_Initialize@CPythonNetworkStream@@AAEXXZ ; CPythonNetworkStream::__BettingGuildWar_Initialize
; File C:\Program Files\Microsoft Visual Studio\2022\Community\VC\Tools\MSVC\14.34.31933\include\xutility

; 4362 :                 if (_Is_all_bits_zero(_Val)) {

  00412	8d 4d ec	 lea	 ecx, DWORD PTR $T3[ebp]
; File E:\Metin2_server\SolWayneSF v6\ClientVS22\source\UserInterface\PythonNetworkStream.cpp

; 916  : 	std::fill(m_apoPhaseWnd, m_apoPhaseWnd+PHASE_WINDOW_NUM, (PyObject*)NULL);

  00415	c7 45 ec 00 00
	00 00		 mov	 DWORD PTR $T3[ebp], 0
  0041c	8d b7 7c 01 00
	00		 lea	 esi, DWORD PTR [edi+380]
; File C:\Program Files\Microsoft Visual Studio\2022\Community\VC\Tools\MSVC\14.34.31933\include\xutility

; 4362 :                 if (_Is_all_bits_zero(_Val)) {

  00422	e8 00 00 00 00	 call	 ??$_Is_all_bits_zero@PAU_object@@@std@@YA_NABQAU_object@@@Z ; std::_Is_all_bits_zero<_object *>
  00427	84 c0		 test	 al, al
  00429	74 14		 je	 SHORT $LN250@CPythonNet

; 4363 :                     _Fill_zero_memset(_UFirst, static_cast<size_t>(_ULast - _UFirst));

  0042b	ba 07 00 00 00	 mov	 edx, 7
  00430	8b ce		 mov	 ecx, esi
  00432	e8 00 00 00 00	 call	 ??$_Fill_zero_memset@PAPAU_object@@@std@@YAXPAPAU_object@@I@Z ; std::_Fill_zero_memset<_object * *>

; 4364 :                     return;

  00437	8d 97 98 01 00
	00		 lea	 edx, DWORD PTR [edi+408]
  0043d	eb 1d		 jmp	 SHORT $LN247@CPythonNet
$LN250@CPythonNet:

; 4365 :                 }
; 4366 :             }
; 4367 :         }
; 4368 : 
; 4369 :         for (; _UFirst != _ULast; ++_UFirst) {

  0043f	8d 97 98 01 00
	00		 lea	 edx, DWORD PTR [edi+408]
  00445	3b d6		 cmp	 edx, esi
  00447	1b c9		 sbb	 ecx, ecx
  00449	83 e1 f9	 and	 ecx, -7			; fffffff9H
  0044c	83 c1 07	 add	 ecx, 7
  0044f	3b f2		 cmp	 esi, edx
  00451	77 09		 ja	 SHORT $LN247@CPythonNet
  00453	33 c0		 xor	 eax, eax
  00455	8b fe		 mov	 edi, esi
  00457	f3 ab		 rep stosd
  00459	8b 7d e8	 mov	 edi, DWORD PTR _this$[ebp]
$LN247@CPythonNet:
; File E:\Metin2_server\SolWayneSF v6\ClientVS22\source\UserInterface\PythonNetworkStream.cpp

; 919  : 	SetOffLinePhase();

  0045c	8b cf		 mov	 ecx, edi
  0045e	c7 02 00 00 00
	00		 mov	 DWORD PTR [edx], 0
  00464	e8 00 00 00 00	 call	 ?SetOffLinePhase@CPythonNetworkStream@@QAEXXZ ; CPythonNetworkStream::SetOffLinePhase

; 920  : }

  00469	8b c7		 mov	 eax, edi
  0046b	8b 4d f4	 mov	 ecx, DWORD PTR __$EHRec$[ebp]
  0046e	64 89 0d 00 00
	00 00		 mov	 DWORD PTR fs:0, ecx
  00475	59		 pop	 ecx
  00476	5f		 pop	 edi
  00477	5e		 pop	 esi
  00478	8b e5		 mov	 esp, ebp
  0047a	5d		 pop	 ebp
  0047b	c3		 ret	 0
_TEXT	ENDS
;	COMDAT text$x
text$x	SEGMENT
__unwindfunclet$??0CPythonNetworkStream@@QAE@XZ$0:
  00000	8b 4d e8	 mov	 ecx, DWORD PTR _this$[ebp]
  00003	e9 00 00 00 00	 jmp	 ??1CNetworkStream@@UAE@XZ ; CNetworkStream::~CNetworkStream
__unwindfunclet$??0CPythonNetworkStream@@QAE@XZ$1:
  00008	8b 4d e8	 mov	 ecx, DWORD PTR _this$[ebp]
  0000b	83 c1 7c	 add	 ecx, 124		; 0000007cH
  0000e	e9 00 00 00 00	 jmp	 ??1?$CSingleton@VCPythonNetworkStream@@@@UAE@XZ ; CSingleton<CPythonNetworkStream>::~CSingleton<CPythonNetworkStream>
__unwindfunclet$??0CPythonNetworkStream@@QAE@XZ$2:
  00013	8b 4d e8	 mov	 ecx, DWORD PTR _this$[ebp]
  00016	81 c1 c4 00 00
	00		 add	 ecx, 196		; 000000c4H
  0001c	e9 00 00 00 00	 jmp	 ??1?$basic_string@DU?$char_traits@D@std@@V?$allocator@D@2@@std@@QAE@XZ ; std::basic_string<char,std::char_traits<char>,std::allocator<char> >::~basic_string<char,std::char_traits<char>,std::allocator<char> >
__unwindfunclet$??0CPythonNetworkStream@@QAE@XZ$3:
  00021	8b 4d e8	 mov	 ecx, DWORD PTR _this$[ebp]
  00024	81 c1 dc 00 00
	00		 add	 ecx, 220		; 000000dcH
  0002a	e9 00 00 00 00	 jmp	 ??1?$basic_string@DU?$char_traits@D@std@@V?$allocator@D@2@@std@@QAE@XZ ; std::basic_string<char,std::char_traits<char>,std::allocator<char> >::~basic_string<char,std::char_traits<char>,std::allocator<char> >
__unwindfunclet$??0CPythonNetworkStream@@QAE@XZ$4:
  0002f	8b 4d e8	 mov	 ecx, DWORD PTR _this$[ebp]
  00032	81 c1 f4 00 00
	00		 add	 ecx, 244		; 000000f4H
  00038	e9 00 00 00 00	 jmp	 ??1?$basic_string@DU?$char_traits@D@std@@V?$allocator@D@2@@std@@QAE@XZ ; std::basic_string<char,std::char_traits<char>,std::allocator<char> >::~basic_string<char,std::char_traits<char>,std::allocator<char> >
__unwindfunclet$??0CPythonNetworkStream@@QAE@XZ$5:
  0003d	8b 4d e8	 mov	 ecx, DWORD PTR _this$[ebp]
  00040	81 c1 0c 01 00
	00		 add	 ecx, 268		; 0000010cH
  00046	e9 00 00 00 00	 jmp	 ??1?$basic_string@DU?$char_traits@D@std@@V?$allocator@D@2@@std@@QAE@XZ ; std::basic_string<char,std::char_traits<char>,std::allocator<char> >::~basic_string<char,std::char_traits<char>,std::allocator<char> >
__unwindfunclet$??0CPythonNetworkStream@@QAE@XZ$6:
  0004b	8b 4d e8	 mov	 ecx, DWORD PTR _this$[ebp]
  0004e	81 c1 2c 01 00
	00		 add	 ecx, 300		; 0000012cH
  00054	e9 00 00 00 00	 jmp	 ??1?$basic_string@DU?$char_traits@D@std@@V?$allocator@D@2@@std@@QAE@XZ ; std::basic_string<char,std::char_traits<char>,std::allocator<char> >::~basic_string<char,std::char_traits<char>,std::allocator<char> >
__unwindfunclet$??0CPythonNetworkStream@@QAE@XZ$7:
  00059	8b 4d e8	 mov	 ecx, DWORD PTR _this$[ebp]
  0005c	81 c1 48 01 00
	00		 add	 ecx, 328		; 00000148H
  00062	e9 00 00 00 00	 jmp	 ??1?$CFuncObject@VCPythonNetworkStream@@@@UAE@XZ ; CFuncObject<CPythonNetworkStream>::~CFuncObject<CPythonNetworkStream>
__unwindfunclet$??0CPythonNetworkStream@@QAE@XZ$8:
  00067	8b 4d e8	 mov	 ecx, DWORD PTR _this$[ebp]
  0006a	81 c1 60 01 00
	00		 add	 ecx, 352		; 00000160H
  00070	e9 00 00 00 00	 jmp	 ??1?$CFuncObject@VCPythonNetworkStream@@@@UAE@XZ ; CFuncObject<CPythonNetworkStream>::~CFuncObject<CPythonNetworkStream>
__unwindfunclet$??0CPythonNetworkStream@@QAE@XZ$9:
  00075	68 00 00 00 00	 push	 OFFSET ??1?$basic_string@DU?$char_traits@D@std@@V?$allocator@D@2@@std@@QAE@XZ ; std::basic_string<char,std::char_traits<char>,std::allocator<char> >::~basic_string<char,std::char_traits<char>,std::allocator<char> >
  0007a	6a 04		 push	 4
  0007c	6a 18		 push	 24			; 00000018H
  0007e	8b 45 e8	 mov	 eax, DWORD PTR _this$[ebp]
  00081	05 b0 02 00 00	 add	 eax, 688		; 000002b0H
  00086	50		 push	 eax
  00087	e8 00 00 00 00	 call	 ??_M@YGXPAXIIP6EX0@Z@Z
  0008c	c3		 ret	 0
__unwindfunclet$??0CPythonNetworkStream@@QAE@XZ$10:
  0008d	8b 4d e8	 mov	 ecx, DWORD PTR _this$[ebp]
  00090	81 c1 14 03 00
	00		 add	 ecx, 788		; 00000314H
  00096	e9 00 00 00 00	 jmp	 ??1?$CRef@VCNetworkActorManager@@@@QAE@XZ ; CRef<CNetworkActorManager>::~CRef<CNetworkActorManager>
__unwindfunclet$??0CPythonNetworkStream@@QAE@XZ$11:
  0009b	8b 4d e8	 mov	 ecx, DWORD PTR _this$[ebp]
  0009e	81 c1 28 03 00
	00		 add	 ecx, 808		; 00000328H
  000a4	e9 00 00 00 00	 jmp	 ??1?$vector@V?$basic_string@DU?$char_traits@D@std@@V?$allocator@D@2@@std@@V?$allocator@V?$basic_string@DU?$char_traits@D@std@@V?$allocator@D@2@@std@@@2@@std@@QAE@XZ ; std::vector<std::basic_string<char,std::char_traits<char>,std::allocator<char> >,std::allocator<std::basic_string<char,std::char_traits<char>,std::allocator<char> > > >::~vector<std::basic_string<char,std::char_traits<char>,std::allocator<char> >,std::allocator<std::basic_string<char,std::char_traits<char>,std::allocator<char> > > >
__unwindfunclet$??0CPythonNetworkStream@@QAE@XZ$12:
  000a9	8b 4d e8	 mov	 ecx, DWORD PTR _this$[ebp]
  000ac	81 c1 00 79 00
	00		 add	 ecx, 30976		; 00007900H
  000b2	e9 00 00 00 00	 jmp	 ??1SMarkAuth@CPythonNetworkStream@@QAE@XZ
__unwindfunclet$??0CPythonNetworkStream@@QAE@XZ$13:
  000b7	8b 4d e8	 mov	 ecx, DWORD PTR _this$[ebp]
  000ba	81 c1 1c 79 00
	00		 add	 ecx, 31004		; 0000791cH
  000c0	e9 00 00 00 00	 jmp	 ??1CInsultChecker@@UAE@XZ ; CInsultChecker::~CInsultChecker
__unwindfunclet$??0CPythonNetworkStream@@QAE@XZ$14:
  000c5	8b 4d e8	 mov	 ecx, DWORD PTR _this$[ebp]
  000c8	81 c1 2c 79 00
	00		 add	 ecx, 31020		; 0000792cH
  000ce	e9 00 00 00 00	 jmp	 ??1?$deque@V?$basic_string@DU?$char_traits@D@std@@V?$allocator@D@2@@std@@V?$allocator@V?$basic_string@DU?$char_traits@D@std@@V?$allocator@D@2@@std@@@2@@std@@QAE@XZ ; std::deque<std::basic_string<char,std::char_traits<char>,std::allocator<char> >,std::allocator<std::basic_string<char,std::char_traits<char>,std::allocator<char> > > >::~deque<std::basic_string<char,std::char_traits<char>,std::allocator<char> >,std::allocator<std::basic_string<char,std::char_traits<char>,std::allocator<char> > > >
__unwindfunclet$??0CPythonNetworkStream@@QAE@XZ$15:
  000d3	6a 20		 push	 32			; 00000020H
  000d5	8b 45 ec	 mov	 eax, DWORD PTR $T4[ebp]
  000d8	50		 push	 eax
  000d9	e8 00 00 00 00	 call	 ??3@YAXPAXI@Z		; operator delete
  000de	83 c4 08	 add	 esp, 8
  000e1	c3		 ret	 0
  000e2	cc		 int	 3
  000e3	cc		 int	 3
  000e4	cc		 int	 3
  000e5	cc		 int	 3
  000e6	cc		 int	 3
__ehhandler$??0CPythonNetworkStream@@QAE@XZ:
  000e7	90		 npad	 1
  000e8	90		 npad	 1
  000e9	8b 54 24 08	 mov	 edx, DWORD PTR [esp+8]
  000ed	8d 42 0c	 lea	 eax, DWORD PTR [edx+12]
  000f0	8b 4a e8	 mov	 ecx, DWORD PTR [edx-24]
  000f3	33 c8		 xor	 ecx, eax
  000f5	e8 00 00 00 00	 call	 @__security_check_cookie@4
  000fa	b8 00 00 00 00	 mov	 eax, OFFSET __ehfuncinfo$??0CPythonNetworkStream@@QAE@XZ
  000ff	e9 00 00 00 00	 jmp	 ___CxxFrameHandler3
text$x	ENDS
??0CPythonNetworkStream@@QAE@XZ ENDP			; CPythonNetworkStream::CPythonNetworkStream
; Function compile flags: /Ogtp
; File E:\Metin2_server\SolWayneSF v6\ClientVS22\source\eterLib\NetPacketHeaderMap.h
;	COMDAT ??0SPacketType@CNetworkPacketHeaderMap@@QAE@H_N@Z
_TEXT	SEGMENT
_iSize$ = 8						; size = 4
_bFlag$ = 12						; size = 1
??0SPacketType@CNetworkPacketHeaderMap@@QAE@H_N@Z PROC	; CNetworkPacketHeaderMap::SPacketType::SPacketType, COMDAT
; _this$ = ecx

; 10   : 			SPacketType(int iSize = 0, bool bFlag = false)

  00000	55		 push	 ebp
  00001	8b ec		 mov	 ebp, esp

; 11   : 			{
; 12   : 				iPacketSize = iSize;

  00003	8b 45 08	 mov	 eax, DWORD PTR _iSize$[ebp]
  00006	89 01		 mov	 DWORD PTR [ecx], eax

; 13   : 				isDynamicSizePacket = bFlag;

  00008	8a 45 0c	 mov	 al, BYTE PTR _bFlag$[ebp]
  0000b	88 41 04	 mov	 BYTE PTR [ecx+4], al

; 14   : 			}

  0000e	8b c1		 mov	 eax, ecx
  00010	5d		 pop	 ebp
  00011	c2 08 00	 ret	 8
??0SPacketType@CNetworkPacketHeaderMap@@QAE@H_N@Z ENDP	; CNetworkPacketHeaderMap::SPacketType::SPacketType
_TEXT	ENDS
; Function compile flags: /Ogtp
; File E:\Metin2_server\SolWayneSF v6\ClientVS22\source\UserInterface\PythonNetworkStream.h
;	COMDAT ?__LeaveOfflinePhase@CPythonNetworkStream@@IAEXXZ
_TEXT	SEGMENT
?__LeaveOfflinePhase@CPythonNetworkStream@@IAEXXZ PROC	; CPythonNetworkStream::__LeaveOfflinePhase, COMDAT
; _this$ = ecx

; 621  : 		void __LeaveOfflinePhase() {}

  00000	c2 00 00	 ret	 0
?__LeaveOfflinePhase@CPythonNetworkStream@@IAEXXZ ENDP	; CPythonNetworkStream::__LeaveOfflinePhase
_TEXT	ENDS
; Function compile flags: /Ogtp
; File E:\Metin2_server\SolWayneSF v6\ClientVS22\source\UserInterface\PythonNetworkStream.cpp
; File E:\Metin2_server\SolWayneSF v6\ClientVS22\source\eterLib\NetPacketHeaderMap.h
; File E:\Metin2_server\SolWayneSF v6\ClientVS22\source\UserInterface\PythonNetworkStream.cpp
; File E:\Metin2_server\SolWayneSF v6\ClientVS22\source\eterLib\NetPacketHeaderMap.h
; File E:\Metin2_server\SolWayneSF v6\ClientVS22\source\UserInterface\PythonNetworkStream.cpp
; File E:\Metin2_server\SolWayneSF v6\ClientVS22\source\eterLib\NetPacketHeaderMap.h
; File E:\Metin2_server\SolWayneSF v6\ClientVS22\source\UserInterface\PythonNetworkStream.cpp
; File E:\Metin2_server\SolWayneSF v6\ClientVS22\source\eterLib\NetPacketHeaderMap.h
; File E:\Metin2_server\SolWayneSF v6\ClientVS22\source\UserInterface\PythonNetworkStream.cpp
; File E:\Metin2_server\SolWayneSF v6\ClientVS22\source\eterLib\NetPacketHeaderMap.h
; File E:\Metin2_server\SolWayneSF v6\ClientVS22\source\UserInterface\PythonNetworkStream.cpp
; File E:\Metin2_server\SolWayneSF v6\ClientVS22\source\eterLib\NetPacketHeaderMap.h
; File E:\Metin2_server\SolWayneSF v6\ClientVS22\source\UserInterface\PythonNetworkStream.cpp
; File E:\Metin2_server\SolWayneSF v6\ClientVS22\source\eterLib\NetPacketHeaderMap.h
; File E:\Metin2_server\SolWayneSF v6\ClientVS22\source\UserInterface\PythonNetworkStream.cpp
; File E:\Metin2_server\SolWayneSF v6\ClientVS22\source\eterLib\NetPacketHeaderMap.h
; File E:\Metin2_server\SolWayneSF v6\ClientVS22\source\UserInterface\PythonNetworkStream.cpp
; File E:\Metin2_server\SolWayneSF v6\ClientVS22\source\eterLib\NetPacketHeaderMap.h
; File E:\Metin2_server\SolWayneSF v6\ClientVS22\source\UserInterface\PythonNetworkStream.cpp
; File E:\Metin2_server\SolWayneSF v6\ClientVS22\source\eterLib\NetPacketHeaderMap.h
; File E:\Metin2_server\SolWayneSF v6\ClientVS22\source\UserInterface\PythonNetworkStream.cpp
; File E:\Metin2_server\SolWayneSF v6\ClientVS22\source\eterLib\NetPacketHeaderMap.h
; File E:\Metin2_server\SolWayneSF v6\ClientVS22\source\UserInterface\PythonNetworkStream.cpp
; File E:\Metin2_server\SolWayneSF v6\ClientVS22\source\eterLib\NetPacketHeaderMap.h
; File E:\Metin2_server\SolWayneSF v6\ClientVS22\source\UserInterface\PythonNetworkStream.cpp
; File E:\Metin2_server\SolWayneSF v6\ClientVS22\source\eterLib\NetPacketHeaderMap.h
; File E:\Metin2_server\SolWayneSF v6\ClientVS22\source\UserInterface\PythonNetworkStream.cpp
; File E:\Metin2_server\SolWayneSF v6\ClientVS22\source\eterLib\NetPacketHeaderMap.h
; File E:\Metin2_server\SolWayneSF v6\ClientVS22\source\UserInterface\PythonNetworkStream.cpp
; File E:\Metin2_server\SolWayneSF v6\ClientVS22\source\eterLib\NetPacketHeaderMap.h
; File E:\Metin2_server\SolWayneSF v6\ClientVS22\source\UserInterface\PythonNetworkStream.cpp
; File E:\Metin2_server\SolWayneSF v6\ClientVS22\source\eterLib\NetPacketHeaderMap.h
; File E:\Metin2_server\SolWayneSF v6\ClientVS22\source\UserInterface\PythonNetworkStream.cpp
; File E:\Metin2_server\SolWayneSF v6\ClientVS22\source\eterLib\NetPacketHeaderMap.h
; File E:\Metin2_server\SolWayneSF v6\ClientVS22\source\UserInterface\PythonNetworkStream.cpp
; File E:\Metin2_server\SolWayneSF v6\ClientVS22\source\eterLib\NetPacketHeaderMap.h
; File E:\Metin2_server\SolWayneSF v6\ClientVS22\source\UserInterface\PythonNetworkStream.cpp
; File E:\Metin2_server\SolWayneSF v6\ClientVS22\source\eterLib\NetPacketHeaderMap.h
; File E:\Metin2_server\SolWayneSF v6\ClientVS22\source\UserInterface\PythonNetworkStream.cpp
; File E:\Metin2_server\SolWayneSF v6\ClientVS22\source\eterLib\NetPacketHeaderMap.h
; File E:\Metin2_server\SolWayneSF v6\ClientVS22\source\UserInterface\PythonNetworkStream.cpp
; File E:\Metin2_server\SolWayneSF v6\ClientVS22\source\eterLib\NetPacketHeaderMap.h
; File E:\Metin2_server\SolWayneSF v6\ClientVS22\source\UserInterface\PythonNetworkStream.cpp
; File E:\Metin2_server\SolWayneSF v6\ClientVS22\source\eterLib\NetPacketHeaderMap.h
; File E:\Metin2_server\SolWayneSF v6\ClientVS22\source\UserInterface\PythonNetworkStream.cpp
; File E:\Metin2_server\SolWayneSF v6\ClientVS22\source\eterLib\NetPacketHeaderMap.h
; File E:\Metin2_server\SolWayneSF v6\ClientVS22\source\UserInterface\PythonNetworkStream.cpp
; File E:\Metin2_server\SolWayneSF v6\ClientVS22\source\eterLib\NetPacketHeaderMap.h
; File E:\Metin2_server\SolWayneSF v6\ClientVS22\source\UserInterface\PythonNetworkStream.cpp
; File E:\Metin2_server\SolWayneSF v6\ClientVS22\source\eterLib\NetPacketHeaderMap.h
; File E:\Metin2_server\SolWayneSF v6\ClientVS22\source\UserInterface\PythonNetworkStream.cpp
; File E:\Metin2_server\SolWayneSF v6\ClientVS22\source\eterLib\NetPacketHeaderMap.h
; File E:\Metin2_server\SolWayneSF v6\ClientVS22\source\UserInterface\PythonNetworkStream.cpp
; File E:\Metin2_server\SolWayneSF v6\ClientVS22\source\eterLib\NetPacketHeaderMap.h
; File E:\Metin2_server\SolWayneSF v6\ClientVS22\source\UserInterface\PythonNetworkStream.cpp
; File E:\Metin2_server\SolWayneSF v6\ClientVS22\source\eterLib\NetPacketHeaderMap.h
; File E:\Metin2_server\SolWayneSF v6\ClientVS22\source\UserInterface\PythonNetworkStream.cpp
; File E:\Metin2_server\SolWayneSF v6\ClientVS22\source\eterLib\NetPacketHeaderMap.h
; File E:\Metin2_server\SolWayneSF v6\ClientVS22\source\UserInterface\PythonNetworkStream.cpp
; File E:\Metin2_server\SolWayneSF v6\ClientVS22\source\eterLib\NetPacketHeaderMap.h
; File E:\Metin2_server\SolWayneSF v6\ClientVS22\source\UserInterface\PythonNetworkStream.cpp
; File E:\Metin2_server\SolWayneSF v6\ClientVS22\source\eterLib\NetPacketHeaderMap.h
; File E:\Metin2_server\SolWayneSF v6\ClientVS22\source\UserInterface\PythonNetworkStream.cpp
; File E:\Metin2_server\SolWayneSF v6\ClientVS22\source\eterLib\NetPacketHeaderMap.h
; File E:\Metin2_server\SolWayneSF v6\ClientVS22\source\UserInterface\PythonNetworkStream.cpp
; File E:\Metin2_server\SolWayneSF v6\ClientVS22\source\eterLib\NetPacketHeaderMap.h
; File E:\Metin2_server\SolWayneSF v6\ClientVS22\source\UserInterface\PythonNetworkStream.cpp
; File E:\Metin2_server\SolWayneSF v6\ClientVS22\source\eterLib\NetPacketHeaderMap.h
; File E:\Metin2_server\SolWayneSF v6\ClientVS22\source\UserInterface\PythonNetworkStream.cpp
; File E:\Metin2_server\SolWayneSF v6\ClientVS22\source\eterLib\NetPacketHeaderMap.h
; File E:\Metin2_server\SolWayneSF v6\ClientVS22\source\UserInterface\PythonNetworkStream.cpp
; File E:\Metin2_server\SolWayneSF v6\ClientVS22\source\eterLib\NetPacketHeaderMap.h
; File E:\Metin2_server\SolWayneSF v6\ClientVS22\source\UserInterface\PythonNetworkStream.cpp
; File E:\Metin2_server\SolWayneSF v6\ClientVS22\source\eterLib\NetPacketHeaderMap.h
; File E:\Metin2_server\SolWayneSF v6\ClientVS22\source\UserInterface\PythonNetworkStream.cpp
; File E:\Metin2_server\SolWayneSF v6\ClientVS22\source\eterLib\NetPacketHeaderMap.h
; File E:\Metin2_server\SolWayneSF v6\ClientVS22\source\UserInterface\PythonNetworkStream.cpp
; File E:\Metin2_server\SolWayneSF v6\ClientVS22\source\eterLib\NetPacketHeaderMap.h
; File E:\Metin2_server\SolWayneSF v6\ClientVS22\source\UserInterface\PythonNetworkStream.cpp
; File E:\Metin2_server\SolWayneSF v6\ClientVS22\source\eterLib\NetPacketHeaderMap.h
; File E:\Metin2_server\SolWayneSF v6\ClientVS22\source\UserInterface\PythonNetworkStream.cpp
; File E:\Metin2_server\SolWayneSF v6\ClientVS22\source\eterLib\NetPacketHeaderMap.h
; File E:\Metin2_server\SolWayneSF v6\ClientVS22\source\UserInterface\PythonNetworkStream.cpp
; File E:\Metin2_server\SolWayneSF v6\ClientVS22\source\eterLib\NetPacketHeaderMap.h
; File E:\Metin2_server\SolWayneSF v6\ClientVS22\source\UserInterface\PythonNetworkStream.cpp
; File E:\Metin2_server\SolWayneSF v6\ClientVS22\source\eterLib\NetPacketHeaderMap.h
; File E:\Metin2_server\SolWayneSF v6\ClientVS22\source\UserInterface\PythonNetworkStream.cpp
; File E:\Metin2_server\SolWayneSF v6\ClientVS22\source\eterLib\NetPacketHeaderMap.h
; File E:\Metin2_server\SolWayneSF v6\ClientVS22\source\UserInterface\PythonNetworkStream.cpp
; File E:\Metin2_server\SolWayneSF v6\ClientVS22\source\eterLib\NetPacketHeaderMap.h
; File E:\Metin2_server\SolWayneSF v6\ClientVS22\source\UserInterface\PythonNetworkStream.cpp
; File E:\Metin2_server\SolWayneSF v6\ClientVS22\source\eterLib\NetPacketHeaderMap.h
; File E:\Metin2_server\SolWayneSF v6\ClientVS22\source\UserInterface\PythonNetworkStream.cpp
; File E:\Metin2_server\SolWayneSF v6\ClientVS22\source\eterLib\NetPacketHeaderMap.h
; File E:\Metin2_server\SolWayneSF v6\ClientVS22\source\UserInterface\PythonNetworkStream.cpp
; File E:\Metin2_server\SolWayneSF v6\ClientVS22\source\eterLib\NetPacketHeaderMap.h
; File E:\Metin2_server\SolWayneSF v6\ClientVS22\source\UserInterface\PythonNetworkStream.cpp
; File E:\Metin2_server\SolWayneSF v6\ClientVS22\source\eterLib\NetPacketHeaderMap.h
; File E:\Metin2_server\SolWayneSF v6\ClientVS22\source\UserInterface\PythonNetworkStream.cpp
; File E:\Metin2_server\SolWayneSF v6\ClientVS22\source\eterLib\NetPacketHeaderMap.h
; File E:\Metin2_server\SolWayneSF v6\ClientVS22\source\UserInterface\PythonNetworkStream.cpp
; File E:\Metin2_server\SolWayneSF v6\ClientVS22\source\eterLib\NetPacketHeaderMap.h
; File E:\Metin2_server\SolWayneSF v6\ClientVS22\source\UserInterface\PythonNetworkStream.cpp
; File E:\Metin2_server\SolWayneSF v6\ClientVS22\source\eterLib\NetPacketHeaderMap.h
; File E:\Metin2_server\SolWayneSF v6\ClientVS22\source\UserInterface\PythonNetworkStream.cpp
; File E:\Metin2_server\SolWayneSF v6\ClientVS22\source\eterLib\NetPacketHeaderMap.h
; File E:\Metin2_server\SolWayneSF v6\ClientVS22\source\UserInterface\PythonNetworkStream.cpp
; File E:\Metin2_server\SolWayneSF v6\ClientVS22\source\eterLib\NetPacketHeaderMap.h
; File E:\Metin2_server\SolWayneSF v6\ClientVS22\source\UserInterface\PythonNetworkStream.cpp
; File E:\Metin2_server\SolWayneSF v6\ClientVS22\source\eterLib\NetPacketHeaderMap.h
; File E:\Metin2_server\SolWayneSF v6\ClientVS22\source\UserInterface\PythonNetworkStream.cpp
; File E:\Metin2_server\SolWayneSF v6\ClientVS22\source\eterLib\NetPacketHeaderMap.h
; File E:\Metin2_server\SolWayneSF v6\ClientVS22\source\UserInterface\PythonNetworkStream.cpp
; File E:\Metin2_server\SolWayneSF v6\ClientVS22\source\eterLib\NetPacketHeaderMap.h
; File E:\Metin2_server\SolWayneSF v6\ClientVS22\source\UserInterface\PythonNetworkStream.cpp
; File E:\Metin2_server\SolWayneSF v6\ClientVS22\source\eterLib\NetPacketHeaderMap.h
; File E:\Metin2_server\SolWayneSF v6\ClientVS22\source\UserInterface\PythonNetworkStream.cpp
; File E:\Metin2_server\SolWayneSF v6\ClientVS22\source\eterLib\NetPacketHeaderMap.h
; File E:\Metin2_server\SolWayneSF v6\ClientVS22\source\UserInterface\PythonNetworkStream.cpp
; File E:\Metin2_server\SolWayneSF v6\ClientVS22\source\eterLib\NetPacketHeaderMap.h
; File E:\Metin2_server\SolWayneSF v6\ClientVS22\source\UserInterface\PythonNetworkStream.cpp
; File E:\Metin2_server\SolWayneSF v6\ClientVS22\source\eterLib\NetPacketHeaderMap.h
; File E:\Metin2_server\SolWayneSF v6\ClientVS22\source\UserInterface\PythonNetworkStream.cpp
; File E:\Metin2_server\SolWayneSF v6\ClientVS22\source\eterLib\NetPacketHeaderMap.h
; File E:\Metin2_server\SolWayneSF v6\ClientVS22\source\UserInterface\PythonNetworkStream.cpp
; File E:\Metin2_server\SolWayneSF v6\ClientVS22\source\eterLib\NetPacketHeaderMap.h
; File E:\Metin2_server\SolWayneSF v6\ClientVS22\source\UserInterface\PythonNetworkStream.cpp
; File E:\Metin2_server\SolWayneSF v6\ClientVS22\source\eterLib\NetPacketHeaderMap.h
; File E:\Metin2_server\SolWayneSF v6\ClientVS22\source\UserInterface\PythonNetworkStream.cpp
; File E:\Metin2_server\SolWayneSF v6\ClientVS22\source\eterLib\NetPacketHeaderMap.h
; File E:\Metin2_server\SolWayneSF v6\ClientVS22\source\UserInterface\PythonNetworkStream.cpp
; File E:\Metin2_server\SolWayneSF v6\ClientVS22\source\eterLib\NetPacketHeaderMap.h
; File E:\Metin2_server\SolWayneSF v6\ClientVS22\source\UserInterface\PythonNetworkStream.cpp
; File E:\Metin2_server\SolWayneSF v6\ClientVS22\source\eterLib\NetPacketHeaderMap.h
; File E:\Metin2_server\SolWayneSF v6\ClientVS22\source\UserInterface\PythonNetworkStream.cpp
; File E:\Metin2_server\SolWayneSF v6\ClientVS22\source\eterLib\NetPacketHeaderMap.h
; File E:\Metin2_server\SolWayneSF v6\ClientVS22\source\UserInterface\PythonNetworkStream.cpp
; File E:\Metin2_server\SolWayneSF v6\ClientVS22\source\eterLib\NetPacketHeaderMap.h
; File E:\Metin2_server\SolWayneSF v6\ClientVS22\source\UserInterface\PythonNetworkStream.cpp
; File E:\Metin2_server\SolWayneSF v6\ClientVS22\source\eterLib\NetPacketHeaderMap.h
; File E:\Metin2_server\SolWayneSF v6\ClientVS22\source\UserInterface\PythonNetworkStream.cpp
; File E:\Metin2_server\SolWayneSF v6\ClientVS22\source\eterLib\NetPacketHeaderMap.h
; File E:\Metin2_server\SolWayneSF v6\ClientVS22\source\UserInterface\PythonNetworkStream.cpp
; File E:\Metin2_server\SolWayneSF v6\ClientVS22\source\eterLib\NetPacketHeaderMap.h
; File E:\Metin2_server\SolWayneSF v6\ClientVS22\source\UserInterface\PythonNetworkStream.cpp
; File E:\Metin2_server\SolWayneSF v6\ClientVS22\source\eterLib\NetPacketHeaderMap.h
; File E:\Metin2_server\SolWayneSF v6\ClientVS22\source\UserInterface\PythonNetworkStream.cpp
; File E:\Metin2_server\SolWayneSF v6\ClientVS22\source\eterLib\NetPacketHeaderMap.h
; File E:\Metin2_server\SolWayneSF v6\ClientVS22\source\UserInterface\PythonNetworkStream.cpp
; File E:\Metin2_server\SolWayneSF v6\ClientVS22\source\eterLib\NetPacketHeaderMap.h
; File E:\Metin2_server\SolWayneSF v6\ClientVS22\source\UserInterface\PythonNetworkStream.cpp
; File E:\Metin2_server\SolWayneSF v6\ClientVS22\source\eterLib\NetPacketHeaderMap.h
; File E:\Metin2_server\SolWayneSF v6\ClientVS22\source\UserInterface\PythonNetworkStream.cpp
; File E:\Metin2_server\SolWayneSF v6\ClientVS22\source\eterLib\NetPacketHeaderMap.h
; File E:\Metin2_server\SolWayneSF v6\ClientVS22\source\UserInterface\PythonNetworkStream.cpp
; File E:\Metin2_server\SolWayneSF v6\ClientVS22\source\eterLib\NetPacketHeaderMap.h
; File E:\Metin2_server\SolWayneSF v6\ClientVS22\source\UserInterface\PythonNetworkStream.cpp
; File E:\Metin2_server\SolWayneSF v6\ClientVS22\source\eterLib\NetPacketHeaderMap.h
; File E:\Metin2_server\SolWayneSF v6\ClientVS22\source\UserInterface\PythonNetworkStream.cpp
; File E:\Metin2_server\SolWayneSF v6\ClientVS22\source\eterLib\NetPacketHeaderMap.h
; File E:\Metin2_server\SolWayneSF v6\ClientVS22\source\UserInterface\PythonNetworkStream.cpp
; File E:\Metin2_server\SolWayneSF v6\ClientVS22\source\eterLib\NetPacketHeaderMap.h
; File E:\Metin2_server\SolWayneSF v6\ClientVS22\source\UserInterface\PythonNetworkStream.cpp
; File E:\Metin2_server\SolWayneSF v6\ClientVS22\source\eterLib\NetPacketHeaderMap.h
; File E:\Metin2_server\SolWayneSF v6\ClientVS22\source\UserInterface\PythonNetworkStream.cpp
; File E:\Metin2_server\SolWayneSF v6\ClientVS22\source\eterLib\NetPacketHeaderMap.h
; File E:\Metin2_server\SolWayneSF v6\ClientVS22\source\UserInterface\PythonNetworkStream.cpp
; File E:\Metin2_server\SolWayneSF v6\ClientVS22\source\eterLib\NetPacketHeaderMap.h
; File E:\Metin2_server\SolWayneSF v6\ClientVS22\source\UserInterface\PythonNetworkStream.cpp
; File E:\Metin2_server\SolWayneSF v6\ClientVS22\source\eterLib\NetPacketHeaderMap.h
; File E:\Metin2_server\SolWayneSF v6\ClientVS22\source\UserInterface\PythonNetworkStream.cpp
; File E:\Metin2_server\SolWayneSF v6\ClientVS22\source\eterLib\NetPacketHeaderMap.h
; File E:\Metin2_server\SolWayneSF v6\ClientVS22\source\UserInterface\PythonNetworkStream.cpp
; File E:\Metin2_server\SolWayneSF v6\ClientVS22\source\eterLib\NetPacketHeaderMap.h
; File E:\Metin2_server\SolWayneSF v6\ClientVS22\source\UserInterface\PythonNetworkStream.cpp
; File E:\Metin2_server\SolWayneSF v6\ClientVS22\source\eterLib\NetPacketHeaderMap.h
; File E:\Metin2_server\SolWayneSF v6\ClientVS22\source\UserInterface\PythonNetworkStream.cpp
; File E:\Metin2_server\SolWayneSF v6\ClientVS22\source\eterLib\NetPacketHeaderMap.h
; File E:\Metin2_server\SolWayneSF v6\ClientVS22\source\UserInterface\PythonNetworkStream.cpp
; File E:\Metin2_server\SolWayneSF v6\ClientVS22\source\eterLib\NetPacketHeaderMap.h
; File E:\Metin2_server\SolWayneSF v6\ClientVS22\source\UserInterface\PythonNetworkStream.cpp
; File E:\Metin2_server\SolWayneSF v6\ClientVS22\source\eterLib\NetPacketHeaderMap.h
; File E:\Metin2_server\SolWayneSF v6\ClientVS22\source\UserInterface\PythonNetworkStream.cpp
; File E:\Metin2_server\SolWayneSF v6\ClientVS22\source\eterLib\NetPacketHeaderMap.h
; File E:\Metin2_server\SolWayneSF v6\ClientVS22\source\UserInterface\PythonNetworkStream.cpp
; File E:\Metin2_server\SolWayneSF v6\ClientVS22\source\eterLib\NetPacketHeaderMap.h
; File E:\Metin2_server\SolWayneSF v6\ClientVS22\source\UserInterface\PythonNetworkStream.cpp
; File E:\Metin2_server\SolWayneSF v6\ClientVS22\source\eterLib\NetPacketHeaderMap.h
; File E:\Metin2_server\SolWayneSF v6\ClientVS22\source\UserInterface\PythonNetworkStream.cpp
; File E:\Metin2_server\SolWayneSF v6\ClientVS22\source\eterLib\NetPacketHeaderMap.h
; File E:\Metin2_server\SolWayneSF v6\ClientVS22\source\UserInterface\PythonNetworkStream.cpp
; File E:\Metin2_server\SolWayneSF v6\ClientVS22\source\eterLib\NetPacketHeaderMap.h
; File E:\Metin2_server\SolWayneSF v6\ClientVS22\source\UserInterface\PythonNetworkStream.cpp
; File E:\Metin2_server\SolWayneSF v6\ClientVS22\source\eterLib\NetPacketHeaderMap.h
; File E:\Metin2_server\SolWayneSF v6\ClientVS22\source\UserInterface\PythonNetworkStream.cpp
; File E:\Metin2_server\SolWayneSF v6\ClientVS22\source\eterLib\NetPacketHeaderMap.h
; File E:\Metin2_server\SolWayneSF v6\ClientVS22\source\UserInterface\PythonNetworkStream.cpp
; File E:\Metin2_server\SolWayneSF v6\ClientVS22\source\eterLib\NetPacketHeaderMap.h
; File E:\Metin2_server\SolWayneSF v6\ClientVS22\source\UserInterface\PythonNetworkStream.cpp
; File E:\Metin2_server\SolWayneSF v6\ClientVS22\source\eterLib\NetPacketHeaderMap.h
; File E:\Metin2_server\SolWayneSF v6\ClientVS22\source\UserInterface\PythonNetworkStream.cpp
; File E:\Metin2_server\SolWayneSF v6\ClientVS22\source\eterLib\NetPacketHeaderMap.h
; File E:\Metin2_server\SolWayneSF v6\ClientVS22\source\UserInterface\PythonNetworkStream.cpp
; File E:\Metin2_server\SolWayneSF v6\ClientVS22\source\eterLib\NetPacketHeaderMap.h
; File E:\Metin2_server\SolWayneSF v6\ClientVS22\source\UserInterface\PythonNetworkStream.cpp
; File E:\Metin2_server\SolWayneSF v6\ClientVS22\source\eterLib\NetPacketHeaderMap.h
; File E:\Metin2_server\SolWayneSF v6\ClientVS22\source\UserInterface\PythonNetworkStream.cpp
; File E:\Metin2_server\SolWayneSF v6\ClientVS22\source\eterLib\NetPacketHeaderMap.h
; File E:\Metin2_server\SolWayneSF v6\ClientVS22\source\UserInterface\PythonNetworkStream.cpp
; File E:\Metin2_server\SolWayneSF v6\ClientVS22\source\eterLib\NetPacketHeaderMap.h
; File E:\Metin2_server\SolWayneSF v6\ClientVS22\source\UserInterface\PythonNetworkStream.cpp
; File E:\Metin2_server\SolWayneSF v6\ClientVS22\source\eterLib\NetPacketHeaderMap.h
; File E:\Metin2_server\SolWayneSF v6\ClientVS22\source\UserInterface\PythonNetworkStream.cpp
; File E:\Metin2_server\SolWayneSF v6\ClientVS22\source\eterLib\NetPacketHeaderMap.h
; File E:\Metin2_server\SolWayneSF v6\ClientVS22\source\UserInterface\PythonNetworkStream.cpp
; File E:\Metin2_server\SolWayneSF v6\ClientVS22\source\eterLib\NetPacketHeaderMap.h
; File E:\Metin2_server\SolWayneSF v6\ClientVS22\source\UserInterface\PythonNetworkStream.cpp
; File E:\Metin2_server\SolWayneSF v6\ClientVS22\source\eterLib\NetPacketHeaderMap.h
; File E:\Metin2_server\SolWayneSF v6\ClientVS22\source\UserInterface\PythonNetworkStream.cpp
; File E:\Metin2_server\SolWayneSF v6\ClientVS22\source\eterLib\NetPacketHeaderMap.h
; File E:\Metin2_server\SolWayneSF v6\ClientVS22\source\UserInterface\PythonNetworkStream.cpp
; File E:\Metin2_server\SolWayneSF v6\ClientVS22\source\eterLib\NetPacketHeaderMap.h
; File E:\Metin2_server\SolWayneSF v6\ClientVS22\source\UserInterface\PythonNetworkStream.cpp
; File E:\Metin2_server\SolWayneSF v6\ClientVS22\source\eterLib\NetPacketHeaderMap.h
; File E:\Metin2_server\SolWayneSF v6\ClientVS22\source\UserInterface\PythonNetworkStream.cpp
; File E:\Metin2_server\SolWayneSF v6\ClientVS22\source\eterLib\NetPacketHeaderMap.h
; File E:\Metin2_server\SolWayneSF v6\ClientVS22\source\UserInterface\PythonNetworkStream.cpp
; File E:\Metin2_server\SolWayneSF v6\ClientVS22\source\eterLib\NetPacketHeaderMap.h
; File E:\Metin2_server\SolWayneSF v6\ClientVS22\source\UserInterface\PythonNetworkStream.cpp
; File E:\Metin2_server\SolWayneSF v6\ClientVS22\source\eterLib\NetPacketHeaderMap.h
; File E:\Metin2_server\SolWayneSF v6\ClientVS22\source\UserInterface\PythonNetworkStream.cpp
; File E:\Metin2_server\SolWayneSF v6\ClientVS22\source\eterLib\NetPacketHeaderMap.h
; File E:\Metin2_server\SolWayneSF v6\ClientVS22\source\UserInterface\PythonNetworkStream.cpp
; File E:\Metin2_server\SolWayneSF v6\ClientVS22\source\eterLib\NetPacketHeaderMap.h
; File E:\Metin2_server\SolWayneSF v6\ClientVS22\source\UserInterface\PythonNetworkStream.cpp
; File E:\Metin2_server\SolWayneSF v6\ClientVS22\source\eterLib\NetPacketHeaderMap.h
; File E:\Metin2_server\SolWayneSF v6\ClientVS22\source\UserInterface\PythonNetworkStream.cpp
; File E:\Metin2_server\SolWayneSF v6\ClientVS22\source\eterLib\NetPacketHeaderMap.h
; File E:\Metin2_server\SolWayneSF v6\ClientVS22\source\UserInterface\PythonNetworkStream.cpp
; File E:\Metin2_server\SolWayneSF v6\ClientVS22\source\eterLib\NetPacketHeaderMap.h
; File E:\Metin2_server\SolWayneSF v6\ClientVS22\source\UserInterface\PythonNetworkStream.cpp
;	COMDAT ??0CMainPacketHeaderMap@@QAE@XZ
_TEXT	SEGMENT
$T2 = -24						; size = 8
$T3 = -24						; size = 8
$T4 = -24						; size = 8
$T5 = -24						; size = 8
$T6 = -24						; size = 8
$T7 = -24						; size = 8
$T8 = -24						; size = 8
$T9 = -24						; size = 8
$T10 = -24						; size = 8
$T11 = -24						; size = 8
$T12 = -24						; size = 8
$T13 = -24						; size = 8
$T14 = -24						; size = 8
$T15 = -24						; size = 8
$T16 = -24						; size = 8
$T17 = -24						; size = 8
$T18 = -24						; size = 8
$T19 = -24						; size = 8
$T20 = -24						; size = 8
$T21 = -24						; size = 8
$T22 = -24						; size = 8
$T23 = -24						; size = 8
$T24 = -24						; size = 8
$T25 = -24						; size = 8
$T26 = -24						; size = 8
$T27 = -24						; size = 8
$T28 = -24						; size = 8
$T29 = -24						; size = 8
$T30 = -24						; size = 8
$T31 = -24						; size = 8
$T32 = -24						; size = 8
$T33 = -24						; size = 8
$T34 = -24						; size = 8
$T35 = -24						; size = 8
$T36 = -24						; size = 8
$T37 = -24						; size = 8
$T38 = -24						; size = 8
$T39 = -24						; size = 8
$T40 = -24						; size = 8
$T41 = -24						; size = 8
$T42 = -24						; size = 8
$T43 = -24						; size = 8
$T44 = -24						; size = 8
$T45 = -24						; size = 8
$T46 = -24						; size = 8
$T47 = -24						; size = 8
$T48 = -24						; size = 8
$T49 = -24						; size = 8
$T50 = -24						; size = 8
$T51 = -24						; size = 8
$T52 = -24						; size = 8
$T53 = -24						; size = 8
$T54 = -24						; size = 8
$T55 = -24						; size = 8
$T56 = -24						; size = 8
$T57 = -24						; size = 8
$T58 = -24						; size = 8
$T59 = -24						; size = 8
$T60 = -24						; size = 8
$T61 = -24						; size = 8
$T62 = -24						; size = 8
$T63 = -24						; size = 8
$T64 = -24						; size = 8
$T65 = -24						; size = 8
$T66 = -24						; size = 8
$T67 = -24						; size = 8
$T68 = -24						; size = 8
$T69 = -24						; size = 8
$T70 = -24						; size = 8
$T71 = -24						; size = 8
$T72 = -24						; size = 8
$T73 = -24						; size = 8
$T74 = -24						; size = 8
$T75 = -24						; size = 8
$T76 = -24						; size = 8
$T77 = -24						; size = 8
$T78 = -24						; size = 8
$T79 = -24						; size = 8
$T80 = -24						; size = 8
$T81 = -24						; size = 8
$T82 = -24						; size = 8
$T83 = -24						; size = 8
$T84 = -24						; size = 8
$T85 = -24						; size = 8
$T86 = -24						; size = 8
$T87 = -24						; size = 8
$T88 = -24						; size = 8
$T89 = -24						; size = 8
$T90 = -24						; size = 8
$T91 = -24						; size = 8
$T92 = -24						; size = 8
$T93 = -24						; size = 8
$T94 = -24						; size = 8
$T95 = -24						; size = 8
$T96 = -24						; size = 8
$T97 = -24						; size = 8
$T98 = -24						; size = 8
$T99 = -24						; size = 8
$T100 = -24						; size = 8
$T101 = -24						; size = 8
$T102 = -24						; size = 8
$T103 = -24						; size = 8
$T104 = -24						; size = 8
$T105 = -24						; size = 8
$T106 = -24						; size = 8
$T107 = -24						; size = 8
$T108 = -24						; size = 8
$T109 = -24						; size = 8
$T110 = -24						; size = 8
$T111 = -24						; size = 8
$T112 = -24						; size = 8
$T113 = -24						; size = 8
$T114 = -24						; size = 8
$T115 = -24						; size = 8
$T116 = -24						; size = 8
$T117 = -24						; size = 8
$T118 = -24						; size = 8
$T119 = -24						; size = 8
$T120 = -24						; size = 8
$T121 = -24						; size = 8
_this$ = -16						; size = 4
__$EHRec$ = -12						; size = 12
??0CMainPacketHeaderMap@@QAE@XZ PROC			; CMainPacketHeaderMap::CMainPacketHeaderMap, COMDAT
; _this$dead$ = ecx

; 29   : 		CMainPacketHeaderMap()

  00000	55		 push	 ebp
  00001	8b ec		 mov	 ebp, esp
  00003	6a ff		 push	 -1
  00005	68 00 00 00 00	 push	 __ehhandler$??0CMainPacketHeaderMap@@QAE@XZ
  0000a	64 a1 00 00 00
	00		 mov	 eax, DWORD PTR fs:0
  00010	50		 push	 eax
  00011	83 ec 0c	 sub	 esp, 12			; 0000000cH
  00014	a1 00 00 00 00	 mov	 eax, DWORD PTR ___security_cookie
  00019	33 c5		 xor	 eax, ebp
  0001b	50		 push	 eax
  0001c	8d 45 f4	 lea	 eax, DWORD PTR __$EHRec$[ebp]
  0001f	64 a3 00 00 00
	00		 mov	 DWORD PTR fs:0, eax
  00025	b9 00 00 00 00	 mov	 ecx, OFFSET ?s_packetHeaderMap@?1??CheckPacket@CPythonNetworkStream@@IAE_NPAE@Z@4VCMainPacketHeaderMap@@A
  0002a	c7 45 f0 00 00
	00 00		 mov	 DWORD PTR _this$[ebp], OFFSET ?s_packetHeaderMap@?1??CheckPacket@CPythonNetworkStream@@IAE_NPAE@Z@4VCMainPacketHeaderMap@@A
  00031	e8 00 00 00 00	 call	 ??0CNetworkPacketHeaderMap@@QAE@XZ ; CNetworkPacketHeaderMap::CNetworkPacketHeaderMap
; File E:\Metin2_server\SolWayneSF v6\ClientVS22\source\eterLib\NetPacketHeaderMap.h

; 13   : 				isDynamicSizePacket = bFlag;

  00036	c6 45 ec 00	 mov	 BYTE PTR $T121[ebp+4], 0
; File E:\Metin2_server\SolWayneSF v6\ClientVS22\source\UserInterface\PythonNetworkStream.cpp

; 31   : 			Set(HEADER_GC_EMPIRE,				CNetworkPacketHeaderMap::TPacketType(sizeof(TPacketGCEmpire), STATIC_SIZE_PACKET));

  0003a	b9 00 00 00 00	 mov	 ecx, OFFSET ?s_packetHeaderMap@?1??CheckPacket@CPythonNetworkStream@@IAE_NPAE@Z@4VCMainPacketHeaderMap@@A
  0003f	ff 75 ec	 push	 DWORD PTR $T121[ebp+4]
  00042	c7 45 fc 00 00
	00 00		 mov	 DWORD PTR __$EHRec$[ebp+8], 0
  00049	6a 02		 push	 2
  0004b	6a 5a		 push	 90			; 0000005aH
  0004d	c7 05 00 00 00
	00 00 00 00 00	 mov	 DWORD PTR ?s_packetHeaderMap@?1??CheckPacket@CPythonNetworkStream@@IAE_NPAE@Z@4VCMainPacketHeaderMap@@A, OFFSET ??_7CMainPacketHeaderMap@@6B@
  00057	e8 00 00 00 00	 call	 ?Set@CNetworkPacketHeaderMap@@QAEXHUSPacketType@1@@Z ; CNetworkPacketHeaderMap::Set
; File E:\Metin2_server\SolWayneSF v6\ClientVS22\source\eterLib\NetPacketHeaderMap.h

; 13   : 				isDynamicSizePacket = bFlag;

  0005c	c6 45 ec 00	 mov	 BYTE PTR $T120[ebp+4], 0
; File E:\Metin2_server\SolWayneSF v6\ClientVS22\source\UserInterface\PythonNetworkStream.cpp

; 32   : 			Set(HEADER_GC_WARP,					CNetworkPacketHeaderMap::TPacketType(sizeof(TPacketGCWarp), STATIC_SIZE_PACKET));

  00060	b9 00 00 00 00	 mov	 ecx, OFFSET ?s_packetHeaderMap@?1??CheckPacket@CPythonNetworkStream@@IAE_NPAE@Z@4VCMainPacketHeaderMap@@A
  00065	ff 75 ec	 push	 DWORD PTR $T120[ebp+4]
  00068	6a 0f		 push	 15			; 0000000fH
  0006a	6a 41		 push	 65			; 00000041H
  0006c	e8 00 00 00 00	 call	 ?Set@CNetworkPacketHeaderMap@@QAEXHUSPacketType@1@@Z ; CNetworkPacketHeaderMap::Set
; File E:\Metin2_server\SolWayneSF v6\ClientVS22\source\eterLib\NetPacketHeaderMap.h

; 13   : 				isDynamicSizePacket = bFlag;

  00071	c6 45 ec 00	 mov	 BYTE PTR $T119[ebp+4], 0
; File E:\Metin2_server\SolWayneSF v6\ClientVS22\source\UserInterface\PythonNetworkStream.cpp

; 33   : 			Set(HEADER_GC_SKILL_COOLTIME_END,	CNetworkPacketHeaderMap::TPacketType(sizeof(TPacketGCSkillCoolTimeEnd), STATIC_SIZE_PACKET));

  00075	b9 00 00 00 00	 mov	 ecx, OFFSET ?s_packetHeaderMap@?1??CheckPacket@CPythonNetworkStream@@IAE_NPAE@Z@4VCMainPacketHeaderMap@@A
  0007a	ff 75 ec	 push	 DWORD PTR $T119[ebp+4]
  0007d	6a 02		 push	 2
  0007f	6a 49		 push	 73			; 00000049H
  00081	e8 00 00 00 00	 call	 ?Set@CNetworkPacketHeaderMap@@QAEXHUSPacketType@1@@Z ; CNetworkPacketHeaderMap::Set
; File E:\Metin2_server\SolWayneSF v6\ClientVS22\source\eterLib\NetPacketHeaderMap.h

; 13   : 				isDynamicSizePacket = bFlag;

  00086	c6 45 ec 01	 mov	 BYTE PTR $T118[ebp+4], 1
; File E:\Metin2_server\SolWayneSF v6\ClientVS22\source\UserInterface\PythonNetworkStream.cpp

; 34   : 			Set(HEADER_GC_QUEST_INFO,			CNetworkPacketHeaderMap::TPacketType(sizeof(TPacketGCQuestInfo), DYNAMIC_SIZE_PACKET));

  0008a	b9 00 00 00 00	 mov	 ecx, OFFSET ?s_packetHeaderMap@?1??CheckPacket@CPythonNetworkStream@@IAE_NPAE@Z@4VCMainPacketHeaderMap@@A
  0008f	ff 75 ec	 push	 DWORD PTR $T118[ebp+4]
  00092	6a 08		 push	 8
  00094	6a 51		 push	 81			; 00000051H
  00096	e8 00 00 00 00	 call	 ?Set@CNetworkPacketHeaderMap@@QAEXHUSPacketType@1@@Z ; CNetworkPacketHeaderMap::Set
; File E:\Metin2_server\SolWayneSF v6\ClientVS22\source\eterLib\NetPacketHeaderMap.h

; 13   : 				isDynamicSizePacket = bFlag;

  0009b	c6 45 ec 00	 mov	 BYTE PTR $T117[ebp+4], 0
; File E:\Metin2_server\SolWayneSF v6\ClientVS22\source\UserInterface\PythonNetworkStream.cpp

; 35   : 			Set(HEADER_GC_REQUEST_MAKE_GUILD,	CNetworkPacketHeaderMap::TPacketType(sizeof(TPacketGCBlank), STATIC_SIZE_PACKET));

  0009f	b9 00 00 00 00	 mov	 ecx, OFFSET ?s_packetHeaderMap@?1??CheckPacket@CPythonNetworkStream@@IAE_NPAE@Z@4VCMainPacketHeaderMap@@A
  000a4	ff 75 ec	 push	 DWORD PTR $T117[ebp+4]
  000a7	6a 01		 push	 1
  000a9	6a 52		 push	 82			; 00000052H
  000ab	e8 00 00 00 00	 call	 ?Set@CNetworkPacketHeaderMap@@QAEXHUSPacketType@1@@Z ; CNetworkPacketHeaderMap::Set
; File E:\Metin2_server\SolWayneSF v6\ClientVS22\source\eterLib\NetPacketHeaderMap.h

; 13   : 				isDynamicSizePacket = bFlag;

  000b0	c6 45 ec 00	 mov	 BYTE PTR $T116[ebp+4], 0
; File E:\Metin2_server\SolWayneSF v6\ClientVS22\source\UserInterface\PythonNetworkStream.cpp

; 36   : 			Set(HEADER_GC_PVP,					CNetworkPacketHeaderMap::TPacketType(sizeof(TPacketGCPVP), STATIC_SIZE_PACKET));

  000b4	b9 00 00 00 00	 mov	 ecx, OFFSET ?s_packetHeaderMap@?1??CheckPacket@CPythonNetworkStream@@IAE_NPAE@Z@4VCMainPacketHeaderMap@@A
  000b9	ff 75 ec	 push	 DWORD PTR $T116[ebp+4]
  000bc	6a 0a		 push	 10			; 0000000aH
  000be	6a 29		 push	 41			; 00000029H
  000c0	e8 00 00 00 00	 call	 ?Set@CNetworkPacketHeaderMap@@QAEXHUSPacketType@1@@Z ; CNetworkPacketHeaderMap::Set
; File E:\Metin2_server\SolWayneSF v6\ClientVS22\source\eterLib\NetPacketHeaderMap.h

; 13   : 				isDynamicSizePacket = bFlag;

  000c5	c6 45 ec 01	 mov	 BYTE PTR $T115[ebp+4], 1
; File E:\Metin2_server\SolWayneSF v6\ClientVS22\source\UserInterface\PythonNetworkStream.cpp

; 37   : 			Set(HEADER_GC_DUEL_START,			CNetworkPacketHeaderMap::TPacketType(sizeof(TPacketGCDuelStart), DYNAMIC_SIZE_PACKET));

  000c9	b9 00 00 00 00	 mov	 ecx, OFFSET ?s_packetHeaderMap@?1??CheckPacket@CPythonNetworkStream@@IAE_NPAE@Z@4VCMainPacketHeaderMap@@A
  000ce	ff 75 ec	 push	 DWORD PTR $T115[ebp+4]
  000d1	6a 03		 push	 3
  000d3	6a 28		 push	 40			; 00000028H
  000d5	e8 00 00 00 00	 call	 ?Set@CNetworkPacketHeaderMap@@QAEXHUSPacketType@1@@Z ; CNetworkPacketHeaderMap::Set
; File E:\Metin2_server\SolWayneSF v6\ClientVS22\source\eterLib\NetPacketHeaderMap.h

; 13   : 				isDynamicSizePacket = bFlag;

  000da	c6 45 ec 00	 mov	 BYTE PTR $T114[ebp+4], 0
; File E:\Metin2_server\SolWayneSF v6\ClientVS22\source\UserInterface\PythonNetworkStream.cpp

; 38   : 			Set(HEADER_GC_CHARACTER_ADD,		CNetworkPacketHeaderMap::TPacketType(sizeof(TPacketGCCharacterAdd), STATIC_SIZE_PACKET));

  000de	b9 00 00 00 00	 mov	 ecx, OFFSET ?s_packetHeaderMap@?1??CheckPacket@CPythonNetworkStream@@IAE_NPAE@Z@4VCMainPacketHeaderMap@@A
  000e3	ff 75 ec	 push	 DWORD PTR $T114[ebp+4]
  000e6	6a 23		 push	 35			; 00000023H
  000e8	6a 01		 push	 1
  000ea	e8 00 00 00 00	 call	 ?Set@CNetworkPacketHeaderMap@@QAEXHUSPacketType@1@@Z ; CNetworkPacketHeaderMap::Set
; File E:\Metin2_server\SolWayneSF v6\ClientVS22\source\eterLib\NetPacketHeaderMap.h

; 13   : 				isDynamicSizePacket = bFlag;

  000ef	c6 45 ec 00	 mov	 BYTE PTR $T113[ebp+4], 0
; File E:\Metin2_server\SolWayneSF v6\ClientVS22\source\UserInterface\PythonNetworkStream.cpp

; 39   : 			Set(HEADER_GC_CHAR_ADDITIONAL_INFO,	CNetworkPacketHeaderMap::TPacketType(sizeof(TPacketGCCharacterAdditionalInfo), STATIC_SIZE_PACKET));

  000f3	b9 00 00 00 00	 mov	 ecx, OFFSET ?s_packetHeaderMap@?1??CheckPacket@CPythonNetworkStream@@IAE_NPAE@Z@4VCMainPacketHeaderMap@@A
  000f8	ff 75 ec	 push	 DWORD PTR $T113[ebp+4]
  000fb	6a 3a		 push	 58			; 0000003aH
  000fd	68 88 00 00 00	 push	 136			; 00000088H
  00102	e8 00 00 00 00	 call	 ?Set@CNetworkPacketHeaderMap@@QAEXHUSPacketType@1@@Z ; CNetworkPacketHeaderMap::Set
; File E:\Metin2_server\SolWayneSF v6\ClientVS22\source\eterLib\NetPacketHeaderMap.h

; 13   : 				isDynamicSizePacket = bFlag;

  00107	c6 45 ec 00	 mov	 BYTE PTR $T112[ebp+4], 0
; File E:\Metin2_server\SolWayneSF v6\ClientVS22\source\UserInterface\PythonNetworkStream.cpp

; 40   : 			Set(HEADER_GC_CHARACTER_ADD2,		CNetworkPacketHeaderMap::TPacketType(sizeof(TPacketGCCharacterAdd2), STATIC_SIZE_PACKET));

  0010b	b9 00 00 00 00	 mov	 ecx, OFFSET ?s_packetHeaderMap@?1??CheckPacket@CPythonNetworkStream@@IAE_NPAE@Z@4VCMainPacketHeaderMap@@A
  00110	ff 75 ec	 push	 DWORD PTR $T112[ebp+4]
  00113	6a 54		 push	 84			; 00000054H
  00115	6a 78		 push	 120			; 00000078H
  00117	e8 00 00 00 00	 call	 ?Set@CNetworkPacketHeaderMap@@QAEXHUSPacketType@1@@Z ; CNetworkPacketHeaderMap::Set
; File E:\Metin2_server\SolWayneSF v6\ClientVS22\source\eterLib\NetPacketHeaderMap.h

; 13   : 				isDynamicSizePacket = bFlag;

  0011c	c6 45 ec 00	 mov	 BYTE PTR $T111[ebp+4], 0
; File E:\Metin2_server\SolWayneSF v6\ClientVS22\source\UserInterface\PythonNetworkStream.cpp

; 41   : 			Set(HEADER_GC_CHARACTER_UPDATE,		CNetworkPacketHeaderMap::TPacketType(sizeof(TPacketGCCharacterUpdate), STATIC_SIZE_PACKET));

  00120	b9 00 00 00 00	 mov	 ecx, OFFSET ?s_packetHeaderMap@?1??CheckPacket@CPythonNetworkStream@@IAE_NPAE@Z@4VCMainPacketHeaderMap@@A
  00125	ff 75 ec	 push	 DWORD PTR $T111[ebp+4]
  00128	6a 2b		 push	 43			; 0000002bH
  0012a	6a 13		 push	 19			; 00000013H
  0012c	e8 00 00 00 00	 call	 ?Set@CNetworkPacketHeaderMap@@QAEXHUSPacketType@1@@Z ; CNetworkPacketHeaderMap::Set
; File E:\Metin2_server\SolWayneSF v6\ClientVS22\source\eterLib\NetPacketHeaderMap.h

; 13   : 				isDynamicSizePacket = bFlag;

  00131	c6 45 ec 00	 mov	 BYTE PTR $T110[ebp+4], 0
; File E:\Metin2_server\SolWayneSF v6\ClientVS22\source\UserInterface\PythonNetworkStream.cpp

; 42   : 			Set(HEADER_GC_CHARACTER_UPDATE2,	CNetworkPacketHeaderMap::TPacketType(sizeof(TPacketGCCharacterUpdate2), STATIC_SIZE_PACKET));

  00135	b9 00 00 00 00	 mov	 ecx, OFFSET ?s_packetHeaderMap@?1??CheckPacket@CPythonNetworkStream@@IAE_NPAE@Z@4VCMainPacketHeaderMap@@A
  0013a	ff 75 ec	 push	 DWORD PTR $T110[ebp+4]
  0013d	6a 27		 push	 39			; 00000027H
  0013f	6a 75		 push	 117			; 00000075H
  00141	e8 00 00 00 00	 call	 ?Set@CNetworkPacketHeaderMap@@QAEXHUSPacketType@1@@Z ; CNetworkPacketHeaderMap::Set
; File E:\Metin2_server\SolWayneSF v6\ClientVS22\source\eterLib\NetPacketHeaderMap.h

; 13   : 				isDynamicSizePacket = bFlag;

  00146	c6 45 ec 00	 mov	 BYTE PTR $T109[ebp+4], 0
; File E:\Metin2_server\SolWayneSF v6\ClientVS22\source\UserInterface\PythonNetworkStream.cpp

; 43   : 			Set(HEADER_GC_CHARACTER_DEL,		CNetworkPacketHeaderMap::TPacketType(sizeof(TPacketGCCharacterDelete), STATIC_SIZE_PACKET));

  0014a	ff 75 ec	 push	 DWORD PTR $T109[ebp+4]
  0014d	6a 05		 push	 5
  0014f	6a 02		 push	 2
  00151	b9 00 00 00 00	 mov	 ecx, OFFSET ?s_packetHeaderMap@?1??CheckPacket@CPythonNetworkStream@@IAE_NPAE@Z@4VCMainPacketHeaderMap@@A
  00156	e8 00 00 00 00	 call	 ?Set@CNetworkPacketHeaderMap@@QAEXHUSPacketType@1@@Z ; CNetworkPacketHeaderMap::Set
; File E:\Metin2_server\SolWayneSF v6\ClientVS22\source\eterLib\NetPacketHeaderMap.h

; 13   : 				isDynamicSizePacket = bFlag;

  0015b	c6 45 ec 00	 mov	 BYTE PTR $T108[ebp+4], 0
; File E:\Metin2_server\SolWayneSF v6\ClientVS22\source\UserInterface\PythonNetworkStream.cpp

; 44   : 			Set(HEADER_GC_CHARACTER_MOVE,		CNetworkPacketHeaderMap::TPacketType(sizeof(TPacketGCMove), STATIC_SIZE_PACKET));

  0015f	b9 00 00 00 00	 mov	 ecx, OFFSET ?s_packetHeaderMap@?1??CheckPacket@CPythonNetworkStream@@IAE_NPAE@Z@4VCMainPacketHeaderMap@@A
  00164	ff 75 ec	 push	 DWORD PTR $T108[ebp+4]
  00167	6a 18		 push	 24			; 00000018H
  00169	6a 03		 push	 3
  0016b	e8 00 00 00 00	 call	 ?Set@CNetworkPacketHeaderMap@@QAEXHUSPacketType@1@@Z ; CNetworkPacketHeaderMap::Set
; File E:\Metin2_server\SolWayneSF v6\ClientVS22\source\eterLib\NetPacketHeaderMap.h

; 13   : 				isDynamicSizePacket = bFlag;

  00170	c6 45 ec 01	 mov	 BYTE PTR $T107[ebp+4], 1
; File E:\Metin2_server\SolWayneSF v6\ClientVS22\source\UserInterface\PythonNetworkStream.cpp

; 45   : 			Set(HEADER_GC_CHAT,					CNetworkPacketHeaderMap::TPacketType(sizeof(TPacketGCChat), DYNAMIC_SIZE_PACKET));

  00174	b9 00 00 00 00	 mov	 ecx, OFFSET ?s_packetHeaderMap@?1??CheckPacket@CPythonNetworkStream@@IAE_NPAE@Z@4VCMainPacketHeaderMap@@A
  00179	ff 75 ec	 push	 DWORD PTR $T107[ebp+4]
  0017c	6a 09		 push	 9
  0017e	6a 04		 push	 4
  00180	e8 00 00 00 00	 call	 ?Set@CNetworkPacketHeaderMap@@QAEXHUSPacketType@1@@Z ; CNetworkPacketHeaderMap::Set
; File E:\Metin2_server\SolWayneSF v6\ClientVS22\source\eterLib\NetPacketHeaderMap.h

; 13   : 				isDynamicSizePacket = bFlag;

  00185	c6 45 ec 01	 mov	 BYTE PTR $T106[ebp+4], 1
; File E:\Metin2_server\SolWayneSF v6\ClientVS22\source\UserInterface\PythonNetworkStream.cpp

; 47   : 			Set(HEADER_GC_SYNC_POSITION,		CNetworkPacketHeaderMap::TPacketType(sizeof(TPacketGCC2C), DYNAMIC_SIZE_PACKET));

  00189	b9 00 00 00 00	 mov	 ecx, OFFSET ?s_packetHeaderMap@?1??CheckPacket@CPythonNetworkStream@@IAE_NPAE@Z@4VCMainPacketHeaderMap@@A
  0018e	ff 75 ec	 push	 DWORD PTR $T106[ebp+4]
  00191	6a 03		 push	 3
  00193	6a 05		 push	 5
  00195	e8 00 00 00 00	 call	 ?Set@CNetworkPacketHeaderMap@@QAEXHUSPacketType@1@@Z ; CNetworkPacketHeaderMap::Set
; File E:\Metin2_server\SolWayneSF v6\ClientVS22\source\eterLib\NetPacketHeaderMap.h

; 13   : 				isDynamicSizePacket = bFlag;

  0019a	c6 45 ec 00	 mov	 BYTE PTR $T105[ebp+4], 0
; File E:\Metin2_server\SolWayneSF v6\ClientVS22\source\UserInterface\PythonNetworkStream.cpp

; 49   : 			Set(HEADER_GC_LOGIN_SUCCESS3,		CNetworkPacketHeaderMap::TPacketType(sizeof(TPacketGCLoginSuccess3), STATIC_SIZE_PACKET));

  0019e	b9 00 00 00 00	 mov	 ecx, OFFSET ?s_packetHeaderMap@?1??CheckPacket@CPythonNetworkStream@@IAE_NPAE@Z@4VCMainPacketHeaderMap@@A
  001a3	ff 75 ec	 push	 DWORD PTR $T105[ebp+4]
  001a6	68 ff 00 00 00	 push	 255			; 000000ffH
  001ab	6a 06		 push	 6
  001ad	e8 00 00 00 00	 call	 ?Set@CNetworkPacketHeaderMap@@QAEXHUSPacketType@1@@Z ; CNetworkPacketHeaderMap::Set
; File E:\Metin2_server\SolWayneSF v6\ClientVS22\source\eterLib\NetPacketHeaderMap.h

; 13   : 				isDynamicSizePacket = bFlag;

  001b2	c6 45 ec 00	 mov	 BYTE PTR $T104[ebp+4], 0
; File E:\Metin2_server\SolWayneSF v6\ClientVS22\source\UserInterface\PythonNetworkStream.cpp

; 50   : 			Set(HEADER_GC_LOGIN_SUCCESS4,		CNetworkPacketHeaderMap::TPacketType(sizeof(TPacketGCLoginSuccess4), STATIC_SIZE_PACKET));

  001b6	b9 00 00 00 00	 mov	 ecx, OFFSET ?s_packetHeaderMap@?1??CheckPacket@CPythonNetworkStream@@IAE_NPAE@Z@4VCMainPacketHeaderMap@@A
  001bb	ff 75 ec	 push	 DWORD PTR $T104[ebp+4]
  001be	68 51 01 00 00	 push	 337			; 00000151H
  001c3	6a 20		 push	 32			; 00000020H
  001c5	e8 00 00 00 00	 call	 ?Set@CNetworkPacketHeaderMap@@QAEXHUSPacketType@1@@Z ; CNetworkPacketHeaderMap::Set
; File E:\Metin2_server\SolWayneSF v6\ClientVS22\source\eterLib\NetPacketHeaderMap.h

; 13   : 				isDynamicSizePacket = bFlag;

  001ca	c6 45 ec 00	 mov	 BYTE PTR $T103[ebp+4], 0
; File E:\Metin2_server\SolWayneSF v6\ClientVS22\source\UserInterface\PythonNetworkStream.cpp

; 51   : 			Set(HEADER_GC_LOGIN_FAILURE,		CNetworkPacketHeaderMap::TPacketType(sizeof(TPacketGCLoginFailure), STATIC_SIZE_PACKET));

  001ce	b9 00 00 00 00	 mov	 ecx, OFFSET ?s_packetHeaderMap@?1??CheckPacket@CPythonNetworkStream@@IAE_NPAE@Z@4VCMainPacketHeaderMap@@A
  001d3	ff 75 ec	 push	 DWORD PTR $T103[ebp+4]
  001d6	6a 0a		 push	 10			; 0000000aH
  001d8	6a 07		 push	 7
  001da	e8 00 00 00 00	 call	 ?Set@CNetworkPacketHeaderMap@@QAEXHUSPacketType@1@@Z ; CNetworkPacketHeaderMap::Set
; File E:\Metin2_server\SolWayneSF v6\ClientVS22\source\eterLib\NetPacketHeaderMap.h

; 13   : 				isDynamicSizePacket = bFlag;

  001df	c6 45 ec 00	 mov	 BYTE PTR $T102[ebp+4], 0
; File E:\Metin2_server\SolWayneSF v6\ClientVS22\source\UserInterface\PythonNetworkStream.cpp

; 53   : 			Set(HEADER_GC_PLAYER_CREATE_SUCCESS,		 CNetworkPacketHeaderMap::TPacketType(sizeof(TPacketGCPlayerCreateSuccess), STATIC_SIZE_PACKET));

  001e3	b9 00 00 00 00	 mov	 ecx, OFFSET ?s_packetHeaderMap@?1??CheckPacket@CPythonNetworkStream@@IAE_NPAE@Z@4VCMainPacketHeaderMap@@A
  001e8	ff 75 ec	 push	 DWORD PTR $T102[ebp+4]
  001eb	6a 43		 push	 67			; 00000043H
  001ed	6a 08		 push	 8
  001ef	e8 00 00 00 00	 call	 ?Set@CNetworkPacketHeaderMap@@QAEXHUSPacketType@1@@Z ; CNetworkPacketHeaderMap::Set
; File E:\Metin2_server\SolWayneSF v6\ClientVS22\source\eterLib\NetPacketHeaderMap.h

; 13   : 				isDynamicSizePacket = bFlag;

  001f4	c6 45 ec 00	 mov	 BYTE PTR $T101[ebp+4], 0
; File E:\Metin2_server\SolWayneSF v6\ClientVS22\source\UserInterface\PythonNetworkStream.cpp

; 54   : 			Set(HEADER_GC_PLAYER_CREATE_FAILURE,		 CNetworkPacketHeaderMap::TPacketType(sizeof(TPacketGCCreateFailure), STATIC_SIZE_PACKET));

  001f8	b9 00 00 00 00	 mov	 ecx, OFFSET ?s_packetHeaderMap@?1??CheckPacket@CPythonNetworkStream@@IAE_NPAE@Z@4VCMainPacketHeaderMap@@A
  001fd	ff 75 ec	 push	 DWORD PTR $T101[ebp+4]
  00200	6a 02		 push	 2
  00202	6a 09		 push	 9
  00204	e8 00 00 00 00	 call	 ?Set@CNetworkPacketHeaderMap@@QAEXHUSPacketType@1@@Z ; CNetworkPacketHeaderMap::Set
; File E:\Metin2_server\SolWayneSF v6\ClientVS22\source\eterLib\NetPacketHeaderMap.h

; 13   : 				isDynamicSizePacket = bFlag;

  00209	c6 45 ec 00	 mov	 BYTE PTR $T100[ebp+4], 0
; File E:\Metin2_server\SolWayneSF v6\ClientVS22\source\UserInterface\PythonNetworkStream.cpp

; 55   : 			Set(HEADER_GC_PLAYER_DELETE_SUCCESS,		 CNetworkPacketHeaderMap::TPacketType(sizeof(TPacketGCBlank), STATIC_SIZE_PACKET));

  0020d	b9 00 00 00 00	 mov	 ecx, OFFSET ?s_packetHeaderMap@?1??CheckPacket@CPythonNetworkStream@@IAE_NPAE@Z@4VCMainPacketHeaderMap@@A
  00212	ff 75 ec	 push	 DWORD PTR $T100[ebp+4]
  00215	6a 01		 push	 1
  00217	6a 0a		 push	 10			; 0000000aH
  00219	e8 00 00 00 00	 call	 ?Set@CNetworkPacketHeaderMap@@QAEXHUSPacketType@1@@Z ; CNetworkPacketHeaderMap::Set
; File E:\Metin2_server\SolWayneSF v6\ClientVS22\source\eterLib\NetPacketHeaderMap.h

; 13   : 				isDynamicSizePacket = bFlag;

  0021e	c6 45 ec 00	 mov	 BYTE PTR $T99[ebp+4], 0
; File E:\Metin2_server\SolWayneSF v6\ClientVS22\source\UserInterface\PythonNetworkStream.cpp

; 56   : 			Set(HEADER_GC_PLAYER_DELETE_WRONG_SOCIAL_ID, CNetworkPacketHeaderMap::TPacketType(sizeof(TPacketGCBlank), STATIC_SIZE_PACKET));

  00222	b9 00 00 00 00	 mov	 ecx, OFFSET ?s_packetHeaderMap@?1??CheckPacket@CPythonNetworkStream@@IAE_NPAE@Z@4VCMainPacketHeaderMap@@A
  00227	ff 75 ec	 push	 DWORD PTR $T99[ebp+4]
  0022a	6a 01		 push	 1
  0022c	6a 0b		 push	 11			; 0000000bH
  0022e	e8 00 00 00 00	 call	 ?Set@CNetworkPacketHeaderMap@@QAEXHUSPacketType@1@@Z ; CNetworkPacketHeaderMap::Set
; File E:\Metin2_server\SolWayneSF v6\ClientVS22\source\eterLib\NetPacketHeaderMap.h

; 13   : 				isDynamicSizePacket = bFlag;

  00233	c6 45 ec 00	 mov	 BYTE PTR $T98[ebp+4], 0
; File E:\Metin2_server\SolWayneSF v6\ClientVS22\source\UserInterface\PythonNetworkStream.cpp

; 58   : 			Set(HEADER_GC_STUN,					CNetworkPacketHeaderMap::TPacketType(sizeof(TPacketGCStun), STATIC_SIZE_PACKET));

  00237	b9 00 00 00 00	 mov	 ecx, OFFSET ?s_packetHeaderMap@?1??CheckPacket@CPythonNetworkStream@@IAE_NPAE@Z@4VCMainPacketHeaderMap@@A
  0023c	ff 75 ec	 push	 DWORD PTR $T98[ebp+4]
  0023f	6a 05		 push	 5
  00241	6a 0d		 push	 13			; 0000000dH
  00243	e8 00 00 00 00	 call	 ?Set@CNetworkPacketHeaderMap@@QAEXHUSPacketType@1@@Z ; CNetworkPacketHeaderMap::Set
; File E:\Metin2_server\SolWayneSF v6\ClientVS22\source\eterLib\NetPacketHeaderMap.h

; 13   : 				isDynamicSizePacket = bFlag;

  00248	c6 45 ec 00	 mov	 BYTE PTR $T97[ebp+4], 0
; File E:\Metin2_server\SolWayneSF v6\ClientVS22\source\UserInterface\PythonNetworkStream.cpp

; 59   : 			Set(HEADER_GC_DEAD,					CNetworkPacketHeaderMap::TPacketType(sizeof(TPacketGCDead), STATIC_SIZE_PACKET));

  0024c	b9 00 00 00 00	 mov	 ecx, OFFSET ?s_packetHeaderMap@?1??CheckPacket@CPythonNetworkStream@@IAE_NPAE@Z@4VCMainPacketHeaderMap@@A
  00251	ff 75 ec	 push	 DWORD PTR $T97[ebp+4]
  00254	6a 05		 push	 5
  00256	6a 0e		 push	 14			; 0000000eH
  00258	e8 00 00 00 00	 call	 ?Set@CNetworkPacketHeaderMap@@QAEXHUSPacketType@1@@Z ; CNetworkPacketHeaderMap::Set
; File E:\Metin2_server\SolWayneSF v6\ClientVS22\source\eterLib\NetPacketHeaderMap.h

; 13   : 				isDynamicSizePacket = bFlag;

  0025d	c6 45 ec 00	 mov	 BYTE PTR $T96[ebp+4], 0
; File E:\Metin2_server\SolWayneSF v6\ClientVS22\source\UserInterface\PythonNetworkStream.cpp

; 61   : 			Set(HEADER_GC_MAIN_CHARACTER,			CNetworkPacketHeaderMap::TPacketType(sizeof(TPacketGCMainCharacter), STATIC_SIZE_PACKET));

  00261	b9 00 00 00 00	 mov	 ecx, OFFSET ?s_packetHeaderMap@?1??CheckPacket@CPythonNetworkStream@@IAE_NPAE@Z@4VCMainPacketHeaderMap@@A
  00266	ff 75 ec	 push	 DWORD PTR $T96[ebp+4]
  00269	6a 2d		 push	 45			; 0000002dH
  0026b	6a 0f		 push	 15			; 0000000fH
  0026d	e8 00 00 00 00	 call	 ?Set@CNetworkPacketHeaderMap@@QAEXHUSPacketType@1@@Z ; CNetworkPacketHeaderMap::Set
; File E:\Metin2_server\SolWayneSF v6\ClientVS22\source\eterLib\NetPacketHeaderMap.h

; 13   : 				isDynamicSizePacket = bFlag;

  00272	c6 45 ec 01	 mov	 BYTE PTR $T95[ebp+4], 1
; File E:\Metin2_server\SolWayneSF v6\ClientVS22\source\UserInterface\PythonNetworkStream.cpp

; 63   : 			Set(HEADER_GC_PARTY_POSITION_INFO,	CNetworkPacketHeaderMap::TPacketType(sizeof(TPacketGCPartyPosition), DYNAMIC_SIZE_PACKET));

  00276	b9 00 00 00 00	 mov	 ecx, OFFSET ?s_packetHeaderMap@?1??CheckPacket@CPythonNetworkStream@@IAE_NPAE@Z@4VCMainPacketHeaderMap@@A
  0027b	ff 75 ec	 push	 DWORD PTR $T95[ebp+4]
  0027e	6a 03		 push	 3
  00280	68 eb 00 00 00	 push	 235			; 000000ebH
  00285	e8 00 00 00 00	 call	 ?Set@CNetworkPacketHeaderMap@@QAEXHUSPacketType@1@@Z ; CNetworkPacketHeaderMap::Set
; File E:\Metin2_server\SolWayneSF v6\ClientVS22\source\eterLib\NetPacketHeaderMap.h

; 13   : 				isDynamicSizePacket = bFlag;

  0028a	c6 45 ec 00	 mov	 BYTE PTR $T94[ebp+4], 0
; File E:\Metin2_server\SolWayneSF v6\ClientVS22\source\UserInterface\PythonNetworkStream.cpp

; 67   : 			Set(HEADER_GC_MAIN_CHARACTER2_EMPIRE,	CNetworkPacketHeaderMap::TPacketType(sizeof(TPacketGCMainCharacter2_EMPIRE), STATIC_SIZE_PACKET));

  0028e	b9 00 00 00 00	 mov	 ecx, OFFSET ?s_packetHeaderMap@?1??CheckPacket@CPythonNetworkStream@@IAE_NPAE@Z@4VCMainPacketHeaderMap@@A
  00293	ff 75 ec	 push	 DWORD PTR $T94[ebp+4]
  00296	6a 2e		 push	 46			; 0000002eH
  00298	6a 71		 push	 113			; 00000071H
  0029a	e8 00 00 00 00	 call	 ?Set@CNetworkPacketHeaderMap@@QAEXHUSPacketType@1@@Z ; CNetworkPacketHeaderMap::Set
; File E:\Metin2_server\SolWayneSF v6\ClientVS22\source\eterLib\NetPacketHeaderMap.h

; 13   : 				isDynamicSizePacket = bFlag;

  0029f	c6 45 ec 00	 mov	 BYTE PTR $T93[ebp+4], 0
; File E:\Metin2_server\SolWayneSF v6\ClientVS22\source\UserInterface\PythonNetworkStream.cpp

; 68   : 			Set(HEADER_GC_MAIN_CHARACTER3_BGM,		CNetworkPacketHeaderMap::TPacketType(sizeof(TPacketGCMainCharacter3_BGM), STATIC_SIZE_PACKET));

  002a3	b9 00 00 00 00	 mov	 ecx, OFFSET ?s_packetHeaderMap@?1??CheckPacket@CPythonNetworkStream@@IAE_NPAE@Z@4VCMainPacketHeaderMap@@A
  002a8	ff 75 ec	 push	 DWORD PTR $T93[ebp+4]
  002ab	6a 47		 push	 71			; 00000047H
  002ad	68 89 00 00 00	 push	 137			; 00000089H
  002b2	e8 00 00 00 00	 call	 ?Set@CNetworkPacketHeaderMap@@QAEXHUSPacketType@1@@Z ; CNetworkPacketHeaderMap::Set
; File E:\Metin2_server\SolWayneSF v6\ClientVS22\source\eterLib\NetPacketHeaderMap.h

; 13   : 				isDynamicSizePacket = bFlag;

  002b7	c6 45 ec 00	 mov	 BYTE PTR $T92[ebp+4], 0
; File E:\Metin2_server\SolWayneSF v6\ClientVS22\source\UserInterface\PythonNetworkStream.cpp

; 69   : 			Set(HEADER_GC_MAIN_CHARACTER4_BGM_VOL,	CNetworkPacketHeaderMap::TPacketType(sizeof(TPacketGCMainCharacter4_BGM_VOL), STATIC_SIZE_PACKET));

  002bb	b9 00 00 00 00	 mov	 ecx, OFFSET ?s_packetHeaderMap@?1??CheckPacket@CPythonNetworkStream@@IAE_NPAE@Z@4VCMainPacketHeaderMap@@A
  002c0	ff 75 ec	 push	 DWORD PTR $T92[ebp+4]
  002c3	6a 4b		 push	 75			; 0000004bH
  002c5	68 8a 00 00 00	 push	 138			; 0000008aH
  002ca	e8 00 00 00 00	 call	 ?Set@CNetworkPacketHeaderMap@@QAEXHUSPacketType@1@@Z ; CNetworkPacketHeaderMap::Set
; File E:\Metin2_server\SolWayneSF v6\ClientVS22\source\eterLib\NetPacketHeaderMap.h

; 13   : 				isDynamicSizePacket = bFlag;

  002cf	c6 45 ec 00	 mov	 BYTE PTR $T91[ebp+4], 0
; File E:\Metin2_server\SolWayneSF v6\ClientVS22\source\UserInterface\PythonNetworkStream.cpp

; 72   : 			Set(HEADER_GC_PLAYER_POINTS,		CNetworkPacketHeaderMap::TPacketType(sizeof(TPacketGCPoints), STATIC_SIZE_PACKET));

  002d3	b9 00 00 00 00	 mov	 ecx, OFFSET ?s_packetHeaderMap@?1??CheckPacket@CPythonNetworkStream@@IAE_NPAE@Z@4VCMainPacketHeaderMap@@A
  002d8	ff 75 ec	 push	 DWORD PTR $T91[ebp+4]
  002db	68 f9 07 00 00	 push	 2041			; 000007f9H
  002e0	6a 10		 push	 16			; 00000010H
  002e2	e8 00 00 00 00	 call	 ?Set@CNetworkPacketHeaderMap@@QAEXHUSPacketType@1@@Z ; CNetworkPacketHeaderMap::Set
; File E:\Metin2_server\SolWayneSF v6\ClientVS22\source\eterLib\NetPacketHeaderMap.h

; 13   : 				isDynamicSizePacket = bFlag;

  002e7	c6 45 ec 00	 mov	 BYTE PTR $T90[ebp+4], 0
; File E:\Metin2_server\SolWayneSF v6\ClientVS22\source\UserInterface\PythonNetworkStream.cpp

; 73   : 			Set(HEADER_GC_PLAYER_POINT_CHANGE,	CNetworkPacketHeaderMap::TPacketType(sizeof(TPacketGCPointChange), STATIC_SIZE_PACKET));

  002eb	b9 00 00 00 00	 mov	 ecx, OFFSET ?s_packetHeaderMap@?1??CheckPacket@CPythonNetworkStream@@IAE_NPAE@Z@4VCMainPacketHeaderMap@@A
  002f0	ff 75 ec	 push	 DWORD PTR $T90[ebp+4]
  002f3	6a 19		 push	 25			; 00000019H
  002f5	6a 11		 push	 17			; 00000011H
  002f7	e8 00 00 00 00	 call	 ?Set@CNetworkPacketHeaderMap@@QAEXHUSPacketType@1@@Z ; CNetworkPacketHeaderMap::Set
; File E:\Metin2_server\SolWayneSF v6\ClientVS22\source\eterLib\NetPacketHeaderMap.h

; 13   : 				isDynamicSizePacket = bFlag;

  002fc	c6 45 ec 00	 mov	 BYTE PTR $T89[ebp+4], 0
; File E:\Metin2_server\SolWayneSF v6\ClientVS22\source\UserInterface\PythonNetworkStream.cpp

; 75   : 			Set(HEADER_GC_ITEM_SET,				CNetworkPacketHeaderMap::TPacketType(sizeof(TPacketGCItemSet), STATIC_SIZE_PACKET));

  00300	b9 00 00 00 00	 mov	 ecx, OFFSET ?s_packetHeaderMap@?1??CheckPacket@CPythonNetworkStream@@IAE_NPAE@Z@4VCMainPacketHeaderMap@@A
  00305	ff 75 ec	 push	 DWORD PTR $T89[ebp+4]
  00308	6a 2a		 push	 42			; 0000002aH
  0030a	6a 14		 push	 20			; 00000014H
  0030c	e8 00 00 00 00	 call	 ?Set@CNetworkPacketHeaderMap@@QAEXHUSPacketType@1@@Z ; CNetworkPacketHeaderMap::Set
; File E:\Metin2_server\SolWayneSF v6\ClientVS22\source\eterLib\NetPacketHeaderMap.h

; 13   : 				isDynamicSizePacket = bFlag;

  00311	c6 45 ec 00	 mov	 BYTE PTR $T88[ebp+4], 0
; File E:\Metin2_server\SolWayneSF v6\ClientVS22\source\UserInterface\PythonNetworkStream.cpp

; 76   : 			Set(HEADER_GC_ITEM_SET2,			CNetworkPacketHeaderMap::TPacketType(sizeof(TPacketGCItemSet2), STATIC_SIZE_PACKET));

  00315	b9 00 00 00 00	 mov	 ecx, OFFSET ?s_packetHeaderMap@?1??CheckPacket@CPythonNetworkStream@@IAE_NPAE@Z@4VCMainPacketHeaderMap@@A
  0031a	ff 75 ec	 push	 DWORD PTR $T88[ebp+4]
  0031d	6a 33		 push	 51			; 00000033H
  0031f	6a 15		 push	 21			; 00000015H
  00321	e8 00 00 00 00	 call	 ?Set@CNetworkPacketHeaderMap@@QAEXHUSPacketType@1@@Z ; CNetworkPacketHeaderMap::Set
; File E:\Metin2_server\SolWayneSF v6\ClientVS22\source\eterLib\NetPacketHeaderMap.h

; 13   : 				isDynamicSizePacket = bFlag;

  00326	c6 45 ec 00	 mov	 BYTE PTR $T87[ebp+4], 0
; File E:\Metin2_server\SolWayneSF v6\ClientVS22\source\UserInterface\PythonNetworkStream.cpp

; 78   : 			Set(HEADER_GC_ITEM_USE,				CNetworkPacketHeaderMap::TPacketType(sizeof(TPacketGCItemUse), STATIC_SIZE_PACKET));

  0032a	b9 00 00 00 00	 mov	 ecx, OFFSET ?s_packetHeaderMap@?1??CheckPacket@CPythonNetworkStream@@IAE_NPAE@Z@4VCMainPacketHeaderMap@@A
  0032f	ff 75 ec	 push	 DWORD PTR $T87[ebp+4]
  00332	6a 10		 push	 16			; 00000010H
  00334	6a 16		 push	 22			; 00000016H
  00336	e8 00 00 00 00	 call	 ?Set@CNetworkPacketHeaderMap@@QAEXHUSPacketType@1@@Z ; CNetworkPacketHeaderMap::Set
; File E:\Metin2_server\SolWayneSF v6\ClientVS22\source\eterLib\NetPacketHeaderMap.h

; 13   : 				isDynamicSizePacket = bFlag;

  0033b	c6 45 ec 00	 mov	 BYTE PTR $T86[ebp+4], 0
; File E:\Metin2_server\SolWayneSF v6\ClientVS22\source\UserInterface\PythonNetworkStream.cpp

; 79   : 			Set(HEADER_GC_ITEM_UPDATE,			CNetworkPacketHeaderMap::TPacketType(sizeof(TPacketGCItemUpdate), STATIC_SIZE_PACKET));

  0033f	b9 00 00 00 00	 mov	 ecx, OFFSET ?s_packetHeaderMap@?1??CheckPacket@CPythonNetworkStream@@IAE_NPAE@Z@4VCMainPacketHeaderMap@@A
  00344	ff 75 ec	 push	 DWORD PTR $T86[ebp+4]
  00347	6a 26		 push	 38			; 00000026H
  00349	6a 19		 push	 25			; 00000019H
  0034b	e8 00 00 00 00	 call	 ?Set@CNetworkPacketHeaderMap@@QAEXHUSPacketType@1@@Z ; CNetworkPacketHeaderMap::Set
; File E:\Metin2_server\SolWayneSF v6\ClientVS22\source\eterLib\NetPacketHeaderMap.h

; 13   : 				isDynamicSizePacket = bFlag;

  00350	c6 45 ec 00	 mov	 BYTE PTR $T85[ebp+4], 0
; File E:\Metin2_server\SolWayneSF v6\ClientVS22\source\UserInterface\PythonNetworkStream.cpp

; 81   : 			Set(HEADER_GC_ITEM_GROUND_ADD,		CNetworkPacketHeaderMap::TPacketType(sizeof(TPacketGCItemGroundAdd), STATIC_SIZE_PACKET));

  00354	b9 00 00 00 00	 mov	 ecx, OFFSET ?s_packetHeaderMap@?1??CheckPacket@CPythonNetworkStream@@IAE_NPAE@Z@4VCMainPacketHeaderMap@@A
  00359	ff 75 ec	 push	 DWORD PTR $T85[ebp+4]
  0035c	6a 15		 push	 21			; 00000015H
  0035e	6a 1a		 push	 26			; 0000001aH
  00360	e8 00 00 00 00	 call	 ?Set@CNetworkPacketHeaderMap@@QAEXHUSPacketType@1@@Z ; CNetworkPacketHeaderMap::Set
; File E:\Metin2_server\SolWayneSF v6\ClientVS22\source\eterLib\NetPacketHeaderMap.h

; 13   : 				isDynamicSizePacket = bFlag;

  00365	c6 45 ec 00	 mov	 BYTE PTR $T84[ebp+4], 0
; File E:\Metin2_server\SolWayneSF v6\ClientVS22\source\UserInterface\PythonNetworkStream.cpp

; 82   : 			Set(HEADER_GC_ITEM_GROUND_DEL,		CNetworkPacketHeaderMap::TPacketType(sizeof(TPacketGCItemGroundDel), STATIC_SIZE_PACKET));

  00369	b9 00 00 00 00	 mov	 ecx, OFFSET ?s_packetHeaderMap@?1??CheckPacket@CPythonNetworkStream@@IAE_NPAE@Z@4VCMainPacketHeaderMap@@A
  0036e	ff 75 ec	 push	 DWORD PTR $T84[ebp+4]
  00371	6a 05		 push	 5
  00373	6a 1b		 push	 27			; 0000001bH
  00375	e8 00 00 00 00	 call	 ?Set@CNetworkPacketHeaderMap@@QAEXHUSPacketType@1@@Z ; CNetworkPacketHeaderMap::Set
; File E:\Metin2_server\SolWayneSF v6\ClientVS22\source\eterLib\NetPacketHeaderMap.h

; 13   : 				isDynamicSizePacket = bFlag;

  0037a	c6 45 ec 00	 mov	 BYTE PTR $T83[ebp+4], 0
; File E:\Metin2_server\SolWayneSF v6\ClientVS22\source\UserInterface\PythonNetworkStream.cpp

; 83   : 			Set(HEADER_GC_ITEM_OWNERSHIP,		CNetworkPacketHeaderMap::TPacketType(sizeof(TPacketGCItemOwnership), STATIC_SIZE_PACKET));

  0037e	b9 00 00 00 00	 mov	 ecx, OFFSET ?s_packetHeaderMap@?1??CheckPacket@CPythonNetworkStream@@IAE_NPAE@Z@4VCMainPacketHeaderMap@@A
  00383	ff 75 ec	 push	 DWORD PTR $T83[ebp+4]
  00386	6a 1e		 push	 30			; 0000001eH
  00388	6a 1f		 push	 31			; 0000001fH
  0038a	e8 00 00 00 00	 call	 ?Set@CNetworkPacketHeaderMap@@QAEXHUSPacketType@1@@Z ; CNetworkPacketHeaderMap::Set
; File E:\Metin2_server\SolWayneSF v6\ClientVS22\source\eterLib\NetPacketHeaderMap.h

; 13   : 				isDynamicSizePacket = bFlag;

  0038f	c6 45 ec 00	 mov	 BYTE PTR $T82[ebp+4], 0
; File E:\Metin2_server\SolWayneSF v6\ClientVS22\source\UserInterface\PythonNetworkStream.cpp

; 85   : 			Set(HEADER_GC_QUICKSLOT_ADD,		CNetworkPacketHeaderMap::TPacketType(sizeof(TPacketGCQuickSlotAdd), STATIC_SIZE_PACKET));

  00393	ff 75 ec	 push	 DWORD PTR $T82[ebp+4]
  00396	6a 04		 push	 4
  00398	6a 1c		 push	 28			; 0000001cH
  0039a	b9 00 00 00 00	 mov	 ecx, OFFSET ?s_packetHeaderMap@?1??CheckPacket@CPythonNetworkStream@@IAE_NPAE@Z@4VCMainPacketHeaderMap@@A
  0039f	e8 00 00 00 00	 call	 ?Set@CNetworkPacketHeaderMap@@QAEXHUSPacketType@1@@Z ; CNetworkPacketHeaderMap::Set
; File E:\Metin2_server\SolWayneSF v6\ClientVS22\source\eterLib\NetPacketHeaderMap.h

; 13   : 				isDynamicSizePacket = bFlag;

  003a4	c6 45 ec 00	 mov	 BYTE PTR $T81[ebp+4], 0
; File E:\Metin2_server\SolWayneSF v6\ClientVS22\source\UserInterface\PythonNetworkStream.cpp

; 86   : 			Set(HEADER_GC_QUICKSLOT_DEL,		CNetworkPacketHeaderMap::TPacketType(sizeof(TPacketGCQuickSlotDel), STATIC_SIZE_PACKET));

  003a8	b9 00 00 00 00	 mov	 ecx, OFFSET ?s_packetHeaderMap@?1??CheckPacket@CPythonNetworkStream@@IAE_NPAE@Z@4VCMainPacketHeaderMap@@A
  003ad	ff 75 ec	 push	 DWORD PTR $T81[ebp+4]
  003b0	6a 02		 push	 2
  003b2	6a 1d		 push	 29			; 0000001dH
  003b4	e8 00 00 00 00	 call	 ?Set@CNetworkPacketHeaderMap@@QAEXHUSPacketType@1@@Z ; CNetworkPacketHeaderMap::Set
; File E:\Metin2_server\SolWayneSF v6\ClientVS22\source\eterLib\NetPacketHeaderMap.h

; 13   : 				isDynamicSizePacket = bFlag;

  003b9	c6 45 ec 00	 mov	 BYTE PTR $T80[ebp+4], 0
; File E:\Metin2_server\SolWayneSF v6\ClientVS22\source\UserInterface\PythonNetworkStream.cpp

; 87   : 			Set(HEADER_GC_QUICKSLOT_SWAP,		CNetworkPacketHeaderMap::TPacketType(sizeof(TPacketGCQuickSlotSwap), STATIC_SIZE_PACKET));

  003bd	b9 00 00 00 00	 mov	 ecx, OFFSET ?s_packetHeaderMap@?1??CheckPacket@CPythonNetworkStream@@IAE_NPAE@Z@4VCMainPacketHeaderMap@@A
  003c2	ff 75 ec	 push	 DWORD PTR $T80[ebp+4]
  003c5	6a 03		 push	 3
  003c7	6a 1e		 push	 30			; 0000001eH
  003c9	e8 00 00 00 00	 call	 ?Set@CNetworkPacketHeaderMap@@QAEXHUSPacketType@1@@Z ; CNetworkPacketHeaderMap::Set
; File E:\Metin2_server\SolWayneSF v6\ClientVS22\source\eterLib\NetPacketHeaderMap.h

; 13   : 				isDynamicSizePacket = bFlag;

  003ce	c6 45 ec 00	 mov	 BYTE PTR $T79[ebp+4], 0
; File E:\Metin2_server\SolWayneSF v6\ClientVS22\source\UserInterface\PythonNetworkStream.cpp

; 89   : 			Set(HEADER_GC_WHISPER,				CNetworkPacketHeaderMap::TPacketType(sizeof(TPacketGCWhisper), STATIC_SIZE_PACKET));

  003d2	b9 00 00 00 00	 mov	 ecx, OFFSET ?s_packetHeaderMap@?1??CheckPacket@CPythonNetworkStream@@IAE_NPAE@Z@4VCMainPacketHeaderMap@@A
  003d7	ff 75 ec	 push	 DWORD PTR $T79[ebp+4]
  003da	6a 1d		 push	 29			; 0000001dH
  003dc	6a 22		 push	 34			; 00000022H
  003de	e8 00 00 00 00	 call	 ?Set@CNetworkPacketHeaderMap@@QAEXHUSPacketType@1@@Z ; CNetworkPacketHeaderMap::Set
; File E:\Metin2_server\SolWayneSF v6\ClientVS22\source\eterLib\NetPacketHeaderMap.h

; 13   : 				isDynamicSizePacket = bFlag;

  003e3	c6 45 ec 00	 mov	 BYTE PTR $T78[ebp+4], 0
; File E:\Metin2_server\SolWayneSF v6\ClientVS22\source\UserInterface\PythonNetworkStream.cpp

; 91   : 			Set(HEADER_GC_CHARACTER_POSITION,	CNetworkPacketHeaderMap::TPacketType(sizeof(TPacketGCPosition), STATIC_SIZE_PACKET));

  003e7	b9 00 00 00 00	 mov	 ecx, OFFSET ?s_packetHeaderMap@?1??CheckPacket@CPythonNetworkStream@@IAE_NPAE@Z@4VCMainPacketHeaderMap@@A
  003ec	ff 75 ec	 push	 DWORD PTR $T78[ebp+4]
  003ef	6a 06		 push	 6
  003f1	6a 2b		 push	 43			; 0000002bH
  003f3	e8 00 00 00 00	 call	 ?Set@CNetworkPacketHeaderMap@@QAEXHUSPacketType@1@@Z ; CNetworkPacketHeaderMap::Set
; File E:\Metin2_server\SolWayneSF v6\ClientVS22\source\eterLib\NetPacketHeaderMap.h

; 13   : 				isDynamicSizePacket = bFlag;

  003f8	c6 45 ec 00	 mov	 BYTE PTR $T77[ebp+4], 0
; File E:\Metin2_server\SolWayneSF v6\ClientVS22\source\UserInterface\PythonNetworkStream.cpp

; 92   : 			Set(HEADER_GC_MOTION,				CNetworkPacketHeaderMap::TPacketType(sizeof(TPacketGCMotion), STATIC_SIZE_PACKET));

  003fc	b9 00 00 00 00	 mov	 ecx, OFFSET ?s_packetHeaderMap@?1??CheckPacket@CPythonNetworkStream@@IAE_NPAE@Z@4VCMainPacketHeaderMap@@A
  00401	ff 75 ec	 push	 DWORD PTR $T77[ebp+4]
  00404	6a 0b		 push	 11			; 0000000bH
  00406	6a 24		 push	 36			; 00000024H
  00408	e8 00 00 00 00	 call	 ?Set@CNetworkPacketHeaderMap@@QAEXHUSPacketType@1@@Z ; CNetworkPacketHeaderMap::Set
; File E:\Metin2_server\SolWayneSF v6\ClientVS22\source\eterLib\NetPacketHeaderMap.h

; 13   : 				isDynamicSizePacket = bFlag;

  0040d	c6 45 ec 01	 mov	 BYTE PTR $T76[ebp+4], 1
; File E:\Metin2_server\SolWayneSF v6\ClientVS22\source\UserInterface\PythonNetworkStream.cpp

; 94   : 			Set(HEADER_GC_SHOP,			CNetworkPacketHeaderMap::TPacketType(sizeof(TPacketGCShop), DYNAMIC_SIZE_PACKET));

  00411	b9 00 00 00 00	 mov	 ecx, OFFSET ?s_packetHeaderMap@?1??CheckPacket@CPythonNetworkStream@@IAE_NPAE@Z@4VCMainPacketHeaderMap@@A
  00416	ff 75 ec	 push	 DWORD PTR $T76[ebp+4]
  00419	6a 04		 push	 4
  0041b	6a 26		 push	 38			; 00000026H
  0041d	e8 00 00 00 00	 call	 ?Set@CNetworkPacketHeaderMap@@QAEXHUSPacketType@1@@Z ; CNetworkPacketHeaderMap::Set
; File E:\Metin2_server\SolWayneSF v6\ClientVS22\source\eterLib\NetPacketHeaderMap.h

; 13   : 				isDynamicSizePacket = bFlag;

  00422	c6 45 ec 00	 mov	 BYTE PTR $T75[ebp+4], 0
; File E:\Metin2_server\SolWayneSF v6\ClientVS22\source\UserInterface\PythonNetworkStream.cpp

; 95   : 			Set(HEADER_GC_SHOP_SIGN,	CNetworkPacketHeaderMap::TPacketType(sizeof(TPacketGCShopSign), STATIC_SIZE_PACKET));

  00426	b9 00 00 00 00	 mov	 ecx, OFFSET ?s_packetHeaderMap@?1??CheckPacket@CPythonNetworkStream@@IAE_NPAE@Z@4VCMainPacketHeaderMap@@A
  0042b	ff 75 ec	 push	 DWORD PTR $T75[ebp+4]
  0042e	6a 26		 push	 38			; 00000026H
  00430	6a 27		 push	 39			; 00000027H
  00432	e8 00 00 00 00	 call	 ?Set@CNetworkPacketHeaderMap@@QAEXHUSPacketType@1@@Z ; CNetworkPacketHeaderMap::Set
; File E:\Metin2_server\SolWayneSF v6\ClientVS22\source\eterLib\NetPacketHeaderMap.h

; 13   : 				isDynamicSizePacket = bFlag;

  00437	c6 45 ec 00	 mov	 BYTE PTR $T74[ebp+4], 0
; File E:\Metin2_server\SolWayneSF v6\ClientVS22\source\UserInterface\PythonNetworkStream.cpp

; 96   : 			Set(HEADER_GC_EXCHANGE,		CNetworkPacketHeaderMap::TPacketType(sizeof(TPacketGCExchange), STATIC_SIZE_PACKET));

  0043b	b9 00 00 00 00	 mov	 ecx, OFFSET ?s_packetHeaderMap@?1??CheckPacket@CPythonNetworkStream@@IAE_NPAE@Z@4VCMainPacketHeaderMap@@A
  00440	ff 75 ec	 push	 DWORD PTR $T74[ebp+4]
  00443	6a 33		 push	 51			; 00000033H
  00445	6a 2a		 push	 42			; 0000002aH
  00447	e8 00 00 00 00	 call	 ?Set@CNetworkPacketHeaderMap@@QAEXHUSPacketType@1@@Z ; CNetworkPacketHeaderMap::Set
; File E:\Metin2_server\SolWayneSF v6\ClientVS22\source\eterLib\NetPacketHeaderMap.h

; 13   : 				isDynamicSizePacket = bFlag;

  0044c	c6 45 ec 00	 mov	 BYTE PTR $T73[ebp+4], 0
; File E:\Metin2_server\SolWayneSF v6\ClientVS22\source\UserInterface\PythonNetworkStream.cpp

; 98   : 			Set(HEADER_GC_PING,			CNetworkPacketHeaderMap::TPacketType(sizeof(TPacketGCPing), STATIC_SIZE_PACKET));

  00450	b9 00 00 00 00	 mov	 ecx, OFFSET ?s_packetHeaderMap@?1??CheckPacket@CPythonNetworkStream@@IAE_NPAE@Z@4VCMainPacketHeaderMap@@A
  00455	ff 75 ec	 push	 DWORD PTR $T73[ebp+4]
  00458	6a 01		 push	 1
  0045a	6a 2c		 push	 44			; 0000002cH
  0045c	e8 00 00 00 00	 call	 ?Set@CNetworkPacketHeaderMap@@QAEXHUSPacketType@1@@Z ; CNetworkPacketHeaderMap::Set
; File E:\Metin2_server\SolWayneSF v6\ClientVS22\source\eterLib\NetPacketHeaderMap.h

; 13   : 				isDynamicSizePacket = bFlag;

  00461	c6 45 ec 01	 mov	 BYTE PTR $T72[ebp+4], 1
; File E:\Metin2_server\SolWayneSF v6\ClientVS22\source\UserInterface\PythonNetworkStream.cpp

; 100  : 			Set(HEADER_GC_SCRIPT,			CNetworkPacketHeaderMap::TPacketType(sizeof(TPacketGCScript), DYNAMIC_SIZE_PACKET));

  00465	b9 00 00 00 00	 mov	 ecx, OFFSET ?s_packetHeaderMap@?1??CheckPacket@CPythonNetworkStream@@IAE_NPAE@Z@4VCMainPacketHeaderMap@@A
  0046a	ff 75 ec	 push	 DWORD PTR $T72[ebp+4]
  0046d	6a 06		 push	 6
  0046f	6a 2d		 push	 45			; 0000002dH
  00471	e8 00 00 00 00	 call	 ?Set@CNetworkPacketHeaderMap@@QAEXHUSPacketType@1@@Z ; CNetworkPacketHeaderMap::Set
; File E:\Metin2_server\SolWayneSF v6\ClientVS22\source\eterLib\NetPacketHeaderMap.h

; 13   : 				isDynamicSizePacket = bFlag;

  00476	c6 45 ec 00	 mov	 BYTE PTR $T71[ebp+4], 0
; File E:\Metin2_server\SolWayneSF v6\ClientVS22\source\UserInterface\PythonNetworkStream.cpp

; 101  : 			Set(HEADER_GC_QUEST_CONFIRM,	CNetworkPacketHeaderMap::TPacketType(sizeof(TPacketGCQuestConfirm), STATIC_SIZE_PACKET));

  0047a	b9 00 00 00 00	 mov	 ecx, OFFSET ?s_packetHeaderMap@?1??CheckPacket@CPythonNetworkStream@@IAE_NPAE@Z@4VCMainPacketHeaderMap@@A
  0047f	ff 75 ec	 push	 DWORD PTR $T71[ebp+4]
  00482	6a 4a		 push	 74			; 0000004aH
  00484	6a 2e		 push	 46			; 0000002eH
  00486	e8 00 00 00 00	 call	 ?Set@CNetworkPacketHeaderMap@@QAEXHUSPacketType@1@@Z ; CNetworkPacketHeaderMap::Set
; File E:\Metin2_server\SolWayneSF v6\ClientVS22\source\eterLib\NetPacketHeaderMap.h

; 13   : 				isDynamicSizePacket = bFlag;

  0048b	c6 45 ec 00	 mov	 BYTE PTR $T70[ebp+4], 0
; File E:\Metin2_server\SolWayneSF v6\ClientVS22\source\UserInterface\PythonNetworkStream.cpp

; 103  : 			Set(HEADER_GC_TARGET,		CNetworkPacketHeaderMap::TPacketType(sizeof(TPacketGCTarget), STATIC_SIZE_PACKET));

  0048f	b9 00 00 00 00	 mov	 ecx, OFFSET ?s_packetHeaderMap@?1??CheckPacket@CPythonNetworkStream@@IAE_NPAE@Z@4VCMainPacketHeaderMap@@A
  00494	ff 75 ec	 push	 DWORD PTR $T70[ebp+4]
  00497	6a 06		 push	 6
  00499	6a 3f		 push	 63			; 0000003fH
  0049b	e8 00 00 00 00	 call	 ?Set@CNetworkPacketHeaderMap@@QAEXHUSPacketType@1@@Z ; CNetworkPacketHeaderMap::Set
; File E:\Metin2_server\SolWayneSF v6\ClientVS22\source\eterLib\NetPacketHeaderMap.h

; 13   : 				isDynamicSizePacket = bFlag;

  004a0	c6 45 ec 00	 mov	 BYTE PTR $T69[ebp+4], 0
; File E:\Metin2_server\SolWayneSF v6\ClientVS22\source\UserInterface\PythonNetworkStream.cpp

; 105  : 			Set(HEADER_GC_TARGET_INFO,	CNetworkPacketHeaderMap::TPacketType(sizeof(TPacketGCTargetInfo), STATIC_SIZE_PACKET));

  004a4	b9 00 00 00 00	 mov	 ecx, OFFSET ?s_packetHeaderMap@?1??CheckPacket@CPythonNetworkStream@@IAE_NPAE@Z@4VCMainPacketHeaderMap@@A
  004a9	ff 75 ec	 push	 DWORD PTR $T69[ebp+4]
  004ac	6a 0e		 push	 14			; 0000000eH
  004ae	6a 3a		 push	 58			; 0000003aH
  004b0	e8 00 00 00 00	 call	 ?Set@CNetworkPacketHeaderMap@@QAEXHUSPacketType@1@@Z ; CNetworkPacketHeaderMap::Set
; File E:\Metin2_server\SolWayneSF v6\ClientVS22\source\eterLib\NetPacketHeaderMap.h

; 13   : 				isDynamicSizePacket = bFlag;

  004b5	c6 45 ec 00	 mov	 BYTE PTR $T68[ebp+4], 0
; File E:\Metin2_server\SolWayneSF v6\ClientVS22\source\UserInterface\PythonNetworkStream.cpp

; 107  : 			Set(HEADER_GC_MOUNT,		CNetworkPacketHeaderMap::TPacketType(sizeof(TPacketGCMount), STATIC_SIZE_PACKET));

  004b9	b9 00 00 00 00	 mov	 ecx, OFFSET ?s_packetHeaderMap@?1??CheckPacket@CPythonNetworkStream@@IAE_NPAE@Z@4VCMainPacketHeaderMap@@A
  004be	ff 75 ec	 push	 DWORD PTR $T68[ebp+4]
  004c1	6a 12		 push	 18			; 00000012H
  004c3	6a 3d		 push	 61			; 0000003dH
  004c5	e8 00 00 00 00	 call	 ?Set@CNetworkPacketHeaderMap@@QAEXHUSPacketType@1@@Z ; CNetworkPacketHeaderMap::Set
; File E:\Metin2_server\SolWayneSF v6\ClientVS22\source\eterLib\NetPacketHeaderMap.h

; 13   : 				isDynamicSizePacket = bFlag;

  004ca	c6 45 ec 00	 mov	 BYTE PTR $T67[ebp+4], 0
; File E:\Metin2_server\SolWayneSF v6\ClientVS22\source\UserInterface\PythonNetworkStream.cpp

; 109  : 			Set(HEADER_GC_CHANGE_SPEED,	CNetworkPacketHeaderMap::TPacketType(sizeof(TPacketGCChangeSpeed), STATIC_SIZE_PACKET));

  004ce	b9 00 00 00 00	 mov	 ecx, OFFSET ?s_packetHeaderMap@?1??CheckPacket@CPythonNetworkStream@@IAE_NPAE@Z@4VCMainPacketHeaderMap@@A
  004d3	ff 75 ec	 push	 DWORD PTR $T67[ebp+4]
  004d6	6a 07		 push	 7
  004d8	6a 12		 push	 18			; 00000012H
  004da	e8 00 00 00 00	 call	 ?Set@CNetworkPacketHeaderMap@@QAEXHUSPacketType@1@@Z ; CNetworkPacketHeaderMap::Set
; File E:\Metin2_server\SolWayneSF v6\ClientVS22\source\eterLib\NetPacketHeaderMap.h

; 13   : 				isDynamicSizePacket = bFlag;

  004df	c6 45 ec 00	 mov	 BYTE PTR $T66[ebp+4], 0
; File E:\Metin2_server\SolWayneSF v6\ClientVS22\source\UserInterface\PythonNetworkStream.cpp

; 111  : 			Set(HEADER_GC_HANDSHAKE,	CNetworkPacketHeaderMap::TPacketType(sizeof(TPacketGCHandshake), STATIC_SIZE_PACKET));

  004e3	b9 00 00 00 00	 mov	 ecx, OFFSET ?s_packetHeaderMap@?1??CheckPacket@CPythonNetworkStream@@IAE_NPAE@Z@4VCMainPacketHeaderMap@@A
  004e8	ff 75 ec	 push	 DWORD PTR $T66[ebp+4]
  004eb	6a 0d		 push	 13			; 0000000dH
  004ed	68 ff 00 00 00	 push	 255			; 000000ffH
  004f2	e8 00 00 00 00	 call	 ?Set@CNetworkPacketHeaderMap@@QAEXHUSPacketType@1@@Z ; CNetworkPacketHeaderMap::Set
; File E:\Metin2_server\SolWayneSF v6\ClientVS22\source\eterLib\NetPacketHeaderMap.h

; 13   : 				isDynamicSizePacket = bFlag;

  004f7	c6 45 ec 00	 mov	 BYTE PTR $T65[ebp+4], 0
; File E:\Metin2_server\SolWayneSF v6\ClientVS22\source\UserInterface\PythonNetworkStream.cpp

; 112  : 			Set(HEADER_GC_HANDSHAKE_OK,	CNetworkPacketHeaderMap::TPacketType(sizeof(TPacketGCBlank), STATIC_SIZE_PACKET));

  004fb	b9 00 00 00 00	 mov	 ecx, OFFSET ?s_packetHeaderMap@?1??CheckPacket@CPythonNetworkStream@@IAE_NPAE@Z@4VCMainPacketHeaderMap@@A
  00500	ff 75 ec	 push	 DWORD PTR $T65[ebp+4]
  00503	6a 01		 push	 1
  00505	68 fc 00 00 00	 push	 252			; 000000fcH
  0050a	e8 00 00 00 00	 call	 ?Set@CNetworkPacketHeaderMap@@QAEXHUSPacketType@1@@Z ; CNetworkPacketHeaderMap::Set
; File E:\Metin2_server\SolWayneSF v6\ClientVS22\source\eterLib\NetPacketHeaderMap.h

; 13   : 				isDynamicSizePacket = bFlag;

  0050f	c6 45 ec 00	 mov	 BYTE PTR $T64[ebp+4], 0
; File E:\Metin2_server\SolWayneSF v6\ClientVS22\source\UserInterface\PythonNetworkStream.cpp

; 113  : 			Set(HEADER_GC_BINDUDP,		CNetworkPacketHeaderMap::TPacketType(sizeof(TPacketGCBindUDP), STATIC_SIZE_PACKET));

  00513	b9 00 00 00 00	 mov	 ecx, OFFSET ?s_packetHeaderMap@?1??CheckPacket@CPythonNetworkStream@@IAE_NPAE@Z@4VCMainPacketHeaderMap@@A
  00518	ff 75 ec	 push	 DWORD PTR $T64[ebp+4]
  0051b	6a 07		 push	 7
  0051d	68 fe 00 00 00	 push	 254			; 000000feH
  00522	e8 00 00 00 00	 call	 ?Set@CNetworkPacketHeaderMap@@QAEXHUSPacketType@1@@Z ; CNetworkPacketHeaderMap::Set
; File E:\Metin2_server\SolWayneSF v6\ClientVS22\source\eterLib\NetPacketHeaderMap.h

; 13   : 				isDynamicSizePacket = bFlag;

  00527	c6 45 ec 00	 mov	 BYTE PTR $T63[ebp+4], 0
; File E:\Metin2_server\SolWayneSF v6\ClientVS22\source\UserInterface\PythonNetworkStream.cpp

; 114  : 			Set(HEADER_GC_OWNERSHIP,	CNetworkPacketHeaderMap::TPacketType(sizeof(TPacketGCOwnership), STATIC_SIZE_PACKET));

  0052b	b9 00 00 00 00	 mov	 ecx, OFFSET ?s_packetHeaderMap@?1??CheckPacket@CPythonNetworkStream@@IAE_NPAE@Z@4VCMainPacketHeaderMap@@A
  00530	ff 75 ec	 push	 DWORD PTR $T63[ebp+4]
  00533	6a 09		 push	 9
  00535	6a 3e		 push	 62			; 0000003eH
  00537	e8 00 00 00 00	 call	 ?Set@CNetworkPacketHeaderMap@@QAEXHUSPacketType@1@@Z ; CNetworkPacketHeaderMap::Set
; File E:\Metin2_server\SolWayneSF v6\ClientVS22\source\eterLib\NetPacketHeaderMap.h

; 13   : 				isDynamicSizePacket = bFlag;

  0053c	c6 45 ec 00	 mov	 BYTE PTR $T62[ebp+4], 0
; File E:\Metin2_server\SolWayneSF v6\ClientVS22\source\UserInterface\PythonNetworkStream.cpp

; 115  : 			Set(HEADER_GC_CREATE_FLY,	CNetworkPacketHeaderMap::TPacketType(sizeof(TPacketGCCreateFly), STATIC_SIZE_PACKET));

  00540	b9 00 00 00 00	 mov	 ecx, OFFSET ?s_packetHeaderMap@?1??CheckPacket@CPythonNetworkStream@@IAE_NPAE@Z@4VCMainPacketHeaderMap@@A
  00545	ff 75 ec	 push	 DWORD PTR $T62[ebp+4]
  00548	6a 0a		 push	 10			; 0000000aH
  0054a	6a 46		 push	 70			; 00000046H
  0054c	e8 00 00 00 00	 call	 ?Set@CNetworkPacketHeaderMap@@QAEXHUSPacketType@1@@Z ; CNetworkPacketHeaderMap::Set
; File E:\Metin2_server\SolWayneSF v6\ClientVS22\source\eterLib\NetPacketHeaderMap.h

; 13   : 				isDynamicSizePacket = bFlag;

  00551	c6 45 ec 00	 mov	 BYTE PTR $T61[ebp+4], 0
; File E:\Metin2_server\SolWayneSF v6\ClientVS22\source\UserInterface\PythonNetworkStream.cpp

; 117  : 			Set(HEADER_GC_KEY_AGREEMENT, CNetworkPacketHeaderMap::TPacketType(sizeof(TPacketKeyAgreement), STATIC_SIZE_PACKET));

  00555	b9 00 00 00 00	 mov	 ecx, OFFSET ?s_packetHeaderMap@?1??CheckPacket@CPythonNetworkStream@@IAE_NPAE@Z@4VCMainPacketHeaderMap@@A
  0055a	ff 75 ec	 push	 DWORD PTR $T61[ebp+4]
  0055d	68 05 01 00 00	 push	 261			; 00000105H
  00562	68 fb 00 00 00	 push	 251			; 000000fbH
  00567	e8 00 00 00 00	 call	 ?Set@CNetworkPacketHeaderMap@@QAEXHUSPacketType@1@@Z ; CNetworkPacketHeaderMap::Set
; File E:\Metin2_server\SolWayneSF v6\ClientVS22\source\eterLib\NetPacketHeaderMap.h

; 13   : 				isDynamicSizePacket = bFlag;

  0056c	c6 45 ec 00	 mov	 BYTE PTR $T60[ebp+4], 0
; File E:\Metin2_server\SolWayneSF v6\ClientVS22\source\UserInterface\PythonNetworkStream.cpp

; 118  : 			Set(HEADER_GC_KEY_AGREEMENT_COMPLETED, CNetworkPacketHeaderMap::TPacketType(sizeof(TPacketKeyAgreementCompleted), STATIC_SIZE_PACKET));

  00570	b9 00 00 00 00	 mov	 ecx, OFFSET ?s_packetHeaderMap@?1??CheckPacket@CPythonNetworkStream@@IAE_NPAE@Z@4VCMainPacketHeaderMap@@A
  00575	ff 75 ec	 push	 DWORD PTR $T60[ebp+4]
  00578	6a 04		 push	 4
  0057a	68 fa 00 00 00	 push	 250			; 000000faH
  0057f	e8 00 00 00 00	 call	 ?Set@CNetworkPacketHeaderMap@@QAEXHUSPacketType@1@@Z ; CNetworkPacketHeaderMap::Set
; File E:\Metin2_server\SolWayneSF v6\ClientVS22\source\eterLib\NetPacketHeaderMap.h

; 13   : 				isDynamicSizePacket = bFlag;

  00584	c6 45 ec 00	 mov	 BYTE PTR $T59[ebp+4], 0
; File E:\Metin2_server\SolWayneSF v6\ClientVS22\source\UserInterface\PythonNetworkStream.cpp

; 120  : 			Set(HEADER_GC_ADD_FLY_TARGETING, CNetworkPacketHeaderMap::TPacketType(sizeof(TPacketGCFlyTargeting), STATIC_SIZE_PACKET));

  00588	b9 00 00 00 00	 mov	 ecx, OFFSET ?s_packetHeaderMap@?1??CheckPacket@CPythonNetworkStream@@IAE_NPAE@Z@4VCMainPacketHeaderMap@@A
  0058d	ff 75 ec	 push	 DWORD PTR $T59[ebp+4]
  00590	6a 11		 push	 17			; 00000011H
  00592	6a 45		 push	 69			; 00000045H
  00594	e8 00 00 00 00	 call	 ?Set@CNetworkPacketHeaderMap@@QAEXHUSPacketType@1@@Z ; CNetworkPacketHeaderMap::Set
; File E:\Metin2_server\SolWayneSF v6\ClientVS22\source\eterLib\NetPacketHeaderMap.h

; 13   : 				isDynamicSizePacket = bFlag;

  00599	c6 45 ec 00	 mov	 BYTE PTR $T58[ebp+4], 0
; File E:\Metin2_server\SolWayneSF v6\ClientVS22\source\UserInterface\PythonNetworkStream.cpp

; 121  : 			Set(HEADER_GC_FLY_TARGETING, CNetworkPacketHeaderMap::TPacketType(sizeof(TPacketGCFlyTargeting), STATIC_SIZE_PACKET));

  0059d	b9 00 00 00 00	 mov	 ecx, OFFSET ?s_packetHeaderMap@?1??CheckPacket@CPythonNetworkStream@@IAE_NPAE@Z@4VCMainPacketHeaderMap@@A
  005a2	ff 75 ec	 push	 DWORD PTR $T58[ebp+4]
  005a5	6a 11		 push	 17			; 00000011H
  005a7	6a 47		 push	 71			; 00000047H
  005a9	e8 00 00 00 00	 call	 ?Set@CNetworkPacketHeaderMap@@QAEXHUSPacketType@1@@Z ; CNetworkPacketHeaderMap::Set
; File E:\Metin2_server\SolWayneSF v6\ClientVS22\source\eterLib\NetPacketHeaderMap.h

; 13   : 				isDynamicSizePacket = bFlag;

  005ae	c6 45 ec 00	 mov	 BYTE PTR $T57[ebp+4], 0
; File E:\Metin2_server\SolWayneSF v6\ClientVS22\source\UserInterface\PythonNetworkStream.cpp

; 123  : 			Set(HEADER_GC_PHASE,		CNetworkPacketHeaderMap::TPacketType(sizeof(TPacketGCPhase), STATIC_SIZE_PACKET));

  005b2	b9 00 00 00 00	 mov	 ecx, OFFSET ?s_packetHeaderMap@?1??CheckPacket@CPythonNetworkStream@@IAE_NPAE@Z@4VCMainPacketHeaderMap@@A
  005b7	ff 75 ec	 push	 DWORD PTR $T57[ebp+4]
  005ba	6a 02		 push	 2
  005bc	68 fd 00 00 00	 push	 253			; 000000fdH
  005c1	e8 00 00 00 00	 call	 ?Set@CNetworkPacketHeaderMap@@QAEXHUSPacketType@1@@Z ; CNetworkPacketHeaderMap::Set
; File E:\Metin2_server\SolWayneSF v6\ClientVS22\source\eterLib\NetPacketHeaderMap.h

; 13   : 				isDynamicSizePacket = bFlag;

  005c6	c6 45 ec 00	 mov	 BYTE PTR $T56[ebp+4], 0
; File E:\Metin2_server\SolWayneSF v6\ClientVS22\source\UserInterface\PythonNetworkStream.cpp

; 124  : 			Set(HEADER_GC_SKILL_LEVEL,	CNetworkPacketHeaderMap::TPacketType(sizeof(TPacketGCSkillLevel), STATIC_SIZE_PACKET));

  005ca	b9 00 00 00 00	 mov	 ecx, OFFSET ?s_packetHeaderMap@?1??CheckPacket@CPythonNetworkStream@@IAE_NPAE@Z@4VCMainPacketHeaderMap@@A
  005cf	ff 75 ec	 push	 DWORD PTR $T56[ebp+4]
  005d2	68 00 01 00 00	 push	 256			; 00000100H
  005d7	6a 48		 push	 72			; 00000048H
  005d9	e8 00 00 00 00	 call	 ?Set@CNetworkPacketHeaderMap@@QAEXHUSPacketType@1@@Z ; CNetworkPacketHeaderMap::Set
; File E:\Metin2_server\SolWayneSF v6\ClientVS22\source\eterLib\NetPacketHeaderMap.h

; 13   : 				isDynamicSizePacket = bFlag;

  005de	c6 45 ec 00	 mov	 BYTE PTR $T55[ebp+4], 0
; File E:\Metin2_server\SolWayneSF v6\ClientVS22\source\UserInterface\PythonNetworkStream.cpp

; 125  : 			Set(HEADER_GC_SKILL_LEVEL_NEW,	CNetworkPacketHeaderMap::TPacketType(sizeof(TPacketGCSkillLevelNew), STATIC_SIZE_PACKET));

  005e2	ff 75 ec	 push	 DWORD PTR $T55[ebp+4]
  005e5	68 fb 05 00 00	 push	 1531			; 000005fbH
  005ea	6a 4c		 push	 76			; 0000004cH
  005ec	b9 00 00 00 00	 mov	 ecx, OFFSET ?s_packetHeaderMap@?1??CheckPacket@CPythonNetworkStream@@IAE_NPAE@Z@4VCMainPacketHeaderMap@@A
  005f1	e8 00 00 00 00	 call	 ?Set@CNetworkPacketHeaderMap@@QAEXHUSPacketType@1@@Z ; CNetworkPacketHeaderMap::Set
; File E:\Metin2_server\SolWayneSF v6\ClientVS22\source\eterLib\NetPacketHeaderMap.h

; 13   : 				isDynamicSizePacket = bFlag;

  005f6	c6 45 ec 01	 mov	 BYTE PTR $T54[ebp+4], 1
; File E:\Metin2_server\SolWayneSF v6\ClientVS22\source\UserInterface\PythonNetworkStream.cpp

; 127  : 			Set(HEADER_GC_MESSENGER,	CNetworkPacketHeaderMap::TPacketType(sizeof(TPacketGCMessenger), DYNAMIC_SIZE_PACKET));

  005fa	b9 00 00 00 00	 mov	 ecx, OFFSET ?s_packetHeaderMap@?1??CheckPacket@CPythonNetworkStream@@IAE_NPAE@Z@4VCMainPacketHeaderMap@@A
  005ff	ff 75 ec	 push	 DWORD PTR $T54[ebp+4]
  00602	6a 04		 push	 4
  00604	6a 4a		 push	 74			; 0000004aH
  00606	e8 00 00 00 00	 call	 ?Set@CNetworkPacketHeaderMap@@QAEXHUSPacketType@1@@Z ; CNetworkPacketHeaderMap::Set
; File E:\Metin2_server\SolWayneSF v6\ClientVS22\source\eterLib\NetPacketHeaderMap.h

; 13   : 				isDynamicSizePacket = bFlag;

  0060b	c6 45 ec 01	 mov	 BYTE PTR $T53[ebp+4], 1
; File E:\Metin2_server\SolWayneSF v6\ClientVS22\source\UserInterface\PythonNetworkStream.cpp

; 128  : 			Set(HEADER_GC_GUILD,		CNetworkPacketHeaderMap::TPacketType(sizeof(TPacketGCGuild), DYNAMIC_SIZE_PACKET));

  0060f	b9 00 00 00 00	 mov	 ecx, OFFSET ?s_packetHeaderMap@?1??CheckPacket@CPythonNetworkStream@@IAE_NPAE@Z@4VCMainPacketHeaderMap@@A
  00614	ff 75 ec	 push	 DWORD PTR $T53[ebp+4]
  00617	6a 04		 push	 4
  00619	6a 4b		 push	 75			; 0000004bH
  0061b	e8 00 00 00 00	 call	 ?Set@CNetworkPacketHeaderMap@@QAEXHUSPacketType@1@@Z ; CNetworkPacketHeaderMap::Set
; File E:\Metin2_server\SolWayneSF v6\ClientVS22\source\eterLib\NetPacketHeaderMap.h

; 13   : 				isDynamicSizePacket = bFlag;

  00620	c6 45 ec 00	 mov	 BYTE PTR $T52[ebp+4], 0
; File E:\Metin2_server\SolWayneSF v6\ClientVS22\source\UserInterface\PythonNetworkStream.cpp

; 130  : 			Set(HEADER_GC_PARTY_INVITE,	CNetworkPacketHeaderMap::TPacketType(sizeof(TPacketGCPartyInvite), STATIC_SIZE_PACKET));

  00624	b9 00 00 00 00	 mov	 ecx, OFFSET ?s_packetHeaderMap@?1??CheckPacket@CPythonNetworkStream@@IAE_NPAE@Z@4VCMainPacketHeaderMap@@A
  00629	ff 75 ec	 push	 DWORD PTR $T52[ebp+4]
  0062c	6a 05		 push	 5
  0062e	6a 4d		 push	 77			; 0000004dH
  00630	e8 00 00 00 00	 call	 ?Set@CNetworkPacketHeaderMap@@QAEXHUSPacketType@1@@Z ; CNetworkPacketHeaderMap::Set
; File E:\Metin2_server\SolWayneSF v6\ClientVS22\source\eterLib\NetPacketHeaderMap.h

; 13   : 				isDynamicSizePacket = bFlag;

  00635	c6 45 ec 00	 mov	 BYTE PTR $T51[ebp+4], 0
; File E:\Metin2_server\SolWayneSF v6\ClientVS22\source\UserInterface\PythonNetworkStream.cpp

; 131  : 			Set(HEADER_GC_PARTY_ADD,	CNetworkPacketHeaderMap::TPacketType(sizeof(TPacketGCPartyAdd), STATIC_SIZE_PACKET));

  00639	b9 00 00 00 00	 mov	 ecx, OFFSET ?s_packetHeaderMap@?1??CheckPacket@CPythonNetworkStream@@IAE_NPAE@Z@4VCMainPacketHeaderMap@@A
  0063e	ff 75 ec	 push	 DWORD PTR $T51[ebp+4]
  00641	6a 1e		 push	 30			; 0000001eH
  00643	6a 4e		 push	 78			; 0000004eH
  00645	e8 00 00 00 00	 call	 ?Set@CNetworkPacketHeaderMap@@QAEXHUSPacketType@1@@Z ; CNetworkPacketHeaderMap::Set
; File E:\Metin2_server\SolWayneSF v6\ClientVS22\source\eterLib\NetPacketHeaderMap.h

; 13   : 				isDynamicSizePacket = bFlag;

  0064a	c6 45 ec 00	 mov	 BYTE PTR $T50[ebp+4], 0
; File E:\Metin2_server\SolWayneSF v6\ClientVS22\source\UserInterface\PythonNetworkStream.cpp

; 132  : 			Set(HEADER_GC_PARTY_UPDATE,	CNetworkPacketHeaderMap::TPacketType(sizeof(TPacketGCPartyUpdate), STATIC_SIZE_PACKET));

  0064e	b9 00 00 00 00	 mov	 ecx, OFFSET ?s_packetHeaderMap@?1??CheckPacket@CPythonNetworkStream@@IAE_NPAE@Z@4VCMainPacketHeaderMap@@A
  00653	ff 75 ec	 push	 DWORD PTR $T50[ebp+4]
  00656	6a 15		 push	 21			; 00000015H
  00658	6a 4f		 push	 79			; 0000004fH
  0065a	e8 00 00 00 00	 call	 ?Set@CNetworkPacketHeaderMap@@QAEXHUSPacketType@1@@Z ; CNetworkPacketHeaderMap::Set
; File E:\Metin2_server\SolWayneSF v6\ClientVS22\source\eterLib\NetPacketHeaderMap.h

; 13   : 				isDynamicSizePacket = bFlag;

  0065f	c6 45 ec 00	 mov	 BYTE PTR $T49[ebp+4], 0
; File E:\Metin2_server\SolWayneSF v6\ClientVS22\source\UserInterface\PythonNetworkStream.cpp

; 133  : 			Set(HEADER_GC_PARTY_REMOVE,	CNetworkPacketHeaderMap::TPacketType(sizeof(TPacketGCPartyRemove), STATIC_SIZE_PACKET));

  00663	b9 00 00 00 00	 mov	 ecx, OFFSET ?s_packetHeaderMap@?1??CheckPacket@CPythonNetworkStream@@IAE_NPAE@Z@4VCMainPacketHeaderMap@@A
  00668	ff 75 ec	 push	 DWORD PTR $T49[ebp+4]
  0066b	6a 05		 push	 5
  0066d	6a 50		 push	 80			; 00000050H
  0066f	e8 00 00 00 00	 call	 ?Set@CNetworkPacketHeaderMap@@QAEXHUSPacketType@1@@Z ; CNetworkPacketHeaderMap::Set
; File E:\Metin2_server\SolWayneSF v6\ClientVS22\source\eterLib\NetPacketHeaderMap.h

; 13   : 				isDynamicSizePacket = bFlag;

  00674	c6 45 ec 00	 mov	 BYTE PTR $T48[ebp+4], 0
; File E:\Metin2_server\SolWayneSF v6\ClientVS22\source\UserInterface\PythonNetworkStream.cpp

; 134  : 			Set(HEADER_GC_PARTY_LINK,	CNetworkPacketHeaderMap::TPacketType(sizeof(TPacketGCPartyLink), STATIC_SIZE_PACKET));

  00678	b9 00 00 00 00	 mov	 ecx, OFFSET ?s_packetHeaderMap@?1??CheckPacket@CPythonNetworkStream@@IAE_NPAE@Z@4VCMainPacketHeaderMap@@A
  0067d	ff 75 ec	 push	 DWORD PTR $T48[ebp+4]
  00680	6a 09		 push	 9
  00682	6a 5b		 push	 91			; 0000005bH
  00684	e8 00 00 00 00	 call	 ?Set@CNetworkPacketHeaderMap@@QAEXHUSPacketType@1@@Z ; CNetworkPacketHeaderMap::Set
; File E:\Metin2_server\SolWayneSF v6\ClientVS22\source\eterLib\NetPacketHeaderMap.h

; 13   : 				isDynamicSizePacket = bFlag;

  00689	c6 45 ec 00	 mov	 BYTE PTR $T47[ebp+4], 0
; File E:\Metin2_server\SolWayneSF v6\ClientVS22\source\UserInterface\PythonNetworkStream.cpp

; 135  : 			Set(HEADER_GC_PARTY_UNLINK,	CNetworkPacketHeaderMap::TPacketType(sizeof(TPacketGCPartyUnlink), STATIC_SIZE_PACKET));

  0068d	b9 00 00 00 00	 mov	 ecx, OFFSET ?s_packetHeaderMap@?1??CheckPacket@CPythonNetworkStream@@IAE_NPAE@Z@4VCMainPacketHeaderMap@@A
  00692	ff 75 ec	 push	 DWORD PTR $T47[ebp+4]
  00695	6a 09		 push	 9
  00697	6a 5c		 push	 92			; 0000005cH
  00699	e8 00 00 00 00	 call	 ?Set@CNetworkPacketHeaderMap@@QAEXHUSPacketType@1@@Z ; CNetworkPacketHeaderMap::Set
; File E:\Metin2_server\SolWayneSF v6\ClientVS22\source\eterLib\NetPacketHeaderMap.h

; 13   : 				isDynamicSizePacket = bFlag;

  0069e	c6 45 ec 00	 mov	 BYTE PTR $T46[ebp+4], 0
; File E:\Metin2_server\SolWayneSF v6\ClientVS22\source\UserInterface\PythonNetworkStream.cpp

; 136  : 			Set(HEADER_GC_PARTY_PARAMETER,	CNetworkPacketHeaderMap::TPacketType(sizeof(TPacketGCPartyParameter), STATIC_SIZE_PACKET));

  006a2	b9 00 00 00 00	 mov	 ecx, OFFSET ?s_packetHeaderMap@?1??CheckPacket@CPythonNetworkStream@@IAE_NPAE@Z@4VCMainPacketHeaderMap@@A
  006a7	ff 75 ec	 push	 DWORD PTR $T46[ebp+4]
  006aa	6a 02		 push	 2
  006ac	6a 53		 push	 83			; 00000053H
  006ae	e8 00 00 00 00	 call	 ?Set@CNetworkPacketHeaderMap@@QAEXHUSPacketType@1@@Z ; CNetworkPacketHeaderMap::Set
; File E:\Metin2_server\SolWayneSF v6\ClientVS22\source\eterLib\NetPacketHeaderMap.h

; 13   : 				isDynamicSizePacket = bFlag;

  006b3	c6 45 ec 00	 mov	 BYTE PTR $T45[ebp+4], 0
; File E:\Metin2_server\SolWayneSF v6\ClientVS22\source\UserInterface\PythonNetworkStream.cpp

; 138  : 			Set(HEADER_GC_SAFEBOX_SET,	CNetworkPacketHeaderMap::TPacketType(sizeof(TPacketGCItemSet), STATIC_SIZE_PACKET));

  006b7	b9 00 00 00 00	 mov	 ecx, OFFSET ?s_packetHeaderMap@?1??CheckPacket@CPythonNetworkStream@@IAE_NPAE@Z@4VCMainPacketHeaderMap@@A
  006bc	ff 75 ec	 push	 DWORD PTR $T45[ebp+4]
  006bf	6a 2a		 push	 42			; 0000002aH
  006c1	6a 55		 push	 85			; 00000055H
  006c3	e8 00 00 00 00	 call	 ?Set@CNetworkPacketHeaderMap@@QAEXHUSPacketType@1@@Z ; CNetworkPacketHeaderMap::Set
; File E:\Metin2_server\SolWayneSF v6\ClientVS22\source\eterLib\NetPacketHeaderMap.h

; 13   : 				isDynamicSizePacket = bFlag;

  006c8	c6 45 ec 00	 mov	 BYTE PTR $T44[ebp+4], 0
; File E:\Metin2_server\SolWayneSF v6\ClientVS22\source\UserInterface\PythonNetworkStream.cpp

; 139  : 			Set(HEADER_GC_SAFEBOX_DEL,	CNetworkPacketHeaderMap::TPacketType(sizeof(TPacketGCItemDel), STATIC_SIZE_PACKET));

  006cc	b9 00 00 00 00	 mov	 ecx, OFFSET ?s_packetHeaderMap@?1??CheckPacket@CPythonNetworkStream@@IAE_NPAE@Z@4VCMainPacketHeaderMap@@A
  006d1	ff 75 ec	 push	 DWORD PTR $T44[ebp+4]
  006d4	6a 02		 push	 2
  006d6	6a 56		 push	 86			; 00000056H
  006d8	e8 00 00 00 00	 call	 ?Set@CNetworkPacketHeaderMap@@QAEXHUSPacketType@1@@Z ; CNetworkPacketHeaderMap::Set
; File E:\Metin2_server\SolWayneSF v6\ClientVS22\source\eterLib\NetPacketHeaderMap.h

; 13   : 				isDynamicSizePacket = bFlag;

  006dd	c6 45 ec 00	 mov	 BYTE PTR $T43[ebp+4], 0
; File E:\Metin2_server\SolWayneSF v6\ClientVS22\source\UserInterface\PythonNetworkStream.cpp

; 140  : 			Set(HEADER_GC_SAFEBOX_WRONG_PASSWORD,	CNetworkPacketHeaderMap::TPacketType(sizeof(TPacketGCSafeboxWrongPassword), STATIC_SIZE_PACKET));

  006e1	b9 00 00 00 00	 mov	 ecx, OFFSET ?s_packetHeaderMap@?1??CheckPacket@CPythonNetworkStream@@IAE_NPAE@Z@4VCMainPacketHeaderMap@@A
  006e6	ff 75 ec	 push	 DWORD PTR $T43[ebp+4]
  006e9	6a 01		 push	 1
  006eb	6a 57		 push	 87			; 00000057H
  006ed	e8 00 00 00 00	 call	 ?Set@CNetworkPacketHeaderMap@@QAEXHUSPacketType@1@@Z ; CNetworkPacketHeaderMap::Set
; File E:\Metin2_server\SolWayneSF v6\ClientVS22\source\eterLib\NetPacketHeaderMap.h

; 13   : 				isDynamicSizePacket = bFlag;

  006f2	c6 45 ec 00	 mov	 BYTE PTR $T42[ebp+4], 0
; File E:\Metin2_server\SolWayneSF v6\ClientVS22\source\UserInterface\PythonNetworkStream.cpp

; 141  : 			Set(HEADER_GC_SAFEBOX_SIZE,	CNetworkPacketHeaderMap::TPacketType(sizeof(TPacketGCSafeboxSize), STATIC_SIZE_PACKET));

  006f6	b9 00 00 00 00	 mov	 ecx, OFFSET ?s_packetHeaderMap@?1??CheckPacket@CPythonNetworkStream@@IAE_NPAE@Z@4VCMainPacketHeaderMap@@A
  006fb	ff 75 ec	 push	 DWORD PTR $T42[ebp+4]
  006fe	6a 02		 push	 2
  00700	6a 58		 push	 88			; 00000058H
  00702	e8 00 00 00 00	 call	 ?Set@CNetworkPacketHeaderMap@@QAEXHUSPacketType@1@@Z ; CNetworkPacketHeaderMap::Set
; File E:\Metin2_server\SolWayneSF v6\ClientVS22\source\eterLib\NetPacketHeaderMap.h

; 13   : 				isDynamicSizePacket = bFlag;

  00707	c6 45 ec 00	 mov	 BYTE PTR $T41[ebp+4], 0
; File E:\Metin2_server\SolWayneSF v6\ClientVS22\source\UserInterface\PythonNetworkStream.cpp

; 142  : 			Set(HEADER_GC_SAFEBOX_MONEY_CHANGE,	CNetworkPacketHeaderMap::TPacketType(sizeof(TPacketGCSafeboxMoneyChange), STATIC_SIZE_PACKET));

  0070b	b9 00 00 00 00	 mov	 ecx, OFFSET ?s_packetHeaderMap@?1??CheckPacket@CPythonNetworkStream@@IAE_NPAE@Z@4VCMainPacketHeaderMap@@A
  00710	ff 75 ec	 push	 DWORD PTR $T41[ebp+4]
  00713	6a 05		 push	 5
  00715	6a 54		 push	 84			; 00000054H
  00717	e8 00 00 00 00	 call	 ?Set@CNetworkPacketHeaderMap@@QAEXHUSPacketType@1@@Z ; CNetworkPacketHeaderMap::Set
; File E:\Metin2_server\SolWayneSF v6\ClientVS22\source\eterLib\NetPacketHeaderMap.h

; 13   : 				isDynamicSizePacket = bFlag;

  0071c	c6 45 ec 00	 mov	 BYTE PTR $T40[ebp+4], 0
; File E:\Metin2_server\SolWayneSF v6\ClientVS22\source\UserInterface\PythonNetworkStream.cpp

; 144  : 			Set(HEADER_GC_FISHING,	CNetworkPacketHeaderMap::TPacketType(sizeof(TPacketGCFishing), STATIC_SIZE_PACKET));

  00720	b9 00 00 00 00	 mov	 ecx, OFFSET ?s_packetHeaderMap@?1??CheckPacket@CPythonNetworkStream@@IAE_NPAE@Z@4VCMainPacketHeaderMap@@A
  00725	ff 75 ec	 push	 DWORD PTR $T40[ebp+4]
  00728	6a 07		 push	 7
  0072a	6a 59		 push	 89			; 00000059H
  0072c	e8 00 00 00 00	 call	 ?Set@CNetworkPacketHeaderMap@@QAEXHUSPacketType@1@@Z ; CNetworkPacketHeaderMap::Set
; File E:\Metin2_server\SolWayneSF v6\ClientVS22\source\eterLib\NetPacketHeaderMap.h

; 13   : 				isDynamicSizePacket = bFlag;

  00731	c6 45 ec 01	 mov	 BYTE PTR $T39[ebp+4], 1
; File E:\Metin2_server\SolWayneSF v6\ClientVS22\source\UserInterface\PythonNetworkStream.cpp

; 145  : 			Set(HEADER_GC_DUNGEON, CNetworkPacketHeaderMap::TPacketType(sizeof(TPacketGCDungeon), DYNAMIC_SIZE_PACKET));

  00735	b9 00 00 00 00	 mov	 ecx, OFFSET ?s_packetHeaderMap@?1??CheckPacket@CPythonNetworkStream@@IAE_NPAE@Z@4VCMainPacketHeaderMap@@A
  0073a	ff 75 ec	 push	 DWORD PTR $T39[ebp+4]
  0073d	6a 04		 push	 4
  0073f	6a 6e		 push	 110			; 0000006eH
  00741	e8 00 00 00 00	 call	 ?Set@CNetworkPacketHeaderMap@@QAEXHUSPacketType@1@@Z ; CNetworkPacketHeaderMap::Set
; File E:\Metin2_server\SolWayneSF v6\ClientVS22\source\eterLib\NetPacketHeaderMap.h

; 13   : 				isDynamicSizePacket = bFlag;

  00746	c6 45 ec 00	 mov	 BYTE PTR $T38[ebp+4], 0
; File E:\Metin2_server\SolWayneSF v6\ClientVS22\source\UserInterface\PythonNetworkStream.cpp

; 147  : 			Set(HEADER_GC_TIME, CNetworkPacketHeaderMap::TPacketType(sizeof(TPacketGCTime), STATIC_SIZE_PACKET));

  0074a	b9 00 00 00 00	 mov	 ecx, OFFSET ?s_packetHeaderMap@?1??CheckPacket@CPythonNetworkStream@@IAE_NPAE@Z@4VCMainPacketHeaderMap@@A
  0074f	ff 75 ec	 push	 DWORD PTR $T38[ebp+4]
  00752	6a 05		 push	 5
  00754	6a 6a		 push	 106			; 0000006aH
  00756	e8 00 00 00 00	 call	 ?Set@CNetworkPacketHeaderMap@@QAEXHUSPacketType@1@@Z ; CNetworkPacketHeaderMap::Set
; File E:\Metin2_server\SolWayneSF v6\ClientVS22\source\eterLib\NetPacketHeaderMap.h

; 13   : 				isDynamicSizePacket = bFlag;

  0075b	c6 45 ec 00	 mov	 BYTE PTR $T37[ebp+4], 0
; File E:\Metin2_server\SolWayneSF v6\ClientVS22\source\UserInterface\PythonNetworkStream.cpp

; 148  : 			Set(HEADER_GC_WALK_MODE, CNetworkPacketHeaderMap::TPacketType(sizeof(TPacketGCWalkMode), STATIC_SIZE_PACKET));

  0075f	b9 00 00 00 00	 mov	 ecx, OFFSET ?s_packetHeaderMap@?1??CheckPacket@CPythonNetworkStream@@IAE_NPAE@Z@4VCMainPacketHeaderMap@@A
  00764	ff 75 ec	 push	 DWORD PTR $T37[ebp+4]
  00767	6a 06		 push	 6
  00769	6a 6f		 push	 111			; 0000006fH
  0076b	e8 00 00 00 00	 call	 ?Set@CNetworkPacketHeaderMap@@QAEXHUSPacketType@1@@Z ; CNetworkPacketHeaderMap::Set
; File E:\Metin2_server\SolWayneSF v6\ClientVS22\source\eterLib\NetPacketHeaderMap.h

; 13   : 				isDynamicSizePacket = bFlag;

  00770	c6 45 ec 00	 mov	 BYTE PTR $T36[ebp+4], 0
; File E:\Metin2_server\SolWayneSF v6\ClientVS22\source\UserInterface\PythonNetworkStream.cpp

; 149  : 			Set(HEADER_GC_CHANGE_SKILL_GROUP, CNetworkPacketHeaderMap::TPacketType(sizeof(TPacketGCChangeSkillGroup), STATIC_SIZE_PACKET));

  00774	b9 00 00 00 00	 mov	 ecx, OFFSET ?s_packetHeaderMap@?1??CheckPacket@CPythonNetworkStream@@IAE_NPAE@Z@4VCMainPacketHeaderMap@@A
  00779	ff 75 ec	 push	 DWORD PTR $T36[ebp+4]
  0077c	6a 02		 push	 2
  0077e	6a 70		 push	 112			; 00000070H
  00780	e8 00 00 00 00	 call	 ?Set@CNetworkPacketHeaderMap@@QAEXHUSPacketType@1@@Z ; CNetworkPacketHeaderMap::Set
; File E:\Metin2_server\SolWayneSF v6\ClientVS22\source\eterLib\NetPacketHeaderMap.h

; 13   : 				isDynamicSizePacket = bFlag;

  00785	c6 45 ec 00	 mov	 BYTE PTR $T35[ebp+4], 0
; File E:\Metin2_server\SolWayneSF v6\ClientVS22\source\UserInterface\PythonNetworkStream.cpp

; 150  : 			Set(HEADER_GC_REFINE_INFORMATION, CNetworkPacketHeaderMap::TPacketType(sizeof(TPacketGCRefineInformation), STATIC_SIZE_PACKET));

  00789	b9 00 00 00 00	 mov	 ecx, OFFSET ?s_packetHeaderMap@?1??CheckPacket@CPythonNetworkStream@@IAE_NPAE@Z@4VCMainPacketHeaderMap@@A
  0078e	ff 75 ec	 push	 DWORD PTR $T35[ebp+4]
  00791	6a 3b		 push	 59			; 0000003bH
  00793	6a 5f		 push	 95			; 0000005fH
  00795	e8 00 00 00 00	 call	 ?Set@CNetworkPacketHeaderMap@@QAEXHUSPacketType@1@@Z ; CNetworkPacketHeaderMap::Set
; File E:\Metin2_server\SolWayneSF v6\ClientVS22\source\eterLib\NetPacketHeaderMap.h

; 13   : 				isDynamicSizePacket = bFlag;

  0079a	c6 45 ec 00	 mov	 BYTE PTR $T34[ebp+4], 0
; File E:\Metin2_server\SolWayneSF v6\ClientVS22\source\UserInterface\PythonNetworkStream.cpp

; 151  : 			Set(HEADER_GC_REFINE_INFORMATION_NEW, CNetworkPacketHeaderMap::TPacketType(sizeof(TPacketGCRefineInformationNew), STATIC_SIZE_PACKET));

  0079e	b9 00 00 00 00	 mov	 ecx, OFFSET ?s_packetHeaderMap@?1??CheckPacket@CPythonNetworkStream@@IAE_NPAE@Z@4VCMainPacketHeaderMap@@A
  007a3	ff 75 ec	 push	 DWORD PTR $T34[ebp+4]
  007a6	6a 3c		 push	 60			; 0000003cH
  007a8	6a 77		 push	 119			; 00000077H
  007aa	e8 00 00 00 00	 call	 ?Set@CNetworkPacketHeaderMap@@QAEXHUSPacketType@1@@Z ; CNetworkPacketHeaderMap::Set
; File E:\Metin2_server\SolWayneSF v6\ClientVS22\source\eterLib\NetPacketHeaderMap.h

; 13   : 				isDynamicSizePacket = bFlag;

  007af	c6 45 ec 00	 mov	 BYTE PTR $T33[ebp+4], 0
; File E:\Metin2_server\SolWayneSF v6\ClientVS22\source\UserInterface\PythonNetworkStream.cpp

; 152  : 			Set(HEADER_GC_SEPCIAL_EFFECT, CNetworkPacketHeaderMap::TPacketType(sizeof(TPacketGCSpecialEffect), STATIC_SIZE_PACKET));

  007b3	b9 00 00 00 00	 mov	 ecx, OFFSET ?s_packetHeaderMap@?1??CheckPacket@CPythonNetworkStream@@IAE_NPAE@Z@4VCMainPacketHeaderMap@@A
  007b8	ff 75 ec	 push	 DWORD PTR $T33[ebp+4]
  007bb	6a 06		 push	 6
  007bd	6a 72		 push	 114			; 00000072H
  007bf	e8 00 00 00 00	 call	 ?Set@CNetworkPacketHeaderMap@@QAEXHUSPacketType@1@@Z ; CNetworkPacketHeaderMap::Set
; File E:\Metin2_server\SolWayneSF v6\ClientVS22\source\eterLib\NetPacketHeaderMap.h

; 13   : 				isDynamicSizePacket = bFlag;

  007c4	c6 45 ec 01	 mov	 BYTE PTR $T32[ebp+4], 1
; File E:\Metin2_server\SolWayneSF v6\ClientVS22\source\UserInterface\PythonNetworkStream.cpp

; 153  : 			Set(HEADER_GC_NPC_POSITION, CNetworkPacketHeaderMap::TPacketType(sizeof(TPacketGCNPCPosition), DYNAMIC_SIZE_PACKET));

  007c8	b9 00 00 00 00	 mov	 ecx, OFFSET ?s_packetHeaderMap@?1??CheckPacket@CPythonNetworkStream@@IAE_NPAE@Z@4VCMainPacketHeaderMap@@A
  007cd	ff 75 ec	 push	 DWORD PTR $T32[ebp+4]
  007d0	6a 05		 push	 5
  007d2	6a 73		 push	 115			; 00000073H
  007d4	e8 00 00 00 00	 call	 ?Set@CNetworkPacketHeaderMap@@QAEXHUSPacketType@1@@Z ; CNetworkPacketHeaderMap::Set
; File E:\Metin2_server\SolWayneSF v6\ClientVS22\source\eterLib\NetPacketHeaderMap.h

; 13   : 				isDynamicSizePacket = bFlag;

  007d9	c6 45 ec 00	 mov	 BYTE PTR $T31[ebp+4], 0
; File E:\Metin2_server\SolWayneSF v6\ClientVS22\source\UserInterface\PythonNetworkStream.cpp

; 154  : 			Set(HEADER_GC_CHANGE_NAME, CNetworkPacketHeaderMap::TPacketType(sizeof(TPacketGCChangeName), STATIC_SIZE_PACKET));

  007dd	b9 00 00 00 00	 mov	 ecx, OFFSET ?s_packetHeaderMap@?1??CheckPacket@CPythonNetworkStream@@IAE_NPAE@Z@4VCMainPacketHeaderMap@@A
  007e2	ff 75 ec	 push	 DWORD PTR $T31[ebp+4]
  007e5	6a 1e		 push	 30			; 0000001eH
  007e7	6a 6b		 push	 107			; 0000006bH
  007e9	e8 00 00 00 00	 call	 ?Set@CNetworkPacketHeaderMap@@QAEXHUSPacketType@1@@Z ; CNetworkPacketHeaderMap::Set
; File E:\Metin2_server\SolWayneSF v6\ClientVS22\source\eterLib\NetPacketHeaderMap.h

; 13   : 				isDynamicSizePacket = bFlag;

  007ee	c6 45 ec 00	 mov	 BYTE PTR $T30[ebp+4], 0
; File E:\Metin2_server\SolWayneSF v6\ClientVS22\source\UserInterface\PythonNetworkStream.cpp

; 156  : 			Set(HEADER_GC_CHINA_MATRIX_CARD, CNetworkPacketHeaderMap::TPacketType(sizeof(TPacketGCChinaMatrixCard), STATIC_SIZE_PACKET));

  007f2	b9 00 00 00 00	 mov	 ecx, OFFSET ?s_packetHeaderMap@?1??CheckPacket@CPythonNetworkStream@@IAE_NPAE@Z@4VCMainPacketHeaderMap@@A
  007f7	ff 75 ec	 push	 DWORD PTR $T30[ebp+4]
  007fa	6a 09		 push	 9
  007fc	6a 74		 push	 116			; 00000074H
  007fe	e8 00 00 00 00	 call	 ?Set@CNetworkPacketHeaderMap@@QAEXHUSPacketType@1@@Z ; CNetworkPacketHeaderMap::Set
; File E:\Metin2_server\SolWayneSF v6\ClientVS22\source\eterLib\NetPacketHeaderMap.h

; 13   : 				isDynamicSizePacket = bFlag;

  00803	c6 45 ec 00	 mov	 BYTE PTR $T29[ebp+4], 0
; File E:\Metin2_server\SolWayneSF v6\ClientVS22\source\UserInterface\PythonNetworkStream.cpp

; 157  : 			Set(HEADER_GC_RUNUP_MATRIX_QUIZ, CNetworkPacketHeaderMap::TPacketType(sizeof(TPacketGCRunupMatrixQuiz), STATIC_SIZE_PACKET));

  00807	b9 00 00 00 00	 mov	 ecx, OFFSET ?s_packetHeaderMap@?1??CheckPacket@CPythonNetworkStream@@IAE_NPAE@Z@4VCMainPacketHeaderMap@@A
  0080c	ff 75 ec	 push	 DWORD PTR $T29[ebp+4]
  0080f	6a 0a		 push	 10			; 0000000aH
  00811	68 c9 00 00 00	 push	 201			; 000000c9H
  00816	e8 00 00 00 00	 call	 ?Set@CNetworkPacketHeaderMap@@QAEXHUSPacketType@1@@Z ; CNetworkPacketHeaderMap::Set
; File E:\Metin2_server\SolWayneSF v6\ClientVS22\source\eterLib\NetPacketHeaderMap.h

; 13   : 				isDynamicSizePacket = bFlag;

  0081b	c6 45 ec 00	 mov	 BYTE PTR $T28[ebp+4], 0
; File E:\Metin2_server\SolWayneSF v6\ClientVS22\source\UserInterface\PythonNetworkStream.cpp

; 158  : 			Set(HEADER_GC_NEWCIBN_PASSPOD_REQUEST, CNetworkPacketHeaderMap::TPacketType(sizeof(TPacketGCNEWCIBNPasspodRequest), STATIC_SIZE_PACKET));

  0081f	ff 75 ec	 push	 DWORD PTR $T28[ebp+4]
  00822	6a 01		 push	 1
  00824	68 ca 00 00 00	 push	 202			; 000000caH
  00829	b9 00 00 00 00	 mov	 ecx, OFFSET ?s_packetHeaderMap@?1??CheckPacket@CPythonNetworkStream@@IAE_NPAE@Z@4VCMainPacketHeaderMap@@A
  0082e	e8 00 00 00 00	 call	 ?Set@CNetworkPacketHeaderMap@@QAEXHUSPacketType@1@@Z ; CNetworkPacketHeaderMap::Set
; File E:\Metin2_server\SolWayneSF v6\ClientVS22\source\eterLib\NetPacketHeaderMap.h

; 13   : 				isDynamicSizePacket = bFlag;

  00833	c6 45 ec 00	 mov	 BYTE PTR $T27[ebp+4], 0
; File E:\Metin2_server\SolWayneSF v6\ClientVS22\source\UserInterface\PythonNetworkStream.cpp

; 159  : 			Set(HEADER_GC_NEWCIBN_PASSPOD_FAILURE, CNetworkPacketHeaderMap::TPacketType(sizeof(TPacketGCNEWCIBNPasspodFailure), STATIC_SIZE_PACKET));

  00837	b9 00 00 00 00	 mov	 ecx, OFFSET ?s_packetHeaderMap@?1??CheckPacket@CPythonNetworkStream@@IAE_NPAE@Z@4VCMainPacketHeaderMap@@A
  0083c	ff 75 ec	 push	 DWORD PTR $T27[ebp+4]
  0083f	68 82 00 00 00	 push	 130			; 00000082H
  00844	68 cb 00 00 00	 push	 203			; 000000cbH
  00849	e8 00 00 00 00	 call	 ?Set@CNetworkPacketHeaderMap@@QAEXHUSPacketType@1@@Z ; CNetworkPacketHeaderMap::Set
; File E:\Metin2_server\SolWayneSF v6\ClientVS22\source\eterLib\NetPacketHeaderMap.h

; 13   : 				isDynamicSizePacket = bFlag;

  0084e	c6 45 ec 00	 mov	 BYTE PTR $T26[ebp+4], 0
; File E:\Metin2_server\SolWayneSF v6\ClientVS22\source\UserInterface\PythonNetworkStream.cpp

; 160  : 			Set(HEADER_GC_LOGIN_KEY, CNetworkPacketHeaderMap::TPacketType(sizeof(TPacketGCLoginKey), STATIC_SIZE_PACKET));

  00852	b9 00 00 00 00	 mov	 ecx, OFFSET ?s_packetHeaderMap@?1??CheckPacket@CPythonNetworkStream@@IAE_NPAE@Z@4VCMainPacketHeaderMap@@A
  00857	ff 75 ec	 push	 DWORD PTR $T26[ebp+4]
  0085a	6a 05		 push	 5
  0085c	6a 76		 push	 118			; 00000076H
  0085e	e8 00 00 00 00	 call	 ?Set@CNetworkPacketHeaderMap@@QAEXHUSPacketType@1@@Z ; CNetworkPacketHeaderMap::Set
; File E:\Metin2_server\SolWayneSF v6\ClientVS22\source\eterLib\NetPacketHeaderMap.h

; 13   : 				isDynamicSizePacket = bFlag;

  00863	c6 45 ec 00	 mov	 BYTE PTR $T25[ebp+4], 0
; File E:\Metin2_server\SolWayneSF v6\ClientVS22\source\UserInterface\PythonNetworkStream.cpp

; 162  : 			Set(HEADER_GC_AUTH_SUCCESS, CNetworkPacketHeaderMap::TPacketType(sizeof(TPacketGCAuthSuccess), STATIC_SIZE_PACKET));

  00867	b9 00 00 00 00	 mov	 ecx, OFFSET ?s_packetHeaderMap@?1??CheckPacket@CPythonNetworkStream@@IAE_NPAE@Z@4VCMainPacketHeaderMap@@A
  0086c	ff 75 ec	 push	 DWORD PTR $T25[ebp+4]
  0086f	6a 06		 push	 6
  00871	68 96 00 00 00	 push	 150			; 00000096H
  00876	e8 00 00 00 00	 call	 ?Set@CNetworkPacketHeaderMap@@QAEXHUSPacketType@1@@Z ; CNetworkPacketHeaderMap::Set
; File E:\Metin2_server\SolWayneSF v6\ClientVS22\source\eterLib\NetPacketHeaderMap.h

; 13   : 				isDynamicSizePacket = bFlag;

  0087b	c6 45 ec 00	 mov	 BYTE PTR $T24[ebp+4], 0
; File E:\Metin2_server\SolWayneSF v6\ClientVS22\source\UserInterface\PythonNetworkStream.cpp

; 163  : 			Set(HEADER_GC_AUTH_SUCCESS_OPENID, CNetworkPacketHeaderMap::TPacketType(sizeof(TPacketGCAuthSuccessOpenID), STATIC_SIZE_PACKET));

  0087f	b9 00 00 00 00	 mov	 ecx, OFFSET ?s_packetHeaderMap@?1??CheckPacket@CPythonNetworkStream@@IAE_NPAE@Z@4VCMainPacketHeaderMap@@A
  00884	ff 75 ec	 push	 DWORD PTR $T24[ebp+4]
  00887	6a 25		 push	 37			; 00000025H
  00889	68 9a 00 00 00	 push	 154			; 0000009aH
  0088e	e8 00 00 00 00	 call	 ?Set@CNetworkPacketHeaderMap@@QAEXHUSPacketType@1@@Z ; CNetworkPacketHeaderMap::Set
; File E:\Metin2_server\SolWayneSF v6\ClientVS22\source\eterLib\NetPacketHeaderMap.h

; 13   : 				isDynamicSizePacket = bFlag;

  00893	c6 45 ec 00	 mov	 BYTE PTR $T23[ebp+4], 0
; File E:\Metin2_server\SolWayneSF v6\ClientVS22\source\UserInterface\PythonNetworkStream.cpp

; 164  : 			Set(HEADER_GC_CHANNEL, CNetworkPacketHeaderMap::TPacketType(sizeof(TPacketGCChannel), STATIC_SIZE_PACKET));

  00897	b9 00 00 00 00	 mov	 ecx, OFFSET ?s_packetHeaderMap@?1??CheckPacket@CPythonNetworkStream@@IAE_NPAE@Z@4VCMainPacketHeaderMap@@A
  0089c	ff 75 ec	 push	 DWORD PTR $T23[ebp+4]
  0089f	6a 02		 push	 2
  008a1	6a 79		 push	 121			; 00000079H
  008a3	e8 00 00 00 00	 call	 ?Set@CNetworkPacketHeaderMap@@QAEXHUSPacketType@1@@Z ; CNetworkPacketHeaderMap::Set
; File E:\Metin2_server\SolWayneSF v6\ClientVS22\source\eterLib\NetPacketHeaderMap.h

; 13   : 				isDynamicSizePacket = bFlag;

  008a8	c6 45 ec 00	 mov	 BYTE PTR $T22[ebp+4], 0
; File E:\Metin2_server\SolWayneSF v6\ClientVS22\source\UserInterface\PythonNetworkStream.cpp

; 165  : 			Set(HEADER_GC_VIEW_EQUIP, CNetworkPacketHeaderMap::TPacketType(sizeof(TPacketGCViewEquip), STATIC_SIZE_PACKET));

  008ac	b9 00 00 00 00	 mov	 ecx, OFFSET ?s_packetHeaderMap@?1??CheckPacket@CPythonNetworkStream@@IAE_NPAE@Z@4VCMainPacketHeaderMap@@A
  008b1	ff 75 ec	 push	 DWORD PTR $T22[ebp+4]
  008b4	68 a7 01 00 00	 push	 423			; 000001a7H
  008b9	6a 63		 push	 99			; 00000063H
  008bb	e8 00 00 00 00	 call	 ?Set@CNetworkPacketHeaderMap@@QAEXHUSPacketType@1@@Z ; CNetworkPacketHeaderMap::Set
; File E:\Metin2_server\SolWayneSF v6\ClientVS22\source\eterLib\NetPacketHeaderMap.h

; 13   : 				isDynamicSizePacket = bFlag;

  008c0	c6 45 ec 01	 mov	 BYTE PTR $T21[ebp+4], 1
; File E:\Metin2_server\SolWayneSF v6\ClientVS22\source\UserInterface\PythonNetworkStream.cpp

; 166  : 			Set(HEADER_GC_LAND_LIST, CNetworkPacketHeaderMap::TPacketType(sizeof(TPacketGCLandList), DYNAMIC_SIZE_PACKET));

  008c4	b9 00 00 00 00	 mov	 ecx, OFFSET ?s_packetHeaderMap@?1??CheckPacket@CPythonNetworkStream@@IAE_NPAE@Z@4VCMainPacketHeaderMap@@A
  008c9	ff 75 ec	 push	 DWORD PTR $T21[ebp+4]
  008cc	6a 03		 push	 3
  008ce	68 82 00 00 00	 push	 130			; 00000082H
  008d3	e8 00 00 00 00	 call	 ?Set@CNetworkPacketHeaderMap@@QAEXHUSPacketType@1@@Z ; CNetworkPacketHeaderMap::Set
; File E:\Metin2_server\SolWayneSF v6\ClientVS22\source\eterLib\NetPacketHeaderMap.h

; 13   : 				isDynamicSizePacket = bFlag;

  008d8	c6 45 ec 00	 mov	 BYTE PTR $T20[ebp+4], 0
; File E:\Metin2_server\SolWayneSF v6\ClientVS22\source\UserInterface\PythonNetworkStream.cpp

; 169  : 			Set(HEADER_GC_TARGET_UPDATE, CNetworkPacketHeaderMap::TPacketType(sizeof(TPacketGCTargetUpdate), STATIC_SIZE_PACKET));

  008dc	b9 00 00 00 00	 mov	 ecx, OFFSET ?s_packetHeaderMap@?1??CheckPacket@CPythonNetworkStream@@IAE_NPAE@Z@4VCMainPacketHeaderMap@@A
  008e1	ff 75 ec	 push	 DWORD PTR $T20[ebp+4]
  008e4	6a 0d		 push	 13			; 0000000dH
  008e6	6a 7b		 push	 123			; 0000007bH
  008e8	e8 00 00 00 00	 call	 ?Set@CNetworkPacketHeaderMap@@QAEXHUSPacketType@1@@Z ; CNetworkPacketHeaderMap::Set
; File E:\Metin2_server\SolWayneSF v6\ClientVS22\source\eterLib\NetPacketHeaderMap.h

; 13   : 				isDynamicSizePacket = bFlag;

  008ed	c6 45 ec 00	 mov	 BYTE PTR $T19[ebp+4], 0
; File E:\Metin2_server\SolWayneSF v6\ClientVS22\source\UserInterface\PythonNetworkStream.cpp

; 170  : 			Set(HEADER_GC_TARGET_DELETE, CNetworkPacketHeaderMap::TPacketType(sizeof(TPacketGCTargetDelete), STATIC_SIZE_PACKET));

  008f1	b9 00 00 00 00	 mov	 ecx, OFFSET ?s_packetHeaderMap@?1??CheckPacket@CPythonNetworkStream@@IAE_NPAE@Z@4VCMainPacketHeaderMap@@A
  008f6	ff 75 ec	 push	 DWORD PTR $T19[ebp+4]
  008f9	6a 05		 push	 5
  008fb	6a 7c		 push	 124			; 0000007cH
  008fd	e8 00 00 00 00	 call	 ?Set@CNetworkPacketHeaderMap@@QAEXHUSPacketType@1@@Z ; CNetworkPacketHeaderMap::Set
; File E:\Metin2_server\SolWayneSF v6\ClientVS22\source\eterLib\NetPacketHeaderMap.h

; 13   : 				isDynamicSizePacket = bFlag;

  00902	c6 45 ec 00	 mov	 BYTE PTR $T18[ebp+4], 0
; File E:\Metin2_server\SolWayneSF v6\ClientVS22\source\UserInterface\PythonNetworkStream.cpp

; 171  : 			Set(HEADER_GC_TARGET_CREATE_NEW, CNetworkPacketHeaderMap::TPacketType(sizeof(TPacketGCTargetCreateNew), STATIC_SIZE_PACKET));

  00906	b9 00 00 00 00	 mov	 ecx, OFFSET ?s_packetHeaderMap@?1??CheckPacket@CPythonNetworkStream@@IAE_NPAE@Z@4VCMainPacketHeaderMap@@A
  0090b	ff 75 ec	 push	 DWORD PTR $T18[ebp+4]
  0090e	6a 2b		 push	 43			; 0000002bH
  00910	6a 7d		 push	 125			; 0000007dH
  00912	e8 00 00 00 00	 call	 ?Set@CNetworkPacketHeaderMap@@QAEXHUSPacketType@1@@Z ; CNetworkPacketHeaderMap::Set
; File E:\Metin2_server\SolWayneSF v6\ClientVS22\source\eterLib\NetPacketHeaderMap.h

; 13   : 				isDynamicSizePacket = bFlag;

  00917	c6 45 ec 00	 mov	 BYTE PTR $T17[ebp+4], 0
; File E:\Metin2_server\SolWayneSF v6\ClientVS22\source\UserInterface\PythonNetworkStream.cpp

; 173  : 			Set(HEADER_GC_AFFECT_ADD, CNetworkPacketHeaderMap::TPacketType(sizeof(TPacketGCAffectAdd), STATIC_SIZE_PACKET));

  0091b	b9 00 00 00 00	 mov	 ecx, OFFSET ?s_packetHeaderMap@?1??CheckPacket@CPythonNetworkStream@@IAE_NPAE@Z@4VCMainPacketHeaderMap@@A
  00920	ff 75 ec	 push	 DWORD PTR $T17[ebp+4]
  00923	6a 16		 push	 22			; 00000016H
  00925	6a 7e		 push	 126			; 0000007eH
  00927	e8 00 00 00 00	 call	 ?Set@CNetworkPacketHeaderMap@@QAEXHUSPacketType@1@@Z ; CNetworkPacketHeaderMap::Set
; File E:\Metin2_server\SolWayneSF v6\ClientVS22\source\eterLib\NetPacketHeaderMap.h

; 13   : 				isDynamicSizePacket = bFlag;

  0092c	c6 45 ec 00	 mov	 BYTE PTR $T16[ebp+4], 0
; File E:\Metin2_server\SolWayneSF v6\ClientVS22\source\UserInterface\PythonNetworkStream.cpp

; 174  : 			Set(HEADER_GC_AFFECT_REMOVE, CNetworkPacketHeaderMap::TPacketType(sizeof(TPacketGCAffectRemove), STATIC_SIZE_PACKET));

  00930	b9 00 00 00 00	 mov	 ecx, OFFSET ?s_packetHeaderMap@?1??CheckPacket@CPythonNetworkStream@@IAE_NPAE@Z@4VCMainPacketHeaderMap@@A
  00935	ff 75 ec	 push	 DWORD PTR $T16[ebp+4]
  00938	6a 06		 push	 6
  0093a	6a 7f		 push	 127			; 0000007fH
  0093c	e8 00 00 00 00	 call	 ?Set@CNetworkPacketHeaderMap@@QAEXHUSPacketType@1@@Z ; CNetworkPacketHeaderMap::Set
; File E:\Metin2_server\SolWayneSF v6\ClientVS22\source\eterLib\NetPacketHeaderMap.h

; 13   : 				isDynamicSizePacket = bFlag;

  00941	c6 45 ec 00	 mov	 BYTE PTR $T15[ebp+4], 0
; File E:\Metin2_server\SolWayneSF v6\ClientVS22\source\UserInterface\PythonNetworkStream.cpp

; 176  : 			Set(HEADER_GC_MALL_OPEN, CNetworkPacketHeaderMap::TPacketType(sizeof(TPacketGCMallOpen), STATIC_SIZE_PACKET));

  00945	b9 00 00 00 00	 mov	 ecx, OFFSET ?s_packetHeaderMap@?1??CheckPacket@CPythonNetworkStream@@IAE_NPAE@Z@4VCMainPacketHeaderMap@@A
  0094a	ff 75 ec	 push	 DWORD PTR $T15[ebp+4]
  0094d	6a 02		 push	 2
  0094f	6a 7a		 push	 122			; 0000007aH
  00951	e8 00 00 00 00	 call	 ?Set@CNetworkPacketHeaderMap@@QAEXHUSPacketType@1@@Z ; CNetworkPacketHeaderMap::Set
; File E:\Metin2_server\SolWayneSF v6\ClientVS22\source\eterLib\NetPacketHeaderMap.h

; 13   : 				isDynamicSizePacket = bFlag;

  00956	c6 45 ec 00	 mov	 BYTE PTR $T14[ebp+4], 0
; File E:\Metin2_server\SolWayneSF v6\ClientVS22\source\UserInterface\PythonNetworkStream.cpp

; 177  : 			Set(HEADER_GC_MALL_SET, CNetworkPacketHeaderMap::TPacketType(sizeof(TPacketGCItemSet), STATIC_SIZE_PACKET));

  0095a	b9 00 00 00 00	 mov	 ecx, OFFSET ?s_packetHeaderMap@?1??CheckPacket@CPythonNetworkStream@@IAE_NPAE@Z@4VCMainPacketHeaderMap@@A
  0095f	ff 75 ec	 push	 DWORD PTR $T14[ebp+4]
  00962	6a 2a		 push	 42			; 0000002aH
  00964	68 80 00 00 00	 push	 128			; 00000080H
  00969	e8 00 00 00 00	 call	 ?Set@CNetworkPacketHeaderMap@@QAEXHUSPacketType@1@@Z ; CNetworkPacketHeaderMap::Set
; File E:\Metin2_server\SolWayneSF v6\ClientVS22\source\eterLib\NetPacketHeaderMap.h

; 13   : 				isDynamicSizePacket = bFlag;

  0096e	c6 45 ec 00	 mov	 BYTE PTR $T13[ebp+4], 0
; File E:\Metin2_server\SolWayneSF v6\ClientVS22\source\UserInterface\PythonNetworkStream.cpp

; 178  : 			Set(HEADER_GC_MALL_DEL, CNetworkPacketHeaderMap::TPacketType(sizeof(TPacketGCItemDel), STATIC_SIZE_PACKET));

  00972	b9 00 00 00 00	 mov	 ecx, OFFSET ?s_packetHeaderMap@?1??CheckPacket@CPythonNetworkStream@@IAE_NPAE@Z@4VCMainPacketHeaderMap@@A
  00977	ff 75 ec	 push	 DWORD PTR $T13[ebp+4]
  0097a	6a 02		 push	 2
  0097c	68 81 00 00 00	 push	 129			; 00000081H
  00981	e8 00 00 00 00	 call	 ?Set@CNetworkPacketHeaderMap@@QAEXHUSPacketType@1@@Z ; CNetworkPacketHeaderMap::Set
; File E:\Metin2_server\SolWayneSF v6\ClientVS22\source\eterLib\NetPacketHeaderMap.h

; 13   : 				isDynamicSizePacket = bFlag;

  00986	c6 45 ec 00	 mov	 BYTE PTR $T12[ebp+4], 0
; File E:\Metin2_server\SolWayneSF v6\ClientVS22\source\UserInterface\PythonNetworkStream.cpp

; 180  : 			Set(HEADER_GC_LOVER_INFO, CNetworkPacketHeaderMap::TPacketType(sizeof(TPacketGCLoverInfo), STATIC_SIZE_PACKET));

  0098a	b9 00 00 00 00	 mov	 ecx, OFFSET ?s_packetHeaderMap@?1??CheckPacket@CPythonNetworkStream@@IAE_NPAE@Z@4VCMainPacketHeaderMap@@A
  0098f	ff 75 ec	 push	 DWORD PTR $T12[ebp+4]
  00992	6a 1b		 push	 27			; 0000001bH
  00994	68 83 00 00 00	 push	 131			; 00000083H
  00999	e8 00 00 00 00	 call	 ?Set@CNetworkPacketHeaderMap@@QAEXHUSPacketType@1@@Z ; CNetworkPacketHeaderMap::Set
; File E:\Metin2_server\SolWayneSF v6\ClientVS22\source\eterLib\NetPacketHeaderMap.h

; 13   : 				isDynamicSizePacket = bFlag;

  0099e	c6 45 ec 00	 mov	 BYTE PTR $T11[ebp+4], 0
; File E:\Metin2_server\SolWayneSF v6\ClientVS22\source\UserInterface\PythonNetworkStream.cpp

; 181  : 			Set(HEADER_GC_LOVE_POINT_UPDATE, CNetworkPacketHeaderMap::TPacketType(sizeof(TPacketGCLovePointUpdate), STATIC_SIZE_PACKET));

  009a2	b9 00 00 00 00	 mov	 ecx, OFFSET ?s_packetHeaderMap@?1??CheckPacket@CPythonNetworkStream@@IAE_NPAE@Z@4VCMainPacketHeaderMap@@A
  009a7	ff 75 ec	 push	 DWORD PTR $T11[ebp+4]
  009aa	6a 02		 push	 2
  009ac	68 84 00 00 00	 push	 132			; 00000084H
  009b1	e8 00 00 00 00	 call	 ?Set@CNetworkPacketHeaderMap@@QAEXHUSPacketType@1@@Z ; CNetworkPacketHeaderMap::Set
; File E:\Metin2_server\SolWayneSF v6\ClientVS22\source\eterLib\NetPacketHeaderMap.h

; 13   : 				isDynamicSizePacket = bFlag;

  009b6	c6 45 ec 00	 mov	 BYTE PTR $T10[ebp+4], 0
; File E:\Metin2_server\SolWayneSF v6\ClientVS22\source\UserInterface\PythonNetworkStream.cpp

; 183  : 			Set(HEADER_GC_DIG_MOTION, CNetworkPacketHeaderMap::TPacketType(sizeof(TPacketGCDigMotion), STATIC_SIZE_PACKET));

  009ba	b9 00 00 00 00	 mov	 ecx, OFFSET ?s_packetHeaderMap@?1??CheckPacket@CPythonNetworkStream@@IAE_NPAE@Z@4VCMainPacketHeaderMap@@A
  009bf	ff 75 ec	 push	 DWORD PTR $T10[ebp+4]
  009c2	6a 0a		 push	 10			; 0000000aH
  009c4	68 86 00 00 00	 push	 134			; 00000086H
  009c9	e8 00 00 00 00	 call	 ?Set@CNetworkPacketHeaderMap@@QAEXHUSPacketType@1@@Z ; CNetworkPacketHeaderMap::Set
; File E:\Metin2_server\SolWayneSF v6\ClientVS22\source\eterLib\NetPacketHeaderMap.h

; 13   : 				isDynamicSizePacket = bFlag;

  009ce	c6 45 ec 00	 mov	 BYTE PTR $T9[ebp+4], 0
; File E:\Metin2_server\SolWayneSF v6\ClientVS22\source\UserInterface\PythonNetworkStream.cpp

; 184  : 			Set(HEADER_GC_DAMAGE_INFO, CNetworkPacketHeaderMap::TPacketType(sizeof(TPacketGCDamageInfo), STATIC_SIZE_PACKET));

  009d2	b9 00 00 00 00	 mov	 ecx, OFFSET ?s_packetHeaderMap@?1??CheckPacket@CPythonNetworkStream@@IAE_NPAE@Z@4VCMainPacketHeaderMap@@A
  009d7	ff 75 ec	 push	 DWORD PTR $T9[ebp+4]
  009da	6a 0a		 push	 10			; 0000000aH
  009dc	68 87 00 00 00	 push	 135			; 00000087H
  009e1	e8 00 00 00 00	 call	 ?Set@CNetworkPacketHeaderMap@@QAEXHUSPacketType@1@@Z ; CNetworkPacketHeaderMap::Set
; File E:\Metin2_server\SolWayneSF v6\ClientVS22\source\eterLib\NetPacketHeaderMap.h

; 13   : 				isDynamicSizePacket = bFlag;

  009e6	c6 45 ec 00	 mov	 BYTE PTR $T8[ebp+4], 0
; File E:\Metin2_server\SolWayneSF v6\ClientVS22\source\UserInterface\PythonNetworkStream.cpp

; 186  : 			Set(HEADER_GC_HS_REQUEST, CNetworkPacketHeaderMap::TPacketType(sizeof(TPacketHSCheck), STATIC_SIZE_PACKET));

  009ea	b9 00 00 00 00	 mov	 ecx, OFFSET ?s_packetHeaderMap@?1??CheckPacket@CPythonNetworkStream@@IAE_NPAE@Z@4VCMainPacketHeaderMap@@A
  009ef	ff 75 ec	 push	 DWORD PTR $T8[ebp+4]
  009f2	68 93 01 00 00	 push	 403			; 00000193H
  009f7	68 cc 00 00 00	 push	 204			; 000000ccH
  009fc	e8 00 00 00 00	 call	 ?Set@CNetworkPacketHeaderMap@@QAEXHUSPacketType@1@@Z ; CNetworkPacketHeaderMap::Set
; File E:\Metin2_server\SolWayneSF v6\ClientVS22\source\eterLib\NetPacketHeaderMap.h

; 13   : 				isDynamicSizePacket = bFlag;

  00a01	c6 45 ec 00	 mov	 BYTE PTR $T7[ebp+4], 0
; File E:\Metin2_server\SolWayneSF v6\ClientVS22\source\UserInterface\PythonNetworkStream.cpp

; 187  : 			Set(HEADER_GC_XTRAP_CS1_REQUEST, CNetworkPacketHeaderMap::TPacketType(sizeof(TPacketXTrapCSVerify), STATIC_SIZE_PACKET));

  00a05	b9 00 00 00 00	 mov	 ecx, OFFSET ?s_packetHeaderMap@?1??CheckPacket@CPythonNetworkStream@@IAE_NPAE@Z@4VCMainPacketHeaderMap@@A
  00a0a	ff 75 ec	 push	 DWORD PTR $T7[ebp+4]
  00a0d	68 81 00 00 00	 push	 129			; 00000081H
  00a12	68 cd 00 00 00	 push	 205			; 000000cdH
  00a17	e8 00 00 00 00	 call	 ?Set@CNetworkPacketHeaderMap@@QAEXHUSPacketType@1@@Z ; CNetworkPacketHeaderMap::Set
; File E:\Metin2_server\SolWayneSF v6\ClientVS22\source\eterLib\NetPacketHeaderMap.h

; 13   : 				isDynamicSizePacket = bFlag;

  00a1c	c6 45 ec 01	 mov	 BYTE PTR $T6[ebp+4], 1
; File E:\Metin2_server\SolWayneSF v6\ClientVS22\source\UserInterface\PythonNetworkStream.cpp

; 189  : 			Set(HEADER_GC_HYBRIDCRYPT_KEYS,	CNetworkPacketHeaderMap::TPacketType(sizeof(TPacketGCHybridCryptKeys), DYNAMIC_SIZE_PACKET));

  00a20	b9 00 00 00 00	 mov	 ecx, OFFSET ?s_packetHeaderMap@?1??CheckPacket@CPythonNetworkStream@@IAE_NPAE@Z@4VCMainPacketHeaderMap@@A
  00a25	ff 75 ec	 push	 DWORD PTR $T6[ebp+4]
  00a28	6a 0b		 push	 11			; 0000000bH
  00a2a	68 98 00 00 00	 push	 152			; 00000098H
  00a2f	e8 00 00 00 00	 call	 ?Set@CNetworkPacketHeaderMap@@QAEXHUSPacketType@1@@Z ; CNetworkPacketHeaderMap::Set
; File E:\Metin2_server\SolWayneSF v6\ClientVS22\source\eterLib\NetPacketHeaderMap.h

; 13   : 				isDynamicSizePacket = bFlag;

  00a34	c6 45 ec 01	 mov	 BYTE PTR $T5[ebp+4], 1
; File E:\Metin2_server\SolWayneSF v6\ClientVS22\source\UserInterface\PythonNetworkStream.cpp

; 190  : 			Set(HEADER_GC_HYBRIDCRYPT_SDB,	CNetworkPacketHeaderMap::TPacketType(sizeof(TPacketGCHybridSDB), DYNAMIC_SIZE_PACKET));

  00a38	b9 00 00 00 00	 mov	 ecx, OFFSET ?s_packetHeaderMap@?1??CheckPacket@CPythonNetworkStream@@IAE_NPAE@Z@4VCMainPacketHeaderMap@@A
  00a3d	ff 75 ec	 push	 DWORD PTR $T5[ebp+4]
  00a40	6a 0b		 push	 11			; 0000000bH
  00a42	68 99 00 00 00	 push	 153			; 00000099H
  00a47	e8 00 00 00 00	 call	 ?Set@CNetworkPacketHeaderMap@@QAEXHUSPacketType@1@@Z ; CNetworkPacketHeaderMap::Set
; File E:\Metin2_server\SolWayneSF v6\ClientVS22\source\eterLib\NetPacketHeaderMap.h

; 13   : 				isDynamicSizePacket = bFlag;

  00a4c	c6 45 ec 00	 mov	 BYTE PTR $T4[ebp+4], 0
; File E:\Metin2_server\SolWayneSF v6\ClientVS22\source\UserInterface\PythonNetworkStream.cpp

; 191  : 			Set(HEADER_GC_SPECIFIC_EFFECT,	CNetworkPacketHeaderMap::TPacketType(sizeof(TPacketGCSpecificEffect), STATIC_SIZE_PACKET));

  00a50	b9 00 00 00 00	 mov	 ecx, OFFSET ?s_packetHeaderMap@?1??CheckPacket@CPythonNetworkStream@@IAE_NPAE@Z@4VCMainPacketHeaderMap@@A
  00a55	ff 75 ec	 push	 DWORD PTR $T4[ebp+4]
  00a58	68 85 00 00 00	 push	 133			; 00000085H
  00a5d	68 d0 00 00 00	 push	 208			; 000000d0H
  00a62	e8 00 00 00 00	 call	 ?Set@CNetworkPacketHeaderMap@@QAEXHUSPacketType@1@@Z ; CNetworkPacketHeaderMap::Set
; File E:\Metin2_server\SolWayneSF v6\ClientVS22\source\eterLib\NetPacketHeaderMap.h

; 13   : 				isDynamicSizePacket = bFlag;

  00a67	c6 45 ec 00	 mov	 BYTE PTR $T3[ebp+4], 0
; File E:\Metin2_server\SolWayneSF v6\ClientVS22\source\UserInterface\PythonNetworkStream.cpp

; 192  : 			Set(HEADER_GC_DRAGON_SOUL_REFINE,		CNetworkPacketHeaderMap::TPacketType(sizeof(TPacketGCDragonSoulRefine), STATIC_SIZE_PACKET));

  00a6b	b9 00 00 00 00	 mov	 ecx, OFFSET ?s_packetHeaderMap@?1??CheckPacket@CPythonNetworkStream@@IAE_NPAE@Z@4VCMainPacketHeaderMap@@A
  00a70	ff 75 ec	 push	 DWORD PTR $T3[ebp+4]
  00a73	6a 05		 push	 5
  00a75	68 d1 00 00 00	 push	 209			; 000000d1H
  00a7a	e8 00 00 00 00	 call	 ?Set@CNetworkPacketHeaderMap@@QAEXHUSPacketType@1@@Z ; CNetworkPacketHeaderMap::Set
; File E:\Metin2_server\SolWayneSF v6\ClientVS22\source\eterLib\NetPacketHeaderMap.h

; 13   : 				isDynamicSizePacket = bFlag;

  00a7f	c6 45 ec 00	 mov	 BYTE PTR $T2[ebp+4], 0
; File E:\Metin2_server\SolWayneSF v6\ClientVS22\source\UserInterface\PythonNetworkStream.cpp

; 194  : 			Set(HEADER_GC_SASH, CNetworkPacketHeaderMap::TPacketType(sizeof(TPacketSash), STATIC_SIZE_PACKET));

  00a83	b9 00 00 00 00	 mov	 ecx, OFFSET ?s_packetHeaderMap@?1??CheckPacket@CPythonNetworkStream@@IAE_NPAE@Z@4VCMainPacketHeaderMap@@A
  00a88	ff 75 ec	 push	 DWORD PTR $T2[ebp+4]
  00a8b	6a 1b		 push	 27			; 0000001bH
  00a8d	68 d7 00 00 00	 push	 215			; 000000d7H
  00a92	e8 00 00 00 00	 call	 ?Set@CNetworkPacketHeaderMap@@QAEXHUSPacketType@1@@Z ; CNetworkPacketHeaderMap::Set

; 195  : 			#endif
; 196  : 			
; 197  : 		}

  00a97	b8 00 00 00 00	 mov	 eax, OFFSET ?s_packetHeaderMap@?1??CheckPacket@CPythonNetworkStream@@IAE_NPAE@Z@4VCMainPacketHeaderMap@@A
  00a9c	8b 4d f4	 mov	 ecx, DWORD PTR __$EHRec$[ebp]
  00a9f	64 89 0d 00 00
	00 00		 mov	 DWORD PTR fs:0, ecx
  00aa6	59		 pop	 ecx
  00aa7	8b e5		 mov	 esp, ebp
  00aa9	5d		 pop	 ebp
  00aaa	c3		 ret	 0
_TEXT	ENDS
;	COMDAT text$x
text$x	SEGMENT
__unwindfunclet$??0CMainPacketHeaderMap@@QAE@XZ$0:
  00000	8b 4d f0	 mov	 ecx, DWORD PTR _this$[ebp]
  00003	e9 00 00 00 00	 jmp	 ??1CNetworkPacketHeaderMap@@UAE@XZ ; CNetworkPacketHeaderMap::~CNetworkPacketHeaderMap
  00008	cc		 int	 3
  00009	cc		 int	 3
  0000a	cc		 int	 3
  0000b	cc		 int	 3
  0000c	cc		 int	 3
__ehhandler$??0CMainPacketHeaderMap@@QAE@XZ:
  0000d	90		 npad	 1
  0000e	90		 npad	 1
  0000f	8b 54 24 08	 mov	 edx, DWORD PTR [esp+8]
  00013	8d 42 0c	 lea	 eax, DWORD PTR [edx+12]
  00016	8b 4a f0	 mov	 ecx, DWORD PTR [edx-16]
  00019	33 c8		 xor	 ecx, eax
  0001b	e8 00 00 00 00	 call	 @__security_check_cookie@4
  00020	b8 00 00 00 00	 mov	 eax, OFFSET __ehfuncinfo$??0CMainPacketHeaderMap@@QAE@XZ
  00025	e9 00 00 00 00	 jmp	 ___CxxFrameHandler3
text$x	ENDS
??0CMainPacketHeaderMap@@QAE@XZ ENDP			; CMainPacketHeaderMap::CMainPacketHeaderMap
; Function compile flags: /Ogtp
;	COMDAT ??_GCMainPacketHeaderMap@@UAEPAXI@Z
_TEXT	SEGMENT
___flags$ = 8						; size = 4
??_GCMainPacketHeaderMap@@UAEPAXI@Z PROC		; CMainPacketHeaderMap::`scalar deleting destructor', COMDAT
; _this$ = ecx
  00000	55		 push	 ebp
  00001	8b ec		 mov	 ebp, esp
  00003	56		 push	 esi
  00004	8b f1		 mov	 esi, ecx
  00006	e8 00 00 00 00	 call	 ??1CNetworkPacketHeaderMap@@UAE@XZ ; CNetworkPacketHeaderMap::~CNetworkPacketHeaderMap
  0000b	f6 45 08 01	 test	 BYTE PTR ___flags$[ebp], 1
  0000f	74 0b		 je	 SHORT $LN7@scalar
  00011	6a 0c		 push	 12			; 0000000cH
  00013	56		 push	 esi
  00014	e8 00 00 00 00	 call	 ??3@YAXPAXI@Z		; operator delete
  00019	83 c4 08	 add	 esp, 8
$LN7@scalar:
  0001c	8b c6		 mov	 eax, esi
  0001e	5e		 pop	 esi
  0001f	5d		 pop	 ebp
  00020	c2 04 00	 ret	 4
??_GCMainPacketHeaderMap@@UAEPAXI@Z ENDP		; CMainPacketHeaderMap::`scalar deleting destructor'
_TEXT	ENDS
; Function compile flags: /Ogtp
;	COMDAT ??1CMainPacketHeaderMap@@UAE@XZ
_TEXT	SEGMENT
??1CMainPacketHeaderMap@@UAE@XZ PROC			; CMainPacketHeaderMap::~CMainPacketHeaderMap, COMDAT
; _this$ = ecx
  00000	e9 00 00 00 00	 jmp	 ??1CNetworkPacketHeaderMap@@UAE@XZ ; CNetworkPacketHeaderMap::~CNetworkPacketHeaderMap
??1CMainPacketHeaderMap@@UAE@XZ ENDP			; CMainPacketHeaderMap::~CMainPacketHeaderMap
_TEXT	ENDS
; Function compile flags: /Ogtp
; File E:\Metin2_server\SolWayneSF v6\ClientVS22\source\UserInterface\PythonNetworkStream.cpp
;	COMDAT ?ExitApplication@CPythonNetworkStream@@QAEXXZ
_TEXT	SEGMENT
?ExitApplication@CPythonNetworkStream@@QAEXXZ PROC	; CPythonNetworkStream::ExitApplication, COMDAT
; _this$ = ecx

; 204  : 	if (__IsNotPing())

  00000	e8 00 00 00 00	 call	 ?__IsNotPing@CPythonNetworkStream@@IAE_NXZ ; CPythonNetworkStream::__IsNotPing
  00005	84 c0		 test	 al, al
  00007	0f 85 00 00 00
	00		 jne	 ?AbsoluteExitApplication@CPythonNetworkStream@@QAEXXZ ; CPythonNetworkStream::AbsoluteExitApplication

; 205  : 	{
; 206  : 		AbsoluteExitApplication();
; 207  : 	}
; 208  : 	else
; 209  : 	{
; 210  : 		SendChatPacket("/quit");

  0000d	6a 00		 push	 0
  0000f	68 00 00 00 00	 push	 OFFSET ??_C@_05CMMBDMDD@?1quit@
  00014	e8 00 00 00 00	 call	 ?SendChatPacket@CPythonNetworkStream@@QAE_NPBDE@Z ; CPythonNetworkStream::SendChatPacket

; 211  : 	}
; 212  : }

  00019	c3		 ret	 0
?ExitApplication@CPythonNetworkStream@@QAEXXZ ENDP	; CPythonNetworkStream::ExitApplication
_TEXT	ENDS
; Function compile flags: /Ogtp
; File E:\Metin2_server\SolWayneSF v6\ClientVS22\source\UserInterface\PythonNetworkStream.cpp
;	COMDAT ?ExitGame@CPythonNetworkStream@@QAEXXZ
_TEXT	SEGMENT
?ExitGame@CPythonNetworkStream@@QAEXXZ PROC		; CPythonNetworkStream::ExitGame, COMDAT
; _this$ = ecx

; 216  : 	if (__IsNotPing())

  00000	e8 00 00 00 00	 call	 ?__IsNotPing@CPythonNetworkStream@@IAE_NXZ ; CPythonNetworkStream::__IsNotPing
  00005	84 c0		 test	 al, al
  00007	0f 85 00 00 00
	00		 jne	 ?LogOutGame@CPythonNetworkStream@@QAEXXZ ; CPythonNetworkStream::LogOutGame

; 217  : 	{
; 218  : 		LogOutGame();
; 219  : 	}
; 220  : 	else
; 221  : 	{
; 222  : 		SendChatPacket("/phase_select");

  0000d	6a 00		 push	 0
  0000f	68 00 00 00 00	 push	 OFFSET ??_C@_0O@ODIJHOCP@?1phase_select@
  00014	e8 00 00 00 00	 call	 ?SendChatPacket@CPythonNetworkStream@@QAE_NPBDE@Z ; CPythonNetworkStream::SendChatPacket

; 223  : 	}
; 224  : }

  00019	c3		 ret	 0
?ExitGame@CPythonNetworkStream@@QAEXXZ ENDP		; CPythonNetworkStream::ExitGame
_TEXT	ENDS
; Function compile flags: /Ogtp
; File E:\Metin2_server\SolWayneSF v6\ClientVS22\source\UserInterface\PythonNetworkStream.cpp
;	COMDAT ?LogOutGame@CPythonNetworkStream@@QAEXXZ
_TEXT	SEGMENT
?LogOutGame@CPythonNetworkStream@@QAEXXZ PROC		; CPythonNetworkStream::LogOutGame, COMDAT
; _this$ = ecx

; 229  : 	if (__IsNotPing())

  00000	e8 00 00 00 00	 call	 ?__IsNotPing@CPythonNetworkStream@@IAE_NXZ ; CPythonNetworkStream::__IsNotPing
  00005	84 c0		 test	 al, al
  00007	0f 85 00 00 00
	00		 jne	 ?AbsoluteExitGame@CPythonNetworkStream@@QAEXXZ ; CPythonNetworkStream::AbsoluteExitGame

; 230  : 	{		
; 231  : 		AbsoluteExitGame();
; 232  : 	}	
; 233  : 	else
; 234  : 	{
; 235  : 		SendChatPacket("/logout");

  0000d	6a 00		 push	 0
  0000f	68 00 00 00 00	 push	 OFFSET ??_C@_07FOABJBDD@?1logout@
  00014	e8 00 00 00 00	 call	 ?SendChatPacket@CPythonNetworkStream@@QAE_NPBDE@Z ; CPythonNetworkStream::SendChatPacket

; 236  : 	}
; 237  : }

  00019	c3		 ret	 0
?LogOutGame@CPythonNetworkStream@@QAEXXZ ENDP		; CPythonNetworkStream::LogOutGame
_TEXT	ENDS
; Function compile flags: /Ogtp
; File E:\Metin2_server\SolWayneSF v6\ClientVS22\source\UserInterface\PythonNetworkStream.cpp
;	COMDAT ?AbsoluteExitGame@CPythonNetworkStream@@QAEXXZ
_TEXT	SEGMENT
?AbsoluteExitGame@CPythonNetworkStream@@QAEXXZ PROC	; CPythonNetworkStream::AbsoluteExitGame, COMDAT
; _this$ = ecx

; 240  : {

  00000	56		 push	 esi
  00001	8b f1		 mov	 esi, ecx

; 241  : 	if (!IsOnline())

  00003	e8 00 00 00 00	 call	 ?IsOnline@CNetworkStream@@QAE_NXZ ; CNetworkStream::IsOnline
  00008	84 c0		 test	 al, al
  0000a	74 0f		 je	 SHORT $LN1@AbsoluteEx

; 242  : 		return;
; 243  : 
; 244  : 	OnRemoteDisconnect();		

  0000c	8b 06		 mov	 eax, DWORD PTR [esi]
  0000e	8b ce		 mov	 ecx, esi
  00010	ff 50 0c	 call	 DWORD PTR [eax+12]

; 245  : 	Disconnect();

  00013	8b ce		 mov	 ecx, esi
  00015	5e		 pop	 esi
  00016	e9 00 00 00 00	 jmp	 ?Disconnect@CNetworkStream@@QAEXXZ ; CNetworkStream::Disconnect
$LN1@AbsoluteEx:
  0001b	5e		 pop	 esi

; 246  : }

  0001c	c3		 ret	 0
?AbsoluteExitGame@CPythonNetworkStream@@QAEXXZ ENDP	; CPythonNetworkStream::AbsoluteExitGame
_TEXT	ENDS
; Function compile flags: /Ogtp
; File E:\Metin2_server\SolWayneSF v6\ClientVS22\source\UserInterface\PythonNetworkStream.cpp
;	COMDAT ?AbsoluteExitApplication@CPythonNetworkStream@@QAEXXZ
_TEXT	SEGMENT
?AbsoluteExitApplication@CPythonNetworkStream@@QAEXXZ PROC ; CPythonNetworkStream::AbsoluteExitApplication, COMDAT
; _this$dead$ = ecx

; 250  : 	PostQuitMessage(0);

  00000	6a 00		 push	 0
  00002	ff 15 00 00 00
	00		 call	 DWORD PTR __imp__PostQuitMessage@4

; 251  : }

  00008	c3		 ret	 0
?AbsoluteExitApplication@CPythonNetworkStream@@QAEXXZ ENDP ; CPythonNetworkStream::AbsoluteExitApplication
_TEXT	ENDS
; Function compile flags: /Ogtp
; File E:\Metin2_server\SolWayneSF v6\ClientVS22\source\UserInterface\PythonNetworkStream.cpp
;	COMDAT ?__IsNotPing@CPythonNetworkStream@@IAE_NXZ
_TEXT	SEGMENT
?__IsNotPing@CPythonNetworkStream@@IAE_NXZ PROC		; CPythonNetworkStream::__IsNotPing, COMDAT
; _this$dead$ = ecx

; 255  : 	//        .
; 256  : 	return false;

  00000	32 c0		 xor	 al, al

; 257  : }

  00002	c3		 ret	 0
?__IsNotPing@CPythonNetworkStream@@IAE_NXZ ENDP		; CPythonNetworkStream::__IsNotPing
_TEXT	ENDS
; Function compile flags: /Ogtp
; File E:\Metin2_server\SolWayneSF v6\ClientVS22\source\UserInterface\PythonNetworkStream.cpp
;	COMDAT ?GetGuildID@CPythonNetworkStream@@QAEKXZ
_TEXT	SEGMENT
?GetGuildID@CPythonNetworkStream@@QAEKXZ PROC		; CPythonNetworkStream::GetGuildID, COMDAT
; _this$ = ecx

; 261  : 	return m_dwGuildID;

  00000	8b 81 b0 00 00
	00		 mov	 eax, DWORD PTR [ecx+176]

; 262  : }

  00006	c3		 ret	 0
?GetGuildID@CPythonNetworkStream@@QAEKXZ ENDP		; CPythonNetworkStream::GetGuildID
_TEXT	ENDS
; Function compile flags: /Ogtp
; File E:\Metin2_server\SolWayneSF v6\ClientVS22\source\UserInterface\PythonNetworkStream.cpp
;	COMDAT ?UploadMark@CPythonNetworkStream@@QAEIPBD@Z
_TEXT	SEGMENT
_uError$ = -4						; size = 4
_c_szImageFileName$ = 8					; size = 4
?UploadMark@CPythonNetworkStream@@QAEIPBD@Z PROC	; CPythonNetworkStream::UploadMark, COMDAT
; _this$ = ecx

; 265  : {

  00000	55		 push	 ebp
  00001	8b ec		 mov	 ebp, esp
  00003	51		 push	 ecx
  00004	56		 push	 esi
  00005	8b f1		 mov	 esi, ecx

; 266  : 	// MARK_BUG_FIX
; 267  : 	//      0.
; 268  : 	if (0 == m_dwGuildID)

  00007	8b 86 b0 00 00
	00		 mov	 eax, DWORD PTR [esi+176]
  0000d	85 c0		 test	 eax, eax
  0000f	75 0c		 jne	 SHORT $LN4@UploadMark

; 269  : 		return ERROR_MARK_UPLOAD_NEED_RECONNECT;

  00011	b8 06 00 00 00	 mov	 eax, 6
  00016	5e		 pop	 esi

; 302  : 		return ERROR_MARK_CHECK_NEED_RECONNECT;
; 303  : 
; 304  : 	return ERROR_NONE;
; 305  : }

  00017	8b e5		 mov	 esp, ebp
  00019	5d		 pop	 ebp
  0001a	c2 04 00	 ret	 4
$LN4@UploadMark:

; 270  : 
; 271  : 	gs_nextDownloadMarkTime = 0;
; 272  : 	// END_OF_MARK_BUG_FIX
; 273  : 
; 274  : 	UINT uError=ERROR_UNKNOWN;
; 275  : 	CGuildMarkUploader& rkGuildMarkUploader=CGuildMarkUploader::Instance();
; 276  : 	if (!rkGuildMarkUploader.Connect(m_kMarkAuth.m_kNetAddr, m_kMarkAuth.m_dwHandle, m_kMarkAuth.m_dwRandomKey, m_dwGuildID, c_szImageFileName, &uError))

  0001d	8d 4d fc	 lea	 ecx, DWORD PTR _uError$[ebp]
  00020	c7 05 00 00 00
	00 00 00 00 00	 mov	 DWORD PTR ?gs_nextDownloadMarkTime@@3KA, 0
  0002a	51		 push	 ecx
  0002b	ff 75 08	 push	 DWORD PTR _c_szImageFileName$[ebp]
  0002e	8b 0d 00 00 00
	00		 mov	 ecx, DWORD PTR ?ms_singleton@?$CSingleton@VCGuildMarkUploader@@@@0PAVCGuildMarkUploader@@A ; CSingleton<CGuildMarkUploader>::ms_singleton
  00034	50		 push	 eax
  00035	ff b6 14 79 00
	00		 push	 DWORD PTR [esi+30996]
  0003b	8d 86 00 79 00
	00		 lea	 eax, DWORD PTR [esi+30976]
  00041	c7 45 fc 01 00
	00 00		 mov	 DWORD PTR _uError$[ebp], 1
  00048	ff b6 10 79 00
	00		 push	 DWORD PTR [esi+30992]
  0004e	50		 push	 eax
  0004f	e8 00 00 00 00	 call	 ?Connect@CGuildMarkUploader@@QAE_NABVCNetworkAddress@@KKKPBDPAI@Z ; CGuildMarkUploader::Connect
  00054	84 c0		 test	 al, al
  00056	75 4c		 jne	 SHORT $LN2@UploadMark

; 277  : 	{
; 278  : 		switch (uError)

  00058	8b 45 fc	 mov	 eax, DWORD PTR _uError$[ebp]
  0005b	48		 dec	 eax
  0005c	83 f8 03	 cmp	 eax, 3
  0005f	77 37		 ja	 SHORT $LN10@UploadMark
  00061	ff 24 85 00 00
	00 00		 jmp	 DWORD PTR $LN13@UploadMark[eax*4]
$LN6@UploadMark:

; 279  : 		{
; 280  : 			case CGuildMarkUploader::ERROR_CONNECT:
; 281  : 				return ERROR_CONNECT_MARK_SERVER;

  00068	b8 02 00 00 00	 mov	 eax, 2
  0006d	5e		 pop	 esi

; 302  : 		return ERROR_MARK_CHECK_NEED_RECONNECT;
; 303  : 
; 304  : 	return ERROR_NONE;
; 305  : }

  0006e	8b e5		 mov	 esp, ebp
  00070	5d		 pop	 ebp
  00071	c2 04 00	 ret	 4
$LN7@UploadMark:

; 282  : 				break;
; 283  : 			case CGuildMarkUploader::ERROR_LOAD:
; 284  : 				return ERROR_LOAD_MARK;

  00074	b8 03 00 00 00	 mov	 eax, 3
  00079	5e		 pop	 esi

; 302  : 		return ERROR_MARK_CHECK_NEED_RECONNECT;
; 303  : 
; 304  : 	return ERROR_NONE;
; 305  : }

  0007a	8b e5		 mov	 esp, ebp
  0007c	5d		 pop	 ebp
  0007d	c2 04 00	 ret	 4
$LN8@UploadMark:

; 285  : 				break;
; 286  : 			case CGuildMarkUploader::ERROR_WIDTH:
; 287  : 				return ERROR_MARK_WIDTH;

  00080	b8 04 00 00 00	 mov	 eax, 4
  00085	5e		 pop	 esi

; 302  : 		return ERROR_MARK_CHECK_NEED_RECONNECT;
; 303  : 
; 304  : 	return ERROR_NONE;
; 305  : }

  00086	8b e5		 mov	 esp, ebp
  00088	5d		 pop	 ebp
  00089	c2 04 00	 ret	 4
$LN9@UploadMark:

; 288  : 				break;
; 289  : 			case CGuildMarkUploader::ERROR_HEIGHT:
; 290  : 				return ERROR_MARK_HEIGHT;

  0008c	b8 05 00 00 00	 mov	 eax, 5
  00091	5e		 pop	 esi

; 302  : 		return ERROR_MARK_CHECK_NEED_RECONNECT;
; 303  : 
; 304  : 	return ERROR_NONE;
; 305  : }

  00092	8b e5		 mov	 esp, ebp
  00094	5d		 pop	 ebp
  00095	c2 04 00	 ret	 4
$LN10@UploadMark:

; 291  : 				break;
; 292  : 			default:
; 293  : 				return ERROR_UNKNOWN;

  00098	b8 01 00 00 00	 mov	 eax, 1
  0009d	5e		 pop	 esi

; 302  : 		return ERROR_MARK_CHECK_NEED_RECONNECT;
; 303  : 
; 304  : 	return ERROR_NONE;
; 305  : }

  0009e	8b e5		 mov	 esp, ebp
  000a0	5d		 pop	 ebp
  000a1	c2 04 00	 ret	 4
$LN2@UploadMark:

; 294  : 		}
; 295  : 	}
; 296  : 
; 297  : 	// MARK_BUG_FIX	
; 298  : 	__DownloadMark();

  000a4	8b ce		 mov	 ecx, esi
  000a6	e8 00 00 00 00	 call	 ?__DownloadMark@CPythonNetworkStream@@IAEXXZ ; CPythonNetworkStream::__DownloadMark

; 299  : 	// END_OF_MARK_BUG_FIX
; 300  : 	
; 301  : 	if (CGuildMarkManager::INVALID_MARK_ID == CGuildMarkManager::Instance().GetMarkID(m_dwGuildID))

  000ab	ff b6 b0 00 00
	00		 push	 DWORD PTR [esi+176]
  000b1	8b 0d 00 00 00
	00		 mov	 ecx, DWORD PTR ?ms_singleton@?$singleton@VCGuildMarkManager@@@@0PAVCGuildMarkManager@@A ; singleton<CGuildMarkManager>::ms_singleton
  000b7	e8 00 00 00 00	 call	 ?GetMarkID@CGuildMarkManager@@QAEKK@Z ; CGuildMarkManager::GetMarkID
  000bc	33 c9		 xor	 ecx, ecx
  000be	ba 07 00 00 00	 mov	 edx, 7
  000c3	83 f8 ff	 cmp	 eax, -1
  000c6	5e		 pop	 esi
  000c7	0f 44 ca	 cmove	 ecx, edx
  000ca	8b c1		 mov	 eax, ecx

; 302  : 		return ERROR_MARK_CHECK_NEED_RECONNECT;
; 303  : 
; 304  : 	return ERROR_NONE;
; 305  : }

  000cc	8b e5		 mov	 esp, ebp
  000ce	5d		 pop	 ebp
  000cf	c2 04 00	 ret	 4
  000d2	66 90		 npad	 2
$LN13@UploadMark:
  000d4	00 00 00 00	 DD	 $LN6@UploadMark
  000d8	00 00 00 00	 DD	 $LN7@UploadMark
  000dc	00 00 00 00	 DD	 $LN8@UploadMark
  000e0	00 00 00 00	 DD	 $LN9@UploadMark
?UploadMark@CPythonNetworkStream@@QAEIPBD@Z ENDP	; CPythonNetworkStream::UploadMark
_TEXT	ENDS
; Function compile flags: /Ogtp
; File E:\Metin2_server\SolWayneSF v6\ClientVS22\source\UserInterface\PythonNetworkStream.cpp
;	COMDAT ?UploadSymbol@CPythonNetworkStream@@QAEIPBD@Z
_TEXT	SEGMENT
_uError$ = -4						; size = 4
_c_szImageFileName$ = 8					; size = 4
?UploadSymbol@CPythonNetworkStream@@QAEIPBD@Z PROC	; CPythonNetworkStream::UploadSymbol, COMDAT
; _this$ = ecx

; 308  : {

  00000	55		 push	 ebp
  00001	8b ec		 mov	 ebp, esp
  00003	51		 push	 ecx

; 309  : 	UINT uError=ERROR_UNKNOWN;
; 310  : 	CGuildMarkUploader& rkGuildMarkUploader=CGuildMarkUploader::Instance();
; 311  : 	if (!rkGuildMarkUploader.ConnectToSendSymbol(m_kMarkAuth.m_kNetAddr, m_kMarkAuth.m_dwHandle, m_kMarkAuth.m_dwRandomKey, m_dwGuildID, c_szImageFileName, &uError))

  00004	8d 45 fc	 lea	 eax, DWORD PTR _uError$[ebp]
  00007	c7 45 fc 01 00
	00 00		 mov	 DWORD PTR _uError$[ebp], 1
  0000e	50		 push	 eax
  0000f	ff 75 08	 push	 DWORD PTR _c_szImageFileName$[ebp]
  00012	8d 81 00 79 00
	00		 lea	 eax, DWORD PTR [ecx+30976]
  00018	ff b1 b0 00 00
	00		 push	 DWORD PTR [ecx+176]
  0001e	ff b1 14 79 00
	00		 push	 DWORD PTR [ecx+30996]
  00024	ff b1 10 79 00
	00		 push	 DWORD PTR [ecx+30992]
  0002a	8b 0d 00 00 00
	00		 mov	 ecx, DWORD PTR ?ms_singleton@?$CSingleton@VCGuildMarkUploader@@@@0PAVCGuildMarkUploader@@A ; CSingleton<CGuildMarkUploader>::ms_singleton
  00030	50		 push	 eax
  00031	e8 00 00 00 00	 call	 ?ConnectToSendSymbol@CGuildMarkUploader@@QAE_NABVCNetworkAddress@@KKKPBDPAI@Z ; CGuildMarkUploader::ConnectToSendSymbol
  00036	84 c0		 test	 al, al
  00038	75 47		 jne	 SHORT $LN2@UploadSymb

; 312  : 	{
; 313  : 		switch (uError)

  0003a	8b 45 fc	 mov	 eax, DWORD PTR _uError$[ebp]
  0003d	48		 dec	 eax
  0003e	83 f8 03	 cmp	 eax, 3
  00041	77 33		 ja	 SHORT $LN9@UploadSymb
  00043	ff 24 85 00 00
	00 00		 jmp	 DWORD PTR $LN11@UploadSymb[eax*4]
$LN5@UploadSymb:

; 314  : 		{
; 315  : 			case CGuildMarkUploader::ERROR_CONNECT:
; 316  : 				return ERROR_CONNECT_MARK_SERVER;

  0004a	b8 02 00 00 00	 mov	 eax, 2

; 333  : }

  0004f	8b e5		 mov	 esp, ebp
  00051	5d		 pop	 ebp
  00052	c2 04 00	 ret	 4
$LN6@UploadSymb:

; 317  : 				break;
; 318  : 			case CGuildMarkUploader::ERROR_LOAD:
; 319  : 				return ERROR_LOAD_MARK;

  00055	b8 03 00 00 00	 mov	 eax, 3

; 333  : }

  0005a	8b e5		 mov	 esp, ebp
  0005c	5d		 pop	 ebp
  0005d	c2 04 00	 ret	 4
$LN7@UploadSymb:

; 320  : 				break;
; 321  : 			case CGuildMarkUploader::ERROR_WIDTH:
; 322  : 				return ERROR_MARK_WIDTH;

  00060	b8 04 00 00 00	 mov	 eax, 4

; 333  : }

  00065	8b e5		 mov	 esp, ebp
  00067	5d		 pop	 ebp
  00068	c2 04 00	 ret	 4
$LN8@UploadSymb:

; 323  : 				break;
; 324  : 			case CGuildMarkUploader::ERROR_HEIGHT:
; 325  : 				return ERROR_MARK_HEIGHT;

  0006b	b8 05 00 00 00	 mov	 eax, 5

; 333  : }

  00070	8b e5		 mov	 esp, ebp
  00072	5d		 pop	 ebp
  00073	c2 04 00	 ret	 4
$LN9@UploadSymb:

; 326  : 				break;
; 327  : 			default:
; 328  : 				return ERROR_UNKNOWN;

  00076	b8 01 00 00 00	 mov	 eax, 1

; 333  : }

  0007b	8b e5		 mov	 esp, ebp
  0007d	5d		 pop	 ebp
  0007e	c2 04 00	 ret	 4
$LN2@UploadSymb:

; 329  : 		}
; 330  : 	}
; 331  : 
; 332  : 	return ERROR_NONE;

  00081	33 c0		 xor	 eax, eax

; 333  : }

  00083	8b e5		 mov	 esp, ebp
  00085	5d		 pop	 ebp
  00086	c2 04 00	 ret	 4
  00089	0f 1f 00	 npad	 3
$LN11@UploadSymb:
  0008c	00 00 00 00	 DD	 $LN5@UploadSymb
  00090	00 00 00 00	 DD	 $LN6@UploadSymb
  00094	00 00 00 00	 DD	 $LN7@UploadSymb
  00098	00 00 00 00	 DD	 $LN8@UploadSymb
?UploadSymbol@CPythonNetworkStream@@QAEIPBD@Z ENDP	; CPythonNetworkStream::UploadSymbol
_TEXT	ENDS
; Function compile flags: /Ogtp
; File E:\Metin2_server\SolWayneSF v6\ClientVS22\source\UserInterface\PythonNetworkStream.cpp
;	COMDAT ?__DownloadMark@CPythonNetworkStream@@IAEXXZ
_TEXT	SEGMENT
?__DownloadMark@CPythonNetworkStream@@IAEXXZ PROC	; CPythonNetworkStream::__DownloadMark, COMDAT
; _this$ = ecx

; 336  : {

  00000	56		 push	 esi
  00001	8b f1		 mov	 esi, ecx

; 337  : 	// 3    .
; 338  : 	DWORD curTime = ELTimer_GetMSec();

  00003	e8 00 00 00 00	 call	 ?ELTimer_GetMSec@@YAKXZ	; ELTimer_GetMSec

; 339  : 
; 340  : 	if (curTime < gs_nextDownloadMarkTime)

  00008	3b 05 00 00 00
	00		 cmp	 eax, DWORD PTR ?gs_nextDownloadMarkTime@@3KA
  0000e	72 28		 jb	 SHORT $LN1@DownloadMa

; 341  : 		return;
; 342  : 
; 343  : 	gs_nextDownloadMarkTime = curTime + 60000 * 3; // 3
; 344  : 
; 345  : 	CGuildMarkDownloader& rkGuildMarkDownloader = CGuildMarkDownloader::Instance();
; 346  : 	rkGuildMarkDownloader.Connect(m_kMarkAuth.m_kNetAddr, m_kMarkAuth.m_dwHandle, m_kMarkAuth.m_dwRandomKey);

  00010	ff b6 14 79 00
	00		 push	 DWORD PTR [esi+30996]
  00016	8b 0d 00 00 00
	00		 mov	 ecx, DWORD PTR ?ms_singleton@?$CSingleton@VCGuildMarkDownloader@@@@0PAVCGuildMarkDownloader@@A ; CSingleton<CGuildMarkDownloader>::ms_singleton
  0001c	05 20 bf 02 00	 add	 eax, 180000		; 0002bf20H
  00021	ff b6 10 79 00
	00		 push	 DWORD PTR [esi+30992]
  00027	a3 00 00 00 00	 mov	 DWORD PTR ?gs_nextDownloadMarkTime@@3KA, eax
  0002c	8d 86 00 79 00
	00		 lea	 eax, DWORD PTR [esi+30976]
  00032	50		 push	 eax
  00033	e8 00 00 00 00	 call	 ?Connect@CGuildMarkDownloader@@QAE_NABVCNetworkAddress@@KK@Z ; CGuildMarkDownloader::Connect
$LN1@DownloadMa:

; 347  : }

  00038	5e		 pop	 esi
  00039	c3		 ret	 0
?__DownloadMark@CPythonNetworkStream@@IAEXXZ ENDP	; CPythonNetworkStream::__DownloadMark
_TEXT	ENDS
; Function compile flags: /Ogtp
; File E:\Metin2_server\SolWayneSF v6\ClientVS22\source\UserInterface\PythonNetworkStream.cpp
;	COMDAT ?__DownloadSymbol@CPythonNetworkStream@@IAEXABV?$vector@KV?$allocator@K@std@@@std@@@Z
_TEXT	SEGMENT
_c_rkVec_dwGuildID$ = 8					; size = 4
?__DownloadSymbol@CPythonNetworkStream@@IAEXABV?$vector@KV?$allocator@K@std@@@std@@@Z PROC ; CPythonNetworkStream::__DownloadSymbol, COMDAT
; _this$ = ecx

; 350  : {

  00000	55		 push	 ebp
  00001	8b ec		 mov	 ebp, esp

; 351  : 	CGuildMarkDownloader& rkGuildMarkDownloader=CGuildMarkDownloader::Instance();
; 352  : 	rkGuildMarkDownloader.ConnectToRecvSymbol(m_kMarkAuth.m_kNetAddr, m_kMarkAuth.m_dwHandle, m_kMarkAuth.m_dwRandomKey, c_rkVec_dwGuildID);

  00003	ff 75 08	 push	 DWORD PTR _c_rkVec_dwGuildID$[ebp]
  00006	8d 81 00 79 00
	00		 lea	 eax, DWORD PTR [ecx+30976]
  0000c	ff b1 14 79 00
	00		 push	 DWORD PTR [ecx+30996]
  00012	ff b1 10 79 00
	00		 push	 DWORD PTR [ecx+30992]
  00018	8b 0d 00 00 00
	00		 mov	 ecx, DWORD PTR ?ms_singleton@?$CSingleton@VCGuildMarkDownloader@@@@0PAVCGuildMarkDownloader@@A ; CSingleton<CGuildMarkDownloader>::ms_singleton
  0001e	50		 push	 eax
  0001f	e8 00 00 00 00	 call	 ?ConnectToRecvSymbol@CGuildMarkDownloader@@QAE_NABVCNetworkAddress@@KKABV?$vector@KV?$allocator@K@std@@@std@@@Z ; CGuildMarkDownloader::ConnectToRecvSymbol

; 353  : }

  00024	5d		 pop	 ebp
  00025	c2 04 00	 ret	 4
