; Listing generated by Microsoft (R) Optimizing Compiler Version 19.34.31937.0 

	TITLE	e:\metin2_server\solwaynesf v6\clientvs22\vs_files\userinterface\distribute\pythonplayerinput.obj
	.686P
	.XMM
	include listing.inc
	.model	flat

INCLUDELIB OLDNAMES

PUBLIC	??_C@_0BB@KPNAHCEN@SetPCTargetBoard@		; `string'
PUBLIC	??_C@_0BE@DLANHBIF@OnFishingWrongPlace@		; `string'
PUBLIC	??_C@_0DD@MNMGJOCJ@CPythonPlayer?3?3__OnPressItem?5?9?5@ ; `string'
PUBLIC	??_C@_0M@FBIHMJDM@EMPTY_ARROW@			; `string'
PUBLIC	??_C@_0BB@BOHMBBJL@OnCannotUseSkill@		; `string'
PUBLIC	??_C@_07OAOBINCH@IN_SAFE@			; `string'
PUBLIC	??_C@_0N@OPOOJDCJ@OnCannotShot@			; `string'
PUBLIC	??_C@_0P@BFHKDLNH@OnCannotAttack@		; `string'
PUBLIC	??_C@_0N@KDALDMKB@DEST_IN_SAFE@			; `string'
EXTRN	?Logn@@YAXIPBD@Z:PROC				; Logn
EXTRN	?CameraRotationToCharacterRotation@@YAMM@Z:PROC	; CameraRotationToCharacterRotation
EXTRN	?SetFlyEventHandler@CActorInstance@@QAEXPAVIFlyEventHandler@@@Z:PROC ; CActorInstance::SetFlyEventHandler
;	COMDAT ?s_dwLastCancelTime@?6??NEW_CancelFishing@CPythonPlayer@@QAE_NXZ@4KA
_BSS	SEGMENT
?s_dwLastCancelTime@?6??NEW_CancelFishing@CPythonPlayer@@QAE_NXZ@4KA DD 01H DUP (?) ; `CPythonPlayer::NEW_CancelFishing'::`7'::s_dwLastCancelTime
_BSS	ENDS
;	COMDAT ?s_dwLastPickItemID@?1??__OnPressItem@CPythonPlayer@@IAEXAAVCInstanceBase@@K@Z@4KA
_BSS	SEGMENT
?s_dwLastPickItemID@?1??__OnPressItem@CPythonPlayer@@IAEXAAVCInstanceBase@@K@Z@4KA DD 01H DUP (?) ; `CPythonPlayer::__OnPressItem'::`2'::s_dwLastPickItemID
_BSS	ENDS
;	COMDAT ??_C@_0N@KDALDMKB@DEST_IN_SAFE@
CONST	SEGMENT
??_C@_0N@KDALDMKB@DEST_IN_SAFE@ DB 'DEST_IN_SAFE', 00H	; `string'
CONST	ENDS
;	COMDAT ??_C@_0P@BFHKDLNH@OnCannotAttack@
CONST	SEGMENT
??_C@_0P@BFHKDLNH@OnCannotAttack@ DB 'OnCannotAttack', 00H ; `string'
CONST	ENDS
;	COMDAT ??_C@_0N@OPOOJDCJ@OnCannotShot@
CONST	SEGMENT
??_C@_0N@OPOOJDCJ@OnCannotShot@ DB 'OnCannotShot', 00H	; `string'
CONST	ENDS
;	COMDAT ??_C@_07OAOBINCH@IN_SAFE@
CONST	SEGMENT
??_C@_07OAOBINCH@IN_SAFE@ DB 'IN_SAFE', 00H		; `string'
CONST	ENDS
;	COMDAT ??_C@_0BB@BOHMBBJL@OnCannotUseSkill@
CONST	SEGMENT
??_C@_0BB@BOHMBBJL@OnCannotUseSkill@ DB 'OnCannotUseSkill', 00H ; `string'
CONST	ENDS
;	COMDAT ??_C@_0M@FBIHMJDM@EMPTY_ARROW@
CONST	SEGMENT
??_C@_0M@FBIHMJDM@EMPTY_ARROW@ DB 'EMPTY_ARROW', 00H	; `string'
CONST	ENDS
;	COMDAT ??_C@_0DD@MNMGJOCJ@CPythonPlayer?3?3__OnPressItem?5?9?5@
CONST	SEGMENT
??_C@_0DD@MNMGJOCJ@CPythonPlayer?3?3__OnPressItem?5?9?5@ DB 'CPythonPlaye'
	DB	'r::__OnPressItem - ALREADY PICKED ITEM', 00H ; `string'
CONST	ENDS
;	COMDAT ??_C@_0BE@DLANHBIF@OnFishingWrongPlace@
CONST	SEGMENT
??_C@_0BE@DLANHBIF@OnFishingWrongPlace@ DB 'OnFishingWrongPlace', 00H ; `string'
CONST	ENDS
;	COMDAT ??_C@_0BB@KPNAHCEN@SetPCTargetBoard@
CONST	SEGMENT
??_C@_0BB@KPNAHCEN@SetPCTargetBoard@ DB 'SetPCTargetBoard', 00H ; `string'
PUBLIC	?GetScreenWidth@CWindowManager@UI@@QAEJXZ	; UI::CWindowManager::GetScreenWidth
PUBLIC	?GetScreenHeight@CWindowManager@UI@@QAEJXZ	; UI::CWindowManager::GetScreenHeight
PUBLIC	?empty@?$vector@KV?$allocator@K@std@@@std@@QBE_NXZ ; std::vector<unsigned long,std::allocator<unsigned long> >::empty
PUBLIC	?__ReserveProcess_ClickActor@CPythonPlayer@@IAEXXZ ; CPythonPlayer::__ReserveProcess_ClickActor
PUBLIC	?__SetAutoAttackTargetActorID@CPythonPlayer@@IAEXK@Z ; CPythonPlayer::__SetAutoAttackTargetActorID
PUBLIC	?__ReserveUseSkill@CPythonPlayer@@IAEXKKK@Z	; CPythonPlayer::__ReserveUseSkill
PUBLIC	?__IsReservedUseSkill@CPythonPlayer@@IAE_NK@Z	; CPythonPlayer::__IsReservedUseSkill
PUBLIC	?__ReserveClickGround@CPythonPlayer@@IAEXABUD3DXVECTOR3@@@Z ; CPythonPlayer::__ReserveClickGround
PUBLIC	?__ReserveClickItem@CPythonPlayer@@IAEXK@Z	; CPythonPlayer::__ReserveClickItem
PUBLIC	?GetDegreeFromPosition@CPythonPlayer@@IAEMHHHH@Z ; CPythonPlayer::GetDegreeFromPosition
PUBLIC	?NEW_GetMouseDirRotation@CPythonPlayer@@IAEXMMPAM@Z ; CPythonPlayer::NEW_GetMouseDirRotation
PUBLIC	?NEW_GetMultiKeyDirRotation@CPythonPlayer@@IAEX_N000PAM@Z ; CPythonPlayer::NEW_GetMultiKeyDirRotation
PUBLIC	?__CanAttack@CPythonPlayer@@IAE_NXZ		; CPythonPlayer::__CanAttack
PUBLIC	?__CanMove@CPythonPlayer@@IAE_NXZ		; CPythonPlayer::__CanMove
PUBLIC	?__CanShot@CPythonPlayer@@IAE_NAAVCInstanceBase@@0@Z ; CPythonPlayer::__CanShot
PUBLIC	?NEW_ResetCameraRotation@CPythonPlayer@@QAEXXZ	; CPythonPlayer::NEW_ResetCameraRotation
PUBLIC	?NEW_SetAutoCameraRotationSpeed@CPythonPlayer@@QAEXM@Z ; CPythonPlayer::NEW_SetAutoCameraRotationSpeed
PUBLIC	?NEW_IsEmptyReservedDelayTime@CPythonPlayer@@QAE_NM@Z ; CPythonPlayer::NEW_IsEmptyReservedDelayTime
PUBLIC	?NEW_Attack@CPythonPlayer@@QAEXXZ		; CPythonPlayer::NEW_Attack
PUBLIC	?NEW_Fishing@CPythonPlayer@@QAEXXZ		; CPythonPlayer::NEW_Fishing
PUBLIC	?NEW_CancelFishing@CPythonPlayer@@QAE_NXZ	; CPythonPlayer::NEW_CancelFishing
PUBLIC	?NEW_MoveToDirection@CPythonPlayer@@QAE_NM@Z	; CPythonPlayer::NEW_MoveToDirection
PUBLIC	?__OnPressScreen@CPythonPlayer@@IAEXAAVCInstanceBase@@@Z ; CPythonPlayer::__OnPressScreen
PUBLIC	?__OnPressGround@CPythonPlayer@@IAEXAAVCInstanceBase@@ABUD3DXVECTOR3@@@Z ; CPythonPlayer::__OnPressGround
PUBLIC	?__IsMovableGroundDistance@CPythonPlayer@@IAE_NAAVCInstanceBase@@ABUD3DXVECTOR3@@@Z ; CPythonPlayer::__IsMovableGroundDistance
PUBLIC	?__OnClickGround@CPythonPlayer@@IAEXAAVCInstanceBase@@ABUD3DXVECTOR3@@@Z ; CPythonPlayer::__OnClickGround
PUBLIC	?__OnPressItem@CPythonPlayer@@IAEXAAVCInstanceBase@@K@Z ; CPythonPlayer::__OnPressItem
PUBLIC	?__OnPressActor@CPythonPlayer@@IAEXAAVCInstanceBase@@K_N@Z ; CPythonPlayer::__OnPressActor
PUBLIC	?__OnClickActor@CPythonPlayer@@IAEXAAVCInstanceBase@@K_N@Z ; CPythonPlayer::__OnClickActor
PUBLIC	?__OnClickItem@CPythonPlayer@@IAEXAAVCInstanceBase@@K@Z ; CPythonPlayer::__OnClickItem
PUBLIC	?OpenCharacterMenu@CPythonPlayer@@QAEXK@Z	; CPythonPlayer::OpenCharacterMenu
PUBLIC	?__GetDeadTargetInstancePtr@CPythonPlayer@@IAEPAVCInstanceBase@@XZ ; CPythonPlayer::__GetDeadTargetInstancePtr
PUBLIC	?__ChangeTargetToPickedInstance@CPythonPlayer@@IAE_NXZ ; CPythonPlayer::__ChangeTargetToPickedInstance
PUBLIC	?__SetTargetVID@CPythonPlayer@@IAEXK@Z		; CPythonPlayer::__SetTargetVID
PUBLIC	?__GetTargetActorPtr@CPythonPlayer@@IAEPAVCInstanceBase@@XZ ; CPythonPlayer::__GetTargetActorPtr
PUBLIC	?GetTargetVID@CPythonPlayer@@QAEKXZ		; CPythonPlayer::GetTargetVID
PUBLIC	?__GetTargetVID@CPythonPlayer@@IAEKXZ		; CPythonPlayer::__GetTargetVID
PUBLIC	?__IsTarget@CPythonPlayer@@IAE_NXZ		; CPythonPlayer::__IsTarget
PUBLIC	?PickCloseItemVector@CPythonPlayer@@QAEXXZ	; CPythonPlayer::PickCloseItemVector
PUBLIC	?PickCloseItem@CPythonPlayer@@QAEXXZ		; CPythonPlayer::PickCloseItem
PUBLIC	?__GetPickableDistance@CPythonPlayer@@IAEKXZ	; CPythonPlayer::__GetPickableDistance
PUBLIC	?GetNormalBowAttackFlyEventHandler@CPythonPlayerEventHandler@@QAEPAVIFlyEventHandler@@PAVCInstanceBase@@0@Z ; CPythonPlayerEventHandler::GetNormalBowAttackFlyEventHandler
PUBLIC	?NEW_Stop@CPythonPlayer@@QAEXXZ			; CPythonPlayer::NEW_Stop
PUBLIC	?__ClearAutoAttackTargetActorID@CPythonPlayer@@IAEXXZ ; CPythonPlayer::__ClearAutoAttackTargetActorID
PUBLIC	?__ReserveClickActor@CPythonPlayer@@IAEXK@Z	; CPythonPlayer::__ReserveClickActor
PUBLIC	?__IsSameTargetVID@CPythonPlayer@@IAE_NK@Z	; CPythonPlayer::__IsSameTargetVID
PUBLIC	?SetTarget@CPythonPlayer@@UAEXKH@Z		; CPythonPlayer::SetTarget
PUBLIC	?__GetAliveTargetInstancePtr@CPythonPlayer@@IAEPAVCInstanceBase@@XZ ; CPythonPlayer::__GetAliveTargetInstancePtr
PUBLIC	?__ClearReservedAction@CPythonPlayer@@IAEXXZ	; CPythonPlayer::__ClearReservedAction
PUBLIC	?SetMovableGroundDistance@CPythonPlayer@@QAEXM@Z ; CPythonPlayer::SetMovableGroundDistance
;	COMDAT xdata$x
xdata$x	SEGMENT
__ehfuncinfo$?PickCloseItemVector@CPythonPlayer@@QAEXXZ DD 019930522H
	DD	02H
	DD	FLAT:__unwindtable$?PickCloseItemVector@CPythonPlayer@@QAEXXZ
	DD	2 DUP(00H)
	DD	2 DUP(00H)
	DD	00H
	DD	01H
__unwindtable$?PickCloseItemVector@CPythonPlayer@@QAEXXZ DD 0ffffffffH
	DD	FLAT:__unwindfunclet$?PickCloseItemVector@CPythonPlayer@@QAEXXZ$0
	DD	00H
	DD	FLAT:__unwindfunclet$?PickCloseItemVector@CPythonPlayer@@QAEXXZ$1
; Function compile flags: /Ogtp
; File E:\Metin2_server\SolWayneSF v6\ClientVS22\source\UserInterface\PythonPlayerInput.cpp
;	COMDAT ?SetMovableGroundDistance@CPythonPlayer@@QAEXM@Z
_TEXT	SEGMENT
?SetMovableGroundDistance@CPythonPlayer@@QAEXM@Z PROC	; CPythonPlayer::SetMovableGroundDistance, COMDAT
; _this$ = ecx
; _fDistance$ = xmm1s

; 427  : 	MOVABLE_GROUND_DISTANCE=fDistance;

  00000	f3 0f 11 89 c8
	2e 01 00	 movss	 DWORD PTR [ecx+77512], xmm1

; 428  : }

  00008	c3		 ret	 0
?SetMovableGroundDistance@CPythonPlayer@@QAEXM@Z ENDP	; CPythonPlayer::SetMovableGroundDistance
_TEXT	ENDS
; Function compile flags: /Ogtp
; File E:\Metin2_server\SolWayneSF v6\ClientVS22\source\UserInterface\PythonPlayerInput.cpp
;	COMDAT ?__ClearReservedAction@CPythonPlayer@@IAEXXZ
_TEXT	SEGMENT
?__ClearReservedAction@CPythonPlayer@@IAEXXZ PROC	; CPythonPlayer::__ClearReservedAction, COMDAT
; _this$ = ecx

; 843  : 	m_eReservedMode=MODE_NONE;

  00000	c7 41 54 00 00
	00 00		 mov	 DWORD PTR [ecx+84], 0

; 844  : }

  00007	c3		 ret	 0
?__ClearReservedAction@CPythonPlayer@@IAEXXZ ENDP	; CPythonPlayer::__ClearReservedAction
_TEXT	ENDS
; Function compile flags: /Ogtp
; File E:\Metin2_server\SolWayneSF v6\ClientVS22\source\UserInterface\PythonPlayerInput.cpp
;	COMDAT ?__GetAliveTargetInstancePtr@CPythonPlayer@@IAEPAVCInstanceBase@@XZ
_TEXT	SEGMENT
?__GetAliveTargetInstancePtr@CPythonPlayer@@IAEPAVCInstanceBase@@XZ PROC ; CPythonPlayer::__GetAliveTargetInstancePtr, COMDAT
; _this$ = ecx

; 243  : {

  00000	56		 push	 esi

; 244  : 	if (!__IsTarget())

  00001	e8 00 00 00 00	 call	 ?__IsTarget@CPythonPlayer@@IAE_NXZ ; CPythonPlayer::__IsTarget
  00006	84 c0		 test	 al, al
  00008	74 1d		 je	 SHORT $LN6@GetAliveTa

; 245  : 		return NULL;
; 246  : 
; 247  : 	CInstanceBase * pkInstTarget = __GetTargetActorPtr();

  0000a	e8 00 00 00 00	 call	 ?__GetTargetActorPtr@CPythonPlayer@@IAEPAVCInstanceBase@@XZ ; CPythonPlayer::__GetTargetActorPtr
  0000f	8b f0		 mov	 esi, eax

; 248  : 
; 249  : 	if (!pkInstTarget)

  00011	85 f6		 test	 esi, esi
  00013	74 12		 je	 SHORT $LN6@GetAliveTa

; 250  : 		return NULL;
; 251  : 
; 252  : 	if (pkInstTarget->IsDead())

  00015	8b ce		 mov	 ecx, esi
  00017	e8 00 00 00 00	 call	 ?IsDead@CInstanceBase@@QAEHXZ ; CInstanceBase::IsDead
  0001c	33 c9		 xor	 ecx, ecx
  0001e	85 c0		 test	 eax, eax
  00020	0f 45 f1	 cmovne	 esi, ecx
  00023	8b c6		 mov	 eax, esi
  00025	5e		 pop	 esi

; 254  : 
; 255  : 	return pkInstTarget;
; 256  : }

  00026	c3		 ret	 0
$LN6@GetAliveTa:

; 253  : 		return NULL;

  00027	33 c0		 xor	 eax, eax
  00029	5e		 pop	 esi

; 254  : 
; 255  : 	return pkInstTarget;
; 256  : }

  0002a	c3		 ret	 0
?__GetAliveTargetInstancePtr@CPythonPlayer@@IAEPAVCInstanceBase@@XZ ENDP ; CPythonPlayer::__GetAliveTargetInstancePtr
_TEXT	ENDS
; Function compile flags: /Ogtp
; File E:\Metin2_server\SolWayneSF v6\ClientVS22\source\UserInterface\PythonPlayerInput.cpp
; File E:\Metin2_server\SolWayneSF v6\ClientVS22\source\UserInterface\PythonPlayerEventHandler.h
; File E:\Metin2_server\SolWayneSF v6\ClientVS22\source\UserInterface\PythonPlayerInput.cpp
;	COMDAT ?SetTarget@CPythonPlayer@@UAEXKH@Z
_TEXT	SEGMENT
_dwCurrentTime$1$ = -4					; size = 4
_dwVID$ = 8						; size = 4
_bForceChange$ = 12					; size = 4
?SetTarget@CPythonPlayer@@UAEXKH@Z PROC			; CPythonPlayer::SetTarget, COMDAT
; _this$ = ecx

; 135  : {

  00000	55		 push	 ebp
  00001	8b ec		 mov	 ebp, esp
  00003	51		 push	 ecx
  00004	56		 push	 esi
  00005	57		 push	 edi
  00006	8b f9		 mov	 edi, ecx

; 136  : 	CInstanceBase * pkInstMain = NEW_GetMainActorPtr();

  00008	8b 07		 mov	 eax, DWORD PTR [edi]
  0000a	ff 90 88 00 00
	00		 call	 DWORD PTR [eax+136]
  00010	8b f0		 mov	 esi, eax

; 137  : 	if (!pkInstMain)

  00012	85 f6		 test	 esi, esi
  00014	0f 84 37 01 00
	00		 je	 $LN1@SetTarget

; 138  : 		return;
; 139  : 
; 140  : 	// 2004. 07. 07. [levites] - 스킬 사용중 타겟이 바뀌는 문제 해결을 위한 코드
; 141  : 	if (!pkInstMain->CanChangeTarget())

  0001a	8b ce		 mov	 ecx, esi
  0001c	e8 00 00 00 00	 call	 ?CanChangeTarget@CInstanceBase@@QAE_NXZ ; CInstanceBase::CanChangeTarget
  00021	84 c0		 test	 al, al
  00023	0f 84 28 01 00
	00		 je	 $LN1@SetTarget

; 142  : 	{
; 143  : 		return;
; 144  : 	}
; 145  : 
; 146  : 	DWORD dwCurrentTime = CTimer::Instance().GetCurrentMillisecond();

  00029	8b 0d 00 00 00
	00		 mov	 ecx, DWORD PTR ?ms_singleton@?$CSingleton@VCTimer@@@@0PAVCTimer@@A ; CSingleton<CTimer>::ms_singleton
  0002f	53		 push	 ebx
  00030	e8 00 00 00 00	 call	 ?GetCurrentMillisecond@CTimer@@QAEKXZ ; CTimer::GetCurrentMillisecond
  00035	8b d0		 mov	 edx, eax

; 147  : 
; 148  : 	if (__IsSameTargetVID(dwVID))

  00037	8d 5f fc	 lea	 ebx, DWORD PTR [edi-4]
  0003a	8b 45 08	 mov	 eax, DWORD PTR _dwVID$[ebp]
  0003d	8b cb		 mov	 ecx, ebx
  0003f	50		 push	 eax
  00040	89 55 fc	 mov	 DWORD PTR _dwCurrentTime$1$[ebp], edx
  00043	e8 00 00 00 00	 call	 ?__IsSameTargetVID@CPythonPlayer@@IAE_NK@Z ; CPythonPlayer::__IsSameTargetVID
  00048	84 c0		 test	 al, al
  0004a	74 38		 je	 SHORT $LN4@SetTarget

; 149  : 	{
; 150  : 		if (dwVID==pkInstMain->GetVirtualID())

  0004c	8b ce		 mov	 ecx, esi
  0004e	e8 00 00 00 00	 call	 ?GetVirtualID@CInstanceBase@@QAEKXZ ; CInstanceBase::GetVirtualID
  00053	39 45 08	 cmp	 DWORD PTR _dwVID$[ebp], eax
  00056	75 15		 jne	 SHORT $LN5@SetTarget

; 151  : 		{
; 152  : 			__SetTargetVID(0);

  00058	6a 00		 push	 0
  0005a	8b cb		 mov	 ecx, ebx
  0005c	e8 00 00 00 00	 call	 ?__SetTargetVID@CPythonPlayer@@IAEXK@Z ; CPythonPlayer::__SetTargetVID

; 153  : 			
; 154  : 			pkInstMain->OnUntargeted();

  00061	8b ce		 mov	 ecx, esi
  00063	e8 00 00 00 00	 call	 ?OnUntargeted@CInstanceBase@@QAEXXZ ; CInstanceBase::OnUntargeted

; 155  : 			pkInstMain->ClearFlyTargetInstance();
; 156  : 			CPythonNetworkStream::Instance().SendTargetPacket(0);
; 157  : 			return;

  00068	e9 cf 00 00 00	 jmp	 $LN17@SetTarget
$LN5@SetTarget:

; 158  : 		}
; 159  : 		m_dwTargetEndTime = dwCurrentTime + 1000;

  0006d	8b 45 fc	 mov	 eax, DWORD PTR _dwCurrentTime$1$[ebp]
  00070	05 e8 03 00 00	 add	 eax, 1000		; 000003e8H
  00075	5b		 pop	 ebx
  00076	89 87 9c 2e 01
	00		 mov	 DWORD PTR [edi+77468], eax
  0007c	5f		 pop	 edi

; 205  : 	
; 206  : }

  0007d	5e		 pop	 esi
  0007e	8b e5		 mov	 esp, ebp
  00080	5d		 pop	 ebp
  00081	c2 08 00	 ret	 8
$LN4@SetTarget:

; 160  : 		return;
; 161  : 	}
; 162  : 
; 163  : 	if (bForceChange)

  00084	83 7d 0c 00	 cmp	 DWORD PTR _bForceChange$[ebp], 0
  00088	74 07		 je	 SHORT $LN6@SetTarget

; 164  : 	{
; 165  : 		m_dwTargetEndTime = dwCurrentTime + 2000;

  0008a	b8 d0 07 00 00	 mov	 eax, 2000		; 000007d0H

; 166  : 	}

  0008f	eb 11		 jmp	 SHORT $LN7@SetTarget
$LN6@SetTarget:

; 167  : 	else
; 168  : 	{
; 169  : 		if (m_dwTargetEndTime > dwCurrentTime)

  00091	39 97 9c 2e 01
	00		 cmp	 DWORD PTR [edi+77468], edx
  00097	0f 87 b3 00 00
	00		 ja	 $LN16@SetTarget

; 170  : 		{
; 171  : 			return;
; 172  : 		}
; 173  : 
; 174  : 		m_dwTargetEndTime = dwCurrentTime + 1000;

  0009d	b8 e8 03 00 00	 mov	 eax, 1000		; 000003e8H
$LN7@SetTarget:

; 175  : 	}
; 176  : 
; 177  : 	if (__IsTarget())

  000a2	03 c2		 add	 eax, edx
  000a4	89 87 9c 2e 01
	00		 mov	 DWORD PTR [edi+77468], eax
  000aa	e8 00 00 00 00	 call	 ?__IsTarget@CPythonPlayer@@IAE_NXZ ; CPythonPlayer::__IsTarget
  000af	84 c0		 test	 al, al
  000b1	74 10		 je	 SHORT $LN10@SetTarget

; 178  : 	{
; 179  : 		CInstanceBase * pTargetedInstance = __GetTargetActorPtr();

  000b3	e8 00 00 00 00	 call	 ?__GetTargetActorPtr@CPythonPlayer@@IAEPAVCInstanceBase@@XZ ; CPythonPlayer::__GetTargetActorPtr

; 180  : 		if (pTargetedInstance)

  000b8	85 c0		 test	 eax, eax
  000ba	74 07		 je	 SHORT $LN10@SetTarget

; 181  : 			pTargetedInstance->OnUntargeted();

  000bc	8b c8		 mov	 ecx, eax
  000be	e8 00 00 00 00	 call	 ?OnUntargeted@CInstanceBase@@QAEXXZ ; CInstanceBase::OnUntargeted
$LN10@SetTarget:

; 182  : 	}
; 183  : 	
; 184  : 
; 185  : 	CInstanceBase * pkInstTarget = CPythonCharacterManager::Instance().GetInstancePtr(dwVID);

  000c3	8b 0d 00 00 00
	00		 mov	 ecx, DWORD PTR ?ms_singleton@?$CSingleton@VCPythonCharacterManager@@@@0PAVCPythonCharacterManager@@A ; CSingleton<CPythonCharacterManager>::ms_singleton
  000c9	ff 75 08	 push	 DWORD PTR _dwVID$[ebp]
  000cc	83 c1 04	 add	 ecx, 4
  000cf	8b 01		 mov	 eax, DWORD PTR [ecx]
  000d1	ff 50 08	 call	 DWORD PTR [eax+8]
  000d4	8b f8		 mov	 edi, eax

; 186  : 	if (pkInstTarget)

  000d6	85 ff		 test	 edi, edi
  000d8	74 59		 je	 SHORT $LN12@SetTarget

; 187  : 	{
; 188  : 		if (pkInstMain->IsTargetableInstance(*pkInstTarget))

  000da	57		 push	 edi
  000db	e8 00 00 00 00	 call	 ?IsTargetableInstance@CInstanceBase@@QAE_NAAV1@@Z ; CInstanceBase::IsTargetableInstance
  000e0	84 c0		 test	 al, al
  000e2	74 4f		 je	 SHORT $LN12@SetTarget

; 189  : 		{
; 190  : 			__SetTargetVID(dwVID);

  000e4	ff 75 08	 push	 DWORD PTR _dwVID$[ebp]
  000e7	8b cb		 mov	 ecx, ebx
  000e9	e8 00 00 00 00	 call	 ?__SetTargetVID@CPythonPlayer@@IAEXK@Z ; CPythonPlayer::__SetTargetVID

; 191  : 			
; 192  : 			pkInstTarget->OnTargeted();

  000ee	8b cf		 mov	 ecx, edi
  000f0	e8 00 00 00 00	 call	 ?OnTargeted@CInstanceBase@@QAEXXZ ; CInstanceBase::OnTargeted

; 193  : 			pkInstMain->SetFlyTargetInstance(*pkInstTarget);

  000f5	57		 push	 edi
  000f6	8b ce		 mov	 ecx, esi
  000f8	e8 00 00 00 00	 call	 ?SetFlyTargetInstance@CInstanceBase@@QAEXAAV1@@Z ; CInstanceBase::SetFlyTargetInstance

; 194  : 			pkInstMain->GetGraphicThingInstanceRef().SetFlyEventHandler(CPythonPlayerEventHandler::GetSingleton().GetNormalBowAttackFlyEventHandler(pkInstMain, pkInstTarget));

  000fd	e8 00 00 00 00	 call	 ?GetSingleton@CPythonPlayerEventHandler@@SAAAV1@XZ ; CPythonPlayerEventHandler::GetSingleton
; File E:\Metin2_server\SolWayneSF v6\ClientVS22\source\UserInterface\PythonPlayerEventHandler.h

; 81   : 				m_NormalBowAttack_FlyEventHandler_AutoClear.Set(this,pInstMain,pInstTarget);

  00102	57		 push	 edi
  00103	56		 push	 esi
  00104	50		 push	 eax
  00105	8d 48 28	 lea	 ecx, DWORD PTR [eax+40]
  00108	e8 00 00 00 00	 call	 ?Set@CNormalBowAttack_FlyEventHandler_AutoClear@CPythonPlayerEventHandler@@QAEXPAV2@PAVCInstanceBase@@1@Z ; CPythonPlayerEventHandler::CNormalBowAttack_FlyEventHandler_AutoClear::Set
; File E:\Metin2_server\SolWayneSF v6\ClientVS22\source\UserInterface\PythonPlayerInput.cpp

; 194  : 			pkInstMain->GetGraphicThingInstanceRef().SetFlyEventHandler(CPythonPlayerEventHandler::GetSingleton().GetNormalBowAttackFlyEventHandler(pkInstMain, pkInstTarget));

  0010d	51		 push	 ecx
  0010e	8b ce		 mov	 ecx, esi
  00110	e8 00 00 00 00	 call	 ?GetGraphicThingInstanceRef@CInstanceBase@@QAEAAVCActorInstance@@XZ ; CInstanceBase::GetGraphicThingInstanceRef
  00115	8b c8		 mov	 ecx, eax
  00117	e8 00 00 00 00	 call	 ?SetFlyEventHandler@CActorInstance@@QAEXPAVIFlyEventHandler@@@Z ; CActorInstance::SetFlyEventHandler

; 195  : 			CPythonNetworkStream::Instance().SendTargetPacket(dwVID);

  0011c	ff 75 08	 push	 DWORD PTR _dwVID$[ebp]

; 204  : 	CPythonNetworkStream::Instance().SendTargetPacket(0);

  0011f	8b 0d 00 00 00
	00		 mov	 ecx, DWORD PTR ?ms_singleton@?$CSingleton@VCPythonNetworkStream@@@@0PAVCPythonNetworkStream@@A ; CSingleton<CPythonNetworkStream>::ms_singleton
  00125	e8 00 00 00 00	 call	 ?SendTargetPacket@CPythonNetworkStream@@QAE_NK@Z ; CPythonNetworkStream::SendTargetPacket
  0012a	5b		 pop	 ebx
  0012b	5f		 pop	 edi

; 205  : 	
; 206  : }

  0012c	5e		 pop	 esi
  0012d	8b e5		 mov	 esp, ebp
  0012f	5d		 pop	 ebp
  00130	c2 08 00	 ret	 8
$LN12@SetTarget:

; 196  : 
; 197  : 			return;
; 198  : 		}
; 199  : 	}
; 200  : 
; 201  : 	__SetTargetVID(0);

  00133	6a 00		 push	 0
  00135	8b cb		 mov	 ecx, ebx
  00137	e8 00 00 00 00	 call	 ?__SetTargetVID@CPythonPlayer@@IAEXK@Z ; CPythonPlayer::__SetTargetVID
$LN17@SetTarget:

; 202  : 	
; 203  : 	pkInstMain->ClearFlyTargetInstance();

  0013c	8b ce		 mov	 ecx, esi
  0013e	e8 00 00 00 00	 call	 ?ClearFlyTargetInstance@CInstanceBase@@QAEXXZ ; CInstanceBase::ClearFlyTargetInstance

; 204  : 	CPythonNetworkStream::Instance().SendTargetPacket(0);

  00143	8b 0d 00 00 00
	00		 mov	 ecx, DWORD PTR ?ms_singleton@?$CSingleton@VCPythonNetworkStream@@@@0PAVCPythonNetworkStream@@A ; CSingleton<CPythonNetworkStream>::ms_singleton
  00149	6a 00		 push	 0
  0014b	e8 00 00 00 00	 call	 ?SendTargetPacket@CPythonNetworkStream@@QAE_NK@Z ; CPythonNetworkStream::SendTargetPacket
$LN16@SetTarget:
  00150	5b		 pop	 ebx
$LN1@SetTarget:
  00151	5f		 pop	 edi

; 205  : 	
; 206  : }

  00152	5e		 pop	 esi
  00153	8b e5		 mov	 esp, ebp
  00155	5d		 pop	 ebp
  00156	c2 08 00	 ret	 8
?SetTarget@CPythonPlayer@@UAEXKH@Z ENDP			; CPythonPlayer::SetTarget
_TEXT	ENDS
; Function compile flags: /Ogtp
; File E:\Metin2_server\SolWayneSF v6\ClientVS22\source\UserInterface\PythonPlayerInput.cpp
;	COMDAT ?__IsSameTargetVID@CPythonPlayer@@IAE_NK@Z
_TEXT	SEGMENT
_dwVID$ = 8						; size = 4
?__IsSameTargetVID@CPythonPlayer@@IAE_NK@Z PROC		; CPythonPlayer::__IsSameTargetVID, COMDAT
; _this$ = ecx

; 89   : {

  00000	55		 push	 ebp
  00001	8b ec		 mov	 ebp, esp

; 90   : 	return dwVID == __GetTargetVID();

  00003	e8 00 00 00 00	 call	 ?__GetTargetVID@CPythonPlayer@@IAEKXZ ; CPythonPlayer::__GetTargetVID
  00008	39 45 08	 cmp	 DWORD PTR _dwVID$[ebp], eax
  0000b	0f 94 c0	 sete	 al

; 91   : }

  0000e	5d		 pop	 ebp
  0000f	c2 04 00	 ret	 4
?__IsSameTargetVID@CPythonPlayer@@IAE_NK@Z ENDP		; CPythonPlayer::__IsSameTargetVID
_TEXT	ENDS
; Function compile flags: /Ogtp
; File E:\Metin2_server\SolWayneSF v6\ClientVS22\source\UserInterface\PythonPlayerInput.cpp
;	COMDAT ?__ReserveClickActor@CPythonPlayer@@IAEXK@Z
_TEXT	SEGMENT
_dwActorID$ = 8						; size = 4
?__ReserveClickActor@CPythonPlayer@@IAEXK@Z PROC	; CPythonPlayer::__ReserveClickActor, COMDAT
; _this$ = ecx

; 853  : {

  00000	55		 push	 ebp
  00001	8b ec		 mov	 ebp, esp

; 854  : 	m_eReservedMode=MODE_CLICK_ACTOR;
; 855  : 	m_dwVIDReserved=dwActorID;

  00003	8b 45 08	 mov	 eax, DWORD PTR _dwActorID$[ebp]
  00006	c7 41 54 03 00
	00 00		 mov	 DWORD PTR [ecx+84], 3
  0000d	89 81 f4 2d 01
	00		 mov	 DWORD PTR [ecx+77300], eax

; 856  : }

  00013	5d		 pop	 ebp
  00014	c2 04 00	 ret	 4
?__ReserveClickActor@CPythonPlayer@@IAEXK@Z ENDP	; CPythonPlayer::__ReserveClickActor
_TEXT	ENDS
; Function compile flags: /Ogtp
; File E:\Metin2_server\SolWayneSF v6\ClientVS22\source\UserInterface\PythonPlayerInput.cpp
;	COMDAT ?__ClearAutoAttackTargetActorID@CPythonPlayer@@IAEXXZ
_TEXT	SEGMENT
?__ClearAutoAttackTargetActorID@CPythonPlayer@@IAEXXZ PROC ; CPythonPlayer::__ClearAutoAttackTargetActorID, COMDAT
; _this$ = ecx

; 890  : 	__SetAutoAttackTargetActorID(0);

  00000	6a 00		 push	 0
  00002	e8 00 00 00 00	 call	 ?__SetAutoAttackTargetActorID@CPythonPlayer@@IAEXK@Z ; CPythonPlayer::__SetAutoAttackTargetActorID

; 891  : }

  00007	c3		 ret	 0
?__ClearAutoAttackTargetActorID@CPythonPlayer@@IAEXXZ ENDP ; CPythonPlayer::__ClearAutoAttackTargetActorID
_TEXT	ENDS
; Function compile flags: /Ogtp
; File E:\Metin2_server\SolWayneSF v6\ClientVS22\source\UserInterface\PythonPlayerInput.cpp
;	COMDAT ?NEW_Stop@CPythonPlayer@@QAEXXZ
_TEXT	SEGMENT
?NEW_Stop@CPythonPlayer@@QAEXXZ PROC			; CPythonPlayer::NEW_Stop, COMDAT
; _this$ = ecx

; 516  : {

  00000	56		 push	 esi
  00001	8b f1		 mov	 esi, ecx

; 517  : 	CInstanceBase* pkInstMain=NEW_GetMainActorPtr();

  00003	8b 46 04	 mov	 eax, DWORD PTR [esi+4]
  00006	8d 4e 04	 lea	 ecx, DWORD PTR [esi+4]
  00009	ff 90 88 00 00
	00		 call	 DWORD PTR [eax+136]

; 518  : 	if (!pkInstMain)

  0000f	85 c0		 test	 eax, eax
  00011	74 0e		 je	 SHORT $LN1@NEW_Stop

; 519  : 		return;
; 520  : 
; 521  : 	pkInstMain->NEW_Stop();

  00013	8b c8		 mov	 ecx, eax
  00015	e8 00 00 00 00	 call	 ?NEW_Stop@CInstanceBase@@QAEXXZ ; CInstanceBase::NEW_Stop

; 522  : 	m_isLeft = FALSE;
; 523  : 	m_isRight = FALSE;
; 524  : 	m_isUp = FALSE;

  0001a	c7 46 60 00 00
	00 00		 mov	 DWORD PTR [esi+96], 0
$LN1@NEW_Stop:

; 525  : 	m_isDown = FALSE;
; 526  : }

  00021	5e		 pop	 esi
  00022	c3		 ret	 0
?NEW_Stop@CPythonPlayer@@QAEXXZ ENDP			; CPythonPlayer::NEW_Stop
_TEXT	ENDS
; Function compile flags: /Ogtp
; File E:\Metin2_server\SolWayneSF v6\ClientVS22\source\UserInterface\PythonPlayerEventHandler.h
;	COMDAT ?GetNormalBowAttackFlyEventHandler@CPythonPlayerEventHandler@@QAEPAVIFlyEventHandler@@PAVCInstanceBase@@0@Z
_TEXT	SEGMENT
_pInstMain$ = 8						; size = 4
_pInstTarget$ = 12					; size = 4
?GetNormalBowAttackFlyEventHandler@CPythonPlayerEventHandler@@QAEPAVIFlyEventHandler@@PAVCInstanceBase@@0@Z PROC ; CPythonPlayerEventHandler::GetNormalBowAttackFlyEventHandler, COMDAT
; _this$ = ecx

; 80   : 			{

  00000	55		 push	 ebp
  00001	8b ec		 mov	 ebp, esp

; 81   : 				m_NormalBowAttack_FlyEventHandler_AutoClear.Set(this,pInstMain,pInstTarget);

  00003	ff 75 0c	 push	 DWORD PTR _pInstTarget$[ebp]
  00006	8d 51 28	 lea	 edx, DWORD PTR [ecx+40]
  00009	ff 75 08	 push	 DWORD PTR _pInstMain$[ebp]
  0000c	51		 push	 ecx
  0000d	8b ca		 mov	 ecx, edx
  0000f	e8 00 00 00 00	 call	 ?Set@CNormalBowAttack_FlyEventHandler_AutoClear@CPythonPlayerEventHandler@@QAEXPAV2@PAVCInstanceBase@@1@Z ; CPythonPlayerEventHandler::CNormalBowAttack_FlyEventHandler_AutoClear::Set

; 82   : 				return &m_NormalBowAttack_FlyEventHandler_AutoClear;

  00014	8b c2		 mov	 eax, edx

; 83   : 			}

  00016	5d		 pop	 ebp
  00017	c2 08 00	 ret	 8
?GetNormalBowAttackFlyEventHandler@CPythonPlayerEventHandler@@QAEPAVIFlyEventHandler@@PAVCInstanceBase@@0@Z ENDP ; CPythonPlayerEventHandler::GetNormalBowAttackFlyEventHandler
_TEXT	ENDS
; Function compile flags: /Ogtp
; File E:\Metin2_server\SolWayneSF v6\ClientVS22\source\UserInterface\PythonPlayerInput.cpp
;	COMDAT ?__GetPickableDistance@CPythonPlayer@@IAEKXZ
_TEXT	SEGMENT
?__GetPickableDistance@CPythonPlayer@@IAEKXZ PROC	; CPythonPlayer::__GetPickableDistance, COMDAT
; _this$ = ecx

; 19   : 	CInstanceBase * pkInstMain = NEW_GetMainActorPtr();

  00000	8b 41 04	 mov	 eax, DWORD PTR [ecx+4]
  00003	83 c1 04	 add	 ecx, 4
  00006	ff 90 88 00 00
	00		 call	 DWORD PTR [eax+136]

; 20   : 	if (pkInstMain)

  0000c	85 c0		 test	 eax, eax
  0000e	74 16		 je	 SHORT $LN3@GetPickabl

; 21   : 		if (pkInstMain->IsMountingHorse())

  00010	8b c8		 mov	 ecx, eax
  00012	e8 00 00 00 00	 call	 ?IsMountingHorse@CInstanceBase@@QAEHXZ ; CInstanceBase::IsMountingHorse
  00017	f7 d8		 neg	 eax
  00019	1b c0		 sbb	 eax, eax
  0001b	25 c8 00 00 00	 and	 eax, 200		; 000000c8H
  00020	05 2c 01 00 00	 add	 eax, 300		; 0000012cH

; 25   : }

  00025	c3		 ret	 0
$LN3@GetPickabl:

; 22   : 			return 500;
; 23   : 
; 24   : 	return 300;

  00026	b8 2c 01 00 00	 mov	 eax, 300		; 0000012cH

; 25   : }

  0002b	c3		 ret	 0
?__GetPickableDistance@CPythonPlayer@@IAEKXZ ENDP	; CPythonPlayer::__GetPickableDistance
_TEXT	ENDS
; Function compile flags: /Ogtp
; File E:\Metin2_server\SolWayneSF v6\ClientVS22\source\UserInterface\PythonPlayerInput.cpp
;	COMDAT ?PickCloseItem@CPythonPlayer@@QAEXXZ
_TEXT	SEGMENT
_kPPosMain$ = -16					; size = 12
_dwItemID$ = -4						; size = 4
?PickCloseItem@CPythonPlayer@@QAEXXZ PROC		; CPythonPlayer::PickCloseItem, COMDAT
; _this$ = ecx

; 45   : {

  00000	55		 push	 ebp
  00001	8b ec		 mov	 ebp, esp
  00003	83 ec 10	 sub	 esp, 16			; 00000010H
  00006	57		 push	 edi
  00007	8b f9		 mov	 edi, ecx

; 46   : 	CInstanceBase * pkInstMain = NEW_GetMainActorPtr();

  00009	8b 47 04	 mov	 eax, DWORD PTR [edi+4]
  0000c	8d 4f 04	 lea	 ecx, DWORD PTR [edi+4]
  0000f	ff 90 88 00 00
	00		 call	 DWORD PTR [eax+136]

; 47   : 	if (!pkInstMain)

  00015	85 c0		 test	 eax, eax
  00017	74 38		 je	 SHORT $LN1@PickCloseI

; 48   : 		return;
; 49   : 
; 50   : 	TPixelPosition kPPosMain;
; 51   : 	pkInstMain->NEW_GetPixelPosition(&kPPosMain);

  00019	56		 push	 esi
  0001a	8d 4d f0	 lea	 ecx, DWORD PTR _kPPosMain$[ebp]
  0001d	51		 push	 ecx
  0001e	8b c8		 mov	 ecx, eax
  00020	e8 00 00 00 00	 call	 ?NEW_GetPixelPosition@CInstanceBase@@QAEXPAUD3DXVECTOR3@@@Z ; CInstanceBase::NEW_GetPixelPosition

; 52   : 
; 53   : 	DWORD dwItemID;
; 54   : 	CPythonItem& rkItem=CPythonItem::Instance();

  00025	8b 35 00 00 00
	00		 mov	 esi, DWORD PTR ?ms_singleton@?$CSingleton@VCPythonItem@@@@0PAVCPythonItem@@A ; CSingleton<CPythonItem>::ms_singleton

; 55   : 	if (!rkItem.GetCloseItem(kPPosMain, &dwItemID, __GetPickableDistance()))

  0002b	8b cf		 mov	 ecx, edi
  0002d	e8 00 00 00 00	 call	 ?__GetPickableDistance@CPythonPlayer@@IAEKXZ ; CPythonPlayer::__GetPickableDistance
  00032	51		 push	 ecx
  00033	8d 45 fc	 lea	 eax, DWORD PTR _dwItemID$[ebp]
  00036	8b ce		 mov	 ecx, esi
  00038	50		 push	 eax
  00039	8d 45 f0	 lea	 eax, DWORD PTR _kPPosMain$[ebp]
  0003c	50		 push	 eax
  0003d	e8 00 00 00 00	 call	 ?GetCloseItem@CPythonItem@@QAE_NABUD3DXVECTOR3@@PAKK@Z ; CPythonItem::GetCloseItem
  00042	5e		 pop	 esi
  00043	84 c0		 test	 al, al
  00045	74 0a		 je	 SHORT $LN1@PickCloseI

; 56   : 		return;
; 57   : 
; 58   : 	SendClickItemPacket(dwItemID);

  00047	ff 75 fc	 push	 DWORD PTR _dwItemID$[ebp]
  0004a	8b cf		 mov	 ecx, edi
  0004c	e8 00 00 00 00	 call	 ?SendClickItemPacket@CPythonPlayer@@QAEXK@Z ; CPythonPlayer::SendClickItemPacket
$LN1@PickCloseI:
  00051	5f		 pop	 edi

; 59   : }

  00052	8b e5		 mov	 esp, ebp
  00054	5d		 pop	 ebp
  00055	c3		 ret	 0
?PickCloseItem@CPythonPlayer@@QAEXXZ ENDP		; CPythonPlayer::PickCloseItem
_TEXT	ENDS
; Function compile flags: /Ogtp
; File E:\Metin2_server\SolWayneSF v6\ClientVS22\source\UserInterface\PythonPlayerInput.cpp
; File C:\Program Files\Microsoft Visual Studio\2022\Community\VC\Tools\MSVC\14.34.31933\include\vector
; File E:\Metin2_server\SolWayneSF v6\ClientVS22\source\UserInterface\PythonPlayerInput.cpp
; File C:\Program Files\Microsoft Visual Studio\2022\Community\VC\Tools\MSVC\14.34.31933\include\xstring
; File E:\Metin2_server\SolWayneSF v6\ClientVS22\source\UserInterface\PythonPlayerInput.cpp
; File C:\Program Files\Microsoft Visual Studio\2022\Community\VC\Tools\MSVC\14.34.31933\include\xstring
; File E:\Metin2_server\SolWayneSF v6\ClientVS22\source\UserInterface\PythonPlayerInput.cpp
; File C:\Program Files\Microsoft Visual Studio\2022\Community\VC\Tools\MSVC\14.34.31933\include\xstring
; File C:\Program Files\Microsoft Visual Studio\2022\Community\VC\Tools\MSVC\14.34.31933\include\xmemory
; File C:\Program Files\Microsoft Visual Studio\2022\Community\VC\Tools\MSVC\14.34.31933\include\xstring
; File C:\Program Files\Microsoft Visual Studio\2022\Community\VC\Tools\MSVC\14.34.31933\include\xmemory
; File E:\Metin2_server\SolWayneSF v6\ClientVS22\source\UserInterface\PythonPlayerInput.cpp
; File C:\Program Files\Microsoft Visual Studio\2022\Community\VC\Tools\MSVC\14.34.31933\include\vector
; File E:\Metin2_server\SolWayneSF v6\ClientVS22\source\UserInterface\PythonPlayerInput.cpp
; File C:\Program Files\Microsoft Visual Studio\2022\Community\VC\Tools\MSVC\14.34.31933\include\vector
; File E:\Metin2_server\SolWayneSF v6\ClientVS22\source\UserInterface\PythonPlayerInput.cpp
; File C:\Program Files\Microsoft Visual Studio\2022\Community\VC\Tools\MSVC\14.34.31933\include\vector
; File E:\Metin2_server\SolWayneSF v6\ClientVS22\source\UserInterface\PythonPlayerInput.cpp
; File C:\Program Files\Microsoft Visual Studio\2022\Community\VC\Tools\MSVC\14.34.31933\include\vector
; File C:\Program Files\Microsoft Visual Studio\2022\Community\VC\Tools\MSVC\14.34.31933\include\xmemory
; File C:\Program Files\Microsoft Visual Studio\2022\Community\VC\Tools\MSVC\14.34.31933\include\vector
; File C:\Program Files\Microsoft Visual Studio\2022\Community\VC\Tools\MSVC\14.34.31933\include\xmemory
; File E:\Metin2_server\SolWayneSF v6\ClientVS22\source\UserInterface\PythonPlayerInput.cpp
; File C:\Program Files\Microsoft Visual Studio\2022\Community\VC\Tools\MSVC\14.34.31933\include\xmemory
; File E:\Metin2_server\SolWayneSF v6\ClientVS22\source\UserInterface\PythonPlayerInput.cpp
;	COMDAT ?PickCloseItemVector@CPythonPlayer@@QAEXXZ
_TEXT	SEGMENT
_kPPosMain$ = -76					; size = 12
_itemVidList$2$ = -64					; size = 4
_this$GSCopy$1$ = -60					; size = 4
_itemVidList$ = -56					; size = 12
tv596 = -41						; size = 1
$T2 = -40						; size = 24
__$ArrayPad$ = -16					; size = 4
__$EHRec$ = -12						; size = 12
?PickCloseItemVector@CPythonPlayer@@QAEXXZ PROC		; CPythonPlayer::PickCloseItemVector, COMDAT
; _this$ = ecx

; 62   : {

  00000	55		 push	 ebp
  00001	8b ec		 mov	 ebp, esp
  00003	6a ff		 push	 -1
  00005	68 00 00 00 00	 push	 __ehhandler$?PickCloseItemVector@CPythonPlayer@@QAEXXZ
  0000a	64 a1 00 00 00
	00		 mov	 eax, DWORD PTR fs:0
  00010	50		 push	 eax
  00011	83 ec 40	 sub	 esp, 64			; 00000040H
  00014	a1 00 00 00 00	 mov	 eax, DWORD PTR ___security_cookie
  00019	33 c5		 xor	 eax, ebp
  0001b	89 45 f0	 mov	 DWORD PTR __$ArrayPad$[ebp], eax
  0001e	56		 push	 esi
  0001f	57		 push	 edi
  00020	50		 push	 eax
  00021	8d 45 f4	 lea	 eax, DWORD PTR __$EHRec$[ebp]
  00024	64 a3 00 00 00
	00		 mov	 DWORD PTR fs:0, eax
  0002a	8b c1		 mov	 eax, ecx
  0002c	89 45 c4	 mov	 DWORD PTR _this$GSCopy$1$[ebp], eax

; 63   : 	CInstanceBase * pkInstMain = NEW_GetMainActorPtr();

  0002f	8d 48 04	 lea	 ecx, DWORD PTR [eax+4]
  00032	8b 01		 mov	 eax, DWORD PTR [ecx]
  00034	8b 80 88 00 00
	00		 mov	 eax, DWORD PTR [eax+136]
  0003a	ff d0		 call	 eax
  0003c	8b f0		 mov	 esi, eax

; 64   : 	if (!pkInstMain)

  0003e	85 f6		 test	 esi, esi
  00040	0f 84 1b 01 00
	00		 je	 $LN22@PickCloseI

; 65   : 		return;
; 66   : 
; 67   : 	TPixelPosition kPPosMain;
; 68   : 	pkInstMain->NEW_GetPixelPosition(&kPPosMain);

  00046	8d 45 b4	 lea	 eax, DWORD PTR _kPPosMain$[ebp]
  00049	8b ce		 mov	 ecx, esi
  0004b	50		 push	 eax
  0004c	e8 00 00 00 00	 call	 ?NEW_GetPixelPosition@CInstanceBase@@QAEXPAUD3DXVECTOR3@@@Z ; CInstanceBase::NEW_GetPixelPosition
; File C:\Program Files\Microsoft Visual Studio\2022\Community\VC\Tools\MSVC\14.34.31933\include\vector

; 390  :     _CONSTEXPR20 _Vector_val() noexcept : _Myfirst(), _Mylast(), _Myend() {}

  00051	c7 45 c8 00 00
	00 00		 mov	 DWORD PTR _itemVidList$[ebp], 0
  00058	c7 45 cc 00 00
	00 00		 mov	 DWORD PTR _itemVidList$[ebp+4], 0
  0005f	c7 45 d0 00 00
	00 00		 mov	 DWORD PTR _itemVidList$[ebp+8], 0
; File E:\Metin2_server\SolWayneSF v6\ClientVS22\source\UserInterface\PythonPlayerInput.cpp

; 70   : 	std::vector<DWORD> itemVidList;

  00066	c7 45 fc 00 00
	00 00		 mov	 DWORD PTR __$EHRec$[ebp+8], 0

; 73   : 	if (!rkItem.GetCloseItemVector(pkInstMain->GetNameString(), kPPosMain, itemVidList))

  0006d	8b ce		 mov	 ecx, esi
  0006f	8b 3d 00 00 00
	00		 mov	 edi, DWORD PTR ?ms_singleton@?$CSingleton@VCPythonItem@@@@0PAVCPythonItem@@A ; CSingleton<CPythonItem>::ms_singleton
  00075	e8 00 00 00 00	 call	 ?GetNameString@CInstanceBase@@QAEPBDXZ ; CInstanceBase::GetNameString
  0007a	8b d0		 mov	 edx, eax
; File C:\Program Files\Microsoft Visual Studio\2022\Community\VC\Tools\MSVC\14.34.31933\include\xstring

; 2348 :     size_type _Mysize = 0; // current length of string

  0007c	c7 45 e8 00 00
	00 00		 mov	 DWORD PTR $T2[ebp+16], 0

; 415  :             return __builtin_strlen(_First);

  00083	8b ca		 mov	 ecx, edx

; 2349 :     size_type _Myres  = 0; // current storage reserved for string

  00085	c7 45 ec 00 00
	00 00		 mov	 DWORD PTR $T2[ebp+20], 0
  0008c	0f 57 c0	 xorps	 xmm0, xmm0

; 2339 :         _CONSTEXPR20 _Bxty() noexcept : _Buf() {} // user-provided, for fancy pointers

  0008f	0f 11 45 d8	 movups	 XMMWORD PTR $T2[ebp], xmm0

; 415  :             return __builtin_strlen(_First);

  00093	8d 71 01	 lea	 esi, DWORD PTR [ecx+1]
$LL107@PickCloseI:
  00096	8a 01		 mov	 al, BYTE PTR [ecx]
  00098	41		 inc	 ecx
  00099	84 c0		 test	 al, al
  0009b	75 f9		 jne	 SHORT $LL107@PickCloseI
  0009d	2b ce		 sub	 ecx, esi

; 2674 :         _Construct<_Construct_strategy::_From_ptr>(_Ptr, _Convert_size<size_type>(_Traits::length(_Ptr)));

  0009f	51		 push	 ecx
  000a0	52		 push	 edx
  000a1	8d 4d d8	 lea	 ecx, DWORD PTR $T2[ebp]
  000a4	e8 00 00 00 00	 call	 ??$_Construct@$00PBD@?$basic_string@DU?$char_traits@D@std@@V?$allocator@D@2@@std@@AAEXQBDI@Z ; std::basic_string<char,std::char_traits<char>,std::allocator<char> >::_Construct<1,char const *>
; File E:\Metin2_server\SolWayneSF v6\ClientVS22\source\UserInterface\PythonPlayerInput.cpp

; 73   : 	if (!rkItem.GetCloseItemVector(pkInstMain->GetNameString(), kPPosMain, itemVidList))

  000a9	8d 45 c8	 lea	 eax, DWORD PTR _itemVidList$[ebp]
  000ac	c6 45 fc 01	 mov	 BYTE PTR __$EHRec$[ebp+8], 1
  000b0	50		 push	 eax
  000b1	8d 45 b4	 lea	 eax, DWORD PTR _kPPosMain$[ebp]
  000b4	8b cf		 mov	 ecx, edi
  000b6	50		 push	 eax
  000b7	8d 45 d8	 lea	 eax, DWORD PTR $T2[ebp]
  000ba	50		 push	 eax
  000bb	e8 00 00 00 00	 call	 ?GetCloseItemVector@CPythonItem@@QAE_NABV?$basic_string@DU?$char_traits@D@std@@V?$allocator@D@2@@std@@ABUD3DXVECTOR3@@AAV?$vector@KV?$allocator@K@std@@@3@@Z ; CPythonItem::GetCloseItemVector
  000c0	84 c0		 test	 al, al
  000c2	c6 45 fc 00	 mov	 BYTE PTR __$EHRec$[ebp+8], 0
; File C:\Program Files\Microsoft Visual Studio\2022\Community\VC\Tools\MSVC\14.34.31933\include\xstring

; 2301 :         return _BUF_SIZE <= _Myres;

  000c6	8b 4d ec	 mov	 ecx, DWORD PTR $T2[ebp+20]
; File E:\Metin2_server\SolWayneSF v6\ClientVS22\source\UserInterface\PythonPlayerInput.cpp

; 73   : 	if (!rkItem.GetCloseItemVector(pkInstMain->GetNameString(), kPPosMain, itemVidList))

  000c9	0f 94 c0	 sete	 al
  000cc	88 45 d7	 mov	 BYTE PTR tv596[ebp], al
; File C:\Program Files\Microsoft Visual Studio\2022\Community\VC\Tools\MSVC\14.34.31933\include\xstring

; 2301 :         return _BUF_SIZE <= _Myres;

  000cf	83 f9 10	 cmp	 ecx, 16			; 00000010H

; 5008 :         if (_My_data._Large_string_engaged()) {

  000d2	72 2f		 jb	 SHORT $LN74@PickCloseI
; File C:\Program Files\Microsoft Visual Studio\2022\Community\VC\Tools\MSVC\14.34.31933\include\xmemory

; 830  :         _Deallocate<_New_alignof<_Ty>>(_Ptr, sizeof(_Ty) * _Count);

  000d4	8b 55 d8	 mov	 edx, DWORD PTR $T2[ebp]
; File C:\Program Files\Microsoft Visual Studio\2022\Community\VC\Tools\MSVC\14.34.31933\include\xstring

; 5013 :             _Al.deallocate(_Ptr, _My_data._Myres + 1);

  000d7	41		 inc	 ecx
; File C:\Program Files\Microsoft Visual Studio\2022\Community\VC\Tools\MSVC\14.34.31933\include\xmemory

; 830  :         _Deallocate<_New_alignof<_Ty>>(_Ptr, sizeof(_Ty) * _Count);

  000d8	8b c2		 mov	 eax, edx

; 251  :         if (_Bytes >= _Big_allocation_threshold) { // boost the alignment of big allocations to help autovectorization

  000da	81 f9 00 10 00
	00		 cmp	 ecx, 4096		; 00001000H
  000e0	72 14		 jb	 SHORT $LN86@PickCloseI

; 150  :     const uintptr_t _Ptr_container   = _Ptr_user[-1];

  000e2	8b 50 fc	 mov	 edx, DWORD PTR [eax-4]
  000e5	83 c1 23	 add	 ecx, 35			; 00000023H
  000e8	2b c2		 sub	 eax, edx

; 164  :     _STL_VERIFY(_Back_shift >= _Min_back_shift && _Back_shift <= _Non_user_size, "invalid argument");

  000ea	83 c0 fc	 add	 eax, -4			; fffffffcH
  000ed	83 f8 1f	 cmp	 eax, 31			; 0000001fH
  000f0	0f 87 86 00 00
	00		 ja	 $LN31@PickCloseI
$LN86@PickCloseI:

; 255  :         ::operator delete(_Ptr, _Bytes);

  000f6	51		 push	 ecx
  000f7	52		 push	 edx
  000f8	e8 00 00 00 00	 call	 ??3@YAXPAXI@Z		; operator delete
  000fd	8a 45 d7	 mov	 al, BYTE PTR tv596[ebp]
  00100	83 c4 08	 add	 esp, 8
$LN74@PickCloseI:
; File E:\Metin2_server\SolWayneSF v6\ClientVS22\source\UserInterface\PythonPlayerInput.cpp

; 73   : 	if (!rkItem.GetCloseItemVector(pkInstMain->GetNameString(), kPPosMain, itemVidList))

  00103	8b 7d c8	 mov	 edi, DWORD PTR _itemVidList$[ebp]
  00106	84 c0		 test	 al, al
  00108	75 27		 jne	 SHORT $LN3@PickCloseI
; File C:\Program Files\Microsoft Visual Studio\2022\Community\VC\Tools\MSVC\14.34.31933\include\vector

; 1927 :         return _My_data._Myfirst == _My_data._Mylast;

  0010a	8b 45 cc	 mov	 eax, DWORD PTR _itemVidList$[ebp+4]
  0010d	3b f8		 cmp	 edi, eax
; File E:\Metin2_server\SolWayneSF v6\ClientVS22\source\UserInterface\PythonPlayerInput.cpp

; 76   : 	if(itemVidList.empty())

  0010f	74 20		 je	 SHORT $LN3@PickCloseI
; File C:\Program Files\Microsoft Visual Studio\2022\Community\VC\Tools\MSVC\14.34.31933\include\vector

; 1932 :         return static_cast<size_type>(_My_data._Mylast - _My_data._Myfirst);

  00111	2b c7		 sub	 eax, edi
; File E:\Metin2_server\SolWayneSF v6\ClientVS22\source\UserInterface\PythonPlayerInput.cpp

; 79   : 	for(int i = 0; i < itemVidList.size(); i++)

  00113	33 f6		 xor	 esi, esi
; File C:\Program Files\Microsoft Visual Studio\2022\Community\VC\Tools\MSVC\14.34.31933\include\vector

; 1932 :         return static_cast<size_type>(_My_data._Mylast - _My_data._Myfirst);

  00115	c1 f8 02	 sar	 eax, 2
  00118	89 45 c0	 mov	 DWORD PTR _itemVidList$2$[ebp], eax
; File E:\Metin2_server\SolWayneSF v6\ClientVS22\source\UserInterface\PythonPlayerInput.cpp

; 79   : 	for(int i = 0; i < itemVidList.size(); i++)

  0011b	85 c0		 test	 eax, eax
  0011d	74 12		 je	 SHORT $LN3@PickCloseI
  0011f	90		 npad	 1
$LL4@PickCloseI:

; 80   : 		SendClickItemPacket(itemVidList[i]);

  00120	ff 34 b7	 push	 DWORD PTR [edi+esi*4]
  00123	8b 4d c4	 mov	 ecx, DWORD PTR _this$GSCopy$1$[ebp]
  00126	e8 00 00 00 00	 call	 ?SendClickItemPacket@CPythonPlayer@@QAEXK@Z ; CPythonPlayer::SendClickItemPacket
  0012b	46		 inc	 esi
  0012c	3b 75 c0	 cmp	 esi, DWORD PTR _itemVidList$2$[ebp]
  0012f	72 ef		 jb	 SHORT $LL4@PickCloseI
$LN3@PickCloseI:
; File C:\Program Files\Microsoft Visual Studio\2022\Community\VC\Tools\MSVC\14.34.31933\include\vector

; 2107 :         if (_Myfirst) { // destroy and deallocate old array

  00131	85 ff		 test	 edi, edi
  00133	74 2c		 je	 SHORT $LN22@PickCloseI

; 2110 :             _Al.deallocate(_Myfirst, static_cast<size_type>(_Myend - _Myfirst));

  00135	8b 4d d0	 mov	 ecx, DWORD PTR _itemVidList$[ebp+8]
; File C:\Program Files\Microsoft Visual Studio\2022\Community\VC\Tools\MSVC\14.34.31933\include\xmemory

; 830  :         _Deallocate<_New_alignof<_Ty>>(_Ptr, sizeof(_Ty) * _Count);

  00138	8b c7		 mov	 eax, edi
; File C:\Program Files\Microsoft Visual Studio\2022\Community\VC\Tools\MSVC\14.34.31933\include\vector

; 2110 :             _Al.deallocate(_Myfirst, static_cast<size_type>(_Myend - _Myfirst));

  0013a	2b cf		 sub	 ecx, edi
; File C:\Program Files\Microsoft Visual Studio\2022\Community\VC\Tools\MSVC\14.34.31933\include\xmemory

; 830  :         _Deallocate<_New_alignof<_Ty>>(_Ptr, sizeof(_Ty) * _Count);

  0013c	83 e1 fc	 and	 ecx, -4			; fffffffcH

; 251  :         if (_Bytes >= _Big_allocation_threshold) { // boost the alignment of big allocations to help autovectorization

  0013f	81 f9 00 10 00
	00		 cmp	 ecx, 4096		; 00001000H
  00145	72 10		 jb	 SHORT $LN34@PickCloseI

; 150  :     const uintptr_t _Ptr_container   = _Ptr_user[-1];

  00147	8b 78 fc	 mov	 edi, DWORD PTR [eax-4]
  0014a	83 c1 23	 add	 ecx, 35			; 00000023H
  0014d	2b c7		 sub	 eax, edi

; 164  :     _STL_VERIFY(_Back_shift >= _Min_back_shift && _Back_shift <= _Non_user_size, "invalid argument");

  0014f	83 c0 fc	 add	 eax, -4			; fffffffcH
  00152	83 f8 1f	 cmp	 eax, 31			; 0000001fH
  00155	77 25		 ja	 SHORT $LN31@PickCloseI
$LN34@PickCloseI:

; 255  :         ::operator delete(_Ptr, _Bytes);

  00157	51		 push	 ecx
  00158	57		 push	 edi
  00159	e8 00 00 00 00	 call	 ??3@YAXPAXI@Z		; operator delete
  0015e	83 c4 08	 add	 esp, 8
$LN22@PickCloseI:
; File E:\Metin2_server\SolWayneSF v6\ClientVS22\source\UserInterface\PythonPlayerInput.cpp

; 81   : }

  00161	8b 4d f4	 mov	 ecx, DWORD PTR __$EHRec$[ebp]
  00164	64 89 0d 00 00
	00 00		 mov	 DWORD PTR fs:0, ecx
  0016b	59		 pop	 ecx
  0016c	5f		 pop	 edi
  0016d	5e		 pop	 esi
  0016e	8b 4d f0	 mov	 ecx, DWORD PTR __$ArrayPad$[ebp]
  00171	33 cd		 xor	 ecx, ebp
  00173	e8 00 00 00 00	 call	 @__security_check_cookie@4
  00178	8b e5		 mov	 esp, ebp
  0017a	5d		 pop	 ebp
  0017b	c3		 ret	 0
$LN31@PickCloseI:
; File C:\Program Files\Microsoft Visual Studio\2022\Community\VC\Tools\MSVC\14.34.31933\include\xmemory

; 164  :     _STL_VERIFY(_Back_shift >= _Min_back_shift && _Back_shift <= _Non_user_size, "invalid argument");

  0017c	e8 00 00 00 00	 call	 __invalid_parameter_noinfo_noreturn
$LN109@PickCloseI:
  00181	cc		 int	 3
_TEXT	ENDS
;	COMDAT text$x
text$x	SEGMENT
__unwindfunclet$?PickCloseItemVector@CPythonPlayer@@QAEXXZ$0:
  00000	8d 4d c8	 lea	 ecx, DWORD PTR _itemVidList$[ebp]
  00003	e9 00 00 00 00	 jmp	 ??1?$vector@KV?$allocator@K@std@@@std@@QAE@XZ ; std::vector<unsigned long,std::allocator<unsigned long> >::~vector<unsigned long,std::allocator<unsigned long> >
__unwindfunclet$?PickCloseItemVector@CPythonPlayer@@QAEXXZ$1:
  00008	8d 4d d8	 lea	 ecx, DWORD PTR $T2[ebp]
  0000b	e9 00 00 00 00	 jmp	 ??1?$basic_string@DU?$char_traits@D@std@@V?$allocator@D@2@@std@@QAE@XZ ; std::basic_string<char,std::char_traits<char>,std::allocator<char> >::~basic_string<char,std::char_traits<char>,std::allocator<char> >
  00010	cc		 int	 3
  00011	cc		 int	 3
  00012	cc		 int	 3
  00013	cc		 int	 3
  00014	cc		 int	 3
__ehhandler$?PickCloseItemVector@CPythonPlayer@@QAEXXZ:
  00015	90		 npad	 1
  00016	90		 npad	 1
  00017	8b 54 24 08	 mov	 edx, DWORD PTR [esp+8]
  0001b	8d 42 0c	 lea	 eax, DWORD PTR [edx+12]
  0001e	8b 4a b4	 mov	 ecx, DWORD PTR [edx-76]
  00021	33 c8		 xor	 ecx, eax
  00023	e8 00 00 00 00	 call	 @__security_check_cookie@4
  00028	8b 4a fc	 mov	 ecx, DWORD PTR [edx-4]
  0002b	33 c8		 xor	 ecx, eax
  0002d	e8 00 00 00 00	 call	 @__security_check_cookie@4
  00032	b8 00 00 00 00	 mov	 eax, OFFSET __ehfuncinfo$?PickCloseItemVector@CPythonPlayer@@QAEXXZ
  00037	e9 00 00 00 00	 jmp	 ___CxxFrameHandler3
text$x	ENDS
?PickCloseItemVector@CPythonPlayer@@QAEXXZ ENDP		; CPythonPlayer::PickCloseItemVector
; Function compile flags: /Ogtp
; File E:\Metin2_server\SolWayneSF v6\ClientVS22\source\UserInterface\PythonPlayerInput.cpp
;	COMDAT ?__IsTarget@CPythonPlayer@@IAE_NXZ
_TEXT	SEGMENT
?__IsTarget@CPythonPlayer@@IAE_NXZ PROC			; CPythonPlayer::__IsTarget, COMDAT
; _this$ = ecx

; 85   : 	return 0 != __GetTargetVID();

  00000	e8 00 00 00 00	 call	 ?__GetTargetVID@CPythonPlayer@@IAEKXZ ; CPythonPlayer::__GetTargetVID
  00005	85 c0		 test	 eax, eax
  00007	0f 95 c0	 setne	 al

; 86   : }

  0000a	c3		 ret	 0
?__IsTarget@CPythonPlayer@@IAE_NXZ ENDP			; CPythonPlayer::__IsTarget
_TEXT	ENDS
; Function compile flags: /Ogtp
; File E:\Metin2_server\SolWayneSF v6\ClientVS22\source\UserInterface\PythonPlayerInput.cpp
;	COMDAT ?__GetTargetVID@CPythonPlayer@@IAEKXZ
_TEXT	SEGMENT
?__GetTargetVID@CPythonPlayer@@IAEKXZ PROC		; CPythonPlayer::__GetTargetVID, COMDAT
; _this$ = ecx

; 95   : 	return m_dwTargetVID;

  00000	8b 81 9c 2e 01
	00		 mov	 eax, DWORD PTR [ecx+77468]

; 96   : }

  00006	c3		 ret	 0
?__GetTargetVID@CPythonPlayer@@IAEKXZ ENDP		; CPythonPlayer::__GetTargetVID
_TEXT	ENDS
; Function compile flags: /Ogtp
; File E:\Metin2_server\SolWayneSF v6\ClientVS22\source\UserInterface\PythonPlayerInput.cpp
;	COMDAT ?GetTargetVID@CPythonPlayer@@QAEKXZ
_TEXT	SEGMENT
?GetTargetVID@CPythonPlayer@@QAEKXZ PROC		; CPythonPlayer::GetTargetVID, COMDAT
; _this$ = ecx

; 100  : 	return __GetTargetVID();

  00000	e9 00 00 00 00	 jmp	 ?__GetTargetVID@CPythonPlayer@@IAEKXZ ; CPythonPlayer::__GetTargetVID
?GetTargetVID@CPythonPlayer@@QAEKXZ ENDP		; CPythonPlayer::GetTargetVID
_TEXT	ENDS
; Function compile flags: /Ogtp
; File E:\Metin2_server\SolWayneSF v6\ClientVS22\source\UserInterface\PythonPlayerInput.cpp
;	COMDAT ?__GetTargetActorPtr@CPythonPlayer@@IAEPAVCInstanceBase@@XZ
_TEXT	SEGMENT
?__GetTargetActorPtr@CPythonPlayer@@IAEPAVCInstanceBase@@XZ PROC ; CPythonPlayer::__GetTargetActorPtr, COMDAT
; _this$ = ecx

; 106  : 	return NEW_FindActorPtr(__GetTargetVID());

  00000	e8 00 00 00 00	 call	 ?__GetTargetVID@CPythonPlayer@@IAEKXZ ; CPythonPlayer::__GetTargetVID
  00005	50		 push	 eax
  00006	e8 00 00 00 00	 call	 ?NEW_FindActorPtr@CPythonPlayer@@QAEPAVCInstanceBase@@K@Z ; CPythonPlayer::NEW_FindActorPtr

; 107  : }

  0000b	c3		 ret	 0
?__GetTargetActorPtr@CPythonPlayer@@IAEPAVCInstanceBase@@XZ ENDP ; CPythonPlayer::__GetTargetActorPtr
_TEXT	ENDS
; Function compile flags: /Ogtp
; File E:\Metin2_server\SolWayneSF v6\ClientVS22\source\UserInterface\PythonPlayerInput.cpp
;	COMDAT ?__SetTargetVID@CPythonPlayer@@IAEXK@Z
_TEXT	SEGMENT
_dwVID$ = 8						; size = 4
?__SetTargetVID@CPythonPlayer@@IAEXK@Z PROC		; CPythonPlayer::__SetTargetVID, COMDAT
; _this$ = ecx

; 110  : {

  00000	55		 push	 ebp
  00001	8b ec		 mov	 ebp, esp

; 111  : 	m_dwTargetVID=dwVID;

  00003	8b 45 08	 mov	 eax, DWORD PTR _dwVID$[ebp]
  00006	89 81 9c 2e 01
	00		 mov	 DWORD PTR [ecx+77468], eax

; 112  : }

  0000c	5d		 pop	 ebp
  0000d	c2 04 00	 ret	 4
?__SetTargetVID@CPythonPlayer@@IAEXK@Z ENDP		; CPythonPlayer::__SetTargetVID
_TEXT	ENDS
; Function compile flags: /Ogtp
; File E:\Metin2_server\SolWayneSF v6\ClientVS22\source\UserInterface\PythonPlayerInput.cpp
;	COMDAT ?__ChangeTargetToPickedInstance@CPythonPlayer@@IAE_NXZ
_TEXT	SEGMENT
_dwVID$ = -4						; size = 4
?__ChangeTargetToPickedInstance@CPythonPlayer@@IAE_NXZ PROC ; CPythonPlayer::__ChangeTargetToPickedInstance, COMDAT
; _this$ = ecx

; 209  : {

  00000	55		 push	 ebp
  00001	8b ec		 mov	 ebp, esp
  00003	51		 push	 ecx
  00004	56		 push	 esi

; 210  : 	DWORD dwVID;
; 211  : 	if (!CPythonCharacterManager::Instance().OLD_GetPickedInstanceVID(&dwVID))

  00005	8d 45 fc	 lea	 eax, DWORD PTR _dwVID$[ebp]
  00008	8b f1		 mov	 esi, ecx
  0000a	8b 0d 00 00 00
	00		 mov	 ecx, DWORD PTR ?ms_singleton@?$CSingleton@VCPythonCharacterManager@@@@0PAVCPythonCharacterManager@@A ; CSingleton<CPythonCharacterManager>::ms_singleton
  00010	50		 push	 eax
  00011	e8 00 00 00 00	 call	 ?OLD_GetPickedInstanceVID@CPythonCharacterManager@@QAE_NPAK@Z ; CPythonCharacterManager::OLD_GetPickedInstanceVID
  00016	84 c0		 test	 al, al
  00018	75 05		 jne	 SHORT $LN2@ChangeTarg
  0001a	5e		 pop	 esi

; 216  : }

  0001b	8b e5		 mov	 esp, ebp
  0001d	5d		 pop	 ebp
  0001e	c3		 ret	 0
$LN2@ChangeTarg:

; 212  : 		return false;
; 213  : 
; 214  : 	SetTarget(dwVID);

  0001f	8b 46 04	 mov	 eax, DWORD PTR [esi+4]
  00022	8d 4e 04	 lea	 ecx, DWORD PTR [esi+4]
  00025	6a 01		 push	 1
  00027	ff 75 fc	 push	 DWORD PTR _dwVID$[ebp]
  0002a	ff 50 60	 call	 DWORD PTR [eax+96]

; 215  : 	return true;

  0002d	b0 01		 mov	 al, 1
  0002f	5e		 pop	 esi

; 216  : }

  00030	8b e5		 mov	 esp, ebp
  00032	5d		 pop	 ebp
  00033	c3		 ret	 0
?__ChangeTargetToPickedInstance@CPythonPlayer@@IAE_NXZ ENDP ; CPythonPlayer::__ChangeTargetToPickedInstance
_TEXT	ENDS
; Function compile flags: /Ogtp
; File E:\Metin2_server\SolWayneSF v6\ClientVS22\source\UserInterface\PythonPlayerInput.cpp
;	COMDAT ?__GetDeadTargetInstancePtr@CPythonPlayer@@IAEPAVCInstanceBase@@XZ
_TEXT	SEGMENT
?__GetDeadTargetInstancePtr@CPythonPlayer@@IAEPAVCInstanceBase@@XZ PROC ; CPythonPlayer::__GetDeadTargetInstancePtr, COMDAT
; _this$ = ecx

; 227  : {

  00000	56		 push	 esi

; 228  : 	if (!__IsTarget())

  00001	e8 00 00 00 00	 call	 ?__IsTarget@CPythonPlayer@@IAE_NXZ ; CPythonPlayer::__IsTarget
  00006	84 c0		 test	 al, al
  00008	74 1a		 je	 SHORT $LN6@GetDeadTar

; 229  : 		return NULL;
; 230  : 
; 231  : 	CInstanceBase * pkInstTarget = __GetTargetActorPtr();

  0000a	e8 00 00 00 00	 call	 ?__GetTargetActorPtr@CPythonPlayer@@IAEPAVCInstanceBase@@XZ ; CPythonPlayer::__GetTargetActorPtr
  0000f	8b f0		 mov	 esi, eax

; 232  : 
; 233  : 	if (!pkInstTarget)

  00011	85 f6		 test	 esi, esi
  00013	74 0f		 je	 SHORT $LN6@GetDeadTar

; 234  : 		return NULL;
; 235  : 
; 236  : 	if (!pkInstTarget->IsDead())

  00015	8b ce		 mov	 ecx, esi
  00017	e8 00 00 00 00	 call	 ?IsDead@CInstanceBase@@QAEHXZ ; CInstanceBase::IsDead
  0001c	f7 d8		 neg	 eax
  0001e	1b c0		 sbb	 eax, eax
  00020	23 c6		 and	 eax, esi
  00022	5e		 pop	 esi

; 238  : 
; 239  : 	return pkInstTarget;
; 240  : }

  00023	c3		 ret	 0
$LN6@GetDeadTar:

; 237  : 		return NULL;

  00024	33 c0		 xor	 eax, eax
  00026	5e		 pop	 esi

; 238  : 
; 239  : 	return pkInstTarget;
; 240  : }

  00027	c3		 ret	 0
?__GetDeadTargetInstancePtr@CPythonPlayer@@IAEPAVCInstanceBase@@XZ ENDP ; CPythonPlayer::__GetDeadTargetInstancePtr
_TEXT	ENDS
; Function compile flags: /Ogtp
; File E:\Metin2_server\SolWayneSF v6\ClientVS22\source\UserInterface\PythonPlayerInput.cpp
;	COMDAT ?OpenCharacterMenu@CPythonPlayer@@QAEXK@Z
_TEXT	SEGMENT
_dwVictimActorID$ = 8					; size = 4
?OpenCharacterMenu@CPythonPlayer@@QAEXK@Z PROC		; CPythonPlayer::OpenCharacterMenu, COMDAT
; _this$ = ecx

; 260  : {

  00000	55		 push	 ebp
  00001	8b ec		 mov	 ebp, esp
  00003	53		 push	 ebx
  00004	8b d9		 mov	 ebx, ecx

; 261  : 	CInstanceBase * pkInstMain = CPythonPlayer::Instance().NEW_GetMainActorPtr();

  00006	8b 0d 00 00 00
	00		 mov	 ecx, DWORD PTR ?ms_singleton@?$CSingleton@VCPythonPlayer@@@@0PAVCPythonPlayer@@A ; CSingleton<CPythonPlayer>::ms_singleton
  0000c	83 c1 04	 add	 ecx, 4
  0000f	8b 01		 mov	 eax, DWORD PTR [ecx]
  00011	ff 90 88 00 00
	00		 call	 DWORD PTR [eax+136]

; 262  : 	if (!pkInstMain)

  00017	85 c0		 test	 eax, eax
  00019	74 5d		 je	 SHORT $LN1@OpenCharac

; 263  : 		return;
; 264  : 
; 265  : 	CInstanceBase * pkInstTarget = CPythonCharacterManager::Instance().GetInstancePtr(dwVictimActorID);

  0001b	8b 0d 00 00 00
	00		 mov	 ecx, DWORD PTR ?ms_singleton@?$CSingleton@VCPythonCharacterManager@@@@0PAVCPythonCharacterManager@@A ; CSingleton<CPythonCharacterManager>::ms_singleton
  00021	83 c1 04	 add	 ecx, 4
  00024	57		 push	 edi
  00025	ff 75 08	 push	 DWORD PTR _dwVictimActorID$[ebp]
  00028	8b 01		 mov	 eax, DWORD PTR [ecx]
  0002a	ff 50 08	 call	 DWORD PTR [eax+8]
  0002d	8b f8		 mov	 edi, eax

; 266  : 	if (!pkInstTarget)

  0002f	85 ff		 test	 edi, edi
  00031	74 44		 je	 SHORT $LN6@OpenCharac

; 267  : 		return;
; 268  : 
; 269  : 	if (!pkInstTarget->IsPC() && !pkInstTarget->IsBuilding())

  00033	8b cf		 mov	 ecx, edi
  00035	e8 00 00 00 00	 call	 ?IsPC@CInstanceBase@@QAEHXZ ; CInstanceBase::IsPC
  0003a	85 c0		 test	 eax, eax
  0003c	75 0b		 jne	 SHORT $LN4@OpenCharac
  0003e	8b cf		 mov	 ecx, edi
  00040	e8 00 00 00 00	 call	 ?IsBuilding@CInstanceBase@@QAEHXZ ; CInstanceBase::IsBuilding
  00045	85 c0		 test	 eax, eax
  00047	74 2e		 je	 SHORT $LN6@OpenCharac
$LN4@OpenCharac:
  00049	56		 push	 esi

; 270  : 		return;
; 271  : 
; 272  : //	if (pkInstMain == pkInstTarget)
; 273  : //		return;
; 274  : 
; 275  : 	PyCallClassMemberFunc(m_ppyGameWindow, "SetPCTargetBoard", Py_BuildValue("(is)", pkInstTarget->GetVirtualID(), pkInstTarget->GetNameString()));

  0004a	8b cf		 mov	 ecx, edi
  0004c	e8 00 00 00 00	 call	 ?GetNameString@CInstanceBase@@QAEPBDXZ ; CInstanceBase::GetNameString
  00051	8b f0		 mov	 esi, eax
  00053	e8 00 00 00 00	 call	 ?GetVirtualID@CInstanceBase@@QAEKXZ ; CInstanceBase::GetVirtualID
  00058	56		 push	 esi
  00059	50		 push	 eax
  0005a	68 00 00 00 00	 push	 OFFSET ??_C@_04JMLDJNEM@?$CIis?$CJ@
  0005f	ff 15 00 00 00
	00		 call	 DWORD PTR __imp__Py_BuildValue
  00065	50		 push	 eax
  00066	68 00 00 00 00	 push	 OFFSET ??_C@_0BB@KPNAHCEN@SetPCTargetBoard@
  0006b	ff 73 08	 push	 DWORD PTR [ebx+8]
  0006e	e8 00 00 00 00	 call	 ?PyCallClassMemberFunc@@YA_NPAU_object@@PBD0@Z ; PyCallClassMemberFunc
  00073	83 c4 18	 add	 esp, 24			; 00000018H
  00076	5e		 pop	 esi
$LN6@OpenCharac:
  00077	5f		 pop	 edi
$LN1@OpenCharac:
  00078	5b		 pop	 ebx

; 276  : }

  00079	5d		 pop	 ebp
  0007a	c2 04 00	 ret	 4
?OpenCharacterMenu@CPythonPlayer@@QAEXK@Z ENDP		; CPythonPlayer::OpenCharacterMenu
_TEXT	ENDS
; Function compile flags: /Ogtp
; File E:\Metin2_server\SolWayneSF v6\ClientVS22\source\UserInterface\PythonPlayerInput.cpp
;	COMDAT ?__OnClickItem@CPythonPlayer@@IAEXAAVCInstanceBase@@K@Z
_TEXT	SEGMENT
_rkInstMain$dead$ = 8					; size = 4
_dwItemID$dead$ = 12					; size = 4
?__OnClickItem@CPythonPlayer@@IAEXAAVCInstanceBase@@K@Z PROC ; CPythonPlayer::__OnClickItem, COMDAT
; _this$dead$ = ecx

; 280  : }

  00000	c2 08 00	 ret	 8
?__OnClickItem@CPythonPlayer@@IAEXAAVCInstanceBase@@K@Z ENDP ; CPythonPlayer::__OnClickItem
_TEXT	ENDS
; Function compile flags: /Ogtp
; File E:\Metin2_server\SolWayneSF v6\ClientVS22\source\UserInterface\PythonPlayerInput.cpp
;	COMDAT ?__OnClickActor@CPythonPlayer@@IAEXAAVCInstanceBase@@K_N@Z
_TEXT	SEGMENT
_rkInstMain$ = 8					; size = 4
_dwPickedActorID$ = 12					; size = 4
_isAuto$dead$ = 16					; size = 1
?__OnClickActor@CPythonPlayer@@IAEXAAVCInstanceBase@@K_N@Z PROC ; CPythonPlayer::__OnClickActor, COMDAT
; _this$ = ecx

; 283  : {

  00000	55		 push	 ebp
  00001	8b ec		 mov	 ebp, esp
  00003	56		 push	 esi
  00004	8b f1		 mov	 esi, ecx
  00006	57		 push	 edi

; 284  : 	// 만약 스킬을 써서 접근중이라면..
; 285  : 	if (MODE_USE_SKILL == m_eReservedMode)

  00007	8b 7d 0c	 mov	 edi, DWORD PTR _dwPickedActorID$[ebp]
  0000a	83 7e 54 04	 cmp	 DWORD PTR [esi+84], 4
  0000e	75 21		 jne	 SHORT $LN4@OnClickAct

; 286  : 	{
; 287  : 		// 같은 캐릭터를 클릭 했으면 리턴
; 288  : 		if (__GetTargetVID() == dwPickedActorID)

  00010	e8 00 00 00 00	 call	 ?__GetTargetVID@CPythonPlayer@@IAEKXZ ; CPythonPlayer::__GetTargetVID
  00015	3b c7		 cmp	 eax, edi
  00017	74 7c		 je	 SHORT $LN1@OnClickAct

; 289  : 			return;
; 290  : 
; 291  : 		// 2005.03.25.levites
; 292  : 		// 탄환격을 쓰고 달려가는중 공격할 수 있는 다른 타겟을 클릭하면
; 293  : 		if (__CheckDashAffect(rkInstMain))

  00019	ff 75 08	 push	 DWORD PTR _rkInstMain$[ebp]
  0001c	e8 00 00 00 00	 call	 ?__CheckDashAffect@CPythonPlayer@@IAE_NAAVCInstanceBase@@@Z ; CPythonPlayer::__CheckDashAffect
  00021	84 c0		 test	 al, al
  00023	74 0c		 je	 SHORT $LN4@OnClickAct

; 294  : 		{
; 295  : 			m_dwVIDReserved = dwPickedActorID;

  00025	89 be f4 2d 01
	00		 mov	 DWORD PTR [esi+77300], edi
  0002b	5f		 pop	 edi

; 325  : 	return;
; 326  : }

  0002c	5e		 pop	 esi
  0002d	5d		 pop	 ebp
  0002e	c2 0c 00	 ret	 12			; 0000000cH
$LN4@OnClickAct:
  00031	53		 push	 ebx

; 296  : 			return;
; 297  : 		}
; 298  : 	}
; 299  : 
; 300  : 	__ClearReservedAction();

  00032	8b ce		 mov	 ecx, esi
  00034	e8 00 00 00 00	 call	 ?__ClearReservedAction@CPythonPlayer@@IAEXXZ ; CPythonPlayer::__ClearReservedAction

; 301  : 
; 302  : 	CInstanceBase* pkInstVictim=NEW_FindActorPtr(dwPickedActorID);

  00039	57		 push	 edi
  0003a	e8 00 00 00 00	 call	 ?NEW_FindActorPtr@CPythonPlayer@@QAEPAVCInstanceBase@@K@Z ; CPythonPlayer::NEW_FindActorPtr
  0003f	8b d8		 mov	 ebx, eax

; 303  : 	CInstanceBase& rkInstVictim=*pkInstVictim;
; 304  : 	if (!pkInstVictim)

  00041	85 db		 test	 ebx, ebx
  00043	74 4f		 je	 SHORT $LN11@OnClickAct

; 305  : 		return;
; 306  : 	
; 307  : 	// 2005.01.28.myevan
; 308  : 	// 초급말 상태에서는 공격이 안되나 NPC 클릭이되어야함
; 309  : 	if (rkInstMain.IsAttackableInstance(*pkInstVictim))

  00045	8b 4d 08	 mov	 ecx, DWORD PTR _rkInstMain$[ebp]
  00048	53		 push	 ebx
  00049	e8 00 00 00 00	 call	 ?IsAttackableInstance@CInstanceBase@@QAE_NAAV1@@Z ; CInstanceBase::IsAttackableInstance
  0004e	84 c0		 test	 al, al
  00050	74 0b		 je	 SHORT $LN7@OnClickAct

; 310  : 		if (!__CanAttack())

  00052	8b ce		 mov	 ecx, esi
  00054	e8 00 00 00 00	 call	 ?__CanAttack@CPythonPlayer@@IAE_NXZ ; CPythonPlayer::__CanAttack
  00059	84 c0		 test	 al, al
  0005b	74 37		 je	 SHORT $LN11@OnClickAct
$LN7@OnClickAct:

; 311  : 			return;
; 312  : 
; 313  : 	if (!rkInstMain.NEW_IsClickableDistanceDestInstance(rkInstVictim))

  0005d	8b 4d 08	 mov	 ecx, DWORD PTR _rkInstMain$[ebp]
  00060	53		 push	 ebx
  00061	e8 00 00 00 00	 call	 ?NEW_IsClickableDistanceDestInstance@CInstanceBase@@QAEHAAV1@@Z ; CInstanceBase::NEW_IsClickableDistanceDestInstance
  00066	85 c0		 test	 eax, eax
  00068	75 0f		 jne	 SHORT $LN8@OnClickAct

; 314  : 	{
; 315  : 		__ReserveClickActor(dwPickedActorID);

  0006a	57		 push	 edi
  0006b	8b ce		 mov	 ecx, esi
  0006d	e8 00 00 00 00	 call	 ?__ReserveClickActor@CPythonPlayer@@IAEXK@Z ; CPythonPlayer::__ReserveClickActor
  00072	5b		 pop	 ebx
  00073	5f		 pop	 edi

; 325  : 	return;
; 326  : }

  00074	5e		 pop	 esi
  00075	5d		 pop	 ebp
  00076	c2 0c 00	 ret	 12			; 0000000cH
$LN8@OnClickAct:

; 316  : 		return;
; 317  : 	}
; 318  : 
; 319  : 	if (rkInstVictim.IsNPC())

  00079	8b cb		 mov	 ecx, ebx
  0007b	e8 00 00 00 00	 call	 ?IsNPC@CInstanceBase@@QAEHXZ ; CInstanceBase::IsNPC
  00080	85 c0		 test	 eax, eax
  00082	74 08		 je	 SHORT $LN9@OnClickAct

; 320  : 	{
; 321  : 		__SendClickActorPacket(rkInstVictim);

  00084	53		 push	 ebx
  00085	8b ce		 mov	 ecx, esi
  00087	e8 00 00 00 00	 call	 ?__SendClickActorPacket@CPythonPlayer@@IAEXAAVCInstanceBase@@@Z ; CPythonPlayer::__SendClickActorPacket
$LN9@OnClickAct:

; 322  : 	}
; 323  : 
; 324  : 	rkInstMain.NEW_Stop();

  0008c	8b 4d 08	 mov	 ecx, DWORD PTR _rkInstMain$[ebp]
  0008f	e8 00 00 00 00	 call	 ?NEW_Stop@CInstanceBase@@QAEXXZ ; CInstanceBase::NEW_Stop
$LN11@OnClickAct:
  00094	5b		 pop	 ebx
$LN1@OnClickAct:
  00095	5f		 pop	 edi

; 325  : 	return;
; 326  : }

  00096	5e		 pop	 esi
  00097	5d		 pop	 ebp
  00098	c2 0c 00	 ret	 12			; 0000000cH
?__OnClickActor@CPythonPlayer@@IAEXAAVCInstanceBase@@K_N@Z ENDP ; CPythonPlayer::__OnClickActor
_TEXT	ENDS
; Function compile flags: /Ogtp
; File E:\Metin2_server\SolWayneSF v6\ClientVS22\source\UserInterface\PythonPlayerInput.cpp
; File E:\Metin2_server\SolWayneSF v6\ClientVS22\source\UserInterface\PythonPlayerEventHandler.h
; File E:\Metin2_server\SolWayneSF v6\ClientVS22\source\UserInterface\PythonPlayerInput.cpp
;	COMDAT ?__OnPressActor@CPythonPlayer@@IAEXAAVCInstanceBase@@K_N@Z
_TEXT	SEGMENT
_rkInstMain$ = 8					; size = 4
_dwPickedActorID$ = 12					; size = 4
_isAuto$ = 16						; size = 1
?__OnPressActor@CPythonPlayer@@IAEXAAVCInstanceBase@@K_N@Z PROC ; CPythonPlayer::__OnPressActor, COMDAT
; _this$ = ecx

; 329  : {

  00000	55		 push	 ebp
  00001	8b ec		 mov	 ebp, esp
  00003	53		 push	 ebx
  00004	56		 push	 esi
  00005	8b f1		 mov	 esi, ecx
  00007	57		 push	 edi

; 330  : 	// 만약 스킬을 써서 접근중이라면..
; 331  : 	if (MODE_USE_SKILL == m_eReservedMode)

  00008	8b 7d 08	 mov	 edi, DWORD PTR _rkInstMain$[ebp]
  0000b	83 7e 54 04	 cmp	 DWORD PTR [esi+84], 4
  0000f	75 27		 jne	 SHORT $LN17@OnPressAct

; 332  : 	{
; 333  : 		// 같은 캐릭터를 클릭 했으면 리턴
; 334  : 		if (__GetTargetVID() == dwPickedActorID)

  00011	e8 00 00 00 00	 call	 ?__GetTargetVID@CPythonPlayer@@IAEKXZ ; CPythonPlayer::__GetTargetVID
  00016	8b 5d 0c	 mov	 ebx, DWORD PTR _dwPickedActorID$[ebp]
  00019	3b c3		 cmp	 eax, ebx
  0001b	0f 84 cc 00 00
	00		 je	 $LN1@OnPressAct

; 335  : 			return;
; 336  : 
; 337  : 		// 2005.03.25.levites
; 338  : 		// 탄환격을 쓰고 달려가는중 공격할 수 있는 다른 타겟을 클릭하면
; 339  : 		if (__CheckDashAffect(rkInstMain))

  00021	57		 push	 edi
  00022	e8 00 00 00 00	 call	 ?__CheckDashAffect@CPythonPlayer@@IAE_NAAVCInstanceBase@@@Z ; CPythonPlayer::__CheckDashAffect
  00027	84 c0		 test	 al, al
  00029	74 10		 je	 SHORT $LN4@OnPressAct

; 340  : 		{
; 341  : 			m_dwVIDReserved = dwPickedActorID;

  0002b	5f		 pop	 edi
  0002c	89 9e f4 2d 01
	00		 mov	 DWORD PTR [esi+77300], ebx

; 385  : }

  00032	5e		 pop	 esi
  00033	5b		 pop	 ebx
  00034	5d		 pop	 ebp
  00035	c2 0c 00	 ret	 12			; 0000000cH
$LN17@OnPressAct:

; 330  : 	// 만약 스킬을 써서 접근중이라면..
; 331  : 	if (MODE_USE_SKILL == m_eReservedMode)

  00038	8b 5d 0c	 mov	 ebx, DWORD PTR _dwPickedActorID$[ebp]
$LN4@OnPressAct:

; 342  : 			return;
; 343  : 		}
; 344  : 	}
; 345  : 
; 346  : 	__ChangeTargetToPickedInstance();

  0003b	8b ce		 mov	 ecx, esi
  0003d	e8 00 00 00 00	 call	 ?__ChangeTargetToPickedInstance@CPythonPlayer@@IAE_NXZ ; CPythonPlayer::__ChangeTargetToPickedInstance

; 347  : 	__ClearReservedAction();

  00042	8b ce		 mov	 ecx, esi
  00044	e8 00 00 00 00	 call	 ?__ClearReservedAction@CPythonPlayer@@IAEXXZ ; CPythonPlayer::__ClearReservedAction

; 348  : 
; 349  : 	if (!__CanAttack())

  00049	e8 00 00 00 00	 call	 ?__CanAttack@CPythonPlayer@@IAE_NXZ ; CPythonPlayer::__CanAttack
  0004e	84 c0		 test	 al, al
  00050	0f 84 97 00 00
	00		 je	 $LN1@OnPressAct

; 350  : 		return;
; 351  : 
; 352  : 	CInstanceBase* pkInstVictim=NEW_FindActorPtr(dwPickedActorID);

  00056	53		 push	 ebx
  00057	e8 00 00 00 00	 call	 ?NEW_FindActorPtr@CPythonPlayer@@QAEPAVCInstanceBase@@K@Z ; CPythonPlayer::NEW_FindActorPtr
  0005c	8b d8		 mov	 ebx, eax

; 353  : 	if (!pkInstVictim)

  0005e	85 db		 test	 ebx, ebx
  00060	0f 84 87 00 00
	00		 je	 $LN1@OnPressAct

; 354  : 		return;
; 355  : 
; 356  : 	CInstanceBase& rkInstVictim=*pkInstVictim;
; 357  : 
; 358  : 	if (isAuto)

  00066	80 7d 10 00	 cmp	 BYTE PTR _isAuto$[ebp], 0
  0006a	74 1b		 je	 SHORT $LN8@OnPressAct

; 359  : 	{
; 360  : 		// 2004.10.21.myevan.공격가능한 상대만 자동 공격
; 361  : 		if (rkInstMain.IsAttackableInstance(rkInstVictim))

  0006c	53		 push	 ebx
  0006d	8b cf		 mov	 ecx, edi
  0006f	e8 00 00 00 00	 call	 ?IsAttackableInstance@CInstanceBase@@QAE_NAAV1@@Z ; CInstanceBase::IsAttackableInstance
  00074	84 c0		 test	 al, al
  00076	74 0f		 je	 SHORT $LN8@OnPressAct

; 362  : 			__SetAutoAttackTargetActorID(rkInstVictim.GetVirtualID());

  00078	8b cb		 mov	 ecx, ebx
  0007a	e8 00 00 00 00	 call	 ?GetVirtualID@CInstanceBase@@QAEKXZ ; CInstanceBase::GetVirtualID
  0007f	50		 push	 eax
  00080	8b ce		 mov	 ecx, esi
  00082	e8 00 00 00 00	 call	 ?__SetAutoAttackTargetActorID@CPythonPlayer@@IAEXK@Z ; CPythonPlayer::__SetAutoAttackTargetActorID
$LN8@OnPressAct:

; 363  : 	}
; 364  : 
; 365  : 	if (rkInstMain.IsBowMode())

  00087	8b cf		 mov	 ecx, edi
  00089	e8 00 00 00 00	 call	 ?IsBowMode@CInstanceBase@@QAEHXZ ; CInstanceBase::IsBowMode
  0008e	85 c0		 test	 eax, eax
  00090	74 19		 je	 SHORT $LN11@OnPressAct

; 366  : 	{
; 367  : 		if (rkInstMain.IsAttackableInstance(rkInstVictim))

  00092	53		 push	 ebx
  00093	8b cf		 mov	 ecx, edi
  00095	e8 00 00 00 00	 call	 ?IsAttackableInstance@CInstanceBase@@QAE_NAAV1@@Z ; CInstanceBase::IsAttackableInstance
  0009a	84 c0		 test	 al, al
  0009c	74 0d		 je	 SHORT $LN11@OnPressAct

; 368  : 			if (!__CanShot(rkInstMain, rkInstVictim))

  0009e	53		 push	 ebx
  0009f	57		 push	 edi
  000a0	8b ce		 mov	 ecx, esi
  000a2	e8 00 00 00 00	 call	 ?__CanShot@CPythonPlayer@@IAE_NAAVCInstanceBase@@0@Z ; CPythonPlayer::__CanShot
  000a7	84 c0		 test	 al, al
  000a9	74 42		 je	 SHORT $LN1@OnPressAct
$LN11@OnPressAct:

; 369  : 				return;
; 370  : 	}
; 371  : 
; 372  : 	if (!rkInstMain.NEW_IsClickableDistanceDestInstance(rkInstVictim))

  000ab	53		 push	 ebx
  000ac	8b cf		 mov	 ecx, edi
  000ae	e8 00 00 00 00	 call	 ?NEW_IsClickableDistanceDestInstance@CInstanceBase@@QAEHAAV1@@Z ; CInstanceBase::NEW_IsClickableDistanceDestInstance
  000b3	85 c0		 test	 eax, eax
  000b5	75 11		 jne	 SHORT $LN12@OnPressAct

; 373  : 	{
; 374  : 		__ReserveClickActor(dwPickedActorID);

  000b7	ff 75 0c	 push	 DWORD PTR _dwPickedActorID$[ebp]
  000ba	8b ce		 mov	 ecx, esi
  000bc	e8 00 00 00 00	 call	 ?__ReserveClickActor@CPythonPlayer@@IAEXK@Z ; CPythonPlayer::__ReserveClickActor
  000c1	5f		 pop	 edi

; 385  : }

  000c2	5e		 pop	 esi
  000c3	5b		 pop	 ebx
  000c4	5d		 pop	 ebp
  000c5	c2 0c 00	 ret	 12			; 0000000cH
$LN12@OnPressAct:

; 375  : 		return;
; 376  : 	}
; 377  : 
; 378  : 	if (!rkInstMain.IsAttackableInstance(rkInstVictim))

  000c8	53		 push	 ebx
  000c9	8b cf		 mov	 ecx, edi
  000cb	e8 00 00 00 00	 call	 ?IsAttackableInstance@CInstanceBase@@QAE_NAAV1@@Z ; CInstanceBase::IsAttackableInstance
  000d0	84 c0		 test	 al, al
  000d2	74 19		 je	 SHORT $LN1@OnPressAct

; 379  : 	{
; 380  : 		return;
; 381  : 	}
; 382  : 
; 383  : 	CPythonPlayerEventHandler& rkPlayerEventHandler=CPythonPlayerEventHandler::GetSingleton();

  000d4	e8 00 00 00 00	 call	 ?GetSingleton@CPythonPlayerEventHandler@@SAAAV1@XZ ; CPythonPlayerEventHandler::GetSingleton
; File E:\Metin2_server\SolWayneSF v6\ClientVS22\source\UserInterface\PythonPlayerEventHandler.h

; 81   : 				m_NormalBowAttack_FlyEventHandler_AutoClear.Set(this,pInstMain,pInstTarget);

  000d9	53		 push	 ebx
  000da	57		 push	 edi
  000db	50		 push	 eax
  000dc	8d 48 28	 lea	 ecx, DWORD PTR [eax+40]
  000df	e8 00 00 00 00	 call	 ?Set@CNormalBowAttack_FlyEventHandler_AutoClear@CPythonPlayerEventHandler@@QAEXPAV2@PAVCInstanceBase@@1@Z ; CPythonPlayerEventHandler::CNormalBowAttack_FlyEventHandler_AutoClear::Set
; File E:\Metin2_server\SolWayneSF v6\ClientVS22\source\UserInterface\PythonPlayerInput.cpp

; 384  : 	rkInstMain.NEW_AttackToDestInstanceDirection(rkInstVictim, rkPlayerEventHandler.GetNormalBowAttackFlyEventHandler(&rkInstMain, &rkInstVictim));	

  000e4	51		 push	 ecx
  000e5	53		 push	 ebx
  000e6	8b cf		 mov	 ecx, edi
  000e8	e8 00 00 00 00	 call	 ?NEW_AttackToDestInstanceDirection@CInstanceBase@@QAE_NAAV1@PAVIFlyEventHandler@@@Z ; CInstanceBase::NEW_AttackToDestInstanceDirection
$LN1@OnPressAct:

; 385  : }

  000ed	5f		 pop	 edi
  000ee	5e		 pop	 esi
  000ef	5b		 pop	 ebx
  000f0	5d		 pop	 ebp
  000f1	c2 0c 00	 ret	 12			; 0000000cH
?__OnPressActor@CPythonPlayer@@IAEXAAVCInstanceBase@@K_N@Z ENDP ; CPythonPlayer::__OnPressActor
_TEXT	ENDS
; Function compile flags: /Ogtp
; File E:\Metin2_server\SolWayneSF v6\ClientVS22\source\UserInterface\PythonPlayerInput.cpp
;	COMDAT ?__OnPressItem@CPythonPlayer@@IAEXAAVCInstanceBase@@K@Z
_TEXT	SEGMENT
_kPPosPickedItem$ = -12					; size = 12
_rkInstMain$ = 8					; size = 4
_dwPickedItemID$ = 12					; size = 4
?__OnPressItem@CPythonPlayer@@IAEXAAVCInstanceBase@@K@Z PROC ; CPythonPlayer::__OnPressItem, COMDAT
; _this$ = ecx

; 388  : {

  00000	55		 push	 ebp
  00001	8b ec		 mov	 ebp, esp
  00003	83 ec 0c	 sub	 esp, 12			; 0000000cH
  00006	56		 push	 esi

; 389  : 	static DWORD s_dwLastPickItemID=0;
; 390  : 
; 391  : 	if (s_dwLastPickItemID==dwPickedItemID)

  00007	8b 75 0c	 mov	 esi, DWORD PTR _dwPickedItemID$[ebp]
  0000a	57		 push	 edi
  0000b	8b f9		 mov	 edi, ecx
  0000d	39 35 00 00 00
	00		 cmp	 DWORD PTR ?s_dwLastPickItemID@?1??__OnPressItem@CPythonPlayer@@IAEXAAVCInstanceBase@@K@Z@4KA, esi
  00013	75 17		 jne	 SHORT $LN2@OnPressIte

; 392  : 	{
; 393  : 		Logn(1, "CPythonPlayer::__OnPressItem - ALREADY PICKED ITEM");

  00015	68 00 00 00 00	 push	 OFFSET ??_C@_0DD@MNMGJOCJ@CPythonPlayer?3?3__OnPressItem?5?9?5@
  0001a	6a 01		 push	 1
  0001c	e8 00 00 00 00	 call	 ?Logn@@YAXIPBD@Z	; Logn
  00021	83 c4 08	 add	 esp, 8
  00024	5f		 pop	 edi

; 414  : }

  00025	5e		 pop	 esi
  00026	8b e5		 mov	 esp, ebp
  00028	5d		 pop	 ebp
  00029	c2 08 00	 ret	 8
$LN2@OnPressIte:

; 394  : 		return;
; 395  : 	}
; 396  : 
; 397  : 	__ClearReservedAction();

  0002c	e8 00 00 00 00	 call	 ?__ClearReservedAction@CPythonPlayer@@IAEXXZ ; CPythonPlayer::__ClearReservedAction

; 398  : 	__ClearAutoAttackTargetActorID();

  00031	e8 00 00 00 00	 call	 ?__ClearAutoAttackTargetActorID@CPythonPlayer@@IAEXXZ ; CPythonPlayer::__ClearAutoAttackTargetActorID

; 399  : 
; 400  : 	CPythonItem& rkItem=CPythonItem::Instance();
; 401  : 
; 402  : 	TPixelPosition kPPosPickedItem;
; 403  : 	if (!rkItem.GetGroundItemPosition(dwPickedItemID, &kPPosPickedItem))

  00036	8b 0d 00 00 00
	00		 mov	 ecx, DWORD PTR ?ms_singleton@?$CSingleton@VCPythonItem@@@@0PAVCPythonItem@@A ; CSingleton<CPythonItem>::ms_singleton
  0003c	8d 45 f4	 lea	 eax, DWORD PTR _kPPosPickedItem$[ebp]
  0003f	50		 push	 eax
  00040	56		 push	 esi
  00041	e8 00 00 00 00	 call	 ?GetGroundItemPosition@CPythonItem@@QAEHKPAUD3DXVECTOR3@@@Z ; CPythonItem::GetGroundItemPosition
  00046	85 c0		 test	 eax, eax
  00048	74 30		 je	 SHORT $LN1@OnPressIte

; 404  : 		return;
; 405  : 
; 406  : 	if (!rkInstMain.NEW_IsClickableDistanceDestPixelPosition(kPPosPickedItem))

  0004a	8b 4d 08	 mov	 ecx, DWORD PTR _rkInstMain$[ebp]
  0004d	8d 45 f4	 lea	 eax, DWORD PTR _kPPosPickedItem$[ebp]
  00050	50		 push	 eax
  00051	e8 00 00 00 00	 call	 ?NEW_IsClickableDistanceDestPixelPosition@CInstanceBase@@QAEHABUD3DXVECTOR3@@@Z ; CInstanceBase::NEW_IsClickableDistanceDestPixelPosition
  00056	85 c0		 test	 eax, eax
  00058	75 10		 jne	 SHORT $LN4@OnPressIte

; 407  : 	{
; 408  : 		__ReserveClickItem(dwPickedItemID);

  0005a	56		 push	 esi
  0005b	8b cf		 mov	 ecx, edi
  0005d	e8 00 00 00 00	 call	 ?__ReserveClickItem@CPythonPlayer@@IAEXK@Z ; CPythonPlayer::__ReserveClickItem
  00062	5f		 pop	 edi

; 414  : }

  00063	5e		 pop	 esi
  00064	8b e5		 mov	 esp, ebp
  00066	5d		 pop	 ebp
  00067	c2 08 00	 ret	 8
$LN4@OnPressIte:

; 409  : 		return;
; 410  : 	}
; 411  : 
; 412  : 	rkInstMain.NEW_Stop();

  0006a	8b 4d 08	 mov	 ecx, DWORD PTR _rkInstMain$[ebp]
  0006d	e8 00 00 00 00	 call	 ?NEW_Stop@CInstanceBase@@QAEXXZ ; CInstanceBase::NEW_Stop

; 413  : 	SendClickItemPacket(dwPickedItemID);

  00072	56		 push	 esi
  00073	8b cf		 mov	 ecx, edi
  00075	e8 00 00 00 00	 call	 ?SendClickItemPacket@CPythonPlayer@@QAEXK@Z ; CPythonPlayer::SendClickItemPacket
$LN1@OnPressIte:

; 414  : }

  0007a	5f		 pop	 edi
  0007b	5e		 pop	 esi
  0007c	8b e5		 mov	 esp, ebp
  0007e	5d		 pop	 ebp
  0007f	c2 08 00	 ret	 8
?__OnPressItem@CPythonPlayer@@IAEXAAVCInstanceBase@@K@Z ENDP ; CPythonPlayer::__OnPressItem
_TEXT	ENDS
; Function compile flags: /Ogtp
; File E:\Metin2_server\SolWayneSF v6\ClientVS22\source\UserInterface\PythonPlayerInput.cpp
;	COMDAT ?__OnClickGround@CPythonPlayer@@IAEXAAVCInstanceBase@@ABUD3DXVECTOR3@@@Z
_TEXT	SEGMENT
_rkInstMain$ = 8					; size = 4
_c_rkPPosPickedGround$ = 12				; size = 4
?__OnClickGround@CPythonPlayer@@IAEXAAVCInstanceBase@@ABUD3DXVECTOR3@@@Z PROC ; CPythonPlayer::__OnClickGround, COMDAT
; _this$ = ecx

; 417  : {

  00000	55		 push	 ebp
  00001	8b ec		 mov	 ebp, esp
  00003	56		 push	 esi

; 418  : 	if (!__IsMovableGroundDistance(rkInstMain, c_rkPPosPickedGround))

  00004	8b 75 0c	 mov	 esi, DWORD PTR _c_rkPPosPickedGround$[ebp]
  00007	57		 push	 edi
  00008	56		 push	 esi
  00009	ff 75 08	 push	 DWORD PTR _rkInstMain$[ebp]
  0000c	8b f9		 mov	 edi, ecx
  0000e	e8 00 00 00 00	 call	 ?__IsMovableGroundDistance@CPythonPlayer@@IAE_NAAVCInstanceBase@@ABUD3DXVECTOR3@@@Z ; CPythonPlayer::__IsMovableGroundDistance
  00013	84 c0		 test	 al, al
  00015	74 15		 je	 SHORT $LN3@OnClickGro

; 419  : 		return;
; 420  : 
; 421  : 	if (rkInstMain.NEW_MoveToDestPixelPositionDirection(c_rkPPosPickedGround))

  00017	8b 4d 08	 mov	 ecx, DWORD PTR _rkInstMain$[ebp]
  0001a	56		 push	 esi
  0001b	e8 00 00 00 00	 call	 ?NEW_MoveToDestPixelPositionDirection@CInstanceBase@@QAE_NABUD3DXVECTOR3@@@Z ; CInstanceBase::NEW_MoveToDestPixelPositionDirection
  00020	84 c0		 test	 al, al
  00022	74 08		 je	 SHORT $LN3@OnClickGro

; 422  : 		__ShowPickedEffect(c_rkPPosPickedGround);

  00024	56		 push	 esi
  00025	8b cf		 mov	 ecx, edi
  00027	e8 00 00 00 00	 call	 ?__ShowPickedEffect@CPythonPlayer@@IAEXABUD3DXVECTOR3@@@Z ; CPythonPlayer::__ShowPickedEffect
$LN3@OnClickGro:

; 423  : }

  0002c	5f		 pop	 edi
  0002d	5e		 pop	 esi
  0002e	5d		 pop	 ebp
  0002f	c2 08 00	 ret	 8
?__OnClickGround@CPythonPlayer@@IAEXAAVCInstanceBase@@ABUD3DXVECTOR3@@@Z ENDP ; CPythonPlayer::__OnClickGround
_TEXT	ENDS
; Function compile flags: /Ogtp
; File E:\Metin2_server\SolWayneSF v6\ClientVS22\source\UserInterface\PythonPlayerInput.cpp
;	COMDAT ?__IsMovableGroundDistance@CPythonPlayer@@IAE_NAAVCInstanceBase@@ABUD3DXVECTOR3@@@Z
_TEXT	SEGMENT
_rkInstMain$ = 8					; size = 4
_c_rkPPosPickedGround$ = 12				; size = 4
?__IsMovableGroundDistance@CPythonPlayer@@IAE_NAAVCInstanceBase@@ABUD3DXVECTOR3@@@Z PROC ; CPythonPlayer::__IsMovableGroundDistance, COMDAT
; _this$ = ecx

; 431  : {	

  00000	55		 push	 ebp
  00001	8b ec		 mov	 ebp, esp
  00003	56		 push	 esi

; 432  : 	float fDistance=rkInstMain.NEW_GetDistanceFromDestPixelPosition(c_rkPPosPickedGround);	

  00004	ff 75 0c	 push	 DWORD PTR _c_rkPPosPickedGround$[ebp]
  00007	8b f1		 mov	 esi, ecx
  00009	8b 4d 08	 mov	 ecx, DWORD PTR _rkInstMain$[ebp]
  0000c	e8 00 00 00 00	 call	 ?NEW_GetDistanceFromDestPixelPosition@CInstanceBase@@QAEMABUD3DXVECTOR3@@@Z ; CInstanceBase::NEW_GetDistanceFromDestPixelPosition

; 433  : 
; 434  : 	if (fDistance<MOVABLE_GROUND_DISTANCE)

  00011	f3 0f 10 8e c8
	2e 01 00	 movss	 xmm1, DWORD PTR [esi+77512]
  00019	0f 2f c8	 comiss	 xmm1, xmm0
  0001c	5e		 pop	 esi
  0001d	0f 96 c0	 setbe	 al

; 435  : 		return false;
; 436  : 
; 437  : 	//Tracef("IsMovableGroundDistance(%f)\n", fDistance);
; 438  : 	return true;
; 439  : }

  00020	5d		 pop	 ebp
  00021	c2 08 00	 ret	 8
?__IsMovableGroundDistance@CPythonPlayer@@IAE_NAAVCInstanceBase@@ABUD3DXVECTOR3@@@Z ENDP ; CPythonPlayer::__IsMovableGroundDistance
_TEXT	ENDS
; Function compile flags: /Ogtp
; File E:\Metin2_server\SolWayneSF v6\ClientVS22\source\UserInterface\PythonPlayerInput.cpp
;	COMDAT ?__OnPressGround@CPythonPlayer@@IAEXAAVCInstanceBase@@ABUD3DXVECTOR3@@@Z
_TEXT	SEGMENT
_rkInstMain$ = 8					; size = 4
_c_rkPPosPickedGround$ = 12				; size = 4
?__OnPressGround@CPythonPlayer@@IAEXAAVCInstanceBase@@ABUD3DXVECTOR3@@@Z PROC ; CPythonPlayer::__OnPressGround, COMDAT
; _this$ = ecx

; 442  : {

  00000	55		 push	 ebp
  00001	8b ec		 mov	 ebp, esp
  00003	56		 push	 esi
  00004	57		 push	 edi
  00005	8b f1		 mov	 esi, ecx

; 443  : 	__ClearReservedAction();

  00007	e8 00 00 00 00	 call	 ?__ClearReservedAction@CPythonPlayer@@IAEXXZ ; CPythonPlayer::__ClearReservedAction

; 444  : 	__ClearAutoAttackTargetActorID();

  0000c	e8 00 00 00 00	 call	 ?__ClearAutoAttackTargetActorID@CPythonPlayer@@IAEXXZ ; CPythonPlayer::__ClearAutoAttackTargetActorID

; 445  : 
; 446  : 	if (NEW_CancelFishing())

  00011	e8 00 00 00 00	 call	 ?NEW_CancelFishing@CPythonPlayer@@QAE_NXZ ; CPythonPlayer::NEW_CancelFishing
  00016	84 c0		 test	 al, al
  00018	75 27		 jne	 SHORT $LN4@OnPressGro

; 447  : 		return;
; 448  : 
; 449  : 	if (!__IsMovableGroundDistance(rkInstMain, c_rkPPosPickedGround))

  0001a	8b 7d 0c	 mov	 edi, DWORD PTR _c_rkPPosPickedGround$[ebp]
  0001d	8b ce		 mov	 ecx, esi
  0001f	57		 push	 edi
  00020	ff 75 08	 push	 DWORD PTR _rkInstMain$[ebp]
  00023	e8 00 00 00 00	 call	 ?__IsMovableGroundDistance@CPythonPlayer@@IAE_NAAVCInstanceBase@@ABUD3DXVECTOR3@@@Z ; CPythonPlayer::__IsMovableGroundDistance
  00028	84 c0		 test	 al, al
  0002a	74 15		 je	 SHORT $LN4@OnPressGro

; 450  : 		return;
; 451  : 
; 452  : 	if (!rkInstMain.NEW_MoveToDestPixelPositionDirection(c_rkPPosPickedGround))

  0002c	8b 4d 08	 mov	 ecx, DWORD PTR _rkInstMain$[ebp]
  0002f	57		 push	 edi
  00030	e8 00 00 00 00	 call	 ?NEW_MoveToDestPixelPositionDirection@CInstanceBase@@QAE_NABUD3DXVECTOR3@@@Z ; CInstanceBase::NEW_MoveToDestPixelPositionDirection
  00035	84 c0		 test	 al, al
  00037	75 08		 jne	 SHORT $LN4@OnPressGro

; 453  : 	{
; 454  : 		__ReserveClickGround(c_rkPPosPickedGround);

  00039	57		 push	 edi
  0003a	8b ce		 mov	 ecx, esi
  0003c	e8 00 00 00 00	 call	 ?__ReserveClickGround@CPythonPlayer@@IAEXABUD3DXVECTOR3@@@Z ; CPythonPlayer::__ReserveClickGround
$LN4@OnPressGro:

; 455  : 		return;
; 456  : 	}
; 457  : }

  00041	5f		 pop	 edi
  00042	5e		 pop	 esi
  00043	5d		 pop	 ebp
  00044	c2 08 00	 ret	 8
?__OnPressGround@CPythonPlayer@@IAEXAAVCInstanceBase@@ABUD3DXVECTOR3@@@Z ENDP ; CPythonPlayer::__OnPressGround
_TEXT	ENDS
; Function compile flags: /Ogtp
; File E:\Metin2_server\SolWayneSF v6\ClientVS22\source\UserInterface\PythonPlayerInput.cpp
;	COMDAT ?__OnPressScreen@CPythonPlayer@@IAEXAAVCInstanceBase@@@Z
_TEXT	SEGMENT
_rkInstMain$dead$ = 8					; size = 4
?__OnPressScreen@CPythonPlayer@@IAEXAAVCInstanceBase@@@Z PROC ; CPythonPlayer::__OnPressScreen, COMDAT
; _this$ = ecx

; 461  : 	__ClearReservedAction();

  00000	e8 00 00 00 00	 call	 ?__ClearReservedAction@CPythonPlayer@@IAEXXZ ; CPythonPlayer::__ClearReservedAction

; 462  : 
; 463  : 	NEW_MoveToMouseScreenDirection();

  00005	e8 00 00 00 00	 call	 ?NEW_MoveToMouseScreenDirection@CPythonPlayer@@QAE_NXZ ; CPythonPlayer::NEW_MoveToMouseScreenDirection

; 464  : }

  0000a	c2 04 00	 ret	 4
?__OnPressScreen@CPythonPlayer@@IAEXAAVCInstanceBase@@@Z ENDP ; CPythonPlayer::__OnPressScreen
_TEXT	ENDS
; Function compile flags: /Ogtp
; File E:\Metin2_server\SolWayneSF v6\ClientVS22\source\UserInterface\PythonPlayerInput.cpp
; File C:\Program Files\Microsoft Visual Studio\2022\Community\VC\Tools\MSVC\14.34.31933\include\cmath
; File E:\Metin2_server\SolWayneSF v6\ClientVS22\source\UserInterface\PythonPlayerInput.cpp
; File C:\Program Files\Microsoft Visual Studio\2022\Community\VC\Tools\MSVC\14.34.31933\include\cmath
; File E:\Metin2_server\SolWayneSF v6\ClientVS22\source\UserInterface\PythonPlayerInput.cpp
;	COMDAT ?NEW_MoveToDirection@CPythonPlayer@@QAE_NM@Z
_TEXT	SEGMENT
_fCmrCurRot$1 = -20					; size = 4
_pkCmrCur$1$ = -16					; size = 4
_fElapsedTime$2 = -12					; size = 4
_fDirRot$1$ = -8					; size = 4
_fRotRat$1$ = -4					; size = 4
?NEW_MoveToDirection@CPythonPlayer@@QAE_NM@Z PROC	; CPythonPlayer::NEW_MoveToDirection, COMDAT
; _this$ = ecx
; _fDirRot$ = xmm1s

; 468  : {

  00000	53		 push	 ebx
  00001	8b dc		 mov	 ebx, esp
  00003	83 ec 08	 sub	 esp, 8
  00006	83 e4 f8	 and	 esp, -8			; fffffff8H
  00009	83 c4 04	 add	 esp, 4
  0000c	55		 push	 ebp
  0000d	8b 6b 04	 mov	 ebp, DWORD PTR [ebx+4]
  00010	89 6c 24 04	 mov	 DWORD PTR [esp+4], ebp
  00014	8b ec		 mov	 ebp, esp
  00016	83 ec 18	 sub	 esp, 24			; 00000018H
  00019	56		 push	 esi
  0001a	57		 push	 edi
  0001b	f3 0f 11 4d f8	 movss	 DWORD PTR _fDirRot$1$[ebp], xmm1
  00020	8b f1		 mov	 esi, ecx

; 469  : 	// PrivateShop
; 470  : 	if (IsOpenPrivateShop())

  00022	e8 00 00 00 00	 call	 ?IsOpenPrivateShop@CPythonPlayer@@QAE_NXZ ; CPythonPlayer::IsOpenPrivateShop
  00027	84 c0		 test	 al, al
  00029	0f 85 43 01 00
	00		 jne	 $LN17@NEW_MoveTo

; 471  : 		return true;
; 472  : 
; 473  : 	__ClearReservedAction();

  0002f	e8 00 00 00 00	 call	 ?__ClearReservedAction@CPythonPlayer@@IAEXXZ ; CPythonPlayer::__ClearReservedAction

; 474  : 
; 475  : 	CInstanceBase* pkInstMain=NEW_GetMainActorPtr();

  00034	8b 46 04	 mov	 eax, DWORD PTR [esi+4]
  00037	8d 4e 04	 lea	 ecx, DWORD PTR [esi+4]
  0003a	8b 80 88 00 00
	00		 mov	 eax, DWORD PTR [eax+136]
  00040	ff d0		 call	 eax
  00042	8b f8		 mov	 edi, eax

; 476  : 	if (!pkInstMain)

  00044	85 ff		 test	 edi, edi
  00046	75 0b		 jne	 SHORT $LN3@NEW_MoveTo

; 477  : 		return false;

  00048	32 c0		 xor	 al, al

; 511  : 
; 512  : 	return true;
; 513  : }

  0004a	5f		 pop	 edi
  0004b	5e		 pop	 esi
  0004c	8b e5		 mov	 esp, ebp
  0004e	5d		 pop	 ebp
  0004f	8b e3		 mov	 esp, ebx
  00051	5b		 pop	 ebx
  00052	c3		 ret	 0
$LN3@NEW_MoveTo:

; 478  : 
; 479  : 	if (pkInstMain->isLock())

  00053	8b cf		 mov	 ecx, edi
  00055	e8 00 00 00 00	 call	 ?isLock@CInstanceBase@@QAEHXZ ; CInstanceBase::isLock
  0005a	85 c0		 test	 eax, eax
  0005c	74 0f		 je	 SHORT $LN5@NEW_MoveTo

; 480  : 		if (!pkInstMain->IsUsingMovingSkill())

  0005e	8b cf		 mov	 ecx, edi
  00060	e8 00 00 00 00	 call	 ?IsUsingMovingSkill@CInstanceBase@@QAEHXZ ; CInstanceBase::IsUsingMovingSkill
  00065	85 c0		 test	 eax, eax
  00067	0f 84 05 01 00
	00		 je	 $LN17@NEW_MoveTo
$LN5@NEW_MoveTo:

; 481  : 			return true;
; 482  : 
; 483  : 	CCamera* pkCmrCur=CCameraManager::Instance().GetCurrentCamera();

  0006d	8b 0d 00 00 00
	00		 mov	 ecx, DWORD PTR ?ms_singleton@?$CSingleton@VCCameraManager@@@@0PAVCCameraManager@@A ; CSingleton<CCameraManager>::ms_singleton
  00073	e8 00 00 00 00	 call	 ?GetCurrentCamera@CCameraManager@@QAEPAVCCamera@@XZ ; CCameraManager::GetCurrentCamera
  00078	89 45 f0	 mov	 DWORD PTR _pkCmrCur$1$[ebp], eax

; 484  : 	if (pkCmrCur)

  0007b	85 c0		 test	 eax, eax
  0007d	0f 84 e0 00 00
	00		 je	 $LN19@NEW_MoveTo

; 485  : 	{
; 486  : 		float fCmrCurRot=CameraRotationToCharacterRotation(pkCmrCur->GetRoll());

  00083	f3 0f 10 80 30
	01 00 00	 movss	 xmm0, DWORD PTR [eax+304]
  0008b	51		 push	 ecx
  0008c	f3 0f 11 04 24	 movss	 DWORD PTR [esp], xmm0
  00091	e8 00 00 00 00	 call	 ?CameraRotationToCharacterRotation@@YAMM@Z ; CameraRotationToCharacterRotation

; 487  : 
; 488  : 		// 현재 
; 489  : 		if (m_isCmrRot)

  00096	f3 0f 10 1d 00
	00 00 00	 movss	 xmm3, DWORD PTR __real@43b40000
  0009e	83 c4 04	 add	 esp, 4
  000a1	80 7e 66 00	 cmp	 BYTE PTR [esi+102], 0
  000a5	d9 5d ec	 fstp	 DWORD PTR _fCmrCurRot$1[ebp]
  000a8	0f 84 9d 00 00
	00		 je	 $LN7@NEW_MoveTo

; 490  : 		{
; 491  : 			float fSigDirRot=fDirRot;

  000ae	f3 0f 10 45 f8	 movss	 xmm0, DWORD PTR _fDirRot$1$[ebp]

; 492  : 			if (fSigDirRot>180.0f)

  000b3	f3 0f 10 15 00
	00 00 00	 movss	 xmm2, DWORD PTR __real@43340000
  000bb	0f 28 c8	 movaps	 xmm1, xmm0
  000be	0f 2f c2	 comiss	 xmm0, xmm2
  000c1	f3 0f 11 45 fc	 movss	 DWORD PTR _fRotRat$1$[ebp], xmm0
  000c6	76 09		 jbe	 SHORT $LN8@NEW_MoveTo

; 493  : 				fSigDirRot=fSigDirRot-360.0f;

  000c8	f3 0f 5c cb	 subss	 xmm1, xmm3
  000cc	f3 0f 11 4d fc	 movss	 DWORD PTR _fRotRat$1$[ebp], xmm1
$LN8@NEW_MoveTo:

; 494  : 
; 495  : 			float fRotRat=fSigDirRot;
; 496  : 			if (fRotRat>90.0f)

  000d1	0f 2f 0d 00 00
	00 00		 comiss	 xmm1, DWORD PTR __real@42b40000
  000d8	76 09		 jbe	 SHORT $LN9@NEW_MoveTo

; 497  : 				fRotRat=(180.0f-fRotRat);

  000da	f3 0f 5c d1	 subss	 xmm2, xmm1
  000de	0f 28 ca	 movaps	 xmm1, xmm2
  000e1	eb 1c		 jmp	 SHORT $LN20@NEW_MoveTo
$LN9@NEW_MoveTo:

; 498  : 			else if (fRotRat<-90.0f)

  000e3	f3 0f 10 05 00
	00 00 00	 movss	 xmm0, DWORD PTR __real@c2b40000
  000eb	0f 2f c1	 comiss	 xmm0, xmm1
  000ee	76 14		 jbe	 SHORT $LN11@NEW_MoveTo

; 499  : 				fRotRat=(-180.0f-fRotRat);

  000f0	f3 0f 10 05 00
	00 00 00	 movss	 xmm0, DWORD PTR __real@c3340000
  000f8	f3 0f 5c c1	 subss	 xmm0, xmm1
  000fc	0f 28 c8	 movaps	 xmm1, xmm0
$LN20@NEW_MoveTo:

; 500  : 
; 501  : 			float fElapsedTime = CPythonApplication::Instance().GetGlobalElapsedTime();

  000ff	f3 0f 11 4d fc	 movss	 DWORD PTR _fRotRat$1$[ebp], xmm1
$LN11@NEW_MoveTo:
  00104	8b 0d 00 00 00
	00		 mov	 ecx, DWORD PTR ?ms_pInstance@CPythonApplication@@1PAV1@A ; CPythonApplication::ms_pInstance
  0010a	83 c1 20	 add	 ecx, 32			; 00000020H
  0010d	8b 01		 mov	 eax, DWORD PTR [ecx]
  0010f	8b 40 0c	 mov	 eax, DWORD PTR [eax+12]
  00112	ff d0		 call	 eax

; 502  : 
; 503  : 			float fRotDeg = -m_fCmrRotSpd * fElapsedTime * fRotRat / 90.0f;

  00114	f3 0f 10 46 6c	 movss	 xmm0, DWORD PTR [esi+108]
  00119	0f 57 05 00 00
	00 00		 xorps	 xmm0, DWORD PTR __xmm@80000000800000008000000080000000
  00120	d9 5d f4	 fstp	 DWORD PTR _fElapsedTime$2[ebp]
  00123	f3 0f 59 45 f4	 mulss	 xmm0, DWORD PTR _fElapsedTime$2[ebp]

; 504  : 			pkCmrCur->Roll(fRotDeg);

  00128	51		 push	 ecx
  00129	8b 4d f0	 mov	 ecx, DWORD PTR _pkCmrCur$1$[ebp]
  0012c	f3 0f 59 45 fc	 mulss	 xmm0, DWORD PTR _fRotRat$1$[ebp]
  00131	f3 0f 5e 05 00
	00 00 00	 divss	 xmm0, DWORD PTR __real@42b40000
  00139	f3 0f 11 04 24	 movss	 DWORD PTR [esp], xmm0
  0013e	e8 00 00 00 00	 call	 ?Roll@CCamera@@QAEXM@Z	; CCamera::Roll
  00143	f3 0f 10 1d 00
	00 00 00	 movss	 xmm3, DWORD PTR __real@43b40000
$LN7@NEW_MoveTo:

; 507  : 		fDirRot=fmod(360.0f + fCmrCurRot + fDirRot, 360.0f);

  0014b	f3 0f 10 45 ec	 movss	 xmm0, DWORD PTR _fCmrCurRot$1[ebp]
; File C:\Program Files\Microsoft Visual Studio\2022\Community\VC\Tools\MSVC\14.34.31933\include\cmath

; 147  :     return _CSTD fmodf(_Xx, _Yx);

  00150	0f 28 cb	 movaps	 xmm1, xmm3
; File E:\Metin2_server\SolWayneSF v6\ClientVS22\source\UserInterface\PythonPlayerInput.cpp

; 507  : 		fDirRot=fmod(360.0f + fCmrCurRot + fDirRot, 360.0f);

  00153	f3 0f 58 c3	 addss	 xmm0, xmm3
  00157	f3 0f 58 45 f8	 addss	 xmm0, DWORD PTR _fDirRot$1$[ebp]
; File C:\Program Files\Microsoft Visual Studio\2022\Community\VC\Tools\MSVC\14.34.31933\include\cmath

; 147  :     return _CSTD fmodf(_Xx, _Yx);

  0015c	e8 00 00 00 00	 call	 _fmodf
; File E:\Metin2_server\SolWayneSF v6\ClientVS22\source\UserInterface\PythonPlayerInput.cpp

; 484  : 	if (pkCmrCur)

  00161	eb 05		 jmp	 SHORT $LN14@NEW_MoveTo
$LN19@NEW_MoveTo:
  00163	f3 0f 10 45 f8	 movss	 xmm0, DWORD PTR _fDirRot$1$[ebp]
$LN14@NEW_MoveTo:

; 508  : 	}
; 509  : 
; 510  : 	pkInstMain->NEW_MoveToDirection(fDirRot);

  00168	0f 28 c8	 movaps	 xmm1, xmm0
  0016b	8b cf		 mov	 ecx, edi
  0016d	e8 00 00 00 00	 call	 ?NEW_MoveToDirection@CInstanceBase@@QAEXM@Z ; CInstanceBase::NEW_MoveToDirection
$LN17@NEW_MoveTo:

; 511  : 
; 512  : 	return true;
; 513  : }

  00172	5f		 pop	 edi
  00173	b0 01		 mov	 al, 1
  00175	5e		 pop	 esi
  00176	8b e5		 mov	 esp, ebp
  00178	5d		 pop	 ebp
  00179	8b e3		 mov	 esp, ebx
  0017b	5b		 pop	 ebx
  0017c	c3		 ret	 0
?NEW_MoveToDirection@CPythonPlayer@@QAE_NM@Z ENDP	; CPythonPlayer::NEW_MoveToDirection
_TEXT	ENDS
; Function compile flags: /Ogtp
; File E:\Metin2_server\SolWayneSF v6\ClientVS22\source\UserInterface\PythonPlayerInput.cpp
;	COMDAT ?NEW_CancelFishing@CPythonPlayer@@QAE_NXZ
_TEXT	SEGMENT
?NEW_CancelFishing@CPythonPlayer@@QAE_NXZ PROC		; CPythonPlayer::NEW_CancelFishing, COMDAT
; _this$ = ecx

; 530  : 	CInstanceBase* pkInstMain = NEW_GetMainActorPtr();

  00000	8b 41 04	 mov	 eax, DWORD PTR [ecx+4]
  00003	83 c1 04	 add	 ecx, 4
  00006	ff 90 88 00 00
	00		 call	 DWORD PTR [eax+136]

; 531  : 	if (!pkInstMain)

  0000c	85 c0		 test	 eax, eax
  0000e	74 46		 je	 SHORT $LN3@NEW_Cancel

; 532  : 		return false;
; 533  : 
; 534  : 	if (pkInstMain->IsFishing())

  00010	8b c8		 mov	 ecx, eax
  00012	e8 00 00 00 00	 call	 ?IsFishing@CInstanceBase@@QAEHXZ ; CInstanceBase::IsFishing
  00017	85 c0		 test	 eax, eax
  00019	74 3b		 je	 SHORT $LN3@NEW_Cancel

; 535  : 	{
; 536  : 		static DWORD s_dwLastCancelTime = 0;
; 537  : 		if (CTimer::Instance().GetCurrentMillisecond() < s_dwLastCancelTime + 500)

  0001b	8b 0d 00 00 00
	00		 mov	 ecx, DWORD PTR ?ms_singleton@?$CSingleton@VCTimer@@@@0PAVCTimer@@A ; CSingleton<CTimer>::ms_singleton
  00021	e8 00 00 00 00	 call	 ?GetCurrentMillisecond@CTimer@@QAEKXZ ; CTimer::GetCurrentMillisecond
  00026	8b 0d 00 00 00
	00		 mov	 ecx, DWORD PTR ?s_dwLastCancelTime@?6??NEW_CancelFishing@CPythonPlayer@@QAE_NXZ@4KA
  0002c	81 c1 f4 01 00
	00		 add	 ecx, 500		; 000001f4H
  00032	3b c1		 cmp	 eax, ecx
  00034	72 20		 jb	 SHORT $LN3@NEW_Cancel

; 538  : 			return false;
; 539  : 
; 540  : 		CPythonNetworkStream::Instance().SendFishingPacket(0);

  00036	8b 0d 00 00 00
	00		 mov	 ecx, DWORD PTR ?ms_singleton@?$CSingleton@VCPythonNetworkStream@@@@0PAVCPythonNetworkStream@@A ; CSingleton<CPythonNetworkStream>::ms_singleton
  0003c	6a 00		 push	 0
  0003e	e8 00 00 00 00	 call	 ?SendFishingPacket@CPythonNetworkStream@@QAE_NH@Z ; CPythonNetworkStream::SendFishingPacket

; 541  : 		s_dwLastCancelTime = CTimer::Instance().GetCurrentMillisecond();

  00043	8b 0d 00 00 00
	00		 mov	 ecx, DWORD PTR ?ms_singleton@?$CSingleton@VCTimer@@@@0PAVCTimer@@A ; CSingleton<CTimer>::ms_singleton
  00049	e8 00 00 00 00	 call	 ?GetCurrentMillisecond@CTimer@@QAEKXZ ; CTimer::GetCurrentMillisecond
  0004e	a3 00 00 00 00	 mov	 DWORD PTR ?s_dwLastCancelTime@?6??NEW_CancelFishing@CPythonPlayer@@QAE_NXZ@4KA, eax

; 542  : 		return true;

  00053	b0 01		 mov	 al, 1

; 546  : }

  00055	c3		 ret	 0
$LN3@NEW_Cancel:

; 543  : 	}
; 544  : 
; 545  : 	return false;

  00056	32 c0		 xor	 al, al

; 546  : }

  00058	c3		 ret	 0
?NEW_CancelFishing@CPythonPlayer@@QAE_NXZ ENDP		; CPythonPlayer::NEW_CancelFishing
_TEXT	ENDS
; Function compile flags: /Ogtp
; File E:\Metin2_server\SolWayneSF v6\ClientVS22\source\UserInterface\PythonPlayerInput.cpp
;	COMDAT ?NEW_Fishing@CPythonPlayer@@QAEXXZ
_TEXT	SEGMENT
_irot$1 = -4						; size = 4
?NEW_Fishing@CPythonPlayer@@QAEXXZ PROC			; CPythonPlayer::NEW_Fishing, COMDAT
; _this$ = ecx

; 549  : {

  00000	55		 push	 ebp
  00001	8b ec		 mov	 ebp, esp
  00003	51		 push	 ecx
  00004	56		 push	 esi
  00005	57		 push	 edi
  00006	8b f9		 mov	 edi, ecx

; 550  : 	CInstanceBase* pkInstMain = NEW_GetMainActorPtr();

  00008	8b 47 04	 mov	 eax, DWORD PTR [edi+4]
  0000b	8d 4f 04	 lea	 ecx, DWORD PTR [edi+4]
  0000e	ff 90 88 00 00
	00		 call	 DWORD PTR [eax+136]
  00014	8b f0		 mov	 esi, eax

; 551  : 	if (!pkInstMain)

  00016	85 f6		 test	 esi, esi
  00018	74 68		 je	 SHORT $LN7@NEW_Fishin

; 552  : 		return;
; 553  : 
; 554  : 	if (pkInstMain->IsFishing())

  0001a	8b ce		 mov	 ecx, esi
  0001c	e8 00 00 00 00	 call	 ?IsFishing@CInstanceBase@@QAEHXZ ; CInstanceBase::IsFishing
  00021	85 c0		 test	 eax, eax
  00023	74 13		 je	 SHORT $LN3@NEW_Fishin

; 555  : 	{
; 556  : 		CPythonNetworkStream::Instance().SendFishingPacket(0);

  00025	8b 0d 00 00 00
	00		 mov	 ecx, DWORD PTR ?ms_singleton@?$CSingleton@VCPythonNetworkStream@@@@0PAVCPythonNetworkStream@@A ; CSingleton<CPythonNetworkStream>::ms_singleton
  0002b	6a 00		 push	 0
  0002d	e8 00 00 00 00	 call	 ?SendFishingPacket@CPythonNetworkStream@@QAE_NH@Z ; CPythonNetworkStream::SendFishingPacket

; 568  : 			}
; 569  : 		}
; 570  : 	}
; 571  : }

  00032	5f		 pop	 edi
  00033	5e		 pop	 esi
  00034	8b e5		 mov	 esp, ebp
  00036	5d		 pop	 ebp
  00037	c3		 ret	 0
$LN3@NEW_Fishin:

; 557  : 	}
; 558  : 	else
; 559  : 	{
; 560  : 		if (pkInstMain->CanFishing())

  00038	8b ce		 mov	 ecx, esi
  0003a	e8 00 00 00 00	 call	 ?CanFishing@CInstanceBase@@QAE_NXZ ; CInstanceBase::CanFishing
  0003f	84 c0		 test	 al, al
  00041	74 3f		 je	 SHORT $LN7@NEW_Fishin

; 561  : 		{
; 562  : 			int irot;
; 563  : 			if (pkInstMain->GetFishingRot(&irot))

  00043	8d 45 fc	 lea	 eax, DWORD PTR _irot$1[ebp]
  00046	8b ce		 mov	 ecx, esi
  00048	50		 push	 eax
  00049	e8 00 00 00 00	 call	 ?GetFishingRot@CInstanceBase@@QAEHPAH@Z ; CInstanceBase::GetFishingRot
  0004e	85 c0		 test	 eax, eax
  00050	74 14		 je	 SHORT $LN6@NEW_Fishin

; 564  : 				CPythonNetworkStream::Instance().SendFishingPacket(irot);

  00052	ff 75 fc	 push	 DWORD PTR _irot$1[ebp]
  00055	8b 0d 00 00 00
	00		 mov	 ecx, DWORD PTR ?ms_singleton@?$CSingleton@VCPythonNetworkStream@@@@0PAVCPythonNetworkStream@@A ; CSingleton<CPythonNetworkStream>::ms_singleton
  0005b	e8 00 00 00 00	 call	 ?SendFishingPacket@CPythonNetworkStream@@QAE_NH@Z ; CPythonNetworkStream::SendFishingPacket

; 568  : 			}
; 569  : 		}
; 570  : 	}
; 571  : }

  00060	5f		 pop	 edi
  00061	5e		 pop	 esi
  00062	8b e5		 mov	 esp, ebp
  00064	5d		 pop	 ebp
  00065	c3		 ret	 0
$LN6@NEW_Fishin:

; 565  : 			else
; 566  : 			{
; 567  : 				PyCallClassMemberFunc(m_ppyGameWindow, "OnFishingWrongPlace", Py_BuildValue("()"));

  00066	68 00 00 00 00	 push	 OFFSET ??_C@_02HCKGKOFO@?$CI?$CJ@
  0006b	ff 15 00 00 00
	00		 call	 DWORD PTR __imp__Py_BuildValue
  00071	50		 push	 eax
  00072	68 00 00 00 00	 push	 OFFSET ??_C@_0BE@DLANHBIF@OnFishingWrongPlace@
  00077	ff 77 08	 push	 DWORD PTR [edi+8]
  0007a	e8 00 00 00 00	 call	 ?PyCallClassMemberFunc@@YA_NPAU_object@@PBD0@Z ; PyCallClassMemberFunc
  0007f	83 c4 10	 add	 esp, 16			; 00000010H
$LN7@NEW_Fishin:

; 568  : 			}
; 569  : 		}
; 570  : 	}
; 571  : }

  00082	5f		 pop	 edi
  00083	5e		 pop	 esi
  00084	8b e5		 mov	 esp, ebp
  00086	5d		 pop	 ebp
  00087	c3		 ret	 0
?NEW_Fishing@CPythonPlayer@@QAEXXZ ENDP			; CPythonPlayer::NEW_Fishing
_TEXT	ENDS
; Function compile flags: /Ogtp
; File E:\Metin2_server\SolWayneSF v6\ClientVS22\source\UserInterface\PythonPlayerInput.cpp
; File C:\Program Files\Microsoft Visual Studio\2022\Community\VC\Tools\MSVC\14.34.31933\include\cmath
; File E:\Metin2_server\SolWayneSF v6\ClientVS22\source\UserInterface\PythonPlayerInput.cpp
; File C:\Program Files\Microsoft Visual Studio\2022\Community\VC\Tools\MSVC\14.34.31933\include\cmath
; File E:\Metin2_server\SolWayneSF v6\ClientVS22\source\UserInterface\PythonPlayerInput.cpp
;	COMDAT ?NEW_Attack@CPythonPlayer@@QAEXXZ
_TEXT	SEGMENT
tv260 = -4						; size = 4
_fDirRot$1 = -4						; size = 4
?NEW_Attack@CPythonPlayer@@QAEXXZ PROC			; CPythonPlayer::NEW_Attack, COMDAT
; _this$ = ecx

; 574  : {

  00000	55		 push	 ebp
  00001	8b ec		 mov	 ebp, esp
  00003	51		 push	 ecx
  00004	53		 push	 ebx
  00005	56		 push	 esi
  00006	57		 push	 edi
  00007	8b f1		 mov	 esi, ecx

; 575  : 	// PrivateShop
; 576  : 	if (IsOpenPrivateShop())

  00009	e8 00 00 00 00	 call	 ?IsOpenPrivateShop@CPythonPlayer@@QAE_NXZ ; CPythonPlayer::IsOpenPrivateShop
  0000e	84 c0		 test	 al, al
  00010	0f 85 97 01 00
	00		 jne	 $LN14@NEW_Attack

; 577  : 		return;
; 578  : 
; 579  : 	if (!__CanAttack())

  00016	e8 00 00 00 00	 call	 ?__CanAttack@CPythonPlayer@@IAE_NXZ ; CPythonPlayer::__CanAttack
  0001b	84 c0		 test	 al, al
  0001d	0f 84 8a 01 00
	00		 je	 $LN14@NEW_Attack

; 580  : 		return; 
; 581  : 
; 582  : 	CInstanceBase* pkInstMain = NEW_GetMainActorPtr();

  00023	8b 46 04	 mov	 eax, DWORD PTR [esi+4]
  00026	8d 4e 04	 lea	 ecx, DWORD PTR [esi+4]
  00029	ff 90 88 00 00
	00		 call	 DWORD PTR [eax+136]
  0002f	8b f8		 mov	 edi, eax

; 583  : 	if (!pkInstMain)

  00031	85 ff		 test	 edi, edi
  00033	0f 84 74 01 00
	00		 je	 $LN14@NEW_Attack

; 584  : 		return;
; 585  : 
; 586  : 	if (pkInstMain->IsBowMode())

  00039	8b cf		 mov	 ecx, edi
  0003b	e8 00 00 00 00	 call	 ?IsBowMode@CInstanceBase@@QAEHXZ ; CInstanceBase::IsBowMode
  00040	85 c0		 test	 eax, eax
  00042	0f 84 b0 00 00
	00		 je	 $LN5@NEW_Attack

; 587  : 	{
; 588  : 		//CPythonPlayerEventHandler& rkPlayerEventHandler=CPythonPlayerEventHandler::GetSingleton();
; 589  : 
; 590  : 		CInstanceBase * pkInstTarget = __GetAliveTargetInstancePtr();

  00048	8b ce		 mov	 ecx, esi
  0004a	e8 00 00 00 00	 call	 ?__GetAliveTargetInstancePtr@CPythonPlayer@@IAEPAVCInstanceBase@@XZ ; CPythonPlayer::__GetAliveTargetInstancePtr
  0004f	8b d8		 mov	 ebx, eax

; 591  : 		if (!pkInstTarget)

  00051	85 db		 test	 ebx, ebx
  00053	75 49		 jne	 SHORT $LN23@NEW_Attack

; 592  : 		{
; 593  : 			__ChangeTargetToPickedInstance();

  00055	8b ce		 mov	 ecx, esi
  00057	e8 00 00 00 00	 call	 ?__ChangeTargetToPickedInstance@CPythonPlayer@@IAE_NXZ ; CPythonPlayer::__ChangeTargetToPickedInstance

; 594  : 			pkInstTarget = __GetAliveTargetInstancePtr();

  0005c	8b ce		 mov	 ecx, esi
  0005e	e8 00 00 00 00	 call	 ?__GetAliveTargetInstancePtr@CPythonPlayer@@IAEPAVCInstanceBase@@XZ ; CPythonPlayer::__GetAliveTargetInstancePtr
  00063	8b d8		 mov	 ebx, eax

; 595  : 		}
; 596  : 
; 597  : 		if (pkInstTarget)

  00065	85 db		 test	 ebx, ebx
  00067	75 35		 jne	 SHORT $LN23@NEW_Attack

; 612  : 			}
; 613  : 		}
; 614  : 		else
; 615  : 		{
; 616  : 			PyCallClassMemberFunc(m_ppyGameWindow, "OnCannotUseSkill", Py_BuildValue("(is)", GetMainCharacterIndex(), "NEED_TARGET"));

  00069	8b 46 04	 mov	 eax, DWORD PTR [esi+4]
  0006c	8d 4e 04	 lea	 ecx, DWORD PTR [esi+4]
  0006f	68 00 00 00 00	 push	 OFFSET ??_C@_0M@HCIEKIGP@NEED_TARGET@
  00074	ff 50 04	 call	 DWORD PTR [eax+4]
  00077	50		 push	 eax
  00078	68 00 00 00 00	 push	 OFFSET ??_C@_04JMLDJNEM@?$CIis?$CJ@
  0007d	ff 15 00 00 00
	00		 call	 DWORD PTR __imp__Py_BuildValue
  00083	83 c4 0c	 add	 esp, 12			; 0000000cH
  00086	50		 push	 eax
  00087	68 00 00 00 00	 push	 OFFSET ??_C@_0BB@BOHMBBJL@OnCannotUseSkill@
  0008c	ff 76 08	 push	 DWORD PTR [esi+8]
  0008f	e8 00 00 00 00	 call	 ?PyCallClassMemberFunc@@YA_NPAU_object@@PBD0@Z ; PyCallClassMemberFunc
  00094	83 c4 0c	 add	 esp, 12			; 0000000cH

; 645  : 	}
; 646  : }

  00097	5f		 pop	 edi
  00098	5e		 pop	 esi
  00099	5b		 pop	 ebx
  0009a	8b e5		 mov	 esp, ebp
  0009c	5d		 pop	 ebp
  0009d	c3		 ret	 0
$LN23@NEW_Attack:

; 598  : 		{
; 599  : 			if (!__CanShot(*pkInstMain, *pkInstTarget))

  0009e	53		 push	 ebx
  0009f	57		 push	 edi
  000a0	8b ce		 mov	 ecx, esi
  000a2	e8 00 00 00 00	 call	 ?__CanShot@CPythonPlayer@@IAE_NAAVCInstanceBase@@0@Z ; CPythonPlayer::__CanShot
  000a7	84 c0		 test	 al, al
  000a9	0f 84 fe 00 00
	00		 je	 $LN14@NEW_Attack

; 600  : 				return;
; 601  : 
; 602  : 			if (!pkInstMain->NEW_IsClickableDistanceDestInstance(*pkInstTarget))

  000af	53		 push	 ebx
  000b0	8b cf		 mov	 ecx, edi
  000b2	e8 00 00 00 00	 call	 ?NEW_IsClickableDistanceDestInstance@CInstanceBase@@QAEHAAV1@@Z ; CInstanceBase::NEW_IsClickableDistanceDestInstance
  000b7	85 c0		 test	 eax, eax
  000b9	75 16		 jne	 SHORT $LN11@NEW_Attack

; 603  : 			{
; 604  : 				__ReserveClickActor(pkInstTarget->GetVirtualID());

  000bb	8b cb		 mov	 ecx, ebx
  000bd	e8 00 00 00 00	 call	 ?GetVirtualID@CInstanceBase@@QAEKXZ ; CInstanceBase::GetVirtualID
  000c2	50		 push	 eax
  000c3	8b ce		 mov	 ecx, esi
  000c5	e8 00 00 00 00	 call	 ?__ReserveClickActor@CPythonPlayer@@IAEXK@Z ; CPythonPlayer::__ReserveClickActor

; 645  : 	}
; 646  : }

  000ca	5f		 pop	 edi
  000cb	5e		 pop	 esi
  000cc	5b		 pop	 ebx
  000cd	8b e5		 mov	 esp, ebp
  000cf	5d		 pop	 ebp
  000d0	c3		 ret	 0
$LN11@NEW_Attack:

; 605  : 				return;
; 606  : 			}
; 607  : 
; 608  : 			if (pkInstMain->IsAttackableInstance(*pkInstTarget))

  000d1	53		 push	 ebx
  000d2	8b cf		 mov	 ecx, edi
  000d4	e8 00 00 00 00	 call	 ?IsAttackableInstance@CInstanceBase@@QAE_NAAV1@@Z ; CInstanceBase::IsAttackableInstance
  000d9	84 c0		 test	 al, al
  000db	0f 84 cc 00 00
	00		 je	 $LN14@NEW_Attack

; 609  : 			{
; 610  : 				pkInstMain->NEW_LookAtDestInstance(*pkInstTarget);

  000e1	53		 push	 ebx
  000e2	8b cf		 mov	 ecx, edi
  000e4	e8 00 00 00 00	 call	 ?NEW_LookAtDestInstance@CInstanceBase@@QAEXAAV1@@Z ; CInstanceBase::NEW_LookAtDestInstance

; 611  : 				pkInstMain->NEW_AttackToDestInstanceDirection(*pkInstTarget);

  000e9	53		 push	 ebx
  000ea	8b cf		 mov	 ecx, edi
  000ec	e8 00 00 00 00	 call	 ?NEW_AttackToDestInstanceDirection@CInstanceBase@@QAE_NAAV1@@Z ; CInstanceBase::NEW_AttackToDestInstanceDirection

; 645  : 	}
; 646  : }

  000f1	5f		 pop	 edi
  000f2	5e		 pop	 esi
  000f3	5b		 pop	 ebx
  000f4	8b e5		 mov	 esp, ebp
  000f6	5d		 pop	 ebp
  000f7	c3		 ret	 0
$LN5@NEW_Attack:

; 617  : 			return;
; 618  : 		}
; 619  : 	}
; 620  : 	else if (m_isDirKey)

  000f8	80 7e 65 00	 cmp	 BYTE PTR [esi+101], 0
  000fc	0f 84 8e 00 00
	00		 je	 $LN13@NEW_Attack

; 621  : 	{
; 622  : 		float fDirRot=0.0f;
; 623  : 		NEW_GetMultiKeyDirRotation(m_isLeft, m_isRight, m_isUp, m_isDown, &fDirRot);

  00102	8d 45 fc	 lea	 eax, DWORD PTR _fDirRot$1[ebp]
  00105	c7 45 fc 00 00
	00 00		 mov	 DWORD PTR _fDirRot$1[ebp], 0
  0010c	50		 push	 eax
  0010d	0f b6 46 61	 movzx	 eax, BYTE PTR [esi+97]
  00111	50		 push	 eax
  00112	0f b6 46 60	 movzx	 eax, BYTE PTR [esi+96]
  00116	50		 push	 eax
  00117	0f b6 46 63	 movzx	 eax, BYTE PTR [esi+99]
  0011b	50		 push	 eax
  0011c	0f b6 46 62	 movzx	 eax, BYTE PTR [esi+98]
  00120	50		 push	 eax
  00121	e8 00 00 00 00	 call	 ?NEW_GetMultiKeyDirRotation@CPythonPlayer@@IAEX_N000PAM@Z ; CPythonPlayer::NEW_GetMultiKeyDirRotation

; 624  : 
; 625  : 		CCamera* pkCmrCur=CCameraManager::Instance().GetCurrentCamera();

  00126	8b 0d 00 00 00
	00		 mov	 ecx, DWORD PTR ?ms_singleton@?$CSingleton@VCCameraManager@@@@0PAVCCameraManager@@A ; CSingleton<CCameraManager>::ms_singleton
  0012c	e8 00 00 00 00	 call	 ?GetCurrentCamera@CCameraManager@@QAEPAVCCamera@@XZ ; CCameraManager::GetCurrentCamera

; 626  : 		if (pkCmrCur)

  00131	85 c0		 test	 eax, eax
  00133	74 45		 je	 SHORT $LN24@NEW_Attack

; 627  : 		{
; 628  : 			float fCmrCurRot=CameraRotationToCharacterRotation(pkCmrCur->GetRoll());

  00135	f3 0f 10 80 30
	01 00 00	 movss	 xmm0, DWORD PTR [eax+304]
  0013d	51		 push	 ecx
  0013e	f3 0f 11 04 24	 movss	 DWORD PTR [esp], xmm0
  00143	e8 00 00 00 00	 call	 ?CameraRotationToCharacterRotation@@YAMM@Z ; CameraRotationToCharacterRotation

; 630  : 			fDirRot=fmod(360.0f + fCmrCurRot + fDirRot, 360.0f);

  00148	d8 05 00 00 00
	00		 fadd	 DWORD PTR __real@43b40000
  0014e	83 c4 04	 add	 esp, 4
; File C:\Program Files\Microsoft Visual Studio\2022\Community\VC\Tools\MSVC\14.34.31933\include\cmath

; 147  :     return _CSTD fmodf(_Xx, _Yx);

  00151	f3 0f 10 0d 00
	00 00 00	 movss	 xmm1, DWORD PTR __real@43b40000
; File E:\Metin2_server\SolWayneSF v6\ClientVS22\source\UserInterface\PythonPlayerInput.cpp

; 630  : 			fDirRot=fmod(360.0f + fCmrCurRot + fDirRot, 360.0f);

  00159	d8 45 fc	 fadd	 DWORD PTR _fDirRot$1[ebp]
  0015c	d9 5d fc	 fstp	 DWORD PTR tv260[ebp]
; File C:\Program Files\Microsoft Visual Studio\2022\Community\VC\Tools\MSVC\14.34.31933\include\cmath

; 147  :     return _CSTD fmodf(_Xx, _Yx);

  0015f	f3 0f 10 45 fc	 movss	 xmm0, DWORD PTR tv260[ebp]
  00164	e8 00 00 00 00	 call	 _fmodf
; File E:\Metin2_server\SolWayneSF v6\ClientVS22\source\UserInterface\PythonPlayerInput.cpp

; 633  : 		pkInstMain->NEW_Attack(fDirRot);

  00169	0f 28 c8	 movaps	 xmm1, xmm0
  0016c	8b cf		 mov	 ecx, edi
  0016e	e8 00 00 00 00	 call	 ?NEW_Attack@CInstanceBase@@QAEXM@Z ; CInstanceBase::NEW_Attack

; 645  : 	}
; 646  : }

  00173	5f		 pop	 edi
  00174	5e		 pop	 esi
  00175	5b		 pop	 ebx
  00176	8b e5		 mov	 esp, ebp
  00178	5d		 pop	 ebp
  00179	c3		 ret	 0
$LN24@NEW_Attack:

; 626  : 		if (pkCmrCur)

  0017a	f3 0f 10 45 fc	 movss	 xmm0, DWORD PTR _fDirRot$1[ebp]

; 633  : 		pkInstMain->NEW_Attack(fDirRot);

  0017f	8b cf		 mov	 ecx, edi
  00181	0f 28 c8	 movaps	 xmm1, xmm0
  00184	e8 00 00 00 00	 call	 ?NEW_Attack@CInstanceBase@@QAEXM@Z ; CInstanceBase::NEW_Attack

; 645  : 	}
; 646  : }

  00189	5f		 pop	 edi
  0018a	5e		 pop	 esi
  0018b	5b		 pop	 ebx
  0018c	8b e5		 mov	 esp, ebp
  0018e	5d		 pop	 ebp
  0018f	c3		 ret	 0
$LN13@NEW_Attack:

; 634  : 	}
; 635  : 	else
; 636  : 	{
; 637  : 		//!@# 말에 탄 상태에서 맨손 공격은 지원되지 않는다 - [levites]
; 638  : 		if (pkInstMain->IsMountingHorse())

  00190	8b cf		 mov	 ecx, edi
  00192	e8 00 00 00 00	 call	 ?IsMountingHorse@CInstanceBase@@QAEHXZ ; CInstanceBase::IsMountingHorse
  00197	85 c0		 test	 eax, eax
  00199	74 0b		 je	 SHORT $LN17@NEW_Attack

; 639  : 		{
; 640  : 			if (pkInstMain->IsHandMode())

  0019b	8b cf		 mov	 ecx, edi
  0019d	e8 00 00 00 00	 call	 ?IsHandMode@CInstanceBase@@QAEHXZ ; CInstanceBase::IsHandMode
  001a2	85 c0		 test	 eax, eax
  001a4	75 07		 jne	 SHORT $LN14@NEW_Attack
$LN17@NEW_Attack:

; 641  : 				return;
; 642  : 		}
; 643  : 
; 644  : 		pkInstMain->NEW_Attack();

  001a6	8b cf		 mov	 ecx, edi
  001a8	e8 00 00 00 00	 call	 ?NEW_Attack@CInstanceBase@@QAEXXZ ; CInstanceBase::NEW_Attack
$LN14@NEW_Attack:

; 645  : 	}
; 646  : }

  001ad	5f		 pop	 edi
  001ae	5e		 pop	 esi
  001af	5b		 pop	 ebx
  001b0	8b e5		 mov	 esp, ebp
  001b2	5d		 pop	 ebp
  001b3	c3		 ret	 0
?NEW_Attack@CPythonPlayer@@QAEXXZ ENDP			; CPythonPlayer::NEW_Attack
_TEXT	ENDS
; Function compile flags: /Ogtp
; File E:\Metin2_server\SolWayneSF v6\ClientVS22\source\UserInterface\PythonPlayerInput.cpp
;	COMDAT ?NEW_IsEmptyReservedDelayTime@CPythonPlayer@@QAE_NM@Z
_TEXT	SEGMENT
?NEW_IsEmptyReservedDelayTime@CPythonPlayer@@QAE_NM@Z PROC ; CPythonPlayer::NEW_IsEmptyReservedDelayTime, COMDAT
; _this$ = ecx
; _fElapsedTime$ = xmm1s

; 650  : 	m_fReservedDelayTime -= fElapsedTime;

  00000	f3 0f 10 51 58	 movss	 xmm2, DWORD PTR [ecx+88]
  00005	0f 57 c0	 xorps	 xmm0, xmm0
  00008	f3 0f 5c d1	 subss	 xmm2, xmm1

; 651  : 
; 652  : 	if (m_fReservedDelayTime <= 0.0f)

  0000c	0f 2f c2	 comiss	 xmm0, xmm2
  0000f	f3 0f 11 51 58	 movss	 DWORD PTR [ecx+88], xmm2
  00014	72 0a		 jb	 SHORT $LN2@NEW_IsEmpt

; 653  : 	{
; 654  : 		m_fReservedDelayTime = 0.0f;

  00016	c7 41 58 00 00
	00 00		 mov	 DWORD PTR [ecx+88], 0

; 655  : 		return true;

  0001d	b0 01		 mov	 al, 1

; 659  : }

  0001f	c3		 ret	 0
$LN2@NEW_IsEmpt:

; 656  : 	}
; 657  : 
; 658  : 	return false;

  00020	32 c0		 xor	 al, al

; 659  : }

  00022	c3		 ret	 0
?NEW_IsEmptyReservedDelayTime@CPythonPlayer@@QAE_NM@Z ENDP ; CPythonPlayer::NEW_IsEmptyReservedDelayTime
_TEXT	ENDS
; Function compile flags: /Ogtp
; File E:\Metin2_server\SolWayneSF v6\ClientVS22\source\UserInterface\PythonPlayerInput.cpp
;	COMDAT ?NEW_SetAutoCameraRotationSpeed@CPythonPlayer@@QAEXM@Z
_TEXT	SEGMENT
?NEW_SetAutoCameraRotationSpeed@CPythonPlayer@@QAEXM@Z PROC ; CPythonPlayer::NEW_SetAutoCameraRotationSpeed, COMDAT
; _this$ = ecx
; _fRotSpd$ = xmm1s

; 664  : 	m_fCmrRotSpd=fRotSpd;

  00000	f3 0f 11 49 6c	 movss	 DWORD PTR [ecx+108], xmm1

; 665  : }

  00005	c3		 ret	 0
?NEW_SetAutoCameraRotationSpeed@CPythonPlayer@@QAEXM@Z ENDP ; CPythonPlayer::NEW_SetAutoCameraRotationSpeed
_TEXT	ENDS
; Function compile flags: /Ogtp
; File E:\Metin2_server\SolWayneSF v6\ClientVS22\source\UserInterface\PythonPlayerInput.cpp
;	COMDAT ?NEW_ResetCameraRotation@CPythonPlayer@@QAEXXZ
_TEXT	SEGMENT
?NEW_ResetCameraRotation@CPythonPlayer@@QAEXXZ PROC	; CPythonPlayer::NEW_ResetCameraRotation, COMDAT
; _this$dead$ = ecx

; 669  : 	CCamera* pkCmrCur=CCameraManager::Instance().GetCurrentCamera();

  00000	8b 0d 00 00 00
	00		 mov	 ecx, DWORD PTR ?ms_singleton@?$CSingleton@VCCameraManager@@@@0PAVCCameraManager@@A ; CSingleton<CCameraManager>::ms_singleton
  00006	56		 push	 esi
  00007	e8 00 00 00 00	 call	 ?GetCurrentCamera@CCameraManager@@QAEPAVCCamera@@XZ ; CCameraManager::GetCurrentCamera

; 670  : 	CPythonApplication & rkApp = CPythonApplication::Instance();

  0000c	8b 35 00 00 00
	00		 mov	 esi, DWORD PTR ?ms_pInstance@CPythonApplication@@1PAV1@A ; CPythonApplication::ms_pInstance

; 671  : 
; 672  : 	pkCmrCur->EndDrag();

  00012	8b c8		 mov	 ecx, eax
  00014	e8 00 00 00 00	 call	 ?EndDrag@CCamera@@QAE_NXZ ; CCamera::EndDrag

; 673  : 
; 674  : 	rkApp.SetCursorNum(CPythonApplication::NORMAL);

  00019	6a 00		 push	 0
  0001b	8b ce		 mov	 ecx, esi
  0001d	e8 00 00 00 00	 call	 ?SetCursorNum@CPythonApplication@@QAEHH@Z ; CPythonApplication::SetCursorNum

; 675  : 	if ( CPythonApplication::CURSOR_MODE_HARDWARE == rkApp.GetCursorMode())

  00022	8b ce		 mov	 ecx, esi
  00024	e8 00 00 00 00	 call	 ?GetCursorMode@CPythonApplication@@QAEHXZ ; CPythonApplication::GetCursorMode
  00029	85 c0		 test	 eax, eax
  0002b	75 08		 jne	 SHORT $LN2@NEW_ResetC

; 676  : 		rkApp.SetCursorVisible(TRUE);

  0002d	50		 push	 eax
  0002e	6a 01		 push	 1
  00030	e8 00 00 00 00	 call	 ?SetCursorVisible@CPythonApplication@@QAEXH_N@Z ; CPythonApplication::SetCursorVisible
$LN2@NEW_ResetC:

; 677  : }

  00035	5e		 pop	 esi
  00036	c3		 ret	 0
?NEW_ResetCameraRotation@CPythonPlayer@@QAEXXZ ENDP	; CPythonPlayer::NEW_ResetCameraRotation
_TEXT	ENDS
; Function compile flags: /Ogtp
; File E:\Metin2_server\SolWayneSF v6\ClientVS22\source\UserInterface\PythonPlayerInput.cpp
;	COMDAT ?__CanShot@CPythonPlayer@@IAE_NAAVCInstanceBase@@0@Z
_TEXT	SEGMENT
_rkInstMain$ = 8					; size = 4
_rkInstTarget$ = 12					; size = 4
?__CanShot@CPythonPlayer@@IAE_NAAVCInstanceBase@@0@Z PROC ; CPythonPlayer::__CanShot, COMDAT
; _this$ = ecx

; 681  : {

  00000	55		 push	 ebp
  00001	8b ec		 mov	 ebp, esp
  00003	56		 push	 esi
  00004	8b f1		 mov	 esi, ecx

; 682  : 	if (!__HasEnoughArrow())

  00006	e8 00 00 00 00	 call	 ?__HasEnoughArrow@CPythonPlayer@@IAE_NXZ ; CPythonPlayer::__HasEnoughArrow
  0000b	84 c0		 test	 al, al
  0000d	75 32		 jne	 SHORT $LN2@CanShot

; 683  : 	{
; 684  : 		PyCallClassMemberFunc(m_ppyGameWindow, "OnCannotShot", Py_BuildValue("(is)", GetMainCharacterIndex(), "EMPTY_ARROW"));

  0000f	68 00 00 00 00	 push	 OFFSET ??_C@_0M@FBIHMJDM@EMPTY_ARROW@
$LN7@CanShot:

; 701  : }

  00014	8b 46 04	 mov	 eax, DWORD PTR [esi+4]
  00017	8d 4e 04	 lea	 ecx, DWORD PTR [esi+4]
  0001a	ff 50 04	 call	 DWORD PTR [eax+4]
  0001d	50		 push	 eax
  0001e	68 00 00 00 00	 push	 OFFSET ??_C@_04JMLDJNEM@?$CIis?$CJ@
  00023	ff 15 00 00 00
	00		 call	 DWORD PTR __imp__Py_BuildValue
  00029	50		 push	 eax
  0002a	68 00 00 00 00	 push	 OFFSET ??_C@_0N@OPOOJDCJ@OnCannotShot@
  0002f	ff 76 08	 push	 DWORD PTR [esi+8]
  00032	e8 00 00 00 00	 call	 ?PyCallClassMemberFunc@@YA_NPAU_object@@PBD0@Z ; PyCallClassMemberFunc
  00037	83 c4 18	 add	 esp, 24			; 00000018H
  0003a	32 c0		 xor	 al, al
  0003c	5e		 pop	 esi
  0003d	5d		 pop	 ebp
  0003e	c2 08 00	 ret	 8
$LN2@CanShot:

; 685  : 		return false;
; 686  : 	}
; 687  : 
; 688  : 	if (rkInstMain.IsInSafe())

  00041	8b 4d 08	 mov	 ecx, DWORD PTR _rkInstMain$[ebp]
  00044	e8 00 00 00 00	 call	 ?IsInSafe@CInstanceBase@@QAEHXZ ; CInstanceBase::IsInSafe
  00049	85 c0		 test	 eax, eax
  0004b	74 07		 je	 SHORT $LN3@CanShot

; 689  : 	{
; 690  : 		PyCallClassMemberFunc(m_ppyGameWindow, "OnCannotShot", Py_BuildValue("(is)", GetMainCharacterIndex(), "IN_SAFE"));

  0004d	68 00 00 00 00	 push	 OFFSET ??_C@_07OAOBINCH@IN_SAFE@

; 691  : 		return false;

  00052	eb c0		 jmp	 SHORT $LN7@CanShot
$LN3@CanShot:

; 692  : 	}
; 693  : 
; 694  : 	if (rkInstTarget.IsInSafe())

  00054	8b 4d 0c	 mov	 ecx, DWORD PTR _rkInstTarget$[ebp]
  00057	e8 00 00 00 00	 call	 ?IsInSafe@CInstanceBase@@QAEHXZ ; CInstanceBase::IsInSafe
  0005c	85 c0		 test	 eax, eax
  0005e	74 07		 je	 SHORT $LN4@CanShot

; 695  : 	{
; 696  : 		PyCallClassMemberFunc(m_ppyGameWindow, "OnCannotShot", Py_BuildValue("(is)", GetMainCharacterIndex(), "DEST_IN_SAFE"));

  00060	68 00 00 00 00	 push	 OFFSET ??_C@_0N@KDALDMKB@DEST_IN_SAFE@

; 697  : 		return false;

  00065	eb ad		 jmp	 SHORT $LN7@CanShot
$LN4@CanShot:

; 698  : 	}	
; 699  : 
; 700  : 	return true;

  00067	b0 01		 mov	 al, 1
  00069	5e		 pop	 esi

; 701  : }

  0006a	5d		 pop	 ebp
  0006b	c2 08 00	 ret	 8
?__CanShot@CPythonPlayer@@IAE_NAAVCInstanceBase@@0@Z ENDP ; CPythonPlayer::__CanShot
_TEXT	ENDS
; Function compile flags: /Ogtp
; File E:\Metin2_server\SolWayneSF v6\ClientVS22\source\UserInterface\PythonPlayerInput.cpp
;	COMDAT ?__CanMove@CPythonPlayer@@IAE_NXZ
_TEXT	SEGMENT
?__CanMove@CPythonPlayer@@IAE_NXZ PROC			; CPythonPlayer::__CanMove, COMDAT
; _this$ = ecx

; 713  : {

  00000	56		 push	 esi

; 714  : 	if (__IsProcessingEmotion())

  00001	e8 00 00 00 00	 call	 ?__IsProcessingEmotion@CPythonPlayer@@IAEHXZ ; CPythonPlayer::__IsProcessingEmotion
  00006	85 c0		 test	 eax, eax
  00008	75 2f		 jne	 SHORT $LN7@CanMove

; 715  : 	{
; 716  : 		return false;
; 717  : 	}
; 718  : 
; 719  : 	CInstanceBase* pkInstMain=NEW_GetMainActorPtr();

  0000a	8b 41 04	 mov	 eax, DWORD PTR [ecx+4]
  0000d	83 c1 04	 add	 ecx, 4
  00010	ff 90 88 00 00
	00		 call	 DWORD PTR [eax+136]
  00016	8b f0		 mov	 esi, eax

; 720  : 	if (!pkInstMain) 

  00018	85 f6		 test	 esi, esi
  0001a	74 1d		 je	 SHORT $LN7@CanMove

; 721  : 		return false;
; 722  : 
; 723  : 	if (!pkInstMain->CanMove())

  0001c	8b ce		 mov	 ecx, esi
  0001e	e8 00 00 00 00	 call	 ?CanMove@CInstanceBase@@QAE_NXZ ; CInstanceBase::CanMove
  00023	84 c0		 test	 al, al
  00025	75 0e		 jne	 SHORT $LN5@CanMove

; 724  : 	{
; 725  : 		if (!pkInstMain->IsUsingMovingSkill())

  00027	8b ce		 mov	 ecx, esi
  00029	e8 00 00 00 00	 call	 ?IsUsingMovingSkill@CInstanceBase@@QAEHXZ ; CInstanceBase::IsUsingMovingSkill
  0002e	85 c0		 test	 eax, eax
  00030	5e		 pop	 esi
  00031	0f 95 c0	 setne	 al

; 730  : }

  00034	c3		 ret	 0
$LN5@CanMove:

; 727  : 	}
; 728  : 
; 729  : 	return true;

  00035	b0 01		 mov	 al, 1
  00037	5e		 pop	 esi

; 730  : }

  00038	c3		 ret	 0
$LN7@CanMove:

; 726  : 			return false;

  00039	32 c0		 xor	 al, al
  0003b	5e		 pop	 esi

; 730  : }

  0003c	c3		 ret	 0
?__CanMove@CPythonPlayer@@IAE_NXZ ENDP			; CPythonPlayer::__CanMove
_TEXT	ENDS
; Function compile flags: /Ogtp
; File E:\Metin2_server\SolWayneSF v6\ClientVS22\source\UserInterface\PythonPlayerInput.cpp
;	COMDAT ?__CanAttack@CPythonPlayer@@IAE_NXZ
_TEXT	SEGMENT
?__CanAttack@CPythonPlayer@@IAE_NXZ PROC		; CPythonPlayer::__CanAttack, COMDAT
; _this$ = ecx

; 760  : {

  00000	56		 push	 esi
  00001	57		 push	 edi
  00002	8b f1		 mov	 esi, ecx

; 761  : 	if (__IsProcessingEmotion())

  00004	e8 00 00 00 00	 call	 ?__IsProcessingEmotion@CPythonPlayer@@IAEHXZ ; CPythonPlayer::__IsProcessingEmotion
  00009	85 c0		 test	 eax, eax
  0000b	75 5d		 jne	 SHORT $LN8@CanAttack

; 762  : 	{
; 763  : 		return false;
; 764  : 	}
; 765  : 
; 766  : 	if (IsOpenPrivateShop())

  0000d	e8 00 00 00 00	 call	 ?IsOpenPrivateShop@CPythonPlayer@@QAE_NXZ ; CPythonPlayer::IsOpenPrivateShop
  00012	84 c0		 test	 al, al
  00014	75 54		 jne	 SHORT $LN8@CanAttack

; 767  : 		return false;
; 768  : 
; 769  : 	if (IsObserverMode())

  00016	e8 00 00 00 00	 call	 ?IsObserverMode@CPythonPlayer@@QAE_NXZ ; CPythonPlayer::IsObserverMode
  0001b	84 c0		 test	 al, al
  0001d	75 4b		 jne	 SHORT $LN8@CanAttack

; 770  : 		return false;
; 771  : 
; 772  : 	CInstanceBase* pkInstMain=NEW_GetMainActorPtr();

  0001f	8b 46 04	 mov	 eax, DWORD PTR [esi+4]
  00022	8d 4e 04	 lea	 ecx, DWORD PTR [esi+4]
  00025	ff 90 88 00 00
	00		 call	 DWORD PTR [eax+136]
  0002b	8b f8		 mov	 edi, eax

; 773  : 	if (!pkInstMain)

  0002d	85 ff		 test	 edi, edi
  0002f	74 39		 je	 SHORT $LN8@CanAttack

; 774  : 		return false;
; 775  : 	
; 776  : 	// Fix me
; 777  : 	// 뉴마운트 25레벨 이상 35레벨 미만인 경우 중급 마운트를 타고 공격못하도록 하드 코딩... 
; 778  : 	// 나중에 시간 나면 can attack 체크를 서버에서 해주자...
; 779  : 	// ㅡ_ㅡ unique 슬롯에 차는 탈것은 이 조건이랑 관계없이 공격할 수 있어야 한다 ㅡ_ㅡ
; 780  : 	// ㅡ_ㅡ 뉴마운트만 이 체크를 하게 함... ㅡ_ㅡ_ㅡ_ㅡ_ㅡ
; 781  : 	if (pkInstMain->IsMountingHorse() && pkInstMain->IsNewMount() && (GetSkillGrade(109) < 1 && GetSkillLevel(109) < 11))

  00031	8b cf		 mov	 ecx, edi
  00033	e8 00 00 00 00	 call	 ?IsMountingHorse@CInstanceBase@@QAEHXZ ; CInstanceBase::IsMountingHorse
  00038	85 c0		 test	 eax, eax
  0003a	74 25		 je	 SHORT $LN6@CanAttack
  0003c	8b cf		 mov	 ecx, edi
  0003e	e8 00 00 00 00	 call	 ?IsNewMount@CInstanceBase@@QAEHXZ ; CInstanceBase::IsNewMount
  00043	85 c0		 test	 eax, eax
  00045	74 1a		 je	 SHORT $LN6@CanAttack
  00047	6a 6d		 push	 109			; 0000006dH
  00049	8b ce		 mov	 ecx, esi
  0004b	e8 00 00 00 00	 call	 ?GetSkillGrade@CPythonPlayer@@QAEHK@Z ; CPythonPlayer::GetSkillGrade
  00050	83 f8 01	 cmp	 eax, 1
  00053	7d 0c		 jge	 SHORT $LN6@CanAttack
  00055	6a 6d		 push	 109			; 0000006dH
  00057	e8 00 00 00 00	 call	 ?GetSkillLevel@CPythonPlayer@@QAEHK@Z ; CPythonPlayer::GetSkillLevel
  0005c	83 f8 0b	 cmp	 eax, 11			; 0000000bH
  0005f	7c 09		 jl	 SHORT $LN8@CanAttack
$LN6@CanAttack:

; 784  : 	}
; 785  : 
; 786  : 	return pkInstMain->CanAttack();

  00061	8b cf		 mov	 ecx, edi
  00063	5f		 pop	 edi

; 787  : }

  00064	5e		 pop	 esi

; 784  : 	}
; 785  : 
; 786  : 	return pkInstMain->CanAttack();

  00065	e9 00 00 00 00	 jmp	 ?CanAttack@CInstanceBase@@QAE_NXZ ; CInstanceBase::CanAttack
$LN8@CanAttack:
  0006a	5f		 pop	 edi

; 782  : 	{
; 783  : 		return false;

  0006b	32 c0		 xor	 al, al

; 787  : }

  0006d	5e		 pop	 esi
  0006e	c3		 ret	 0
?__CanAttack@CPythonPlayer@@IAE_NXZ ENDP		; CPythonPlayer::__CanAttack
_TEXT	ENDS
; Function compile flags: /Ogtp
; File E:\Metin2_server\SolWayneSF v6\ClientVS22\source\UserInterface\PythonPlayerInput.cpp
;	COMDAT ?NEW_GetMultiKeyDirRotation@CPythonPlayer@@IAEX_N000PAM@Z
_TEXT	SEGMENT
_isLeft$ = 8						; size = 1
_isRight$ = 12						; size = 1
_isUp$ = 16						; size = 1
_isDown$ = 20						; size = 1
_pfDirRot$ = 24						; size = 4
?NEW_GetMultiKeyDirRotation@CPythonPlayer@@IAEX_N000PAM@Z PROC ; CPythonPlayer::NEW_GetMultiKeyDirRotation, COMDAT
; _this$dead$ = ecx

; 790  : {

  00000	55		 push	 ebp
  00001	8b ec		 mov	 ebp, esp

; 791  : 	float fScrX=0.0f;
; 792  : 	float fScrY=0.0f;
; 793  : 
; 794  : 	if (isLeft)

  00003	80 7d 08 00	 cmp	 BYTE PTR _isLeft$[ebp], 0
  00007	0f 57 d2	 xorps	 xmm2, xmm2
  0000a	f3 0f 10 05 00
	00 00 00	 movss	 xmm0, DWORD PTR __real@3f000000
  00012	f3 0f 10 1d 00
	00 00 00	 movss	 xmm3, DWORD PTR __real@3f800000
  0001a	74 05		 je	 SHORT $LN2@NEW_GetMul

; 795  : 		fScrX=0.0f;

  0001c	0f 57 c9	 xorps	 xmm1, xmm1
  0001f	eb 0e		 jmp	 SHORT $LN5@NEW_GetMul
$LN2@NEW_GetMul:

; 796  : 	else if (isRight)

  00021	80 7d 0c 00	 cmp	 BYTE PTR _isRight$[ebp], 0
  00025	74 05		 je	 SHORT $LN4@NEW_GetMul

; 797  : 		fScrX=1.0f;

  00027	0f 28 cb	 movaps	 xmm1, xmm3
  0002a	eb 03		 jmp	 SHORT $LN5@NEW_GetMul
$LN4@NEW_GetMul:

; 798  : 	else
; 799  : 		fScrX=0.5f;

  0002c	0f 28 c8	 movaps	 xmm1, xmm0
$LN5@NEW_GetMul:

; 800  : 
; 801  : 	if (isUp)

  0002f	80 7d 10 00	 cmp	 BYTE PTR _isUp$[ebp], 0
  00033	75 18		 jne	 SHORT $LN9@NEW_GetMul

; 802  : 		fScrY=0.0f;
; 803  : 	else if (isDown)

  00035	80 7d 14 00	 cmp	 BYTE PTR _isDown$[ebp], 0
  00039	74 0f		 je	 SHORT $LN8@NEW_GetMul

; 807  : 
; 808  : 	NEW_GetMouseDirRotation(fScrX, fScrY, pfDirRot);

  0003b	ff 75 18	 push	 DWORD PTR _pfDirRot$[ebp]
  0003e	0f 28 d3	 movaps	 xmm2, xmm3
  00041	e8 00 00 00 00	 call	 ?NEW_GetMouseDirRotation@CPythonPlayer@@IAEXMMPAM@Z ; CPythonPlayer::NEW_GetMouseDirRotation

; 809  : }

  00046	5d		 pop	 ebp
  00047	c2 14 00	 ret	 20			; 00000014H
$LN8@NEW_GetMul:

; 804  : 		fScrY=1.0f;
; 805  : 	else 
; 806  : 		fScrY=0.5f;

  0004a	0f 28 d0	 movaps	 xmm2, xmm0
$LN9@NEW_GetMul:

; 807  : 
; 808  : 	NEW_GetMouseDirRotation(fScrX, fScrY, pfDirRot);

  0004d	ff 75 18	 push	 DWORD PTR _pfDirRot$[ebp]
  00050	e8 00 00 00 00	 call	 ?NEW_GetMouseDirRotation@CPythonPlayer@@IAEXMMPAM@Z ; CPythonPlayer::NEW_GetMouseDirRotation

; 809  : }

  00055	5d		 pop	 ebp
  00056	c2 14 00	 ret	 20			; 00000014H
?NEW_GetMultiKeyDirRotation@CPythonPlayer@@IAEX_N000PAM@Z ENDP ; CPythonPlayer::NEW_GetMultiKeyDirRotation
_TEXT	ENDS
; Function compile flags: /Ogtp
; File E:\Metin2_server\SolWayneSF v6\ClientVS22\source\UserInterface\PythonPlayerInput.cpp
;	COMDAT ?NEW_GetMouseDirRotation@CPythonPlayer@@IAEXMMPAM@Z
_TEXT	SEGMENT
_pfDirRot$ = 8						; size = 4
?NEW_GetMouseDirRotation@CPythonPlayer@@IAEXMMPAM@Z PROC ; CPythonPlayer::NEW_GetMouseDirRotation, COMDAT
; _this$dead$ = ecx
; _fScrX$ = xmm1s
; _fScrY$ = xmm2s

; 812  : {

  00000	55		 push	 ebp
  00001	8b ec		 mov	 ebp, esp

; 813  : 	long lWidth = UI::CWindowManager::Instance().GetScreenWidth();

  00003	a1 00 00 00 00	 mov	 eax, DWORD PTR ?ms_singleton@?$CSingleton@VCWindowManager@UI@@@@0PAVCWindowManager@UI@@A ; CSingleton<UI::CWindowManager>::ms_singleton
  00008	56		 push	 esi
  00009	8b 70 04	 mov	 esi, DWORD PTR [eax+4]

; 814  : 	long lHeight = UI::CWindowManager::Instance().GetScreenHeight();

  0000c	8b 48 08	 mov	 ecx, DWORD PTR [eax+8]

; 815  : 	int nScrPosX=lWidth*fScrX;
; 816  : 	int nScrPosY=lHeight*fScrY;
; 817  : 	int nScrWidth=lWidth;
; 818  : 	int nScrHeight=lHeight;
; 819  : 	int nScrCenterX=nScrWidth/2;
; 820  : 	int nScrCenterY=nScrHeight/2;

  0000f	8b c1		 mov	 eax, ecx
  00011	99		 cdq
  00012	2b c2		 sub	 eax, edx
  00014	d1 f8		 sar	 eax, 1

; 821  : 
; 822  : 	float finputRotation = GetDegreeFromPosition(nScrPosX, nScrPosY, nScrCenterX, nScrCenterY);

  00016	50		 push	 eax
  00017	66 0f 6e c1	 movd	 xmm0, ecx
  0001b	8b c6		 mov	 eax, esi
  0001d	0f 5b c0	 cvtdq2ps xmm0, xmm0
  00020	99		 cdq
  00021	2b c2		 sub	 eax, edx
  00023	d1 f8		 sar	 eax, 1
  00025	50		 push	 eax
  00026	f3 0f 59 c2	 mulss	 xmm0, xmm2
  0002a	f3 0f 2c c0	 cvttss2si eax, xmm0
  0002e	66 0f 6e c6	 movd	 xmm0, esi
  00032	0f 5b c0	 cvtdq2ps xmm0, xmm0
  00035	50		 push	 eax
  00036	f3 0f 59 c1	 mulss	 xmm0, xmm1
  0003a	f3 0f 2c c0	 cvttss2si eax, xmm0
  0003e	50		 push	 eax
  0003f	e8 00 00 00 00	 call	 ?GetDegreeFromPosition@CPythonPlayer@@IAEMHHHH@Z ; CPythonPlayer::GetDegreeFromPosition

; 823  : 	*pfDirRot=finputRotation;

  00044	8b 45 08	 mov	 eax, DWORD PTR _pfDirRot$[ebp]

; 824  : }

  00047	5e		 pop	 esi
  00048	f3 0f 11 00	 movss	 DWORD PTR [eax], xmm0
  0004c	5d		 pop	 ebp
  0004d	c2 04 00	 ret	 4
?NEW_GetMouseDirRotation@CPythonPlayer@@IAEXMMPAM@Z ENDP ; CPythonPlayer::NEW_GetMouseDirRotation
_TEXT	ENDS
; Function compile flags: /Ogtp
; File E:\Metin2_server\SolWayneSF v6\ClientVS22\source\UserInterface\PythonPlayerInput.cpp
; File E:\Metin2_server\SolWayneSF v6\ClientVS22\extern\include\d3dx8math.inl
; File E:\Metin2_server\SolWayneSF v6\ClientVS22\source\UserInterface\PythonPlayerInput.cpp
; File E:\Metin2_server\SolWayneSF v6\ClientVS22\extern\include\d3dx8math.inl
; File E:\Metin2_server\SolWayneSF v6\ClientVS22\source\UserInterface\PythonPlayerInput.cpp
; File E:\Metin2_server\SolWayneSF v6\ClientVS22\extern\include\d3dx8math.inl
; File E:\Metin2_server\SolWayneSF v6\ClientVS22\source\UserInterface\PythonPlayerInput.cpp
; File E:\Metin2_server\SolWayneSF v6\ClientVS22\extern\include\d3dx8math.inl
; File E:\Metin2_server\SolWayneSF v6\ClientVS22\source\UserInterface\PythonPlayerInput.cpp
; File E:\Metin2_server\SolWayneSF v6\ClientVS22\extern\include\d3dx8math.inl
; File E:\Metin2_server\SolWayneSF v6\ClientVS22\source\UserInterface\PythonPlayerInput.cpp
;	COMDAT ?GetDegreeFromPosition@CPythonPlayer@@IAEMHHHH@Z
_TEXT	SEGMENT
_ret$ = -20						; size = 4
_vtDir$ = -16						; size = 12
__$ArrayPad$ = -4					; size = 4
_ix$ = 8						; size = 4
_iy$ = 12						; size = 4
_iHalfWidth$ = 16					; size = 4
_iHalfHeight$ = 20					; size = 4
?GetDegreeFromPosition@CPythonPlayer@@IAEMHHHH@Z PROC	; CPythonPlayer::GetDegreeFromPosition, COMDAT
; _this$dead$ = ecx

; 828  : {

  00000	55		 push	 ebp
  00001	8b ec		 mov	 ebp, esp
  00003	83 ec 18	 sub	 esp, 24			; 00000018H
  00006	a1 00 00 00 00	 mov	 eax, DWORD PTR ___security_cookie
  0000b	33 c5		 xor	 eax, ebp
  0000d	89 45 fc	 mov	 DWORD PTR __$ArrayPad$[ebp], eax

; 829  : 	D3DXVECTOR3 vtDir(float(ix - iHalfWidth), float(iy - iHalfHeight), 0.0f);

  00010	8b 45 08	 mov	 eax, DWORD PTR _ix$[ebp]
  00013	2b 45 10	 sub	 eax, DWORD PTR _iHalfWidth$[ebp]
; File E:\Metin2_server\SolWayneSF v6\ClientVS22\extern\include\d3dx8math.inl

; 182  :     z = fz;

  00016	c7 45 f8 00 00
	00 00		 mov	 DWORD PTR _vtDir$[ebp+8], 0
  0001d	66 0f 6e c0	 movd	 xmm0, eax
; File E:\Metin2_server\SolWayneSF v6\ClientVS22\source\UserInterface\PythonPlayerInput.cpp

; 829  : 	D3DXVECTOR3 vtDir(float(ix - iHalfWidth), float(iy - iHalfHeight), 0.0f);

  00021	8b 45 0c	 mov	 eax, DWORD PTR _iy$[ebp]
  00024	2b 45 14	 sub	 eax, DWORD PTR _iHalfHeight$[ebp]
  00027	0f 5b c0	 cvtdq2ps xmm0, xmm0
; File E:\Metin2_server\SolWayneSF v6\ClientVS22\extern\include\d3dx8math.inl

; 180  :     x = fx;

  0002a	f3 0f 11 45 f0	 movss	 DWORD PTR _vtDir$[ebp], xmm0
  0002f	66 0f 6e c0	 movd	 xmm0, eax
; File E:\Metin2_server\SolWayneSF v6\ClientVS22\source\UserInterface\PythonPlayerInput.cpp

; 830  : 	D3DXVec3Normalize(&vtDir, &vtDir);

  00033	8d 45 f0	 lea	 eax, DWORD PTR _vtDir$[ebp]
  00036	0f 5b c0	 cvtdq2ps xmm0, xmm0
  00039	50		 push	 eax
  0003a	50		 push	 eax
; File E:\Metin2_server\SolWayneSF v6\ClientVS22\extern\include\d3dx8math.inl

; 181  :     y = fy;

  0003b	f3 0f 11 45 f4	 movss	 DWORD PTR _vtDir$[ebp+4], xmm0
; File E:\Metin2_server\SolWayneSF v6\ClientVS22\source\UserInterface\PythonPlayerInput.cpp

; 830  : 	D3DXVec3Normalize(&vtDir, &vtDir);

  00040	e8 00 00 00 00	 call	 _D3DXVec3Normalize@8
; File E:\Metin2_server\SolWayneSF v6\ClientVS22\extern\include\d3dx8math.inl

; 1264 :     return pV1->x * pV2->x + pV1->y * pV2->y + pV1->z * pV2->z;

  00045	f3 0f 10 45 f4	 movss	 xmm0, DWORD PTR _vtDir$[ebp+4]
  0004a	0f 57 d2	 xorps	 xmm2, xmm2

; 182  :     z = fz;

  0004d	f3 0f 10 4d f0	 movss	 xmm1, DWORD PTR _vtDir$[ebp]

; 1264 :     return pV1->x * pV2->x + pV1->y * pV2->y + pV1->z * pV2->z;

  00052	f3 0f 59 05 00
	00 00 00	 mulss	 xmm0, DWORD PTR __real@3f800000
; File E:\Metin2_server\SolWayneSF v6\ClientVS22\source\UserInterface\PythonPlayerInput.cpp

; 833  : 	float ret = D3DXToDegree(acosf(D3DXVec3Dot(&vtDir, &vtStan)));

  0005a	51		 push	 ecx
; File E:\Metin2_server\SolWayneSF v6\ClientVS22\extern\include\d3dx8math.inl

; 182  :     z = fz;

  0005b	f3 0f 59 ca	 mulss	 xmm1, xmm2

; 1264 :     return pV1->x * pV2->x + pV1->y * pV2->y + pV1->z * pV2->z;

  0005f	f3 0f 5c c8	 subss	 xmm1, xmm0
  00063	f3 0f 10 45 f8	 movss	 xmm0, DWORD PTR _vtDir$[ebp+8]
  00068	f3 0f 59 c2	 mulss	 xmm0, xmm2
  0006c	f3 0f 58 c8	 addss	 xmm1, xmm0
; File E:\Metin2_server\SolWayneSF v6\ClientVS22\source\UserInterface\PythonPlayerInput.cpp

; 833  : 	float ret = D3DXToDegree(acosf(D3DXVec3Dot(&vtDir, &vtStan)));

  00070	f3 0f 11 0c 24	 movss	 DWORD PTR [esp], xmm1
  00075	e8 00 00 00 00	 call	 _acosf
  0007a	d8 0d 00 00 00
	00		 fmul	 DWORD PTR __real@42652ee0
  00080	0f 57 c0	 xorps	 xmm0, xmm0

; 834  : 
; 835  : 	if (vtDir.x < 0.0f)

  00083	f3 0f 10 0d 00
	00 00 00	 movss	 xmm1, DWORD PTR __real@43b40000
  0008b	83 c4 04	 add	 esp, 4
  0008e	0f 2f 45 f0	 comiss	 xmm0, DWORD PTR _vtDir$[ebp]
  00092	d9 5d ec	 fstp	 DWORD PTR _ret$[ebp]
  00095	76 0a		 jbe	 SHORT $LN12@GetDegreeF

; 836  : 		ret = 360.0f - ret;

  00097	0f 28 c1	 movaps	 xmm0, xmm1
  0009a	f3 0f 5c 45 ec	 subss	 xmm0, DWORD PTR _ret$[ebp]
  0009f	eb 05		 jmp	 SHORT $LN2@GetDegreeF
$LN12@GetDegreeF:

; 834  : 
; 835  : 	if (vtDir.x < 0.0f)

  000a1	f3 0f 10 45 ec	 movss	 xmm0, DWORD PTR _ret$[ebp]
$LN2@GetDegreeF:

; 837  : 
; 838  : 	return 360.0f - ret;
; 839  : }

  000a6	8b 4d fc	 mov	 ecx, DWORD PTR __$ArrayPad$[ebp]
  000a9	f3 0f 5c c8	 subss	 xmm1, xmm0
  000ad	33 cd		 xor	 ecx, ebp
  000af	0f 28 c1	 movaps	 xmm0, xmm1
  000b2	e8 00 00 00 00	 call	 @__security_check_cookie@4
  000b7	8b e5		 mov	 esp, ebp
  000b9	5d		 pop	 ebp
  000ba	c2 10 00	 ret	 16			; 00000010H
?GetDegreeFromPosition@CPythonPlayer@@IAEMHHHH@Z ENDP	; CPythonPlayer::GetDegreeFromPosition
_TEXT	ENDS
; Function compile flags: /Ogtp
; File E:\Metin2_server\SolWayneSF v6\ClientVS22\source\UserInterface\PythonPlayerInput.cpp
;	COMDAT ?__ReserveClickItem@CPythonPlayer@@IAEXK@Z
_TEXT	SEGMENT
_dwItemID$ = 8						; size = 4
?__ReserveClickItem@CPythonPlayer@@IAEXK@Z PROC		; CPythonPlayer::__ReserveClickItem, COMDAT
; _this$ = ecx

; 847  : {

  00000	55		 push	 ebp
  00001	8b ec		 mov	 ebp, esp

; 848  : 	m_eReservedMode=MODE_CLICK_ITEM;
; 849  : 	m_dwIIDReserved=dwItemID;

  00003	8b 45 08	 mov	 eax, DWORD PTR _dwItemID$[ebp]
  00006	c7 41 54 02 00
	00 00		 mov	 DWORD PTR [ecx+84], 2
  0000d	89 81 f8 2d 01
	00		 mov	 DWORD PTR [ecx+77304], eax

; 850  : }

  00013	5d		 pop	 ebp
  00014	c2 04 00	 ret	 4
?__ReserveClickItem@CPythonPlayer@@IAEXK@Z ENDP		; CPythonPlayer::__ReserveClickItem
_TEXT	ENDS
; Function compile flags: /Ogtp
; File E:\Metin2_server\SolWayneSF v6\ClientVS22\source\UserInterface\PythonPlayerInput.cpp
;	COMDAT ?__ReserveClickGround@CPythonPlayer@@IAEXABUD3DXVECTOR3@@@Z
_TEXT	SEGMENT
_c_rkPPosPickedGround$ = 8				; size = 4
?__ReserveClickGround@CPythonPlayer@@IAEXABUD3DXVECTOR3@@@Z PROC ; CPythonPlayer::__ReserveClickGround, COMDAT
; _this$ = ecx

; 859  : {

  00000	55		 push	 ebp
  00001	8b ec		 mov	 ebp, esp

; 860  : 	m_eReservedMode=MODE_CLICK_POSITION;
; 861  : 	m_kPPosReserved=c_rkPPosPickedGround;

  00003	8b 45 08	 mov	 eax, DWORD PTR _c_rkPPosPickedGround$[ebp]
  00006	c7 41 54 01 00
	00 00		 mov	 DWORD PTR [ecx+84], 1
  0000d	f3 0f 7e 00	 movq	 xmm0, QWORD PTR [eax]
  00011	66 0f d6 81 14
	2e 01 00	 movq	 QWORD PTR [ecx+77332], xmm0
  00019	8b 40 08	 mov	 eax, DWORD PTR [eax+8]
  0001c	89 81 1c 2e 01
	00		 mov	 DWORD PTR [ecx+77340], eax

; 862  : 	m_fReservedDelayTime=0.1f;

  00022	c7 41 58 cd cc
	cc 3d		 mov	 DWORD PTR [ecx+88], 1036831949 ; 3dcccccdH

; 863  : }

  00029	5d		 pop	 ebp
  0002a	c2 04 00	 ret	 4
?__ReserveClickGround@CPythonPlayer@@IAEXABUD3DXVECTOR3@@@Z ENDP ; CPythonPlayer::__ReserveClickGround
_TEXT	ENDS
; Function compile flags: /Ogtp
; File E:\Metin2_server\SolWayneSF v6\ClientVS22\source\UserInterface\PythonPlayerInput.cpp
;	COMDAT ?__IsReservedUseSkill@CPythonPlayer@@IAE_NK@Z
_TEXT	SEGMENT
_dwSkillSlotIndex$ = 8					; size = 4
?__IsReservedUseSkill@CPythonPlayer@@IAE_NK@Z PROC	; CPythonPlayer::__IsReservedUseSkill, COMDAT
; _this$ = ecx

; 866  : {

  00000	55		 push	 ebp
  00001	8b ec		 mov	 ebp, esp

; 867  : 	if (MODE_USE_SKILL!=m_eReservedMode)

  00003	83 79 54 04	 cmp	 DWORD PTR [ecx+84], 4
  00007	75 10		 jne	 SHORT $LN5@IsReserved

; 868  : 		return false;
; 869  : 
; 870  : 	if (m_dwSkillSlotIndexReserved!=dwSkillSlotIndex)

  00009	8b 81 00 2e 01
	00		 mov	 eax, DWORD PTR [ecx+77312]
  0000f	3b 45 08	 cmp	 eax, DWORD PTR _dwSkillSlotIndex$[ebp]
  00012	0f 94 c0	 sete	 al

; 872  : 	
; 873  : 	return true;
; 874  : }

  00015	5d		 pop	 ebp
  00016	c2 04 00	 ret	 4
$LN5@IsReserved:

; 871  : 		return false;

  00019	32 c0		 xor	 al, al

; 872  : 	
; 873  : 	return true;
; 874  : }

  0001b	5d		 pop	 ebp
  0001c	c2 04 00	 ret	 4
?__IsReservedUseSkill@CPythonPlayer@@IAE_NK@Z ENDP	; CPythonPlayer::__IsReservedUseSkill
_TEXT	ENDS
; Function compile flags: /Ogtp
; File E:\Metin2_server\SolWayneSF v6\ClientVS22\source\UserInterface\PythonPlayerInput.cpp
;	COMDAT ?__ReserveUseSkill@CPythonPlayer@@IAEXKKK@Z
_TEXT	SEGMENT
_dwActorID$ = 8						; size = 4
_dwSkillSlotIndex$ = 12					; size = 4
_dwRange$ = 16						; size = 4
?__ReserveUseSkill@CPythonPlayer@@IAEXKKK@Z PROC	; CPythonPlayer::__ReserveUseSkill, COMDAT
; _this$ = ecx

; 877  : {

  00000	55		 push	 ebp
  00001	8b ec		 mov	 ebp, esp

; 878  : 	m_eReservedMode=MODE_USE_SKILL;
; 879  : 	m_dwVIDReserved=dwActorID;

  00003	8b 45 08	 mov	 eax, DWORD PTR _dwActorID$[ebp]
  00006	89 81 f4 2d 01
	00		 mov	 DWORD PTR [ecx+77300], eax

; 880  : 	m_dwSkillSlotIndexReserved=dwSkillSlotIndex;

  0000c	8b 45 0c	 mov	 eax, DWORD PTR _dwSkillSlotIndex$[ebp]
  0000f	89 81 00 2e 01
	00		 mov	 DWORD PTR [ecx+77312], eax

; 881  : 	m_dwSkillRangeReserved=dwRange;

  00015	8b 45 10	 mov	 eax, DWORD PTR _dwRange$[ebp]
  00018	c7 41 54 04 00
	00 00		 mov	 DWORD PTR [ecx+84], 4
  0001f	89 81 04 2e 01
	00		 mov	 DWORD PTR [ecx+77316], eax

; 882  : 
; 883  : 	// NOTE : 아슬아슬하게 거리가 꼬이는 문제가 있어서 약간 느슨하게..
; 884  : 	if (m_dwSkillRangeReserved > 100)

  00025	83 f8 64	 cmp	 eax, 100		; 00000064H
  00028	76 09		 jbe	 SHORT $LN2@ReserveUse

; 885  : 		m_dwSkillRangeReserved -= 10;

  0002a	83 c0 f6	 add	 eax, -10		; fffffff6H
  0002d	89 81 04 2e 01
	00		 mov	 DWORD PTR [ecx+77316], eax
$LN2@ReserveUse:

; 886  : }

  00033	5d		 pop	 ebp
  00034	c2 0c 00	 ret	 12			; 0000000cH
?__ReserveUseSkill@CPythonPlayer@@IAEXKKK@Z ENDP	; CPythonPlayer::__ReserveUseSkill
_TEXT	ENDS
; Function compile flags: /Ogtp
; File E:\Metin2_server\SolWayneSF v6\ClientVS22\source\UserInterface\PythonPlayerInput.cpp
;	COMDAT ?__SetAutoAttackTargetActorID@CPythonPlayer@@IAEXK@Z
_TEXT	SEGMENT
_dwVID$ = 8						; size = 4
?__SetAutoAttackTargetActorID@CPythonPlayer@@IAEXK@Z PROC ; CPythonPlayer::__SetAutoAttackTargetActorID, COMDAT
; _this$ = ecx

; 894  : {

  00000	55		 push	 ebp
  00001	8b ec		 mov	 ebp, esp

; 895  :  	m_dwAutoAttackTargetVID = dwVID;

  00003	8b 45 08	 mov	 eax, DWORD PTR _dwVID$[ebp]
  00006	89 41 50	 mov	 DWORD PTR [ecx+80], eax

; 896  : }

  00009	5d		 pop	 ebp
  0000a	c2 04 00	 ret	 4
?__SetAutoAttackTargetActorID@CPythonPlayer@@IAEXK@Z ENDP ; CPythonPlayer::__SetAutoAttackTargetActorID
_TEXT	ENDS
; Function compile flags: /Ogtp
; File E:\Metin2_server\SolWayneSF v6\ClientVS22\source\UserInterface\PythonPlayerInput.cpp
;	COMDAT ?__ReserveProcess_ClickActor@CPythonPlayer@@IAEXXZ
_TEXT	SEGMENT
_this$1$ = -8						; size = 4
tv274 = -4						; size = 4
?__ReserveProcess_ClickActor@CPythonPlayer@@IAEXXZ PROC	; CPythonPlayer::__ReserveProcess_ClickActor, COMDAT
; _this$ = ecx

; 900  : {

  00000	55		 push	 ebp
  00001	8b ec		 mov	 ebp, esp
  00003	83 ec 0c	 sub	 esp, 12			; 0000000cH
  00006	53		 push	 ebx
  00007	56		 push	 esi
  00008	8b f1		 mov	 esi, ecx

; 901  : 	CInstanceBase* pkInstMain = NEW_GetMainActorPtr();

  0000a	8b 46 04	 mov	 eax, DWORD PTR [esi+4]
  0000d	8d 4e 04	 lea	 ecx, DWORD PTR [esi+4]
  00010	57		 push	 edi
  00011	89 75 f8	 mov	 DWORD PTR _this$1$[ebp], esi
  00014	89 4d fc	 mov	 DWORD PTR tv274[ebp], ecx
  00017	ff 90 88 00 00
	00		 call	 DWORD PTR [eax+136]

; 902  : 	CInstanceBase* pkInstReserved = NEW_FindActorPtr(m_dwVIDReserved);

  0001d	ff b6 f4 2d 01
	00		 push	 DWORD PTR [esi+77300]
  00023	8b d8		 mov	 ebx, eax
  00025	e8 00 00 00 00	 call	 ?NEW_FindActorPtr@CPythonPlayer@@QAEPAVCInstanceBase@@K@Z ; CPythonPlayer::NEW_FindActorPtr
  0002a	8b f8		 mov	 edi, eax

; 903  : 	if (!pkInstMain || !pkInstReserved)

  0002c	85 db		 test	 ebx, ebx
  0002e	0f 84 72 01 00
	00		 je	 $LN3@ReservePro
  00034	85 ff		 test	 edi, edi
  00036	0f 84 6a 01 00
	00		 je	 $LN3@ReservePro

; 904  : 	{
; 905  : 		__ClearReservedAction();
; 906  : 		return;
; 907  : 	}
; 908  : 
; 909  : 	if (!pkInstMain->NEW_IsClickableDistanceDestInstance(*pkInstReserved))

  0003c	57		 push	 edi
  0003d	8b cb		 mov	 ecx, ebx
  0003f	e8 00 00 00 00	 call	 ?NEW_IsClickableDistanceDestInstance@CInstanceBase@@QAEHAAV1@@Z ; CInstanceBase::NEW_IsClickableDistanceDestInstance
  00044	8b cb		 mov	 ecx, ebx
  00046	57		 push	 edi
  00047	85 c0		 test	 eax, eax
  00049	75 0c		 jne	 SHORT $LN4@ReservePro

; 910  : 	{
; 911  : 		pkInstMain->NEW_MoveToDestInstanceDirection(*pkInstReserved);

  0004b	e8 00 00 00 00	 call	 ?NEW_MoveToDestInstanceDirection@CInstanceBase@@QAEXAAV1@@Z ; CInstanceBase::NEW_MoveToDestInstanceDirection

; 970  : 	__ClearReservedAction();
; 971  : }

  00050	5f		 pop	 edi
  00051	5e		 pop	 esi
  00052	5b		 pop	 ebx
  00053	8b e5		 mov	 esp, ebp
  00055	5d		 pop	 ebp
  00056	c3		 ret	 0
$LN4@ReservePro:

; 912  : 		return;
; 913  : 	}
; 914  : 
; 915  : 	if (!pkInstMain->IsAttackableInstance(*pkInstReserved))

  00057	e8 00 00 00 00	 call	 ?IsAttackableInstance@CInstanceBase@@QAE_NAAV1@@Z ; CInstanceBase::IsAttackableInstance
  0005c	84 c0		 test	 al, al
  0005e	75 1d		 jne	 SHORT $LN5@ReservePro

; 916  : 	{
; 917  : 		pkInstMain->NEW_Stop();

  00060	8b cb		 mov	 ecx, ebx
  00062	e8 00 00 00 00	 call	 ?NEW_Stop@CInstanceBase@@QAEXXZ ; CInstanceBase::NEW_Stop

; 918  : 		__SendClickActorPacket(*pkInstReserved);

  00067	57		 push	 edi
  00068	8b ce		 mov	 ecx, esi
  0006a	e8 00 00 00 00	 call	 ?__SendClickActorPacket@CPythonPlayer@@IAEXAAVCInstanceBase@@@Z ; CPythonPlayer::__SendClickActorPacket

; 970  : 	__ClearReservedAction();
; 971  : }

  0006f	8b ce		 mov	 ecx, esi
  00071	e8 00 00 00 00	 call	 ?__ClearReservedAction@CPythonPlayer@@IAEXXZ ; CPythonPlayer::__ClearReservedAction
  00076	5f		 pop	 edi
  00077	5e		 pop	 esi
  00078	5b		 pop	 ebx
  00079	8b e5		 mov	 esp, ebp
  0007b	5d		 pop	 ebp
  0007c	c3		 ret	 0
$LN5@ReservePro:

; 919  : 		__ClearReservedAction();
; 920  : 		return;
; 921  : 	}
; 922  : 
; 923  : 	if (pkInstReserved->IsDead())

  0007d	8b cf		 mov	 ecx, edi
  0007f	e8 00 00 00 00	 call	 ?IsDead@CInstanceBase@@QAEHXZ ; CInstanceBase::IsDead
  00084	85 c0		 test	 eax, eax
  00086	0f 85 1a 01 00
	00		 jne	 $LN3@ReservePro

; 924  : 	{
; 925  : 		__ClearReservedAction();
; 926  : 		return;
; 927  : 	}
; 928  : 
; 929  : 	if (pkInstMain->IsInSafe())

  0008c	8b cb		 mov	 ecx, ebx
  0008e	e8 00 00 00 00	 call	 ?IsInSafe@CInstanceBase@@QAEHXZ ; CInstanceBase::IsInSafe
  00093	85 c0		 test	 eax, eax
  00095	74 43		 je	 SHORT $LN7@ReservePro

; 930  : 	{
; 931  : 		PyCallClassMemberFunc(m_ppyGameWindow, "OnCannotAttack", Py_BuildValue("(is)", GetMainCharacterIndex(), "IN_SAFE"));

  00097	8b 46 04	 mov	 eax, DWORD PTR [esi+4]
  0009a	8d 4e 04	 lea	 ecx, DWORD PTR [esi+4]
  0009d	68 00 00 00 00	 push	 OFFSET ??_C@_07OAOBINCH@IN_SAFE@
  000a2	ff 50 04	 call	 DWORD PTR [eax+4]
  000a5	50		 push	 eax
  000a6	68 00 00 00 00	 push	 OFFSET ??_C@_04JMLDJNEM@?$CIis?$CJ@
  000ab	ff 15 00 00 00
	00		 call	 DWORD PTR __imp__Py_BuildValue
  000b1	83 c4 0c	 add	 esp, 12			; 0000000cH
  000b4	50		 push	 eax
  000b5	68 00 00 00 00	 push	 OFFSET ??_C@_0P@BFHKDLNH@OnCannotAttack@
$LN15@ReservePro:

; 970  : 	__ClearReservedAction();
; 971  : }

  000ba	ff 76 08	 push	 DWORD PTR [esi+8]
  000bd	e8 00 00 00 00	 call	 ?PyCallClassMemberFunc@@YA_NPAU_object@@PBD0@Z ; PyCallClassMemberFunc
  000c2	83 c4 0c	 add	 esp, 12			; 0000000cH
  000c5	8b cb		 mov	 ecx, ebx
  000c7	e8 00 00 00 00	 call	 ?NEW_Stop@CInstanceBase@@QAEXXZ ; CInstanceBase::NEW_Stop
  000cc	8b ce		 mov	 ecx, esi
  000ce	e8 00 00 00 00	 call	 ?__ClearReservedAction@CPythonPlayer@@IAEXXZ ; CPythonPlayer::__ClearReservedAction
  000d3	5f		 pop	 edi
  000d4	5e		 pop	 esi
  000d5	5b		 pop	 ebx
  000d6	8b e5		 mov	 esp, ebp
  000d8	5d		 pop	 ebp
  000d9	c3		 ret	 0
$LN7@ReservePro:

; 932  : 		pkInstMain->NEW_Stop();
; 933  : 		__ClearReservedAction();
; 934  : 		return;
; 935  : 	}
; 936  : 
; 937  : 	if (pkInstReserved->IsInSafe())

  000da	8b cf		 mov	 ecx, edi
  000dc	e8 00 00 00 00	 call	 ?IsInSafe@CInstanceBase@@QAEHXZ ; CInstanceBase::IsInSafe
  000e1	85 c0		 test	 eax, eax
  000e3	74 43		 je	 SHORT $LN8@ReservePro

; 938  : 	{
; 939  : 		PyCallClassMemberFunc(m_ppyGameWindow, "OnCannotAttack", Py_BuildValue("(is)", GetMainCharacterIndex(), "DEST_IN_SAFE"));

  000e5	8b 46 04	 mov	 eax, DWORD PTR [esi+4]
  000e8	8d 4e 04	 lea	 ecx, DWORD PTR [esi+4]
  000eb	68 00 00 00 00	 push	 OFFSET ??_C@_0N@KDALDMKB@DEST_IN_SAFE@
  000f0	ff 50 04	 call	 DWORD PTR [eax+4]
  000f3	50		 push	 eax
  000f4	68 00 00 00 00	 push	 OFFSET ??_C@_04JMLDJNEM@?$CIis?$CJ@
  000f9	ff 15 00 00 00
	00		 call	 DWORD PTR __imp__Py_BuildValue
  000ff	83 c4 0c	 add	 esp, 12			; 0000000cH
  00102	50		 push	 eax
  00103	68 00 00 00 00	 push	 OFFSET ??_C@_0P@BFHKDLNH@OnCannotAttack@
  00108	ff 76 08	 push	 DWORD PTR [esi+8]
  0010b	e8 00 00 00 00	 call	 ?PyCallClassMemberFunc@@YA_NPAU_object@@PBD0@Z ; PyCallClassMemberFunc
  00110	83 c4 0c	 add	 esp, 12			; 0000000cH

; 940  : 		pkInstMain->NEW_Stop();

  00113	8b cb		 mov	 ecx, ebx
  00115	e8 00 00 00 00	 call	 ?NEW_Stop@CInstanceBase@@QAEXXZ ; CInstanceBase::NEW_Stop

; 970  : 	__ClearReservedAction();
; 971  : }

  0011a	8b ce		 mov	 ecx, esi
  0011c	e8 00 00 00 00	 call	 ?__ClearReservedAction@CPythonPlayer@@IAEXXZ ; CPythonPlayer::__ClearReservedAction
  00121	5f		 pop	 edi
  00122	5e		 pop	 esi
  00123	5b		 pop	 ebx
  00124	8b e5		 mov	 esp, ebp
  00126	5d		 pop	 ebp
  00127	c3		 ret	 0
$LN8@ReservePro:

; 941  : 		__ClearReservedAction();
; 942  : 		return;
; 943  : 	}
; 944  : 
; 945  : 	// 탄환격 쓰고 달려가는 도중에는 공격하지 않는다.
; 946  : 	if (__CheckDashAffect(*pkInstMain))

  00128	53		 push	 ebx
  00129	e8 00 00 00 00	 call	 ?__CheckDashAffect@CPythonPlayer@@IAE_NAAVCInstanceBase@@@Z ; CPythonPlayer::__CheckDashAffect
  0012e	84 c0		 test	 al, al
  00130	75 7b		 jne	 SHORT $LN1@ReservePro

; 947  : 	{
; 948  : 		return;
; 949  : 	}
; 950  : 
; 951  : 	/////
; 952  : 
; 953  : 	if (pkInstMain->IsBowMode())

  00132	8b cb		 mov	 ecx, ebx
  00134	e8 00 00 00 00	 call	 ?IsBowMode@CInstanceBase@@QAEHXZ ; CInstanceBase::IsBowMode
  00139	85 c0		 test	 eax, eax
  0013b	74 33		 je	 SHORT $LN11@ReservePro

; 954  : 	{
; 955  : 		if (!__HasEnoughArrow())

  0013d	8b ce		 mov	 ecx, esi
  0013f	e8 00 00 00 00	 call	 ?__HasEnoughArrow@CPythonPlayer@@IAE_NXZ ; CPythonPlayer::__HasEnoughArrow
  00144	84 c0		 test	 al, al
  00146	75 28		 jne	 SHORT $LN11@ReservePro

; 956  : 		{
; 957  : 			PyCallClassMemberFunc(m_ppyGameWindow, "OnCannotShot", Py_BuildValue("(is)", GetMainCharacterIndex(), "EMPTY_ARROW"));

  00148	8b 46 04	 mov	 eax, DWORD PTR [esi+4]
  0014b	8d 4e 04	 lea	 ecx, DWORD PTR [esi+4]
  0014e	68 00 00 00 00	 push	 OFFSET ??_C@_0M@FBIHMJDM@EMPTY_ARROW@
  00153	ff 50 04	 call	 DWORD PTR [eax+4]
  00156	50		 push	 eax
  00157	68 00 00 00 00	 push	 OFFSET ??_C@_04JMLDJNEM@?$CIis?$CJ@
  0015c	ff 15 00 00 00
	00		 call	 DWORD PTR __imp__Py_BuildValue
  00162	83 c4 0c	 add	 esp, 12			; 0000000cH
  00165	50		 push	 eax
  00166	68 00 00 00 00	 push	 OFFSET ??_C@_0N@OPOOJDCJ@OnCannotShot@

; 958  : 			pkInstMain->NEW_Stop();
; 959  : 			__ClearReservedAction();
; 960  : 			return;

  0016b	e9 4a ff ff ff	 jmp	 $LN15@ReservePro
$LN11@ReservePro:

; 961  : 		}
; 962  : 	}
; 963  : 
; 964  : 	if (pkInstReserved->GetVirtualID() != GetTargetVID())

  00170	8b cf		 mov	 ecx, edi
  00172	e8 00 00 00 00	 call	 ?GetVirtualID@CInstanceBase@@QAEKXZ ; CInstanceBase::GetVirtualID
  00177	8b ce		 mov	 ecx, esi
  00179	8b d0		 mov	 edx, eax
  0017b	e8 00 00 00 00	 call	 ?GetTargetVID@CPythonPlayer@@QAEKXZ ; CPythonPlayer::GetTargetVID
  00180	3b d0		 cmp	 edx, eax
  00182	74 1a		 je	 SHORT $LN12@ReservePro

; 965  : 	{
; 966  : 		SetTarget(pkInstReserved->GetVirtualID());

  00184	8b 45 fc	 mov	 eax, DWORD PTR tv274[ebp]
  00187	8b cf		 mov	 ecx, edi
  00189	8b 00		 mov	 eax, DWORD PTR [eax]
  0018b	8b 70 60	 mov	 esi, DWORD PTR [eax+96]
  0018e	e8 00 00 00 00	 call	 ?GetVirtualID@CInstanceBase@@QAEKXZ ; CInstanceBase::GetVirtualID
  00193	8b 4d fc	 mov	 ecx, DWORD PTR tv274[ebp]
  00196	6a 01		 push	 1
  00198	50		 push	 eax
  00199	ff d6		 call	 esi
  0019b	8b 75 f8	 mov	 esi, DWORD PTR _this$1$[ebp]
$LN12@ReservePro:

; 967  : 	}
; 968  : 
; 969  : 	pkInstMain->NEW_AttackToDestInstanceDirection(*pkInstReserved);

  0019e	57		 push	 edi
  0019f	8b cb		 mov	 ecx, ebx
  001a1	e8 00 00 00 00	 call	 ?NEW_AttackToDestInstanceDirection@CInstanceBase@@QAE_NAAV1@@Z ; CInstanceBase::NEW_AttackToDestInstanceDirection
$LN3@ReservePro:

; 970  : 	__ClearReservedAction();
; 971  : }

  001a6	8b ce		 mov	 ecx, esi
  001a8	e8 00 00 00 00	 call	 ?__ClearReservedAction@CPythonPlayer@@IAEXXZ ; CPythonPlayer::__ClearReservedAction
$LN1@ReservePro:
  001ad	5f		 pop	 edi
  001ae	5e		 pop	 esi
  001af	5b		 pop	 ebx
  001b0	8b e5		 mov	 esp, ebp
  001b2	5d		 pop	 ebp
  001b3	c3		 ret	 0
?__ReserveProcess_ClickActor@CPythonPlayer@@IAEXXZ ENDP	; CPythonPlayer::__ReserveProcess_ClickActor
_TEXT	ENDS
; Function compile flags: /Ogtp
; File C:\Program Files\Microsoft Visual Studio\2022\Community\VC\Tools\MSVC\14.34.31933\include\vector
;	COMDAT ?empty@?$vector@KV?$allocator@K@std@@@std@@QBE_NXZ
_TEXT	SEGMENT
?empty@?$vector@KV?$allocator@K@std@@@std@@QBE_NXZ PROC	; std::vector<unsigned long,std::allocator<unsigned long> >::empty, COMDAT
; _this$ = ecx

; 1926 :         auto& _My_data = _Mypair._Myval2;
; 1927 :         return _My_data._Myfirst == _My_data._Mylast;

  00000	8b 01		 mov	 eax, DWORD PTR [ecx]
  00002	3b 41 04	 cmp	 eax, DWORD PTR [ecx+4]
  00005	0f 94 c0	 sete	 al

; 1928 :     }

  00008	c3		 ret	 0
?empty@?$vector@KV?$allocator@K@std@@@std@@QBE_NXZ ENDP	; std::vector<unsigned long,std::allocator<unsigned long> >::empty
_TEXT	ENDS
; Function compile flags: /Ogtp
; File E:\Metin2_server\SolWayneSF v6\ClientVS22\source\eterPythonLib\PythonWindowManager.h
;	COMDAT ?GetScreenHeight@CWindowManager@UI@@QAEJXZ
_TEXT	SEGMENT
?GetScreenHeight@CWindowManager@UI@@QAEJXZ PROC		; UI::CWindowManager::GetScreenHeight, COMDAT
; _this$ = ecx

; 32   : 			long		GetScreenHeight()		{ return m_lHeight; }

  00000	8b 41 08	 mov	 eax, DWORD PTR [ecx+8]
  00003	c3		 ret	 0
?GetScreenHeight@CWindowManager@UI@@QAEJXZ ENDP		; UI::CWindowManager::GetScreenHeight
_TEXT	ENDS
; Function compile flags: /Ogtp
; File E:\Metin2_server\SolWayneSF v6\ClientVS22\source\eterPythonLib\PythonWindowManager.h
;	COMDAT ?GetScreenWidth@CWindowManager@UI@@QAEJXZ
_TEXT	SEGMENT
?GetScreenWidth@CWindowManager@UI@@QAEJXZ PROC		; UI::CWindowManager::GetScreenWidth, COMDAT
; _this$ = ecx

; 31   : 			long		GetScreenWidth()		{ return m_lWidth; }

  00000	8b 41 04	 mov	 eax, DWORD PTR [ecx+4]
  00003	c3		 ret	 0
?GetScreenWidth@CWindowManager@UI@@QAEJXZ ENDP		; UI::CWindowManager::GetScreenWidth
_TEXT	ENDS
END
