; Listing generated by Microsoft (R) Optimizing Compiler Version 19.34.31937.0 

	TITLE	e:\metin2_server\solwaynesf v6\clientvs22\vs_files\userinterface\distribute\pythonapplicationcamera.obj
	.686P
	.XMM
	include listing.inc
	.model	flat

INCLUDELIB OLDNAMES

PUBLIC	??_C@_0BE@DMOOAJEE@CenterPos?5?$CFf?5?$CFf?5?$CFf?6@ ; `string'
PUBLIC	??_C@_0BI@PHEEAALI@CameraSetting?5?$CFf?5?$CFf?5?$CFf?6@ ; `string'
PUBLIC	??_C@_0BB@KBBGALHE@CmrPos?5?$CFf?5?$CFf?5?$CFf?6@ ; `string'
PUBLIC	??_C@_0EK@OFJKBEAJ@Line?5?$CCx?$DL?$CFd?$HMy?$DL?$CFd?$HMz?$DL?$CFd?$HMdistance?$DL?$CF@ ; `string'
PUBLIC	??_C@_09BKJKIBFC@centerpos@			; `string'
PUBLIC	??_C@_0O@GKCMOHOF@camerasetting@		; `string'
PUBLIC	??_C@_06MDBDNPGG@cmrpos@			; `string'
PUBLIC	??_C@_0BJ@DHFDPMIM@invalid?5vector?5subscript@	; `string'
EXTRN	?_Xout_of_range@std@@YAXPBD@Z:PROC		; std::_Xout_of_range
EXTRN	_atof:PROC
EXTRN	?GetTokenVector@CTextFileLoader@@QAEHABV?$basic_string@DU?$char_traits@D@std@@V?$allocator@D@2@@std@@PAPAV?$vector@V?$basic_string@DU?$char_traits@D@std@@V?$allocator@D@2@@std@@V?$allocator@V?$basic_string@DU?$char_traits@D@std@@V?$allocator@D@2@@std@@@2@@3@@Z:PROC ; CTextFileLoader::GetTokenVector
EXTRN	?GetTokenVector3@CTextFileLoader@@QAEHABV?$basic_string@DU?$char_traits@D@std@@V?$allocator@D@2@@std@@PAUD3DXVECTOR3@@@Z:PROC ; CTextFileLoader::GetTokenVector3
EXTRN	?SetTop@CTextFileLoader@@QAEXXZ:PROC		; CTextFileLoader::SetTop
EXTRN	?Load@CTextFileLoader@@QAE_NPBD@Z:PROC		; CTextFileLoader::Load
EXTRN	??1CTextFileLoader@@UAE@XZ:PROC			; CTextFileLoader::~CTextFileLoader
EXTRN	??0CTextFileLoader@@QAE@XZ:PROC			; CTextFileLoader::CTextFileLoader
EXTRN	__imp__SetFileAttributesA@8:PROC
EXTRN	?SetCurrentCamera@CCameraManager@@QAEXE@Z:PROC	; CCameraManager::SetCurrentCamera
EXTRN	?GetCurrentCameraNum@CCameraManager@@QAEEXZ:PROC ; CCameraManager::GetCurrentCameraNum
EXTRN	?IsLock@CCamera@@QAE_NXZ:PROC			; CCamera::IsLock
EXTRN	__imp__GetKeyState@4:PROC
EXTRN	?Update@CSoundManager@@QAEXXZ:PROC		; CSoundManager::Update
EXTRN	?SetDirection@CSoundManager@@QAEXMMMMMM@Z:PROC	; CSoundManager::SetDirection
EXTRN	?SetPosition@CSoundManager@@QAEXMMM@Z:PROC	; CSoundManager::SetPosition
EXTRN	?IsDraging@CCamera@@QAE_NXZ:PROC		; CCamera::IsDraging
EXTRN	?Zoom@CCamera@@QAEXM@Z:PROC			; CCamera::Zoom
EXTRN	?Pitch@CCamera@@QAEXM@Z:PROC			; CCamera::Pitch
EXTRN	?Roll@CCamera@@QAEXM@Z:PROC			; CCamera::Roll
EXTRN	?GetTargetHeight@CCamera@@QAEMXZ:PROC		; CCamera::GetTargetHeight
EXTRN	?Lock@CCamera@@QAEXXZ:PROC			; CCamera::Lock
EXTRN	?MoveAlongCross@CCamera@@QAEXM@Z:PROC		; CCamera::MoveAlongCross
EXTRN	?MoveFront@CCamera@@QAEXM@Z:PROC		; CCamera::MoveFront
EXTRN	?MoveVertical@CCamera@@QAEXM@Z:PROC		; CCamera::MoveVertical
EXTRN	?SetPositionCamera@CGraphicBase@@QAEXMMMMMM@Z:PROC ; CGraphicBase::SetPositionCamera
EXTRN	?Unlock@CCamera@@QAEXXZ:PROC			; CCamera::Unlock
EXTRN	?PrintfTabs@@YAXPAU_iobuf@@HPBDZZ:PROC		; PrintfTabs
;	COMDAT ??_C@_0BJ@DHFDPMIM@invalid?5vector?5subscript@
CONST	SEGMENT
??_C@_0BJ@DHFDPMIM@invalid?5vector?5subscript@ DB 'invalid vector subscri'
	DB	'pt', 00H					; `string'
CONST	ENDS
;	COMDAT ??_C@_06MDBDNPGG@cmrpos@
CONST	SEGMENT
??_C@_06MDBDNPGG@cmrpos@ DB 'cmrpos', 00H		; `string'
CONST	ENDS
;	COMDAT ??_C@_0O@GKCMOHOF@camerasetting@
CONST	SEGMENT
??_C@_0O@GKCMOHOF@camerasetting@ DB 'camerasetting', 00H ; `string'
CONST	ENDS
;	COMDAT ??_C@_09BKJKIBFC@centerpos@
CONST	SEGMENT
??_C@_09BKJKIBFC@centerpos@ DB 'centerpos', 00H		; `string'
CONST	ENDS
;	COMDAT ??_C@_0EK@OFJKBEAJ@Line?5?$CCx?$DL?$CFd?$HMy?$DL?$CFd?$HMz?$DL?$CFd?$HMdistance?$DL?$CF@
CONST	SEGMENT
??_C@_0EK@OFJKBEAJ@Line?5?$CCx?$DL?$CFd?$HMy?$DL?$CFd?$HMz?$DL?$CFd?$HMdistance?$DL?$CF@ DB 'L'
	DB	'ine "x;%d|y;%d|z;%d|distance;%d|pitch;%d|rot;%d|up;%d|view;%d'
	DB	'|cross;%d"', 0aH, 00H			; `string'
CONST	ENDS
;	COMDAT ??_C@_0BB@KBBGALHE@CmrPos?5?$CFf?5?$CFf?5?$CFf?6@
CONST	SEGMENT
??_C@_0BB@KBBGALHE@CmrPos?5?$CFf?5?$CFf?5?$CFf?6@ DB 'CmrPos %f %f %f', 0aH
	DB	00H						; `string'
CONST	ENDS
;	COMDAT ??_C@_0BI@PHEEAALI@CameraSetting?5?$CFf?5?$CFf?5?$CFf?6@
CONST	SEGMENT
??_C@_0BI@PHEEAALI@CameraSetting?5?$CFf?5?$CFf?5?$CFf?6@ DB 'CameraSettin'
	DB	'g %f %f %f', 0aH, 00H			; `string'
CONST	ENDS
;	COMDAT ??_C@_0BE@DMOOAJEE@CenterPos?5?$CFf?5?$CFf?5?$CFf?6@
CONST	SEGMENT
??_C@_0BE@DMOOAJEE@CenterPos?5?$CFf?5?$CFf?5?$CFf?6@ DB 'CenterPos %f %f '
	DB	'%f', 0aH, 00H				; `string'
PUBLIC	?_Xrange@?$vector@V?$basic_string@DU?$char_traits@D@std@@V?$allocator@D@2@@std@@V?$allocator@V?$basic_string@DU?$char_traits@D@std@@V?$allocator@D@2@@std@@@2@@std@@CAXXZ ; std::vector<std::basic_string<char,std::char_traits<char>,std::allocator<char> >,std::allocator<std::basic_string<char,std::char_traits<char>,std::allocator<char> > > >::_Xrange
PUBLIC	?size@?$vector@V?$basic_string@DU?$char_traits@D@std@@V?$allocator@D@2@@std@@V?$allocator@V?$basic_string@DU?$char_traits@D@std@@V?$allocator@D@2@@std@@@2@@std@@QBEIXZ ; std::vector<std::basic_string<char,std::char_traits<char>,std::allocator<char> >,std::allocator<std::basic_string<char,std::char_traits<char>,std::allocator<char> > > >::size
PUBLIC	?at@?$vector@V?$basic_string@DU?$char_traits@D@std@@V?$allocator@D@2@@std@@V?$allocator@V?$basic_string@DU?$char_traits@D@std@@V?$allocator@D@2@@std@@@2@@std@@QAEAAV?$basic_string@DU?$char_traits@D@std@@V?$allocator@D@2@@2@I@Z ; std::vector<std::basic_string<char,std::char_traits<char>,std::allocator<char> >,std::allocator<std::basic_string<char,std::char_traits<char>,std::allocator<char> > > >::at
PUBLIC	?LoadCameraSetting@CPythonApplication@@QAE_NPBD@Z ; CPythonApplication::LoadCameraSetting
PUBLIC	?SaveCameraSetting@CPythonApplication@@QAEXPBD@Z ; CPythonApplication::SaveCameraSetting
PUBLIC	?GetCameraSetting@CPythonApplication@@QAEXPAUSCameraSetting@IAbstractApplication@@@Z ; CPythonApplication::GetCameraSetting
PUBLIC	?SetCameraSetting@CPythonApplication@@QAEXABUSCameraSetting@IAbstractApplication@@@Z ; CPythonApplication::SetCameraSetting
PUBLIC	?IsLockCurrentCamera@CPythonApplication@@QAE_NXZ ; CPythonApplication::IsLockCurrentCamera
PUBLIC	?GetPitch@CPythonApplication@@QAEMXZ		; CPythonApplication::GetPitch
PUBLIC	?GetRotation@CPythonApplication@@QAEMXZ		; CPythonApplication::GetRotation
PUBLIC	?MovieResetCamera@CPythonApplication@@QAEXXZ	; CPythonApplication::MovieResetCamera
PUBLIC	?MovieZoomCamera@CPythonApplication@@QAEXH@Z	; CPythonApplication::MovieZoomCamera
PUBLIC	?MoviePitchCamera@CPythonApplication@@QAEXH@Z	; CPythonApplication::MoviePitchCamera
PUBLIC	?MovieRotateCamera@CPythonApplication@@QAEXH@Z	; CPythonApplication::MovieRotateCamera
PUBLIC	?ZoomCamera@CPythonApplication@@QAEXH@Z		; CPythonApplication::ZoomCamera
PUBLIC	?PitchCamera@CPythonApplication@@QAEXH@Z	; CPythonApplication::PitchCamera
PUBLIC	?RotateCamera@CPythonApplication@@QAEXH@Z	; CPythonApplication::RotateCamera
PUBLIC	?GetCamera@CPythonApplication@@QAEXPAM000@Z	; CPythonApplication::GetCamera
PUBLIC	?SetCamera@CPythonApplication@@QAEXMMMM@Z	; CPythonApplication::SetCamera
PUBLIC	?SetUpDirCameraSpeed@CPythonApplication@@QAEXM@Z ; CPythonApplication::SetUpDirCameraSpeed
PUBLIC	?SetCrossDirCameraSpeed@CPythonApplication@@QAEXM@Z ; CPythonApplication::SetCrossDirCameraSpeed
PUBLIC	?SetViewDirCameraSpeed@CPythonApplication@@QAEXM@Z ; CPythonApplication::SetViewDirCameraSpeed
PUBLIC	?BlendValueByLinear@@YAMMMMM@Z			; BlendValueByLinear
PUBLIC	?GetRoll@CCamera@@QBEMXZ			; CCamera::GetRoll
PUBLIC	?GetPitch@CCamera@@QBEMXZ			; CCamera::GetPitch
PUBLIC	?GetView@CCamera@@QBEABUD3DXVECTOR3@@XZ		; CCamera::GetView
PUBLIC	?GetUp@CCamera@@QBEABUD3DXVECTOR3@@XZ		; CCamera::GetUp
PUBLIC	?__UpdateCamera@CPythonApplication@@IAEXXZ	; CPythonApplication::__UpdateCamera
PUBLIC	?SetEventCamera@CPythonApplication@@UAEXABUSCameraSetting@IAbstractApplication@@@Z ; CPythonApplication::SetEventCamera
PUBLIC	?BlendEventCamera@CPythonApplication@@UAEXABUSCameraSetting@IAbstractApplication@@M@Z ; CPythonApplication::BlendEventCamera
PUBLIC	?SetDefaultCamera@CPythonApplication@@UAEXXZ	; CPythonApplication::SetDefaultCamera
;	COMDAT xdata$x
xdata$x	SEGMENT
__ehfuncinfo$?LoadCameraSetting@CPythonApplication@@QAE_NPBD@Z DD 019930522H
	DD	04H
	DD	FLAT:__unwindtable$?LoadCameraSetting@CPythonApplication@@QAE_NPBD@Z
	DD	2 DUP(00H)
	DD	2 DUP(00H)
	DD	00H
	DD	01H
__unwindtable$?LoadCameraSetting@CPythonApplication@@QAE_NPBD@Z DD 0ffffffffH
	DD	FLAT:__unwindfunclet$?LoadCameraSetting@CPythonApplication@@QAE_NPBD@Z$0
	DD	00H
	DD	FLAT:__unwindfunclet$?LoadCameraSetting@CPythonApplication@@QAE_NPBD@Z$1
	DD	00H
	DD	FLAT:__unwindfunclet$?LoadCameraSetting@CPythonApplication@@QAE_NPBD@Z$2
	DD	00H
	DD	FLAT:__unwindfunclet$?LoadCameraSetting@CPythonApplication@@QAE_NPBD@Z$3
; Function compile flags: /Ogtp
; File E:\Metin2_server\SolWayneSF v6\ClientVS22\source\UserInterface\PythonApplicationCamera.cpp
;	COMDAT ?SetDefaultCamera@CPythonApplication@@UAEXXZ
_TEXT	SEGMENT
?SetDefaultCamera@CPythonApplication@@UAEXXZ PROC	; CPythonApplication::SetDefaultCamera, COMDAT
; _this$ = ecx

; 296  : {

  00000	56		 push	 esi
  00001	8b f1		 mov	 esi, ecx

; 297  : 	m_iCameraMode = CAMERA_MODE_NORMAL;

  00003	c7 86 6c 3d 02
	00 00 00 00 00	 mov	 DWORD PTR [esi+146796], 0

; 298  : 	m_fBlendCameraStartTime = 0.0f;

  0000d	c7 86 70 3d 02
	00 00 00 00 00	 mov	 DWORD PTR [esi+146800], 0

; 299  : 	m_fBlendCameraBlendTime = 0.0f;

  00017	c7 86 74 3d 02
	00 00 00 00 00	 mov	 DWORD PTR [esi+146804], 0

; 300  : 
; 301  : 	/////
; 302  : 
; 303  : 	CCamera * pCamera = CCameraManager::Instance().GetCurrentCamera();

  00021	8b 0d 00 00 00
	00		 mov	 ecx, DWORD PTR ?ms_singleton@?$CSingleton@VCCameraManager@@@@0PAVCCameraManager@@A ; CSingleton<CCameraManager>::ms_singleton
  00027	e8 00 00 00 00	 call	 ?GetCurrentCamera@CCameraManager@@QAEPAVCCamera@@XZ ; CCameraManager::GetCurrentCamera

; 304  : 	if (pCamera)

  0002c	85 c0		 test	 eax, eax
  0002e	74 07		 je	 SHORT $LN2@SetDefault

; 305  : 		pCamera->Unlock();

  00030	8b c8		 mov	 ecx, eax
  00032	e8 00 00 00 00	 call	 ?Unlock@CCamera@@QAEXXZ	; CCamera::Unlock
$LN2@SetDefault:

; 306  : 
; 307  : 	if (CCameraManager::DEFAULT_PERSPECTIVE_CAMERA != CCameraManager::Instance().GetCurrentCameraNum())

  00037	8b 0d 00 00 00
	00		 mov	 ecx, DWORD PTR ?ms_singleton@?$CSingleton@VCCameraManager@@@@0PAVCCameraManager@@A ; CSingleton<CCameraManager>::ms_singleton
  0003d	e8 00 00 00 00	 call	 ?GetCurrentCameraNum@CCameraManager@@QAEEXZ ; CCameraManager::GetCurrentCameraNum
  00042	3c 01		 cmp	 al, 1
  00044	74 1c		 je	 SHORT $LN3@SetDefault

; 308  : 	{
; 309  : 		CCameraManager::Instance().SetCurrentCamera(CCameraManager::DEFAULT_PERSPECTIVE_CAMERA);

  00046	8b 0d 00 00 00
	00		 mov	 ecx, DWORD PTR ?ms_singleton@?$CSingleton@VCCameraManager@@@@0PAVCCameraManager@@A ; CSingleton<CCameraManager>::ms_singleton
  0004c	6a 01		 push	 1
  0004e	e8 00 00 00 00	 call	 ?SetCurrentCamera@CCameraManager@@QAEXE@Z ; CCameraManager::SetCurrentCamera

; 310  : 		SetCameraSetting(m_DefaultCameraSetting);

  00053	8d 86 24 3d 02
	00		 lea	 eax, DWORD PTR [esi+146724]
  00059	50		 push	 eax
  0005a	8d 4e e0	 lea	 ecx, DWORD PTR [esi-32]
  0005d	e8 00 00 00 00	 call	 ?SetCameraSetting@CPythonApplication@@QAEXABUSCameraSetting@IAbstractApplication@@@Z ; CPythonApplication::SetCameraSetting
$LN3@SetDefault:

; 311  : 	}
; 312  : }

  00062	5e		 pop	 esi
  00063	c3		 ret	 0
?SetDefaultCamera@CPythonApplication@@UAEXXZ ENDP	; CPythonApplication::SetDefaultCamera
_TEXT	ENDS
; Function compile flags: /Ogtp
; File E:\Metin2_server\SolWayneSF v6\ClientVS22\source\UserInterface\PythonApplicationCamera.cpp
;	COMDAT ?BlendEventCamera@CPythonApplication@@UAEXABUSCameraSetting@IAbstractApplication@@M@Z
_TEXT	SEGMENT
_c_rCameraSetting$ = 8					; size = 4
_fBlendTime$ = 12					; size = 4
?BlendEventCamera@CPythonApplication@@UAEXABUSCameraSetting@IAbstractApplication@@M@Z PROC ; CPythonApplication::BlendEventCamera, COMDAT
; _this$ = ecx

; 284  : {

  00000	55		 push	 ebp
  00001	8b ec		 mov	 ebp, esp
  00003	56		 push	 esi
  00004	8b f1		 mov	 esi, ecx

; 285  : 	m_iCameraMode = CAMERA_MODE_BLEND;

  00006	c7 86 6c 3d 02
	00 02 00 00 00	 mov	 DWORD PTR [esi+146796], 2

; 286  : 	m_fBlendCameraStartTime = CTimer::Instance().GetCurrentSecond();

  00010	8b 0d 00 00 00
	00		 mov	 ecx, DWORD PTR ?ms_singleton@?$CSingleton@VCTimer@@@@0PAVCTimer@@A ; CSingleton<CTimer>::ms_singleton
  00016	e8 00 00 00 00	 call	 ?GetCurrentSecond@CTimer@@QAEMXZ ; CTimer::GetCurrentSecond

; 287  : 	m_fBlendCameraBlendTime = fBlendTime;
; 288  : 	m_kEndBlendCameraSetting = c_rCameraSetting;

  0001b	8b 45 08	 mov	 eax, DWORD PTR _c_rCameraSetting$[ebp]
  0001e	f3 0f 10 45 0c	 movss	 xmm0, DWORD PTR _fBlendTime$[ebp]
  00023	d9 9e 70 3d 02
	00		 fstp	 DWORD PTR [esi+146800]
  00029	f3 0f 11 86 74
	3d 02 00	 movss	 DWORD PTR [esi+146804], xmm0
  00031	0f 10 00	 movups	 xmm0, XMMWORD PTR [eax]
  00034	0f 11 86 78 3d
	02 00		 movups	 XMMWORD PTR [esi+146808], xmm0
  0003b	0f 10 40 10	 movups	 xmm0, XMMWORD PTR [eax+16]
  0003f	0f 11 86 88 3d
	02 00		 movups	 XMMWORD PTR [esi+146824], xmm0
  00046	8b 40 20	 mov	 eax, DWORD PTR [eax+32]
  00049	89 86 98 3d 02
	00		 mov	 DWORD PTR [esi+146840], eax

; 289  : 
; 290  : 	CCamera * pCamera = CCameraManager::Instance().GetCurrentCamera();

  0004f	8b 0d 00 00 00
	00		 mov	 ecx, DWORD PTR ?ms_singleton@?$CSingleton@VCCameraManager@@@@0PAVCCameraManager@@A ; CSingleton<CCameraManager>::ms_singleton
  00055	e8 00 00 00 00	 call	 ?GetCurrentCamera@CCameraManager@@QAEPAVCCamera@@XZ ; CCameraManager::GetCurrentCamera
  0005a	5e		 pop	 esi

; 291  : 	if (pCamera)

  0005b	85 c0		 test	 eax, eax
  0005d	74 07		 je	 SHORT $LN2@BlendEvent

; 292  : 		pCamera->Lock();

  0005f	8b c8		 mov	 ecx, eax
  00061	e8 00 00 00 00	 call	 ?Lock@CCamera@@QAEXXZ	; CCamera::Lock
$LN2@BlendEvent:

; 293  : }

  00066	5d		 pop	 ebp
  00067	c2 08 00	 ret	 8
?BlendEventCamera@CPythonApplication@@UAEXABUSCameraSetting@IAbstractApplication@@M@Z ENDP ; CPythonApplication::BlendEventCamera
_TEXT	ENDS
; Function compile flags: /Ogtp
; File E:\Metin2_server\SolWayneSF v6\ClientVS22\source\UserInterface\PythonApplicationCamera.cpp
;	COMDAT ?SetEventCamera@CPythonApplication@@UAEXABUSCameraSetting@IAbstractApplication@@@Z
_TEXT	SEGMENT
_c_rCameraSetting$ = 8					; size = 4
?SetEventCamera@CPythonApplication@@UAEXABUSCameraSetting@IAbstractApplication@@@Z PROC ; CPythonApplication::SetEventCamera, COMDAT
; _this$ = ecx

; 265  : {

  00000	55		 push	 ebp
  00001	8b ec		 mov	 ebp, esp
  00003	53		 push	 ebx
  00004	57		 push	 edi
  00005	8b f9		 mov	 edi, ecx

; 266  : 	if (CCameraManager::DEFAULT_PERSPECTIVE_CAMERA == CCameraManager::Instance().GetCurrentCameraNum())

  00007	8b 0d 00 00 00
	00		 mov	 ecx, DWORD PTR ?ms_singleton@?$CSingleton@VCCameraManager@@@@0PAVCCameraManager@@A ; CSingleton<CCameraManager>::ms_singleton
  0000d	e8 00 00 00 00	 call	 ?GetCurrentCameraNum@CCameraManager@@QAEEXZ ; CCameraManager::GetCurrentCameraNum
  00012	3c 01		 cmp	 al, 1
  00014	75 0f		 jne	 SHORT $LN5@SetEventCa

; 267  : 	{
; 268  : 		GetCameraSetting(&m_DefaultCameraSetting);

  00016	8d 87 24 3d 02
	00		 lea	 eax, DWORD PTR [edi+146724]
  0001c	50		 push	 eax
  0001d	8d 4f e0	 lea	 ecx, DWORD PTR [edi-32]
  00020	e8 00 00 00 00	 call	 ?GetCameraSetting@CPythonApplication@@QAEXPAUSCameraSetting@IAbstractApplication@@@Z ; CPythonApplication::GetCameraSetting
$LN5@SetEventCa:

; 269  : 	}
; 270  : 
; 271  : 	/////
; 272  : 
; 273  : 	CCameraManager::Instance().SetCurrentCamera(EVENT_CAMERA_NUMBER);

  00025	8b 0d 00 00 00
	00		 mov	 ecx, DWORD PTR ?ms_singleton@?$CSingleton@VCCameraManager@@@@0PAVCCameraManager@@A ; CSingleton<CCameraManager>::ms_singleton
  0002b	6a 65		 push	 101			; 00000065H
  0002d	e8 00 00 00 00	 call	 ?SetCurrentCamera@CCameraManager@@QAEXE@Z ; CCameraManager::SetCurrentCamera

; 274  : 	CCamera * pCamera = CCameraManager::Instance().GetCurrentCamera();

  00032	8b 0d 00 00 00
	00		 mov	 ecx, DWORD PTR ?ms_singleton@?$CSingleton@VCCameraManager@@@@0PAVCCameraManager@@A ; CSingleton<CCameraManager>::ms_singleton
  00038	e8 00 00 00 00	 call	 ?GetCurrentCamera@CCameraManager@@QAEPAVCCamera@@XZ ; CCameraManager::GetCurrentCamera

; 275  : 	if (!pCamera)

  0003d	85 c0		 test	 eax, eax
  0003f	74 36		 je	 SHORT $LN1@SetEventCa

; 276  : 		return;
; 277  : 
; 278  : 	SetCameraSetting(c_rCameraSetting);

  00041	56		 push	 esi
  00042	8b 75 08	 mov	 esi, DWORD PTR _c_rCameraSetting$[ebp]
  00045	8d 4f e0	 lea	 ecx, DWORD PTR [edi-32]
  00048	56		 push	 esi
  00049	e8 00 00 00 00	 call	 ?SetCameraSetting@CPythonApplication@@QAEXABUSCameraSetting@IAbstractApplication@@@Z ; CPythonApplication::SetCameraSetting

; 279  : 	m_kEventCameraSetting = c_rCameraSetting;

  0004e	0f 10 06	 movups	 xmm0, XMMWORD PTR [esi]
  00051	0f 11 87 48 3d
	02 00		 movups	 XMMWORD PTR [edi+146760], xmm0
  00058	0f 10 46 10	 movups	 xmm0, XMMWORD PTR [esi+16]
  0005c	0f 11 87 58 3d
	02 00		 movups	 XMMWORD PTR [edi+146776], xmm0
  00063	8b 46 20	 mov	 eax, DWORD PTR [esi+32]
  00066	89 87 68 3d 02
	00		 mov	 DWORD PTR [edi+146792], eax

; 280  : 	m_iCameraMode = CAMERA_MODE_STAND;

  0006c	c7 87 6c 3d 02
	00 01 00 00 00	 mov	 DWORD PTR [edi+146796], 1
  00076	5e		 pop	 esi
$LN1@SetEventCa:

; 281  : }

  00077	5f		 pop	 edi
  00078	5b		 pop	 ebx
  00079	5d		 pop	 ebp
  0007a	c2 04 00	 ret	 4
?SetEventCamera@CPythonApplication@@UAEXABUSCameraSetting@IAbstractApplication@@@Z ENDP ; CPythonApplication::SetEventCamera
_TEXT	ENDS
; Function compile flags: /Ogtp
; File E:\Metin2_server\SolWayneSF v6\ClientVS22\source\UserInterface\PythonApplicationCamera.cpp
;	COMDAT ?__UpdateCamera@CPythonApplication@@IAEXXZ
_TEXT	SEGMENT
_fCrossDir$1$ = -36					; size = 4
_fRotation$1 = -36					; size = 4
_fRotation$2 = -36					; size = 4
_fViewDir$1$ = -32					; size = 4
_fPitch$3 = -32						; size = 4
_fPitch$4 = -32						; size = 4
_fUpDir$1$ = -28					; size = 4
_fDistance$5 = -28					; size = 4
_fDistance$6 = -28					; size = 4
_fxCenter$1$ = -24					; size = 4
tv355 = -24						; size = 4
tv301 = -24						; size = 4
_fHeight$7 = -24					; size = 4
_fHeight$8 = -24					; size = 4
_fyCenter$1$ = -20					; size = 4
_fzCenter$1$ = -16					; size = 4
_fDistance$1$ = -12					; size = 4
_fPitch$1$ = -8						; size = 4
_fRotation$1$ = -4					; size = 4
_fcurTime$9 = -4					; size = 4
?__UpdateCamera@CPythonApplication@@IAEXXZ PROC		; CPythonApplication::__UpdateCamera, COMDAT
; _this$ = ecx

; 16   : {

  00000	55		 push	 ebp
  00001	8b ec		 mov	 ebp, esp
  00003	83 ec 24	 sub	 esp, 36			; 00000024H
  00006	53		 push	 ebx
  00007	57		 push	 edi
  00008	8b f9		 mov	 edi, ecx

; 17   : 	//////////////////////
; 18   : 	// Camera Setting
; 19   : 	CCamera * pMainCamera = CCameraManager::Instance().GetCurrentCamera();

  0000a	8b 0d 00 00 00
	00		 mov	 ecx, DWORD PTR ?ms_singleton@?$CSingleton@VCCameraManager@@@@0PAVCCameraManager@@A ; CSingleton<CCameraManager>::ms_singleton
  00010	e8 00 00 00 00	 call	 ?GetCurrentCamera@CCameraManager@@QAEPAVCCamera@@XZ ; CCameraManager::GetCurrentCamera
  00015	8b d8		 mov	 ebx, eax

; 20   : 	if (!pMainCamera)

  00017	85 db		 test	 ebx, ebx
  00019	0f 84 93 04 00
	00		 je	 $LN1@UpdateCame

; 21   : 		return;
; 22   : 
; 23   : 	if (CAMERA_MODE_BLEND == m_iCameraMode)

  0001f	8b 87 8c 3d 02
	00		 mov	 eax, DWORD PTR [edi+146828]
  00025	83 f8 02	 cmp	 eax, 2
  00028	0f 85 c0 01 00
	00		 jne	 $LN3@UpdateCame

; 24   : 	{
; 25   : 		float fcurTime = CTimer::Instance().GetCurrentSecond();

  0002e	8b 0d 00 00 00
	00		 mov	 ecx, DWORD PTR ?ms_singleton@?$CSingleton@VCTimer@@@@0PAVCTimer@@A ; CSingleton<CTimer>::ms_singleton
  00034	e8 00 00 00 00	 call	 ?GetCurrentSecond@CTimer@@QAEMXZ ; CTimer::GetCurrentSecond

; 26   : 		float fElapsedTime = fcurTime - m_fBlendCameraStartTime;
; 27   : 
; 28   : 		float fxCenter = BlendValueByLinear(fElapsedTime, m_fBlendCameraBlendTime, m_kEventCameraSetting.v3CenterPosition.x, m_kEndBlendCameraSetting.v3CenterPosition.x);

  00039	f3 0f 10 8f 94
	3d 02 00	 movss	 xmm1, DWORD PTR [edi+146836]
  00041	f3 0f 10 9f 98
	3d 02 00	 movss	 xmm3, DWORD PTR [edi+146840]
  00049	f3 0f 10 97 68
	3d 02 00	 movss	 xmm2, DWORD PTR [edi+146792]
  00051	d9 5d fc	 fstp	 DWORD PTR _fcurTime$9[ebp]
  00054	f3 0f 10 65 fc	 movss	 xmm4, DWORD PTR _fcurTime$9[ebp]
  00059	f3 0f 5c a7 90
	3d 02 00	 subss	 xmm4, DWORD PTR [edi+146832]
  00061	0f 28 c4	 movaps	 xmm0, xmm4
  00064	e8 00 00 00 00	 call	 ?BlendValueByLinear@@YAMMMMM@Z ; BlendValueByLinear

; 29   : 		float fyCenter = BlendValueByLinear(fElapsedTime, m_fBlendCameraBlendTime, m_kEventCameraSetting.v3CenterPosition.y, m_kEndBlendCameraSetting.v3CenterPosition.y);

  00069	f3 0f 10 9f 9c
	3d 02 00	 movss	 xmm3, DWORD PTR [edi+146844]
  00071	f3 0f 10 97 6c
	3d 02 00	 movss	 xmm2, DWORD PTR [edi+146796]
  00079	f3 0f 11 45 e8	 movss	 DWORD PTR _fxCenter$1$[ebp], xmm0
  0007e	0f 28 c4	 movaps	 xmm0, xmm4
  00081	e8 00 00 00 00	 call	 ?BlendValueByLinear@@YAMMMMM@Z ; BlendValueByLinear

; 30   : 		float fzCenter = BlendValueByLinear(fElapsedTime, m_fBlendCameraBlendTime, m_kEventCameraSetting.v3CenterPosition.z, m_kEndBlendCameraSetting.v3CenterPosition.z);

  00086	f3 0f 10 9f a0
	3d 02 00	 movss	 xmm3, DWORD PTR [edi+146848]
  0008e	f3 0f 10 97 70
	3d 02 00	 movss	 xmm2, DWORD PTR [edi+146800]
  00096	f3 0f 11 45 ec	 movss	 DWORD PTR _fyCenter$1$[ebp], xmm0
  0009b	0f 28 c4	 movaps	 xmm0, xmm4
  0009e	e8 00 00 00 00	 call	 ?BlendValueByLinear@@YAMMMMM@Z ; BlendValueByLinear

; 31   : 
; 32   : 		float fDistance = BlendValueByLinear(fElapsedTime, m_fBlendCameraBlendTime, m_kEventCameraSetting.fZoom, m_kEndBlendCameraSetting.fZoom);

  000a3	f3 0f 10 9f b8
	3d 02 00	 movss	 xmm3, DWORD PTR [edi+146872]
  000ab	f3 0f 10 97 88
	3d 02 00	 movss	 xmm2, DWORD PTR [edi+146824]
  000b3	f3 0f 11 45 f0	 movss	 DWORD PTR _fzCenter$1$[ebp], xmm0
  000b8	0f 28 c4	 movaps	 xmm0, xmm4
  000bb	e8 00 00 00 00	 call	 ?BlendValueByLinear@@YAMMMMM@Z ; BlendValueByLinear

; 33   : 		float fPitch = BlendValueByLinear(fElapsedTime, m_fBlendCameraBlendTime, m_kEventCameraSetting.fPitch, m_kEndBlendCameraSetting.fPitch);

  000c0	f3 0f 10 9f b4
	3d 02 00	 movss	 xmm3, DWORD PTR [edi+146868]
  000c8	f3 0f 10 97 84
	3d 02 00	 movss	 xmm2, DWORD PTR [edi+146820]
  000d0	f3 0f 11 45 f4	 movss	 DWORD PTR _fDistance$1$[ebp], xmm0
  000d5	0f 28 c4	 movaps	 xmm0, xmm4
  000d8	e8 00 00 00 00	 call	 ?BlendValueByLinear@@YAMMMMM@Z ; BlendValueByLinear

; 34   : 		float fRotation = BlendValueByLinear(fElapsedTime, m_fBlendCameraBlendTime, m_kEventCameraSetting.fRotation, m_kEndBlendCameraSetting.fRotation);

  000dd	f3 0f 10 9f b0
	3d 02 00	 movss	 xmm3, DWORD PTR [edi+146864]
  000e5	f3 0f 10 97 80
	3d 02 00	 movss	 xmm2, DWORD PTR [edi+146816]
  000ed	f3 0f 11 45 f8	 movss	 DWORD PTR _fPitch$1$[ebp], xmm0
  000f2	0f 28 c4	 movaps	 xmm0, xmm4
  000f5	e8 00 00 00 00	 call	 ?BlendValueByLinear@@YAMMMMM@Z ; BlendValueByLinear

; 35   : 
; 36   : 		float fUpDir = BlendValueByLinear(fElapsedTime, m_fBlendCameraBlendTime, m_kEventCameraSetting.kCmrPos.m_fUpDir, m_kEndBlendCameraSetting.kCmrPos.m_fUpDir);

  000fa	f3 0f 10 9f a4
	3d 02 00	 movss	 xmm3, DWORD PTR [edi+146852]
  00102	f3 0f 10 97 74
	3d 02 00	 movss	 xmm2, DWORD PTR [edi+146804]
  0010a	f3 0f 11 45 fc	 movss	 DWORD PTR _fRotation$1$[ebp], xmm0
  0010f	0f 28 c4	 movaps	 xmm0, xmm4
  00112	e8 00 00 00 00	 call	 ?BlendValueByLinear@@YAMMMMM@Z ; BlendValueByLinear

; 37   : 		float fViewDir = BlendValueByLinear(fElapsedTime, m_fBlendCameraBlendTime, m_kEventCameraSetting.kCmrPos.m_fViewDir, m_kEndBlendCameraSetting.kCmrPos.m_fViewDir);

  00117	f3 0f 10 9f a8
	3d 02 00	 movss	 xmm3, DWORD PTR [edi+146856]
  0011f	f3 0f 10 97 78
	3d 02 00	 movss	 xmm2, DWORD PTR [edi+146808]
  00127	f3 0f 11 45 e4	 movss	 DWORD PTR _fUpDir$1$[ebp], xmm0
  0012c	0f 28 c4	 movaps	 xmm0, xmm4
  0012f	e8 00 00 00 00	 call	 ?BlendValueByLinear@@YAMMMMM@Z ; BlendValueByLinear

; 38   : 		float fCrossDir = BlendValueByLinear(fElapsedTime, m_fBlendCameraBlendTime, m_kEventCameraSetting.kCmrPos.m_fCrossDir, m_kEndBlendCameraSetting.kCmrPos.m_fCrossDir);

  00134	f3 0f 10 9f ac
	3d 02 00	 movss	 xmm3, DWORD PTR [edi+146860]
  0013c	f3 0f 10 97 7c
	3d 02 00	 movss	 xmm2, DWORD PTR [edi+146812]
  00144	f3 0f 11 45 e0	 movss	 DWORD PTR _fViewDir$1$[ebp], xmm0
  00149	0f 28 c4	 movaps	 xmm0, xmm4
  0014c	e8 00 00 00 00	 call	 ?BlendValueByLinear@@YAMMMMM@Z ; BlendValueByLinear

; 39   : 
; 40   : 		// Temporary. Have to fix that this work in camera class. - [levites]
; 41   : 		pMainCamera->Unlock();

  00151	8b cb		 mov	 ecx, ebx
  00153	f3 0f 11 45 dc	 movss	 DWORD PTR _fCrossDir$1$[ebp], xmm0
  00158	e8 00 00 00 00	 call	 ?Unlock@CCamera@@QAEXXZ	; CCamera::Unlock

; 42   : 		m_pyGraphic.SetPositionCamera(fxCenter, fyCenter, fzCenter, fDistance, fPitch, fRotation);

  0015d	f3 0f 10 45 fc	 movss	 xmm0, DWORD PTR _fRotation$1$[ebp]
  00162	8d 8f a0 07 00
	00		 lea	 ecx, DWORD PTR [edi+1952]
  00168	83 ec 18	 sub	 esp, 24			; 00000018H
  0016b	f3 0f 11 44 24
	14		 movss	 DWORD PTR [esp+20], xmm0
  00171	f3 0f 10 45 f8	 movss	 xmm0, DWORD PTR _fPitch$1$[ebp]
  00176	f3 0f 11 44 24
	10		 movss	 DWORD PTR [esp+16], xmm0
  0017c	f3 0f 10 45 f4	 movss	 xmm0, DWORD PTR _fDistance$1$[ebp]
  00181	f3 0f 11 44 24
	0c		 movss	 DWORD PTR [esp+12], xmm0
  00187	f3 0f 10 45 f0	 movss	 xmm0, DWORD PTR _fzCenter$1$[ebp]
  0018c	f3 0f 11 44 24
	08		 movss	 DWORD PTR [esp+8], xmm0
  00192	f3 0f 10 45 ec	 movss	 xmm0, DWORD PTR _fyCenter$1$[ebp]
  00197	f3 0f 11 44 24
	04		 movss	 DWORD PTR [esp+4], xmm0
  0019d	f3 0f 10 45 e8	 movss	 xmm0, DWORD PTR _fxCenter$1$[ebp]
  001a2	f3 0f 11 04 24	 movss	 DWORD PTR [esp], xmm0
  001a7	e8 00 00 00 00	 call	 ?SetPositionCamera@CGraphicBase@@QAEXMMMMMM@Z ; CGraphicBase::SetPositionCamera

; 43   : 		pMainCamera->MoveVertical(fUpDir);

  001ac	f3 0f 10 45 e4	 movss	 xmm0, DWORD PTR _fUpDir$1$[ebp]
  001b1	51		 push	 ecx
  001b2	8b cb		 mov	 ecx, ebx
  001b4	f3 0f 11 04 24	 movss	 DWORD PTR [esp], xmm0
  001b9	e8 00 00 00 00	 call	 ?MoveVertical@CCamera@@QAEXM@Z ; CCamera::MoveVertical

; 44   : 		pMainCamera->MoveFront(fViewDir);

  001be	f3 0f 10 45 e0	 movss	 xmm0, DWORD PTR _fViewDir$1$[ebp]
  001c3	51		 push	 ecx
  001c4	8b cb		 mov	 ecx, ebx
  001c6	f3 0f 11 04 24	 movss	 DWORD PTR [esp], xmm0
  001cb	e8 00 00 00 00	 call	 ?MoveFront@CCamera@@QAEXM@Z ; CCamera::MoveFront

; 45   : 		pMainCamera->MoveAlongCross(fCrossDir);

  001d0	f3 0f 10 45 dc	 movss	 xmm0, DWORD PTR _fCrossDir$1$[ebp]
  001d5	51		 push	 ecx
  001d6	f3 0f 11 04 24	 movss	 DWORD PTR [esp], xmm0
  001db	8b cb		 mov	 ecx, ebx
  001dd	e8 00 00 00 00	 call	 ?MoveAlongCross@CCamera@@QAEXM@Z ; CCamera::MoveAlongCross

; 46   : 		pMainCamera->Lock();

  001e2	8b cb		 mov	 ecx, ebx
  001e4	e8 00 00 00 00	 call	 ?Lock@CCamera@@QAEXXZ	; CCamera::Lock

; 47   : 	}

  001e9	e9 ef 00 00 00	 jmp	 $LN7@UpdateCame
$LN3@UpdateCame:

; 48   : 	else if (CAMERA_MODE_STAND == m_iCameraMode)

  001ee	83 f8 01	 cmp	 eax, 1
  001f1	75 6c		 jne	 SHORT $LN5@UpdateCame

; 49   : 	{
; 50   : 		float fDistance, fPitch, fRotation, fHeight;
; 51   : 		GetCamera(&fDistance, &fPitch, &fRotation, &fHeight);

  001f3	8d 45 e8	 lea	 eax, DWORD PTR _fHeight$8[ebp]
  001f6	50		 push	 eax
  001f7	8d 45 dc	 lea	 eax, DWORD PTR _fRotation$2[ebp]
  001fa	50		 push	 eax
  001fb	8d 45 e0	 lea	 eax, DWORD PTR _fPitch$4[ebp]
  001fe	50		 push	 eax
  001ff	8d 45 e4	 lea	 eax, DWORD PTR _fDistance$6[ebp]
  00202	50		 push	 eax
  00203	e8 00 00 00 00	 call	 ?GetCamera@CPythonApplication@@QAEXPAM000@Z ; CPythonApplication::GetCamera

; 52   : 		m_pyGraphic.SetPositionCamera(m_kEventCameraSetting.v3CenterPosition.x,

  00208	8b cb		 mov	 ecx, ebx
  0020a	e8 00 00 00 00	 call	 ?GetTargetHeight@CCamera@@QAEMXZ ; CCamera::GetTargetHeight
  0020f	f3 0f 10 45 dc	 movss	 xmm0, DWORD PTR _fRotation$2[ebp]
  00214	83 ec 18	 sub	 esp, 24			; 00000018H
  00217	d8 87 70 3d 02
	00		 fadd	 DWORD PTR [edi+146800]
  0021d	f3 0f 11 44 24
	14		 movss	 DWORD PTR [esp+20], xmm0
  00223	f3 0f 10 45 e0	 movss	 xmm0, DWORD PTR _fPitch$4[ebp]
  00228	f3 0f 11 44 24
	10		 movss	 DWORD PTR [esp+16], xmm0
  0022e	f3 0f 10 45 e4	 movss	 xmm0, DWORD PTR _fDistance$6[ebp]
  00233	f3 0f 11 44 24
	0c		 movss	 DWORD PTR [esp+12], xmm0
  00239	d9 5d e8	 fstp	 DWORD PTR tv301[ebp]
  0023c	f3 0f 10 45 e8	 movss	 xmm0, DWORD PTR tv301[ebp]
  00241	f3 0f 11 44 24
	08		 movss	 DWORD PTR [esp+8], xmm0
  00247	f3 0f 10 87 6c
	3d 02 00	 movss	 xmm0, DWORD PTR [edi+146796]
  0024f	f3 0f 11 44 24
	04		 movss	 DWORD PTR [esp+4], xmm0
  00255	f3 0f 10 87 68
	3d 02 00	 movss	 xmm0, DWORD PTR [edi+146792]

; 53   : 									  m_kEventCameraSetting.v3CenterPosition.y,
; 54   : 									  m_kEventCameraSetting.v3CenterPosition.z + pMainCamera->GetTargetHeight(),
; 55   : 									  fDistance, fPitch, fRotation);
; 56   : 	}

  0025d	eb 6e		 jmp	 SHORT $LN25@UpdateCame
$LN5@UpdateCame:

; 57   : 	else if (CAMERA_MODE_NORMAL == m_iCameraMode)

  0025f	85 c0		 test	 eax, eax
  00261	75 7a		 jne	 SHORT $LN7@UpdateCame

; 58   : 	{
; 59   : 		float fDistance, fPitch, fRotation, fHeight;
; 60   : 		GetCamera(&fDistance, &fPitch, &fRotation, &fHeight);

  00263	8d 45 e8	 lea	 eax, DWORD PTR _fHeight$7[ebp]
  00266	50		 push	 eax
  00267	8d 45 dc	 lea	 eax, DWORD PTR _fRotation$1[ebp]
  0026a	50		 push	 eax
  0026b	8d 45 e0	 lea	 eax, DWORD PTR _fPitch$3[ebp]
  0026e	50		 push	 eax
  0026f	8d 45 e4	 lea	 eax, DWORD PTR _fDistance$5[ebp]
  00272	50		 push	 eax
  00273	e8 00 00 00 00	 call	 ?GetCamera@CPythonApplication@@QAEXPAM000@Z ; CPythonApplication::GetCamera

; 61   : 		m_pyGraphic.SetPositionCamera(m_v3CenterPosition.x, m_v3CenterPosition.y, m_v3CenterPosition.z + pMainCamera->GetTargetHeight(), fDistance, fPitch, fRotation);

  00278	8b cb		 mov	 ecx, ebx
  0027a	e8 00 00 00 00	 call	 ?GetTargetHeight@CCamera@@QAEMXZ ; CCamera::GetTargetHeight
  0027f	f3 0f 10 45 dc	 movss	 xmm0, DWORD PTR _fRotation$1[ebp]
  00284	83 ec 18	 sub	 esp, 24			; 00000018H
  00287	d8 87 0c 3d 02
	00		 fadd	 DWORD PTR [edi+146700]
  0028d	f3 0f 11 44 24
	14		 movss	 DWORD PTR [esp+20], xmm0
  00293	f3 0f 10 45 e0	 movss	 xmm0, DWORD PTR _fPitch$3[ebp]
  00298	f3 0f 11 44 24
	10		 movss	 DWORD PTR [esp+16], xmm0
  0029e	f3 0f 10 45 e4	 movss	 xmm0, DWORD PTR _fDistance$5[ebp]
  002a3	f3 0f 11 44 24
	0c		 movss	 DWORD PTR [esp+12], xmm0
  002a9	d9 5d e8	 fstp	 DWORD PTR tv355[ebp]
  002ac	f3 0f 10 45 e8	 movss	 xmm0, DWORD PTR tv355[ebp]
  002b1	f3 0f 11 44 24
	08		 movss	 DWORD PTR [esp+8], xmm0
  002b7	f3 0f 10 87 08
	3d 02 00	 movss	 xmm0, DWORD PTR [edi+146696]
  002bf	f3 0f 11 44 24
	04		 movss	 DWORD PTR [esp+4], xmm0
  002c5	f3 0f 10 87 04
	3d 02 00	 movss	 xmm0, DWORD PTR [edi+146692]
$LN25@UpdateCame:

; 62   : 	}
; 63   : 
; 64   : 	if (0.0f != m_fRotationSpeed)

  002cd	8d 8f a0 07 00
	00		 lea	 ecx, DWORD PTR [edi+1952]
  002d3	f3 0f 11 04 24	 movss	 DWORD PTR [esp], xmm0
  002d8	e8 00 00 00 00	 call	 ?SetPositionCamera@CGraphicBase@@QAEXMMMMMM@Z ; CGraphicBase::SetPositionCamera
$LN7@UpdateCame:
  002dd	f3 0f 10 8f bc
	3d 02 00	 movss	 xmm1, DWORD PTR [edi+146876]
  002e5	0f 57 c0	 xorps	 xmm0, xmm0
  002e8	0f 2e c1	 ucomiss xmm0, xmm1
  002eb	9f		 lahf
  002ec	f6 c4 44	 test	 ah, 68			; 00000044H
  002ef	7b 10		 jnp	 SHORT $LN8@UpdateCame

; 65   : 		pMainCamera->Roll(m_fRotationSpeed);

  002f1	51		 push	 ecx
  002f2	8b cb		 mov	 ecx, ebx
  002f4	f3 0f 11 0c 24	 movss	 DWORD PTR [esp], xmm1
  002f9	e8 00 00 00 00	 call	 ?Roll@CCamera@@QAEXM@Z	; CCamera::Roll
  002fe	0f 57 c0	 xorps	 xmm0, xmm0
$LN8@UpdateCame:

; 66   : 	if (0.0f != m_fPitchSpeed)

  00301	f3 0f 10 8f c0
	3d 02 00	 movss	 xmm1, DWORD PTR [edi+146880]
  00309	0f 2e c1	 ucomiss xmm0, xmm1
  0030c	9f		 lahf
  0030d	f6 c4 44	 test	 ah, 68			; 00000044H
  00310	7b 10		 jnp	 SHORT $LN9@UpdateCame

; 67   : 		pMainCamera->Pitch(m_fPitchSpeed);

  00312	51		 push	 ecx
  00313	8b cb		 mov	 ecx, ebx
  00315	f3 0f 11 0c 24	 movss	 DWORD PTR [esp], xmm1
  0031a	e8 00 00 00 00	 call	 ?Pitch@CCamera@@QAEXM@Z	; CCamera::Pitch
  0031f	0f 57 c0	 xorps	 xmm0, xmm0
$LN9@UpdateCame:

; 68   : 	if (0.0f != m_fZoomSpeed)

  00322	f3 0f 10 8f c4
	3d 02 00	 movss	 xmm1, DWORD PTR [edi+146884]
  0032a	0f 2e c1	 ucomiss xmm0, xmm1
  0032d	9f		 lahf
  0032e	f6 c4 44	 test	 ah, 68			; 00000044H
  00331	7b 10		 jnp	 SHORT $LN10@UpdateCame

; 69   : 		pMainCamera->Zoom(m_fZoomSpeed);

  00333	51		 push	 ecx
  00334	8b cb		 mov	 ecx, ebx
  00336	f3 0f 11 0c 24	 movss	 DWORD PTR [esp], xmm1
  0033b	e8 00 00 00 00	 call	 ?Zoom@CCamera@@QAEXM@Z	; CCamera::Zoom
  00340	0f 57 c0	 xorps	 xmm0, xmm0
$LN10@UpdateCame:

; 70   : 
; 71   : 	if (0.0f !=m_kCmrSpd.m_fViewDir)

  00343	f3 0f 10 8f e4
	3d 02 00	 movss	 xmm1, DWORD PTR [edi+146916]
  0034b	0f 2e c1	 ucomiss xmm0, xmm1
  0034e	9f		 lahf
  0034f	f6 c4 44	 test	 ah, 68			; 00000044H
  00352	7b 10		 jnp	 SHORT $LN22@UpdateCame

; 72   : 		m_kCmrPos.m_fViewDir+=m_kCmrSpd.m_fViewDir;

  00354	f3 0f 58 8f d8
	3d 02 00	 addss	 xmm1, DWORD PTR [edi+146904]
  0035c	f3 0f 11 8f d8
	3d 02 00	 movss	 DWORD PTR [edi+146904], xmm1
$LN22@UpdateCame:

; 73   : 	if (0.0f !=m_kCmrSpd.m_fCrossDir)

  00364	f3 0f 10 8f e8
	3d 02 00	 movss	 xmm1, DWORD PTR [edi+146920]
  0036c	0f 2e c1	 ucomiss xmm0, xmm1
  0036f	9f		 lahf
  00370	f6 c4 44	 test	 ah, 68			; 00000044H
  00373	7b 10		 jnp	 SHORT $LN23@UpdateCame

; 74   : 		m_kCmrPos.m_fCrossDir+=m_kCmrSpd.m_fCrossDir;

  00375	f3 0f 58 8f dc
	3d 02 00	 addss	 xmm1, DWORD PTR [edi+146908]
  0037d	f3 0f 11 8f dc
	3d 02 00	 movss	 DWORD PTR [edi+146908], xmm1
$LN23@UpdateCame:

; 75   : 	if (0.0f !=m_kCmrSpd.m_fUpDir)

  00385	f3 0f 10 8f e0
	3d 02 00	 movss	 xmm1, DWORD PTR [edi+146912]
  0038d	0f 2e c1	 ucomiss xmm0, xmm1
  00390	9f		 lahf
  00391	f6 c4 44	 test	 ah, 68			; 00000044H
  00394	7b 10		 jnp	 SHORT $LN24@UpdateCame

; 76   : 		m_kCmrPos.m_fUpDir+=m_kCmrSpd.m_fUpDir;

  00396	f3 0f 58 8f d4
	3d 02 00	 addss	 xmm1, DWORD PTR [edi+146900]
  0039e	f3 0f 11 8f d4
	3d 02 00	 movss	 DWORD PTR [edi+146900], xmm1
$LN24@UpdateCame:

; 77   : 
; 78   : 	if (0.0f != m_kCmrPos.m_fViewDir)

  003a6	f3 0f 10 8f d8
	3d 02 00	 movss	 xmm1, DWORD PTR [edi+146904]
  003ae	0f 2e c1	 ucomiss xmm0, xmm1
  003b1	9f		 lahf
  003b2	f6 c4 44	 test	 ah, 68			; 00000044H
  003b5	7b 10		 jnp	 SHORT $LN14@UpdateCame

; 79   : 		pMainCamera->MoveFront(m_kCmrPos.m_fViewDir);

  003b7	51		 push	 ecx
  003b8	8b cb		 mov	 ecx, ebx
  003ba	f3 0f 11 0c 24	 movss	 DWORD PTR [esp], xmm1
  003bf	e8 00 00 00 00	 call	 ?MoveFront@CCamera@@QAEXM@Z ; CCamera::MoveFront
  003c4	0f 57 c0	 xorps	 xmm0, xmm0
$LN14@UpdateCame:

; 80   : 	if (0.0f != m_kCmrPos.m_fCrossDir)

  003c7	f3 0f 10 8f dc
	3d 02 00	 movss	 xmm1, DWORD PTR [edi+146908]
  003cf	0f 2e c1	 ucomiss xmm0, xmm1
  003d2	9f		 lahf
  003d3	f6 c4 44	 test	 ah, 68			; 00000044H
  003d6	7b 10		 jnp	 SHORT $LN15@UpdateCame

; 81   : 		pMainCamera->MoveAlongCross(m_kCmrPos.m_fCrossDir);

  003d8	51		 push	 ecx
  003d9	8b cb		 mov	 ecx, ebx
  003db	f3 0f 11 0c 24	 movss	 DWORD PTR [esp], xmm1
  003e0	e8 00 00 00 00	 call	 ?MoveAlongCross@CCamera@@QAEXM@Z ; CCamera::MoveAlongCross
  003e5	0f 57 c0	 xorps	 xmm0, xmm0
$LN15@UpdateCame:

; 82   : 	if (0.0f != m_kCmrPos.m_fUpDir)

  003e8	f3 0f 10 8f d4
	3d 02 00	 movss	 xmm1, DWORD PTR [edi+146900]
  003f0	0f 2e c1	 ucomiss xmm0, xmm1
  003f3	9f		 lahf
  003f4	f6 c4 44	 test	 ah, 68			; 00000044H
  003f7	7b 0d		 jnp	 SHORT $LN16@UpdateCame

; 83   : 		pMainCamera->MoveVertical(m_kCmrPos.m_fUpDir);

  003f9	51		 push	 ecx
  003fa	8b cb		 mov	 ecx, ebx
  003fc	f3 0f 11 0c 24	 movss	 DWORD PTR [esp], xmm1
  00401	e8 00 00 00 00	 call	 ?MoveVertical@CCamera@@QAEXM@Z ; CCamera::MoveVertical
$LN16@UpdateCame:

; 84   : 
; 85   : 	//////////////////////
; 86   : 
; 87   : 	if (pMainCamera->IsDraging())

  00406	8b cb		 mov	 ecx, ebx
  00408	e8 00 00 00 00	 call	 ?IsDraging@CCamera@@QAE_NXZ ; CCamera::IsDraging
  0040d	84 c0		 test	 al, al
  0040f	74 0e		 je	 SHORT $LN17@UpdateCame

; 88   : 		SkipRenderBuffering(3000);

  00411	8b 47 20	 mov	 eax, DWORD PTR [edi+32]
  00414	8d 4f 20	 lea	 ecx, DWORD PTR [edi+32]
  00417	68 b8 0b 00 00	 push	 3000			; 00000bb8H
  0041c	ff 50 10	 call	 DWORD PTR [eax+16]
$LN17@UpdateCame:

; 89   : 
; 90   : 	//////////////////////
; 91   : 	// Sound Setting
; 92   : 	const D3DXVECTOR3 & c_rv3CameraDirection = pMainCamera->GetView();
; 93   : 	const D3DXVECTOR3 & c_rv3CameraUp = pMainCamera->GetUp();
; 94   : 	m_SoundManager.SetPosition(m_v3CenterPosition.x, m_v3CenterPosition.y, m_v3CenterPosition.z);	// Listener - 캐릭터 위치

  0041f	f3 0f 10 87 0c
	3d 02 00	 movss	 xmm0, DWORD PTR [edi+146700]
  00427	8d 8f e8 00 00
	00		 lea	 ecx, DWORD PTR [edi+232]
  0042d	56		 push	 esi
  0042e	83 ec 0c	 sub	 esp, 12			; 0000000cH
  00431	f3 0f 11 44 24
	08		 movss	 DWORD PTR [esp+8], xmm0
  00437	f3 0f 10 87 08
	3d 02 00	 movss	 xmm0, DWORD PTR [edi+146696]
  0043f	f3 0f 11 44 24
	04		 movss	 DWORD PTR [esp+4], xmm0
  00445	f3 0f 10 87 04
	3d 02 00	 movss	 xmm0, DWORD PTR [edi+146692]
  0044d	f3 0f 11 04 24	 movss	 DWORD PTR [esp], xmm0
  00452	e8 00 00 00 00	 call	 ?SetPosition@CSoundManager@@QAEXMMM@Z ; CSoundManager::SetPosition

; 95   : 	m_SoundManager.SetDirection(c_rv3CameraDirection.x, c_rv3CameraDirection.y, c_rv3CameraDirection.z, c_rv3CameraUp.x, c_rv3CameraUp.y, c_rv3CameraUp.z);

  00457	f3 0f 10 43 50	 movss	 xmm0, DWORD PTR [ebx+80]
  0045c	8d 8f e8 00 00
	00		 lea	 ecx, DWORD PTR [edi+232]
  00462	83 ec 18	 sub	 esp, 24			; 00000018H
  00465	f3 0f 11 44 24
	14		 movss	 DWORD PTR [esp+20], xmm0
  0046b	f3 0f 10 43 4c	 movss	 xmm0, DWORD PTR [ebx+76]
  00470	f3 0f 11 44 24
	10		 movss	 DWORD PTR [esp+16], xmm0
  00476	f3 0f 10 43 48	 movss	 xmm0, DWORD PTR [ebx+72]
  0047b	f3 0f 11 44 24
	0c		 movss	 DWORD PTR [esp+12], xmm0
  00481	f3 0f 10 43 5c	 movss	 xmm0, DWORD PTR [ebx+92]
  00486	f3 0f 11 44 24
	08		 movss	 DWORD PTR [esp+8], xmm0
  0048c	f3 0f 10 43 58	 movss	 xmm0, DWORD PTR [ebx+88]
  00491	f3 0f 11 44 24
	04		 movss	 DWORD PTR [esp+4], xmm0
  00497	f3 0f 10 43 54	 movss	 xmm0, DWORD PTR [ebx+84]
  0049c	f3 0f 11 04 24	 movss	 DWORD PTR [esp], xmm0
  004a1	e8 00 00 00 00	 call	 ?SetDirection@CSoundManager@@QAEXMMMMMM@Z ; CSoundManager::SetDirection

; 96   : 	m_SoundManager.Update();

  004a6	8d 8f e8 00 00
	00		 lea	 ecx, DWORD PTR [edi+232]
  004ac	e8 00 00 00 00	 call	 ?Update@CSoundManager@@QAEXXZ ; CSoundManager::Update
  004b1	5e		 pop	 esi
$LN1@UpdateCame:

; 97   : 	//////////////////////
; 98   : }

  004b2	5f		 pop	 edi
  004b3	5b		 pop	 ebx
  004b4	8b e5		 mov	 esp, ebp
  004b6	5d		 pop	 ebp
  004b7	c3		 ret	 0
?__UpdateCamera@CPythonApplication@@IAEXXZ ENDP		; CPythonApplication::__UpdateCamera
_TEXT	ENDS
; Function compile flags: /Ogtp
; File E:\Metin2_server\SolWayneSF v6\ClientVS22\source\eterlib\Camera.h
;	COMDAT ?GetUp@CCamera@@QBEABUD3DXVECTOR3@@XZ
_TEXT	SEGMENT
?GetUp@CCamera@@QBEABUD3DXVECTOR3@@XZ PROC		; CCamera::GetUp, COMDAT
; _this$ = ecx

; 170  : 		const D3DXVECTOR3 & GetUp() const		{ return m_v3Up; }

  00000	8d 41 48	 lea	 eax, DWORD PTR [ecx+72]
  00003	c3		 ret	 0
?GetUp@CCamera@@QBEABUD3DXVECTOR3@@XZ ENDP		; CCamera::GetUp
_TEXT	ENDS
; Function compile flags: /Ogtp
; File E:\Metin2_server\SolWayneSF v6\ClientVS22\source\eterlib\Camera.h
;	COMDAT ?GetView@CCamera@@QBEABUD3DXVECTOR3@@XZ
_TEXT	SEGMENT
?GetView@CCamera@@QBEABUD3DXVECTOR3@@XZ PROC		; CCamera::GetView, COMDAT
; _this$ = ecx

; 171  : 		const D3DXVECTOR3 & GetView() const		{ return m_v3View; }

  00000	8d 41 54	 lea	 eax, DWORD PTR [ecx+84]
  00003	c3		 ret	 0
?GetView@CCamera@@QBEABUD3DXVECTOR3@@XZ ENDP		; CCamera::GetView
_TEXT	ENDS
; Function compile flags: /Ogtp
; File E:\Metin2_server\SolWayneSF v6\ClientVS22\source\eterlib\Camera.h
;	COMDAT ?GetPitch@CCamera@@QBEMXZ
_TEXT	SEGMENT
?GetPitch@CCamera@@QBEMXZ PROC				; CCamera::GetPitch, COMDAT
; _this$ = ecx

; 184  : 		float GetPitch() const { return m_fPitch; }

  00000	f3 0f 10 81 2c
	01 00 00	 movss	 xmm0, DWORD PTR [ecx+300]
  00008	c3		 ret	 0
?GetPitch@CCamera@@QBEMXZ ENDP				; CCamera::GetPitch
_TEXT	ENDS
; Function compile flags: /Ogtp
; File E:\Metin2_server\SolWayneSF v6\ClientVS22\source\eterlib\Camera.h
;	COMDAT ?GetRoll@CCamera@@QBEMXZ
_TEXT	SEGMENT
?GetRoll@CCamera@@QBEMXZ PROC				; CCamera::GetRoll, COMDAT
; _this$ = ecx

; 185  : 		float GetRoll() const { return m_fRoll; }

  00000	f3 0f 10 81 30
	01 00 00	 movss	 xmm0, DWORD PTR [ecx+304]
  00008	c3		 ret	 0
?GetRoll@CCamera@@QBEMXZ ENDP				; CCamera::GetRoll
_TEXT	ENDS
; Function compile flags: /Ogtp
; File E:\Metin2_server\SolWayneSF v6\ClientVS22\source\UserInterface\PythonApplicationCamera.cpp
;	COMDAT ?BlendValueByLinear@@YAMMMMM@Z
_TEXT	SEGMENT
?BlendValueByLinear@@YAMMMMM@Z PROC			; BlendValueByLinear, COMDAT
; _fElapsedTime$ = xmm0s
; _fDuration$ = xmm1s
; _fBeginValue$ = xmm2s
; _fEndValue$ = xmm3s

; 9    : 	if (fElapsedTime >= fDuration)

  00000	0f 2f c1	 comiss	 xmm0, xmm1
  00003	72 04		 jb	 SHORT $LN2@BlendValue

; 10   : 		return fEndValue;

  00005	0f 28 c3	 movaps	 xmm0, xmm3

; 13   : }

  00008	c3		 ret	 0
$LN2@BlendValue:

; 11   : 
; 12   : 	return (fEndValue - fBeginValue) * (fElapsedTime / fDuration) + fBeginValue;

  00009	f3 0f 5e c1	 divss	 xmm0, xmm1
  0000d	f3 0f 5c da	 subss	 xmm3, xmm2
  00011	f3 0f 59 c3	 mulss	 xmm0, xmm3
  00015	f3 0f 58 c2	 addss	 xmm0, xmm2

; 13   : }

  00019	c3		 ret	 0
?BlendValueByLinear@@YAMMMMM@Z ENDP			; BlendValueByLinear
_TEXT	ENDS
; Function compile flags: /Ogtp
; File E:\Metin2_server\SolWayneSF v6\ClientVS22\source\UserInterface\PythonApplicationCamera.cpp
;	COMDAT ?SetViewDirCameraSpeed@CPythonApplication@@QAEXM@Z
_TEXT	SEGMENT
_fSpeed$1$ = -4						; size = 4
?SetViewDirCameraSpeed@CPythonApplication@@QAEXM@Z PROC	; CPythonApplication::SetViewDirCameraSpeed, COMDAT
; _this$ = ecx
; _fSpeed$ = xmm1s

; 101  : {

  00000	55		 push	 ebp
  00001	8b ec		 mov	 ebp, esp
  00003	51		 push	 ecx
  00004	56		 push	 esi
  00005	f3 0f 11 4d fc	 movss	 DWORD PTR _fSpeed$1$[ebp], xmm1
  0000a	8b f1		 mov	 esi, ecx

; 102  : 	if (IsLockCurrentCamera())

  0000c	e8 00 00 00 00	 call	 ?IsLockCurrentCamera@CPythonApplication@@QAE_NXZ ; CPythonApplication::IsLockCurrentCamera
  00011	84 c0		 test	 al, al
  00013	75 0d		 jne	 SHORT $LN1@SetViewDir

; 103  : 		return;
; 104  : 
; 105  : 	m_kCmrSpd.m_fViewDir=fSpeed;

  00015	f3 0f 10 45 fc	 movss	 xmm0, DWORD PTR _fSpeed$1$[ebp]
  0001a	f3 0f 11 86 e4
	3d 02 00	 movss	 DWORD PTR [esi+146916], xmm0
$LN1@SetViewDir:
  00022	5e		 pop	 esi

; 106  : }

  00023	8b e5		 mov	 esp, ebp
  00025	5d		 pop	 ebp
  00026	c3		 ret	 0
?SetViewDirCameraSpeed@CPythonApplication@@QAEXM@Z ENDP	; CPythonApplication::SetViewDirCameraSpeed
_TEXT	ENDS
; Function compile flags: /Ogtp
; File E:\Metin2_server\SolWayneSF v6\ClientVS22\source\UserInterface\PythonApplicationCamera.cpp
;	COMDAT ?SetCrossDirCameraSpeed@CPythonApplication@@QAEXM@Z
_TEXT	SEGMENT
_fSpeed$1$ = -4						; size = 4
?SetCrossDirCameraSpeed@CPythonApplication@@QAEXM@Z PROC ; CPythonApplication::SetCrossDirCameraSpeed, COMDAT
; _this$ = ecx
; _fSpeed$ = xmm1s

; 109  : {

  00000	55		 push	 ebp
  00001	8b ec		 mov	 ebp, esp
  00003	51		 push	 ecx
  00004	56		 push	 esi
  00005	f3 0f 11 4d fc	 movss	 DWORD PTR _fSpeed$1$[ebp], xmm1
  0000a	8b f1		 mov	 esi, ecx

; 110  : 	if (IsLockCurrentCamera())

  0000c	e8 00 00 00 00	 call	 ?IsLockCurrentCamera@CPythonApplication@@QAE_NXZ ; CPythonApplication::IsLockCurrentCamera
  00011	84 c0		 test	 al, al
  00013	75 0d		 jne	 SHORT $LN1@SetCrossDi

; 111  : 		return;
; 112  : 
; 113  : 	m_kCmrSpd.m_fCrossDir=fSpeed;

  00015	f3 0f 10 45 fc	 movss	 xmm0, DWORD PTR _fSpeed$1$[ebp]
  0001a	f3 0f 11 86 e8
	3d 02 00	 movss	 DWORD PTR [esi+146920], xmm0
$LN1@SetCrossDi:
  00022	5e		 pop	 esi

; 114  : }

  00023	8b e5		 mov	 esp, ebp
  00025	5d		 pop	 ebp
  00026	c3		 ret	 0
?SetCrossDirCameraSpeed@CPythonApplication@@QAEXM@Z ENDP ; CPythonApplication::SetCrossDirCameraSpeed
_TEXT	ENDS
; Function compile flags: /Ogtp
; File E:\Metin2_server\SolWayneSF v6\ClientVS22\source\UserInterface\PythonApplicationCamera.cpp
;	COMDAT ?SetUpDirCameraSpeed@CPythonApplication@@QAEXM@Z
_TEXT	SEGMENT
_fSpeed$1$ = -4						; size = 4
?SetUpDirCameraSpeed@CPythonApplication@@QAEXM@Z PROC	; CPythonApplication::SetUpDirCameraSpeed, COMDAT
; _this$ = ecx
; _fSpeed$ = xmm1s

; 117  : {

  00000	55		 push	 ebp
  00001	8b ec		 mov	 ebp, esp
  00003	51		 push	 ecx
  00004	56		 push	 esi
  00005	f3 0f 11 4d fc	 movss	 DWORD PTR _fSpeed$1$[ebp], xmm1
  0000a	8b f1		 mov	 esi, ecx

; 118  : 	if (IsLockCurrentCamera())

  0000c	e8 00 00 00 00	 call	 ?IsLockCurrentCamera@CPythonApplication@@QAE_NXZ ; CPythonApplication::IsLockCurrentCamera
  00011	84 c0		 test	 al, al
  00013	75 0d		 jne	 SHORT $LN1@SetUpDirCa

; 119  : 		return;
; 120  : 
; 121  : 	m_kCmrSpd.m_fUpDir=fSpeed;

  00015	f3 0f 10 45 fc	 movss	 xmm0, DWORD PTR _fSpeed$1$[ebp]
  0001a	f3 0f 11 86 e0
	3d 02 00	 movss	 DWORD PTR [esi+146912], xmm0
$LN1@SetUpDirCa:
  00022	5e		 pop	 esi

; 122  : }

  00023	8b e5		 mov	 esp, ebp
  00025	5d		 pop	 ebp
  00026	c3		 ret	 0
?SetUpDirCameraSpeed@CPythonApplication@@QAEXM@Z ENDP	; CPythonApplication::SetUpDirCameraSpeed
_TEXT	ENDS
; Function compile flags: /Ogtp
; File E:\Metin2_server\SolWayneSF v6\ClientVS22\source\UserInterface\PythonApplicationCamera.cpp
;	COMDAT ?SetCamera@CPythonApplication@@QAEXMMMM@Z
_TEXT	SEGMENT
_v3Target$ = -24					; size = 12
_Distance$1$ = -12					; size = 4
_Pitch$1$ = -8						; size = 4
_Rotation$1$ = -4					; size = 4
_fDestinationHeight$ = 8				; size = 4
?SetCamera@CPythonApplication@@QAEXMMMM@Z PROC		; CPythonApplication::SetCamera, COMDAT
; _this$ = ecx
; _Distance$ = xmm1s
; _Pitch$ = xmm2s
; _Rotation$ = xmm3s

; 125  : {

  00000	55		 push	 ebp
  00001	8b ec		 mov	 ebp, esp
  00003	83 ec 18	 sub	 esp, 24			; 00000018H
  00006	56		 push	 esi
  00007	f3 0f 11 5d fc	 movss	 DWORD PTR _Rotation$1$[ebp], xmm3
  0000c	8b f1		 mov	 esi, ecx
  0000e	f3 0f 11 55 f8	 movss	 DWORD PTR _Pitch$1$[ebp], xmm2
  00013	f3 0f 11 4d f4	 movss	 DWORD PTR _Distance$1$[ebp], xmm1

; 126  : 	if (IsLockCurrentCamera())

  00018	e8 00 00 00 00	 call	 ?IsLockCurrentCamera@CPythonApplication@@QAE_NXZ ; CPythonApplication::IsLockCurrentCamera
  0001d	84 c0		 test	 al, al
  0001f	0f 85 93 00 00
	00		 jne	 $LN4@SetCamera

; 127  : 		return;
; 128  : 
; 129  : 	CCamera * pCurrentCamera = CCameraManager::Instance().GetCurrentCamera();

  00025	8b 0d 00 00 00
	00		 mov	 ecx, DWORD PTR ?ms_singleton@?$CSingleton@VCCameraManager@@@@0PAVCCameraManager@@A ; CSingleton<CCameraManager>::ms_singleton
  0002b	e8 00 00 00 00	 call	 ?GetCurrentCamera@CCameraManager@@QAEPAVCCamera@@XZ ; CCameraManager::GetCurrentCamera

; 130  : 	if (!pCurrentCamera)

  00030	85 c0		 test	 eax, eax
  00032	0f 84 80 00 00
	00		 je	 $LN4@SetCamera

; 131  : 		return;
; 132  : 
; 133  : 	D3DXVECTOR3 v3Target = pCurrentCamera->GetTarget();

  00038	f3 0f 7e 40 3c	 movq	 xmm0, QWORD PTR [eax+60]

; 134  : 	m_pyGraphic.SetPositionCamera(v3Target.x, v3Target.y, v3Target.z, Distance, Pitch, Rotation);

  0003d	8d 8e a0 07 00
	00		 lea	 ecx, DWORD PTR [esi+1952]
  00043	8b 40 44	 mov	 eax, DWORD PTR [eax+68]
  00046	83 ec 18	 sub	 esp, 24			; 00000018H
  00049	66 0f d6 45 e8	 movq	 QWORD PTR _v3Target$[ebp], xmm0
  0004e	f3 0f 10 45 fc	 movss	 xmm0, DWORD PTR _Rotation$1$[ebp]
  00053	89 45 f0	 mov	 DWORD PTR _v3Target$[ebp+8], eax
  00056	f3 0f 11 44 24
	14		 movss	 DWORD PTR [esp+20], xmm0
  0005c	f3 0f 10 45 f8	 movss	 xmm0, DWORD PTR _Pitch$1$[ebp]
  00061	f3 0f 11 44 24
	10		 movss	 DWORD PTR [esp+16], xmm0
  00067	f3 0f 10 45 f4	 movss	 xmm0, DWORD PTR _Distance$1$[ebp]
  0006c	f3 0f 11 44 24
	0c		 movss	 DWORD PTR [esp+12], xmm0
  00072	f3 0f 10 45 f0	 movss	 xmm0, DWORD PTR _v3Target$[ebp+8]
  00077	f3 0f 11 44 24
	08		 movss	 DWORD PTR [esp+8], xmm0
  0007d	f3 0f 10 45 ec	 movss	 xmm0, DWORD PTR _v3Target$[ebp+4]
  00082	f3 0f 11 44 24
	04		 movss	 DWORD PTR [esp+4], xmm0
  00088	f3 0f 10 45 e8	 movss	 xmm0, DWORD PTR _v3Target$[ebp]
  0008d	f3 0f 11 04 24	 movss	 DWORD PTR [esp], xmm0
  00092	e8 00 00 00 00	 call	 ?SetPositionCamera@CGraphicBase@@QAEXMMMMMM@Z ; CGraphicBase::SetPositionCamera

; 135  : 
; 136  : 	CCamera * pMainCamera = CCameraManager::Instance().GetCurrentCamera();

  00097	8b 0d 00 00 00
	00		 mov	 ecx, DWORD PTR ?ms_singleton@?$CSingleton@VCCameraManager@@@@0PAVCCameraManager@@A ; CSingleton<CCameraManager>::ms_singleton
  0009d	e8 00 00 00 00	 call	 ?GetCurrentCamera@CCameraManager@@QAEPAVCCamera@@XZ ; CCameraManager::GetCurrentCamera

; 137  : 	if (pMainCamera)

  000a2	85 c0		 test	 eax, eax
  000a4	74 12		 je	 SHORT $LN4@SetCamera

; 138  : 		pMainCamera->SetTargetHeight(fDestinationHeight);

  000a6	f3 0f 10 45 08	 movss	 xmm0, DWORD PTR _fDestinationHeight$[ebp]
  000ab	51		 push	 ecx
  000ac	8b c8		 mov	 ecx, eax
  000ae	f3 0f 11 04 24	 movss	 DWORD PTR [esp], xmm0
  000b3	e8 00 00 00 00	 call	 ?SetTargetHeight@CCamera@@QAEXM@Z ; CCamera::SetTargetHeight
$LN4@SetCamera:
  000b8	5e		 pop	 esi

; 139  : }

  000b9	8b e5		 mov	 esp, ebp
  000bb	5d		 pop	 ebp
  000bc	c2 04 00	 ret	 4
?SetCamera@CPythonApplication@@QAEXMMMM@Z ENDP		; CPythonApplication::SetCamera
_TEXT	ENDS
; Function compile flags: /Ogtp
; File E:\Metin2_server\SolWayneSF v6\ClientVS22\source\UserInterface\PythonApplicationCamera.cpp
;	COMDAT ?GetCamera@CPythonApplication@@QAEXPAM000@Z
_TEXT	SEGMENT
_Distance$ = 8						; size = 4
_Pitch$ = 12						; size = 4
_Rotation$ = 16						; size = 4
_DestinationHeight$ = 20				; size = 4
?GetCamera@CPythonApplication@@QAEXPAM000@Z PROC	; CPythonApplication::GetCamera, COMDAT
; _this$dead$ = ecx

; 142  : {

  00000	55		 push	 ebp
  00001	8b ec		 mov	 ebp, esp

; 143  : 	CCamera * pCurrentCamera = CCameraManager::Instance().GetCurrentCamera();

  00003	8b 0d 00 00 00
	00		 mov	 ecx, DWORD PTR ?ms_singleton@?$CSingleton@VCCameraManager@@@@0PAVCCameraManager@@A ; CSingleton<CCameraManager>::ms_singleton
  00009	e8 00 00 00 00	 call	 ?GetCurrentCamera@CCameraManager@@QAEPAVCCamera@@XZ ; CCameraManager::GetCurrentCamera

; 144  : 	*Distance			= pCurrentCamera->GetDistance();

  0000e	8b 4d 08	 mov	 ecx, DWORD PTR _Distance$[ebp]
  00011	8b 90 34 01 00
	00		 mov	 edx, DWORD PTR [eax+308]
  00017	89 11		 mov	 DWORD PTR [ecx], edx

; 145  : 	*Pitch				= pCurrentCamera->GetPitch();

  00019	8b 4d 0c	 mov	 ecx, DWORD PTR _Pitch$[ebp]
  0001c	8b 90 2c 01 00
	00		 mov	 edx, DWORD PTR [eax+300]
  00022	89 11		 mov	 DWORD PTR [ecx], edx

; 146  : 	*Rotation			= pCurrentCamera->GetRoll();

  00024	8b 4d 10	 mov	 ecx, DWORD PTR _Rotation$[ebp]
  00027	8b 90 30 01 00
	00		 mov	 edx, DWORD PTR [eax+304]
  0002d	89 11		 mov	 DWORD PTR [ecx], edx

; 147  : 	*DestinationHeight	= pCurrentCamera->GetTarget().z;

  0002f	8b 48 44	 mov	 ecx, DWORD PTR [eax+68]
  00032	8b 45 14	 mov	 eax, DWORD PTR _DestinationHeight$[ebp]
  00035	89 08		 mov	 DWORD PTR [eax], ecx

; 148  : }

  00037	5d		 pop	 ebp
  00038	c2 10 00	 ret	 16			; 00000010H
?GetCamera@CPythonApplication@@QAEXPAM000@Z ENDP	; CPythonApplication::GetCamera
_TEXT	ENDS
; Function compile flags: /Ogtp
; File E:\Metin2_server\SolWayneSF v6\ClientVS22\source\UserInterface\PythonApplicationCamera.cpp
;	COMDAT ?RotateCamera@CPythonApplication@@QAEXH@Z
_TEXT	SEGMENT
_iDirection$ = 8					; size = 4
?RotateCamera@CPythonApplication@@QAEXH@Z PROC		; CPythonApplication::RotateCamera, COMDAT
; _this$ = ecx

; 151  : {

  00000	55		 push	 ebp
  00001	8b ec		 mov	 ebp, esp
  00003	56		 push	 esi
  00004	8b f1		 mov	 esi, ecx

; 152  : 	if (IsLockCurrentCamera())

  00006	e8 00 00 00 00	 call	 ?IsLockCurrentCamera@CPythonApplication@@QAE_NXZ ; CPythonApplication::IsLockCurrentCamera
  0000b	84 c0		 test	 al, al
  0000d	75 18		 jne	 SHORT $LN1@RotateCame

; 153  : 		return;
; 154  : 
; 155  : 	float fDegree = m_fCameraRotateSpeed * float(iDirection);

  0000f	66 0f 6e 45 08	 movd	 xmm0, DWORD PTR _iDirection$[ebp]
  00014	0f 5b c0	 cvtdq2ps xmm0, xmm0
  00017	f3 0f 59 86 c8
	3d 02 00	 mulss	 xmm0, DWORD PTR [esi+146888]

; 156  : 	m_fRotationSpeed = fDegree;

  0001f	f3 0f 11 86 bc
	3d 02 00	 movss	 DWORD PTR [esi+146876], xmm0
$LN1@RotateCame:
  00027	5e		 pop	 esi

; 157  : }

  00028	5d		 pop	 ebp
  00029	c2 04 00	 ret	 4
?RotateCamera@CPythonApplication@@QAEXH@Z ENDP		; CPythonApplication::RotateCamera
_TEXT	ENDS
; Function compile flags: /Ogtp
; File E:\Metin2_server\SolWayneSF v6\ClientVS22\source\UserInterface\PythonApplicationCamera.cpp
;	COMDAT ?PitchCamera@CPythonApplication@@QAEXH@Z
_TEXT	SEGMENT
_iDirection$ = 8					; size = 4
?PitchCamera@CPythonApplication@@QAEXH@Z PROC		; CPythonApplication::PitchCamera, COMDAT
; _this$ = ecx

; 160  : {

  00000	55		 push	 ebp
  00001	8b ec		 mov	 ebp, esp
  00003	56		 push	 esi
  00004	8b f1		 mov	 esi, ecx

; 161  : 	if (IsLockCurrentCamera())

  00006	e8 00 00 00 00	 call	 ?IsLockCurrentCamera@CPythonApplication@@QAE_NXZ ; CPythonApplication::IsLockCurrentCamera
  0000b	84 c0		 test	 al, al
  0000d	75 18		 jne	 SHORT $LN1@PitchCamer

; 162  : 		return;
; 163  : 
; 164  : 	float fDegree = m_fCameraPitchSpeed * float(iDirection);

  0000f	66 0f 6e 45 08	 movd	 xmm0, DWORD PTR _iDirection$[ebp]
  00014	0f 5b c0	 cvtdq2ps xmm0, xmm0
  00017	f3 0f 59 86 cc
	3d 02 00	 mulss	 xmm0, DWORD PTR [esi+146892]

; 165  : 	m_fPitchSpeed = fDegree;

  0001f	f3 0f 11 86 c0
	3d 02 00	 movss	 DWORD PTR [esi+146880], xmm0
$LN1@PitchCamer:
  00027	5e		 pop	 esi

; 166  : }

  00028	5d		 pop	 ebp
  00029	c2 04 00	 ret	 4
?PitchCamera@CPythonApplication@@QAEXH@Z ENDP		; CPythonApplication::PitchCamera
_TEXT	ENDS
; Function compile flags: /Ogtp
; File E:\Metin2_server\SolWayneSF v6\ClientVS22\source\UserInterface\PythonApplicationCamera.cpp
;	COMDAT ?ZoomCamera@CPythonApplication@@QAEXH@Z
_TEXT	SEGMENT
_iDirection$ = 8					; size = 4
?ZoomCamera@CPythonApplication@@QAEXH@Z PROC		; CPythonApplication::ZoomCamera, COMDAT
; _this$ = ecx

; 169  : {

  00000	55		 push	 ebp
  00001	8b ec		 mov	 ebp, esp
  00003	56		 push	 esi
  00004	8b f1		 mov	 esi, ecx

; 170  : 	if (IsLockCurrentCamera())

  00006	e8 00 00 00 00	 call	 ?IsLockCurrentCamera@CPythonApplication@@QAE_NXZ ; CPythonApplication::IsLockCurrentCamera
  0000b	84 c0		 test	 al, al
  0000d	75 20		 jne	 SHORT $LN1@ZoomCamera

; 171  : 		return;
; 172  : 
; 173  : 	float fRatio = 1.0f + m_fCameraZoomSpeed * float(iDirection);

  0000f	66 0f 6e 45 08	 movd	 xmm0, DWORD PTR _iDirection$[ebp]
  00014	0f 5b c0	 cvtdq2ps xmm0, xmm0
  00017	f3 0f 59 86 d0
	3d 02 00	 mulss	 xmm0, DWORD PTR [esi+146896]
  0001f	f3 0f 58 05 00
	00 00 00	 addss	 xmm0, DWORD PTR __real@3f800000

; 174  : 	m_fZoomSpeed = fRatio;

  00027	f3 0f 11 86 c4
	3d 02 00	 movss	 DWORD PTR [esi+146884], xmm0
$LN1@ZoomCamera:
  0002f	5e		 pop	 esi

; 175  : }

  00030	5d		 pop	 ebp
  00031	c2 04 00	 ret	 4
?ZoomCamera@CPythonApplication@@QAEXH@Z ENDP		; CPythonApplication::ZoomCamera
_TEXT	ENDS
; Function compile flags: /Ogtp
; File E:\Metin2_server\SolWayneSF v6\ClientVS22\source\UserInterface\PythonApplicationCamera.cpp
;	COMDAT ?MovieRotateCamera@CPythonApplication@@QAEXH@Z
_TEXT	SEGMENT
_fDegree$1$ = 8						; size = 4
_iDirection$ = 8					; size = 4
?MovieRotateCamera@CPythonApplication@@QAEXH@Z PROC	; CPythonApplication::MovieRotateCamera, COMDAT
; _this$ = ecx

; 178  : {

  00000	55		 push	 ebp
  00001	8b ec		 mov	 ebp, esp
  00003	56		 push	 esi
  00004	8b f1		 mov	 esi, ecx

; 179  : 	if (IsLockCurrentCamera())

  00006	e8 00 00 00 00	 call	 ?IsLockCurrentCamera@CPythonApplication@@QAE_NXZ ; CPythonApplication::IsLockCurrentCamera
  0000b	84 c0		 test	 al, al
  0000d	75 5a		 jne	 SHORT $LN1@MovieRotat

; 180  : 		return;
; 181  : 
; 182  : 	float fDegree = m_fCameraRotateSpeed * float(iDirection);
; 183  : 	if (m_isSpecialCameraMode)

  0000f	83 be ec 3d 02
	00 00		 cmp	 DWORD PTR [esi+146924], 0
  00016	66 0f 6e 45 08	 movd	 xmm0, DWORD PTR _iDirection$[ebp]
  0001b	0f 5b c0	 cvtdq2ps xmm0, xmm0
  0001e	f3 0f 59 86 c8
	3d 02 00	 mulss	 xmm0, DWORD PTR [esi+146888]
  00026	f3 0f 11 45 08	 movss	 DWORD PTR _fDegree$1$[ebp], xmm0
  0002b	74 34		 je	 SHORT $LN4@MovieRotat

; 184  : 	{
; 185  : 		if (GetKeyState(VK_SCROLL) & 1)

  0002d	68 91 00 00 00	 push	 145			; 00000091H
  00032	ff 15 00 00 00
	00		 call	 DWORD PTR __imp__GetKeyState@4
  00038	a8 01		 test	 al, 1
  0003a	74 20		 je	 SHORT $LN6@MovieRotat

; 186  : 		{
; 187  : 			SetCrossDirCameraSpeed(-fDegree * 6.0f);

  0003c	f3 0f 10 4d 08	 movss	 xmm1, DWORD PTR _fDegree$1$[ebp]
  00041	8b ce		 mov	 ecx, esi
  00043	0f 57 0d 00 00
	00 00		 xorps	 xmm1, DWORD PTR __xmm@80000000800000008000000080000000
  0004a	f3 0f 59 0d 00
	00 00 00	 mulss	 xmm1, DWORD PTR __real@40c00000
  00052	e8 00 00 00 00	 call	 ?SetCrossDirCameraSpeed@CPythonApplication@@QAEXM@Z ; CPythonApplication::SetCrossDirCameraSpeed
  00057	5e		 pop	 esi

; 192  : }

  00058	5d		 pop	 ebp
  00059	c2 04 00	 ret	 4
$LN6@MovieRotat:

; 184  : 	{
; 185  : 		if (GetKeyState(VK_SCROLL) & 1)

  0005c	f3 0f 10 45 08	 movss	 xmm0, DWORD PTR _fDegree$1$[ebp]
$LN4@MovieRotat:

; 188  : 			return;
; 189  : 		}
; 190  : 	}
; 191  : 	m_fRotationSpeed = fDegree;

  00061	f3 0f 11 86 bc
	3d 02 00	 movss	 DWORD PTR [esi+146876], xmm0
$LN1@MovieRotat:
  00069	5e		 pop	 esi

; 192  : }

  0006a	5d		 pop	 ebp
  0006b	c2 04 00	 ret	 4
?MovieRotateCamera@CPythonApplication@@QAEXH@Z ENDP	; CPythonApplication::MovieRotateCamera
_TEXT	ENDS
; Function compile flags: /Ogtp
; File E:\Metin2_server\SolWayneSF v6\ClientVS22\source\UserInterface\PythonApplicationCamera.cpp
;	COMDAT ?MoviePitchCamera@CPythonApplication@@QAEXH@Z
_TEXT	SEGMENT
_fDegree$1$ = 8						; size = 4
_iDirection$ = 8					; size = 4
?MoviePitchCamera@CPythonApplication@@QAEXH@Z PROC	; CPythonApplication::MoviePitchCamera, COMDAT
; _this$ = ecx

; 195  : {

  00000	55		 push	 ebp
  00001	8b ec		 mov	 ebp, esp
  00003	56		 push	 esi
  00004	8b f1		 mov	 esi, ecx

; 196  : 	if (IsLockCurrentCamera())

  00006	e8 00 00 00 00	 call	 ?IsLockCurrentCamera@CPythonApplication@@QAE_NXZ ; CPythonApplication::IsLockCurrentCamera
  0000b	84 c0		 test	 al, al
  0000d	75 5a		 jne	 SHORT $LN1@MoviePitch

; 197  : 		return;
; 198  : 
; 199  : 	float fDegree = m_fCameraPitchSpeed * float(iDirection);
; 200  : 	if (m_isSpecialCameraMode)

  0000f	83 be ec 3d 02
	00 00		 cmp	 DWORD PTR [esi+146924], 0
  00016	66 0f 6e 45 08	 movd	 xmm0, DWORD PTR _iDirection$[ebp]
  0001b	0f 5b c0	 cvtdq2ps xmm0, xmm0
  0001e	f3 0f 59 86 cc
	3d 02 00	 mulss	 xmm0, DWORD PTR [esi+146892]
  00026	f3 0f 11 45 08	 movss	 DWORD PTR _fDegree$1$[ebp], xmm0
  0002b	74 34		 je	 SHORT $LN4@MoviePitch

; 201  : 	{
; 202  : 		if (GetKeyState(VK_SCROLL) & 1)

  0002d	68 91 00 00 00	 push	 145			; 00000091H
  00032	ff 15 00 00 00
	00		 call	 DWORD PTR __imp__GetKeyState@4
  00038	a8 01		 test	 al, 1
  0003a	74 20		 je	 SHORT $LN6@MoviePitch

; 203  : 		{
; 204  : 			SetViewDirCameraSpeed(-fDegree * 6.0f);

  0003c	f3 0f 10 4d 08	 movss	 xmm1, DWORD PTR _fDegree$1$[ebp]
  00041	8b ce		 mov	 ecx, esi
  00043	0f 57 0d 00 00
	00 00		 xorps	 xmm1, DWORD PTR __xmm@80000000800000008000000080000000
  0004a	f3 0f 59 0d 00
	00 00 00	 mulss	 xmm1, DWORD PTR __real@40c00000
  00052	e8 00 00 00 00	 call	 ?SetViewDirCameraSpeed@CPythonApplication@@QAEXM@Z ; CPythonApplication::SetViewDirCameraSpeed
  00057	5e		 pop	 esi

; 209  : }

  00058	5d		 pop	 ebp
  00059	c2 04 00	 ret	 4
$LN6@MoviePitch:

; 201  : 	{
; 202  : 		if (GetKeyState(VK_SCROLL) & 1)

  0005c	f3 0f 10 45 08	 movss	 xmm0, DWORD PTR _fDegree$1$[ebp]
$LN4@MoviePitch:

; 205  : 			return;
; 206  : 		}
; 207  : 	}
; 208  : 	m_fPitchSpeed = fDegree;

  00061	f3 0f 11 86 c0
	3d 02 00	 movss	 DWORD PTR [esi+146880], xmm0
$LN1@MoviePitch:
  00069	5e		 pop	 esi

; 209  : }

  0006a	5d		 pop	 ebp
  0006b	c2 04 00	 ret	 4
?MoviePitchCamera@CPythonApplication@@QAEXH@Z ENDP	; CPythonApplication::MoviePitchCamera
_TEXT	ENDS
; Function compile flags: /Ogtp
; File E:\Metin2_server\SolWayneSF v6\ClientVS22\source\UserInterface\PythonApplicationCamera.cpp
;	COMDAT ?MovieZoomCamera@CPythonApplication@@QAEXH@Z
_TEXT	SEGMENT
_fRatio$1$ = 8						; size = 4
_iDirection$ = 8					; size = 4
?MovieZoomCamera@CPythonApplication@@QAEXH@Z PROC	; CPythonApplication::MovieZoomCamera, COMDAT
; _this$ = ecx

; 212  : {

  00000	55		 push	 ebp
  00001	8b ec		 mov	 ebp, esp
  00003	56		 push	 esi
  00004	8b f1		 mov	 esi, ecx

; 213  : 	if (IsLockCurrentCamera())

  00006	e8 00 00 00 00	 call	 ?IsLockCurrentCamera@CPythonApplication@@QAE_NXZ ; CPythonApplication::IsLockCurrentCamera
  0000b	84 c0		 test	 al, al
  0000d	75 63		 jne	 SHORT $LN1@MovieZoomC

; 214  : 		return;
; 215  : 
; 216  : 	float fRatio = 1.0f + m_fCameraZoomSpeed * float(iDirection);
; 217  : 	if (m_isSpecialCameraMode)

  0000f	83 be ec 3d 02
	00 00		 cmp	 DWORD PTR [esi+146924], 0
  00016	66 0f 6e 45 08	 movd	 xmm0, DWORD PTR _iDirection$[ebp]
  0001b	0f 5b c0	 cvtdq2ps xmm0, xmm0
  0001e	f3 0f 59 86 d0
	3d 02 00	 mulss	 xmm0, DWORD PTR [esi+146896]
  00026	f3 0f 58 05 00
	00 00 00	 addss	 xmm0, DWORD PTR __real@3f800000
  0002e	f3 0f 11 45 08	 movss	 DWORD PTR _fRatio$1$[ebp], xmm0
  00033	74 35		 je	 SHORT $LN4@MovieZoomC

; 218  : 	{
; 219  : 		if (GetKeyState(VK_SCROLL) & 1)

  00035	68 91 00 00 00	 push	 145			; 00000091H
  0003a	ff 15 00 00 00
	00		 call	 DWORD PTR __imp__GetKeyState@4
  00040	a8 01		 test	 al, 1
  00042	74 21		 je	 SHORT $LN6@MovieZoomC

; 220  : 		{
; 221  : 			SetUpDirCameraSpeed((1.0f - fRatio) * 200.0f);

  00044	f3 0f 10 0d 00
	00 00 00	 movss	 xmm1, DWORD PTR __real@3f800000
  0004c	8b ce		 mov	 ecx, esi
  0004e	f3 0f 5c 4d 08	 subss	 xmm1, DWORD PTR _fRatio$1$[ebp]
  00053	f3 0f 59 0d 00
	00 00 00	 mulss	 xmm1, DWORD PTR __real@43480000
  0005b	e8 00 00 00 00	 call	 ?SetUpDirCameraSpeed@CPythonApplication@@QAEXM@Z ; CPythonApplication::SetUpDirCameraSpeed
  00060	5e		 pop	 esi

; 226  : }

  00061	5d		 pop	 ebp
  00062	c2 04 00	 ret	 4
$LN6@MovieZoomC:

; 218  : 	{
; 219  : 		if (GetKeyState(VK_SCROLL) & 1)

  00065	f3 0f 10 45 08	 movss	 xmm0, DWORD PTR _fRatio$1$[ebp]
$LN4@MovieZoomC:

; 222  : 			return;
; 223  : 		}
; 224  : 	}
; 225  : 	m_fZoomSpeed = fRatio;

  0006a	f3 0f 11 86 c4
	3d 02 00	 movss	 DWORD PTR [esi+146884], xmm0
$LN1@MovieZoomC:
  00072	5e		 pop	 esi

; 226  : }

  00073	5d		 pop	 ebp
  00074	c2 04 00	 ret	 4
?MovieZoomCamera@CPythonApplication@@QAEXH@Z ENDP	; CPythonApplication::MovieZoomCamera
_TEXT	ENDS
; Function compile flags: /Ogtp
; File E:\Metin2_server\SolWayneSF v6\ClientVS22\source\UserInterface\PythonApplicationCamera.cpp
;	COMDAT ?MovieResetCamera@CPythonApplication@@QAEXXZ
_TEXT	SEGMENT
?MovieResetCamera@CPythonApplication@@QAEXXZ PROC	; CPythonApplication::MovieResetCamera, COMDAT
; _this$ = ecx

; 229  : {

  00000	56		 push	 esi
  00001	8b f1		 mov	 esi, ecx

; 230  : 	if (IsLockCurrentCamera())

  00003	e8 00 00 00 00	 call	 ?IsLockCurrentCamera@CPythonApplication@@QAE_NXZ ; CPythonApplication::IsLockCurrentCamera
  00008	84 c0		 test	 al, al
  0000a	75 45		 jne	 SHORT $LN3@MovieReset

; 231  : 		return;
; 232  : 
; 233  : 	if (m_isSpecialCameraMode)

  0000c	83 be ec 3d 02
	00 00		 cmp	 DWORD PTR [esi+146924], 0
  00013	74 3c		 je	 SHORT $LN3@MovieReset

; 234  : 	{
; 235  : 		SetCrossDirCameraSpeed(0.0f);

  00015	0f 57 c9	 xorps	 xmm1, xmm1
  00018	8b ce		 mov	 ecx, esi
  0001a	e8 00 00 00 00	 call	 ?SetCrossDirCameraSpeed@CPythonApplication@@QAEXM@Z ; CPythonApplication::SetCrossDirCameraSpeed
  0001f	0f 57 c9	 xorps	 xmm1, xmm1

; 236  : 		SetViewDirCameraSpeed(0.0f);

  00022	8b ce		 mov	 ecx, esi
  00024	e8 00 00 00 00	 call	 ?SetViewDirCameraSpeed@CPythonApplication@@QAEXM@Z ; CPythonApplication::SetViewDirCameraSpeed
  00029	0f 57 c9	 xorps	 xmm1, xmm1

; 237  : 		SetUpDirCameraSpeed(0.0f);

  0002c	8b ce		 mov	 ecx, esi
  0002e	e8 00 00 00 00	 call	 ?SetUpDirCameraSpeed@CPythonApplication@@QAEXM@Z ; CPythonApplication::SetUpDirCameraSpeed

; 238  : 
; 239  : 		m_kCmrPos.m_fViewDir = 0;

  00033	c7 86 d8 3d 02
	00 00 00 00 00	 mov	 DWORD PTR [esi+146904], 0

; 240  : 		m_kCmrPos.m_fCrossDir = 0;

  0003d	c7 86 dc 3d 02
	00 00 00 00 00	 mov	 DWORD PTR [esi+146908], 0

; 241  : 		m_kCmrPos.m_fUpDir = 0;

  00047	c7 86 d4 3d 02
	00 00 00 00 00	 mov	 DWORD PTR [esi+146900], 0
$LN3@MovieReset:

; 242  : 	}
; 243  : }

  00051	5e		 pop	 esi
  00052	c3		 ret	 0
?MovieResetCamera@CPythonApplication@@QAEXXZ ENDP	; CPythonApplication::MovieResetCamera
_TEXT	ENDS
; Function compile flags: /Ogtp
; File E:\Metin2_server\SolWayneSF v6\ClientVS22\source\UserInterface\PythonApplicationCamera.cpp
;	COMDAT ?GetRotation@CPythonApplication@@QAEMXZ
_TEXT	SEGMENT
?GetRotation@CPythonApplication@@QAEMXZ PROC		; CPythonApplication::GetRotation, COMDAT
; _this$dead$ = ecx

; 247  : 	return CCameraManager::Instance().GetCurrentCamera()->GetRoll();

  00000	8b 0d 00 00 00
	00		 mov	 ecx, DWORD PTR ?ms_singleton@?$CSingleton@VCCameraManager@@@@0PAVCCameraManager@@A ; CSingleton<CCameraManager>::ms_singleton
  00006	e8 00 00 00 00	 call	 ?GetCurrentCamera@CCameraManager@@QAEPAVCCamera@@XZ ; CCameraManager::GetCurrentCamera
  0000b	f3 0f 10 80 30
	01 00 00	 movss	 xmm0, DWORD PTR [eax+304]

; 248  : }

  00013	c3		 ret	 0
?GetRotation@CPythonApplication@@QAEMXZ ENDP		; CPythonApplication::GetRotation
_TEXT	ENDS
; Function compile flags: /Ogtp
; File E:\Metin2_server\SolWayneSF v6\ClientVS22\source\UserInterface\PythonApplicationCamera.cpp
;	COMDAT ?GetPitch@CPythonApplication@@QAEMXZ
_TEXT	SEGMENT
?GetPitch@CPythonApplication@@QAEMXZ PROC		; CPythonApplication::GetPitch, COMDAT
; _this$dead$ = ecx

; 252  : 	return CCameraManager::Instance().GetCurrentCamera()->GetPitch();

  00000	8b 0d 00 00 00
	00		 mov	 ecx, DWORD PTR ?ms_singleton@?$CSingleton@VCCameraManager@@@@0PAVCCameraManager@@A ; CSingleton<CCameraManager>::ms_singleton
  00006	e8 00 00 00 00	 call	 ?GetCurrentCamera@CCameraManager@@QAEPAVCCamera@@XZ ; CCameraManager::GetCurrentCamera
  0000b	f3 0f 10 80 2c
	01 00 00	 movss	 xmm0, DWORD PTR [eax+300]

; 253  : }

  00013	c3		 ret	 0
?GetPitch@CPythonApplication@@QAEMXZ ENDP		; CPythonApplication::GetPitch
_TEXT	ENDS
; Function compile flags: /Ogtp
; File E:\Metin2_server\SolWayneSF v6\ClientVS22\source\UserInterface\PythonApplicationCamera.cpp
;	COMDAT ?IsLockCurrentCamera@CPythonApplication@@QAE_NXZ
_TEXT	SEGMENT
?IsLockCurrentCamera@CPythonApplication@@QAE_NXZ PROC	; CPythonApplication::IsLockCurrentCamera, COMDAT
; _this$dead$ = ecx

; 257  : 	CCamera * pCamera = CCameraManager::Instance().GetCurrentCamera();

  00000	8b 0d 00 00 00
	00		 mov	 ecx, DWORD PTR ?ms_singleton@?$CSingleton@VCCameraManager@@@@0PAVCCameraManager@@A ; CSingleton<CCameraManager>::ms_singleton
  00006	e8 00 00 00 00	 call	 ?GetCurrentCamera@CCameraManager@@QAEPAVCCamera@@XZ ; CCameraManager::GetCurrentCamera

; 258  : 	if (!pCamera)

  0000b	85 c0		 test	 eax, eax
  0000d	75 03		 jne	 SHORT $LN2@IsLockCurr

; 259  : 		return false;

  0000f	32 c0		 xor	 al, al

; 262  : }

  00011	c3		 ret	 0
$LN2@IsLockCurr:

; 260  : 
; 261  : 	return pCamera->IsLock();

  00012	8b c8		 mov	 ecx, eax
  00014	e9 00 00 00 00	 jmp	 ?IsLock@CCamera@@QAE_NXZ ; CCamera::IsLock
?IsLockCurrentCamera@CPythonApplication@@QAE_NXZ ENDP	; CPythonApplication::IsLockCurrentCamera
_TEXT	ENDS
; Function compile flags: /Ogtp
; File E:\Metin2_server\SolWayneSF v6\ClientVS22\source\UserInterface\PythonApplicationCamera.cpp
;	COMDAT ?SetCameraSetting@CPythonApplication@@QAEXABUSCameraSetting@IAbstractApplication@@@Z
_TEXT	SEGMENT
_c_rCameraSetting$ = 8					; size = 4
?SetCameraSetting@CPythonApplication@@QAEXABUSCameraSetting@IAbstractApplication@@@Z PROC ; CPythonApplication::SetCameraSetting, COMDAT
; _this$ = ecx

; 315  : {

  00000	55		 push	 ebp
  00001	8b ec		 mov	 ebp, esp
  00003	56		 push	 esi
  00004	8b f1		 mov	 esi, ecx

; 316  : 	CCamera * pCamera = CCameraManager::Instance().GetCurrentCamera();

  00006	8b 0d 00 00 00
	00		 mov	 ecx, DWORD PTR ?ms_singleton@?$CSingleton@VCCameraManager@@@@0PAVCCameraManager@@A ; CSingleton<CCameraManager>::ms_singleton
  0000c	57		 push	 edi
  0000d	e8 00 00 00 00	 call	 ?GetCurrentCamera@CCameraManager@@QAEPAVCCamera@@XZ ; CCameraManager::GetCurrentCamera
  00012	8b f8		 mov	 edi, eax

; 317  : 	if (!pCamera)

  00014	85 ff		 test	 edi, edi
  00016	0f 84 07 01 00
	00		 je	 $LN1@SetCameraS

; 318  : 		return;
; 319  : 
; 320  : 	m_pyGraphic.SetPositionCamera(	c_rCameraSetting.v3CenterPosition.x,

  0001c	53		 push	 ebx
  0001d	8b 5d 08	 mov	 ebx, DWORD PTR _c_rCameraSetting$[ebp]
  00020	8d 8e a0 07 00
	00		 lea	 ecx, DWORD PTR [esi+1952]
  00026	83 ec 18	 sub	 esp, 24			; 00000018H
  00029	f3 0f 10 43 18	 movss	 xmm0, DWORD PTR [ebx+24]
  0002e	f3 0f 11 44 24
	14		 movss	 DWORD PTR [esp+20], xmm0
  00034	f3 0f 10 43 1c	 movss	 xmm0, DWORD PTR [ebx+28]
  00039	f3 0f 11 44 24
	10		 movss	 DWORD PTR [esp+16], xmm0
  0003f	f3 0f 10 43 20	 movss	 xmm0, DWORD PTR [ebx+32]
  00044	f3 0f 11 44 24
	0c		 movss	 DWORD PTR [esp+12], xmm0
  0004a	f3 0f 10 43 08	 movss	 xmm0, DWORD PTR [ebx+8]
  0004f	f3 0f 11 44 24
	08		 movss	 DWORD PTR [esp+8], xmm0
  00055	f3 0f 10 43 04	 movss	 xmm0, DWORD PTR [ebx+4]
  0005a	f3 0f 11 44 24
	04		 movss	 DWORD PTR [esp+4], xmm0
  00060	f3 0f 10 03	 movss	 xmm0, DWORD PTR [ebx]
  00064	f3 0f 11 04 24	 movss	 DWORD PTR [esp], xmm0
  00069	e8 00 00 00 00	 call	 ?SetPositionCamera@CGraphicBase@@QAEXMMMMMM@Z ; CGraphicBase::SetPositionCamera

; 321  : 									c_rCameraSetting.v3CenterPosition.y,
; 322  : 									c_rCameraSetting.v3CenterPosition.z,
; 323  : 									c_rCameraSetting.fZoom,
; 324  : 									c_rCameraSetting.fPitch,
; 325  : 									c_rCameraSetting.fRotation);
; 326  : 
; 327  : 	if (0.0f != c_rCameraSetting.kCmrPos.m_fViewDir)

  0006e	f3 0f 10 4b 10	 movss	 xmm1, DWORD PTR [ebx+16]
  00073	0f 57 c0	 xorps	 xmm0, xmm0
  00076	0f 2e c1	 ucomiss xmm0, xmm1
  00079	9f		 lahf
  0007a	f6 c4 44	 test	 ah, 68			; 00000044H
  0007d	7b 0d		 jnp	 SHORT $LN3@SetCameraS

; 328  : 		pCamera->MoveFront(c_rCameraSetting.kCmrPos.m_fViewDir);

  0007f	51		 push	 ecx
  00080	8b cf		 mov	 ecx, edi
  00082	f3 0f 11 0c 24	 movss	 DWORD PTR [esp], xmm1
  00087	e8 00 00 00 00	 call	 ?MoveFront@CCamera@@QAEXM@Z ; CCamera::MoveFront
$LN3@SetCameraS:

; 329  : 	if (0.0f != c_rCameraSetting.kCmrPos.m_fCrossDir)

  0008c	f3 0f 10 43 14	 movss	 xmm0, DWORD PTR [ebx+20]
  00091	0f 57 c9	 xorps	 xmm1, xmm1
  00094	0f 2e c8	 ucomiss xmm1, xmm0
  00097	9f		 lahf
  00098	f6 c4 44	 test	 ah, 68			; 00000044H
  0009b	7b 10		 jnp	 SHORT $LN4@SetCameraS

; 330  : 		pCamera->MoveAlongCross(c_rCameraSetting.kCmrPos.m_fCrossDir);

  0009d	51		 push	 ecx
  0009e	8b cf		 mov	 ecx, edi
  000a0	f3 0f 11 04 24	 movss	 DWORD PTR [esp], xmm0
  000a5	e8 00 00 00 00	 call	 ?MoveAlongCross@CCamera@@QAEXM@Z ; CCamera::MoveAlongCross
  000aa	0f 57 c9	 xorps	 xmm1, xmm1
$LN4@SetCameraS:

; 331  : 	if (0.0f != c_rCameraSetting.kCmrPos.m_fUpDir)

  000ad	f3 0f 10 43 0c	 movss	 xmm0, DWORD PTR [ebx+12]
  000b2	0f 2e c8	 ucomiss xmm1, xmm0
  000b5	5b		 pop	 ebx
  000b6	9f		 lahf
  000b7	f6 c4 44	 test	 ah, 68			; 00000044H
  000ba	7b 0d		 jnp	 SHORT $LN5@SetCameraS

; 332  : 		pCamera->MoveVertical(c_rCameraSetting.kCmrPos.m_fUpDir);

  000bc	51		 push	 ecx
  000bd	8b cf		 mov	 ecx, edi
  000bf	f3 0f 11 04 24	 movss	 DWORD PTR [esp], xmm0
  000c4	e8 00 00 00 00	 call	 ?MoveVertical@CCamera@@QAEXM@Z ; CCamera::MoveVertical
$LN5@SetCameraS:

; 333  : 
; 334  : 	m_kCmrPos.m_fUpDir = 0.0f;

  000c9	c7 86 d4 3d 02
	00 00 00 00 00	 mov	 DWORD PTR [esi+146900], 0

; 335  : 	m_kCmrPos.m_fViewDir = 0.0f;

  000d3	c7 86 d8 3d 02
	00 00 00 00 00	 mov	 DWORD PTR [esi+146904], 0

; 336  : 	m_kCmrPos.m_fCrossDir = 0.0f;

  000dd	c7 86 dc 3d 02
	00 00 00 00 00	 mov	 DWORD PTR [esi+146908], 0

; 337  : 	m_kCmrSpd.m_fUpDir = 0.0f;

  000e7	c7 86 e0 3d 02
	00 00 00 00 00	 mov	 DWORD PTR [esi+146912], 0

; 338  : 	m_kCmrSpd.m_fViewDir = 0.0f;

  000f1	c7 86 e4 3d 02
	00 00 00 00 00	 mov	 DWORD PTR [esi+146916], 0

; 339  : 	m_kCmrSpd.m_fCrossDir = 0.0f;

  000fb	c7 86 e8 3d 02
	00 00 00 00 00	 mov	 DWORD PTR [esi+146920], 0

; 340  : 	m_fZoomSpeed = 0.0f;

  00105	c7 86 c4 3d 02
	00 00 00 00 00	 mov	 DWORD PTR [esi+146884], 0

; 341  : 	m_fPitchSpeed = 0.0f;

  0010f	c7 86 c0 3d 02
	00 00 00 00 00	 mov	 DWORD PTR [esi+146880], 0

; 342  : 	m_fRotationSpeed = 0.0f;

  00119	c7 86 bc 3d 02
	00 00 00 00 00	 mov	 DWORD PTR [esi+146876], 0
$LN1@SetCameraS:

; 343  : }

  00123	5f		 pop	 edi
  00124	5e		 pop	 esi
  00125	5d		 pop	 ebp
  00126	c2 04 00	 ret	 4
?SetCameraSetting@CPythonApplication@@QAEXABUSCameraSetting@IAbstractApplication@@@Z ENDP ; CPythonApplication::SetCameraSetting
_TEXT	ENDS
; Function compile flags: /Ogtp
; File E:\Metin2_server\SolWayneSF v6\ClientVS22\source\UserInterface\PythonApplicationCamera.cpp
;	COMDAT ?GetCameraSetting@CPythonApplication@@QAEXPAUSCameraSetting@IAbstractApplication@@@Z
_TEXT	SEGMENT
tv90 = 8						; size = 4
_fHeight$ = 8						; size = 4
_pCameraSetting$ = 8					; size = 4
?GetCameraSetting@CPythonApplication@@QAEXPAUSCameraSetting@IAbstractApplication@@@Z PROC ; CPythonApplication::GetCameraSetting, COMDAT
; _this$ = ecx

; 346  : {

  00000	55		 push	 ebp
  00001	8b ec		 mov	 ebp, esp

; 347  : 	pCameraSetting->v3CenterPosition = m_v3CenterPosition;

  00003	f3 0f 7e 81 04
	3d 02 00	 movq	 xmm0, QWORD PTR [ecx+146692]
  0000b	56		 push	 esi
  0000c	8b 75 08	 mov	 esi, DWORD PTR _pCameraSetting$[ebp]
  0000f	66 0f d6 06	 movq	 QWORD PTR [esi], xmm0
  00013	8b 81 0c 3d 02
	00		 mov	 eax, DWORD PTR [ecx+146700]
  00019	89 46 08	 mov	 DWORD PTR [esi+8], eax

; 348  : 	pCameraSetting->kCmrPos = m_kCmrPos;

  0001c	f3 0f 7e 81 d4
	3d 02 00	 movq	 xmm0, QWORD PTR [ecx+146900]
  00024	66 0f d6 46 0c	 movq	 QWORD PTR [esi+12], xmm0
  00029	8b 81 dc 3d 02
	00		 mov	 eax, DWORD PTR [ecx+146908]
  0002f	89 46 14	 mov	 DWORD PTR [esi+20], eax

; 349  : 
; 350  : 	if (CCameraManager::Instance().GetCurrentCamera())

  00032	8b 0d 00 00 00
	00		 mov	 ecx, DWORD PTR ?ms_singleton@?$CSingleton@VCCameraManager@@@@0PAVCCameraManager@@A ; CSingleton<CCameraManager>::ms_singleton
  00038	e8 00 00 00 00	 call	 ?GetCurrentCamera@CCameraManager@@QAEPAVCCamera@@XZ ; CCameraManager::GetCurrentCamera
  0003d	85 c0		 test	 eax, eax
  0003f	74 24		 je	 SHORT $LN2@GetCameraS

; 351  : 		pCameraSetting->v3CenterPosition.z += CCameraManager::Instance().GetCurrentCamera()->GetTargetHeight();

  00041	8b 0d 00 00 00
	00		 mov	 ecx, DWORD PTR ?ms_singleton@?$CSingleton@VCCameraManager@@@@0PAVCCameraManager@@A ; CSingleton<CCameraManager>::ms_singleton
  00047	e8 00 00 00 00	 call	 ?GetCurrentCamera@CCameraManager@@QAEPAVCCamera@@XZ ; CCameraManager::GetCurrentCamera
  0004c	8b c8		 mov	 ecx, eax
  0004e	e8 00 00 00 00	 call	 ?GetTargetHeight@CCamera@@QAEMXZ ; CCamera::GetTargetHeight
  00053	d9 5d 08	 fstp	 DWORD PTR tv90[ebp]
  00056	f3 0f 10 45 08	 movss	 xmm0, DWORD PTR tv90[ebp]
  0005b	f3 0f 58 46 08	 addss	 xmm0, DWORD PTR [esi+8]
  00060	f3 0f 11 46 08	 movss	 DWORD PTR [esi+8], xmm0
$LN2@GetCameraS:

; 352  : 
; 353  : 	float fHeight;
; 354  : 	GetCamera(&pCameraSetting->fZoom, &pCameraSetting->fPitch, &pCameraSetting->fRotation, &fHeight);

  00065	8d 45 08	 lea	 eax, DWORD PTR _fHeight$[ebp]
  00068	50		 push	 eax
  00069	8d 46 18	 lea	 eax, DWORD PTR [esi+24]
  0006c	50		 push	 eax
  0006d	8d 46 1c	 lea	 eax, DWORD PTR [esi+28]
  00070	50		 push	 eax
  00071	8d 46 20	 lea	 eax, DWORD PTR [esi+32]
  00074	50		 push	 eax
  00075	e8 00 00 00 00	 call	 ?GetCamera@CPythonApplication@@QAEXPAM000@Z ; CPythonApplication::GetCamera
  0007a	5e		 pop	 esi

; 355  : }

  0007b	5d		 pop	 ebp
  0007c	c2 04 00	 ret	 4
?GetCameraSetting@CPythonApplication@@QAEXPAUSCameraSetting@IAbstractApplication@@@Z ENDP ; CPythonApplication::GetCameraSetting
_TEXT	ENDS
; Function compile flags: /Ogtp
; File E:\Metin2_server\SolWayneSF v6\ClientVS22\source\UserInterface\PythonApplicationCamera.cpp
; File E:\Metin2_server\SolWayneSF v6\ClientVS22\source\UserInterface\AbstractApplication.h
; File E:\Metin2_server\SolWayneSF v6\ClientVS22\source\UserInterface\PythonApplicationCamera.cpp
; File E:\Metin2_server\SolWayneSF v6\ClientVS22\extern\include\d3dx8math.inl
; File E:\Metin2_server\SolWayneSF v6\ClientVS22\source\UserInterface\AbstractApplication.h
; File E:\Metin2_server\SolWayneSF v6\ClientVS22\source\UserInterface\PythonApplicationCamera.cpp
;	COMDAT ?SaveCameraSetting@CPythonApplication@@QAEXPBD@Z
_TEXT	SEGMENT
_CameraSetting$ = -40					; size = 36
__$ArrayPad$ = -4					; size = 4
_c_szFileName$ = 8					; size = 4
?SaveCameraSetting@CPythonApplication@@QAEXPBD@Z PROC	; CPythonApplication::SaveCameraSetting, COMDAT
; _this$ = ecx

; 358  : {

  00000	55		 push	 ebp
  00001	8b ec		 mov	 ebp, esp
  00003	83 e4 c0	 and	 esp, -64		; ffffffc0H
  00006	83 ec 38	 sub	 esp, 56			; 00000038H
  00009	a1 00 00 00 00	 mov	 eax, DWORD PTR ___security_cookie
  0000e	33 c4		 xor	 eax, esp
  00010	89 44 24 34	 mov	 DWORD PTR __$ArrayPad$[esp+56], eax
  00014	56		 push	 esi
  00015	8b 75 08	 mov	 esi, DWORD PTR _c_szFileName$[ebp]

; 360  : 	GetCameraSetting(&CameraSetting);

  00018	8d 44 24 14	 lea	 eax, DWORD PTR _CameraSetting$[esp+60]
  0001c	57		 push	 edi
  0001d	0f 57 c0	 xorps	 xmm0, xmm0
; File E:\Metin2_server\SolWayneSF v6\ClientVS22\source\UserInterface\AbstractApplication.h

; 28   : 								fZoom(0.0f) {}

  00020	c7 44 24 38 00
	00 00 00	 mov	 DWORD PTR _CameraSetting$[esp+96], 0
; File E:\Metin2_server\SolWayneSF v6\ClientVS22\source\UserInterface\PythonApplicationCamera.cpp

; 360  : 	GetCameraSetting(&CameraSetting);

  00028	50		 push	 eax
; File E:\Metin2_server\SolWayneSF v6\ClientVS22\extern\include\d3dx8math.inl

; 180  :     x = fx;

  00029	0f 11 44 24 1c	 movups	 XMMWORD PTR _CameraSetting$[esp+68], xmm0
; File E:\Metin2_server\SolWayneSF v6\ClientVS22\source\UserInterface\AbstractApplication.h

; 14   : 			SCameraPos() : m_fUpDir(0.0f), m_fViewDir(0.0f), m_fCrossDir(0.0f) {}

  0002e	0f 11 44 24 2c	 movups	 XMMWORD PTR _CameraSetting$[esp+84], xmm0
; File E:\Metin2_server\SolWayneSF v6\ClientVS22\source\UserInterface\PythonApplicationCamera.cpp

; 360  : 	GetCameraSetting(&CameraSetting);

  00033	e8 00 00 00 00	 call	 ?GetCameraSetting@CPythonApplication@@QAEXPAUSCameraSetting@IAbstractApplication@@@Z ; CPythonApplication::GetCameraSetting

; 361  : 
; 362  : 	FILE * File = fopen(c_szFileName, "w");

  00038	68 00 00 00 00	 push	 OFFSET ??_C@_01NOFIACDB@w@
  0003d	56		 push	 esi
  0003e	e8 00 00 00 00	 call	 _fopen
  00043	83 c4 08	 add	 esp, 8
  00046	8b f8		 mov	 edi, eax

; 363  : 	SetFileAttributes(c_szFileName, FILE_ATTRIBUTE_NORMAL);

  00048	68 80 00 00 00	 push	 128			; 00000080H
  0004d	56		 push	 esi
  0004e	ff 15 00 00 00
	00		 call	 DWORD PTR __imp__SetFileAttributesA@8
  00054	f3 0f 10 44 24
	20		 movss	 xmm0, DWORD PTR _CameraSetting$[esp+72]

; 364  : 
; 365  : 	PrintfTabs(File, 0, "CenterPos %f %f %f\n", CameraSetting.v3CenterPosition.x, CameraSetting.v3CenterPosition.y, CameraSetting.v3CenterPosition.z);

  0005a	83 ec 18	 sub	 esp, 24			; 00000018H
  0005d	0f 5a c0	 cvtps2pd xmm0, xmm0
  00060	f2 0f 11 44 24
	10		 movsd	 QWORD PTR [esp+16], xmm0
  00066	f3 0f 10 44 24
	34		 movss	 xmm0, DWORD PTR _CameraSetting$[esp+92]
  0006c	0f 5a c0	 cvtps2pd xmm0, xmm0
  0006f	f2 0f 11 44 24
	08		 movsd	 QWORD PTR [esp+8], xmm0
  00075	f3 0f 10 44 24
	30		 movss	 xmm0, DWORD PTR _CameraSetting$[esp+88]
  0007b	0f 5a c0	 cvtps2pd xmm0, xmm0
  0007e	f2 0f 11 04 24	 movsd	 QWORD PTR [esp], xmm0
  00083	68 00 00 00 00	 push	 OFFSET ??_C@_0BE@DMOOAJEE@CenterPos?5?$CFf?5?$CFf?5?$CFf?6@
  00088	6a 00		 push	 0
  0008a	57		 push	 edi
  0008b	e8 00 00 00 00	 call	 ?PrintfTabs@@YAXPAU_iobuf@@HPBDZZ ; PrintfTabs
  00090	f3 0f 10 44 24
	54		 movss	 xmm0, DWORD PTR _CameraSetting$[esp+124]

; 366  : 	PrintfTabs(File, 0, "CameraSetting %f %f %f\n", CameraSetting.fZoom, CameraSetting.fPitch, CameraSetting.fRotation);

  00096	83 c4 0c	 add	 esp, 12			; 0000000cH
  00099	0f 5a c0	 cvtps2pd xmm0, xmm0
  0009c	f2 0f 11 44 24
	10		 movsd	 QWORD PTR [esp+16], xmm0
  000a2	f3 0f 10 44 24
	4c		 movss	 xmm0, DWORD PTR _CameraSetting$[esp+116]
  000a8	0f 5a c0	 cvtps2pd xmm0, xmm0
  000ab	f2 0f 11 44 24
	08		 movsd	 QWORD PTR [esp+8], xmm0
  000b1	f3 0f 10 44 24
	50		 movss	 xmm0, DWORD PTR _CameraSetting$[esp+120]
  000b7	0f 5a c0	 cvtps2pd xmm0, xmm0
  000ba	f2 0f 11 04 24	 movsd	 QWORD PTR [esp], xmm0
  000bf	68 00 00 00 00	 push	 OFFSET ??_C@_0BI@PHEEAALI@CameraSetting?5?$CFf?5?$CFf?5?$CFf?6@
  000c4	6a 00		 push	 0
  000c6	57		 push	 edi
  000c7	e8 00 00 00 00	 call	 ?PrintfTabs@@YAXPAU_iobuf@@HPBDZZ ; PrintfTabs
  000cc	f3 0f 10 44 24
	50		 movss	 xmm0, DWORD PTR _CameraSetting$[esp+120]

; 367  : 	PrintfTabs(File, 0, "CmrPos %f %f %f\n", CameraSetting.kCmrPos.m_fUpDir, CameraSetting.kCmrPos.m_fViewDir, CameraSetting.kCmrPos.m_fCrossDir);

  000d2	83 c4 0c	 add	 esp, 12			; 0000000cH
  000d5	0f 5a c0	 cvtps2pd xmm0, xmm0
  000d8	f2 0f 11 44 24
	10		 movsd	 QWORD PTR [esp+16], xmm0
  000de	f3 0f 10 44 24
	40		 movss	 xmm0, DWORD PTR _CameraSetting$[esp+104]
  000e4	0f 5a c0	 cvtps2pd xmm0, xmm0
  000e7	f2 0f 11 44 24
	08		 movsd	 QWORD PTR [esp+8], xmm0
  000ed	f3 0f 10 44 24
	3c		 movss	 xmm0, DWORD PTR _CameraSetting$[esp+100]
  000f3	0f 5a c0	 cvtps2pd xmm0, xmm0
  000f6	f2 0f 11 04 24	 movsd	 QWORD PTR [esp], xmm0
  000fb	68 00 00 00 00	 push	 OFFSET ??_C@_0BB@KBBGALHE@CmrPos?5?$CFf?5?$CFf?5?$CFf?6@
  00100	6a 00		 push	 0
  00102	57		 push	 edi
  00103	e8 00 00 00 00	 call	 ?PrintfTabs@@YAXPAU_iobuf@@HPBDZZ ; PrintfTabs

; 368  : 	PrintfTabs(File, 0, "Line \"x;%d|y;%d|z;%d|distance;%d|pitch;%d|rot;%d|up;%d|view;%d|cross;%d\"\n",

  00108	f3 0f 2c 44 24
	50		 cvttss2si eax, DWORD PTR _CameraSetting$[esp+120]
  0010e	50		 push	 eax
  0010f	f3 0f 2c 44 24
	50		 cvttss2si eax, DWORD PTR _CameraSetting$[esp+120]
  00115	50		 push	 eax
  00116	f3 0f 2c 44 24
	50		 cvttss2si eax, DWORD PTR _CameraSetting$[esp+120]
  0011c	50		 push	 eax
  0011d	f3 0f 2c 44 24
	60		 cvttss2si eax, DWORD PTR _CameraSetting$[esp+136]
  00123	50		 push	 eax
  00124	f3 0f 2c 44 24
	68		 cvttss2si eax, DWORD PTR _CameraSetting$[esp+144]
  0012a	50		 push	 eax
  0012b	f3 0f 2c 44 24
	70		 cvttss2si eax, DWORD PTR _CameraSetting$[esp+152]
  00131	50		 push	 eax
  00132	f3 0f 2c 44 24
	5c		 cvttss2si eax, DWORD PTR _CameraSetting$[esp+132]
  00138	50		 push	 eax
  00139	f3 0f 2c 44 24
	5c		 cvttss2si eax, DWORD PTR _CameraSetting$[esp+132]
  0013f	50		 push	 eax
  00140	f3 0f 2c 44 24
	5c		 cvttss2si eax, DWORD PTR _CameraSetting$[esp+132]
  00146	50		 push	 eax
  00147	68 00 00 00 00	 push	 OFFSET ??_C@_0EK@OFJKBEAJ@Line?5?$CCx?$DL?$CFd?$HMy?$DL?$CFd?$HMz?$DL?$CFd?$HMdistance?$DL?$CF@
  0014c	6a 00		 push	 0
  0014e	57		 push	 edi
  0014f	e8 00 00 00 00	 call	 ?PrintfTabs@@YAXPAU_iobuf@@HPBDZZ ; PrintfTabs
  00154	83 c4 54	 add	 esp, 84			; 00000054H

; 369  : 												int(CameraSetting.v3CenterPosition.x),
; 370  : 												int(CameraSetting.v3CenterPosition.y),
; 371  : 												int(CameraSetting.v3CenterPosition.z),
; 372  : 												int(CameraSetting.fZoom),
; 373  : 												int(CameraSetting.fPitch),
; 374  : 												int(CameraSetting.fRotation),
; 375  : 												int(CameraSetting.kCmrPos.m_fUpDir),
; 376  : 												int(CameraSetting.kCmrPos.m_fViewDir),
; 377  : 												int(CameraSetting.kCmrPos.m_fCrossDir));
; 378  : 
; 379  : 	fclose(File);

  00157	57		 push	 edi
  00158	e8 00 00 00 00	 call	 _fclose

; 380  : }

  0015d	8b 4c 24 40	 mov	 ecx, DWORD PTR __$ArrayPad$[esp+68]
  00161	83 c4 04	 add	 esp, 4
  00164	5f		 pop	 edi
  00165	5e		 pop	 esi
  00166	33 cc		 xor	 ecx, esp
  00168	e8 00 00 00 00	 call	 @__security_check_cookie@4
  0016d	8b e5		 mov	 esp, ebp
  0016f	5d		 pop	 ebp
  00170	c2 04 00	 ret	 4
?SaveCameraSetting@CPythonApplication@@QAEXPBD@Z ENDP	; CPythonApplication::SaveCameraSetting
_TEXT	ENDS
; Function compile flags: /Ogtp
; File E:\Metin2_server\SolWayneSF v6\ClientVS22\source\UserInterface\PythonApplicationCamera.cpp
; File C:\Program Files\Microsoft Visual Studio\2022\Community\VC\Tools\MSVC\14.34.31933\include\xstring
; File E:\Metin2_server\SolWayneSF v6\ClientVS22\source\UserInterface\PythonApplicationCamera.cpp
; File C:\Program Files\Microsoft Visual Studio\2022\Community\VC\Tools\MSVC\14.34.31933\include\xstring
; File C:\Program Files\Microsoft Visual Studio\2022\Community\VC\Tools\MSVC\14.34.31933\include\xmemory
; File C:\Program Files\Microsoft Visual Studio\2022\Community\VC\Tools\MSVC\14.34.31933\include\xstring
; File C:\Program Files\Microsoft Visual Studio\2022\Community\VC\Tools\MSVC\14.34.31933\include\xmemory
; File E:\Metin2_server\SolWayneSF v6\ClientVS22\source\UserInterface\PythonApplicationCamera.cpp
; File C:\Program Files\Microsoft Visual Studio\2022\Community\VC\Tools\MSVC\14.34.31933\include\xstring
; File E:\Metin2_server\SolWayneSF v6\ClientVS22\source\UserInterface\PythonApplicationCamera.cpp
; File C:\Program Files\Microsoft Visual Studio\2022\Community\VC\Tools\MSVC\14.34.31933\include\xstring
; File C:\Program Files\Microsoft Visual Studio\2022\Community\VC\Tools\MSVC\14.34.31933\include\xmemory
; File C:\Program Files\Microsoft Visual Studio\2022\Community\VC\Tools\MSVC\14.34.31933\include\xstring
; File C:\Program Files\Microsoft Visual Studio\2022\Community\VC\Tools\MSVC\14.34.31933\include\xmemory
; File E:\Metin2_server\SolWayneSF v6\ClientVS22\source\UserInterface\PythonApplicationCamera.cpp
; File C:\Program Files\Microsoft Visual Studio\2022\Community\VC\Tools\MSVC\14.34.31933\include\xstring
; File E:\Metin2_server\SolWayneSF v6\ClientVS22\source\UserInterface\PythonApplicationCamera.cpp
; File C:\Program Files\Microsoft Visual Studio\2022\Community\VC\Tools\MSVC\14.34.31933\include\xstring
; File C:\Program Files\Microsoft Visual Studio\2022\Community\VC\Tools\MSVC\14.34.31933\include\xmemory
; File C:\Program Files\Microsoft Visual Studio\2022\Community\VC\Tools\MSVC\14.34.31933\include\xstring
; File C:\Program Files\Microsoft Visual Studio\2022\Community\VC\Tools\MSVC\14.34.31933\include\xmemory
; File E:\Metin2_server\SolWayneSF v6\ClientVS22\source\UserInterface\PythonApplicationCamera.cpp
; File C:\Program Files\Microsoft Visual Studio\2022\Community\VC\Tools\MSVC\14.34.31933\include\vector
; File E:\Metin2_server\SolWayneSF v6\ClientVS22\source\UserInterface\PythonApplicationCamera.cpp
; File C:\Program Files\Microsoft Visual Studio\2022\Community\VC\Tools\MSVC\14.34.31933\include\vector
; File E:\Metin2_server\SolWayneSF v6\ClientVS22\source\UserInterface\PythonApplicationCamera.cpp
; File C:\Program Files\Microsoft Visual Studio\2022\Community\VC\Tools\MSVC\14.34.31933\include\xstring
; File E:\Metin2_server\SolWayneSF v6\ClientVS22\source\UserInterface\PythonApplicationCamera.cpp
; File C:\Program Files\Microsoft Visual Studio\2022\Community\VC\Tools\MSVC\14.34.31933\include\xstring
; File E:\Metin2_server\SolWayneSF v6\ClientVS22\source\UserInterface\PythonApplicationCamera.cpp
; File C:\Program Files\Microsoft Visual Studio\2022\Community\VC\Tools\MSVC\14.34.31933\include\xstring
; File E:\Metin2_server\SolWayneSF v6\ClientVS22\source\UserInterface\PythonApplicationCamera.cpp
; File C:\Program Files\Microsoft Visual Studio\2022\Community\VC\Tools\MSVC\14.34.31933\include\xstring
; File E:\Metin2_server\SolWayneSF v6\ClientVS22\source\UserInterface\PythonApplicationCamera.cpp
; File C:\Program Files\Microsoft Visual Studio\2022\Community\VC\Tools\MSVC\14.34.31933\include\xstring
; File E:\Metin2_server\SolWayneSF v6\ClientVS22\source\UserInterface\PythonApplicationCamera.cpp
; File C:\Program Files\Microsoft Visual Studio\2022\Community\VC\Tools\MSVC\14.34.31933\include\xstring
; File E:\Metin2_server\SolWayneSF v6\ClientVS22\source\UserInterface\PythonApplicationCamera.cpp
; File C:\Program Files\Microsoft Visual Studio\2022\Community\VC\Tools\MSVC\14.34.31933\include\xmemory
; File E:\Metin2_server\SolWayneSF v6\ClientVS22\source\UserInterface\PythonApplicationCamera.cpp
;	COMDAT ?LoadCameraSetting@CPythonApplication@@QAE_NPBD@Z
_TEXT	SEGMENT
_pCmrPos$ = -204					; size = 4
_pCameraSetting$ = -200					; size = 4
$T2 = -193						; size = 1
_TextFileLoader$ = -192					; size = 128
_v3CenterPosition$ = -64				; size = 12
_CameraSetting$3 = -52					; size = 36
$T4 = -40						; size = 24
$T5 = -40						; size = 24
$T6 = -40						; size = 24
__$ArrayPad$ = -16					; size = 4
__$EHRec$ = -12						; size = 12
_c_szFileName$ = 8					; size = 4
?LoadCameraSetting@CPythonApplication@@QAE_NPBD@Z PROC	; CPythonApplication::LoadCameraSetting, COMDAT
; _this$ = ecx

; 383  : {

  00000	55		 push	 ebp
  00001	8b ec		 mov	 ebp, esp
  00003	6a ff		 push	 -1
  00005	68 00 00 00 00	 push	 __ehhandler$?LoadCameraSetting@CPythonApplication@@QAE_NPBD@Z
  0000a	64 a1 00 00 00
	00		 mov	 eax, DWORD PTR fs:0
  00010	50		 push	 eax
  00011	81 ec c0 00 00
	00		 sub	 esp, 192		; 000000c0H
  00017	a1 00 00 00 00	 mov	 eax, DWORD PTR ___security_cookie
  0001c	33 c5		 xor	 eax, ebp
  0001e	89 45 f0	 mov	 DWORD PTR __$ArrayPad$[ebp], eax
  00021	56		 push	 esi
  00022	57		 push	 edi
  00023	50		 push	 eax
  00024	8d 45 f4	 lea	 eax, DWORD PTR __$EHRec$[ebp]
  00027	64 a3 00 00 00
	00		 mov	 DWORD PTR fs:0, eax
  0002d	8b f9		 mov	 edi, ecx
  0002f	8b 75 08	 mov	 esi, DWORD PTR _c_szFileName$[ebp]

; 384  : 	CTextFileLoader TextFileLoader;

  00032	8d 8d 40 ff ff
	ff		 lea	 ecx, DWORD PTR _TextFileLoader$[ebp]
  00038	e8 00 00 00 00	 call	 ??0CTextFileLoader@@QAE@XZ ; CTextFileLoader::CTextFileLoader

; 385  : 	if (!TextFileLoader.Load(c_szFileName))

  0003d	56		 push	 esi
  0003e	8d 8d 40 ff ff
	ff		 lea	 ecx, DWORD PTR _TextFileLoader$[ebp]
  00044	c7 45 fc 00 00
	00 00		 mov	 DWORD PTR __$EHRec$[ebp+8], 0
  0004b	e8 00 00 00 00	 call	 ?Load@CTextFileLoader@@QAE_NPBD@Z ; CTextFileLoader::Load
  00050	84 c0		 test	 al, al
  00052	0f 84 bb 02 00
	00		 je	 $LN7@LoadCamera

; 386  : 		return false;
; 387  : 
; 388  : 	TextFileLoader.SetTop();

  00058	8d 8d 40 ff ff
	ff		 lea	 ecx, DWORD PTR _TextFileLoader$[ebp]
  0005e	e8 00 00 00 00	 call	 ?SetTop@CTextFileLoader@@QAEXXZ ; CTextFileLoader::SetTop
; File C:\Program Files\Microsoft Visual Studio\2022\Community\VC\Tools\MSVC\14.34.31933\include\xstring

; 117  :         _CSTD memmove(_First1, _First2, _Count * sizeof(_Elem));

  00063	a0 08 00 00 00	 mov	 al, BYTE PTR ??_C@_09BKJKIBFC@centerpos@+8
  00068	0f 57 c0	 xorps	 xmm0, xmm0

; 2339 :         _CONSTEXPR20 _Bxty() noexcept : _Buf() {} // user-provided, for fancy pointers

  0006b	0f 11 45 d8	 movups	 XMMWORD PTR $T6[ebp], xmm0

; 2748 :             _My_data._Mysize = _Count;

  0006f	c7 45 e8 09 00
	00 00		 mov	 DWORD PTR $T6[ebp+16], 9

; 117  :         _CSTD memmove(_First1, _First2, _Count * sizeof(_Elem));

  00076	f3 0f 7e 05 00
	00 00 00	 movq	 xmm0, QWORD PTR ??_C@_09BKJKIBFC@centerpos@

; 2749 :             _My_data._Myres  = _BUF_SIZE - 1;

  0007e	c7 45 ec 0f 00
	00 00		 mov	 DWORD PTR $T6[ebp+20], 15 ; 0000000fH

; 117  :         _CSTD memmove(_First1, _First2, _Count * sizeof(_Elem));

  00085	66 0f d6 45 d8	 movq	 QWORD PTR $T6[ebp], xmm0
  0008a	88 45 e0	 mov	 BYTE PTR $T6[ebp+8], al
; File E:\Metin2_server\SolWayneSF v6\ClientVS22\source\UserInterface\PythonApplicationCamera.cpp

; 393  : 	if (TextFileLoader.GetTokenVector3("centerpos", &v3CenterPosition))

  0008d	8d 45 c0	 lea	 eax, DWORD PTR _v3CenterPosition$[ebp]
  00090	c6 45 fc 01	 mov	 BYTE PTR __$EHRec$[ebp+8], 1
  00094	50		 push	 eax
  00095	8d 45 d8	 lea	 eax, DWORD PTR $T6[ebp]
  00098	50		 push	 eax
  00099	8d 8d 40 ff ff
	ff		 lea	 ecx, DWORD PTR _TextFileLoader$[ebp]
  0009f	e8 00 00 00 00	 call	 ?GetTokenVector3@CTextFileLoader@@QAEHABV?$basic_string@DU?$char_traits@D@std@@V?$allocator@D@2@@std@@PAUD3DXVECTOR3@@@Z ; CTextFileLoader::GetTokenVector3
  000a4	c6 45 fc 00	 mov	 BYTE PTR __$EHRec$[ebp+8], 0
  000a8	8b f0		 mov	 esi, eax
; File C:\Program Files\Microsoft Visual Studio\2022\Community\VC\Tools\MSVC\14.34.31933\include\xstring

; 5008 :         if (_My_data._Large_string_engaged()) {

  000aa	8b 4d ec	 mov	 ecx, DWORD PTR $T6[ebp+20]
  000ad	83 f9 10	 cmp	 ecx, 16			; 00000010H
  000b0	72 2c		 jb	 SHORT $LN99@LoadCamera
; File C:\Program Files\Microsoft Visual Studio\2022\Community\VC\Tools\MSVC\14.34.31933\include\xmemory

; 830  :         _Deallocate<_New_alignof<_Ty>>(_Ptr, sizeof(_Ty) * _Count);

  000b2	8b 55 d8	 mov	 edx, DWORD PTR $T6[ebp]
; File C:\Program Files\Microsoft Visual Studio\2022\Community\VC\Tools\MSVC\14.34.31933\include\xstring

; 5013 :             _Al.deallocate(_Ptr, _My_data._Myres + 1);

  000b5	41		 inc	 ecx
; File C:\Program Files\Microsoft Visual Studio\2022\Community\VC\Tools\MSVC\14.34.31933\include\xmemory

; 830  :         _Deallocate<_New_alignof<_Ty>>(_Ptr, sizeof(_Ty) * _Count);

  000b6	8b c2		 mov	 eax, edx

; 251  :         if (_Bytes >= _Big_allocation_threshold) { // boost the alignment of big allocations to help autovectorization

  000b8	81 f9 00 10 00
	00		 cmp	 ecx, 4096		; 00001000H
  000be	72 14		 jb	 SHORT $LN111@LoadCamera

; 150  :     const uintptr_t _Ptr_container   = _Ptr_user[-1];

  000c0	8b 50 fc	 mov	 edx, DWORD PTR [eax-4]
  000c3	83 c1 23	 add	 ecx, 35			; 00000023H
  000c6	2b c2		 sub	 eax, edx

; 164  :     _STL_VERIFY(_Back_shift >= _Min_back_shift && _Back_shift <= _Non_user_size, "invalid argument");

  000c8	83 c0 fc	 add	 eax, -4			; fffffffcH
  000cb	83 f8 1f	 cmp	 eax, 31			; 0000001fH
  000ce	0f 87 74 02 00
	00		 ja	 $LN447@LoadCamera
$LN111@LoadCamera:

; 255  :         ::operator delete(_Ptr, _Bytes);

  000d4	51		 push	 ecx
  000d5	52		 push	 edx
  000d6	e8 00 00 00 00	 call	 ??3@YAXPAXI@Z		; operator delete
  000db	83 c4 08	 add	 esp, 8
$LN99@LoadCamera:
; File E:\Metin2_server\SolWayneSF v6\ClientVS22\source\UserInterface\PythonApplicationCamera.cpp

; 393  : 	if (TextFileLoader.GetTokenVector3("centerpos", &v3CenterPosition))

  000de	85 f6		 test	 esi, esi
  000e0	0f 84 2d 02 00
	00		 je	 $LN7@LoadCamera
; File C:\Program Files\Microsoft Visual Studio\2022\Community\VC\Tools\MSVC\14.34.31933\include\xstring

; 117  :         _CSTD memmove(_First1, _First2, _Count * sizeof(_Elem));

  000e6	a1 08 00 00 00	 mov	 eax, DWORD PTR ??_C@_0O@GKCMOHOF@camerasetting@+8
  000eb	0f 57 c0	 xorps	 xmm0, xmm0

; 2339 :         _CONSTEXPR20 _Bxty() noexcept : _Buf() {} // user-provided, for fancy pointers

  000ee	0f 11 45 d8	 movups	 XMMWORD PTR $T5[ebp], xmm0

; 117  :         _CSTD memmove(_First1, _First2, _Count * sizeof(_Elem));

  000f2	89 45 e0	 mov	 DWORD PTR $T5[ebp+8], eax
  000f5	f3 0f 7e 05 00
	00 00 00	 movq	 xmm0, QWORD PTR ??_C@_0O@GKCMOHOF@camerasetting@
  000fd	a0 0c 00 00 00	 mov	 al, BYTE PTR ??_C@_0O@GKCMOHOF@camerasetting@+12

; 2748 :             _My_data._Mysize = _Count;

  00102	c7 45 e8 0d 00
	00 00		 mov	 DWORD PTR $T5[ebp+16], 13 ; 0000000dH

; 2749 :             _My_data._Myres  = _BUF_SIZE - 1;

  00109	c7 45 ec 0f 00
	00 00		 mov	 DWORD PTR $T5[ebp+20], 15 ; 0000000fH

; 117  :         _CSTD memmove(_First1, _First2, _Count * sizeof(_Elem));

  00110	66 0f d6 45 d8	 movq	 QWORD PTR $T5[ebp], xmm0
  00115	88 45 e4	 mov	 BYTE PTR $T5[ebp+12], al
; File E:\Metin2_server\SolWayneSF v6\ClientVS22\source\UserInterface\PythonApplicationCamera.cpp

; 394  : 	if (TextFileLoader.GetTokenVector("camerasetting", &pCameraSetting))

  00118	8d 85 38 ff ff
	ff		 lea	 eax, DWORD PTR _pCameraSetting$[ebp]
  0011e	c6 45 fc 02	 mov	 BYTE PTR __$EHRec$[ebp+8], 2
  00122	50		 push	 eax
  00123	8d 45 d8	 lea	 eax, DWORD PTR $T5[ebp]
  00126	50		 push	 eax
  00127	8d 8d 40 ff ff
	ff		 lea	 ecx, DWORD PTR _TextFileLoader$[ebp]
  0012d	e8 00 00 00 00	 call	 ?GetTokenVector@CTextFileLoader@@QAEHABV?$basic_string@DU?$char_traits@D@std@@V?$allocator@D@2@@std@@PAPAV?$vector@V?$basic_string@DU?$char_traits@D@std@@V?$allocator@D@2@@std@@V?$allocator@V?$basic_string@DU?$char_traits@D@std@@V?$allocator@D@2@@std@@@2@@3@@Z ; CTextFileLoader::GetTokenVector
  00132	c6 45 fc 00	 mov	 BYTE PTR __$EHRec$[ebp+8], 0
  00136	8b f0		 mov	 esi, eax
; File C:\Program Files\Microsoft Visual Studio\2022\Community\VC\Tools\MSVC\14.34.31933\include\xstring

; 5008 :         if (_My_data._Large_string_engaged()) {

  00138	8b 4d ec	 mov	 ecx, DWORD PTR $T5[ebp+20]
  0013b	83 f9 10	 cmp	 ecx, 16			; 00000010H
  0013e	72 2c		 jb	 SHORT $LN199@LoadCamera
; File C:\Program Files\Microsoft Visual Studio\2022\Community\VC\Tools\MSVC\14.34.31933\include\xmemory

; 830  :         _Deallocate<_New_alignof<_Ty>>(_Ptr, sizeof(_Ty) * _Count);

  00140	8b 55 d8	 mov	 edx, DWORD PTR $T5[ebp]
; File C:\Program Files\Microsoft Visual Studio\2022\Community\VC\Tools\MSVC\14.34.31933\include\xstring

; 5013 :             _Al.deallocate(_Ptr, _My_data._Myres + 1);

  00143	41		 inc	 ecx
; File C:\Program Files\Microsoft Visual Studio\2022\Community\VC\Tools\MSVC\14.34.31933\include\xmemory

; 830  :         _Deallocate<_New_alignof<_Ty>>(_Ptr, sizeof(_Ty) * _Count);

  00144	8b c2		 mov	 eax, edx

; 251  :         if (_Bytes >= _Big_allocation_threshold) { // boost the alignment of big allocations to help autovectorization

  00146	81 f9 00 10 00
	00		 cmp	 ecx, 4096		; 00001000H
  0014c	72 14		 jb	 SHORT $LN211@LoadCamera

; 150  :     const uintptr_t _Ptr_container   = _Ptr_user[-1];

  0014e	8b 50 fc	 mov	 edx, DWORD PTR [eax-4]
  00151	83 c1 23	 add	 ecx, 35			; 00000023H
  00154	2b c2		 sub	 eax, edx

; 164  :     _STL_VERIFY(_Back_shift >= _Min_back_shift && _Back_shift <= _Non_user_size, "invalid argument");

  00156	83 c0 fc	 add	 eax, -4			; fffffffcH
  00159	83 f8 1f	 cmp	 eax, 31			; 0000001fH
  0015c	0f 87 eb 01 00
	00		 ja	 $LN448@LoadCamera
$LN211@LoadCamera:

; 255  :         ::operator delete(_Ptr, _Bytes);

  00162	51		 push	 ecx
  00163	52		 push	 edx
  00164	e8 00 00 00 00	 call	 ??3@YAXPAXI@Z		; operator delete
  00169	83 c4 08	 add	 esp, 8
$LN199@LoadCamera:
; File E:\Metin2_server\SolWayneSF v6\ClientVS22\source\UserInterface\PythonApplicationCamera.cpp

; 394  : 	if (TextFileLoader.GetTokenVector("camerasetting", &pCameraSetting))

  0016c	85 f6		 test	 esi, esi
  0016e	0f 84 9f 01 00
	00		 je	 $LN7@LoadCamera
; File C:\Program Files\Microsoft Visual Studio\2022\Community\VC\Tools\MSVC\14.34.31933\include\xstring

; 117  :         _CSTD memmove(_First1, _First2, _Count * sizeof(_Elem));

  00174	a1 00 00 00 00	 mov	 eax, DWORD PTR ??_C@_06MDBDNPGG@cmrpos@
  00179	0f 57 c0	 xorps	 xmm0, xmm0

; 2339 :         _CONSTEXPR20 _Bxty() noexcept : _Buf() {} // user-provided, for fancy pointers

  0017c	0f 11 45 d8	 movups	 XMMWORD PTR $T4[ebp], xmm0

; 117  :         _CSTD memmove(_First1, _First2, _Count * sizeof(_Elem));

  00180	89 45 d8	 mov	 DWORD PTR $T4[ebp], eax
  00183	66 a1 04 00 00
	00		 mov	 ax, WORD PTR ??_C@_06MDBDNPGG@cmrpos@+4

; 2748 :             _My_data._Mysize = _Count;

  00189	c7 45 e8 06 00
	00 00		 mov	 DWORD PTR $T4[ebp+16], 6

; 2749 :             _My_data._Myres  = _BUF_SIZE - 1;

  00190	c7 45 ec 0f 00
	00 00		 mov	 DWORD PTR $T4[ebp+20], 15 ; 0000000fH

; 117  :         _CSTD memmove(_First1, _First2, _Count * sizeof(_Elem));

  00197	66 89 45 dc	 mov	 WORD PTR $T4[ebp+4], ax
; File E:\Metin2_server\SolWayneSF v6\ClientVS22\source\UserInterface\PythonApplicationCamera.cpp

; 395  : 	if (TextFileLoader.GetTokenVector("cmrpos", &pCmrPos))

  0019b	8d 85 34 ff ff
	ff		 lea	 eax, DWORD PTR _pCmrPos$[ebp]
  001a1	c6 45 fc 03	 mov	 BYTE PTR __$EHRec$[ebp+8], 3
  001a5	50		 push	 eax
  001a6	8d 45 d8	 lea	 eax, DWORD PTR $T4[ebp]
  001a9	50		 push	 eax
  001aa	8d 8d 40 ff ff
	ff		 lea	 ecx, DWORD PTR _TextFileLoader$[ebp]
  001b0	e8 00 00 00 00	 call	 ?GetTokenVector@CTextFileLoader@@QAEHABV?$basic_string@DU?$char_traits@D@std@@V?$allocator@D@2@@std@@PAPAV?$vector@V?$basic_string@DU?$char_traits@D@std@@V?$allocator@D@2@@std@@V?$allocator@V?$basic_string@DU?$char_traits@D@std@@V?$allocator@D@2@@std@@@2@@3@@Z ; CTextFileLoader::GetTokenVector
  001b5	c6 45 fc 00	 mov	 BYTE PTR __$EHRec$[ebp+8], 0
  001b9	8b f0		 mov	 esi, eax
; File C:\Program Files\Microsoft Visual Studio\2022\Community\VC\Tools\MSVC\14.34.31933\include\xstring

; 2301 :         return _BUF_SIZE <= _Myres;

  001bb	8b 4d ec	 mov	 ecx, DWORD PTR $T4[ebp+20]
  001be	83 f9 10	 cmp	 ecx, 16			; 00000010H

; 5008 :         if (_My_data._Large_string_engaged()) {

  001c1	72 2c		 jb	 SHORT $LN299@LoadCamera
; File C:\Program Files\Microsoft Visual Studio\2022\Community\VC\Tools\MSVC\14.34.31933\include\xmemory

; 830  :         _Deallocate<_New_alignof<_Ty>>(_Ptr, sizeof(_Ty) * _Count);

  001c3	8b 55 d8	 mov	 edx, DWORD PTR $T4[ebp]
; File C:\Program Files\Microsoft Visual Studio\2022\Community\VC\Tools\MSVC\14.34.31933\include\xstring

; 5013 :             _Al.deallocate(_Ptr, _My_data._Myres + 1);

  001c6	41		 inc	 ecx
; File C:\Program Files\Microsoft Visual Studio\2022\Community\VC\Tools\MSVC\14.34.31933\include\xmemory

; 830  :         _Deallocate<_New_alignof<_Ty>>(_Ptr, sizeof(_Ty) * _Count);

  001c7	8b c2		 mov	 eax, edx

; 251  :         if (_Bytes >= _Big_allocation_threshold) { // boost the alignment of big allocations to help autovectorization

  001c9	81 f9 00 10 00
	00		 cmp	 ecx, 4096		; 00001000H
  001cf	72 14		 jb	 SHORT $LN311@LoadCamera

; 150  :     const uintptr_t _Ptr_container   = _Ptr_user[-1];

  001d1	8b 50 fc	 mov	 edx, DWORD PTR [eax-4]
  001d4	83 c1 23	 add	 ecx, 35			; 00000023H
  001d7	2b c2		 sub	 eax, edx

; 164  :     _STL_VERIFY(_Back_shift >= _Min_back_shift && _Back_shift <= _Non_user_size, "invalid argument");

  001d9	83 c0 fc	 add	 eax, -4			; fffffffcH
  001dc	83 f8 1f	 cmp	 eax, 31			; 0000001fH
  001df	0f 87 6d 01 00
	00		 ja	 $LN449@LoadCamera
$LN311@LoadCamera:

; 255  :         ::operator delete(_Ptr, _Bytes);

  001e5	51		 push	 ecx
  001e6	52		 push	 edx
  001e7	e8 00 00 00 00	 call	 ??3@YAXPAXI@Z		; operator delete
  001ec	83 c4 08	 add	 esp, 8
$LN299@LoadCamera:
; File E:\Metin2_server\SolWayneSF v6\ClientVS22\source\UserInterface\PythonApplicationCamera.cpp

; 395  : 	if (TextFileLoader.GetTokenVector("cmrpos", &pCmrPos))

  001ef	85 f6		 test	 esi, esi
  001f1	0f 84 1c 01 00
	00		 je	 $LN7@LoadCamera
; File C:\Program Files\Microsoft Visual Studio\2022\Community\VC\Tools\MSVC\14.34.31933\include\vector

; 1932 :         return static_cast<size_type>(_My_data._Mylast - _My_data._Myfirst);

  001f7	8b 85 38 ff ff
	ff		 mov	 eax, DWORD PTR _pCameraSetting$[ebp]
  001fd	8b 48 04	 mov	 ecx, DWORD PTR [eax+4]
  00200	2b 08		 sub	 ecx, DWORD PTR [eax]
; File E:\Metin2_server\SolWayneSF v6\ClientVS22\source\UserInterface\PythonApplicationCamera.cpp

; 396  : 	if (3 == pCameraSetting->size())

  00202	83 f9 48	 cmp	 ecx, 72			; 00000048H
  00205	0f 85 08 01 00
	00		 jne	 $LN7@LoadCamera
; File C:\Program Files\Microsoft Visual Studio\2022\Community\VC\Tools\MSVC\14.34.31933\include\vector

; 1932 :         return static_cast<size_type>(_My_data._Mylast - _My_data._Myfirst);

  0020b	8b 85 34 ff ff
	ff		 mov	 eax, DWORD PTR _pCmrPos$[ebp]
  00211	8b 48 04	 mov	 ecx, DWORD PTR [eax+4]
  00214	2b 08		 sub	 ecx, DWORD PTR [eax]
; File E:\Metin2_server\SolWayneSF v6\ClientVS22\source\UserInterface\PythonApplicationCamera.cpp

; 397  : 	if (3 == pCmrPos->size())

  00216	83 f9 48	 cmp	 ecx, 72			; 00000048H
  00219	0f 85 f4 00 00
	00		 jne	 $LN7@LoadCamera

; 398  : 	{
; 399  : 		SCameraSetting CameraSetting;

  0021f	8d 4d cc	 lea	 ecx, DWORD PTR _CameraSetting$3[ebp]
  00222	e8 00 00 00 00	 call	 ??0SCameraSetting@IAbstractApplication@@QAE@XZ ; IAbstractApplication::SCameraSetting::SCameraSetting

; 400  : 		CameraSetting.v3CenterPosition = v3CenterPosition;

  00227	f3 0f 7e 45 c0	 movq	 xmm0, QWORD PTR _v3CenterPosition$[ebp]
  0022c	8b 45 c8	 mov	 eax, DWORD PTR _v3CenterPosition$[ebp+8]

; 402  : 		CameraSetting.fZoom					= atof(pCameraSetting->at(0).c_str());

  0022f	8b 8d 38 ff ff
	ff		 mov	 ecx, DWORD PTR _pCameraSetting$[ebp]
  00235	6a 00		 push	 0
  00237	66 0f d6 45 cc	 movq	 QWORD PTR _CameraSetting$3[ebp], xmm0
  0023c	89 45 d4	 mov	 DWORD PTR _CameraSetting$3[ebp+8], eax
  0023f	e8 00 00 00 00	 call	 ?at@?$vector@V?$basic_string@DU?$char_traits@D@std@@V?$allocator@D@2@@std@@V?$allocator@V?$basic_string@DU?$char_traits@D@std@@V?$allocator@D@2@@std@@@2@@std@@QAEAAV?$basic_string@DU?$char_traits@D@std@@V?$allocator@D@2@@2@I@Z ; std::vector<std::basic_string<char,std::char_traits<char>,std::allocator<char> >,std::allocator<std::basic_string<char,std::char_traits<char>,std::allocator<char> > > >::at
; File C:\Program Files\Microsoft Visual Studio\2022\Community\VC\Tools\MSVC\14.34.31933\include\xstring

; 2301 :         return _BUF_SIZE <= _Myres;

  00244	83 78 14 10	 cmp	 DWORD PTR [eax+20], 16	; 00000010H

; 2293 :         if (_Large_string_engaged()) {

  00248	72 02		 jb	 SHORT $LN323@LoadCamera

; 2294 :             _Result = _Unfancy(_Bx._Ptr);

  0024a	8b 00		 mov	 eax, DWORD PTR [eax]
$LN323@LoadCamera:
; File E:\Metin2_server\SolWayneSF v6\ClientVS22\source\UserInterface\PythonApplicationCamera.cpp

; 402  : 		CameraSetting.fZoom					= atof(pCameraSetting->at(0).c_str());

  0024c	50		 push	 eax
  0024d	e8 00 00 00 00	 call	 _atof

; 403  : 		CameraSetting.fPitch				= atof(pCameraSetting->at(1).c_str());

  00252	8b 8d 38 ff ff
	ff		 mov	 ecx, DWORD PTR _pCameraSetting$[ebp]
  00258	83 c4 04	 add	 esp, 4
  0025b	d9 5d ec	 fstp	 DWORD PTR _CameraSetting$3[ebp+32]
  0025e	6a 01		 push	 1
  00260	e8 00 00 00 00	 call	 ?at@?$vector@V?$basic_string@DU?$char_traits@D@std@@V?$allocator@D@2@@std@@V?$allocator@V?$basic_string@DU?$char_traits@D@std@@V?$allocator@D@2@@std@@@2@@std@@QAEAAV?$basic_string@DU?$char_traits@D@std@@V?$allocator@D@2@@2@I@Z ; std::vector<std::basic_string<char,std::char_traits<char>,std::allocator<char> >,std::allocator<std::basic_string<char,std::char_traits<char>,std::allocator<char> > > >::at
; File C:\Program Files\Microsoft Visual Studio\2022\Community\VC\Tools\MSVC\14.34.31933\include\xstring

; 2301 :         return _BUF_SIZE <= _Myres;

  00265	83 78 14 10	 cmp	 DWORD PTR [eax+20], 16	; 00000010H

; 2293 :         if (_Large_string_engaged()) {

  00269	72 02		 jb	 SHORT $LN330@LoadCamera

; 2294 :             _Result = _Unfancy(_Bx._Ptr);

  0026b	8b 00		 mov	 eax, DWORD PTR [eax]
$LN330@LoadCamera:
; File E:\Metin2_server\SolWayneSF v6\ClientVS22\source\UserInterface\PythonApplicationCamera.cpp

; 403  : 		CameraSetting.fPitch				= atof(pCameraSetting->at(1).c_str());

  0026d	50		 push	 eax
  0026e	e8 00 00 00 00	 call	 _atof

; 404  : 		CameraSetting.fRotation				= atof(pCameraSetting->at(2).c_str());

  00273	8b 8d 38 ff ff
	ff		 mov	 ecx, DWORD PTR _pCameraSetting$[ebp]
  00279	83 c4 04	 add	 esp, 4
  0027c	d9 5d e8	 fstp	 DWORD PTR _CameraSetting$3[ebp+28]
  0027f	6a 02		 push	 2
  00281	e8 00 00 00 00	 call	 ?at@?$vector@V?$basic_string@DU?$char_traits@D@std@@V?$allocator@D@2@@std@@V?$allocator@V?$basic_string@DU?$char_traits@D@std@@V?$allocator@D@2@@std@@@2@@std@@QAEAAV?$basic_string@DU?$char_traits@D@std@@V?$allocator@D@2@@2@I@Z ; std::vector<std::basic_string<char,std::char_traits<char>,std::allocator<char> >,std::allocator<std::basic_string<char,std::char_traits<char>,std::allocator<char> > > >::at
; File C:\Program Files\Microsoft Visual Studio\2022\Community\VC\Tools\MSVC\14.34.31933\include\xstring

; 2301 :         return _BUF_SIZE <= _Myres;

  00286	83 78 14 10	 cmp	 DWORD PTR [eax+20], 16	; 00000010H

; 2293 :         if (_Large_string_engaged()) {

  0028a	72 02		 jb	 SHORT $LN337@LoadCamera

; 2294 :             _Result = _Unfancy(_Bx._Ptr);

  0028c	8b 00		 mov	 eax, DWORD PTR [eax]
$LN337@LoadCamera:
; File E:\Metin2_server\SolWayneSF v6\ClientVS22\source\UserInterface\PythonApplicationCamera.cpp

; 404  : 		CameraSetting.fRotation				= atof(pCameraSetting->at(2).c_str());

  0028e	50		 push	 eax
  0028f	e8 00 00 00 00	 call	 _atof

; 406  : 		CameraSetting.kCmrPos.m_fUpDir		= atof(pCmrPos->at(0).c_str());

  00294	8b 8d 34 ff ff
	ff		 mov	 ecx, DWORD PTR _pCmrPos$[ebp]
  0029a	83 c4 04	 add	 esp, 4
  0029d	d9 5d e4	 fstp	 DWORD PTR _CameraSetting$3[ebp+24]
  002a0	6a 00		 push	 0
  002a2	e8 00 00 00 00	 call	 ?at@?$vector@V?$basic_string@DU?$char_traits@D@std@@V?$allocator@D@2@@std@@V?$allocator@V?$basic_string@DU?$char_traits@D@std@@V?$allocator@D@2@@std@@@2@@std@@QAEAAV?$basic_string@DU?$char_traits@D@std@@V?$allocator@D@2@@2@I@Z ; std::vector<std::basic_string<char,std::char_traits<char>,std::allocator<char> >,std::allocator<std::basic_string<char,std::char_traits<char>,std::allocator<char> > > >::at
; File C:\Program Files\Microsoft Visual Studio\2022\Community\VC\Tools\MSVC\14.34.31933\include\xstring

; 2301 :         return _BUF_SIZE <= _Myres;

  002a7	83 78 14 10	 cmp	 DWORD PTR [eax+20], 16	; 00000010H

; 2293 :         if (_Large_string_engaged()) {

  002ab	72 02		 jb	 SHORT $LN344@LoadCamera

; 2294 :             _Result = _Unfancy(_Bx._Ptr);

  002ad	8b 00		 mov	 eax, DWORD PTR [eax]
$LN344@LoadCamera:
; File E:\Metin2_server\SolWayneSF v6\ClientVS22\source\UserInterface\PythonApplicationCamera.cpp

; 406  : 		CameraSetting.kCmrPos.m_fUpDir		= atof(pCmrPos->at(0).c_str());

  002af	50		 push	 eax
  002b0	e8 00 00 00 00	 call	 _atof

; 407  : 		CameraSetting.kCmrPos.m_fViewDir	= atof(pCmrPos->at(1).c_str());

  002b5	8b 8d 34 ff ff
	ff		 mov	 ecx, DWORD PTR _pCmrPos$[ebp]
  002bb	83 c4 04	 add	 esp, 4
  002be	d9 5d d8	 fstp	 DWORD PTR _CameraSetting$3[ebp+12]
  002c1	6a 01		 push	 1
  002c3	e8 00 00 00 00	 call	 ?at@?$vector@V?$basic_string@DU?$char_traits@D@std@@V?$allocator@D@2@@std@@V?$allocator@V?$basic_string@DU?$char_traits@D@std@@V?$allocator@D@2@@std@@@2@@std@@QAEAAV?$basic_string@DU?$char_traits@D@std@@V?$allocator@D@2@@2@I@Z ; std::vector<std::basic_string<char,std::char_traits<char>,std::allocator<char> >,std::allocator<std::basic_string<char,std::char_traits<char>,std::allocator<char> > > >::at
; File C:\Program Files\Microsoft Visual Studio\2022\Community\VC\Tools\MSVC\14.34.31933\include\xstring

; 2301 :         return _BUF_SIZE <= _Myres;

  002c8	83 78 14 10	 cmp	 DWORD PTR [eax+20], 16	; 00000010H

; 2293 :         if (_Large_string_engaged()) {

  002cc	72 02		 jb	 SHORT $LN351@LoadCamera

; 2294 :             _Result = _Unfancy(_Bx._Ptr);

  002ce	8b 00		 mov	 eax, DWORD PTR [eax]
$LN351@LoadCamera:
; File E:\Metin2_server\SolWayneSF v6\ClientVS22\source\UserInterface\PythonApplicationCamera.cpp

; 407  : 		CameraSetting.kCmrPos.m_fViewDir	= atof(pCmrPos->at(1).c_str());

  002d0	50		 push	 eax
  002d1	e8 00 00 00 00	 call	 _atof

; 408  : 		CameraSetting.kCmrPos.m_fCrossDir	= atof(pCmrPos->at(2).c_str());

  002d6	8b 8d 34 ff ff
	ff		 mov	 ecx, DWORD PTR _pCmrPos$[ebp]
  002dc	83 c4 04	 add	 esp, 4
  002df	d9 5d dc	 fstp	 DWORD PTR _CameraSetting$3[ebp+16]
  002e2	6a 02		 push	 2
  002e4	e8 00 00 00 00	 call	 ?at@?$vector@V?$basic_string@DU?$char_traits@D@std@@V?$allocator@D@2@@std@@V?$allocator@V?$basic_string@DU?$char_traits@D@std@@V?$allocator@D@2@@std@@@2@@std@@QAEAAV?$basic_string@DU?$char_traits@D@std@@V?$allocator@D@2@@2@I@Z ; std::vector<std::basic_string<char,std::char_traits<char>,std::allocator<char> >,std::allocator<std::basic_string<char,std::char_traits<char>,std::allocator<char> > > >::at
; File C:\Program Files\Microsoft Visual Studio\2022\Community\VC\Tools\MSVC\14.34.31933\include\xstring

; 2301 :         return _BUF_SIZE <= _Myres;

  002e9	83 78 14 10	 cmp	 DWORD PTR [eax+20], 16	; 00000010H

; 2293 :         if (_Large_string_engaged()) {

  002ed	72 02		 jb	 SHORT $LN358@LoadCamera

; 2294 :             _Result = _Unfancy(_Bx._Ptr);

  002ef	8b 00		 mov	 eax, DWORD PTR [eax]
$LN358@LoadCamera:
; File E:\Metin2_server\SolWayneSF v6\ClientVS22\source\UserInterface\PythonApplicationCamera.cpp

; 408  : 		CameraSetting.kCmrPos.m_fCrossDir	= atof(pCmrPos->at(2).c_str());

  002f1	50		 push	 eax
  002f2	e8 00 00 00 00	 call	 _atof

; 409  : 
; 410  : 		SetEventCamera(CameraSetting);

  002f7	8b 47 20	 mov	 eax, DWORD PTR [edi+32]
  002fa	8d 4f 20	 lea	 ecx, DWORD PTR [edi+32]
  002fd	83 c4 04	 add	 esp, 4
  00300	8d 55 cc	 lea	 edx, DWORD PTR _CameraSetting$3[ebp]
  00303	d9 5d e0	 fstp	 DWORD PTR _CameraSetting$3[ebp+20]
  00306	52		 push	 edx
  00307	ff 50 1c	 call	 DWORD PTR [eax+28]

; 411  : 		return true;

  0030a	c6 85 3f ff ff
	ff 01		 mov	 BYTE PTR $T2[ebp], 1
  00311	eb 07		 jmp	 SHORT $LN14@LoadCamera
$LN7@LoadCamera:

; 412  : 	}
; 413  : 
; 414  : 	return false;

  00313	c6 85 3f ff ff
	ff 00		 mov	 BYTE PTR $T2[ebp], 0
$LN14@LoadCamera:
  0031a	8d 8d 40 ff ff
	ff		 lea	 ecx, DWORD PTR _TextFileLoader$[ebp]
  00320	e8 00 00 00 00	 call	 ??1CTextFileLoader@@UAE@XZ ; CTextFileLoader::~CTextFileLoader
  00325	8a 85 3f ff ff
	ff		 mov	 al, BYTE PTR $T2[ebp]

; 415  : }

  0032b	8b 4d f4	 mov	 ecx, DWORD PTR __$EHRec$[ebp]
  0032e	64 89 0d 00 00
	00 00		 mov	 DWORD PTR fs:0, ecx
  00335	59		 pop	 ecx
  00336	5f		 pop	 edi
  00337	5e		 pop	 esi
  00338	8b 4d f0	 mov	 ecx, DWORD PTR __$ArrayPad$[ebp]
  0033b	33 cd		 xor	 ecx, ebp
  0033d	e8 00 00 00 00	 call	 @__security_check_cookie@4
  00342	8b e5		 mov	 esp, ebp
  00344	5d		 pop	 ebp
  00345	c2 04 00	 ret	 4
$LN447@LoadCamera:
; File C:\Program Files\Microsoft Visual Studio\2022\Community\VC\Tools\MSVC\14.34.31933\include\xmemory

; 164  :     _STL_VERIFY(_Back_shift >= _Min_back_shift && _Back_shift <= _Non_user_size, "invalid argument");

  00348	e8 00 00 00 00	 call	 __invalid_parameter_noinfo_noreturn
$LN448@LoadCamera:
  0034d	e8 00 00 00 00	 call	 __invalid_parameter_noinfo_noreturn
$LN449@LoadCamera:
  00352	e8 00 00 00 00	 call	 __invalid_parameter_noinfo_noreturn
$LN445@LoadCamera:
  00357	cc		 int	 3
_TEXT	ENDS
;	COMDAT text$x
text$x	SEGMENT
__unwindfunclet$?LoadCameraSetting@CPythonApplication@@QAE_NPBD@Z$0:
  00000	8d 8d 40 ff ff
	ff		 lea	 ecx, DWORD PTR _TextFileLoader$[ebp]
  00006	e9 00 00 00 00	 jmp	 ??1CTextFileLoader@@UAE@XZ ; CTextFileLoader::~CTextFileLoader
__unwindfunclet$?LoadCameraSetting@CPythonApplication@@QAE_NPBD@Z$1:
  0000b	8d 4d d8	 lea	 ecx, DWORD PTR $T6[ebp]
  0000e	e9 00 00 00 00	 jmp	 ??1?$basic_string@DU?$char_traits@D@std@@V?$allocator@D@2@@std@@QAE@XZ ; std::basic_string<char,std::char_traits<char>,std::allocator<char> >::~basic_string<char,std::char_traits<char>,std::allocator<char> >
__unwindfunclet$?LoadCameraSetting@CPythonApplication@@QAE_NPBD@Z$2:
  00013	8d 4d d8	 lea	 ecx, DWORD PTR $T5[ebp]
  00016	e9 00 00 00 00	 jmp	 ??1?$basic_string@DU?$char_traits@D@std@@V?$allocator@D@2@@std@@QAE@XZ ; std::basic_string<char,std::char_traits<char>,std::allocator<char> >::~basic_string<char,std::char_traits<char>,std::allocator<char> >
__unwindfunclet$?LoadCameraSetting@CPythonApplication@@QAE_NPBD@Z$3:
  0001b	8d 4d d8	 lea	 ecx, DWORD PTR $T4[ebp]
  0001e	e9 00 00 00 00	 jmp	 ??1?$basic_string@DU?$char_traits@D@std@@V?$allocator@D@2@@std@@QAE@XZ ; std::basic_string<char,std::char_traits<char>,std::allocator<char> >::~basic_string<char,std::char_traits<char>,std::allocator<char> >
  00023	cc		 int	 3
  00024	cc		 int	 3
  00025	cc		 int	 3
  00026	cc		 int	 3
  00027	cc		 int	 3
__ehhandler$?LoadCameraSetting@CPythonApplication@@QAE_NPBD@Z:
  00028	90		 npad	 1
  00029	90		 npad	 1
  0002a	8b 54 24 08	 mov	 edx, DWORD PTR [esp+8]
  0002e	8d 42 0c	 lea	 eax, DWORD PTR [edx+12]
  00031	8b 8a 34 ff ff
	ff		 mov	 ecx, DWORD PTR [edx-204]
  00037	33 c8		 xor	 ecx, eax
  00039	e8 00 00 00 00	 call	 @__security_check_cookie@4
  0003e	8b 4a fc	 mov	 ecx, DWORD PTR [edx-4]
  00041	33 c8		 xor	 ecx, eax
  00043	e8 00 00 00 00	 call	 @__security_check_cookie@4
  00048	b8 00 00 00 00	 mov	 eax, OFFSET __ehfuncinfo$?LoadCameraSetting@CPythonApplication@@QAE_NPBD@Z
  0004d	e9 00 00 00 00	 jmp	 ___CxxFrameHandler3
text$x	ENDS
?LoadCameraSetting@CPythonApplication@@QAE_NPBD@Z ENDP	; CPythonApplication::LoadCameraSetting
; Function compile flags: /Ogtp
; File C:\Program Files\Microsoft Visual Studio\2022\Community\VC\Tools\MSVC\14.34.31933\include\vector
;	COMDAT ?at@?$vector@V?$basic_string@DU?$char_traits@D@std@@V?$allocator@D@2@@std@@V?$allocator@V?$basic_string@DU?$char_traits@D@std@@V?$allocator@D@2@@std@@@2@@std@@QAEAAV?$basic_string@DU?$char_traits@D@std@@V?$allocator@D@2@@2@I@Z
_TEXT	SEGMENT
__Pos$ = 8						; size = 4
?at@?$vector@V?$basic_string@DU?$char_traits@D@std@@V?$allocator@D@2@@std@@V?$allocator@V?$basic_string@DU?$char_traits@D@std@@V?$allocator@D@2@@std@@@2@@std@@QAEAAV?$basic_string@DU?$char_traits@D@std@@V?$allocator@D@2@@2@I@Z PROC ; std::vector<std::basic_string<char,std::char_traits<char>,std::allocator<char> >,std::allocator<std::basic_string<char,std::char_traits<char>,std::allocator<char> > > >::at, COMDAT
; _this$ = ecx

; 1965 :     _NODISCARD _CONSTEXPR20 _Ty& at(const size_type _Pos) {

  00000	55		 push	 ebp
  00001	8b ec		 mov	 ebp, esp

; 1966 :         auto& _My_data = _Mypair._Myval2;
; 1967 :         if (static_cast<size_type>(_My_data._Mylast - _My_data._Myfirst) <= _Pos) {

  00003	8b 41 04	 mov	 eax, DWORD PTR [ecx+4]
  00006	8b 11		 mov	 edx, DWORD PTR [ecx]
  00008	2b c2		 sub	 eax, edx
  0000a	8b 4d 08	 mov	 ecx, DWORD PTR __Pos$[ebp]
  0000d	c1 f8 03	 sar	 eax, 3
  00010	69 c0 ab aa aa
	aa		 imul	 eax, eax, -1431655765
  00016	3b c1		 cmp	 eax, ecx
  00018	76 0a		 jbe	 SHORT $LN6@at

; 1969 :         }
; 1970 : 
; 1971 :         return _My_data._Myfirst[_Pos];

  0001a	8d 04 49	 lea	 eax, DWORD PTR [ecx+ecx*2]
  0001d	8d 04 c2	 lea	 eax, DWORD PTR [edx+eax*8]

; 1972 :     }

  00020	5d		 pop	 ebp
  00021	c2 04 00	 ret	 4
$LN6@at:

; 1968 :             _Xrange();

  00024	e8 00 00 00 00	 call	 ?_Xrange@?$vector@V?$basic_string@DU?$char_traits@D@std@@V?$allocator@D@2@@std@@V?$allocator@V?$basic_string@DU?$char_traits@D@std@@V?$allocator@D@2@@std@@@2@@std@@CAXXZ ; std::vector<std::basic_string<char,std::char_traits<char>,std::allocator<char> >,std::allocator<std::basic_string<char,std::char_traits<char>,std::allocator<char> > > >::_Xrange
$LN4@at:
  00029	cc		 int	 3
?at@?$vector@V?$basic_string@DU?$char_traits@D@std@@V?$allocator@D@2@@std@@V?$allocator@V?$basic_string@DU?$char_traits@D@std@@V?$allocator@D@2@@std@@@2@@std@@QAEAAV?$basic_string@DU?$char_traits@D@std@@V?$allocator@D@2@@2@I@Z ENDP ; std::vector<std::basic_string<char,std::char_traits<char>,std::allocator<char> >,std::allocator<std::basic_string<char,std::char_traits<char>,std::allocator<char> > > >::at
_TEXT	ENDS
; Function compile flags: /Ogtp
; File C:\Program Files\Microsoft Visual Studio\2022\Community\VC\Tools\MSVC\14.34.31933\include\vector
;	COMDAT ?size@?$vector@V?$basic_string@DU?$char_traits@D@std@@V?$allocator@D@2@@std@@V?$allocator@V?$basic_string@DU?$char_traits@D@std@@V?$allocator@D@2@@std@@@2@@std@@QBEIXZ
_TEXT	SEGMENT
?size@?$vector@V?$basic_string@DU?$char_traits@D@std@@V?$allocator@D@2@@std@@V?$allocator@V?$basic_string@DU?$char_traits@D@std@@V?$allocator@D@2@@std@@@2@@std@@QBEIXZ PROC ; std::vector<std::basic_string<char,std::char_traits<char>,std::allocator<char> >,std::allocator<std::basic_string<char,std::char_traits<char>,std::allocator<char> > > >::size, COMDAT
; _this$ = ecx

; 1931 :         auto& _My_data = _Mypair._Myval2;
; 1932 :         return static_cast<size_type>(_My_data._Mylast - _My_data._Myfirst);

  00000	8b 41 04	 mov	 eax, DWORD PTR [ecx+4]
  00003	2b 01		 sub	 eax, DWORD PTR [ecx]
  00005	c1 f8 03	 sar	 eax, 3
  00008	69 c0 ab aa aa
	aa		 imul	 eax, eax, -1431655765

; 1933 :     }

  0000e	c3		 ret	 0
?size@?$vector@V?$basic_string@DU?$char_traits@D@std@@V?$allocator@D@2@@std@@V?$allocator@V?$basic_string@DU?$char_traits@D@std@@V?$allocator@D@2@@std@@@2@@std@@QBEIXZ ENDP ; std::vector<std::basic_string<char,std::char_traits<char>,std::allocator<char> >,std::allocator<std::basic_string<char,std::char_traits<char>,std::allocator<char> > > >::size
_TEXT	ENDS
; Function compile flags: /Ogtp
; File C:\Program Files\Microsoft Visual Studio\2022\Community\VC\Tools\MSVC\14.34.31933\include\vector
;	COMDAT ?_Xrange@?$vector@V?$basic_string@DU?$char_traits@D@std@@V?$allocator@D@2@@std@@V?$allocator@V?$basic_string@DU?$char_traits@D@std@@V?$allocator@D@2@@std@@@2@@std@@CAXXZ
_TEXT	SEGMENT
?_Xrange@?$vector@V?$basic_string@DU?$char_traits@D@std@@V?$allocator@D@2@@std@@V?$allocator@V?$basic_string@DU?$char_traits@D@std@@V?$allocator@D@2@@std@@@2@@std@@CAXXZ PROC ; std::vector<std::basic_string<char,std::char_traits<char>,std::allocator<char> >,std::allocator<std::basic_string<char,std::char_traits<char>,std::allocator<char> > > >::_Xrange, COMDAT

; 2205 :         _Xout_of_range("invalid vector subscript");

  00000	68 00 00 00 00	 push	 OFFSET ??_C@_0BJ@DHFDPMIM@invalid?5vector?5subscript@
  00005	e8 00 00 00 00	 call	 ?_Xout_of_range@std@@YAXPBD@Z ; std::_Xout_of_range
$LN3@Xrange:
  0000a	cc		 int	 3
?_Xrange@?$vector@V?$basic_string@DU?$char_traits@D@std@@V?$allocator@D@2@@std@@V?$allocator@V?$basic_string@DU?$char_traits@D@std@@V?$allocator@D@2@@std@@@2@@std@@CAXXZ ENDP ; std::vector<std::basic_string<char,std::char_traits<char>,std::allocator<char> >,std::allocator<std::basic_string<char,std::char_traits<char>,std::allocator<char> > > >::_Xrange
_TEXT	ENDS
END
