; Listing generated by Microsoft (R) Optimizing Compiler Version 19.34.31937.0 

	TITLE	e:\metin2_server\solwaynesf v6\clientvs22\vs_files\userinterface\distribute\pythonquest.obj
	.686P
	.XMM
	include listing.inc
	.model	flat

INCLUDELIB OLDNAMES

PUBLIC	??_C@_0CG@FJJGJNND@d?3?1ymir?5work?1ui?1game?1quest?1ques@ ; `string'
PUBLIC	??_C@_0CB@KNIDBLNN@Failed?5to?5find?5quest?5by?5index?5?$CF@ ; `string'
PUBLIC	??_C@_06CDFFKDJH@ibsisi@			; `string'
PUBLIC	??_C@_0BN@GHGBHNOC@season1?1icon?1scroll_open?4tga@ ; `string'
PUBLIC	??_C@_0N@PGFCKADA@GetQuestData@			; `string'
PUBLIC	??_C@_0O@HMKJHAHP@GetQuestCount@		; `string'
PUBLIC	??_C@_0BB@LFMNEJD@GetQuestLastTime@		; `string'
PUBLIC	??_C@_0O@KIBHOKLO@GetQuestIndex@		; `string'
PUBLIC	??_C@_0BK@CEDAENPB@GetQuestButtonNoticeCount@	; `string'
PUBLIC	??_C@_0BE@PALNKDGN@GetQuestCounterData@		; `string'
PUBLIC	??_C@_0O@IKHMHCIN@QUEST_MAX_NUM@		; `string'
PUBLIC	??_C@_05KOGNICEN@quest@				; `string'
PUBLIC	??_C@_0P@FINAMGA@QUEST_TYPE_SUB@		; `string'
PUBLIC	??_C@_0BA@CPLDIIBF@QUEST_TYPE_MAIN@		; `string'
PUBLIC	??_C@_0BB@MHGALJHE@QUEST_TYPE_EVENT@		; `string'
PUBLIC	??_C@_0BD@HGEGCJJ@QUEST_TYPE_LEVELUP@		; `string'
PUBLIC	??_C@_0BC@CKMAODGL@QUEST_TYPE_SYSTEM@		; `string'
PUBLIC	??_C@_0BG@LBKCFID@QUEST_TYPE_COLLECTION@	; `string'
PUBLIC	??_C@_0BB@CCAADENI@QUEST_TYPE_DAILY@		; `string'
PUBLIC	??_C@_0BC@CEDPDBHG@QUEST_TYPE_SCROLL@		; `string'
PUBLIC	??_C@_0P@BOEJNNLL@QUEST_TYPE_MAX@		; `string'
PUBLIC	??_C@_0BF@FJOOHN@QUEST_TYPE_UNEXPOSED@		; `string'
PUBLIC	??_C@_0BI@JFCIMFLB@QUEST_STRING_TYPE_CLOCK@	; `string'
PUBLIC	??_C@_0BJ@HCEEBJGO@QUEST_STRING_TYPE_NORMAL@	; `string'
PUBLIC	??_C@_0BI@CIKOJFFH@QUEST_STRING_TYPE_COUNT@	; `string'
PUBLIC	??_R2?$CSingleton@VCPythonQuest@@@@8		; CSingleton<CPythonQuest>::`RTTI Base Class Array'
PUBLIC	??_R2CPythonQuest@@8				; CPythonQuest::`RTTI Base Class Array'
PUBLIC	??_R1A@?0A@EA@?$CSingleton@VCPythonQuest@@@@8	; CSingleton<CPythonQuest>::`RTTI Base Class Descriptor at (0,-1,0,64)'
PUBLIC	??_R1A@?0A@EA@CPythonQuest@@8			; CPythonQuest::`RTTI Base Class Descriptor at (0,-1,0,64)'
PUBLIC	??_R0?AV?$CSingleton@VCPythonQuest@@@@@8	; CSingleton<CPythonQuest> `RTTI Type Descriptor'
PUBLIC	??_R3?$CSingleton@VCPythonQuest@@@@8		; CSingleton<CPythonQuest>::`RTTI Class Hierarchy Descriptor'
PUBLIC	??_R0?AVCPythonQuest@@@8			; CPythonQuest `RTTI Type Descriptor'
PUBLIC	??_R3CPythonQuest@@8				; CPythonQuest::`RTTI Class Hierarchy Descriptor'
PUBLIC	??_R4?$CSingleton@VCPythonQuest@@@@6B@		; CSingleton<CPythonQuest>::`RTTI Complete Object Locator'
PUBLIC	??_R4CPythonQuest@@6B@				; CPythonQuest::`RTTI Complete Object Locator'
PUBLIC	??_7?$CSingleton@VCPythonQuest@@@@6B@		; CSingleton<CPythonQuest>::`vftable'
PUBLIC	??_7CPythonQuest@@6B@				; CPythonQuest::`vftable'
;	COMDAT ??_7CPythonQuest@@6B@
CONST	SEGMENT
??_7CPythonQuest@@6B@ DD FLAT:??_R4CPythonQuest@@6B@	; CPythonQuest::`vftable'
	DD	FLAT:??_ECPythonQuest@@UAEPAXI@Z
CONST	ENDS
;	COMDAT ?s_methods@?1??initquest@@YAXXZ@4PAUPyMethodDef@@A
_DATA	SEGMENT
?s_methods@?1??initquest@@YAXXZ@4PAUPyMethodDef@@A DD FLAT:??_C@_0O@HMKJHAHP@GetQuestCount@ ; `initquest'::`2'::s_methods
	DD	FLAT:?questGetQuestCount@@YAPAU_object@@PAU1@0@Z
	DD	01H
	ORG $+4
	DD	FLAT:??_C@_0N@PGFCKADA@GetQuestData@
	DD	FLAT:?questGetQuestData@@YAPAU_object@@PAU1@0@Z
	DD	01H
	ORG $+4
	DD	FLAT:??_C@_0O@KIBHOKLO@GetQuestIndex@
	DD	FLAT:?questGetQuestIndex@@YAPAU_object@@PAU1@0@Z
	DD	01H
	ORG $+4
	DD	FLAT:??_C@_0BB@LFMNEJD@GetQuestLastTime@
	DD	FLAT:?questGetQuestLastTime@@YAPAU_object@@PAU1@0@Z
	DD	01H
	ORG $+4
	DD	FLAT:??_C@_05MDNHABIA@Clear@
	DD	FLAT:?questClear@@YAPAU_object@@PAU1@0@Z
	DD	01H
	ORG $+4
	DD	FLAT:??_C@_0BE@PALNKDGN@GetQuestCounterData@
	DD	FLAT:?questGetQuestCounterData@@YAPAU_object@@PAU1@0@Z
	DD	01H
	ORG $+4
	DD	FLAT:??_C@_0BK@CEDAENPB@GetQuestButtonNoticeCount@
	DD	FLAT:?questGetQuestButtonNoticeCount@@YAPAU_object@@PAU1@0@Z
	DD	01H
	ORG $+4
	DD	00H
	DD	00H
	DD	00H
	ORG $+4
_DATA	ENDS
;	COMDAT ??_7?$CSingleton@VCPythonQuest@@@@6B@
CONST	SEGMENT
??_7?$CSingleton@VCPythonQuest@@@@6B@ DD FLAT:??_R4?$CSingleton@VCPythonQuest@@@@6B@ ; CSingleton<CPythonQuest>::`vftable'
	DD	FLAT:??_E?$CSingleton@VCPythonQuest@@@@UAEPAXI@Z
CONST	ENDS
;	COMDAT ??_R4CPythonQuest@@6B@
rdata$r	SEGMENT
??_R4CPythonQuest@@6B@ DD 00H				; CPythonQuest::`RTTI Complete Object Locator'
	DD	00H
	DD	00H
	DD	FLAT:??_R0?AVCPythonQuest@@@8
	DD	FLAT:??_R3CPythonQuest@@8
rdata$r	ENDS
;	COMDAT ??_R4?$CSingleton@VCPythonQuest@@@@6B@
rdata$r	SEGMENT
??_R4?$CSingleton@VCPythonQuest@@@@6B@ DD 00H		; CSingleton<CPythonQuest>::`RTTI Complete Object Locator'
	DD	00H
	DD	00H
	DD	FLAT:??_R0?AV?$CSingleton@VCPythonQuest@@@@@8
	DD	FLAT:??_R3?$CSingleton@VCPythonQuest@@@@8
rdata$r	ENDS
;	COMDAT ??_R3CPythonQuest@@8
rdata$r	SEGMENT
??_R3CPythonQuest@@8 DD 00H				; CPythonQuest::`RTTI Class Hierarchy Descriptor'
	DD	00H
	DD	02H
	DD	FLAT:??_R2CPythonQuest@@8
rdata$r	ENDS
;	COMDAT ??_R0?AVCPythonQuest@@@8
data$rs	SEGMENT
??_R0?AVCPythonQuest@@@8 DD FLAT:??_7type_info@@6B@	; CPythonQuest `RTTI Type Descriptor'
	DD	00H
	DB	'.?AVCPythonQuest@@', 00H
data$rs	ENDS
;	COMDAT ??_R3?$CSingleton@VCPythonQuest@@@@8
rdata$r	SEGMENT
??_R3?$CSingleton@VCPythonQuest@@@@8 DD 00H		; CSingleton<CPythonQuest>::`RTTI Class Hierarchy Descriptor'
	DD	00H
	DD	01H
	DD	FLAT:??_R2?$CSingleton@VCPythonQuest@@@@8
rdata$r	ENDS
;	COMDAT ??_R0?AV?$CSingleton@VCPythonQuest@@@@@8
data$rs	SEGMENT
??_R0?AV?$CSingleton@VCPythonQuest@@@@@8 DD FLAT:??_7type_info@@6B@ ; CSingleton<CPythonQuest> `RTTI Type Descriptor'
	DD	00H
	DB	'.?AV?$CSingleton@VCPythonQuest@@@@', 00H
data$rs	ENDS
;	COMDAT ??_R1A@?0A@EA@CPythonQuest@@8
rdata$r	SEGMENT
??_R1A@?0A@EA@CPythonQuest@@8 DD FLAT:??_R0?AVCPythonQuest@@@8 ; CPythonQuest::`RTTI Base Class Descriptor at (0,-1,0,64)'
	DD	01H
	DD	00H
	DD	0ffffffffH
	DD	00H
	DD	040H
	DD	FLAT:??_R3CPythonQuest@@8
rdata$r	ENDS
;	COMDAT ??_R1A@?0A@EA@?$CSingleton@VCPythonQuest@@@@8
rdata$r	SEGMENT
??_R1A@?0A@EA@?$CSingleton@VCPythonQuest@@@@8 DD FLAT:??_R0?AV?$CSingleton@VCPythonQuest@@@@@8 ; CSingleton<CPythonQuest>::`RTTI Base Class Descriptor at (0,-1,0,64)'
	DD	00H
	DD	00H
	DD	0ffffffffH
	DD	00H
	DD	040H
	DD	FLAT:??_R3?$CSingleton@VCPythonQuest@@@@8
rdata$r	ENDS
;	COMDAT ??_R2CPythonQuest@@8
rdata$r	SEGMENT
??_R2CPythonQuest@@8 DD FLAT:??_R1A@?0A@EA@CPythonQuest@@8 ; CPythonQuest::`RTTI Base Class Array'
	DD	FLAT:??_R1A@?0A@EA@?$CSingleton@VCPythonQuest@@@@8
rdata$r	ENDS
;	COMDAT ??_R2?$CSingleton@VCPythonQuest@@@@8
rdata$r	SEGMENT
??_R2?$CSingleton@VCPythonQuest@@@@8 DD FLAT:??_R1A@?0A@EA@?$CSingleton@VCPythonQuest@@@@8 ; CSingleton<CPythonQuest>::`RTTI Base Class Array'
rdata$r	ENDS
;	COMDAT ??_C@_0BI@CIKOJFFH@QUEST_STRING_TYPE_COUNT@
CONST	SEGMENT
??_C@_0BI@CIKOJFFH@QUEST_STRING_TYPE_COUNT@ DB 'QUEST_STRING_TYPE_COUNT', 00H ; `string'
CONST	ENDS
;	COMDAT ??_C@_0BJ@HCEEBJGO@QUEST_STRING_TYPE_NORMAL@
CONST	SEGMENT
??_C@_0BJ@HCEEBJGO@QUEST_STRING_TYPE_NORMAL@ DB 'QUEST_STRING_TYPE_NORMAL'
	DB	00H						; `string'
CONST	ENDS
;	COMDAT ??_C@_0BI@JFCIMFLB@QUEST_STRING_TYPE_CLOCK@
CONST	SEGMENT
??_C@_0BI@JFCIMFLB@QUEST_STRING_TYPE_CLOCK@ DB 'QUEST_STRING_TYPE_CLOCK', 00H ; `string'
CONST	ENDS
;	COMDAT ??_C@_0BF@FJOOHN@QUEST_TYPE_UNEXPOSED@
CONST	SEGMENT
??_C@_0BF@FJOOHN@QUEST_TYPE_UNEXPOSED@ DB 'QUEST_TYPE_UNEXPOSED', 00H ; `string'
CONST	ENDS
;	COMDAT ??_C@_0P@BOEJNNLL@QUEST_TYPE_MAX@
CONST	SEGMENT
??_C@_0P@BOEJNNLL@QUEST_TYPE_MAX@ DB 'QUEST_TYPE_MAX', 00H ; `string'
CONST	ENDS
;	COMDAT ??_C@_0BC@CEDPDBHG@QUEST_TYPE_SCROLL@
CONST	SEGMENT
??_C@_0BC@CEDPDBHG@QUEST_TYPE_SCROLL@ DB 'QUEST_TYPE_SCROLL', 00H ; `string'
CONST	ENDS
;	COMDAT ??_C@_0BB@CCAADENI@QUEST_TYPE_DAILY@
CONST	SEGMENT
??_C@_0BB@CCAADENI@QUEST_TYPE_DAILY@ DB 'QUEST_TYPE_DAILY', 00H ; `string'
CONST	ENDS
;	COMDAT ??_C@_0BG@LBKCFID@QUEST_TYPE_COLLECTION@
CONST	SEGMENT
??_C@_0BG@LBKCFID@QUEST_TYPE_COLLECTION@ DB 'QUEST_TYPE_COLLECTION', 00H ; `string'
CONST	ENDS
;	COMDAT ??_C@_0BC@CKMAODGL@QUEST_TYPE_SYSTEM@
CONST	SEGMENT
??_C@_0BC@CKMAODGL@QUEST_TYPE_SYSTEM@ DB 'QUEST_TYPE_SYSTEM', 00H ; `string'
CONST	ENDS
;	COMDAT ??_C@_0BD@HGEGCJJ@QUEST_TYPE_LEVELUP@
CONST	SEGMENT
??_C@_0BD@HGEGCJJ@QUEST_TYPE_LEVELUP@ DB 'QUEST_TYPE_LEVELUP', 00H ; `string'
CONST	ENDS
;	COMDAT ??_C@_0BB@MHGALJHE@QUEST_TYPE_EVENT@
CONST	SEGMENT
??_C@_0BB@MHGALJHE@QUEST_TYPE_EVENT@ DB 'QUEST_TYPE_EVENT', 00H ; `string'
CONST	ENDS
;	COMDAT ??_C@_0BA@CPLDIIBF@QUEST_TYPE_MAIN@
CONST	SEGMENT
??_C@_0BA@CPLDIIBF@QUEST_TYPE_MAIN@ DB 'QUEST_TYPE_MAIN', 00H ; `string'
CONST	ENDS
;	COMDAT ??_C@_0P@FINAMGA@QUEST_TYPE_SUB@
CONST	SEGMENT
??_C@_0P@FINAMGA@QUEST_TYPE_SUB@ DB 'QUEST_TYPE_SUB', 00H ; `string'
CONST	ENDS
;	COMDAT ??_C@_05KOGNICEN@quest@
CONST	SEGMENT
??_C@_05KOGNICEN@quest@ DB 'quest', 00H			; `string'
CONST	ENDS
;	COMDAT ??_C@_0O@IKHMHCIN@QUEST_MAX_NUM@
CONST	SEGMENT
??_C@_0O@IKHMHCIN@QUEST_MAX_NUM@ DB 'QUEST_MAX_NUM', 00H ; `string'
CONST	ENDS
;	COMDAT ??_C@_0BE@PALNKDGN@GetQuestCounterData@
CONST	SEGMENT
??_C@_0BE@PALNKDGN@GetQuestCounterData@ DB 'GetQuestCounterData', 00H ; `string'
CONST	ENDS
;	COMDAT ??_C@_0BK@CEDAENPB@GetQuestButtonNoticeCount@
CONST	SEGMENT
??_C@_0BK@CEDAENPB@GetQuestButtonNoticeCount@ DB 'GetQuestButtonNoticeCou'
	DB	'nt', 00H					; `string'
CONST	ENDS
;	COMDAT ??_C@_0O@KIBHOKLO@GetQuestIndex@
CONST	SEGMENT
??_C@_0O@KIBHOKLO@GetQuestIndex@ DB 'GetQuestIndex', 00H ; `string'
CONST	ENDS
;	COMDAT ??_C@_0BB@LFMNEJD@GetQuestLastTime@
CONST	SEGMENT
??_C@_0BB@LFMNEJD@GetQuestLastTime@ DB 'GetQuestLastTime', 00H ; `string'
CONST	ENDS
;	COMDAT ??_C@_0O@HMKJHAHP@GetQuestCount@
CONST	SEGMENT
??_C@_0O@HMKJHAHP@GetQuestCount@ DB 'GetQuestCount', 00H ; `string'
CONST	ENDS
;	COMDAT ??_C@_0N@PGFCKADA@GetQuestData@
CONST	SEGMENT
??_C@_0N@PGFCKADA@GetQuestData@ DB 'GetQuestData', 00H	; `string'
CONST	ENDS
;	COMDAT ??_C@_0BN@GHGBHNOC@season1?1icon?1scroll_open?4tga@
CONST	SEGMENT
??_C@_0BN@GHGBHNOC@season1?1icon?1scroll_open?4tga@ DB 'season1/icon/scro'
	DB	'll_open.tga', 00H				; `string'
CONST	ENDS
;	COMDAT ??_C@_06CDFFKDJH@ibsisi@
CONST	SEGMENT
??_C@_06CDFFKDJH@ibsisi@ DB 'ibsisi', 00H		; `string'
CONST	ENDS
;	COMDAT ??_C@_0CB@KNIDBLNN@Failed?5to?5find?5quest?5by?5index?5?$CF@
CONST	SEGMENT
??_C@_0CB@KNIDBLNN@Failed?5to?5find?5quest?5by?5index?5?$CF@ DB 'Failed t'
	DB	'o find quest by index %d', 00H		; `string'
CONST	ENDS
;	COMDAT ??_C@_0CG@FJJGJNND@d?3?1ymir?5work?1ui?1game?1quest?1ques@
CONST	SEGMENT
??_C@_0CG@FJJGJNND@d?3?1ymir?5work?1ui?1game?1quest?1ques@ DB 'd:/ymir wo'
	DB	'rk/ui/game/quest/questicon/', 00H		; `string'
PUBLIC	??$construct_at@USQuestInstance@CPythonQuest@@ABU12@$0A@@std@@YAPAUSQuestInstance@CPythonQuest@@QAU12@ABU12@@Z ; std::construct_at<CPythonQuest::SQuestInstance,CPythonQuest::SQuestInstance const &,0>
PUBLIC	??$_Emplace_back@USQuestInstance@CPythonQuest@@@?$_Uninitialized_backout_al@V?$allocator@USQuestInstance@CPythonQuest@@@std@@@std@@QAEX$$QAUSQuestInstance@CPythonQuest@@@Z ; std::_Uninitialized_backout_al<std::allocator<CPythonQuest::SQuestInstance> >::_Emplace_back<CPythonQuest::SQuestInstance>
PUBLIC	??$_Voidify_iter@PAUSQuestInstance@CPythonQuest@@@std@@YAPAXPAUSQuestInstance@CPythonQuest@@@Z ; std::_Voidify_iter<CPythonQuest::SQuestInstance *>
PUBLIC	??$construct_at@USQuestInstance@CPythonQuest@@U12@$0A@@std@@YAPAUSQuestInstance@CPythonQuest@@QAU12@$$QAU12@@Z ; std::construct_at<CPythonQuest::SQuestInstance,CPythonQuest::SQuestInstance,0>
PUBLIC	??$addressof@USQuestInstance@CPythonQuest@@@std@@YAPAUSQuestInstance@CPythonQuest@@AAU12@@Z ; std::addressof<CPythonQuest::SQuestInstance>
PUBLIC	??0?$_Uninitialized_backout_al@V?$allocator@USQuestInstance@CPythonQuest@@@std@@@std@@QAE@PAUSQuestInstance@CPythonQuest@@AAV?$allocator@USQuestInstance@CPythonQuest@@@1@@Z ; std::_Uninitialized_backout_al<std::allocator<CPythonQuest::SQuestInstance> >::_Uninitialized_backout_al<std::allocator<CPythonQuest::SQuestInstance> >
PUBLIC	??1?$_Uninitialized_backout_al@V?$allocator@USQuestInstance@CPythonQuest@@@std@@@std@@QAE@XZ ; std::_Uninitialized_backout_al<std::allocator<CPythonQuest::SQuestInstance> >::~_Uninitialized_backout_al<std::allocator<CPythonQuest::SQuestInstance> >
PUBLIC	?_Release@?$_Uninitialized_backout_al@V?$allocator@USQuestInstance@CPythonQuest@@@std@@@std@@QAEPAUSQuestInstance@CPythonQuest@@XZ ; std::_Uninitialized_backout_al<std::allocator<CPythonQuest::SQuestInstance> >::_Release
PUBLIC	??0SQuestInstance@CPythonQuest@@QAE@ABU01@@Z	; CPythonQuest::SQuestInstance::SQuestInstance
PUBLIC	??0SQuestInstance@CPythonQuest@@QAE@$$QAU01@@Z	; CPythonQuest::SQuestInstance::SQuestInstance
PUBLIC	??$_Get_size_of_n@$0HE@@std@@YAII@Z		; std::_Get_size_of_n<116>
PUBLIC	??$_Refancy@PAUSQuestInstance@CPythonQuest@@$0A@@std@@YAPAUSQuestInstance@CPythonQuest@@PAU12@@Z ; std::_Refancy<CPythonQuest::SQuestInstance *,0>
PUBLIC	??$construct@USQuestInstance@CPythonQuest@@ABU12@@?$_Default_allocator_traits@V?$allocator@USQuestInstance@CPythonQuest@@@std@@@std@@SAXAAV?$allocator@USQuestInstance@CPythonQuest@@@1@QAUSQuestInstance@CPythonQuest@@ABU34@@Z ; std::_Default_allocator_traits<std::allocator<CPythonQuest::SQuestInstance> >::construct<CPythonQuest::SQuestInstance,CPythonQuest::SQuestInstance const &>
PUBLIC	??$_Uninitialized_move@PAUSQuestInstance@CPythonQuest@@V?$allocator@USQuestInstance@CPythonQuest@@@std@@@std@@YAPAUSQuestInstance@CPythonQuest@@QAU12@0PAU12@AAV?$allocator@USQuestInstance@CPythonQuest@@@0@@Z ; std::_Uninitialized_move<CPythonQuest::SQuestInstance *,std::allocator<CPythonQuest::SQuestInstance> >
PUBLIC	??$_Get_unwrapped@ABQAUSQuestInstance@CPythonQuest@@@std@@YA?A_TABQAUSQuestInstance@CPythonQuest@@@Z ; std::_Get_unwrapped<CPythonQuest::SQuestInstance * const &>
PUBLIC	??$construct@USQuestInstance@CPythonQuest@@U12@@?$_Default_allocator_traits@V?$allocator@USQuestInstance@CPythonQuest@@@std@@@std@@SAXAAV?$allocator@USQuestInstance@CPythonQuest@@@1@QAUSQuestInstance@CPythonQuest@@$$QAU34@@Z ; std::_Default_allocator_traits<std::allocator<CPythonQuest::SQuestInstance> >::construct<CPythonQuest::SQuestInstance,CPythonQuest::SQuestInstance>
PUBLIC	??$_Construct_in_place@USQuestInstance@CPythonQuest@@U12@@std@@YAXAAUSQuestInstance@CPythonQuest@@$$QAU12@@Z ; std::_Construct_in_place<CPythonQuest::SQuestInstance,CPythonQuest::SQuestInstance>
PUBLIC	??$forward@AAPAUSQuestInstance@CPythonQuest@@@std@@YAAAPAUSQuestInstance@CPythonQuest@@AAPAU12@@Z ; std::forward<CPythonQuest::SQuestInstance * &>
PUBLIC	?_Get_first@?$_Compressed_pair@V?$allocator@USQuestInstance@CPythonQuest@@@std@@V?$_Vector_val@U?$_Simple_types@USQuestInstance@CPythonQuest@@@std@@@2@$00@std@@QBEABV?$allocator@USQuestInstance@CPythonQuest@@@2@XZ ; std::_Compressed_pair<std::allocator<CPythonQuest::SQuestInstance>,std::_Vector_val<std::_Simple_types<CPythonQuest::SQuestInstance> >,1>::_Get_first
PUBLIC	?max_size@?$_Default_allocator_traits@V?$allocator@USQuestInstance@CPythonQuest@@@std@@@std@@SAIABV?$allocator@USQuestInstance@CPythonQuest@@@2@@Z ; std::_Default_allocator_traits<std::allocator<CPythonQuest::SQuestInstance> >::max_size
PUBLIC	?capacity@?$vector@USQuestInstance@CPythonQuest@@V?$allocator@USQuestInstance@CPythonQuest@@@std@@@std@@QBEIXZ ; std::vector<CPythonQuest::SQuestInstance,std::allocator<CPythonQuest::SQuestInstance> >::capacity
PUBLIC	?_Getal@?$vector@USQuestInstance@CPythonQuest@@V?$allocator@USQuestInstance@CPythonQuest@@@std@@@std@@ABEABV?$allocator@USQuestInstance@CPythonQuest@@@2@XZ ; std::vector<CPythonQuest::SQuestInstance,std::allocator<CPythonQuest::SQuestInstance> >::_Getal
PUBLIC	?allocate@?$allocator@USQuestInstance@CPythonQuest@@@std@@QAEPAUSQuestInstance@CPythonQuest@@I@Z ; std::allocator<CPythonQuest::SQuestInstance>::allocate
PUBLIC	?max_size@?$vector@USQuestInstance@CPythonQuest@@V?$allocator@USQuestInstance@CPythonQuest@@@std@@@std@@QBEIXZ ; std::vector<CPythonQuest::SQuestInstance,std::allocator<CPythonQuest::SQuestInstance> >::max_size
PUBLIC	?_Calculate_growth@?$vector@USQuestInstance@CPythonQuest@@V?$allocator@USQuestInstance@CPythonQuest@@@std@@@std@@ABEII@Z ; std::vector<CPythonQuest::SQuestInstance,std::allocator<CPythonQuest::SQuestInstance> >::_Calculate_growth
PUBLIC	?_Change_array@?$vector@USQuestInstance@CPythonQuest@@V?$allocator@USQuestInstance@CPythonQuest@@@std@@@std@@AAEXQAUSQuestInstance@CPythonQuest@@II@Z ; std::vector<CPythonQuest::SQuestInstance,std::allocator<CPythonQuest::SQuestInstance> >::_Change_array
PUBLIC	?_Xlength@?$vector@USQuestInstance@CPythonQuest@@V?$allocator@USQuestInstance@CPythonQuest@@@std@@@std@@CAXXZ ; std::vector<CPythonQuest::SQuestInstance,std::allocator<CPythonQuest::SQuestInstance> >::_Xlength
PUBLIC	?_Seek_to@?$_Vector_const_iterator@V?$_Vector_val@U?$_Simple_types@USQuestInstance@CPythonQuest@@@std@@@std@@@std@@QAEXPBUSQuestInstance@CPythonQuest@@@Z ; std::_Vector_const_iterator<std::_Vector_val<std::_Simple_types<CPythonQuest::SQuestInstance> > >::_Seek_to
PUBLIC	??_GSQuestInstance@CPythonQuest@@QAEPAXI@Z	; CPythonQuest::SQuestInstance::`scalar deleting destructor'
PUBLIC	??$_Emplace_reallocate@ABUSQuestInstance@CPythonQuest@@@?$vector@USQuestInstance@CPythonQuest@@V?$allocator@USQuestInstance@CPythonQuest@@@std@@@std@@AAEPAUSQuestInstance@CPythonQuest@@QAU23@ABU23@@Z ; std::vector<CPythonQuest::SQuestInstance,std::allocator<CPythonQuest::SQuestInstance> >::_Emplace_reallocate<CPythonQuest::SQuestInstance const &>
PUBLIC	??$_Emplace_back_with_unused_capacity@ABUSQuestInstance@CPythonQuest@@@?$vector@USQuestInstance@CPythonQuest@@V?$allocator@USQuestInstance@CPythonQuest@@@std@@@std@@AAEAAUSQuestInstance@CPythonQuest@@ABU23@@Z ; std::vector<CPythonQuest::SQuestInstance,std::allocator<CPythonQuest::SQuestInstance> >::_Emplace_back_with_unused_capacity<CPythonQuest::SQuestInstance const &>
PUBLIC	??$forward@ABUSQuestInstance@CPythonQuest@@@std@@YAABUSQuestInstance@CPythonQuest@@ABU12@@Z ; std::forward<CPythonQuest::SQuestInstance const &>
PUBLIC	??$_Emplace_reallocate@USQuestInstance@CPythonQuest@@@?$vector@USQuestInstance@CPythonQuest@@V?$allocator@USQuestInstance@CPythonQuest@@@std@@@std@@AAEPAUSQuestInstance@CPythonQuest@@QAU23@$$QAU23@@Z ; std::vector<CPythonQuest::SQuestInstance,std::allocator<CPythonQuest::SQuestInstance> >::_Emplace_reallocate<CPythonQuest::SQuestInstance>
PUBLIC	??$_Emplace_back_with_unused_capacity@USQuestInstance@CPythonQuest@@@?$vector@USQuestInstance@CPythonQuest@@V?$allocator@USQuestInstance@CPythonQuest@@@std@@@std@@AAEAAUSQuestInstance@CPythonQuest@@$$QAU23@@Z ; std::vector<CPythonQuest::SQuestInstance,std::allocator<CPythonQuest::SQuestInstance> >::_Emplace_back_with_unused_capacity<CPythonQuest::SQuestInstance>
PUBLIC	??$forward@USQuestInstance@CPythonQuest@@@std@@YA$$QAUSQuestInstance@CPythonQuest@@AAU12@@Z ; std::forward<CPythonQuest::SQuestInstance>
PUBLIC	??$destroy_at@USQuestInstance@CPythonQuest@@@std@@YAXQAUSQuestInstance@CPythonQuest@@@Z ; std::destroy_at<CPythonQuest::SQuestInstance>
PUBLIC	??$_Seek_wrapped@V?$_Vector_iterator@V?$_Vector_val@U?$_Simple_types@USQuestInstance@CPythonQuest@@@std@@@std@@@std@@AAPAUSQuestInstance@CPythonQuest@@@std@@YAXAAV?$_Vector_iterator@V?$_Vector_val@U?$_Simple_types@USQuestInstance@CPythonQuest@@@std@@@std@@@0@AAPAUSQuestInstance@CPythonQuest@@@Z ; std::_Seek_wrapped<std::_Vector_iterator<std::_Vector_val<std::_Simple_types<CPythonQuest::SQuestInstance> > >,CPythonQuest::SQuestInstance * &>
PUBLIC	??$_Adl_verify_range@V?$_Vector_iterator@V?$_Vector_val@U?$_Simple_types@USQuestInstance@CPythonQuest@@@std@@@std@@@std@@V12@@std@@YAXABV?$_Vector_iterator@V?$_Vector_val@U?$_Simple_types@USQuestInstance@CPythonQuest@@@std@@@std@@@0@0@Z ; std::_Adl_verify_range<std::_Vector_iterator<std::_Vector_val<std::_Simple_types<CPythonQuest::SQuestInstance> > >,std::_Vector_iterator<std::_Vector_val<std::_Simple_types<CPythonQuest::SQuestInstance> > > >
PUBLIC	??0?$allocator@USQuestInstance@CPythonQuest@@@std@@QAE@XZ ; std::allocator<CPythonQuest::SQuestInstance>::allocator<CPythonQuest::SQuestInstance>
PUBLIC	??0?$_Vector_val@U?$_Simple_types@USQuestInstance@CPythonQuest@@@std@@@std@@QAE@XZ ; std::_Vector_val<std::_Simple_types<CPythonQuest::SQuestInstance> >::_Vector_val<std::_Simple_types<CPythonQuest::SQuestInstance> >
PUBLIC	??G?$_Vector_const_iterator@V?$_Vector_val@U?$_Simple_types@USQuestInstance@CPythonQuest@@@std@@@std@@@std@@QBEHABV01@@Z ; std::_Vector_const_iterator<std::_Vector_val<std::_Simple_types<CPythonQuest::SQuestInstance> > >::operator-
PUBLIC	??$move@AAV?$_Vector_iterator@V?$_Vector_val@U?$_Simple_types@USQuestInstance@CPythonQuest@@@std@@@std@@@std@@@std@@YA$$QAV?$_Vector_iterator@V?$_Vector_val@U?$_Simple_types@USQuestInstance@CPythonQuest@@@std@@@std@@@0@AAV10@@Z ; std::move<std::_Vector_iterator<std::_Vector_val<std::_Simple_types<CPythonQuest::SQuestInstance> > > &>
PUBLIC	??$?0$$V@?$_Compressed_pair@V?$allocator@USQuestInstance@CPythonQuest@@@std@@V?$_Vector_val@U?$_Simple_types@USQuestInstance@CPythonQuest@@@std@@@2@$00@std@@QAE@U_Zero_then_variadic_args_t@1@@Z ; std::_Compressed_pair<std::allocator<CPythonQuest::SQuestInstance>,std::_Vector_val<std::_Simple_types<CPythonQuest::SQuestInstance> >,1>::_Compressed_pair<std::allocator<CPythonQuest::SQuestInstance>,std::_Vector_val<std::_Simple_types<CPythonQuest::SQuestInstance> >,1><>
PUBLIC	??$_Emplace_one_at_back@ABUSQuestInstance@CPythonQuest@@@?$vector@USQuestInstance@CPythonQuest@@V?$allocator@USQuestInstance@CPythonQuest@@@std@@@std@@AAEAAUSQuestInstance@CPythonQuest@@ABU23@@Z ; std::vector<CPythonQuest::SQuestInstance,std::allocator<CPythonQuest::SQuestInstance> >::_Emplace_one_at_back<CPythonQuest::SQuestInstance const &>
PUBLIC	??$_Emplace_one_at_back@USQuestInstance@CPythonQuest@@@?$vector@USQuestInstance@CPythonQuest@@V?$allocator@USQuestInstance@CPythonQuest@@@std@@@std@@AAEAAUSQuestInstance@CPythonQuest@@$$QAU23@@Z ; std::vector<CPythonQuest::SQuestInstance,std::allocator<CPythonQuest::SQuestInstance> >::_Emplace_one_at_back<CPythonQuest::SQuestInstance>
PUBLIC	??$destroy@USQuestInstance@CPythonQuest@@@?$_Default_allocator_traits@V?$allocator@USQuestInstance@CPythonQuest@@@std@@@std@@SAXAAV?$allocator@USQuestInstance@CPythonQuest@@@1@QAUSQuestInstance@CPythonQuest@@@Z ; std::_Default_allocator_traits<std::allocator<CPythonQuest::SQuestInstance> >::destroy<CPythonQuest::SQuestInstance>
PUBLIC	??$_Unfancy@USQuestInstance@CPythonQuest@@@std@@YAPAUSQuestInstance@CPythonQuest@@PAU12@@Z ; std::_Unfancy<CPythonQuest::SQuestInstance>
PUBLIC	??4SQuestInstance@CPythonQuest@@QAEAAU01@$$QAU01@@Z ; CPythonQuest::SQuestInstance::operator=
PUBLIC	??$_Move_unchecked@PAUSQuestInstance@CPythonQuest@@PAU12@@std@@YAPAUSQuestInstance@CPythonQuest@@PAU12@00@Z ; std::_Move_unchecked<CPythonQuest::SQuestInstance *,CPythonQuest::SQuestInstance *>
PUBLIC	??$_Destroy_range@V?$allocator@USQuestInstance@CPythonQuest@@@std@@@std@@YAXPAUSQuestInstance@CPythonQuest@@QAU12@AAV?$allocator@USQuestInstance@CPythonQuest@@@0@@Z ; std::_Destroy_range<std::allocator<CPythonQuest::SQuestInstance> >
PUBLIC	??$addressof@V?$_Vector_val@U?$_Simple_types@USQuestInstance@CPythonQuest@@@std@@@std@@@std@@YAPAV?$_Vector_val@U?$_Simple_types@USQuestInstance@CPythonQuest@@@std@@@0@AAV10@@Z ; std::addressof<std::_Vector_val<std::_Simple_types<CPythonQuest::SQuestInstance> > >
PUBLIC	??$distance@V?$_Vector_iterator@V?$_Vector_val@U?$_Simple_types@USQuestInstance@CPythonQuest@@@std@@@std@@@std@@@std@@YAHV?$_Vector_iterator@V?$_Vector_val@U?$_Simple_types@USQuestInstance@CPythonQuest@@@std@@@std@@@0@0@Z ; std::distance<std::_Vector_iterator<std::_Vector_val<std::_Simple_types<CPythonQuest::SQuestInstance> > > >
PUBLIC	?_Unwrapped@?$_Vector_iterator@V?$_Vector_val@U?$_Simple_types@USQuestInstance@CPythonQuest@@@std@@@std@@@std@@QBEPAUSQuestInstance@CPythonQuest@@XZ ; std::_Vector_iterator<std::_Vector_val<std::_Simple_types<CPythonQuest::SQuestInstance> > >::_Unwrapped
PUBLIC	??$_Get_unwrapped@ABV?$_Vector_iterator@V?$_Vector_val@U?$_Simple_types@USQuestInstance@CPythonQuest@@@std@@@std@@@std@@@std@@YA?A_TABV?$_Vector_iterator@V?$_Vector_val@U?$_Simple_types@USQuestInstance@CPythonQuest@@@std@@@std@@@0@@Z ; std::_Get_unwrapped<std::_Vector_iterator<std::_Vector_val<std::_Simple_types<CPythonQuest::SQuestInstance> > > const &>
PUBLIC	??$_Get_unwrapped@AAV?$_Vector_iterator@V?$_Vector_val@U?$_Simple_types@USQuestInstance@CPythonQuest@@@std@@@std@@@std@@@std@@YA?A_TAAV?$_Vector_iterator@V?$_Vector_val@U?$_Simple_types@USQuestInstance@CPythonQuest@@@std@@@std@@@0@@Z ; std::_Get_unwrapped<std::_Vector_iterator<std::_Vector_val<std::_Simple_types<CPythonQuest::SQuestInstance> > > &>
PUBLIC	??$find_if@V?$_Vector_iterator@V?$_Vector_val@U?$_Simple_types@USQuestInstance@CPythonQuest@@@std@@@std@@@std@@UFQuestInstanceCompare@@@std@@YA?AV?$_Vector_iterator@V?$_Vector_val@U?$_Simple_types@USQuestInstance@CPythonQuest@@@std@@@std@@@0@V10@V10@UFQuestInstanceCompare@@@Z ; std::find_if<std::_Vector_iterator<std::_Vector_val<std::_Simple_types<CPythonQuest::SQuestInstance> > >,FQuestInstanceCompare>
PUBLIC	??$move@AAUSQuestInstance@CPythonQuest@@@std@@YA$$QAUSQuestInstance@CPythonQuest@@AAU12@@Z ; std::move<CPythonQuest::SQuestInstance &>
PUBLIC	?deallocate@?$allocator@USQuestInstance@CPythonQuest@@@std@@QAEXQAUSQuestInstance@CPythonQuest@@I@Z ; std::allocator<CPythonQuest::SQuestInstance>::deallocate
PUBLIC	?_Get_first@?$_Compressed_pair@V?$allocator@USQuestInstance@CPythonQuest@@@std@@V?$_Vector_val@U?$_Simple_types@USQuestInstance@CPythonQuest@@@std@@@2@$00@std@@QAEAAV?$allocator@USQuestInstance@CPythonQuest@@@2@XZ ; std::_Compressed_pair<std::allocator<CPythonQuest::SQuestInstance>,std::_Vector_val<std::_Simple_types<CPythonQuest::SQuestInstance> >,1>::_Get_first
PUBLIC	??F?$_Vector_const_iterator@V?$_Vector_val@U?$_Simple_types@USQuestInstance@CPythonQuest@@@std@@@std@@@std@@QAEAAV01@XZ ; std::_Vector_const_iterator<std::_Vector_val<std::_Simple_types<CPythonQuest::SQuestInstance> > >::operator--
PUBLIC	?_Tidy@?$vector@USQuestInstance@CPythonQuest@@V?$allocator@USQuestInstance@CPythonQuest@@@std@@@std@@AAEXXZ ; std::vector<CPythonQuest::SQuestInstance,std::allocator<CPythonQuest::SQuestInstance> >::_Tidy
PUBLIC	?_Orphan_range@?$vector@USQuestInstance@CPythonQuest@@V?$allocator@USQuestInstance@CPythonQuest@@@std@@@std@@ABEXPAUSQuestInstance@CPythonQuest@@0@Z ; std::vector<CPythonQuest::SQuestInstance,std::allocator<CPythonQuest::SQuestInstance> >::_Orphan_range
PUBLIC	?_Getal@?$vector@USQuestInstance@CPythonQuest@@V?$allocator@USQuestInstance@CPythonQuest@@@std@@@std@@AAEAAV?$allocator@USQuestInstance@CPythonQuest@@@2@XZ ; std::vector<CPythonQuest::SQuestInstance,std::allocator<CPythonQuest::SQuestInstance> >::_Getal
PUBLIC	??0?$_Vector_const_iterator@V?$_Vector_val@U?$_Simple_types@USQuestInstance@CPythonQuest@@@std@@@std@@@std@@QAE@PAUSQuestInstance@CPythonQuest@@PBU_Container_base0@1@@Z ; std::_Vector_const_iterator<std::_Vector_val<std::_Simple_types<CPythonQuest::SQuestInstance> > >::_Vector_const_iterator<std::_Vector_val<std::_Simple_types<CPythonQuest::SQuestInstance> > >
PUBLIC	??D?$_Vector_const_iterator@V?$_Vector_val@U?$_Simple_types@USQuestInstance@CPythonQuest@@@std@@@std@@@std@@QBEABUSQuestInstance@CPythonQuest@@XZ ; std::_Vector_const_iterator<std::_Vector_val<std::_Simple_types<CPythonQuest::SQuestInstance> > >::operator*
PUBLIC	?_Compat@?$_Vector_const_iterator@V?$_Vector_val@U?$_Simple_types@USQuestInstance@CPythonQuest@@@std@@@std@@@std@@QBEXABV12@@Z ; std::_Vector_const_iterator<std::_Vector_val<std::_Simple_types<CPythonQuest::SQuestInstance> > >::_Compat
PUBLIC	??F?$_Vector_iterator@V?$_Vector_val@U?$_Simple_types@USQuestInstance@CPythonQuest@@@std@@@std@@@std@@QAEAAV01@XZ ; std::_Vector_iterator<std::_Vector_val<std::_Simple_types<CPythonQuest::SQuestInstance> > >::operator--
PUBLIC	??0?$reverse_iterator@V?$_Vector_iterator@V?$_Vector_val@U?$_Simple_types@USQuestInstance@CPythonQuest@@@std@@@std@@@std@@@std@@QAE@V?$_Vector_iterator@V?$_Vector_val@U?$_Simple_types@USQuestInstance@CPythonQuest@@@std@@@std@@@1@@Z ; std::reverse_iterator<std::_Vector_iterator<std::_Vector_val<std::_Simple_types<CPythonQuest::SQuestInstance> > > >::reverse_iterator<std::_Vector_iterator<std::_Vector_val<std::_Simple_types<CPythonQuest::SQuestInstance> > > >
PUBLIC	??_G?$CSingleton@VCPythonQuest@@@@UAEPAXI@Z	; CSingleton<CPythonQuest>::`scalar deleting destructor'
PUBLIC	??0?$CSingleton@VCPythonQuest@@@@QAE@XZ		; CSingleton<CPythonQuest>::CSingleton<CPythonQuest>
PUBLIC	??1?$CSingleton@VCPythonQuest@@@@UAE@XZ		; CSingleton<CPythonQuest>::~CSingleton<CPythonQuest>
PUBLIC	??0?$vector@USQuestInstance@CPythonQuest@@V?$allocator@USQuestInstance@CPythonQuest@@@std@@@std@@QAE@XZ ; std::vector<CPythonQuest::SQuestInstance,std::allocator<CPythonQuest::SQuestInstance> >::vector<CPythonQuest::SQuestInstance,std::allocator<CPythonQuest::SQuestInstance> >
PUBLIC	??1?$vector@USQuestInstance@CPythonQuest@@V?$allocator@USQuestInstance@CPythonQuest@@@std@@@std@@QAE@XZ ; std::vector<CPythonQuest::SQuestInstance,std::allocator<CPythonQuest::SQuestInstance> >::~vector<CPythonQuest::SQuestInstance,std::allocator<CPythonQuest::SQuestInstance> >
PUBLIC	?push_back@?$vector@USQuestInstance@CPythonQuest@@V?$allocator@USQuestInstance@CPythonQuest@@@std@@@std@@QAEXABUSQuestInstance@CPythonQuest@@@Z ; std::vector<CPythonQuest::SQuestInstance,std::allocator<CPythonQuest::SQuestInstance> >::push_back
PUBLIC	?push_back@?$vector@USQuestInstance@CPythonQuest@@V?$allocator@USQuestInstance@CPythonQuest@@@std@@@std@@QAEX$$QAUSQuestInstance@CPythonQuest@@@Z ; std::vector<CPythonQuest::SQuestInstance,std::allocator<CPythonQuest::SQuestInstance> >::push_back
PUBLIC	?erase@?$vector@USQuestInstance@CPythonQuest@@V?$allocator@USQuestInstance@CPythonQuest@@@std@@@std@@QAE?AV?$_Vector_iterator@V?$_Vector_val@U?$_Simple_types@USQuestInstance@CPythonQuest@@@std@@@std@@@2@V?$_Vector_const_iterator@V?$_Vector_val@U?$_Simple_types@USQuestInstance@CPythonQuest@@@std@@@std@@@2@@Z ; std::vector<CPythonQuest::SQuestInstance,std::allocator<CPythonQuest::SQuestInstance> >::erase
PUBLIC	?clear@?$vector@USQuestInstance@CPythonQuest@@V?$allocator@USQuestInstance@CPythonQuest@@@std@@@std@@QAEXXZ ; std::vector<CPythonQuest::SQuestInstance,std::allocator<CPythonQuest::SQuestInstance> >::clear
PUBLIC	?begin@?$vector@USQuestInstance@CPythonQuest@@V?$allocator@USQuestInstance@CPythonQuest@@@std@@@std@@QAE?AV?$_Vector_iterator@V?$_Vector_val@U?$_Simple_types@USQuestInstance@CPythonQuest@@@std@@@std@@@2@XZ ; std::vector<CPythonQuest::SQuestInstance,std::allocator<CPythonQuest::SQuestInstance> >::begin
PUBLIC	??0?$_Vector_iterator@V?$_Vector_val@U?$_Simple_types@USQuestInstance@CPythonQuest@@@std@@@std@@@std@@QAE@PAUSQuestInstance@CPythonQuest@@PBU_Container_base0@1@@Z ; std::_Vector_iterator<std::_Vector_val<std::_Simple_types<CPythonQuest::SQuestInstance> > >::_Vector_iterator<std::_Vector_val<std::_Simple_types<CPythonQuest::SQuestInstance> > >
PUBLIC	?end@?$vector@USQuestInstance@CPythonQuest@@V?$allocator@USQuestInstance@CPythonQuest@@@std@@@std@@QAE?AV?$_Vector_iterator@V?$_Vector_val@U?$_Simple_types@USQuestInstance@CPythonQuest@@@std@@@std@@@2@XZ ; std::vector<CPythonQuest::SQuestInstance,std::allocator<CPythonQuest::SQuestInstance> >::end
PUBLIC	?rbegin@?$vector@USQuestInstance@CPythonQuest@@V?$allocator@USQuestInstance@CPythonQuest@@@std@@@std@@QAE?AV?$reverse_iterator@V?$_Vector_iterator@V?$_Vector_val@U?$_Simple_types@USQuestInstance@CPythonQuest@@@std@@@std@@@std@@@2@XZ ; std::vector<CPythonQuest::SQuestInstance,std::allocator<CPythonQuest::SQuestInstance> >::rbegin
PUBLIC	?_Unchecked_begin@?$vector@USQuestInstance@CPythonQuest@@V?$allocator@USQuestInstance@CPythonQuest@@@std@@@std@@QAEPAUSQuestInstance@CPythonQuest@@XZ ; std::vector<CPythonQuest::SQuestInstance,std::allocator<CPythonQuest::SQuestInstance> >::_Unchecked_begin
PUBLIC	?_Unchecked_end@?$vector@USQuestInstance@CPythonQuest@@V?$allocator@USQuestInstance@CPythonQuest@@@std@@@std@@QAEPAUSQuestInstance@CPythonQuest@@XZ ; std::vector<CPythonQuest::SQuestInstance,std::allocator<CPythonQuest::SQuestInstance> >::_Unchecked_end
PUBLIC	?size@?$vector@USQuestInstance@CPythonQuest@@V?$allocator@USQuestInstance@CPythonQuest@@@std@@@std@@QBEIXZ ; std::vector<CPythonQuest::SQuestInstance,std::allocator<CPythonQuest::SQuestInstance> >::size
PUBLIC	??A?$vector@USQuestInstance@CPythonQuest@@V?$allocator@USQuestInstance@CPythonQuest@@@std@@@std@@QAEAAUSQuestInstance@CPythonQuest@@I@Z ; std::vector<CPythonQuest::SQuestInstance,std::allocator<CPythonQuest::SQuestInstance> >::operator[]
PUBLIC	??8?$_Vector_const_iterator@V?$_Vector_val@U?$_Simple_types@USQuestInstance@CPythonQuest@@@std@@@std@@@std@@QBE_NABV01@@Z ; std::_Vector_const_iterator<std::_Vector_val<std::_Simple_types<CPythonQuest::SQuestInstance> > >::operator==
PUBLIC	??D?$_Vector_iterator@V?$_Vector_val@U?$_Simple_types@USQuestInstance@CPythonQuest@@@std@@@std@@@std@@QBEAAUSQuestInstance@CPythonQuest@@XZ ; std::_Vector_iterator<std::_Vector_val<std::_Simple_types<CPythonQuest::SQuestInstance> > >::operator*
PUBLIC	??D?$reverse_iterator@V?$_Vector_iterator@V?$_Vector_val@U?$_Simple_types@USQuestInstance@CPythonQuest@@@std@@@std@@@std@@@std@@QBEAAUSQuestInstance@CPythonQuest@@XZ ; std::reverse_iterator<std::_Vector_iterator<std::_Vector_val<std::_Simple_types<CPythonQuest::SQuestInstance> > > >::operator*
PUBLIC	?initquest@@YAXXZ				; initquest
PUBLIC	?questGetQuestButtonNoticeCount@@YAPAU_object@@PAU1@0@Z ; questGetQuestButtonNoticeCount
PUBLIC	?questGetQuestCounterData@@YAPAU_object@@PAU1@0@Z ; questGetQuestCounterData
PUBLIC	?questClear@@YAPAU_object@@PAU1@0@Z		; questClear
PUBLIC	?questGetQuestLastTime@@YAPAU_object@@PAU1@0@Z	; questGetQuestLastTime
PUBLIC	?questGetQuestIndex@@YAPAU_object@@PAU1@0@Z	; questGetQuestIndex
PUBLIC	?questGetQuestData@@YAPAU_object@@PAU1@0@Z	; questGetQuestData
PUBLIC	?questGetQuestCount@@YAPAU_object@@PAU1@0@Z	; questGetQuestCount
PUBLIC	??_GCPythonQuest@@UAEPAXI@Z			; CPythonQuest::`scalar deleting destructor'
PUBLIC	?Clear@CPythonQuest@@QAEXXZ			; CPythonQuest::Clear
PUBLIC	?__Initialize@CPythonQuest@@IAEXXZ		; CPythonQuest::__Initialize
PUBLIC	?__GetQuestInstancePtr@CPythonQuest@@IAE_NKPAPAUSQuestInstance@1@@Z ; CPythonQuest::__GetQuestInstancePtr
PUBLIC	?GetQuestInstancePtr@CPythonQuest@@QAE_NKPAPAUSQuestInstance@1@@Z ; CPythonQuest::GetQuestInstancePtr
PUBLIC	?GetQuestButtonNoticeCount@CPythonQuest@@QAEHE@Z ; CPythonQuest::GetQuestButtonNoticeCount
PUBLIC	?GetQuestCount@CPythonQuest@@QAEHXZ		; CPythonQuest::GetQuestCount
PUBLIC	??RFQuestInstanceCompare@@QAE_NABUSQuestInstance@CPythonQuest@@@Z ; FQuestInstanceCompare::operator()
PUBLIC	??0FQuestInstanceCompare@@QAE@K@Z		; FQuestInstanceCompare::FQuestInstanceCompare
PUBLIC	?DeleteQuestInstance@CPythonQuest@@QAEXK@Z	; CPythonQuest::DeleteQuestInstance
PUBLIC	?IsQuest@CPythonQuest@@QAE_NK@Z			; CPythonQuest::IsQuest
PUBLIC	?MakeQuest@CPythonQuest@@QAEXKE_N@Z		; CPythonQuest::MakeQuest
PUBLIC	?SetQuestTitle@CPythonQuest@@QAEXKPBD@Z		; CPythonQuest::SetQuestTitle
PUBLIC	?SetQuestClockName@CPythonQuest@@QAEXKPBD@Z	; CPythonQuest::SetQuestClockName
PUBLIC	?SetQuestCounterName@CPythonQuest@@QAEXKPBD@Z	; CPythonQuest::SetQuestCounterName
PUBLIC	?SetQuestIconFileName@CPythonQuest@@QAEXKPBD@Z	; CPythonQuest::SetQuestIconFileName
PUBLIC	?SetQuestClockValue@CPythonQuest@@QAEXKH@Z	; CPythonQuest::SetQuestClockValue
PUBLIC	?SetQuestCounterValue@CPythonQuest@@QAEXKH@Z	; CPythonQuest::SetQuestCounterValue
PUBLIC	?SetQuestIsConfirmed@CPythonQuest@@QAEXK_N@Z	; CPythonQuest::SetQuestIsConfirmed
PUBLIC	?RegisterQuestInstance@CPythonQuest@@QAEXABUSQuestInstance@1@@Z ; CPythonQuest::RegisterQuestInstance
PUBLIC	??0CPythonQuest@@QAE@XZ				; CPythonQuest::CPythonQuest
PUBLIC	??1CPythonQuest@@UAE@XZ				; CPythonQuest::~CPythonQuest
EXTRN	??_ECPythonQuest@@UAEPAXI@Z:PROC		; CPythonQuest::`vector deleting destructor'
EXTRN	??_E?$CSingleton@VCPythonQuest@@@@UAEPAXI@Z:PROC ; CSingleton<CPythonQuest>::`vector deleting destructor'
;	COMDAT xdata$x
xdata$x	SEGMENT
__ehfuncinfo$?MakeQuest@CPythonQuest@@QAEXKE_N@Z DD 019930522H
	DD	01H
	DD	FLAT:__unwindtable$?MakeQuest@CPythonQuest@@QAEXKE_N@Z
	DD	2 DUP(00H)
	DD	2 DUP(00H)
	DD	00H
	DD	01H
__unwindtable$?MakeQuest@CPythonQuest@@QAEXKE_N@Z DD 0ffffffffH
	DD	FLAT:__unwindfunclet$?MakeQuest@CPythonQuest@@QAEXKE_N@Z$0
xdata$x	ENDS
;	COMDAT xdata$x
xdata$x	SEGMENT
__ehfuncinfo$?questGetQuestData@@YAPAU_object@@PAU1@0@Z DD 019930522H
	DD	02H
	DD	FLAT:__unwindtable$?questGetQuestData@@YAPAU_object@@PAU1@0@Z
	DD	2 DUP(00H)
	DD	2 DUP(00H)
	DD	00H
	DD	01H
__unwindtable$?questGetQuestData@@YAPAU_object@@PAU1@0@Z DD 0ffffffffH
	DD	FLAT:__unwindfunclet$?questGetQuestData@@YAPAU_object@@PAU1@0@Z$0
	DD	0ffffffffH
	DD	FLAT:__unwindfunclet$?questGetQuestData@@YAPAU_object@@PAU1@0@Z$1
xdata$x	ENDS
;	COMDAT xdata$x
xdata$x	SEGMENT
__ehfuncinfo$??$_Emplace_reallocate@ABUSQuestInstance@CPythonQuest@@@?$vector@USQuestInstance@CPythonQuest@@V?$allocator@USQuestInstance@CPythonQuest@@@std@@@std@@AAEPAUSQuestInstance@CPythonQuest@@QAU23@ABU23@@Z DD 019930522H
	DD	02H
	DD	FLAT:__unwindtable$??$_Emplace_reallocate@ABUSQuestInstance@CPythonQuest@@@?$vector@USQuestInstance@CPythonQuest@@V?$allocator@USQuestInstance@CPythonQuest@@@std@@@std@@AAEPAUSQuestInstance@CPythonQuest@@QAU23@ABU23@@Z
	DD	01H
	DD	FLAT:__tryblocktable$??$_Emplace_reallocate@ABUSQuestInstance@CPythonQuest@@@?$vector@USQuestInstance@CPythonQuest@@V?$allocator@USQuestInstance@CPythonQuest@@@std@@@std@@AAEPAUSQuestInstance@CPythonQuest@@QAU23@ABU23@@Z
	DD	2 DUP(00H)
	DD	00H
	DD	01H
__unwindtable$??$_Emplace_reallocate@ABUSQuestInstance@CPythonQuest@@@?$vector@USQuestInstance@CPythonQuest@@V?$allocator@USQuestInstance@CPythonQuest@@@std@@@std@@AAEPAUSQuestInstance@CPythonQuest@@QAU23@ABU23@@Z DD 0ffffffffH
	DD	00H
	DD	0ffffffffH
	DD	00H
__tryblocktable$??$_Emplace_reallocate@ABUSQuestInstance@CPythonQuest@@@?$vector@USQuestInstance@CPythonQuest@@V?$allocator@USQuestInstance@CPythonQuest@@@std@@@std@@AAEPAUSQuestInstance@CPythonQuest@@QAU23@ABU23@@Z DD 00H
	DD	00H
	DD	01H
	DD	01H
	DD	FLAT:__catchsym$??$_Emplace_reallocate@ABUSQuestInstance@CPythonQuest@@@?$vector@USQuestInstance@CPythonQuest@@V?$allocator@USQuestInstance@CPythonQuest@@@std@@@std@@AAEPAUSQuestInstance@CPythonQuest@@QAU23@ABU23@@Z$2
__catchsym$??$_Emplace_reallocate@ABUSQuestInstance@CPythonQuest@@@?$vector@USQuestInstance@CPythonQuest@@V?$allocator@USQuestInstance@CPythonQuest@@@std@@@std@@AAEPAUSQuestInstance@CPythonQuest@@QAU23@ABU23@@Z$2 DD 040H
	DD	00H
	DD	00H
	DD	FLAT:__catch$??$_Emplace_reallocate@ABUSQuestInstance@CPythonQuest@@@?$vector@USQuestInstance@CPythonQuest@@V?$allocator@USQuestInstance@CPythonQuest@@@std@@@std@@AAEPAUSQuestInstance@CPythonQuest@@QAU23@ABU23@@Z$0
xdata$x	ENDS
;	COMDAT xdata$x
xdata$x	SEGMENT
__ehfuncinfo$??0SQuestInstance@CPythonQuest@@QAE@ABU01@@Z DD 019930522H
	DD	03H
	DD	FLAT:__unwindtable$??0SQuestInstance@CPythonQuest@@QAE@ABU01@@Z
	DD	2 DUP(00H)
	DD	2 DUP(00H)
	DD	00H
	DD	01H
__unwindtable$??0SQuestInstance@CPythonQuest@@QAE@ABU01@@Z DD 0ffffffffH
	DD	FLAT:__unwindfunclet$??0SQuestInstance@CPythonQuest@@QAE@ABU01@@Z$0
	DD	00H
	DD	FLAT:__unwindfunclet$??0SQuestInstance@CPythonQuest@@QAE@ABU01@@Z$1
	DD	01H
	DD	FLAT:__unwindfunclet$??0SQuestInstance@CPythonQuest@@QAE@ABU01@@Z$2
; Function compile flags: /Ogtp
; File E:\Metin2_server\SolWayneSF v6\ClientVS22\source\UserInterface\PythonQuest.cpp
; File E:\Metin2_server\SolWayneSF v6\ClientVS22\source\eterBase\Singleton.h
; File E:\Metin2_server\SolWayneSF v6\ClientVS22\source\UserInterface\PythonQuest.cpp
;	COMDAT ??1CPythonQuest@@UAE@XZ
_TEXT	SEGMENT
??1CPythonQuest@@UAE@XZ PROC				; CPythonQuest::~CPythonQuest, COMDAT
; _this$ = ecx

; 213  : {

  00000	56		 push	 esi
  00001	8b f1		 mov	 esi, ecx
  00003	c7 06 00 00 00
	00		 mov	 DWORD PTR [esi], OFFSET ??_7CPythonQuest@@6B@

; 214  : 	Clear();

  00009	e8 00 00 00 00	 call	 ?Clear@CPythonQuest@@QAEXXZ ; CPythonQuest::Clear

; 215  : }

  0000e	8d 4e 04	 lea	 ecx, DWORD PTR [esi+4]
  00011	e8 00 00 00 00	 call	 ??1?$vector@USQuestInstance@CPythonQuest@@V?$allocator@USQuestInstance@CPythonQuest@@@std@@@std@@QAE@XZ ; std::vector<CPythonQuest::SQuestInstance,std::allocator<CPythonQuest::SQuestInstance> >::~vector<CPythonQuest::SQuestInstance,std::allocator<CPythonQuest::SQuestInstance> >
; File E:\Metin2_server\SolWayneSF v6\ClientVS22\source\eterBase\Singleton.h

; 19   : 	{ 

  00016	c7 06 00 00 00
	00		 mov	 DWORD PTR [esi], OFFSET ??_7?$CSingleton@VCPythonQuest@@@@6B@

; 20   : 		assert(ms_singleton);
; 21   : 		ms_singleton = 0; 

  0001c	c7 05 00 00 00
	00 00 00 00 00	 mov	 DWORD PTR ?ms_singleton@?$CSingleton@VCPythonQuest@@@@0PAVCPythonQuest@@A, 0 ; CSingleton<CPythonQuest>::ms_singleton
  00026	5e		 pop	 esi
; File E:\Metin2_server\SolWayneSF v6\ClientVS22\source\UserInterface\PythonQuest.cpp

; 215  : }

  00027	c3		 ret	 0
??1CPythonQuest@@UAE@XZ ENDP				; CPythonQuest::~CPythonQuest
_TEXT	ENDS
; Function compile flags: /Ogtp
; File E:\Metin2_server\SolWayneSF v6\ClientVS22\source\UserInterface\PythonQuest.cpp
; File E:\Metin2_server\SolWayneSF v6\ClientVS22\source\eterBase\Singleton.h
; File E:\Metin2_server\SolWayneSF v6\ClientVS22\source\UserInterface\PythonQuest.cpp
; File C:\Program Files\Microsoft Visual Studio\2022\Community\VC\Tools\MSVC\14.34.31933\include\vector
; File E:\Metin2_server\SolWayneSF v6\ClientVS22\source\UserInterface\PythonQuest.cpp
;	COMDAT ??0CPythonQuest@@QAE@XZ
_TEXT	SEGMENT
??0CPythonQuest@@QAE@XZ PROC				; CPythonQuest::CPythonQuest, COMDAT
; _this$ = ecx
; File E:\Metin2_server\SolWayneSF v6\ClientVS22\source\eterBase\Singleton.h

; 15   : 		ms_singleton = (T*) ((int) this + offset);

  00000	89 0d 00 00 00
	00		 mov	 DWORD PTR ?ms_singleton@?$CSingleton@VCPythonQuest@@@@0PAVCPythonQuest@@A, ecx ; CSingleton<CPythonQuest>::ms_singleton
; File E:\Metin2_server\SolWayneSF v6\ClientVS22\source\UserInterface\PythonQuest.cpp

; 210  : }

  00006	8b c1		 mov	 eax, ecx
  00008	c7 01 00 00 00
	00		 mov	 DWORD PTR [ecx], OFFSET ??_7CPythonQuest@@6B@
; File C:\Program Files\Microsoft Visual Studio\2022\Community\VC\Tools\MSVC\14.34.31933\include\vector

; 390  :     _CONSTEXPR20 _Vector_val() noexcept : _Myfirst(), _Mylast(), _Myend() {}

  0000e	c7 41 04 00 00
	00 00		 mov	 DWORD PTR [ecx+4], 0
  00015	c7 41 08 00 00
	00 00		 mov	 DWORD PTR [ecx+8], 0
  0001c	c7 41 0c 00 00
	00 00		 mov	 DWORD PTR [ecx+12], 0
; File E:\Metin2_server\SolWayneSF v6\ClientVS22\source\UserInterface\PythonQuest.cpp

; 210  : }

  00023	c3		 ret	 0
??0CPythonQuest@@QAE@XZ ENDP				; CPythonQuest::CPythonQuest
_TEXT	ENDS
; Function compile flags: /Ogtp
; File E:\Metin2_server\SolWayneSF v6\ClientVS22\source\UserInterface\PythonQuest.cpp
; File C:\Program Files\Microsoft Visual Studio\2022\Community\VC\Tools\MSVC\14.34.31933\include\vector
; File E:\Metin2_server\SolWayneSF v6\ClientVS22\source\UserInterface\PythonQuest.cpp
; File C:\Program Files\Microsoft Visual Studio\2022\Community\VC\Tools\MSVC\14.34.31933\include\vector
; File E:\Metin2_server\SolWayneSF v6\ClientVS22\source\UserInterface\PythonQuest.cpp
; File C:\Program Files\Microsoft Visual Studio\2022\Community\VC\Tools\MSVC\14.34.31933\include\xutility
; File E:\Metin2_server\SolWayneSF v6\ClientVS22\source\UserInterface\PythonQuest.cpp
;	COMDAT ?RegisterQuestInstance@CPythonQuest@@QAEXABUSQuestInstance@1@@Z
_TEXT	SEGMENT
_c_rQuestInstance$ = 8					; size = 4
?RegisterQuestInstance@CPythonQuest@@QAEXABUSQuestInstance@1@@Z PROC ; CPythonQuest::RegisterQuestInstance, COMDAT
; _this$ = ecx

; 5    : {

  00000	55		 push	 ebp
  00001	8b ec		 mov	 ebp, esp
  00003	56		 push	 esi
  00004	57		 push	 edi

; 6    : 	DeleteQuestInstance(c_rQuestInstance.dwIndex);

  00005	8b 7d 08	 mov	 edi, DWORD PTR _c_rQuestInstance$[ebp]
  00008	8b f1		 mov	 esi, ecx
  0000a	ff 37		 push	 DWORD PTR [edi]
  0000c	e8 00 00 00 00	 call	 ?DeleteQuestInstance@CPythonQuest@@QAEXK@Z ; CPythonQuest::DeleteQuestInstance
; File C:\Program Files\Microsoft Visual Studio\2022\Community\VC\Tools\MSVC\14.34.31933\include\vector

; 844  :         if (_Mylast != _My_data._Myend) {

  00011	8b 46 08	 mov	 eax, DWORD PTR [esi+8]
; File E:\Metin2_server\SolWayneSF v6\ClientVS22\source\UserInterface\PythonQuest.cpp

; 7    : 	m_QuestInstanceContainer.push_back(c_rQuestInstance);

  00014	8d 4e 04	 lea	 ecx, DWORD PTR [esi+4]
; File C:\Program Files\Microsoft Visual Studio\2022\Community\VC\Tools\MSVC\14.34.31933\include\vector

; 844  :         if (_Mylast != _My_data._Myend) {

  00017	57		 push	 edi
  00018	3b 46 0c	 cmp	 eax, DWORD PTR [esi+12]
  0001b	74 0d		 je	 SHORT $LN6@RegisterQu

; 869  :         ++_Mylast;

  0001d	8b c8		 mov	 ecx, eax
  0001f	e8 00 00 00 00	 call	 ??0SQuestInstance@CPythonQuest@@QAE@ABU01@@Z
  00024	83 46 08 74	 add	 DWORD PTR [esi+8], 116	; 00000074H

; 845  :             return _Emplace_back_with_unused_capacity(_STD forward<_Valty>(_Val)...);

  00028	eb 06		 jmp	 SHORT $LN5@RegisterQu
$LN6@RegisterQu:

; 846  :         }
; 847  : 
; 848  :         return *_Emplace_reallocate(_Mylast, _STD forward<_Valty>(_Val)...);

  0002a	50		 push	 eax
  0002b	e8 00 00 00 00	 call	 ??$_Emplace_reallocate@ABUSQuestInstance@CPythonQuest@@@?$vector@USQuestInstance@CPythonQuest@@V?$allocator@USQuestInstance@CPythonQuest@@@std@@@std@@AAEPAUSQuestInstance@CPythonQuest@@QAU23@ABU23@@Z ; std::vector<CPythonQuest::SQuestInstance,std::allocator<CPythonQuest::SQuestInstance> >::_Emplace_reallocate<CPythonQuest::SQuestInstance const &>
$LN5@RegisterQu:
; File E:\Metin2_server\SolWayneSF v6\ClientVS22\source\UserInterface\PythonQuest.cpp

; 12   : 	rQuestInstance.iStartTime = int(CTimer::Instance().GetCurrentSecond());

  00030	8b 0d 00 00 00
	00		 mov	 ecx, DWORD PTR ?ms_singleton@?$CSingleton@VCTimer@@@@0PAVCTimer@@A ; CSingleton<CTimer>::ms_singleton
; File C:\Program Files\Microsoft Visual Studio\2022\Community\VC\Tools\MSVC\14.34.31933\include\xutility

; 1234 :         : current(_STD move(_Right)) {}

  00036	8b 76 08	 mov	 esi, DWORD PTR [esi+8]
; File E:\Metin2_server\SolWayneSF v6\ClientVS22\source\UserInterface\PythonQuest.cpp

; 12   : 	rQuestInstance.iStartTime = int(CTimer::Instance().GetCurrentSecond());

  00039	e8 00 00 00 00	 call	 ?GetCurrentSecond@CTimer@@QAEMXZ ; CTimer::GetCurrentSecond
  0003e	e8 00 00 00 00	 call	 __ftol2_sse
  00043	5f		 pop	 edi
  00044	89 46 f8	 mov	 DWORD PTR [esi-8], eax
  00047	5e		 pop	 esi

; 13   : }

  00048	5d		 pop	 ebp
  00049	c2 04 00	 ret	 4
?RegisterQuestInstance@CPythonQuest@@QAEXABUSQuestInstance@1@@Z ENDP ; CPythonQuest::RegisterQuestInstance
_TEXT	ENDS
; Function compile flags: /Ogtp
; File E:\Metin2_server\SolWayneSF v6\ClientVS22\source\UserInterface\PythonQuest.cpp
;	COMDAT ?SetQuestIsConfirmed@CPythonQuest@@QAEXK_N@Z
_TEXT	SEGMENT
_pQuestInstance$ = -4					; size = 4
_dwIndex$ = 8						; size = 4
_bIsConfirmed$ = 12					; size = 1
?SetQuestIsConfirmed@CPythonQuest@@QAEXK_N@Z PROC	; CPythonQuest::SetQuestIsConfirmed, COMDAT
; _this$ = ecx

; 117  : {

  00000	55		 push	 ebp
  00001	8b ec		 mov	 ebp, esp
  00003	51		 push	 ecx

; 118  : 	SQuestInstance* pQuestInstance;
; 119  : 	if (!__GetQuestInstancePtr(dwIndex, &pQuestInstance))

  00004	8d 45 fc	 lea	 eax, DWORD PTR _pQuestInstance$[ebp]
  00007	50		 push	 eax
  00008	ff 75 08	 push	 DWORD PTR _dwIndex$[ebp]
  0000b	e8 00 00 00 00	 call	 ?__GetQuestInstancePtr@CPythonQuest@@IAE_NKPAPAUSQuestInstance@1@@Z ; CPythonQuest::__GetQuestInstancePtr
  00010	84 c0		 test	 al, al
  00012	74 09		 je	 SHORT $LN1@SetQuestIs

; 120  : 		return;
; 121  : 
; 122  : 	pQuestInstance->bIsConfirmed = bIsConfirmed;

  00014	8b 45 fc	 mov	 eax, DWORD PTR _pQuestInstance$[ebp]
  00017	8a 4d 0c	 mov	 cl, BYTE PTR _bIsConfirmed$[ebp]
  0001a	88 48 71	 mov	 BYTE PTR [eax+113], cl
$LN1@SetQuestIs:

; 123  : }

  0001d	8b e5		 mov	 esp, ebp
  0001f	5d		 pop	 ebp
  00020	c2 08 00	 ret	 8
?SetQuestIsConfirmed@CPythonQuest@@QAEXK_N@Z ENDP	; CPythonQuest::SetQuestIsConfirmed
_TEXT	ENDS
; Function compile flags: /Ogtp
; File E:\Metin2_server\SolWayneSF v6\ClientVS22\source\UserInterface\PythonQuest.cpp
;	COMDAT ?SetQuestCounterValue@CPythonQuest@@QAEXKH@Z
_TEXT	SEGMENT
_pQuestInstance$ = -4					; size = 4
_dwIndex$ = 8						; size = 4
_iCounterValue$ = 12					; size = 4
?SetQuestCounterValue@CPythonQuest@@QAEXKH@Z PROC	; CPythonQuest::SetQuestCounterValue, COMDAT
; _this$ = ecx

; 99   : {

  00000	55		 push	 ebp
  00001	8b ec		 mov	 ebp, esp
  00003	51		 push	 ecx

; 100  : 	SQuestInstance * pQuestInstance;
; 101  : 	if (!__GetQuestInstancePtr(dwIndex, &pQuestInstance))

  00004	8d 45 fc	 lea	 eax, DWORD PTR _pQuestInstance$[ebp]
  00007	50		 push	 eax
  00008	ff 75 08	 push	 DWORD PTR _dwIndex$[ebp]
  0000b	e8 00 00 00 00	 call	 ?__GetQuestInstancePtr@CPythonQuest@@IAE_NKPAPAUSQuestInstance@1@@Z ; CPythonQuest::__GetQuestInstancePtr
  00010	84 c0		 test	 al, al
  00012	74 09		 je	 SHORT $LN1@SetQuestCo

; 102  : 		return;
; 103  : 
; 104  : 	pQuestInstance->iCounterValue = iCounterValue;

  00014	8b 45 fc	 mov	 eax, DWORD PTR _pQuestInstance$[ebp]
  00017	8b 4d 0c	 mov	 ecx, DWORD PTR _iCounterValue$[ebp]
  0001a	89 48 68	 mov	 DWORD PTR [eax+104], ecx
$LN1@SetQuestCo:

; 105  : }

  0001d	8b e5		 mov	 esp, ebp
  0001f	5d		 pop	 ebp
  00020	c2 08 00	 ret	 8
?SetQuestCounterValue@CPythonQuest@@QAEXKH@Z ENDP	; CPythonQuest::SetQuestCounterValue
_TEXT	ENDS
; Function compile flags: /Ogtp
; File E:\Metin2_server\SolWayneSF v6\ClientVS22\source\UserInterface\PythonQuest.cpp
;	COMDAT ?SetQuestClockValue@CPythonQuest@@QAEXKH@Z
_TEXT	SEGMENT
_pQuestInstance$ = -4					; size = 4
_dwIndex$ = 8						; size = 4
_iClockValue$ = 12					; size = 4
?SetQuestClockValue@CPythonQuest@@QAEXKH@Z PROC		; CPythonQuest::SetQuestClockValue, COMDAT
; _this$ = ecx

; 89   : {

  00000	55		 push	 ebp
  00001	8b ec		 mov	 ebp, esp
  00003	51		 push	 ecx

; 90   : 	SQuestInstance * pQuestInstance;
; 91   : 	if (!__GetQuestInstancePtr(dwIndex, &pQuestInstance))

  00004	8d 45 fc	 lea	 eax, DWORD PTR _pQuestInstance$[ebp]
  00007	50		 push	 eax
  00008	ff 75 08	 push	 DWORD PTR _dwIndex$[ebp]
  0000b	e8 00 00 00 00	 call	 ?__GetQuestInstancePtr@CPythonQuest@@IAE_NKPAPAUSQuestInstance@1@@Z ; CPythonQuest::__GetQuestInstancePtr
  00010	84 c0		 test	 al, al
  00012	74 1e		 je	 SHORT $LN1@SetQuestCl

; 92   : 		return;
; 93   : 
; 94   : 	pQuestInstance->iClockValue = iClockValue;

  00014	8b 45 0c	 mov	 eax, DWORD PTR _iClockValue$[ebp]
  00017	56		 push	 esi
  00018	8b 75 fc	 mov	 esi, DWORD PTR _pQuestInstance$[ebp]
  0001b	89 46 64	 mov	 DWORD PTR [esi+100], eax

; 95   : 	pQuestInstance->iStartTime = int(CTimer::Instance().GetCurrentSecond());

  0001e	8b 0d 00 00 00
	00		 mov	 ecx, DWORD PTR ?ms_singleton@?$CSingleton@VCTimer@@@@0PAVCTimer@@A ; CSingleton<CTimer>::ms_singleton
  00024	e8 00 00 00 00	 call	 ?GetCurrentSecond@CTimer@@QAEMXZ ; CTimer::GetCurrentSecond
  00029	e8 00 00 00 00	 call	 __ftol2_sse
  0002e	89 46 6c	 mov	 DWORD PTR [esi+108], eax
  00031	5e		 pop	 esi
$LN1@SetQuestCl:

; 96   : }

  00032	8b e5		 mov	 esp, ebp
  00034	5d		 pop	 ebp
  00035	c2 08 00	 ret	 8
?SetQuestClockValue@CPythonQuest@@QAEXKH@Z ENDP		; CPythonQuest::SetQuestClockValue
_TEXT	ENDS
; Function compile flags: /Ogtp
; File E:\Metin2_server\SolWayneSF v6\ClientVS22\source\UserInterface\PythonQuest.cpp
; File C:\Program Files\Microsoft Visual Studio\2022\Community\VC\Tools\MSVC\14.34.31933\include\xstring
; File E:\Metin2_server\SolWayneSF v6\ClientVS22\source\UserInterface\PythonQuest.cpp
; File C:\Program Files\Microsoft Visual Studio\2022\Community\VC\Tools\MSVC\14.34.31933\include\xstring
; File E:\Metin2_server\SolWayneSF v6\ClientVS22\source\UserInterface\PythonQuest.cpp
; File C:\Program Files\Microsoft Visual Studio\2022\Community\VC\Tools\MSVC\14.34.31933\include\xstring
; File E:\Metin2_server\SolWayneSF v6\ClientVS22\source\UserInterface\PythonQuest.cpp
;	COMDAT ?SetQuestIconFileName@CPythonQuest@@QAEXKPBD@Z
_TEXT	SEGMENT
_pQuestInstance$ = -4					; size = 4
_dwIndex$ = 8						; size = 4
_c_szIconFileName$ = 12					; size = 4
?SetQuestIconFileName@CPythonQuest@@QAEXKPBD@Z PROC	; CPythonQuest::SetQuestIconFileName, COMDAT
; _this$ = ecx

; 108  : {

  00000	55		 push	 ebp
  00001	8b ec		 mov	 ebp, esp
  00003	51		 push	 ecx

; 109  : 	SQuestInstance * pQuestInstance;
; 110  : 	if (!__GetQuestInstancePtr(dwIndex, &pQuestInstance))

  00004	8d 45 fc	 lea	 eax, DWORD PTR _pQuestInstance$[ebp]
  00007	50		 push	 eax
  00008	ff 75 08	 push	 DWORD PTR _dwIndex$[ebp]
  0000b	e8 00 00 00 00	 call	 ?__GetQuestInstancePtr@CPythonQuest@@IAE_NKPAPAUSQuestInstance@1@@Z ; CPythonQuest::__GetQuestInstancePtr
  00010	84 c0		 test	 al, al
  00012	74 23		 je	 SHORT $LN1@SetQuestIc
; File C:\Program Files\Microsoft Visual Studio\2022\Community\VC\Tools\MSVC\14.34.31933\include\xstring

; 415  :             return __builtin_strlen(_First);

  00014	8b 55 0c	 mov	 edx, DWORD PTR _c_szIconFileName$[ebp]
  00017	8b c2		 mov	 eax, edx
  00019	56		 push	 esi
  0001a	8d 70 01	 lea	 esi, DWORD PTR [eax+1]
  0001d	0f 1f 00	 npad	 3
$LL10@SetQuestIc:
  00020	8a 08		 mov	 cl, BYTE PTR [eax]
  00022	40		 inc	 eax
  00023	84 c9		 test	 cl, cl
  00025	75 f9		 jne	 SHORT $LL10@SetQuestIc
; File E:\Metin2_server\SolWayneSF v6\ClientVS22\source\UserInterface\PythonQuest.cpp

; 113  : 	pQuestInstance->strIconFileName = c_szIconFileName;

  00027	8b 4d fc	 mov	 ecx, DWORD PTR _pQuestInstance$[ebp]
; File C:\Program Files\Microsoft Visual Studio\2022\Community\VC\Tools\MSVC\14.34.31933\include\xstring

; 415  :             return __builtin_strlen(_First);

  0002a	2b c6		 sub	 eax, esi

; 3546 :         return assign(_Ptr, _Convert_size<size_type>(_Traits::length(_Ptr)));

  0002c	50		 push	 eax
  0002d	52		 push	 edx
; File E:\Metin2_server\SolWayneSF v6\ClientVS22\source\UserInterface\PythonQuest.cpp

; 113  : 	pQuestInstance->strIconFileName = c_szIconFileName;

  0002e	8d 49 04	 lea	 ecx, DWORD PTR [ecx+4]
; File C:\Program Files\Microsoft Visual Studio\2022\Community\VC\Tools\MSVC\14.34.31933\include\xstring

; 3546 :         return assign(_Ptr, _Convert_size<size_type>(_Traits::length(_Ptr)));

  00031	e8 00 00 00 00	 call	 ?assign@?$basic_string@DU?$char_traits@D@std@@V?$allocator@D@2@@std@@QAEAAV12@QBDI@Z ; std::basic_string<char,std::char_traits<char>,std::allocator<char> >::assign
  00036	5e		 pop	 esi
$LN1@SetQuestIc:
; File E:\Metin2_server\SolWayneSF v6\ClientVS22\source\UserInterface\PythonQuest.cpp

; 114  : }

  00037	8b e5		 mov	 esp, ebp
  00039	5d		 pop	 ebp
  0003a	c2 08 00	 ret	 8
?SetQuestIconFileName@CPythonQuest@@QAEXKPBD@Z ENDP	; CPythonQuest::SetQuestIconFileName
_TEXT	ENDS
; Function compile flags: /Ogtp
; File E:\Metin2_server\SolWayneSF v6\ClientVS22\source\UserInterface\PythonQuest.cpp
; File C:\Program Files\Microsoft Visual Studio\2022\Community\VC\Tools\MSVC\14.34.31933\include\xstring
; File E:\Metin2_server\SolWayneSF v6\ClientVS22\source\UserInterface\PythonQuest.cpp
; File C:\Program Files\Microsoft Visual Studio\2022\Community\VC\Tools\MSVC\14.34.31933\include\xstring
; File E:\Metin2_server\SolWayneSF v6\ClientVS22\source\UserInterface\PythonQuest.cpp
; File C:\Program Files\Microsoft Visual Studio\2022\Community\VC\Tools\MSVC\14.34.31933\include\xstring
; File E:\Metin2_server\SolWayneSF v6\ClientVS22\source\UserInterface\PythonQuest.cpp
;	COMDAT ?SetQuestCounterName@CPythonQuest@@QAEXKPBD@Z
_TEXT	SEGMENT
_pQuestInstance$ = -4					; size = 4
_dwIndex$ = 8						; size = 4
_c_szCounterName$ = 12					; size = 4
?SetQuestCounterName@CPythonQuest@@QAEXKPBD@Z PROC	; CPythonQuest::SetQuestCounterName, COMDAT
; _this$ = ecx

; 80   : {

  00000	55		 push	 ebp
  00001	8b ec		 mov	 ebp, esp
  00003	51		 push	 ecx

; 81   : 	SQuestInstance * pQuestInstance;
; 82   : 	if (!__GetQuestInstancePtr(dwIndex, &pQuestInstance))

  00004	8d 45 fc	 lea	 eax, DWORD PTR _pQuestInstance$[ebp]
  00007	50		 push	 eax
  00008	ff 75 08	 push	 DWORD PTR _dwIndex$[ebp]
  0000b	e8 00 00 00 00	 call	 ?__GetQuestInstancePtr@CPythonQuest@@IAE_NKPAPAUSQuestInstance@1@@Z ; CPythonQuest::__GetQuestInstancePtr
  00010	84 c0		 test	 al, al
  00012	74 23		 je	 SHORT $LN1@SetQuestCo
; File C:\Program Files\Microsoft Visual Studio\2022\Community\VC\Tools\MSVC\14.34.31933\include\xstring

; 415  :             return __builtin_strlen(_First);

  00014	8b 55 0c	 mov	 edx, DWORD PTR _c_szCounterName$[ebp]
  00017	8b c2		 mov	 eax, edx
  00019	56		 push	 esi
  0001a	8d 70 01	 lea	 esi, DWORD PTR [eax+1]
  0001d	0f 1f 00	 npad	 3
$LL10@SetQuestCo:
  00020	8a 08		 mov	 cl, BYTE PTR [eax]
  00022	40		 inc	 eax
  00023	84 c9		 test	 cl, cl
  00025	75 f9		 jne	 SHORT $LL10@SetQuestCo
; File E:\Metin2_server\SolWayneSF v6\ClientVS22\source\UserInterface\PythonQuest.cpp

; 85   : 	pQuestInstance->strCounterName = c_szCounterName;

  00027	8b 4d fc	 mov	 ecx, DWORD PTR _pQuestInstance$[ebp]
; File C:\Program Files\Microsoft Visual Studio\2022\Community\VC\Tools\MSVC\14.34.31933\include\xstring

; 415  :             return __builtin_strlen(_First);

  0002a	2b c6		 sub	 eax, esi

; 3546 :         return assign(_Ptr, _Convert_size<size_type>(_Traits::length(_Ptr)));

  0002c	50		 push	 eax
  0002d	52		 push	 edx
; File E:\Metin2_server\SolWayneSF v6\ClientVS22\source\UserInterface\PythonQuest.cpp

; 85   : 	pQuestInstance->strCounterName = c_szCounterName;

  0002e	8d 49 4c	 lea	 ecx, DWORD PTR [ecx+76]
; File C:\Program Files\Microsoft Visual Studio\2022\Community\VC\Tools\MSVC\14.34.31933\include\xstring

; 3546 :         return assign(_Ptr, _Convert_size<size_type>(_Traits::length(_Ptr)));

  00031	e8 00 00 00 00	 call	 ?assign@?$basic_string@DU?$char_traits@D@std@@V?$allocator@D@2@@std@@QAEAAV12@QBDI@Z ; std::basic_string<char,std::char_traits<char>,std::allocator<char> >::assign
  00036	5e		 pop	 esi
$LN1@SetQuestCo:
; File E:\Metin2_server\SolWayneSF v6\ClientVS22\source\UserInterface\PythonQuest.cpp

; 86   : }

  00037	8b e5		 mov	 esp, ebp
  00039	5d		 pop	 ebp
  0003a	c2 08 00	 ret	 8
?SetQuestCounterName@CPythonQuest@@QAEXKPBD@Z ENDP	; CPythonQuest::SetQuestCounterName
_TEXT	ENDS
; Function compile flags: /Ogtp
; File E:\Metin2_server\SolWayneSF v6\ClientVS22\source\UserInterface\PythonQuest.cpp
; File C:\Program Files\Microsoft Visual Studio\2022\Community\VC\Tools\MSVC\14.34.31933\include\xstring
; File E:\Metin2_server\SolWayneSF v6\ClientVS22\source\UserInterface\PythonQuest.cpp
; File C:\Program Files\Microsoft Visual Studio\2022\Community\VC\Tools\MSVC\14.34.31933\include\xstring
; File E:\Metin2_server\SolWayneSF v6\ClientVS22\source\UserInterface\PythonQuest.cpp
; File C:\Program Files\Microsoft Visual Studio\2022\Community\VC\Tools\MSVC\14.34.31933\include\xstring
; File E:\Metin2_server\SolWayneSF v6\ClientVS22\source\UserInterface\PythonQuest.cpp
;	COMDAT ?SetQuestClockName@CPythonQuest@@QAEXKPBD@Z
_TEXT	SEGMENT
_pQuestInstance$ = -4					; size = 4
_dwIndex$ = 8						; size = 4
_c_szClockName$ = 12					; size = 4
?SetQuestClockName@CPythonQuest@@QAEXKPBD@Z PROC	; CPythonQuest::SetQuestClockName, COMDAT
; _this$ = ecx

; 71   : {

  00000	55		 push	 ebp
  00001	8b ec		 mov	 ebp, esp
  00003	51		 push	 ecx

; 72   : 	SQuestInstance * pQuestInstance;
; 73   : 	if (!__GetQuestInstancePtr(dwIndex, &pQuestInstance))

  00004	8d 45 fc	 lea	 eax, DWORD PTR _pQuestInstance$[ebp]
  00007	50		 push	 eax
  00008	ff 75 08	 push	 DWORD PTR _dwIndex$[ebp]
  0000b	e8 00 00 00 00	 call	 ?__GetQuestInstancePtr@CPythonQuest@@IAE_NKPAPAUSQuestInstance@1@@Z ; CPythonQuest::__GetQuestInstancePtr
  00010	84 c0		 test	 al, al
  00012	74 23		 je	 SHORT $LN1@SetQuestCl
; File C:\Program Files\Microsoft Visual Studio\2022\Community\VC\Tools\MSVC\14.34.31933\include\xstring

; 415  :             return __builtin_strlen(_First);

  00014	8b 55 0c	 mov	 edx, DWORD PTR _c_szClockName$[ebp]
  00017	8b c2		 mov	 eax, edx
  00019	56		 push	 esi
  0001a	8d 70 01	 lea	 esi, DWORD PTR [eax+1]
  0001d	0f 1f 00	 npad	 3
$LL10@SetQuestCl:
  00020	8a 08		 mov	 cl, BYTE PTR [eax]
  00022	40		 inc	 eax
  00023	84 c9		 test	 cl, cl
  00025	75 f9		 jne	 SHORT $LL10@SetQuestCl
; File E:\Metin2_server\SolWayneSF v6\ClientVS22\source\UserInterface\PythonQuest.cpp

; 76   : 	pQuestInstance->strClockName = c_szClockName;

  00027	8b 4d fc	 mov	 ecx, DWORD PTR _pQuestInstance$[ebp]
; File C:\Program Files\Microsoft Visual Studio\2022\Community\VC\Tools\MSVC\14.34.31933\include\xstring

; 415  :             return __builtin_strlen(_First);

  0002a	2b c6		 sub	 eax, esi

; 3546 :         return assign(_Ptr, _Convert_size<size_type>(_Traits::length(_Ptr)));

  0002c	50		 push	 eax
  0002d	52		 push	 edx
; File E:\Metin2_server\SolWayneSF v6\ClientVS22\source\UserInterface\PythonQuest.cpp

; 76   : 	pQuestInstance->strClockName = c_szClockName;

  0002e	8d 49 34	 lea	 ecx, DWORD PTR [ecx+52]
; File C:\Program Files\Microsoft Visual Studio\2022\Community\VC\Tools\MSVC\14.34.31933\include\xstring

; 3546 :         return assign(_Ptr, _Convert_size<size_type>(_Traits::length(_Ptr)));

  00031	e8 00 00 00 00	 call	 ?assign@?$basic_string@DU?$char_traits@D@std@@V?$allocator@D@2@@std@@QAEAAV12@QBDI@Z ; std::basic_string<char,std::char_traits<char>,std::allocator<char> >::assign
  00036	5e		 pop	 esi
$LN1@SetQuestCl:
; File E:\Metin2_server\SolWayneSF v6\ClientVS22\source\UserInterface\PythonQuest.cpp

; 77   : }

  00037	8b e5		 mov	 esp, ebp
  00039	5d		 pop	 ebp
  0003a	c2 08 00	 ret	 8
?SetQuestClockName@CPythonQuest@@QAEXKPBD@Z ENDP	; CPythonQuest::SetQuestClockName
_TEXT	ENDS
; Function compile flags: /Ogtp
; File E:\Metin2_server\SolWayneSF v6\ClientVS22\source\UserInterface\PythonQuest.cpp
; File C:\Program Files\Microsoft Visual Studio\2022\Community\VC\Tools\MSVC\14.34.31933\include\xstring
; File E:\Metin2_server\SolWayneSF v6\ClientVS22\source\UserInterface\PythonQuest.cpp
; File C:\Program Files\Microsoft Visual Studio\2022\Community\VC\Tools\MSVC\14.34.31933\include\xstring
; File E:\Metin2_server\SolWayneSF v6\ClientVS22\source\UserInterface\PythonQuest.cpp
; File C:\Program Files\Microsoft Visual Studio\2022\Community\VC\Tools\MSVC\14.34.31933\include\xstring
; File E:\Metin2_server\SolWayneSF v6\ClientVS22\source\UserInterface\PythonQuest.cpp
;	COMDAT ?SetQuestTitle@CPythonQuest@@QAEXKPBD@Z
_TEXT	SEGMENT
_pQuestInstance$ = -4					; size = 4
_dwIndex$ = 8						; size = 4
_c_szTitle$ = 12					; size = 4
?SetQuestTitle@CPythonQuest@@QAEXKPBD@Z PROC		; CPythonQuest::SetQuestTitle, COMDAT
; _this$ = ecx

; 62   : {

  00000	55		 push	 ebp
  00001	8b ec		 mov	 ebp, esp
  00003	51		 push	 ecx

; 63   : 	SQuestInstance * pQuestInstance;
; 64   : 	if (!__GetQuestInstancePtr(dwIndex, &pQuestInstance))

  00004	8d 45 fc	 lea	 eax, DWORD PTR _pQuestInstance$[ebp]
  00007	50		 push	 eax
  00008	ff 75 08	 push	 DWORD PTR _dwIndex$[ebp]
  0000b	e8 00 00 00 00	 call	 ?__GetQuestInstancePtr@CPythonQuest@@IAE_NKPAPAUSQuestInstance@1@@Z ; CPythonQuest::__GetQuestInstancePtr
  00010	84 c0		 test	 al, al
  00012	74 23		 je	 SHORT $LN1@SetQuestTi
; File C:\Program Files\Microsoft Visual Studio\2022\Community\VC\Tools\MSVC\14.34.31933\include\xstring

; 415  :             return __builtin_strlen(_First);

  00014	8b 55 0c	 mov	 edx, DWORD PTR _c_szTitle$[ebp]
  00017	8b c2		 mov	 eax, edx
  00019	56		 push	 esi
  0001a	8d 70 01	 lea	 esi, DWORD PTR [eax+1]
  0001d	0f 1f 00	 npad	 3
$LL10@SetQuestTi:
  00020	8a 08		 mov	 cl, BYTE PTR [eax]
  00022	40		 inc	 eax
  00023	84 c9		 test	 cl, cl
  00025	75 f9		 jne	 SHORT $LL10@SetQuestTi
; File E:\Metin2_server\SolWayneSF v6\ClientVS22\source\UserInterface\PythonQuest.cpp

; 67   : 	pQuestInstance->strTitle = c_szTitle;

  00027	8b 4d fc	 mov	 ecx, DWORD PTR _pQuestInstance$[ebp]
; File C:\Program Files\Microsoft Visual Studio\2022\Community\VC\Tools\MSVC\14.34.31933\include\xstring

; 415  :             return __builtin_strlen(_First);

  0002a	2b c6		 sub	 eax, esi

; 3546 :         return assign(_Ptr, _Convert_size<size_type>(_Traits::length(_Ptr)));

  0002c	50		 push	 eax
  0002d	52		 push	 edx
; File E:\Metin2_server\SolWayneSF v6\ClientVS22\source\UserInterface\PythonQuest.cpp

; 67   : 	pQuestInstance->strTitle = c_szTitle;

  0002e	8d 49 1c	 lea	 ecx, DWORD PTR [ecx+28]
; File C:\Program Files\Microsoft Visual Studio\2022\Community\VC\Tools\MSVC\14.34.31933\include\xstring

; 3546 :         return assign(_Ptr, _Convert_size<size_type>(_Traits::length(_Ptr)));

  00031	e8 00 00 00 00	 call	 ?assign@?$basic_string@DU?$char_traits@D@std@@V?$allocator@D@2@@std@@QAEAAV12@QBDI@Z ; std::basic_string<char,std::char_traits<char>,std::allocator<char> >::assign
  00036	5e		 pop	 esi
$LN1@SetQuestTi:
; File E:\Metin2_server\SolWayneSF v6\ClientVS22\source\UserInterface\PythonQuest.cpp

; 68   : }

  00037	8b e5		 mov	 esp, ebp
  00039	5d		 pop	 ebp
  0003a	c2 08 00	 ret	 8
?SetQuestTitle@CPythonQuest@@QAEXKPBD@Z ENDP		; CPythonQuest::SetQuestTitle
_TEXT	ENDS
; Function compile flags: /Ogtp
; File E:\Metin2_server\SolWayneSF v6\ClientVS22\source\UserInterface\PythonQuest.cpp
; File C:\Program Files\Microsoft Visual Studio\2022\Community\VC\Tools\MSVC\14.34.31933\include\vector
; File E:\Metin2_server\SolWayneSF v6\ClientVS22\source\UserInterface\PythonQuest.cpp
; File C:\Program Files\Microsoft Visual Studio\2022\Community\VC\Tools\MSVC\14.34.31933\include\xutility
; File E:\Metin2_server\SolWayneSF v6\ClientVS22\source\UserInterface\PythonQuest.cpp
;	COMDAT ?MakeQuest@CPythonQuest@@QAEXKE_N@Z
_TEXT	SEGMENT
$T2 = -132						; size = 116
__$ArrayPad$ = -16					; size = 4
__$EHRec$ = -12						; size = 12
_dwIndex$ = 8						; size = 4
_bType$ = 12						; size = 1
_bIsConfirmed$ = 16					; size = 1
?MakeQuest@CPythonQuest@@QAEXKE_N@Z PROC		; CPythonQuest::MakeQuest, COMDAT
; _this$ = ecx

; 46   : {

  00000	55		 push	 ebp
  00001	8b ec		 mov	 ebp, esp
  00003	6a ff		 push	 -1
  00005	68 00 00 00 00	 push	 __ehhandler$?MakeQuest@CPythonQuest@@QAEXKE_N@Z
  0000a	64 a1 00 00 00
	00		 mov	 eax, DWORD PTR fs:0
  00010	50		 push	 eax
  00011	83 ec 78	 sub	 esp, 120		; 00000078H
  00014	a1 00 00 00 00	 mov	 eax, DWORD PTR ___security_cookie
  00019	33 c5		 xor	 eax, ebp
  0001b	89 45 f0	 mov	 DWORD PTR __$ArrayPad$[ebp], eax
  0001e	56		 push	 esi
  0001f	57		 push	 edi
  00020	50		 push	 eax
  00021	8d 45 f4	 lea	 eax, DWORD PTR __$EHRec$[ebp]
  00024	64 a3 00 00 00
	00		 mov	 DWORD PTR fs:0, eax
  0002a	8b f1		 mov	 esi, ecx

; 47   : 	DeleteQuestInstance(dwIndex);

  0002c	8b 7d 08	 mov	 edi, DWORD PTR _dwIndex$[ebp]
  0002f	57		 push	 edi
  00030	e8 00 00 00 00	 call	 ?DeleteQuestInstance@CPythonQuest@@QAEXK@Z ; CPythonQuest::DeleteQuestInstance

; 48   : 	m_QuestInstanceContainer.push_back(SQuestInstance());

  00035	8d 8d 7c ff ff
	ff		 lea	 ecx, DWORD PTR $T2[ebp]
  0003b	e8 00 00 00 00	 call	 ??0SQuestInstance@CPythonQuest@@QAE@XZ ; CPythonQuest::SQuestInstance::SQuestInstance
  00040	c7 45 fc 00 00
	00 00		 mov	 DWORD PTR __$EHRec$[ebp+8], 0
; File C:\Program Files\Microsoft Visual Studio\2022\Community\VC\Tools\MSVC\14.34.31933\include\vector

; 844  :         if (_Mylast != _My_data._Myend) {

  00047	8b 4e 08	 mov	 ecx, DWORD PTR [esi+8]
  0004a	50		 push	 eax
  0004b	3b 4e 0c	 cmp	 ecx, DWORD PTR [esi+12]
  0004e	74 0b		 je	 SHORT $LN7@MakeQuest

; 869  :         ++_Mylast;

  00050	e8 00 00 00 00	 call	 ??0SQuestInstance@CPythonQuest@@QAE@$$QAU01@@Z
  00055	83 46 08 74	 add	 DWORD PTR [esi+8], 116	; 00000074H

; 845  :             return _Emplace_back_with_unused_capacity(_STD forward<_Valty>(_Val)...);

  00059	eb 09		 jmp	 SHORT $LN6@MakeQuest
$LN7@MakeQuest:

; 846  :         }
; 847  : 
; 848  :         return *_Emplace_reallocate(_Mylast, _STD forward<_Valty>(_Val)...);

  0005b	51		 push	 ecx
  0005c	8d 4e 04	 lea	 ecx, DWORD PTR [esi+4]
  0005f	e8 00 00 00 00	 call	 ??$_Emplace_reallocate@USQuestInstance@CPythonQuest@@@?$vector@USQuestInstance@CPythonQuest@@V?$allocator@USQuestInstance@CPythonQuest@@@std@@@std@@AAEPAUSQuestInstance@CPythonQuest@@QAU23@$$QAU23@@Z ; std::vector<CPythonQuest::SQuestInstance,std::allocator<CPythonQuest::SQuestInstance> >::_Emplace_reallocate<CPythonQuest::SQuestInstance>
$LN6@MakeQuest:
; File E:\Metin2_server\SolWayneSF v6\ClientVS22\source\UserInterface\PythonQuest.cpp

; 48   : 	m_QuestInstanceContainer.push_back(SQuestInstance());

  00064	8d 8d 7c ff ff
	ff		 lea	 ecx, DWORD PTR $T2[ebp]
  0006a	c7 45 fc ff ff
	ff ff		 mov	 DWORD PTR __$EHRec$[ebp+8], -1
  00071	e8 00 00 00 00	 call	 ??1SQuestInstance@CPythonQuest@@QAE@XZ
; File C:\Program Files\Microsoft Visual Studio\2022\Community\VC\Tools\MSVC\14.34.31933\include\xutility

; 1234 :         : current(_STD move(_Right)) {}

  00076	8b 76 08	 mov	 esi, DWORD PTR [esi+8]
; File E:\Metin2_server\SolWayneSF v6\ClientVS22\source\UserInterface\PythonQuest.cpp

; 53   : 	rQuestInstance.dwIndex = dwIndex;

  00079	89 7e 8c	 mov	 DWORD PTR [esi-116], edi

; 54   : 	rQuestInstance.iStartTime = int(CTimer::Instance().GetCurrentSecond());

  0007c	8b 0d 00 00 00
	00		 mov	 ecx, DWORD PTR ?ms_singleton@?$CSingleton@VCTimer@@@@0PAVCTimer@@A ; CSingleton<CTimer>::ms_singleton
  00082	e8 00 00 00 00	 call	 ?GetCurrentSecond@CTimer@@QAEMXZ ; CTimer::GetCurrentSecond
  00087	e8 00 00 00 00	 call	 __ftol2_sse
  0008c	89 46 f8	 mov	 DWORD PTR [esi-8], eax

; 55   : #if defined(ENABLE_QUEST_RENEWAL)
; 56   : 	rQuestInstance.bType = bType;

  0008f	8a 45 0c	 mov	 al, BYTE PTR _bType$[ebp]
  00092	88 46 fc	 mov	 BYTE PTR [esi-4], al

; 57   : 	rQuestInstance.bIsConfirmed = bIsConfirmed;

  00095	8a 45 10	 mov	 al, BYTE PTR _bIsConfirmed$[ebp]
  00098	88 46 fd	 mov	 BYTE PTR [esi-3], al

; 58   : #endif
; 59   : }

  0009b	8b 4d f4	 mov	 ecx, DWORD PTR __$EHRec$[ebp]
  0009e	64 89 0d 00 00
	00 00		 mov	 DWORD PTR fs:0, ecx
  000a5	59		 pop	 ecx
  000a6	5f		 pop	 edi
  000a7	5e		 pop	 esi
  000a8	8b 4d f0	 mov	 ecx, DWORD PTR __$ArrayPad$[ebp]
  000ab	33 cd		 xor	 ecx, ebp
  000ad	e8 00 00 00 00	 call	 @__security_check_cookie@4
  000b2	8b e5		 mov	 esp, ebp
  000b4	5d		 pop	 ebp
  000b5	c2 0c 00	 ret	 12			; 0000000cH
_TEXT	ENDS
;	COMDAT text$x
text$x	SEGMENT
__unwindfunclet$?MakeQuest@CPythonQuest@@QAEXKE_N@Z$0:
  00000	8d 8d 7c ff ff
	ff		 lea	 ecx, DWORD PTR $T2[ebp]
  00006	e9 00 00 00 00	 jmp	 ??1SQuestInstance@CPythonQuest@@QAE@XZ
  0000b	cc		 int	 3
  0000c	cc		 int	 3
  0000d	cc		 int	 3
  0000e	cc		 int	 3
  0000f	cc		 int	 3
__ehhandler$?MakeQuest@CPythonQuest@@QAEXKE_N@Z:
  00010	90		 npad	 1
  00011	90		 npad	 1
  00012	8b 54 24 08	 mov	 edx, DWORD PTR [esp+8]
  00016	8d 42 0c	 lea	 eax, DWORD PTR [edx+12]
  00019	8b 8a 7c ff ff
	ff		 mov	 ecx, DWORD PTR [edx-132]
  0001f	33 c8		 xor	 ecx, eax
  00021	e8 00 00 00 00	 call	 @__security_check_cookie@4
  00026	8b 4a fc	 mov	 ecx, DWORD PTR [edx-4]
  00029	33 c8		 xor	 ecx, eax
  0002b	e8 00 00 00 00	 call	 @__security_check_cookie@4
  00030	b8 00 00 00 00	 mov	 eax, OFFSET __ehfuncinfo$?MakeQuest@CPythonQuest@@QAEXKE_N@Z
  00035	e9 00 00 00 00	 jmp	 ___CxxFrameHandler3
text$x	ENDS
?MakeQuest@CPythonQuest@@QAEXKE_N@Z ENDP		; CPythonQuest::MakeQuest
; Function compile flags: /Ogtp
; File E:\Metin2_server\SolWayneSF v6\ClientVS22\source\UserInterface\PythonQuest.cpp
; File C:\Program Files\Microsoft Visual Studio\2022\Community\VC\Tools\MSVC\14.34.31933\include\vector
; File C:\Program Files\Microsoft Visual Studio\2022\Community\VC\Tools\MSVC\14.34.31933\include\xutility
; File E:\Metin2_server\SolWayneSF v6\ClientVS22\source\UserInterface\PythonQuest.cpp
; File C:\Program Files\Microsoft Visual Studio\2022\Community\VC\Tools\MSVC\14.34.31933\include\xutility
; File E:\Metin2_server\SolWayneSF v6\ClientVS22\source\UserInterface\PythonQuest.cpp
;	COMDAT ?IsQuest@CPythonQuest@@QAE_NK@Z
_TEXT	SEGMENT
_dwIndex$ = 8						; size = 4
?IsQuest@CPythonQuest@@QAE_NK@Z PROC			; CPythonQuest::IsQuest, COMDAT
; _this$ = ecx

; 35   : {

  00000	55		 push	 ebp
  00001	8b ec		 mov	 ebp, esp
; File C:\Program Files\Microsoft Visual Studio\2022\Community\VC\Tools\MSVC\14.34.31933\include\vector

; 41   :     _CONSTEXPR20 _Vector_const_iterator(_Tptr _Parg, const _Container_base* _Pvector) noexcept : _Ptr(_Parg) {

  00003	8b 51 08	 mov	 edx, DWORD PTR [ecx+8]
  00006	8b 41 04	 mov	 eax, DWORD PTR [ecx+4]
; File C:\Program Files\Microsoft Visual Studio\2022\Community\VC\Tools\MSVC\14.34.31933\include\xutility

; 5598 :     for (; _UFirst != _ULast; ++_UFirst) {

  00009	3b c2		 cmp	 eax, edx
  0000b	74 10		 je	 SHORT $LN39@IsQuest
  0000d	8b 4d 08	 mov	 ecx, DWORD PTR _dwIndex$[ebp]
$LL20@IsQuest:
; File E:\Metin2_server\SolWayneSF v6\ClientVS22\source\UserInterface\PythonQuest.cpp

; 21   : 		return dwSearchIndex == rQuestInstance.dwIndex;

  00010	3b 08		 cmp	 ecx, DWORD PTR [eax]
; File C:\Program Files\Microsoft Visual Studio\2022\Community\VC\Tools\MSVC\14.34.31933\include\xutility

; 5599 :         if (_Pred(*_UFirst)) {

  00012	74 07		 je	 SHORT $LN34@IsQuest

; 5598 :     for (; _UFirst != _ULast; ++_UFirst) {

  00014	83 c0 74	 add	 eax, 116		; 00000074H
  00017	3b c2		 cmp	 eax, edx
  00019	75 f5		 jne	 SHORT $LL20@IsQuest
$LN34@IsQuest:
; File E:\Metin2_server\SolWayneSF v6\ClientVS22\source\UserInterface\PythonQuest.cpp

; 37   : 	return itor != m_QuestInstanceContainer.end();

  0001b	3b c2		 cmp	 eax, edx
$LN39@IsQuest:
  0001d	0f 95 c0	 setne	 al

; 38   : }

  00020	5d		 pop	 ebp
  00021	c2 04 00	 ret	 4
?IsQuest@CPythonQuest@@QAE_NK@Z ENDP			; CPythonQuest::IsQuest
_TEXT	ENDS
; Function compile flags: /Ogtp
; File E:\Metin2_server\SolWayneSF v6\ClientVS22\source\UserInterface\PythonQuest.cpp
; File C:\Program Files\Microsoft Visual Studio\2022\Community\VC\Tools\MSVC\14.34.31933\include\vector
; File C:\Program Files\Microsoft Visual Studio\2022\Community\VC\Tools\MSVC\14.34.31933\include\xutility
; File E:\Metin2_server\SolWayneSF v6\ClientVS22\source\UserInterface\PythonQuest.cpp
; File C:\Program Files\Microsoft Visual Studio\2022\Community\VC\Tools\MSVC\14.34.31933\include\xutility
; File E:\Metin2_server\SolWayneSF v6\ClientVS22\source\UserInterface\PythonQuest.cpp
; File C:\Program Files\Microsoft Visual Studio\2022\Community\VC\Tools\MSVC\14.34.31933\include\xutility
; File C:\Program Files\Microsoft Visual Studio\2022\Community\VC\Tools\MSVC\14.34.31933\include\vector
; File C:\Program Files\Microsoft Visual Studio\2022\Community\VC\Tools\MSVC\14.34.31933\include\xstring
; File C:\Program Files\Microsoft Visual Studio\2022\Community\VC\Tools\MSVC\14.34.31933\include\xutility
; File C:\Program Files\Microsoft Visual Studio\2022\Community\VC\Tools\MSVC\14.34.31933\include\vector
; File E:\Metin2_server\SolWayneSF v6\ClientVS22\source\UserInterface\PythonQuest.cpp
;	COMDAT ?DeleteQuestInstance@CPythonQuest@@QAEXK@Z
_TEXT	SEGMENT
_this$1$ = -8						; size = 4
__Last$1$ = -4						; size = 4
_dwIndex$ = 8						; size = 4
?DeleteQuestInstance@CPythonQuest@@QAEXK@Z PROC		; CPythonQuest::DeleteQuestInstance, COMDAT
; _this$ = ecx

; 26   : {

  00000	55		 push	 ebp
  00001	8b ec		 mov	 ebp, esp
  00003	83 ec 08	 sub	 esp, 8
  00006	53		 push	 ebx
  00007	8b d9		 mov	 ebx, ecx
  00009	56		 push	 esi
  0000a	89 5d f8	 mov	 DWORD PTR _this$1$[ebp], ebx
; File C:\Program Files\Microsoft Visual Studio\2022\Community\VC\Tools\MSVC\14.34.31933\include\vector

; 41   :     _CONSTEXPR20 _Vector_const_iterator(_Tptr _Parg, const _Container_base* _Pvector) noexcept : _Ptr(_Parg) {

  0000d	8b 4b 08	 mov	 ecx, DWORD PTR [ebx+8]
  00010	8b 73 04	 mov	 esi, DWORD PTR [ebx+4]
  00013	89 4d fc	 mov	 DWORD PTR __Last$1$[ebp], ecx
; File C:\Program Files\Microsoft Visual Studio\2022\Community\VC\Tools\MSVC\14.34.31933\include\xutility

; 5598 :     for (; _UFirst != _ULast; ++_UFirst) {

  00016	3b f1		 cmp	 esi, ecx
  00018	0f 84 84 01 00
	00		 je	 $LN141@DeleteQues
  0001e	8b 45 08	 mov	 eax, DWORD PTR _dwIndex$[ebp]
  00021	57		 push	 edi
$LL21@DeleteQues:
; File E:\Metin2_server\SolWayneSF v6\ClientVS22\source\UserInterface\PythonQuest.cpp

; 21   : 		return dwSearchIndex == rQuestInstance.dwIndex;

  00022	8d 7e 74	 lea	 edi, DWORD PTR [esi+116]
  00025	3b 06		 cmp	 eax, DWORD PTR [esi]
; File C:\Program Files\Microsoft Visual Studio\2022\Community\VC\Tools\MSVC\14.34.31933\include\xutility

; 5599 :         if (_Pred(*_UFirst)) {

  00027	74 0f		 je	 SHORT $LN187@DeleteQues

; 5598 :     for (; _UFirst != _ULast; ++_UFirst) {

  00029	8b f7		 mov	 esi, edi
  0002b	3b f1		 cmp	 esi, ecx
  0002d	75 f3		 jne	 SHORT $LL21@DeleteQues
; File E:\Metin2_server\SolWayneSF v6\ClientVS22\source\UserInterface\PythonQuest.cpp

; 32   : }

  0002f	5f		 pop	 edi
  00030	5e		 pop	 esi
  00031	5b		 pop	 ebx
  00032	8b e5		 mov	 esp, ebp
  00034	5d		 pop	 ebp
  00035	c2 04 00	 ret	 4
$LN187@DeleteQues:
; File C:\Program Files\Microsoft Visual Studio\2022\Community\VC\Tools\MSVC\14.34.31933\include\xutility

; 4211 :     for (; _First != _Last; ++_Dest, (void) ++_First) {

  00038	3b f9		 cmp	 edi, ecx
  0003a	0f 84 52 01 00
	00		 je	 $LN38@DeleteQues
; File C:\Program Files\Microsoft Visual Studio\2022\Community\VC\Tools\MSVC\14.34.31933\include\vector

; 1783 :         pointer& _Mylast        = _My_data._Mylast;

  00040	83 c6 04	 add	 esi, 4
$LL39@DeleteQues:
  00043	8b 07		 mov	 eax, DWORD PTR [edi]
; File C:\Program Files\Microsoft Visual Studio\2022\Community\VC\Tools\MSVC\14.34.31933\include\xstring

; 3099 :         if (this == _STD addressof(_Right)) {

  00045	8d 5e 74	 lea	 ebx, DWORD PTR [esi+116]
  00048	89 46 fc	 mov	 DWORD PTR [esi-4], eax
  0004b	3b f3		 cmp	 esi, ebx
  0004d	74 2e		 je	 SHORT $LN58@DeleteQues

; 3100 :             return *this;
; 3101 :         }
; 3102 : 
; 3103 :         auto& _Al                 = _Getal();
; 3104 :         auto& _Right_al           = _Right._Getal();
; 3105 :         constexpr auto _Pocma_val = _Choose_pocma_v<_Alty>;
; 3106 :         if constexpr (_Pocma_val == _Pocma_values::_Propagate_allocators) {
; 3107 :             if (_Al != _Right_al) {
; 3108 :                 // intentionally slams into noexcept on OOM, TRANSITION, VSO-466800
; 3109 :                 _Mypair._Myval2._Orphan_all();
; 3110 :                 _Mypair._Myval2._Reload_proxy(_GET_PROXY_ALLOCATOR(_Alty, _Al), _GET_PROXY_ALLOCATOR(_Alty, _Right_al));
; 3111 :             }
; 3112 :         } else if constexpr (_Pocma_val == _Pocma_values::_No_propagate_allocators) {
; 3113 :             if (_Al != _Right_al) {
; 3114 :                 assign(_Right._Mypair._Myval2._Myptr(), _Right._Mypair._Myval2._Mysize);
; 3115 :                 return *this;
; 3116 :             }
; 3117 :         }
; 3118 : 
; 3119 :         _Tidy_deallocate();

  0004f	8b ce		 mov	 ecx, esi
  00051	e8 00 00 00 00	 call	 ?_Tidy_deallocate@?$basic_string@DU?$char_traits@D@std@@V?$allocator@D@2@@std@@AAEXXZ ; std::basic_string<char,std::char_traits<char>,std::allocator<char> >::_Tidy_deallocate

; 3137 :         _CSTD memcpy(_My_data_mem, _Right_data_mem, _Memcpy_val_size);

  00056	0f 10 03	 movups	 xmm0, XMMWORD PTR [ebx]
  00059	0f 11 06	 movups	 XMMWORD PTR [esi], xmm0
  0005c	f3 0f 7e 43 10	 movq	 xmm0, QWORD PTR [ebx+16]
  00061	66 0f d6 46 10	 movq	 QWORD PTR [esi+16], xmm0

; 4995 :         _My_data._Mysize = 0;

  00066	c7 86 84 00 00
	00 00 00 00 00	 mov	 DWORD PTR [esi+132], 0

; 4996 :         _My_data._Myres  = _BUF_SIZE - 1;

  00070	c7 86 88 00 00
	00 0f 00 00 00	 mov	 DWORD PTR [esi+136], 15	; 0000000fH

; 4997 :         _My_data._Activate_SSO_buffer();
; 4998 : 
; 4999 :         // the _Traits::assign is last so the codegen doesn't think the char write can alias this
; 5000 :         _Traits::assign(_My_data._Bx._Buf[0], _Elem());

  0007a	c6 03 00	 mov	 BYTE PTR [ebx], 0
$LN58@DeleteQues:

; 3099 :         if (this == _STD addressof(_Right)) {

  0007d	8d 46 18	 lea	 eax, DWORD PTR [esi+24]
  00080	8d 8e 8c 00 00
	00		 lea	 ecx, DWORD PTR [esi+140]
  00086	3b c1		 cmp	 eax, ecx
  00088	74 3a		 je	 SHORT $LN80@DeleteQues

; 3100 :             return *this;
; 3101 :         }
; 3102 : 
; 3103 :         auto& _Al                 = _Getal();
; 3104 :         auto& _Right_al           = _Right._Getal();
; 3105 :         constexpr auto _Pocma_val = _Choose_pocma_v<_Alty>;
; 3106 :         if constexpr (_Pocma_val == _Pocma_values::_Propagate_allocators) {
; 3107 :             if (_Al != _Right_al) {
; 3108 :                 // intentionally slams into noexcept on OOM, TRANSITION, VSO-466800
; 3109 :                 _Mypair._Myval2._Orphan_all();
; 3110 :                 _Mypair._Myval2._Reload_proxy(_GET_PROXY_ALLOCATOR(_Alty, _Al), _GET_PROXY_ALLOCATOR(_Alty, _Right_al));
; 3111 :             }
; 3112 :         } else if constexpr (_Pocma_val == _Pocma_values::_No_propagate_allocators) {
; 3113 :             if (_Al != _Right_al) {
; 3114 :                 assign(_Right._Mypair._Myval2._Myptr(), _Right._Mypair._Myval2._Mysize);
; 3115 :                 return *this;
; 3116 :             }
; 3117 :         }
; 3118 : 
; 3119 :         _Tidy_deallocate();

  0008a	8b c8		 mov	 ecx, eax
  0008c	e8 00 00 00 00	 call	 ?_Tidy_deallocate@?$basic_string@DU?$char_traits@D@std@@V?$allocator@D@2@@std@@AAEXXZ ; std::basic_string<char,std::char_traits<char>,std::allocator<char> >::_Tidy_deallocate

; 3137 :         _CSTD memcpy(_My_data_mem, _Right_data_mem, _Memcpy_val_size);

  00091	0f 10 86 8c 00
	00 00		 movups	 xmm0, XMMWORD PTR [esi+140]
  00098	0f 11 46 18	 movups	 XMMWORD PTR [esi+24], xmm0
  0009c	f3 0f 7e 86 9c
	00 00 00	 movq	 xmm0, QWORD PTR [esi+156]
  000a4	66 0f d6 46 28	 movq	 QWORD PTR [esi+40], xmm0

; 4995 :         _My_data._Mysize = 0;

  000a9	c7 86 9c 00 00
	00 00 00 00 00	 mov	 DWORD PTR [esi+156], 0

; 4996 :         _My_data._Myres  = _BUF_SIZE - 1;

  000b3	c7 86 a0 00 00
	00 0f 00 00 00	 mov	 DWORD PTR [esi+160], 15	; 0000000fH

; 4997 :         _My_data._Activate_SSO_buffer();
; 4998 : 
; 4999 :         // the _Traits::assign is last so the codegen doesn't think the char write can alias this
; 5000 :         _Traits::assign(_My_data._Bx._Buf[0], _Elem());

  000bd	c6 86 8c 00 00
	00 00		 mov	 BYTE PTR [esi+140], 0
$LN80@DeleteQues:

; 3099 :         if (this == _STD addressof(_Right)) {

  000c4	8d 46 30	 lea	 eax, DWORD PTR [esi+48]
  000c7	8d 8e a4 00 00
	00		 lea	 ecx, DWORD PTR [esi+164]
  000cd	3b c1		 cmp	 eax, ecx
  000cf	74 3a		 je	 SHORT $LN102@DeleteQues

; 3100 :             return *this;
; 3101 :         }
; 3102 : 
; 3103 :         auto& _Al                 = _Getal();
; 3104 :         auto& _Right_al           = _Right._Getal();
; 3105 :         constexpr auto _Pocma_val = _Choose_pocma_v<_Alty>;
; 3106 :         if constexpr (_Pocma_val == _Pocma_values::_Propagate_allocators) {
; 3107 :             if (_Al != _Right_al) {
; 3108 :                 // intentionally slams into noexcept on OOM, TRANSITION, VSO-466800
; 3109 :                 _Mypair._Myval2._Orphan_all();
; 3110 :                 _Mypair._Myval2._Reload_proxy(_GET_PROXY_ALLOCATOR(_Alty, _Al), _GET_PROXY_ALLOCATOR(_Alty, _Right_al));
; 3111 :             }
; 3112 :         } else if constexpr (_Pocma_val == _Pocma_values::_No_propagate_allocators) {
; 3113 :             if (_Al != _Right_al) {
; 3114 :                 assign(_Right._Mypair._Myval2._Myptr(), _Right._Mypair._Myval2._Mysize);
; 3115 :                 return *this;
; 3116 :             }
; 3117 :         }
; 3118 : 
; 3119 :         _Tidy_deallocate();

  000d1	8b c8		 mov	 ecx, eax
  000d3	e8 00 00 00 00	 call	 ?_Tidy_deallocate@?$basic_string@DU?$char_traits@D@std@@V?$allocator@D@2@@std@@AAEXXZ ; std::basic_string<char,std::char_traits<char>,std::allocator<char> >::_Tidy_deallocate

; 3137 :         _CSTD memcpy(_My_data_mem, _Right_data_mem, _Memcpy_val_size);

  000d8	0f 10 86 a4 00
	00 00		 movups	 xmm0, XMMWORD PTR [esi+164]
  000df	0f 11 46 30	 movups	 XMMWORD PTR [esi+48], xmm0
  000e3	f3 0f 7e 86 b4
	00 00 00	 movq	 xmm0, QWORD PTR [esi+180]
  000eb	66 0f d6 46 40	 movq	 QWORD PTR [esi+64], xmm0

; 4995 :         _My_data._Mysize = 0;

  000f0	c7 86 b4 00 00
	00 00 00 00 00	 mov	 DWORD PTR [esi+180], 0

; 4996 :         _My_data._Myres  = _BUF_SIZE - 1;

  000fa	c7 86 b8 00 00
	00 0f 00 00 00	 mov	 DWORD PTR [esi+184], 15	; 0000000fH

; 4997 :         _My_data._Activate_SSO_buffer();
; 4998 : 
; 4999 :         // the _Traits::assign is last so the codegen doesn't think the char write can alias this
; 5000 :         _Traits::assign(_My_data._Bx._Buf[0], _Elem());

  00104	c6 86 a4 00 00
	00 00		 mov	 BYTE PTR [esi+164], 0
$LN102@DeleteQues:

; 3099 :         if (this == _STD addressof(_Right)) {

  0010b	8d 46 48	 lea	 eax, DWORD PTR [esi+72]
  0010e	8d 8e bc 00 00
	00		 lea	 ecx, DWORD PTR [esi+188]
  00114	3b c1		 cmp	 eax, ecx
  00116	74 3a		 je	 SHORT $LN124@DeleteQues

; 3100 :             return *this;
; 3101 :         }
; 3102 : 
; 3103 :         auto& _Al                 = _Getal();
; 3104 :         auto& _Right_al           = _Right._Getal();
; 3105 :         constexpr auto _Pocma_val = _Choose_pocma_v<_Alty>;
; 3106 :         if constexpr (_Pocma_val == _Pocma_values::_Propagate_allocators) {
; 3107 :             if (_Al != _Right_al) {
; 3108 :                 // intentionally slams into noexcept on OOM, TRANSITION, VSO-466800
; 3109 :                 _Mypair._Myval2._Orphan_all();
; 3110 :                 _Mypair._Myval2._Reload_proxy(_GET_PROXY_ALLOCATOR(_Alty, _Al), _GET_PROXY_ALLOCATOR(_Alty, _Right_al));
; 3111 :             }
; 3112 :         } else if constexpr (_Pocma_val == _Pocma_values::_No_propagate_allocators) {
; 3113 :             if (_Al != _Right_al) {
; 3114 :                 assign(_Right._Mypair._Myval2._Myptr(), _Right._Mypair._Myval2._Mysize);
; 3115 :                 return *this;
; 3116 :             }
; 3117 :         }
; 3118 : 
; 3119 :         _Tidy_deallocate();

  00118	8b c8		 mov	 ecx, eax
  0011a	e8 00 00 00 00	 call	 ?_Tidy_deallocate@?$basic_string@DU?$char_traits@D@std@@V?$allocator@D@2@@std@@AAEXXZ ; std::basic_string<char,std::char_traits<char>,std::allocator<char> >::_Tidy_deallocate

; 3137 :         _CSTD memcpy(_My_data_mem, _Right_data_mem, _Memcpy_val_size);

  0011f	0f 10 86 bc 00
	00 00		 movups	 xmm0, XMMWORD PTR [esi+188]
  00126	0f 11 46 48	 movups	 XMMWORD PTR [esi+72], xmm0
  0012a	f3 0f 7e 86 cc
	00 00 00	 movq	 xmm0, QWORD PTR [esi+204]
  00132	66 0f d6 46 58	 movq	 QWORD PTR [esi+88], xmm0

; 4995 :         _My_data._Mysize = 0;

  00137	c7 86 cc 00 00
	00 00 00 00 00	 mov	 DWORD PTR [esi+204], 0

; 4996 :         _My_data._Myres  = _BUF_SIZE - 1;

  00141	c7 86 d0 00 00
	00 0f 00 00 00	 mov	 DWORD PTR [esi+208], 15	; 0000000fH

; 4997 :         _My_data._Activate_SSO_buffer();
; 4998 : 
; 4999 :         // the _Traits::assign is last so the codegen doesn't think the char write can alias this
; 5000 :         _Traits::assign(_My_data._Bx._Buf[0], _Elem());

  0014b	c6 86 bc 00 00
	00 00		 mov	 BYTE PTR [esi+188], 0
$LN124@DeleteQues:
  00152	8b 86 d4 00 00
	00		 mov	 eax, DWORD PTR [esi+212]
; File C:\Program Files\Microsoft Visual Studio\2022\Community\VC\Tools\MSVC\14.34.31933\include\xutility

; 4211 :     for (; _First != _Last; ++_Dest, (void) ++_First) {

  00158	83 c7 74	 add	 edi, 116		; 00000074H
  0015b	89 46 60	 mov	 DWORD PTR [esi+96], eax
  0015e	8b 86 d8 00 00
	00		 mov	 eax, DWORD PTR [esi+216]
  00164	89 46 64	 mov	 DWORD PTR [esi+100], eax
  00167	8b 86 dc 00 00
	00		 mov	 eax, DWORD PTR [esi+220]
  0016d	89 46 68	 mov	 DWORD PTR [esi+104], eax
  00170	0f b6 86 e0 00
	00 00		 movzx	 eax, BYTE PTR [esi+224]
  00177	88 46 6c	 mov	 BYTE PTR [esi+108], al
  0017a	0f b6 86 e1 00
	00 00		 movzx	 eax, BYTE PTR [esi+225]
  00181	88 46 6d	 mov	 BYTE PTR [esi+109], al
  00184	8b f3		 mov	 esi, ebx
  00186	3b 7d fc	 cmp	 edi, DWORD PTR __Last$1$[ebp]
  00189	0f 85 b4 fe ff
	ff		 jne	 $LL39@DeleteQues
  0018f	8b 5d f8	 mov	 ebx, DWORD PTR _this$1$[ebp]
$LN38@DeleteQues:
; File C:\Program Files\Microsoft Visual Studio\2022\Community\VC\Tools\MSVC\14.34.31933\include\vector

; 1793 :         _Alty_traits::destroy(_Getal(), _Unfancy(_Mylast - 1));

  00192	8b 4b 08	 mov	 ecx, DWORD PTR [ebx+8]
  00195	83 e9 74	 sub	 ecx, 116		; 00000074H
  00198	e8 00 00 00 00	 call	 ??1SQuestInstance@CPythonQuest@@QAE@XZ

; 1794 :         _ASAN_VECTOR_MODIFY(-1);
; 1795 :         --_Mylast;

  0019d	83 43 08 8c	 add	 DWORD PTR [ebx+8], -116	; ffffff8cH
  001a1	5f		 pop	 edi
$LN141@DeleteQues:
  001a2	5e		 pop	 esi
; File E:\Metin2_server\SolWayneSF v6\ClientVS22\source\UserInterface\PythonQuest.cpp

; 32   : }

  001a3	5b		 pop	 ebx
  001a4	8b e5		 mov	 esp, ebp
  001a6	5d		 pop	 ebp
  001a7	c2 04 00	 ret	 4
?DeleteQuestInstance@CPythonQuest@@QAEXK@Z ENDP		; CPythonQuest::DeleteQuestInstance
_TEXT	ENDS
; Function compile flags: /Ogtp
; File E:\Metin2_server\SolWayneSF v6\ClientVS22\source\UserInterface\PythonQuest.cpp
;	COMDAT ??0FQuestInstanceCompare@@QAE@K@Z
_TEXT	SEGMENT
_dwIndex$ = 8						; size = 4
??0FQuestInstanceCompare@@QAE@K@Z PROC			; FQuestInstanceCompare::FQuestInstanceCompare, COMDAT
; _this$ = ecx

; 18   : 	FQuestInstanceCompare(DWORD dwIndex) : dwSearchIndex(dwIndex) {}

  00000	55		 push	 ebp
  00001	8b ec		 mov	 ebp, esp
  00003	8b 45 08	 mov	 eax, DWORD PTR _dwIndex$[ebp]
  00006	89 01		 mov	 DWORD PTR [ecx], eax
  00008	8b c1		 mov	 eax, ecx
  0000a	5d		 pop	 ebp
  0000b	c2 04 00	 ret	 4
??0FQuestInstanceCompare@@QAE@K@Z ENDP			; FQuestInstanceCompare::FQuestInstanceCompare
_TEXT	ENDS
; Function compile flags: /Ogtp
; File E:\Metin2_server\SolWayneSF v6\ClientVS22\source\UserInterface\PythonQuest.cpp
;	COMDAT ??RFQuestInstanceCompare@@QAE_NABUSQuestInstance@CPythonQuest@@@Z
_TEXT	SEGMENT
_rQuestInstance$ = 8					; size = 4
??RFQuestInstanceCompare@@QAE_NABUSQuestInstance@CPythonQuest@@@Z PROC ; FQuestInstanceCompare::operator(), COMDAT
; _this$ = ecx

; 20   : 	{

  00000	55		 push	 ebp
  00001	8b ec		 mov	 ebp, esp

; 21   : 		return dwSearchIndex == rQuestInstance.dwIndex;

  00003	8b 45 08	 mov	 eax, DWORD PTR _rQuestInstance$[ebp]
  00006	8b 09		 mov	 ecx, DWORD PTR [ecx]
  00008	3b 08		 cmp	 ecx, DWORD PTR [eax]
  0000a	0f 94 c0	 sete	 al

; 22   : 	}

  0000d	5d		 pop	 ebp
  0000e	c2 04 00	 ret	 4
??RFQuestInstanceCompare@@QAE_NABUSQuestInstance@CPythonQuest@@@Z ENDP ; FQuestInstanceCompare::operator()
_TEXT	ENDS
; Function compile flags: /Ogtp
; File E:\Metin2_server\SolWayneSF v6\ClientVS22\source\UserInterface\PythonQuest.cpp
; File C:\Program Files\Microsoft Visual Studio\2022\Community\VC\Tools\MSVC\14.34.31933\include\vector
; File E:\Metin2_server\SolWayneSF v6\ClientVS22\source\UserInterface\PythonQuest.cpp
;	COMDAT ?GetQuestCount@CPythonQuest@@QAEHXZ
_TEXT	SEGMENT
?GetQuestCount@CPythonQuest@@QAEHXZ PROC		; CPythonQuest::GetQuestCount, COMDAT
; _this$ = ecx
; File C:\Program Files\Microsoft Visual Studio\2022\Community\VC\Tools\MSVC\14.34.31933\include\vector

; 1932 :         return static_cast<size_type>(_My_data._Mylast - _My_data._Myfirst);

  00000	8b 41 08	 mov	 eax, DWORD PTR [ecx+8]
  00003	2b 41 04	 sub	 eax, DWORD PTR [ecx+4]
  00006	c1 f8 02	 sar	 eax, 2
  00009	69 c0 35 c2 72
	4f		 imul	 eax, eax, 1332920885
; File E:\Metin2_server\SolWayneSF v6\ClientVS22\source\UserInterface\PythonQuest.cpp

; 129  : }

  0000f	c3		 ret	 0
?GetQuestCount@CPythonQuest@@QAEHXZ ENDP		; CPythonQuest::GetQuestCount
_TEXT	ENDS
; Function compile flags: /Ogtp
; File E:\Metin2_server\SolWayneSF v6\ClientVS22\source\UserInterface\PythonQuest.cpp
;	COMDAT ?GetQuestButtonNoticeCount@CPythonQuest@@QAEHE@Z
_TEXT	SEGMENT
_bQuestType$ = 8					; size = 1
?GetQuestButtonNoticeCount@CPythonQuest@@QAEHE@Z PROC	; CPythonQuest::GetQuestButtonNoticeCount, COMDAT
; _this$ = ecx

; 133  : {

  00000	55		 push	 ebp
  00001	8b ec		 mov	 ebp, esp
  00003	56		 push	 esi

; 134  : 	int count = 0;
; 135  : 	for (TQuestInstanceContainer::iterator::value_type& it : m_QuestInstanceContainer)

  00004	8b 71 08	 mov	 esi, DWORD PTR [ecx+8]
  00007	33 c0		 xor	 eax, eax
  00009	8b 49 04	 mov	 ecx, DWORD PTR [ecx+4]
  0000c	3b ce		 cmp	 ecx, esi
  0000e	74 15		 je	 SHORT $LN3@GetQuestBu
  00010	8a 55 08	 mov	 dl, BYTE PTR _bQuestType$[ebp]
$LL4@GetQuestBu:

; 136  : 	{
; 137  : 		if (bQuestType == QUEST_TYPE_MAX)

  00013	80 fa 09	 cmp	 dl, 9
  00016	74 05		 je	 SHORT $LN14@GetQuestBu

; 138  : 			count += 1;
; 139  : 		else
; 140  : 			if (it.bType == bQuestType)

  00018	38 51 70	 cmp	 BYTE PTR [ecx+112], dl
  0001b	75 01		 jne	 SHORT $LN2@GetQuestBu
$LN14@GetQuestBu:

; 134  : 	int count = 0;
; 135  : 	for (TQuestInstanceContainer::iterator::value_type& it : m_QuestInstanceContainer)

  0001d	40		 inc	 eax
$LN2@GetQuestBu:
  0001e	83 c1 74	 add	 ecx, 116		; 00000074H
  00021	3b ce		 cmp	 ecx, esi
  00023	75 ee		 jne	 SHORT $LL4@GetQuestBu
$LN3@GetQuestBu:
  00025	5e		 pop	 esi

; 141  : 				count += 1;
; 142  : 	}
; 143  : 	return count;
; 144  : }

  00026	5d		 pop	 ebp
  00027	c2 04 00	 ret	 4
?GetQuestButtonNoticeCount@CPythonQuest@@QAEHE@Z ENDP	; CPythonQuest::GetQuestButtonNoticeCount
_TEXT	ENDS
; Function compile flags: /Ogtp
; File E:\Metin2_server\SolWayneSF v6\ClientVS22\source\UserInterface\PythonQuest.cpp
; File C:\Program Files\Microsoft Visual Studio\2022\Community\VC\Tools\MSVC\14.34.31933\include\vector
; File E:\Metin2_server\SolWayneSF v6\ClientVS22\source\UserInterface\PythonQuest.cpp
; File C:\Program Files\Microsoft Visual Studio\2022\Community\VC\Tools\MSVC\14.34.31933\include\vector
; File C:\Program Files\Microsoft Visual Studio\2022\Community\VC\Tools\MSVC\14.34.31933\include\xutility
; File E:\Metin2_server\SolWayneSF v6\ClientVS22\source\UserInterface\PythonQuest.cpp
; File C:\Program Files\Microsoft Visual Studio\2022\Community\VC\Tools\MSVC\14.34.31933\include\xutility
; File E:\Metin2_server\SolWayneSF v6\ClientVS22\source\UserInterface\PythonQuest.cpp
; File C:\Program Files\Microsoft Visual Studio\2022\Community\VC\Tools\MSVC\14.34.31933\include\vector
; File E:\Metin2_server\SolWayneSF v6\ClientVS22\source\UserInterface\PythonQuest.cpp
; File C:\Program Files\Microsoft Visual Studio\2022\Community\VC\Tools\MSVC\14.34.31933\include\vector
; File E:\Metin2_server\SolWayneSF v6\ClientVS22\source\UserInterface\PythonQuest.cpp
;	COMDAT ?GetQuestInstancePtr@CPythonQuest@@QAE_NKPAPAUSQuestInstance@1@@Z
_TEXT	SEGMENT
_dwQuestIndex$ = 8					; size = 4
_ppQuestInstance$ = 12					; size = 4
?GetQuestInstancePtr@CPythonQuest@@QAE_NKPAPAUSQuestInstance@1@@Z PROC ; CPythonQuest::GetQuestInstancePtr, COMDAT
; _this$ = ecx

; 149  : {

  00000	55		 push	 ebp
  00001	8b ec		 mov	 ebp, esp
; File C:\Program Files\Microsoft Visual Studio\2022\Community\VC\Tools\MSVC\14.34.31933\include\vector

; 41   :     _CONSTEXPR20 _Vector_const_iterator(_Tptr _Parg, const _Container_base* _Pvector) noexcept : _Ptr(_Parg) {

  00003	8b 51 08	 mov	 edx, DWORD PTR [ecx+8]
; File E:\Metin2_server\SolWayneSF v6\ClientVS22\source\UserInterface\PythonQuest.cpp

; 149  : {

  00006	56		 push	 esi
; File C:\Program Files\Microsoft Visual Studio\2022\Community\VC\Tools\MSVC\14.34.31933\include\vector

; 41   :     _CONSTEXPR20 _Vector_const_iterator(_Tptr _Parg, const _Container_base* _Pvector) noexcept : _Ptr(_Parg) {

  00007	8b 71 04	 mov	 esi, DWORD PTR [ecx+4]
; File C:\Program Files\Microsoft Visual Studio\2022\Community\VC\Tools\MSVC\14.34.31933\include\xutility

; 5598 :     for (; _UFirst != _ULast; ++_UFirst) {

  0000a	3b f2		 cmp	 esi, edx
  0000c	74 10		 je	 SHORT $LN47@GetQuestIn
  0000e	8b 4d 08	 mov	 ecx, DWORD PTR _dwQuestIndex$[ebp]
  00011	8b c6		 mov	 eax, esi
$LL21@GetQuestIn:
; File E:\Metin2_server\SolWayneSF v6\ClientVS22\source\UserInterface\PythonQuest.cpp

; 21   : 		return dwSearchIndex == rQuestInstance.dwIndex;

  00013	3b 08		 cmp	 ecx, DWORD PTR [eax]
; File C:\Program Files\Microsoft Visual Studio\2022\Community\VC\Tools\MSVC\14.34.31933\include\xutility

; 5599 :         if (_Pred(*_UFirst)) {

  00015	74 0e		 je	 SHORT $LN2@GetQuestIn

; 5598 :     for (; _UFirst != _ULast; ++_UFirst) {

  00017	83 c0 74	 add	 eax, 116		; 00000074H
  0001a	3b c2		 cmp	 eax, edx
  0001c	75 f5		 jne	 SHORT $LL21@GetQuestIn
$LN47@GetQuestIn:
; File E:\Metin2_server\SolWayneSF v6\ClientVS22\source\UserInterface\PythonQuest.cpp

; 152  : 		return false;

  0001e	32 c0		 xor	 al, al
  00020	5e		 pop	 esi

; 157  : }

  00021	5d		 pop	 ebp
  00022	c2 08 00	 ret	 8
$LN2@GetQuestIn:
; File C:\Program Files\Microsoft Visual Studio\2022\Community\VC\Tools\MSVC\14.34.31933\include\vector

; 41   :     _CONSTEXPR20 _Vector_const_iterator(_Tptr _Parg, const _Container_base* _Pvector) noexcept : _Ptr(_Parg) {

  00025	2b c6		 sub	 eax, esi

; 147  :         return _Ptr - _Right._Ptr;

  00027	c1 f8 02	 sar	 eax, 2
  0002a	69 c0 35 c2 72
	4f		 imul	 eax, eax, 1332920885

; 1952 :         return _My_data._Myfirst[_Pos];

  00030	6b c8 74	 imul	 ecx, eax, 116
; File E:\Metin2_server\SolWayneSF v6\ClientVS22\source\UserInterface\PythonQuest.cpp

; 155  : 	*ppQuestInstance = &m_QuestInstanceContainer[dwVectorIndex];

  00033	8b 45 0c	 mov	 eax, DWORD PTR _ppQuestInstance$[ebp]
; File C:\Program Files\Microsoft Visual Studio\2022\Community\VC\Tools\MSVC\14.34.31933\include\vector

; 1952 :         return _My_data._Myfirst[_Pos];

  00036	03 ce		 add	 ecx, esi
; File E:\Metin2_server\SolWayneSF v6\ClientVS22\source\UserInterface\PythonQuest.cpp

; 155  : 	*ppQuestInstance = &m_QuestInstanceContainer[dwVectorIndex];

  00038	89 08		 mov	 DWORD PTR [eax], ecx

; 156  : 	return true;

  0003a	b0 01		 mov	 al, 1
  0003c	5e		 pop	 esi

; 157  : }

  0003d	5d		 pop	 ebp
  0003e	c2 08 00	 ret	 8
?GetQuestInstancePtr@CPythonQuest@@QAE_NKPAPAUSQuestInstance@1@@Z ENDP ; CPythonQuest::GetQuestInstancePtr
_TEXT	ENDS
; Function compile flags: /Ogtp
; File E:\Metin2_server\SolWayneSF v6\ClientVS22\source\UserInterface\PythonQuest.cpp
; File C:\Program Files\Microsoft Visual Studio\2022\Community\VC\Tools\MSVC\14.34.31933\include\vector
; File C:\Program Files\Microsoft Visual Studio\2022\Community\VC\Tools\MSVC\14.34.31933\include\xutility
; File E:\Metin2_server\SolWayneSF v6\ClientVS22\source\UserInterface\PythonQuest.cpp
; File C:\Program Files\Microsoft Visual Studio\2022\Community\VC\Tools\MSVC\14.34.31933\include\xutility
; File E:\Metin2_server\SolWayneSF v6\ClientVS22\source\UserInterface\PythonQuest.cpp
;	COMDAT ?__GetQuestInstancePtr@CPythonQuest@@IAE_NKPAPAUSQuestInstance@1@@Z
_TEXT	SEGMENT
_dwQuestIndex$ = 8					; size = 4
_ppQuestInstance$ = 12					; size = 4
?__GetQuestInstancePtr@CPythonQuest@@IAE_NKPAPAUSQuestInstance@1@@Z PROC ; CPythonQuest::__GetQuestInstancePtr, COMDAT
; _this$ = ecx

; 171  : {

  00000	55		 push	 ebp
  00001	8b ec		 mov	 ebp, esp
; File C:\Program Files\Microsoft Visual Studio\2022\Community\VC\Tools\MSVC\14.34.31933\include\vector

; 41   :     _CONSTEXPR20 _Vector_const_iterator(_Tptr _Parg, const _Container_base* _Pvector) noexcept : _Ptr(_Parg) {

  00003	8b 51 08	 mov	 edx, DWORD PTR [ecx+8]
  00006	8b 41 04	 mov	 eax, DWORD PTR [ecx+4]
; File C:\Program Files\Microsoft Visual Studio\2022\Community\VC\Tools\MSVC\14.34.31933\include\xutility

; 5598 :     for (; _UFirst != _ULast; ++_UFirst) {

  00009	3b c2		 cmp	 eax, edx
  0000b	74 0e		 je	 SHORT $LN35@GetQuestIn
  0000d	8b 4d 08	 mov	 ecx, DWORD PTR _dwQuestIndex$[ebp]
$LL21@GetQuestIn:
; File E:\Metin2_server\SolWayneSF v6\ClientVS22\source\UserInterface\PythonQuest.cpp

; 21   : 		return dwSearchIndex == rQuestInstance.dwIndex;

  00010	3b 08		 cmp	 ecx, DWORD PTR [eax]
; File C:\Program Files\Microsoft Visual Studio\2022\Community\VC\Tools\MSVC\14.34.31933\include\xutility

; 5599 :         if (_Pred(*_UFirst)) {

  00012	74 0d		 je	 SHORT $LN2@GetQuestIn

; 5598 :     for (; _UFirst != _ULast; ++_UFirst) {

  00014	83 c0 74	 add	 eax, 116		; 00000074H
  00017	3b c2		 cmp	 eax, edx
  00019	75 f5		 jne	 SHORT $LL21@GetQuestIn
$LN35@GetQuestIn:
; File E:\Metin2_server\SolWayneSF v6\ClientVS22\source\UserInterface\PythonQuest.cpp

; 174  : 		return false;

  0001b	32 c0		 xor	 al, al

; 179  : }

  0001d	5d		 pop	 ebp
  0001e	c2 08 00	 ret	 8
$LN2@GetQuestIn:

; 175  : 
; 176  : 	*ppQuestInstance = &(*itor);

  00021	8b 4d 0c	 mov	 ecx, DWORD PTR _ppQuestInstance$[ebp]
  00024	89 01		 mov	 DWORD PTR [ecx], eax

; 177  : 
; 178  : 	return true;

  00026	b0 01		 mov	 al, 1

; 179  : }

  00028	5d		 pop	 ebp
  00029	c2 08 00	 ret	 8
?__GetQuestInstancePtr@CPythonQuest@@IAE_NKPAPAUSQuestInstance@1@@Z ENDP ; CPythonQuest::__GetQuestInstancePtr
_TEXT	ENDS
; Function compile flags: /Ogtp
; File E:\Metin2_server\SolWayneSF v6\ClientVS22\source\UserInterface\PythonQuest.cpp
;	COMDAT ?__Initialize@CPythonQuest@@IAEXXZ
_TEXT	SEGMENT
?__Initialize@CPythonQuest@@IAEXXZ PROC			; CPythonQuest::__Initialize, COMDAT
; _this$dead$ = ecx

; 183  : /*
; 184  : #ifdef _DEBUG
; 185  : 	for (int i = 0; i < 7; ++i)
; 186  : 	{
; 187  : 		SQuestInstance test;
; 188  : 		test.dwIndex = i;
; 189  : 		test.strIconFileName = "";
; 190  : 		test.strTitle = _getf("test%d", i);
; 191  : 		test.strClockName = " ";
; 192  : 		test.strCounterName = " ";
; 193  : 		test.iClockValue = 1000;
; 194  : 		test.iCounterValue = 1000;
; 195  : 		test.iStartTime = 0;
; 196  : 		RegisterQuestInstance(test);
; 197  : 	}
; 198  : #endif
; 199  : */
; 200  : }

  00000	c2 00 00	 ret	 0
?__Initialize@CPythonQuest@@IAEXXZ ENDP			; CPythonQuest::__Initialize
_TEXT	ENDS
; Function compile flags: /Ogtp
; File E:\Metin2_server\SolWayneSF v6\ClientVS22\source\UserInterface\PythonQuest.cpp
; File C:\Program Files\Microsoft Visual Studio\2022\Community\VC\Tools\MSVC\14.34.31933\include\vector
; File C:\Program Files\Microsoft Visual Studio\2022\Community\VC\Tools\MSVC\14.34.31933\include\xmemory
; File C:\Program Files\Microsoft Visual Studio\2022\Community\VC\Tools\MSVC\14.34.31933\include\vector
; File E:\Metin2_server\SolWayneSF v6\ClientVS22\source\UserInterface\PythonQuest.cpp
;	COMDAT ?Clear@CPythonQuest@@QAEXXZ
_TEXT	SEGMENT
?Clear@CPythonQuest@@QAEXXZ PROC			; CPythonQuest::Clear, COMDAT
; _this$ = ecx

; 203  : {

  00000	53		 push	 ebx
  00001	8b d9		 mov	 ebx, ecx
  00003	56		 push	 esi
  00004	57		 push	 edi
; File C:\Program Files\Microsoft Visual Studio\2022\Community\VC\Tools\MSVC\14.34.31933\include\vector

; 1829 :         if (_Myfirst == _Mylast) { // already empty, nothing to do

  00005	8b 73 04	 mov	 esi, DWORD PTR [ebx+4]
  00008	8b 7b 08	 mov	 edi, DWORD PTR [ebx+8]
  0000b	3b f7		 cmp	 esi, edi
  0000d	74 15		 je	 SHORT $LN3@Clear
  0000f	90		 npad	 1
$LL9@Clear:
  00010	8b ce		 mov	 ecx, esi
  00012	e8 00 00 00 00	 call	 ??1SQuestInstance@CPythonQuest@@QAE@XZ
; File C:\Program Files\Microsoft Visual Studio\2022\Community\VC\Tools\MSVC\14.34.31933\include\xmemory

; 947  :         for (; _First != _Last; ++_First) {

  00017	83 c6 74	 add	 esi, 116		; 00000074H
  0001a	3b f7		 cmp	 esi, edi
  0001c	75 f2		 jne	 SHORT $LL9@Clear
; File C:\Program Files\Microsoft Visual Studio\2022\Community\VC\Tools\MSVC\14.34.31933\include\vector

; 1839 :         _Mylast = _Myfirst;

  0001e	8b 43 04	 mov	 eax, DWORD PTR [ebx+4]
  00021	89 43 08	 mov	 DWORD PTR [ebx+8], eax
$LN3@Clear:
  00024	5f		 pop	 edi
; File E:\Metin2_server\SolWayneSF v6\ClientVS22\source\UserInterface\PythonQuest.cpp

; 205  : }

  00025	5e		 pop	 esi
  00026	5b		 pop	 ebx
  00027	c3		 ret	 0
?Clear@CPythonQuest@@QAEXXZ ENDP			; CPythonQuest::Clear
_TEXT	ENDS
; Function compile flags: /Ogtp
;	COMDAT ??_GCPythonQuest@@UAEPAXI@Z
_TEXT	SEGMENT
___flags$ = 8						; size = 4
??_GCPythonQuest@@UAEPAXI@Z PROC			; CPythonQuest::`scalar deleting destructor', COMDAT
; _this$ = ecx
  00000	55		 push	 ebp
  00001	8b ec		 mov	 ebp, esp
  00003	56		 push	 esi
  00004	8b f1		 mov	 esi, ecx
  00006	e8 00 00 00 00	 call	 ??1CPythonQuest@@UAE@XZ	; CPythonQuest::~CPythonQuest
  0000b	f6 45 08 01	 test	 BYTE PTR ___flags$[ebp], 1
  0000f	74 0b		 je	 SHORT $LN4@scalar
  00011	6a 10		 push	 16			; 00000010H
  00013	56		 push	 esi
  00014	e8 00 00 00 00	 call	 ??3@YAXPAXI@Z		; operator delete
  00019	83 c4 08	 add	 esp, 8
$LN4@scalar:
  0001c	8b c6		 mov	 eax, esi
  0001e	5e		 pop	 esi
  0001f	5d		 pop	 ebp
  00020	c2 04 00	 ret	 4
??_GCPythonQuest@@UAEPAXI@Z ENDP			; CPythonQuest::`scalar deleting destructor'
_TEXT	ENDS
; Function compile flags: /Ogtp
; File E:\Metin2_server\SolWayneSF v6\ClientVS22\source\UserInterface\PythonQuest.cpp
;	COMDAT ?questGetQuestCount@@YAPAU_object@@PAU1@0@Z
_TEXT	SEGMENT
_poSelf$ = 8						; size = 4
_poArgs$ = 12						; size = 4
?questGetQuestCount@@YAPAU_object@@PAU1@0@Z PROC	; questGetQuestCount, COMDAT

; 223  : 	return Py_BuildValue("i", CPythonQuest::Instance().GetQuestCount());

  00000	8b 0d 00 00 00
	00		 mov	 ecx, DWORD PTR ?ms_singleton@?$CSingleton@VCPythonQuest@@@@0PAVCPythonQuest@@A ; CSingleton<CPythonQuest>::ms_singleton
  00006	e8 00 00 00 00	 call	 ?GetQuestCount@CPythonQuest@@QAEHXZ ; CPythonQuest::GetQuestCount
  0000b	50		 push	 eax
  0000c	68 00 00 00 00	 push	 OFFSET ??_C@_01KBJDNOO@i@
  00011	ff 15 00 00 00
	00		 call	 DWORD PTR __imp__Py_BuildValue
  00017	83 c4 08	 add	 esp, 8

; 224  : }

  0001a	c3		 ret	 0
?questGetQuestCount@@YAPAU_object@@PAU1@0@Z ENDP	; questGetQuestCount
_TEXT	ENDS
; Function compile flags: /Ogtp
; File E:\Metin2_server\SolWayneSF v6\ClientVS22\source\UserInterface\PythonQuest.cpp
; File C:\Program Files\Microsoft Visual Studio\2022\Community\VC\Tools\MSVC\14.34.31933\include\xstring
; File E:\Metin2_server\SolWayneSF v6\ClientVS22\source\UserInterface\PythonQuest.cpp
; File C:\Program Files\Microsoft Visual Studio\2022\Community\VC\Tools\MSVC\14.34.31933\include\xstring
; File E:\Metin2_server\SolWayneSF v6\ClientVS22\source\UserInterface\PythonQuest.cpp
; File C:\Program Files\Microsoft Visual Studio\2022\Community\VC\Tools\MSVC\14.34.31933\include\xstring
; File E:\Metin2_server\SolWayneSF v6\ClientVS22\source\UserInterface\PythonQuest.cpp
; File C:\Program Files\Microsoft Visual Studio\2022\Community\VC\Tools\MSVC\14.34.31933\include\xstring
; File E:\Metin2_server\SolWayneSF v6\ClientVS22\source\UserInterface\PythonQuest.cpp
; File C:\Program Files\Microsoft Visual Studio\2022\Community\VC\Tools\MSVC\14.34.31933\include\xstring
; File C:\Program Files\Microsoft Visual Studio\2022\Community\VC\Tools\MSVC\14.34.31933\include\xmemory
; File C:\Program Files\Microsoft Visual Studio\2022\Community\VC\Tools\MSVC\14.34.31933\include\xstring
; File C:\Program Files\Microsoft Visual Studio\2022\Community\VC\Tools\MSVC\14.34.31933\include\xmemory
; File C:\Program Files\Microsoft Visual Studio\2022\Community\VC\Tools\MSVC\14.34.31933\include\xstring
; File E:\Metin2_server\SolWayneSF v6\ClientVS22\source\UserInterface\PythonQuest.cpp
; File C:\Program Files\Microsoft Visual Studio\2022\Community\VC\Tools\MSVC\14.34.31933\include\xmemory
; File C:\Program Files\Microsoft Visual Studio\2022\Community\VC\Tools\MSVC\14.34.31933\include\xstring
; File C:\Program Files\Microsoft Visual Studio\2022\Community\VC\Tools\MSVC\14.34.31933\include\xmemory
; File C:\Program Files\Microsoft Visual Studio\2022\Community\VC\Tools\MSVC\14.34.31933\include\xstring
; File C:\Program Files\Microsoft Visual Studio\2022\Community\VC\Tools\MSVC\14.34.31933\include\xmemory
; File C:\Program Files\Microsoft Visual Studio\2022\Community\VC\Tools\MSVC\14.34.31933\include\xstring
; File E:\Metin2_server\SolWayneSF v6\ClientVS22\source\UserInterface\PythonQuest.cpp
; File C:\Program Files\Microsoft Visual Studio\2022\Community\VC\Tools\MSVC\14.34.31933\include\xstring
; File E:\Metin2_server\SolWayneSF v6\ClientVS22\source\UserInterface\PythonQuest.cpp
; File C:\Program Files\Microsoft Visual Studio\2022\Community\VC\Tools\MSVC\14.34.31933\include\xstring
; File E:\Metin2_server\SolWayneSF v6\ClientVS22\source\UserInterface\PythonQuest.cpp
; File C:\Program Files\Microsoft Visual Studio\2022\Community\VC\Tools\MSVC\14.34.31933\include\xstring
; File E:\Metin2_server\SolWayneSF v6\ClientVS22\source\UserInterface\PythonQuest.cpp
; File C:\Program Files\Microsoft Visual Studio\2022\Community\VC\Tools\MSVC\14.34.31933\include\xstring
; File C:\Program Files\Microsoft Visual Studio\2022\Community\VC\Tools\MSVC\14.34.31933\include\xmemory
; File C:\Program Files\Microsoft Visual Studio\2022\Community\VC\Tools\MSVC\14.34.31933\include\xstring
; File C:\Program Files\Microsoft Visual Studio\2022\Community\VC\Tools\MSVC\14.34.31933\include\xmemory
; File C:\Program Files\Microsoft Visual Studio\2022\Community\VC\Tools\MSVC\14.34.31933\include\xstring
; File E:\Metin2_server\SolWayneSF v6\ClientVS22\source\UserInterface\PythonQuest.cpp
; File C:\Program Files\Microsoft Visual Studio\2022\Community\VC\Tools\MSVC\14.34.31933\include\xmemory
; File E:\Metin2_server\SolWayneSF v6\ClientVS22\source\UserInterface\PythonQuest.cpp
;	COMDAT ?questGetQuestData@@YAPAU_object@@PAU1@0@Z
_TEXT	SEGMENT
_iIndex$ = -76						; size = 4
_pImage$1$ = -72					; size = 4
_pQuestInstance$ = -72					; size = 4
_strIconFileName$2 = -68				; size = 24
_strIconFileName$3 = -40				; size = 24
__$ArrayPad$ = -16					; size = 4
__$EHRec$ = -12						; size = 12
_poSelf$ = 8						; size = 4
_poArgs$ = 12						; size = 4
?questGetQuestData@@YAPAU_object@@PAU1@0@Z PROC		; questGetQuestData, COMDAT

; 227  : {

  00000	55		 push	 ebp
  00001	8b ec		 mov	 ebp, esp
  00003	6a ff		 push	 -1
  00005	68 00 00 00 00	 push	 __ehhandler$?questGetQuestData@@YAPAU_object@@PAU1@0@Z
  0000a	64 a1 00 00 00
	00		 mov	 eax, DWORD PTR fs:0
  00010	50		 push	 eax
  00011	83 ec 40	 sub	 esp, 64			; 00000040H
  00014	a1 00 00 00 00	 mov	 eax, DWORD PTR ___security_cookie
  00019	33 c5		 xor	 eax, ebp
  0001b	89 45 f0	 mov	 DWORD PTR __$ArrayPad$[ebp], eax
  0001e	56		 push	 esi
  0001f	57		 push	 edi
  00020	50		 push	 eax
  00021	8d 45 f4	 lea	 eax, DWORD PTR __$EHRec$[ebp]
  00024	64 a3 00 00 00
	00		 mov	 DWORD PTR fs:0, eax
  0002a	8b 45 0c	 mov	 eax, DWORD PTR _poArgs$[ebp]

; 228  : 	int iIndex;
; 229  : 	if (!PyTuple_GetInteger(poArgs, 0, &iIndex))

  0002d	8d 4d b4	 lea	 ecx, DWORD PTR _iIndex$[ebp]
  00030	51		 push	 ecx
  00031	6a 00		 push	 0
  00033	50		 push	 eax
  00034	e8 00 00 00 00	 call	 ?PyTuple_GetInteger@@YA_NPAU_object@@HPAH@Z ; PyTuple_GetInteger
  00039	83 c4 0c	 add	 esp, 12			; 0000000cH
  0003c	84 c0		 test	 al, al
  0003e	75 0a		 jne	 SHORT $LN2@questGetQu

; 230  : 		return Py_BadArgument();

  00040	e8 00 00 00 00	 call	 ?Py_BadArgument@@YAPAU_object@@XZ ; Py_BadArgument
  00045	e9 ca 01 00 00	 jmp	 $LN1@questGetQu
$LN2@questGetQu:

; 231  : 
; 232  : 	CPythonQuest::SQuestInstance * pQuestInstance;
; 233  : 	if (!CPythonQuest::Instance().GetQuestInstancePtr(iIndex, &pQuestInstance))

  0004a	8b 0d 00 00 00
	00		 mov	 ecx, DWORD PTR ?ms_singleton@?$CSingleton@VCPythonQuest@@@@0PAVCPythonQuest@@A ; CSingleton<CPythonQuest>::ms_singleton
  00050	8d 45 b8	 lea	 eax, DWORD PTR _pQuestInstance$[ebp]
  00053	50		 push	 eax
  00054	ff 75 b4	 push	 DWORD PTR _iIndex$[ebp]
  00057	e8 00 00 00 00	 call	 ?GetQuestInstancePtr@CPythonQuest@@QAE_NKPAPAUSQuestInstance@1@@Z ; CPythonQuest::GetQuestInstancePtr
  0005c	84 c0		 test	 al, al
  0005e	75 15		 jne	 SHORT $LN3@questGetQu

; 234  : 		return Py_BuildException("Failed to find quest by index %d", iIndex);

  00060	ff 75 b4	 push	 DWORD PTR _iIndex$[ebp]
  00063	68 00 00 00 00	 push	 OFFSET ??_C@_0CB@KNIDBLNN@Failed?5to?5find?5quest?5by?5index?5?$CF@
  00068	e8 00 00 00 00	 call	 ?Py_BuildException@@YAPAU_object@@PBDZZ ; Py_BuildException
  0006d	83 c4 08	 add	 esp, 8
  00070	e9 9f 01 00 00	 jmp	 $LN1@questGetQu
$LN3@questGetQu:

; 235  : 
; 236  : 	CGraphicImage * pImage = NULL;
; 237  : 	if (!pQuestInstance->strIconFileName.empty())

  00075	8b 75 b8	 mov	 esi, DWORD PTR _pQuestInstance$[ebp]
  00078	0f 57 c0	 xorps	 xmm0, xmm0
  0007b	83 7e 14 00	 cmp	 DWORD PTR [esi+20], 0
  0007f	0f 84 a5 00 00
	00		 je	 $LN4@questGetQu
; File C:\Program Files\Microsoft Visual Studio\2022\Community\VC\Tools\MSVC\14.34.31933\include\xstring

; 2339 :         _CONSTEXPR20 _Bxty() noexcept : _Buf() {} // user-provided, for fancy pointers

  00085	0f 11 45 d8	 movups	 XMMWORD PTR _strIconFileName$3[ebp], xmm0

; 4995 :         _My_data._Mysize = 0;

  00089	c7 45 e8 00 00
	00 00		 mov	 DWORD PTR _strIconFileName$3[ebp+16], 0

; 4996 :         _My_data._Myres  = _BUF_SIZE - 1;

  00090	c7 45 ec 0f 00
	00 00		 mov	 DWORD PTR _strIconFileName$3[ebp+20], 15 ; 0000000fH

; 4997 :         _My_data._Activate_SSO_buffer();
; 4998 : 
; 4999 :         // the _Traits::assign is last so the codegen doesn't think the char write can alias this
; 5000 :         _Traits::assign(_My_data._Bx._Buf[0], _Elem());

  00097	c6 45 d8 00	 mov	 BYTE PTR _strIconFileName$3[ebp], 0

; 3546 :         return assign(_Ptr, _Convert_size<size_type>(_Traits::length(_Ptr)));

  0009b	6a 25		 push	 37			; 00000025H
  0009d	68 00 00 00 00	 push	 OFFSET ??_C@_0CG@FJJGJNND@d?3?1ymir?5work?1ui?1game?1quest?1ques@
  000a2	8d 4d d8	 lea	 ecx, DWORD PTR _strIconFileName$3[ebp]
; File E:\Metin2_server\SolWayneSF v6\ClientVS22\source\UserInterface\PythonQuest.cpp

; 239  : 		std::string strIconFileName;

  000a5	c7 45 fc 00 00
	00 00		 mov	 DWORD PTR __$EHRec$[ebp+8], 0
; File C:\Program Files\Microsoft Visual Studio\2022\Community\VC\Tools\MSVC\14.34.31933\include\xstring

; 3546 :         return assign(_Ptr, _Convert_size<size_type>(_Traits::length(_Ptr)));

  000ac	e8 00 00 00 00	 call	 ?assign@?$basic_string@DU?$char_traits@D@std@@V?$allocator@D@2@@std@@QAEAAV12@QBDI@Z ; std::basic_string<char,std::char_traits<char>,std::allocator<char> >::assign

; 2301 :         return _BUF_SIZE <= _Myres;

  000b1	83 7e 18 10	 cmp	 DWORD PTR [esi+24], 16	; 00000010H

; 4256 :         return _Mypair._Myval2._Myptr();

  000b5	8d 46 04	 lea	 eax, DWORD PTR [esi+4]

; 2293 :         if (_Large_string_engaged()) {

  000b8	72 02		 jb	 SHORT $LN47@questGetQu

; 2294 :             _Result = _Unfancy(_Bx._Ptr);

  000ba	8b 00		 mov	 eax, DWORD PTR [eax]
$LN47@questGetQu:

; 3383 :         return append(_Ptr);

  000bc	50		 push	 eax
  000bd	8d 4d d8	 lea	 ecx, DWORD PTR _strIconFileName$3[ebp]
  000c0	e8 00 00 00 00	 call	 ?append@?$basic_string@DU?$char_traits@D@std@@V?$allocator@D@2@@std@@QAEAAV12@QBD@Z ; std::basic_string<char,std::char_traits<char>,std::allocator<char> >::append

; 2301 :         return _BUF_SIZE <= _Myres;

  000c5	83 7d ec 10	 cmp	 DWORD PTR _strIconFileName$3[ebp+20], 16 ; 00000010H

; 2292 :         const value_type* _Result = _Bx._Buf;

  000c9	8d 45 d8	 lea	 eax, DWORD PTR _strIconFileName$3[ebp]
; File E:\Metin2_server\SolWayneSF v6\ClientVS22\source\UserInterface\PythonQuest.cpp

; 242  : 		pImage = (CGraphicImage *)CResourceManager::Instance().GetResourcePointer(strIconFileName.c_str());

  000cc	8b 0d 00 00 00
	00		 mov	 ecx, DWORD PTR ?ms_singleton@?$CSingleton@VCResourceManager@@@@0PAVCResourceManager@@A ; CSingleton<CResourceManager>::ms_singleton
; File C:\Program Files\Microsoft Visual Studio\2022\Community\VC\Tools\MSVC\14.34.31933\include\xstring

; 2293 :         if (_Large_string_engaged()) {

  000d2	0f 43 45 d8	 cmovae	 eax, DWORD PTR _strIconFileName$3[ebp]
; File E:\Metin2_server\SolWayneSF v6\ClientVS22\source\UserInterface\PythonQuest.cpp

; 242  : 		pImage = (CGraphicImage *)CResourceManager::Instance().GetResourcePointer(strIconFileName.c_str());

  000d6	50		 push	 eax
  000d7	e8 00 00 00 00	 call	 ?GetResourcePointer@CResourceManager@@QAEPAVCResource@@PBD@Z ; CResourceManager::GetResourcePointer
; File C:\Program Files\Microsoft Visual Studio\2022\Community\VC\Tools\MSVC\14.34.31933\include\xstring

; 2301 :         return _BUF_SIZE <= _Myres;

  000dc	8b 4d ec	 mov	 ecx, DWORD PTR _strIconFileName$3[ebp+20]
; File E:\Metin2_server\SolWayneSF v6\ClientVS22\source\UserInterface\PythonQuest.cpp

; 242  : 		pImage = (CGraphicImage *)CResourceManager::Instance().GetResourcePointer(strIconFileName.c_str());

  000df	89 45 b8	 mov	 DWORD PTR _pImage$1$[ebp], eax
; File C:\Program Files\Microsoft Visual Studio\2022\Community\VC\Tools\MSVC\14.34.31933\include\xstring

; 2301 :         return _BUF_SIZE <= _Myres;

  000e2	83 f9 10	 cmp	 ecx, 16			; 00000010H

; 5008 :         if (_My_data._Large_string_engaged()) {

  000e5	72 2c		 jb	 SHORT $LN72@questGetQu
; File C:\Program Files\Microsoft Visual Studio\2022\Community\VC\Tools\MSVC\14.34.31933\include\xmemory

; 830  :         _Deallocate<_New_alignof<_Ty>>(_Ptr, sizeof(_Ty) * _Count);

  000e7	8b 55 d8	 mov	 edx, DWORD PTR _strIconFileName$3[ebp]
; File C:\Program Files\Microsoft Visual Studio\2022\Community\VC\Tools\MSVC\14.34.31933\include\xstring

; 5013 :             _Al.deallocate(_Ptr, _My_data._Myres + 1);

  000ea	41		 inc	 ecx
; File C:\Program Files\Microsoft Visual Studio\2022\Community\VC\Tools\MSVC\14.34.31933\include\xmemory

; 830  :         _Deallocate<_New_alignof<_Ty>>(_Ptr, sizeof(_Ty) * _Count);

  000eb	8b c2		 mov	 eax, edx

; 251  :         if (_Bytes >= _Big_allocation_threshold) { // boost the alignment of big allocations to help autovectorization

  000ed	81 f9 00 10 00
	00		 cmp	 ecx, 4096		; 00001000H
  000f3	72 14		 jb	 SHORT $LN84@questGetQu

; 150  :     const uintptr_t _Ptr_container   = _Ptr_user[-1];

  000f5	8b 50 fc	 mov	 edx, DWORD PTR [eax-4]
  000f8	83 c1 23	 add	 ecx, 35			; 00000023H
  000fb	2b c2		 sub	 eax, edx

; 164  :     _STL_VERIFY(_Back_shift >= _Min_back_shift && _Back_shift <= _Non_user_size, "invalid argument");

  000fd	83 c0 fc	 add	 eax, -4			; fffffffcH
  00100	83 f8 1f	 cmp	 eax, 31			; 0000001fH
  00103	0f 87 26 01 00
	00		 ja	 $LN235@questGetQu
$LN84@questGetQu:

; 255  :         ::operator delete(_Ptr, _Bytes);

  00109	51		 push	 ecx
  0010a	52		 push	 edx
  0010b	e8 00 00 00 00	 call	 ??3@YAXPAXI@Z		; operator delete
  00110	83 c4 08	 add	 esp, 8
$LN72@questGetQu:
; File C:\Program Files\Microsoft Visual Studio\2022\Community\VC\Tools\MSVC\14.34.31933\include\xstring

; 5016 :         _My_data._Mysize = 0;

  00113	c7 45 e8 00 00
	00 00		 mov	 DWORD PTR _strIconFileName$3[ebp+16], 0

; 5017 :         _My_data._Myres  = _BUF_SIZE - 1;

  0011a	c7 45 ec 0f 00
	00 00		 mov	 DWORD PTR _strIconFileName$3[ebp+20], 15 ; 0000000fH

; 5018 :         // the _Traits::assign is last so the codegen doesn't think the char write can alias this
; 5019 :         _Traits::assign(_My_data._Bx._Buf[0], _Elem());

  00121	c6 45 d8 00	 mov	 BYTE PTR _strIconFileName$3[ebp], 0
; File E:\Metin2_server\SolWayneSF v6\ClientVS22\source\UserInterface\PythonQuest.cpp

; 243  : 	}

  00125	e9 b4 00 00 00	 jmp	 $LN173@questGetQu
$LN4@questGetQu:
; File C:\Program Files\Microsoft Visual Studio\2022\Community\VC\Tools\MSVC\14.34.31933\include\xmemory

; 77   :         return ::operator new(_Bytes);

  0012a	6a 20		 push	 32			; 00000020H
; File C:\Program Files\Microsoft Visual Studio\2022\Community\VC\Tools\MSVC\14.34.31933\include\xstring

; 2339 :         _CONSTEXPR20 _Bxty() noexcept : _Buf() {} // user-provided, for fancy pointers

  0012c	0f 11 45 bc	 movups	 XMMWORD PTR _strIconFileName$2[ebp], xmm0

; 2348 :     size_type _Mysize = 0; // current length of string

  00130	c7 45 cc 00 00
	00 00		 mov	 DWORD PTR _strIconFileName$2[ebp+16], 0

; 2767 :         _My_data._Myres               = _BUF_SIZE - 1;

  00137	c7 45 d0 0f 00
	00 00		 mov	 DWORD PTR _strIconFileName$2[ebp+20], 15 ; 0000000fH
; File C:\Program Files\Microsoft Visual Studio\2022\Community\VC\Tools\MSVC\14.34.31933\include\xmemory

; 77   :         return ::operator new(_Bytes);

  0013e	e8 00 00 00 00	 call	 ??2@YAPAXI@Z		; operator new
; File C:\Program Files\Microsoft Visual Studio\2022\Community\VC\Tools\MSVC\14.34.31933\include\xstring

; 64   :         _CSTD memcpy(_First1, _First2, _Count * sizeof(_Elem));

  00143	0f 10 05 00 00
	00 00		 movups	 xmm0, XMMWORD PTR ??_C@_0BN@GHGBHNOC@season1?1icon?1scroll_open?4tga@

; 2770 :         _Construct_in_place(_My_data._Bx._Ptr, _New_ptr);

  0014a	89 45 bc	 mov	 DWORD PTR _strIconFileName$2[ebp], eax
; File C:\Program Files\Microsoft Visual Studio\2022\Community\VC\Tools\MSVC\14.34.31933\include\xmemory

; 77   :         return ::operator new(_Bytes);

  0014d	83 c4 04	 add	 esp, 4
; File C:\Program Files\Microsoft Visual Studio\2022\Community\VC\Tools\MSVC\14.34.31933\include\xstring

; 2778 :         _My_data._Mysize = _Count;

  00150	c7 45 cc 1c 00
	00 00		 mov	 DWORD PTR _strIconFileName$2[ebp+16], 28 ; 0000001cH

; 2779 :         _My_data._Myres  = _New_capacity;

  00157	c7 45 d0 1f 00
	00 00		 mov	 DWORD PTR _strIconFileName$2[ebp+20], 31 ; 0000001fH

; 64   :         _CSTD memcpy(_First1, _First2, _Count * sizeof(_Elem));

  0015e	0f 11 00	 movups	 XMMWORD PTR [eax], xmm0
  00161	f3 0f 7e 05 10
	00 00 00	 movq	 xmm0, QWORD PTR ??_C@_0BN@GHGBHNOC@season1?1icon?1scroll_open?4tga@+16
  00169	66 0f d6 40 10	 movq	 QWORD PTR [eax+16], xmm0
  0016e	8b 0d 18 00 00
	00		 mov	 ecx, DWORD PTR ??_C@_0BN@GHGBHNOC@season1?1icon?1scroll_open?4tga@+24
  00174	89 48 18	 mov	 DWORD PTR [eax+24], ecx

; 2785 :             _Traits::assign(_Unfancy(_New_ptr)[_Count], _Elem());

  00177	c6 40 1c 00	 mov	 BYTE PTR [eax+28], 0
; File E:\Metin2_server\SolWayneSF v6\ClientVS22\source\UserInterface\PythonQuest.cpp

; 248  : 			std::string strIconFileName = "season1/icon/scroll_open.tga";

  0017b	c7 45 fc 01 00
	00 00		 mov	 DWORD PTR __$EHRec$[ebp+8], 1
; File C:\Program Files\Microsoft Visual Studio\2022\Community\VC\Tools\MSVC\14.34.31933\include\xstring

; 2292 :         const value_type* _Result = _Bx._Buf;

  00182	8d 45 bc	 lea	 eax, DWORD PTR _strIconFileName$2[ebp]

; 2301 :         return _BUF_SIZE <= _Myres;

  00185	83 7d d0 10	 cmp	 DWORD PTR _strIconFileName$2[ebp+20], 16 ; 00000010H
; File E:\Metin2_server\SolWayneSF v6\ClientVS22\source\UserInterface\PythonQuest.cpp

; 249  : 			pImage = (CGraphicImage *)CResourceManager::Instance().GetResourcePointer(strIconFileName.c_str());

  00189	8b 0d 00 00 00
	00		 mov	 ecx, DWORD PTR ?ms_singleton@?$CSingleton@VCResourceManager@@@@0PAVCResourceManager@@A ; CSingleton<CResourceManager>::ms_singleton
; File C:\Program Files\Microsoft Visual Studio\2022\Community\VC\Tools\MSVC\14.34.31933\include\xstring

; 2293 :         if (_Large_string_engaged()) {

  0018f	0f 43 45 bc	 cmovae	 eax, DWORD PTR _strIconFileName$2[ebp]
; File E:\Metin2_server\SolWayneSF v6\ClientVS22\source\UserInterface\PythonQuest.cpp

; 249  : 			pImage = (CGraphicImage *)CResourceManager::Instance().GetResourcePointer(strIconFileName.c_str());

  00193	50		 push	 eax
  00194	e8 00 00 00 00	 call	 ?GetResourcePointer@CResourceManager@@QAEPAVCResource@@PBD@Z ; CResourceManager::GetResourcePointer
; File C:\Program Files\Microsoft Visual Studio\2022\Community\VC\Tools\MSVC\14.34.31933\include\xstring

; 2301 :         return _BUF_SIZE <= _Myres;

  00199	8b 4d d0	 mov	 ecx, DWORD PTR _strIconFileName$2[ebp+20]
; File E:\Metin2_server\SolWayneSF v6\ClientVS22\source\UserInterface\PythonQuest.cpp

; 249  : 			pImage = (CGraphicImage *)CResourceManager::Instance().GetResourcePointer(strIconFileName.c_str());

  0019c	89 45 b8	 mov	 DWORD PTR _pImage$1$[ebp], eax
; File C:\Program Files\Microsoft Visual Studio\2022\Community\VC\Tools\MSVC\14.34.31933\include\xstring

; 2301 :         return _BUF_SIZE <= _Myres;

  0019f	83 f9 10	 cmp	 ecx, 16			; 00000010H

; 5008 :         if (_My_data._Large_string_engaged()) {

  001a2	72 28		 jb	 SHORT $LN180@questGetQu
; File C:\Program Files\Microsoft Visual Studio\2022\Community\VC\Tools\MSVC\14.34.31933\include\xmemory

; 830  :         _Deallocate<_New_alignof<_Ty>>(_Ptr, sizeof(_Ty) * _Count);

  001a4	8b 55 bc	 mov	 edx, DWORD PTR _strIconFileName$2[ebp]
; File C:\Program Files\Microsoft Visual Studio\2022\Community\VC\Tools\MSVC\14.34.31933\include\xstring

; 5013 :             _Al.deallocate(_Ptr, _My_data._Myres + 1);

  001a7	41		 inc	 ecx
; File C:\Program Files\Microsoft Visual Studio\2022\Community\VC\Tools\MSVC\14.34.31933\include\xmemory

; 830  :         _Deallocate<_New_alignof<_Ty>>(_Ptr, sizeof(_Ty) * _Count);

  001a8	8b c2		 mov	 eax, edx

; 251  :         if (_Bytes >= _Big_allocation_threshold) { // boost the alignment of big allocations to help autovectorization

  001aa	81 f9 00 10 00
	00		 cmp	 ecx, 4096		; 00001000H
  001b0	72 10		 jb	 SHORT $LN192@questGetQu

; 150  :     const uintptr_t _Ptr_container   = _Ptr_user[-1];

  001b2	8b 50 fc	 mov	 edx, DWORD PTR [eax-4]
  001b5	83 c1 23	 add	 ecx, 35			; 00000023H
  001b8	2b c2		 sub	 eax, edx

; 164  :     _STL_VERIFY(_Back_shift >= _Min_back_shift && _Back_shift <= _Non_user_size, "invalid argument");

  001ba	83 c0 fc	 add	 eax, -4			; fffffffcH
  001bd	83 f8 1f	 cmp	 eax, 31			; 0000001fH
  001c0	77 72		 ja	 SHORT $LN236@questGetQu
$LN192@questGetQu:

; 255  :         ::operator delete(_Ptr, _Bytes);

  001c2	51		 push	 ecx
  001c3	52		 push	 edx
  001c4	e8 00 00 00 00	 call	 ??3@YAXPAXI@Z		; operator delete
  001c9	83 c4 08	 add	 esp, 8
$LN180@questGetQu:
; File C:\Program Files\Microsoft Visual Studio\2022\Community\VC\Tools\MSVC\14.34.31933\include\xstring

; 5016 :         _My_data._Mysize = 0;

  001cc	c7 45 cc 00 00
	00 00		 mov	 DWORD PTR _strIconFileName$2[ebp+16], 0

; 5017 :         _My_data._Myres  = _BUF_SIZE - 1;

  001d3	c7 45 d0 0f 00
	00 00		 mov	 DWORD PTR _strIconFileName$2[ebp+20], 15 ; 0000000fH

; 5018 :         // the _Traits::assign is last so the codegen doesn't think the char write can alias this
; 5019 :         _Traits::assign(_My_data._Bx._Buf[0], _Elem());

  001da	c6 45 bc 00	 mov	 BYTE PTR _strIconFileName$2[ebp], 0
$LN173@questGetQu:

; 2301 :         return _BUF_SIZE <= _Myres;

  001de	83 7e 60 10	 cmp	 DWORD PTR [esi+96], 16	; 00000010H

; 4256 :         return _Mypair._Myval2._Myptr();

  001e2	8d 56 4c	 lea	 edx, DWORD PTR [esi+76]

; 2293 :         if (_Large_string_engaged()) {

  001e5	72 02		 jb	 SHORT $LN14@questGetQu

; 2294 :             _Result = _Unfancy(_Bx._Ptr);

  001e7	8b 12		 mov	 edx, DWORD PTR [edx]
$LN14@questGetQu:

; 2301 :         return _BUF_SIZE <= _Myres;

  001e9	83 7e 30 10	 cmp	 DWORD PTR [esi+48], 16	; 00000010H

; 4256 :         return _Mypair._Myval2._Myptr();

  001ed	8d 7e 1c	 lea	 edi, DWORD PTR [esi+28]

; 2293 :         if (_Large_string_engaged()) {

  001f0	72 02		 jb	 SHORT $LN21@questGetQu

; 2294 :             _Result = _Unfancy(_Bx._Ptr);

  001f2	8b 3f		 mov	 edi, DWORD PTR [edi]
$LN21@questGetQu:
; File E:\Metin2_server\SolWayneSF v6\ClientVS22\source\UserInterface\PythonQuest.cpp

; 254  : 	return Py_BuildValue("ibsisi",

  001f4	ff 76 68	 push	 DWORD PTR [esi+104]
  001f7	0f b6 4e 71	 movzx	 ecx, BYTE PTR [esi+113]
  001fb	0f b6 46 70	 movzx	 eax, BYTE PTR [esi+112]
  001ff	52		 push	 edx
  00200	ff 75 b8	 push	 DWORD PTR _pImage$1$[ebp]
  00203	57		 push	 edi
  00204	51		 push	 ecx
  00205	50		 push	 eax
  00206	68 00 00 00 00	 push	 OFFSET ??_C@_06CDFFKDJH@ibsisi@
  0020b	ff 15 00 00 00
	00		 call	 DWORD PTR __imp__Py_BuildValue
  00211	83 c4 1c	 add	 esp, 28			; 0000001cH
$LN1@questGetQu:

; 267  : }

  00214	8b 4d f4	 mov	 ecx, DWORD PTR __$EHRec$[ebp]
  00217	64 89 0d 00 00
	00 00		 mov	 DWORD PTR fs:0, ecx
  0021e	59		 pop	 ecx
  0021f	5f		 pop	 edi
  00220	5e		 pop	 esi
  00221	8b 4d f0	 mov	 ecx, DWORD PTR __$ArrayPad$[ebp]
  00224	33 cd		 xor	 ecx, ebp
  00226	e8 00 00 00 00	 call	 @__security_check_cookie@4
  0022b	8b e5		 mov	 esp, ebp
  0022d	5d		 pop	 ebp
  0022e	c3		 ret	 0
$LN235@questGetQu:
; File C:\Program Files\Microsoft Visual Studio\2022\Community\VC\Tools\MSVC\14.34.31933\include\xmemory

; 164  :     _STL_VERIFY(_Back_shift >= _Min_back_shift && _Back_shift <= _Non_user_size, "invalid argument");

  0022f	e8 00 00 00 00	 call	 __invalid_parameter_noinfo_noreturn
$LN236@questGetQu:
  00234	e8 00 00 00 00	 call	 __invalid_parameter_noinfo_noreturn
$LN233@questGetQu:
  00239	cc		 int	 3
_TEXT	ENDS
;	COMDAT text$x
text$x	SEGMENT
__unwindfunclet$?questGetQuestData@@YAPAU_object@@PAU1@0@Z$0:
  00000	8d 4d d8	 lea	 ecx, DWORD PTR _strIconFileName$3[ebp]
  00003	e9 00 00 00 00	 jmp	 ??1?$basic_string@DU?$char_traits@D@std@@V?$allocator@D@2@@std@@QAE@XZ ; std::basic_string<char,std::char_traits<char>,std::allocator<char> >::~basic_string<char,std::char_traits<char>,std::allocator<char> >
__unwindfunclet$?questGetQuestData@@YAPAU_object@@PAU1@0@Z$1:
  00008	8d 4d bc	 lea	 ecx, DWORD PTR _strIconFileName$2[ebp]
  0000b	e9 00 00 00 00	 jmp	 ??1?$basic_string@DU?$char_traits@D@std@@V?$allocator@D@2@@std@@QAE@XZ ; std::basic_string<char,std::char_traits<char>,std::allocator<char> >::~basic_string<char,std::char_traits<char>,std::allocator<char> >
  00010	cc		 int	 3
  00011	cc		 int	 3
  00012	cc		 int	 3
  00013	cc		 int	 3
  00014	cc		 int	 3
__ehhandler$?questGetQuestData@@YAPAU_object@@PAU1@0@Z:
  00015	90		 npad	 1
  00016	90		 npad	 1
  00017	8b 54 24 08	 mov	 edx, DWORD PTR [esp+8]
  0001b	8d 42 0c	 lea	 eax, DWORD PTR [edx+12]
  0001e	8b 4a b4	 mov	 ecx, DWORD PTR [edx-76]
  00021	33 c8		 xor	 ecx, eax
  00023	e8 00 00 00 00	 call	 @__security_check_cookie@4
  00028	8b 4a fc	 mov	 ecx, DWORD PTR [edx-4]
  0002b	33 c8		 xor	 ecx, eax
  0002d	e8 00 00 00 00	 call	 @__security_check_cookie@4
  00032	b8 00 00 00 00	 mov	 eax, OFFSET __ehfuncinfo$?questGetQuestData@@YAPAU_object@@PAU1@0@Z
  00037	e9 00 00 00 00	 jmp	 ___CxxFrameHandler3
text$x	ENDS
?questGetQuestData@@YAPAU_object@@PAU1@0@Z ENDP		; questGetQuestData
; Function compile flags: /Ogtp
; File E:\Metin2_server\SolWayneSF v6\ClientVS22\source\UserInterface\PythonQuest.cpp
;	COMDAT ?questGetQuestIndex@@YAPAU_object@@PAU1@0@Z
_TEXT	SEGMENT
_pQuestInstance$ = -8					; size = 4
_iIndex$ = -4						; size = 4
_poSelf$ = 8						; size = 4
_poArgs$ = 12						; size = 4
?questGetQuestIndex@@YAPAU_object@@PAU1@0@Z PROC	; questGetQuestIndex, COMDAT

; 270  : {

  00000	55		 push	 ebp
  00001	8b ec		 mov	 ebp, esp
  00003	83 ec 08	 sub	 esp, 8

; 271  : 	int iIndex;
; 272  : 	if (!PyTuple_GetInteger(poArgs, 0, &iIndex))

  00006	8d 45 fc	 lea	 eax, DWORD PTR _iIndex$[ebp]
  00009	50		 push	 eax
  0000a	6a 00		 push	 0
  0000c	ff 75 0c	 push	 DWORD PTR _poArgs$[ebp]
  0000f	e8 00 00 00 00	 call	 ?PyTuple_GetInteger@@YA_NPAU_object@@HPAH@Z ; PyTuple_GetInteger
  00014	83 c4 0c	 add	 esp, 12			; 0000000cH
  00017	84 c0		 test	 al, al
  00019	75 09		 jne	 SHORT $LN2@questGetQu

; 273  : 		return Py_BadArgument();

  0001b	e8 00 00 00 00	 call	 ?Py_BadArgument@@YAPAU_object@@XZ ; Py_BadArgument

; 280  : }

  00020	8b e5		 mov	 esp, ebp
  00022	5d		 pop	 ebp
  00023	c3		 ret	 0
$LN2@questGetQu:

; 274  : 
; 275  : 	CPythonQuest::SQuestInstance * pQuestInstance;
; 276  : 	if (!CPythonQuest::Instance().GetQuestInstancePtr(iIndex, &pQuestInstance))

  00024	8b 0d 00 00 00
	00		 mov	 ecx, DWORD PTR ?ms_singleton@?$CSingleton@VCPythonQuest@@@@0PAVCPythonQuest@@A ; CSingleton<CPythonQuest>::ms_singleton
  0002a	8d 45 f8	 lea	 eax, DWORD PTR _pQuestInstance$[ebp]
  0002d	50		 push	 eax
  0002e	ff 75 fc	 push	 DWORD PTR _iIndex$[ebp]
  00031	e8 00 00 00 00	 call	 ?GetQuestInstancePtr@CPythonQuest@@QAE_NKPAPAUSQuestInstance@1@@Z ; CPythonQuest::GetQuestInstancePtr
  00036	84 c0		 test	 al, al
  00038	75 14		 jne	 SHORT $LN3@questGetQu

; 277  : 		return Py_BuildException("Failed to find quest by index %d", iIndex);

  0003a	ff 75 fc	 push	 DWORD PTR _iIndex$[ebp]
  0003d	68 00 00 00 00	 push	 OFFSET ??_C@_0CB@KNIDBLNN@Failed?5to?5find?5quest?5by?5index?5?$CF@
  00042	e8 00 00 00 00	 call	 ?Py_BuildException@@YAPAU_object@@PBDZZ ; Py_BuildException

; 280  : }

  00047	83 c4 08	 add	 esp, 8
  0004a	8b e5		 mov	 esp, ebp
  0004c	5d		 pop	 ebp
  0004d	c3		 ret	 0
$LN3@questGetQu:

; 278  : 
; 279  : 	return Py_BuildValue("i", pQuestInstance->dwIndex);

  0004e	8b 45 f8	 mov	 eax, DWORD PTR _pQuestInstance$[ebp]
  00051	ff 30		 push	 DWORD PTR [eax]
  00053	68 00 00 00 00	 push	 OFFSET ??_C@_01KBJDNOO@i@
  00058	ff 15 00 00 00
	00		 call	 DWORD PTR __imp__Py_BuildValue

; 280  : }

  0005e	83 c4 08	 add	 esp, 8
  00061	8b e5		 mov	 esp, ebp
  00063	5d		 pop	 ebp
  00064	c3		 ret	 0
?questGetQuestIndex@@YAPAU_object@@PAU1@0@Z ENDP	; questGetQuestIndex
_TEXT	ENDS
; Function compile flags: /Ogtp
; File E:\Metin2_server\SolWayneSF v6\ClientVS22\source\UserInterface\PythonQuest.cpp
; File C:\Program Files\Microsoft Visual Studio\2022\Community\VC\Tools\MSVC\14.34.31933\include\xstring
; File E:\Metin2_server\SolWayneSF v6\ClientVS22\source\UserInterface\PythonQuest.cpp
;	COMDAT ?questGetQuestLastTime@@YAPAU_object@@PAU1@0@Z
_TEXT	SEGMENT
tv177 = -8						; size = 4
_pQuestInstance$ = -8					; size = 4
_iIndex$ = -4						; size = 4
_poSelf$ = 8						; size = 4
_poArgs$ = 12						; size = 4
?questGetQuestLastTime@@YAPAU_object@@PAU1@0@Z PROC	; questGetQuestLastTime, COMDAT

; 283  : {

  00000	55		 push	 ebp
  00001	8b ec		 mov	 ebp, esp
  00003	83 ec 08	 sub	 esp, 8

; 284  : 	int iIndex;
; 285  : 	if (!PyTuple_GetInteger(poArgs, 0, &iIndex))

  00006	8d 45 fc	 lea	 eax, DWORD PTR _iIndex$[ebp]
  00009	50		 push	 eax
  0000a	6a 00		 push	 0
  0000c	ff 75 0c	 push	 DWORD PTR _poArgs$[ebp]
  0000f	e8 00 00 00 00	 call	 ?PyTuple_GetInteger@@YA_NPAU_object@@HPAH@Z ; PyTuple_GetInteger
  00014	83 c4 0c	 add	 esp, 12			; 0000000cH
  00017	84 c0		 test	 al, al
  00019	75 09		 jne	 SHORT $LN2@questGetQu

; 286  : 		return Py_BadArgument();

  0001b	e8 00 00 00 00	 call	 ?Py_BadArgument@@YAPAU_object@@XZ ; Py_BadArgument

; 306  : }

  00020	8b e5		 mov	 esp, ebp
  00022	5d		 pop	 ebp
  00023	c3		 ret	 0
$LN2@questGetQu:

; 287  : 
; 288  : 	CPythonQuest::SQuestInstance * pQuestInstance;
; 289  : 	if (!CPythonQuest::Instance().GetQuestInstancePtr(iIndex, &pQuestInstance))

  00024	8b 0d 00 00 00
	00		 mov	 ecx, DWORD PTR ?ms_singleton@?$CSingleton@VCPythonQuest@@@@0PAVCPythonQuest@@A ; CSingleton<CPythonQuest>::ms_singleton
  0002a	8d 45 f8	 lea	 eax, DWORD PTR _pQuestInstance$[ebp]
  0002d	50		 push	 eax
  0002e	ff 75 fc	 push	 DWORD PTR _iIndex$[ebp]
  00031	e8 00 00 00 00	 call	 ?GetQuestInstancePtr@CPythonQuest@@QAE_NKPAPAUSQuestInstance@1@@Z ; CPythonQuest::GetQuestInstancePtr
  00036	84 c0		 test	 al, al
  00038	75 14		 jne	 SHORT $LN3@questGetQu

; 290  : 		return Py_BuildException("Failed to find quest by index %d", iIndex);

  0003a	ff 75 fc	 push	 DWORD PTR _iIndex$[ebp]
  0003d	68 00 00 00 00	 push	 OFFSET ??_C@_0CB@KNIDBLNN@Failed?5to?5find?5quest?5by?5index?5?$CF@
  00042	e8 00 00 00 00	 call	 ?Py_BuildException@@YAPAU_object@@PBDZZ ; Py_BuildException
  00047	83 c4 08	 add	 esp, 8

; 306  : }

  0004a	8b e5		 mov	 esp, ebp
  0004c	5d		 pop	 ebp
  0004d	c3		 ret	 0
$LN3@questGetQu:
  0004e	56		 push	 esi

; 291  : 
; 292  : 	int iLastTime = 0;
; 293  : 
; 294  : 	if (pQuestInstance->iClockValue >= 0)

  0004f	8b 75 f8	 mov	 esi, DWORD PTR _pQuestInstance$[ebp]
  00052	33 c9		 xor	 ecx, ecx
  00054	39 4e 64	 cmp	 DWORD PTR [esi+100], ecx
  00057	7c 1b		 jl	 SHORT $LN4@questGetQu

; 295  : 	{
; 296  : 		iLastTime = (pQuestInstance->iStartTime + pQuestInstance->iClockValue) - int(CTimer::Instance().GetCurrentSecond());

  00059	8b 0d 00 00 00
	00		 mov	 ecx, DWORD PTR ?ms_singleton@?$CSingleton@VCTimer@@@@0PAVCTimer@@A ; CSingleton<CTimer>::ms_singleton
  0005f	e8 00 00 00 00	 call	 ?GetCurrentSecond@CTimer@@QAEMXZ ; CTimer::GetCurrentSecond
  00064	8b 4e 6c	 mov	 ecx, DWORD PTR [esi+108]
  00067	d9 5d f8	 fstp	 DWORD PTR tv177[ebp]
  0006a	f3 0f 2c 45 f8	 cvttss2si eax, DWORD PTR tv177[ebp]
  0006f	2b c8		 sub	 ecx, eax
  00071	03 4e 64	 add	 ecx, DWORD PTR [esi+100]
$LN4@questGetQu:
; File C:\Program Files\Microsoft Visual Studio\2022\Community\VC\Tools\MSVC\14.34.31933\include\xstring

; 2301 :         return _BUF_SIZE <= _Myres;

  00074	83 7e 48 10	 cmp	 DWORD PTR [esi+72], 16	; 00000010H

; 4256 :         return _Mypair._Myval2._Myptr();

  00078	8d 46 34	 lea	 eax, DWORD PTR [esi+52]
  0007b	5e		 pop	 esi

; 2293 :         if (_Large_string_engaged()) {

  0007c	72 02		 jb	 SHORT $LN9@questGetQu

; 2294 :             _Result = _Unfancy(_Bx._Ptr);

  0007e	8b 00		 mov	 eax, DWORD PTR [eax]
$LN9@questGetQu:
; File E:\Metin2_server\SolWayneSF v6\ClientVS22\source\UserInterface\PythonQuest.cpp

; 305  : 	return Py_BuildValue("si", pQuestInstance->strClockName.c_str(), iLastTime);

  00080	51		 push	 ecx
  00081	50		 push	 eax
  00082	68 00 00 00 00	 push	 OFFSET ??_C@_02OCDGCAAK@si@
  00087	ff 15 00 00 00
	00		 call	 DWORD PTR __imp__Py_BuildValue
  0008d	83 c4 0c	 add	 esp, 12			; 0000000cH

; 306  : }

  00090	8b e5		 mov	 esp, ebp
  00092	5d		 pop	 ebp
  00093	c3		 ret	 0
?questGetQuestLastTime@@YAPAU_object@@PAU1@0@Z ENDP	; questGetQuestLastTime
_TEXT	ENDS
; Function compile flags: /Ogtp
; File E:\Metin2_server\SolWayneSF v6\ClientVS22\source\UserInterface\PythonQuest.cpp
;	COMDAT ?questClear@@YAPAU_object@@PAU1@0@Z
_TEXT	SEGMENT
_poSelf$ = 8						; size = 4
_poArgs$ = 12						; size = 4
?questClear@@YAPAU_object@@PAU1@0@Z PROC		; questClear, COMDAT

; 310  : 	CPythonQuest::Instance().Clear();

  00000	8b 0d 00 00 00
	00		 mov	 ecx, DWORD PTR ?ms_singleton@?$CSingleton@VCPythonQuest@@@@0PAVCPythonQuest@@A ; CSingleton<CPythonQuest>::ms_singleton
  00006	e8 00 00 00 00	 call	 ?Clear@CPythonQuest@@QAEXXZ ; CPythonQuest::Clear

; 311  : 	return Py_BuildNone();

  0000b	e9 00 00 00 00	 jmp	 ?Py_BuildNone@@YAPAU_object@@XZ ; Py_BuildNone
?questClear@@YAPAU_object@@PAU1@0@Z ENDP		; questClear
_TEXT	ENDS
; Function compile flags: /Ogtp
; File E:\Metin2_server\SolWayneSF v6\ClientVS22\source\UserInterface\PythonQuest.cpp
;	COMDAT ?questGetQuestCounterData@@YAPAU_object@@PAU1@0@Z
_TEXT	SEGMENT
_poSelf$ = 8						; size = 4
_poArgs$ = 12						; size = 4
?questGetQuestCounterData@@YAPAU_object@@PAU1@0@Z PROC	; questGetQuestCounterData, COMDAT

; 314  : PyObject* questGetQuestCounterData(PyObject* poSelf, PyObject* poArgs) { return Py_BuildNone(); }

  00000	e9 00 00 00 00	 jmp	 ?Py_BuildNone@@YAPAU_object@@XZ ; Py_BuildNone
?questGetQuestCounterData@@YAPAU_object@@PAU1@0@Z ENDP	; questGetQuestCounterData
_TEXT	ENDS
; Function compile flags: /Ogtp
; File E:\Metin2_server\SolWayneSF v6\ClientVS22\source\UserInterface\PythonQuest.cpp
;	COMDAT ?questGetQuestButtonNoticeCount@@YAPAU_object@@PAU1@0@Z
_TEXT	SEGMENT
_bType$ = -4						; size = 1
_poSelf$ = 8						; size = 4
_poArgs$ = 12						; size = 4
?questGetQuestButtonNoticeCount@@YAPAU_object@@PAU1@0@Z PROC ; questGetQuestButtonNoticeCount, COMDAT

; 316  : {

  00000	55		 push	 ebp
  00001	8b ec		 mov	 ebp, esp
  00003	51		 push	 ecx

; 317  : 	BYTE bType;
; 318  : 	if (!PyTuple_GetInteger(poArgs, 0, &bType))

  00004	8d 45 fc	 lea	 eax, DWORD PTR _bType$[ebp]
  00007	50		 push	 eax
  00008	6a 00		 push	 0
  0000a	ff 75 0c	 push	 DWORD PTR _poArgs$[ebp]
  0000d	e8 00 00 00 00	 call	 ?PyTuple_GetInteger@@YA_NPAU_object@@HPAE@Z ; PyTuple_GetInteger
  00012	83 c4 0c	 add	 esp, 12			; 0000000cH
  00015	84 c0		 test	 al, al
  00017	75 09		 jne	 SHORT $LN2@questGetQu

; 319  : 		return Py_BadArgument();

  00019	e8 00 00 00 00	 call	 ?Py_BadArgument@@YAPAU_object@@XZ ; Py_BadArgument

; 322  : }

  0001e	8b e5		 mov	 esp, ebp
  00020	5d		 pop	 ebp
  00021	c3		 ret	 0
$LN2@questGetQu:

; 320  : 
; 321  : 	return Py_BuildValue("i", CPythonQuest::Instance().GetQuestButtonNoticeCount(bType));

  00022	ff 75 fc	 push	 DWORD PTR _bType$[ebp]
  00025	8b 0d 00 00 00
	00		 mov	 ecx, DWORD PTR ?ms_singleton@?$CSingleton@VCPythonQuest@@@@0PAVCPythonQuest@@A ; CSingleton<CPythonQuest>::ms_singleton
  0002b	e8 00 00 00 00	 call	 ?GetQuestButtonNoticeCount@CPythonQuest@@QAEHE@Z ; CPythonQuest::GetQuestButtonNoticeCount
  00030	50		 push	 eax
  00031	68 00 00 00 00	 push	 OFFSET ??_C@_01KBJDNOO@i@
  00036	ff 15 00 00 00
	00		 call	 DWORD PTR __imp__Py_BuildValue
  0003c	83 c4 08	 add	 esp, 8

; 322  : }

  0003f	8b e5		 mov	 esp, ebp
  00041	5d		 pop	 ebp
  00042	c3		 ret	 0
?questGetQuestButtonNoticeCount@@YAPAU_object@@PAU1@0@Z ENDP ; questGetQuestButtonNoticeCount
_TEXT	ENDS
; Function compile flags: /Ogtp
; File E:\Metin2_server\SolWayneSF v6\ClientVS22\source\UserInterface\PythonQuest.cpp
;	COMDAT ?initquest@@YAXXZ
_TEXT	SEGMENT
?initquest@@YAXXZ PROC					; initquest, COMDAT

; 325  : {

  00000	56		 push	 esi
  00001	57		 push	 edi

; 326  : 	static PyMethodDef s_methods[] =
; 327  : 	{
; 328  : 		{ "GetQuestCount",				questGetQuestCount,				METH_VARARGS },
; 329  : 		{ "GetQuestData",				questGetQuestData,				METH_VARARGS },
; 330  : 		{ "GetQuestIndex",				questGetQuestIndex,				METH_VARARGS },
; 331  : 		{ "GetQuestLastTime",			questGetQuestLastTime,			METH_VARARGS },
; 332  : 		{ "Clear",						questClear,						METH_VARARGS },
; 333  : #if defined(ENABLE_QUEST_RENEWAL)
; 334  : 		{ "GetQuestCounterData",		questGetQuestCounterData,		METH_VARARGS },
; 335  : 		{ "GetQuestButtonNoticeCount",	questGetQuestButtonNoticeCount, METH_VARARGS },
; 336  : #endif
; 337  : 		{ NULL,							NULL,							NULL },
; 338  : 	};
; 339  : 
; 340  : 	PyObject * poModule = Py_InitModule("quest", s_methods);

  00002	68 f5 03 00 00	 push	 1013			; 000003f5H
  00007	6a 00		 push	 0
  00009	6a 00		 push	 0
  0000b	68 00 00 00 00	 push	 OFFSET ?s_methods@?1??initquest@@YAXXZ@4PAUPyMethodDef@@A
  00010	68 00 00 00 00	 push	 OFFSET ??_C@_05KOGNICEN@quest@
  00015	ff 15 00 00 00
	00		 call	 DWORD PTR __imp__Py_InitModule4

; 341  : 	PyModule_AddIntConstant(poModule, "QUEST_MAX_NUM", 5);

  0001b	8b 35 00 00 00
	00		 mov	 esi, DWORD PTR __imp__PyModule_AddIntConstant
  00021	8b f8		 mov	 edi, eax
  00023	6a 05		 push	 5
  00025	68 00 00 00 00	 push	 OFFSET ??_C@_0O@IKHMHCIN@QUEST_MAX_NUM@
  0002a	57		 push	 edi
  0002b	ff d6		 call	 esi

; 342  : #if defined(ENABLE_QUEST_RENEWAL)
; 343  : 	PyModule_AddIntConstant(poModule, "QUEST_TYPE_MAIN", CPythonQuest::QUEST_TYPE_MAIN);

  0002d	6a 00		 push	 0
  0002f	68 00 00 00 00	 push	 OFFSET ??_C@_0BA@CPLDIIBF@QUEST_TYPE_MAIN@
  00034	57		 push	 edi
  00035	ff d6		 call	 esi

; 344  : 	PyModule_AddIntConstant(poModule, "QUEST_TYPE_SUB", CPythonQuest::QUEST_TYPE_SUB);

  00037	6a 01		 push	 1
  00039	68 00 00 00 00	 push	 OFFSET ??_C@_0P@FINAMGA@QUEST_TYPE_SUB@
  0003e	57		 push	 edi
  0003f	ff d6		 call	 esi

; 345  : 	PyModule_AddIntConstant(poModule, "QUEST_TYPE_LEVELUP", CPythonQuest::QUEST_TYPE_LEVELUP);

  00041	6a 02		 push	 2
  00043	68 00 00 00 00	 push	 OFFSET ??_C@_0BD@HGEGCJJ@QUEST_TYPE_LEVELUP@
  00048	57		 push	 edi
  00049	ff d6		 call	 esi
  0004b	83 c4 44	 add	 esp, 68			; 00000044H

; 346  : 	PyModule_AddIntConstant(poModule, "QUEST_TYPE_EVENT", CPythonQuest::QUEST_TYPE_EVENT);

  0004e	6a 03		 push	 3
  00050	68 00 00 00 00	 push	 OFFSET ??_C@_0BB@MHGALJHE@QUEST_TYPE_EVENT@
  00055	57		 push	 edi
  00056	ff d6		 call	 esi

; 347  : 	PyModule_AddIntConstant(poModule, "QUEST_TYPE_COLLECTION", CPythonQuest::QUEST_TYPE_COLLECTION);

  00058	6a 04		 push	 4
  0005a	68 00 00 00 00	 push	 OFFSET ??_C@_0BG@LBKCFID@QUEST_TYPE_COLLECTION@
  0005f	57		 push	 edi
  00060	ff d6		 call	 esi

; 348  : 	PyModule_AddIntConstant(poModule, "QUEST_TYPE_SYSTEM", CPythonQuest::QUEST_TYPE_SYSTEM);

  00062	6a 05		 push	 5
  00064	68 00 00 00 00	 push	 OFFSET ??_C@_0BC@CKMAODGL@QUEST_TYPE_SYSTEM@
  00069	57		 push	 edi
  0006a	ff d6		 call	 esi

; 349  : 	PyModule_AddIntConstant(poModule, "QUEST_TYPE_SCROLL", CPythonQuest::QUEST_TYPE_SCROLL);

  0006c	6a 06		 push	 6
  0006e	68 00 00 00 00	 push	 OFFSET ??_C@_0BC@CEDPDBHG@QUEST_TYPE_SCROLL@
  00073	57		 push	 edi
  00074	ff d6		 call	 esi

; 350  : 	PyModule_AddIntConstant(poModule, "QUEST_TYPE_DAILY", CPythonQuest::QUEST_TYPE_DAILY);

  00076	6a 07		 push	 7
  00078	68 00 00 00 00	 push	 OFFSET ??_C@_0BB@CCAADENI@QUEST_TYPE_DAILY@
  0007d	57		 push	 edi
  0007e	ff d6		 call	 esi

; 351  : 	PyModule_AddIntConstant(poModule, "QUEST_TYPE_UNEXPOSED", CPythonQuest::QUEST_TYPE_UNEXPOSED);

  00080	6a 08		 push	 8
  00082	68 00 00 00 00	 push	 OFFSET ??_C@_0BF@FJOOHN@QUEST_TYPE_UNEXPOSED@
  00087	57		 push	 edi
  00088	ff d6		 call	 esi
  0008a	83 c4 48	 add	 esp, 72			; 00000048H

; 352  : 	PyModule_AddIntConstant(poModule, "QUEST_TYPE_MAX", CPythonQuest::QUEST_TYPE_MAX);

  0008d	6a 09		 push	 9
  0008f	68 00 00 00 00	 push	 OFFSET ??_C@_0P@BOEJNNLL@QUEST_TYPE_MAX@
  00094	57		 push	 edi
  00095	ff d6		 call	 esi

; 353  : 
; 354  : 	PyModule_AddIntConstant(poModule, "QUEST_STRING_TYPE_NORMAL", CPythonQuest::QUEST_STRING_TYPE_NORMAL);

  00097	6a 00		 push	 0
  00099	68 00 00 00 00	 push	 OFFSET ??_C@_0BJ@HCEEBJGO@QUEST_STRING_TYPE_NORMAL@
  0009e	57		 push	 edi
  0009f	ff d6		 call	 esi

; 355  : 	PyModule_AddIntConstant(poModule, "QUEST_STRING_TYPE_CLOCK", CPythonQuest::QUEST_STRING_TYPE_CLOCK);

  000a1	6a 01		 push	 1
  000a3	68 00 00 00 00	 push	 OFFSET ??_C@_0BI@JFCIMFLB@QUEST_STRING_TYPE_CLOCK@
  000a8	57		 push	 edi
  000a9	ff d6		 call	 esi

; 356  : 	PyModule_AddIntConstant(poModule, "QUEST_STRING_TYPE_COUNT", CPythonQuest::QUEST_STRING_TYPE_COUNT);

  000ab	6a 02		 push	 2
  000ad	68 00 00 00 00	 push	 OFFSET ??_C@_0BI@CIKOJFFH@QUEST_STRING_TYPE_COUNT@
  000b2	57		 push	 edi
  000b3	ff d6		 call	 esi
  000b5	83 c4 30	 add	 esp, 48			; 00000030H
  000b8	5f		 pop	 edi
  000b9	5e		 pop	 esi

; 357  : #endif
; 358  : }

  000ba	c3		 ret	 0
?initquest@@YAXXZ ENDP					; initquest
_TEXT	ENDS
; Function compile flags: /Ogtp
; File C:\Program Files\Microsoft Visual Studio\2022\Community\VC\Tools\MSVC\14.34.31933\include\xutility
; File C:\Program Files\Microsoft Visual Studio\2022\Community\VC\Tools\MSVC\14.34.31933\include\vector
; File C:\Program Files\Microsoft Visual Studio\2022\Community\VC\Tools\MSVC\14.34.31933\include\xutility
;	COMDAT ??D?$reverse_iterator@V?$_Vector_iterator@V?$_Vector_val@U?$_Simple_types@USQuestInstance@CPythonQuest@@@std@@@std@@@std@@@std@@QBEAAUSQuestInstance@CPythonQuest@@XZ
_TEXT	SEGMENT
??D?$reverse_iterator@V?$_Vector_iterator@V?$_Vector_val@U?$_Simple_types@USQuestInstance@CPythonQuest@@@std@@@std@@@std@@@std@@QBEAAUSQuestInstance@CPythonQuest@@XZ PROC ; std::reverse_iterator<std::_Vector_iterator<std::_Vector_val<std::_Simple_types<CPythonQuest::SQuestInstance> > > >::operator*, COMDAT
; _this$ = ecx
; File C:\Program Files\Microsoft Visual Studio\2022\Community\VC\Tools\MSVC\14.34.31933\include\vector

; 91   :         --_Ptr;

  00000	8b 01		 mov	 eax, DWORD PTR [ecx]
  00002	83 e8 74	 sub	 eax, 116		; 00000074H
; File C:\Program Files\Microsoft Visual Studio\2022\Community\VC\Tools\MSVC\14.34.31933\include\xutility

; 1265 :     }

  00005	c3		 ret	 0
??D?$reverse_iterator@V?$_Vector_iterator@V?$_Vector_val@U?$_Simple_types@USQuestInstance@CPythonQuest@@@std@@@std@@@std@@@std@@QBEAAUSQuestInstance@CPythonQuest@@XZ ENDP ; std::reverse_iterator<std::_Vector_iterator<std::_Vector_val<std::_Simple_types<CPythonQuest::SQuestInstance> > > >::operator*
_TEXT	ENDS
; Function compile flags: /Ogtp
; File C:\Program Files\Microsoft Visual Studio\2022\Community\VC\Tools\MSVC\14.34.31933\include\vector
;	COMDAT ??D?$_Vector_iterator@V?$_Vector_val@U?$_Simple_types@USQuestInstance@CPythonQuest@@@std@@@std@@@std@@QBEAAUSQuestInstance@CPythonQuest@@XZ
_TEXT	SEGMENT
??D?$_Vector_iterator@V?$_Vector_val@U?$_Simple_types@USQuestInstance@CPythonQuest@@@std@@@std@@@std@@QBEAAUSQuestInstance@CPythonQuest@@XZ PROC ; std::_Vector_iterator<std::_Vector_val<std::_Simple_types<CPythonQuest::SQuestInstance> > >::operator*, COMDAT
; _this$ = ecx

; 261  :         return const_cast<reference>(_Mybase::operator*());

  00000	8b 01		 mov	 eax, DWORD PTR [ecx]

; 262  :     }

  00002	c3		 ret	 0
??D?$_Vector_iterator@V?$_Vector_val@U?$_Simple_types@USQuestInstance@CPythonQuest@@@std@@@std@@@std@@QBEAAUSQuestInstance@CPythonQuest@@XZ ENDP ; std::_Vector_iterator<std::_Vector_val<std::_Simple_types<CPythonQuest::SQuestInstance> > >::operator*
_TEXT	ENDS
; Function compile flags: /Ogtp
; File C:\Program Files\Microsoft Visual Studio\2022\Community\VC\Tools\MSVC\14.34.31933\include\vector
;	COMDAT ??8?$_Vector_const_iterator@V?$_Vector_val@U?$_Simple_types@USQuestInstance@CPythonQuest@@@std@@@std@@@std@@QBE_NABV01@@Z
_TEXT	SEGMENT
__Right$ = 8						; size = 4
??8?$_Vector_const_iterator@V?$_Vector_val@U?$_Simple_types@USQuestInstance@CPythonQuest@@@std@@@std@@@std@@QBE_NABV01@@Z PROC ; std::_Vector_const_iterator<std::_Vector_val<std::_Simple_types<CPythonQuest::SQuestInstance> > >::operator==, COMDAT
; _this$ = ecx

; 154  :     _NODISCARD _CONSTEXPR20 bool operator==(const _Vector_const_iterator& _Right) const noexcept {

  00000	55		 push	 ebp
  00001	8b ec		 mov	 ebp, esp

; 155  :         _Compat(_Right);
; 156  :         return _Ptr == _Right._Ptr;

  00003	8b 45 08	 mov	 eax, DWORD PTR __Right$[ebp]
  00006	8b 09		 mov	 ecx, DWORD PTR [ecx]
  00008	3b 08		 cmp	 ecx, DWORD PTR [eax]
  0000a	0f 94 c0	 sete	 al

; 157  :     }

  0000d	5d		 pop	 ebp
  0000e	c2 04 00	 ret	 4
??8?$_Vector_const_iterator@V?$_Vector_val@U?$_Simple_types@USQuestInstance@CPythonQuest@@@std@@@std@@@std@@QBE_NABV01@@Z ENDP ; std::_Vector_const_iterator<std::_Vector_val<std::_Simple_types<CPythonQuest::SQuestInstance> > >::operator==
_TEXT	ENDS
; Function compile flags: /Ogtp
; File C:\Program Files\Microsoft Visual Studio\2022\Community\VC\Tools\MSVC\14.34.31933\include\vector
;	COMDAT ??A?$vector@USQuestInstance@CPythonQuest@@V?$allocator@USQuestInstance@CPythonQuest@@@std@@@std@@QAEAAUSQuestInstance@CPythonQuest@@I@Z
_TEXT	SEGMENT
__Pos$ = 8						; size = 4
??A?$vector@USQuestInstance@CPythonQuest@@V?$allocator@USQuestInstance@CPythonQuest@@@std@@@std@@QAEAAUSQuestInstance@CPythonQuest@@I@Z PROC ; std::vector<CPythonQuest::SQuestInstance,std::allocator<CPythonQuest::SQuestInstance> >::operator[], COMDAT
; _this$ = ecx

; 1945 :     _NODISCARD _CONSTEXPR20 _Ty& operator[](const size_type _Pos) noexcept /* strengthened */ {

  00000	55		 push	 ebp
  00001	8b ec		 mov	 ebp, esp

; 1946 :         auto& _My_data = _Mypair._Myval2;
; 1947 : #if _CONTAINER_DEBUG_LEVEL > 0
; 1948 :         _STL_VERIFY(
; 1949 :             _Pos < static_cast<size_type>(_My_data._Mylast - _My_data._Myfirst), "vector subscript out of range");
; 1950 : #endif // _CONTAINER_DEBUG_LEVEL > 0
; 1951 : 
; 1952 :         return _My_data._Myfirst[_Pos];

  00003	6b 45 08 74	 imul	 eax, DWORD PTR __Pos$[ebp], 116
  00007	03 01		 add	 eax, DWORD PTR [ecx]

; 1953 :     }

  00009	5d		 pop	 ebp
  0000a	c2 04 00	 ret	 4
??A?$vector@USQuestInstance@CPythonQuest@@V?$allocator@USQuestInstance@CPythonQuest@@@std@@@std@@QAEAAUSQuestInstance@CPythonQuest@@I@Z ENDP ; std::vector<CPythonQuest::SQuestInstance,std::allocator<CPythonQuest::SQuestInstance> >::operator[]
_TEXT	ENDS
; Function compile flags: /Ogtp
; File C:\Program Files\Microsoft Visual Studio\2022\Community\VC\Tools\MSVC\14.34.31933\include\vector
;	COMDAT ?size@?$vector@USQuestInstance@CPythonQuest@@V?$allocator@USQuestInstance@CPythonQuest@@@std@@@std@@QBEIXZ
_TEXT	SEGMENT
?size@?$vector@USQuestInstance@CPythonQuest@@V?$allocator@USQuestInstance@CPythonQuest@@@std@@@std@@QBEIXZ PROC ; std::vector<CPythonQuest::SQuestInstance,std::allocator<CPythonQuest::SQuestInstance> >::size, COMDAT
; _this$ = ecx

; 1931 :         auto& _My_data = _Mypair._Myval2;
; 1932 :         return static_cast<size_type>(_My_data._Mylast - _My_data._Myfirst);

  00000	8b 41 04	 mov	 eax, DWORD PTR [ecx+4]
  00003	2b 01		 sub	 eax, DWORD PTR [ecx]
  00005	c1 f8 02	 sar	 eax, 2
  00008	69 c0 35 c2 72
	4f		 imul	 eax, eax, 1332920885

; 1933 :     }

  0000e	c3		 ret	 0
?size@?$vector@USQuestInstance@CPythonQuest@@V?$allocator@USQuestInstance@CPythonQuest@@@std@@@std@@QBEIXZ ENDP ; std::vector<CPythonQuest::SQuestInstance,std::allocator<CPythonQuest::SQuestInstance> >::size
_TEXT	ENDS
; Function compile flags: /Ogtp
; File C:\Program Files\Microsoft Visual Studio\2022\Community\VC\Tools\MSVC\14.34.31933\include\vector
;	COMDAT ?_Unchecked_end@?$vector@USQuestInstance@CPythonQuest@@V?$allocator@USQuestInstance@CPythonQuest@@@std@@@std@@QAEPAUSQuestInstance@CPythonQuest@@XZ
_TEXT	SEGMENT
?_Unchecked_end@?$vector@USQuestInstance@CPythonQuest@@V?$allocator@USQuestInstance@CPythonQuest@@@std@@@std@@QAEPAUSQuestInstance@CPythonQuest@@XZ PROC ; std::vector<CPythonQuest::SQuestInstance,std::allocator<CPythonQuest::SQuestInstance> >::_Unchecked_end, COMDAT
; _this$ = ecx

; 1918 :         return _Mypair._Myval2._Mylast;

  00000	8b 41 04	 mov	 eax, DWORD PTR [ecx+4]

; 1919 :     }

  00003	c3		 ret	 0
?_Unchecked_end@?$vector@USQuestInstance@CPythonQuest@@V?$allocator@USQuestInstance@CPythonQuest@@@std@@@std@@QAEPAUSQuestInstance@CPythonQuest@@XZ ENDP ; std::vector<CPythonQuest::SQuestInstance,std::allocator<CPythonQuest::SQuestInstance> >::_Unchecked_end
_TEXT	ENDS
; Function compile flags: /Ogtp
; File C:\Program Files\Microsoft Visual Studio\2022\Community\VC\Tools\MSVC\14.34.31933\include\vector
;	COMDAT ?_Unchecked_begin@?$vector@USQuestInstance@CPythonQuest@@V?$allocator@USQuestInstance@CPythonQuest@@@std@@@std@@QAEPAUSQuestInstance@CPythonQuest@@XZ
_TEXT	SEGMENT
?_Unchecked_begin@?$vector@USQuestInstance@CPythonQuest@@V?$allocator@USQuestInstance@CPythonQuest@@@std@@@std@@QAEPAUSQuestInstance@CPythonQuest@@XZ PROC ; std::vector<CPythonQuest::SQuestInstance,std::allocator<CPythonQuest::SQuestInstance> >::_Unchecked_begin, COMDAT
; _this$ = ecx

; 1910 :         return _Mypair._Myval2._Myfirst;

  00000	8b 01		 mov	 eax, DWORD PTR [ecx]

; 1911 :     }

  00002	c3		 ret	 0
?_Unchecked_begin@?$vector@USQuestInstance@CPythonQuest@@V?$allocator@USQuestInstance@CPythonQuest@@@std@@@std@@QAEPAUSQuestInstance@CPythonQuest@@XZ ENDP ; std::vector<CPythonQuest::SQuestInstance,std::allocator<CPythonQuest::SQuestInstance> >::_Unchecked_begin
_TEXT	ENDS
; Function compile flags: /Ogtp
; File C:\Program Files\Microsoft Visual Studio\2022\Community\VC\Tools\MSVC\14.34.31933\include\vector
; File C:\Program Files\Microsoft Visual Studio\2022\Community\VC\Tools\MSVC\14.34.31933\include\xutility
; File C:\Program Files\Microsoft Visual Studio\2022\Community\VC\Tools\MSVC\14.34.31933\include\vector
;	COMDAT ?rbegin@?$vector@USQuestInstance@CPythonQuest@@V?$allocator@USQuestInstance@CPythonQuest@@@std@@@std@@QAE?AV?$reverse_iterator@V?$_Vector_iterator@V?$_Vector_val@U?$_Simple_types@USQuestInstance@CPythonQuest@@@std@@@std@@@std@@@2@XZ
_TEXT	SEGMENT
___$ReturnUdt$ = 8					; size = 4
?rbegin@?$vector@USQuestInstance@CPythonQuest@@V?$allocator@USQuestInstance@CPythonQuest@@@std@@@std@@QAE?AV?$reverse_iterator@V?$_Vector_iterator@V?$_Vector_val@U?$_Simple_types@USQuestInstance@CPythonQuest@@@std@@@std@@@std@@@2@XZ PROC ; std::vector<CPythonQuest::SQuestInstance,std::allocator<CPythonQuest::SQuestInstance> >::rbegin, COMDAT
; _this$ = ecx

; 1877 :     _NODISCARD _CONSTEXPR20 reverse_iterator rbegin() noexcept {

  00000	55		 push	 ebp
  00001	8b ec		 mov	 ebp, esp
; File C:\Program Files\Microsoft Visual Studio\2022\Community\VC\Tools\MSVC\14.34.31933\include\xutility

; 1234 :         : current(_STD move(_Right)) {}

  00003	8b 45 08	 mov	 eax, DWORD PTR ___$ReturnUdt$[ebp]
  00006	8b 49 04	 mov	 ecx, DWORD PTR [ecx+4]
  00009	89 08		 mov	 DWORD PTR [eax], ecx
; File C:\Program Files\Microsoft Visual Studio\2022\Community\VC\Tools\MSVC\14.34.31933\include\vector

; 1879 :     }

  0000b	5d		 pop	 ebp
  0000c	c2 04 00	 ret	 4
?rbegin@?$vector@USQuestInstance@CPythonQuest@@V?$allocator@USQuestInstance@CPythonQuest@@@std@@@std@@QAE?AV?$reverse_iterator@V?$_Vector_iterator@V?$_Vector_val@U?$_Simple_types@USQuestInstance@CPythonQuest@@@std@@@std@@@std@@@2@XZ ENDP ; std::vector<CPythonQuest::SQuestInstance,std::allocator<CPythonQuest::SQuestInstance> >::rbegin
_TEXT	ENDS
; Function compile flags: /Ogtp
; File C:\Program Files\Microsoft Visual Studio\2022\Community\VC\Tools\MSVC\14.34.31933\include\vector
;	COMDAT ?end@?$vector@USQuestInstance@CPythonQuest@@V?$allocator@USQuestInstance@CPythonQuest@@@std@@@std@@QAE?AV?$_Vector_iterator@V?$_Vector_val@U?$_Simple_types@USQuestInstance@CPythonQuest@@@std@@@std@@@2@XZ
_TEXT	SEGMENT
___$ReturnUdt$ = 8					; size = 4
?end@?$vector@USQuestInstance@CPythonQuest@@V?$allocator@USQuestInstance@CPythonQuest@@@std@@@std@@QAE?AV?$_Vector_iterator@V?$_Vector_val@U?$_Simple_types@USQuestInstance@CPythonQuest@@@std@@@std@@@2@XZ PROC ; std::vector<CPythonQuest::SQuestInstance,std::allocator<CPythonQuest::SQuestInstance> >::end, COMDAT
; _this$ = ecx

; 1867 :     _NODISCARD _CONSTEXPR20 iterator end() noexcept {

  00000	55		 push	 ebp
  00001	8b ec		 mov	 ebp, esp

; 41   :     _CONSTEXPR20 _Vector_const_iterator(_Tptr _Parg, const _Container_base* _Pvector) noexcept : _Ptr(_Parg) {

  00003	8b 45 08	 mov	 eax, DWORD PTR ___$ReturnUdt$[ebp]
  00006	8b 49 04	 mov	 ecx, DWORD PTR [ecx+4]
  00009	89 08		 mov	 DWORD PTR [eax], ecx

; 1868 :         auto& _My_data = _Mypair._Myval2;
; 1869 :         return iterator(_My_data._Mylast, _STD addressof(_My_data));
; 1870 :     }

  0000b	5d		 pop	 ebp
  0000c	c2 04 00	 ret	 4
?end@?$vector@USQuestInstance@CPythonQuest@@V?$allocator@USQuestInstance@CPythonQuest@@@std@@@std@@QAE?AV?$_Vector_iterator@V?$_Vector_val@U?$_Simple_types@USQuestInstance@CPythonQuest@@@std@@@std@@@2@XZ ENDP ; std::vector<CPythonQuest::SQuestInstance,std::allocator<CPythonQuest::SQuestInstance> >::end
_TEXT	ENDS
; Function compile flags: /Ogtp
; File C:\Program Files\Microsoft Visual Studio\2022\Community\VC\Tools\MSVC\14.34.31933\include\vector
;	COMDAT ??0?$_Vector_iterator@V?$_Vector_val@U?$_Simple_types@USQuestInstance@CPythonQuest@@@std@@@std@@@std@@QAE@PAUSQuestInstance@CPythonQuest@@PBU_Container_base0@1@@Z
_TEXT	SEGMENT
___param0$ = 8						; size = 4
___param1$dead$ = 12					; size = 4
??0?$_Vector_iterator@V?$_Vector_val@U?$_Simple_types@USQuestInstance@CPythonQuest@@@std@@@std@@@std@@QAE@PAUSQuestInstance@CPythonQuest@@PBU_Container_base0@1@@Z PROC ; std::_Vector_iterator<std::_Vector_val<std::_Simple_types<CPythonQuest::SQuestInstance> > >::_Vector_iterator<std::_Vector_val<std::_Simple_types<CPythonQuest::SQuestInstance> > >, COMDAT
; _this$ = ecx
  00000	55		 push	 ebp
  00001	8b ec		 mov	 ebp, esp

; 41   :     _CONSTEXPR20 _Vector_const_iterator(_Tptr _Parg, const _Container_base* _Pvector) noexcept : _Ptr(_Parg) {

  00003	8b 45 08	 mov	 eax, DWORD PTR ___param0$[ebp]
  00006	89 01		 mov	 DWORD PTR [ecx], eax
  00008	8b c1		 mov	 eax, ecx
  0000a	5d		 pop	 ebp
  0000b	c2 08 00	 ret	 8
??0?$_Vector_iterator@V?$_Vector_val@U?$_Simple_types@USQuestInstance@CPythonQuest@@@std@@@std@@@std@@QAE@PAUSQuestInstance@CPythonQuest@@PBU_Container_base0@1@@Z ENDP ; std::_Vector_iterator<std::_Vector_val<std::_Simple_types<CPythonQuest::SQuestInstance> > >::_Vector_iterator<std::_Vector_val<std::_Simple_types<CPythonQuest::SQuestInstance> > >
_TEXT	ENDS
; Function compile flags: /Ogtp
; File C:\Program Files\Microsoft Visual Studio\2022\Community\VC\Tools\MSVC\14.34.31933\include\vector
;	COMDAT ?begin@?$vector@USQuestInstance@CPythonQuest@@V?$allocator@USQuestInstance@CPythonQuest@@@std@@@std@@QAE?AV?$_Vector_iterator@V?$_Vector_val@U?$_Simple_types@USQuestInstance@CPythonQuest@@@std@@@std@@@2@XZ
_TEXT	SEGMENT
___$ReturnUdt$ = 8					; size = 4
?begin@?$vector@USQuestInstance@CPythonQuest@@V?$allocator@USQuestInstance@CPythonQuest@@@std@@@std@@QAE?AV?$_Vector_iterator@V?$_Vector_val@U?$_Simple_types@USQuestInstance@CPythonQuest@@@std@@@std@@@2@XZ PROC ; std::vector<CPythonQuest::SQuestInstance,std::allocator<CPythonQuest::SQuestInstance> >::begin, COMDAT
; _this$ = ecx

; 1857 :     _NODISCARD _CONSTEXPR20 iterator begin() noexcept {

  00000	55		 push	 ebp
  00001	8b ec		 mov	 ebp, esp

; 41   :     _CONSTEXPR20 _Vector_const_iterator(_Tptr _Parg, const _Container_base* _Pvector) noexcept : _Ptr(_Parg) {

  00003	8b 45 08	 mov	 eax, DWORD PTR ___$ReturnUdt$[ebp]
  00006	8b 09		 mov	 ecx, DWORD PTR [ecx]
  00008	89 08		 mov	 DWORD PTR [eax], ecx

; 1858 :         auto& _My_data = _Mypair._Myval2;
; 1859 :         return iterator(_My_data._Myfirst, _STD addressof(_My_data));
; 1860 :     }

  0000a	5d		 pop	 ebp
  0000b	c2 04 00	 ret	 4
?begin@?$vector@USQuestInstance@CPythonQuest@@V?$allocator@USQuestInstance@CPythonQuest@@@std@@@std@@QAE?AV?$_Vector_iterator@V?$_Vector_val@U?$_Simple_types@USQuestInstance@CPythonQuest@@@std@@@std@@@2@XZ ENDP ; std::vector<CPythonQuest::SQuestInstance,std::allocator<CPythonQuest::SQuestInstance> >::begin
_TEXT	ENDS
; Function compile flags: /Ogtp
; File C:\Program Files\Microsoft Visual Studio\2022\Community\VC\Tools\MSVC\14.34.31933\include\vector
; File C:\Program Files\Microsoft Visual Studio\2022\Community\VC\Tools\MSVC\14.34.31933\include\xmemory
; File C:\Program Files\Microsoft Visual Studio\2022\Community\VC\Tools\MSVC\14.34.31933\include\vector
;	COMDAT ?clear@?$vector@USQuestInstance@CPythonQuest@@V?$allocator@USQuestInstance@CPythonQuest@@@std@@@std@@QAEXXZ
_TEXT	SEGMENT
?clear@?$vector@USQuestInstance@CPythonQuest@@V?$allocator@USQuestInstance@CPythonQuest@@@std@@@std@@QAEXXZ PROC ; std::vector<CPythonQuest::SQuestInstance,std::allocator<CPythonQuest::SQuestInstance> >::clear, COMDAT
; _this$ = ecx

; 1824 :     _CONSTEXPR20 void clear() noexcept { // erase all

  00000	53		 push	 ebx
  00001	8b d9		 mov	 ebx, ecx
  00003	56		 push	 esi
  00004	57		 push	 edi

; 1825 :         auto& _My_data    = _Mypair._Myval2;
; 1826 :         pointer& _Myfirst = _My_data._Myfirst;
; 1827 :         pointer& _Mylast  = _My_data._Mylast;
; 1828 : 
; 1829 :         if (_Myfirst == _Mylast) { // already empty, nothing to do

  00005	8b 33		 mov	 esi, DWORD PTR [ebx]
  00007	8b 7b 04	 mov	 edi, DWORD PTR [ebx+4]
  0000a	3b f7		 cmp	 esi, edi
  0000c	74 15		 je	 SHORT $LN1@clear
  0000e	66 90		 npad	 2
$LL7@clear:
  00010	8b ce		 mov	 ecx, esi
  00012	e8 00 00 00 00	 call	 ??1SQuestInstance@CPythonQuest@@QAE@XZ
; File C:\Program Files\Microsoft Visual Studio\2022\Community\VC\Tools\MSVC\14.34.31933\include\xmemory

; 947  :         for (; _First != _Last; ++_First) {

  00017	83 c6 74	 add	 esi, 116		; 00000074H
  0001a	3b f7		 cmp	 esi, edi
  0001c	75 f2		 jne	 SHORT $LL7@clear
; File C:\Program Files\Microsoft Visual Studio\2022\Community\VC\Tools\MSVC\14.34.31933\include\vector

; 1839 :         _Mylast = _Myfirst;

  0001e	8b 03		 mov	 eax, DWORD PTR [ebx]
  00020	89 43 04	 mov	 DWORD PTR [ebx+4], eax
$LN1@clear:

; 1840 :     }

  00023	5f		 pop	 edi
  00024	5e		 pop	 esi
  00025	5b		 pop	 ebx
  00026	c3		 ret	 0
?clear@?$vector@USQuestInstance@CPythonQuest@@V?$allocator@USQuestInstance@CPythonQuest@@@std@@@std@@QAEXXZ ENDP ; std::vector<CPythonQuest::SQuestInstance,std::allocator<CPythonQuest::SQuestInstance> >::clear
_TEXT	ENDS
; Function compile flags: /Ogtp
; File C:\Program Files\Microsoft Visual Studio\2022\Community\VC\Tools\MSVC\14.34.31933\include\vector
; File C:\Program Files\Microsoft Visual Studio\2022\Community\VC\Tools\MSVC\14.34.31933\include\xutility
; File C:\Program Files\Microsoft Visual Studio\2022\Community\VC\Tools\MSVC\14.34.31933\include\vector
; File C:\Program Files\Microsoft Visual Studio\2022\Community\VC\Tools\MSVC\14.34.31933\include\xstring
; File C:\Program Files\Microsoft Visual Studio\2022\Community\VC\Tools\MSVC\14.34.31933\include\xutility
; File C:\Program Files\Microsoft Visual Studio\2022\Community\VC\Tools\MSVC\14.34.31933\include\vector
;	COMDAT ?erase@?$vector@USQuestInstance@CPythonQuest@@V?$allocator@USQuestInstance@CPythonQuest@@@std@@@std@@QAE?AV?$_Vector_iterator@V?$_Vector_val@U?$_Simple_types@USQuestInstance@CPythonQuest@@@std@@@std@@@2@V?$_Vector_const_iterator@V?$_Vector_val@U?$_Simple_types@USQuestInstance@CPythonQuest@@@std@@@std@@@2@@Z
_TEXT	SEGMENT
__Whereptr$1$ = -16					; size = 4
_this$1$ = -12						; size = 4
__Last$1$ = -8						; size = 4
__First$1$ = -4						; size = 4
___$ReturnUdt$ = 8					; size = 4
__Where$ = 12						; size = 4
?erase@?$vector@USQuestInstance@CPythonQuest@@V?$allocator@USQuestInstance@CPythonQuest@@@std@@@std@@QAE?AV?$_Vector_iterator@V?$_Vector_val@U?$_Simple_types@USQuestInstance@CPythonQuest@@@std@@@std@@@2@V?$_Vector_const_iterator@V?$_Vector_val@U?$_Simple_types@USQuestInstance@CPythonQuest@@@std@@@std@@@2@@Z PROC ; std::vector<CPythonQuest::SQuestInstance,std::allocator<CPythonQuest::SQuestInstance> >::erase, COMDAT
; _this$ = ecx

; 1780 :         is_nothrow_move_assignable_v<value_type>) /* strengthened */ {

  00000	55		 push	 ebp
  00001	8b ec		 mov	 ebp, esp
  00003	83 ec 10	 sub	 esp, 16			; 00000010H

; 1781 :         const pointer _Whereptr = _Where._Ptr;

  00006	8b 55 0c	 mov	 edx, DWORD PTR __Where$[ebp]
  00009	53		 push	 ebx
  0000a	8b d9		 mov	 ebx, ecx
  0000c	89 55 f0	 mov	 DWORD PTR __Whereptr$1$[ebp], edx
  0000f	89 5d f4	 mov	 DWORD PTR _this$1$[ebp], ebx

; 1784 : 
; 1785 : #if _ITERATOR_DEBUG_LEVEL == 2
; 1786 :         _STL_VERIFY(
; 1787 :             _Where._Getcont() == _STD addressof(_My_data) && _Whereptr >= _My_data._Myfirst && _Mylast > _Whereptr,
; 1788 :             "vector erase iterator outside range");
; 1789 : #endif // _ITERATOR_DEBUG_LEVEL == 2
; 1790 : 
; 1791 :         _Orphan_range(_Whereptr, _Mylast);
; 1792 :         _Move_unchecked(_Whereptr + 1, _Mylast, _Whereptr);

  00012	8d 42 74	 lea	 eax, DWORD PTR [edx+116]
  00015	89 45 fc	 mov	 DWORD PTR __First$1$[ebp], eax
  00018	8b 4b 04	 mov	 ecx, DWORD PTR [ebx+4]
  0001b	89 4d f8	 mov	 DWORD PTR __Last$1$[ebp], ecx
; File C:\Program Files\Microsoft Visual Studio\2022\Community\VC\Tools\MSVC\14.34.31933\include\xutility

; 4211 :     for (; _First != _Last; ++_Dest, (void) ++_First) {

  0001e	3b c1		 cmp	 eax, ecx
  00020	0f 84 13 01 00
	00		 je	 $LN5@erase
; File C:\Program Files\Microsoft Visual Studio\2022\Community\VC\Tools\MSVC\14.34.31933\include\vector

; 1783 :         pointer& _Mylast        = _My_data._Mylast;

  00026	56		 push	 esi
  00027	57		 push	 edi
  00028	8d 5a 1c	 lea	 ebx, DWORD PTR [edx+28]
  0002b	8d 70 18	 lea	 esi, DWORD PTR [eax+24]
  0002e	66 90		 npad	 2
$LL6@erase:
  00030	8b 00		 mov	 eax, DWORD PTR [eax]
  00032	89 43 e4	 mov	 DWORD PTR [ebx-28], eax
; File C:\Program Files\Microsoft Visual Studio\2022\Community\VC\Tools\MSVC\14.34.31933\include\xstring

; 3099 :         if (this == _STD addressof(_Right)) {

  00035	8d 46 04	 lea	 eax, DWORD PTR [esi+4]
  00038	3b d8		 cmp	 ebx, eax
  0003a	74 2b		 je	 SHORT $LN25@erase

; 3100 :             return *this;
; 3101 :         }
; 3102 : 
; 3103 :         auto& _Al                 = _Getal();
; 3104 :         auto& _Right_al           = _Right._Getal();
; 3105 :         constexpr auto _Pocma_val = _Choose_pocma_v<_Alty>;
; 3106 :         if constexpr (_Pocma_val == _Pocma_values::_Propagate_allocators) {
; 3107 :             if (_Al != _Right_al) {
; 3108 :                 // intentionally slams into noexcept on OOM, TRANSITION, VSO-466800
; 3109 :                 _Mypair._Myval2._Orphan_all();
; 3110 :                 _Mypair._Myval2._Reload_proxy(_GET_PROXY_ALLOCATOR(_Alty, _Al), _GET_PROXY_ALLOCATOR(_Alty, _Right_al));
; 3111 :             }
; 3112 :         } else if constexpr (_Pocma_val == _Pocma_values::_No_propagate_allocators) {
; 3113 :             if (_Al != _Right_al) {
; 3114 :                 assign(_Right._Mypair._Myval2._Myptr(), _Right._Mypair._Myval2._Mysize);
; 3115 :                 return *this;
; 3116 :             }
; 3117 :         }
; 3118 : 
; 3119 :         _Tidy_deallocate();

  0003c	8d 4b e8	 lea	 ecx, DWORD PTR [ebx-24]
  0003f	e8 00 00 00 00	 call	 ?_Tidy_deallocate@?$basic_string@DU?$char_traits@D@std@@V?$allocator@D@2@@std@@AAEXXZ ; std::basic_string<char,std::char_traits<char>,std::allocator<char> >::_Tidy_deallocate

; 3137 :         _CSTD memcpy(_My_data_mem, _Right_data_mem, _Memcpy_val_size);

  00044	0f 10 46 ec	 movups	 xmm0, XMMWORD PTR [esi-20]
  00048	0f 11 43 e8	 movups	 XMMWORD PTR [ebx-24], xmm0
  0004c	f3 0f 7e 46 fc	 movq	 xmm0, QWORD PTR [esi-4]
  00051	66 0f d6 43 f8	 movq	 QWORD PTR [ebx-8], xmm0

; 4995 :         _My_data._Mysize = 0;

  00056	c7 46 fc 00 00
	00 00		 mov	 DWORD PTR [esi-4], 0

; 4996 :         _My_data._Myres  = _BUF_SIZE - 1;

  0005d	c7 06 0f 00 00
	00		 mov	 DWORD PTR [esi], 15	; 0000000fH

; 4997 :         _My_data._Activate_SSO_buffer();
; 4998 : 
; 4999 :         // the _Traits::assign is last so the codegen doesn't think the char write can alias this
; 5000 :         _Traits::assign(_My_data._Bx._Buf[0], _Elem());

  00063	c6 46 ec 00	 mov	 BYTE PTR [esi-20], 0
$LN25@erase:

; 3099 :         if (this == _STD addressof(_Right)) {

  00067	8d 7e 04	 lea	 edi, DWORD PTR [esi+4]
  0006a	3b df		 cmp	 ebx, edi
  0006c	74 28		 je	 SHORT $LN47@erase

; 3100 :             return *this;
; 3101 :         }
; 3102 : 
; 3103 :         auto& _Al                 = _Getal();
; 3104 :         auto& _Right_al           = _Right._Getal();
; 3105 :         constexpr auto _Pocma_val = _Choose_pocma_v<_Alty>;
; 3106 :         if constexpr (_Pocma_val == _Pocma_values::_Propagate_allocators) {
; 3107 :             if (_Al != _Right_al) {
; 3108 :                 // intentionally slams into noexcept on OOM, TRANSITION, VSO-466800
; 3109 :                 _Mypair._Myval2._Orphan_all();
; 3110 :                 _Mypair._Myval2._Reload_proxy(_GET_PROXY_ALLOCATOR(_Alty, _Al), _GET_PROXY_ALLOCATOR(_Alty, _Right_al));
; 3111 :             }
; 3112 :         } else if constexpr (_Pocma_val == _Pocma_values::_No_propagate_allocators) {
; 3113 :             if (_Al != _Right_al) {
; 3114 :                 assign(_Right._Mypair._Myval2._Myptr(), _Right._Mypair._Myval2._Mysize);
; 3115 :                 return *this;
; 3116 :             }
; 3117 :         }
; 3118 : 
; 3119 :         _Tidy_deallocate();

  0006e	8b cb		 mov	 ecx, ebx
  00070	e8 00 00 00 00	 call	 ?_Tidy_deallocate@?$basic_string@DU?$char_traits@D@std@@V?$allocator@D@2@@std@@AAEXXZ ; std::basic_string<char,std::char_traits<char>,std::allocator<char> >::_Tidy_deallocate

; 3137 :         _CSTD memcpy(_My_data_mem, _Right_data_mem, _Memcpy_val_size);

  00075	0f 10 07	 movups	 xmm0, XMMWORD PTR [edi]
  00078	0f 11 03	 movups	 XMMWORD PTR [ebx], xmm0
  0007b	f3 0f 7e 47 10	 movq	 xmm0, QWORD PTR [edi+16]
  00080	66 0f d6 43 10	 movq	 QWORD PTR [ebx+16], xmm0

; 4995 :         _My_data._Mysize = 0;

  00085	c7 46 14 00 00
	00 00		 mov	 DWORD PTR [esi+20], 0

; 4996 :         _My_data._Myres  = _BUF_SIZE - 1;

  0008c	c7 46 18 0f 00
	00 00		 mov	 DWORD PTR [esi+24], 15	; 0000000fH

; 4997 :         _My_data._Activate_SSO_buffer();
; 4998 : 
; 4999 :         // the _Traits::assign is last so the codegen doesn't think the char write can alias this
; 5000 :         _Traits::assign(_My_data._Bx._Buf[0], _Elem());

  00093	c6 07 00	 mov	 BYTE PTR [edi], 0
$LN47@erase:

; 3099 :         if (this == _STD addressof(_Right)) {

  00096	8d 7e 1c	 lea	 edi, DWORD PTR [esi+28]
  00099	8d 43 18	 lea	 eax, DWORD PTR [ebx+24]
  0009c	3b c7		 cmp	 eax, edi
  0009e	74 29		 je	 SHORT $LN69@erase

; 3100 :             return *this;
; 3101 :         }
; 3102 : 
; 3103 :         auto& _Al                 = _Getal();
; 3104 :         auto& _Right_al           = _Right._Getal();
; 3105 :         constexpr auto _Pocma_val = _Choose_pocma_v<_Alty>;
; 3106 :         if constexpr (_Pocma_val == _Pocma_values::_Propagate_allocators) {
; 3107 :             if (_Al != _Right_al) {
; 3108 :                 // intentionally slams into noexcept on OOM, TRANSITION, VSO-466800
; 3109 :                 _Mypair._Myval2._Orphan_all();
; 3110 :                 _Mypair._Myval2._Reload_proxy(_GET_PROXY_ALLOCATOR(_Alty, _Al), _GET_PROXY_ALLOCATOR(_Alty, _Right_al));
; 3111 :             }
; 3112 :         } else if constexpr (_Pocma_val == _Pocma_values::_No_propagate_allocators) {
; 3113 :             if (_Al != _Right_al) {
; 3114 :                 assign(_Right._Mypair._Myval2._Myptr(), _Right._Mypair._Myval2._Mysize);
; 3115 :                 return *this;
; 3116 :             }
; 3117 :         }
; 3118 : 
; 3119 :         _Tidy_deallocate();

  000a0	8b c8		 mov	 ecx, eax
  000a2	e8 00 00 00 00	 call	 ?_Tidy_deallocate@?$basic_string@DU?$char_traits@D@std@@V?$allocator@D@2@@std@@AAEXXZ ; std::basic_string<char,std::char_traits<char>,std::allocator<char> >::_Tidy_deallocate

; 3137 :         _CSTD memcpy(_My_data_mem, _Right_data_mem, _Memcpy_val_size);

  000a7	0f 10 07	 movups	 xmm0, XMMWORD PTR [edi]
  000aa	0f 11 43 18	 movups	 XMMWORD PTR [ebx+24], xmm0
  000ae	f3 0f 7e 47 10	 movq	 xmm0, QWORD PTR [edi+16]
  000b3	66 0f d6 43 28	 movq	 QWORD PTR [ebx+40], xmm0

; 4995 :         _My_data._Mysize = 0;

  000b8	c7 46 2c 00 00
	00 00		 mov	 DWORD PTR [esi+44], 0

; 4996 :         _My_data._Myres  = _BUF_SIZE - 1;

  000bf	c7 46 30 0f 00
	00 00		 mov	 DWORD PTR [esi+48], 15	; 0000000fH

; 4997 :         _My_data._Activate_SSO_buffer();
; 4998 : 
; 4999 :         // the _Traits::assign is last so the codegen doesn't think the char write can alias this
; 5000 :         _Traits::assign(_My_data._Bx._Buf[0], _Elem());

  000c6	c6 07 00	 mov	 BYTE PTR [edi], 0
$LN69@erase:

; 3099 :         if (this == _STD addressof(_Right)) {

  000c9	8d 7e 34	 lea	 edi, DWORD PTR [esi+52]
  000cc	8d 43 30	 lea	 eax, DWORD PTR [ebx+48]
  000cf	3b c7		 cmp	 eax, edi
  000d1	74 29		 je	 SHORT $LN91@erase

; 3100 :             return *this;
; 3101 :         }
; 3102 : 
; 3103 :         auto& _Al                 = _Getal();
; 3104 :         auto& _Right_al           = _Right._Getal();
; 3105 :         constexpr auto _Pocma_val = _Choose_pocma_v<_Alty>;
; 3106 :         if constexpr (_Pocma_val == _Pocma_values::_Propagate_allocators) {
; 3107 :             if (_Al != _Right_al) {
; 3108 :                 // intentionally slams into noexcept on OOM, TRANSITION, VSO-466800
; 3109 :                 _Mypair._Myval2._Orphan_all();
; 3110 :                 _Mypair._Myval2._Reload_proxy(_GET_PROXY_ALLOCATOR(_Alty, _Al), _GET_PROXY_ALLOCATOR(_Alty, _Right_al));
; 3111 :             }
; 3112 :         } else if constexpr (_Pocma_val == _Pocma_values::_No_propagate_allocators) {
; 3113 :             if (_Al != _Right_al) {
; 3114 :                 assign(_Right._Mypair._Myval2._Myptr(), _Right._Mypair._Myval2._Mysize);
; 3115 :                 return *this;
; 3116 :             }
; 3117 :         }
; 3118 : 
; 3119 :         _Tidy_deallocate();

  000d3	8b c8		 mov	 ecx, eax
  000d5	e8 00 00 00 00	 call	 ?_Tidy_deallocate@?$basic_string@DU?$char_traits@D@std@@V?$allocator@D@2@@std@@AAEXXZ ; std::basic_string<char,std::char_traits<char>,std::allocator<char> >::_Tidy_deallocate

; 3137 :         _CSTD memcpy(_My_data_mem, _Right_data_mem, _Memcpy_val_size);

  000da	0f 10 07	 movups	 xmm0, XMMWORD PTR [edi]
  000dd	0f 11 43 30	 movups	 XMMWORD PTR [ebx+48], xmm0
  000e1	f3 0f 7e 47 10	 movq	 xmm0, QWORD PTR [edi+16]
  000e6	66 0f d6 43 40	 movq	 QWORD PTR [ebx+64], xmm0

; 4995 :         _My_data._Mysize = 0;

  000eb	c7 46 44 00 00
	00 00		 mov	 DWORD PTR [esi+68], 0

; 4996 :         _My_data._Myres  = _BUF_SIZE - 1;

  000f2	c7 46 48 0f 00
	00 00		 mov	 DWORD PTR [esi+72], 15	; 0000000fH

; 4997 :         _My_data._Activate_SSO_buffer();
; 4998 : 
; 4999 :         // the _Traits::assign is last so the codegen doesn't think the char write can alias this
; 5000 :         _Traits::assign(_My_data._Bx._Buf[0], _Elem());

  000f9	c6 07 00	 mov	 BYTE PTR [edi], 0
$LN91@erase:
  000fc	8b 46 4c	 mov	 eax, DWORD PTR [esi+76]
  000ff	89 43 48	 mov	 DWORD PTR [ebx+72], eax
  00102	8b 46 50	 mov	 eax, DWORD PTR [esi+80]
  00105	89 43 4c	 mov	 DWORD PTR [ebx+76], eax
  00108	8b 46 54	 mov	 eax, DWORD PTR [esi+84]
  0010b	89 43 50	 mov	 DWORD PTR [ebx+80], eax
  0010e	0f b6 46 58	 movzx	 eax, BYTE PTR [esi+88]
  00112	88 43 54	 mov	 BYTE PTR [ebx+84], al
  00115	0f b6 46 59	 movzx	 eax, BYTE PTR [esi+89]
; File C:\Program Files\Microsoft Visual Studio\2022\Community\VC\Tools\MSVC\14.34.31933\include\xutility

; 4211 :     for (; _First != _Last; ++_Dest, (void) ++_First) {

  00119	83 c6 74	 add	 esi, 116		; 00000074H
  0011c	88 43 55	 mov	 BYTE PTR [ebx+85], al
  0011f	83 c3 74	 add	 ebx, 116		; 00000074H
  00122	8b 45 fc	 mov	 eax, DWORD PTR __First$1$[ebp]
  00125	83 c0 74	 add	 eax, 116		; 00000074H
  00128	89 45 fc	 mov	 DWORD PTR __First$1$[ebp], eax
  0012b	3b 45 f8	 cmp	 eax, DWORD PTR __Last$1$[ebp]
  0012e	0f 85 fc fe ff
	ff		 jne	 $LL6@erase
  00134	8b 5d f4	 mov	 ebx, DWORD PTR _this$1$[ebp]
  00137	5f		 pop	 edi
  00138	5e		 pop	 esi
$LN5@erase:
; File C:\Program Files\Microsoft Visual Studio\2022\Community\VC\Tools\MSVC\14.34.31933\include\vector

; 1793 :         _Alty_traits::destroy(_Getal(), _Unfancy(_Mylast - 1));

  00139	8b 4b 04	 mov	 ecx, DWORD PTR [ebx+4]
  0013c	83 e9 74	 sub	 ecx, 116		; 00000074H
  0013f	e8 00 00 00 00	 call	 ??1SQuestInstance@CPythonQuest@@QAE@XZ

; 41   :     _CONSTEXPR20 _Vector_const_iterator(_Tptr _Parg, const _Container_base* _Pvector) noexcept : _Ptr(_Parg) {

  00144	8b 45 08	 mov	 eax, DWORD PTR ___$ReturnUdt$[ebp]

; 1794 :         _ASAN_VECTOR_MODIFY(-1);
; 1795 :         --_Mylast;

  00147	83 43 04 8c	 add	 DWORD PTR [ebx+4], -116	; ffffff8cH

; 41   :     _CONSTEXPR20 _Vector_const_iterator(_Tptr _Parg, const _Container_base* _Pvector) noexcept : _Ptr(_Parg) {

  0014b	8b 4d f0	 mov	 ecx, DWORD PTR __Whereptr$1$[ebp]

; 1796 :         return iterator(_Whereptr, _STD addressof(_My_data));

  0014e	5b		 pop	 ebx

; 41   :     _CONSTEXPR20 _Vector_const_iterator(_Tptr _Parg, const _Container_base* _Pvector) noexcept : _Ptr(_Parg) {

  0014f	89 08		 mov	 DWORD PTR [eax], ecx

; 1797 :     }

  00151	8b e5		 mov	 esp, ebp
  00153	5d		 pop	 ebp
  00154	c2 08 00	 ret	 8
?erase@?$vector@USQuestInstance@CPythonQuest@@V?$allocator@USQuestInstance@CPythonQuest@@@std@@@std@@QAE?AV?$_Vector_iterator@V?$_Vector_val@U?$_Simple_types@USQuestInstance@CPythonQuest@@@std@@@std@@@2@V?$_Vector_const_iterator@V?$_Vector_val@U?$_Simple_types@USQuestInstance@CPythonQuest@@@std@@@std@@@2@@Z ENDP ; std::vector<CPythonQuest::SQuestInstance,std::allocator<CPythonQuest::SQuestInstance> >::erase
_TEXT	ENDS
; Function compile flags: /Ogtp
; File C:\Program Files\Microsoft Visual Studio\2022\Community\VC\Tools\MSVC\14.34.31933\include\vector
;	COMDAT ?push_back@?$vector@USQuestInstance@CPythonQuest@@V?$allocator@USQuestInstance@CPythonQuest@@@std@@@std@@QAEX$$QAUSQuestInstance@CPythonQuest@@@Z
_TEXT	SEGMENT
__Val$ = 8						; size = 4
?push_back@?$vector@USQuestInstance@CPythonQuest@@V?$allocator@USQuestInstance@CPythonQuest@@@std@@@std@@QAEX$$QAUSQuestInstance@CPythonQuest@@@Z PROC ; std::vector<CPythonQuest::SQuestInstance,std::allocator<CPythonQuest::SQuestInstance> >::push_back, COMDAT
; _this$ = ecx

; 939  :     _CONSTEXPR20 void push_back(_Ty&& _Val) {

  00000	55		 push	 ebp
  00001	8b ec		 mov	 ebp, esp
  00003	56		 push	 esi

; 844  :         if (_Mylast != _My_data._Myend) {

  00004	ff 75 08	 push	 DWORD PTR __Val$[ebp]

; 939  :     _CONSTEXPR20 void push_back(_Ty&& _Val) {

  00007	8b f1		 mov	 esi, ecx

; 844  :         if (_Mylast != _My_data._Myend) {

  00009	8b 4e 04	 mov	 ecx, DWORD PTR [esi+4]
  0000c	3b 4e 08	 cmp	 ecx, DWORD PTR [esi+8]
  0000f	74 0e		 je	 SHORT $LN4@push_back

; 869  :         ++_Mylast;

  00011	e8 00 00 00 00	 call	 ??0SQuestInstance@CPythonQuest@@QAE@$$QAU01@@Z
  00016	83 46 04 74	 add	 DWORD PTR [esi+4], 116	; 00000074H
  0001a	5e		 pop	 esi

; 940  :         // insert by moving into element at end, provide strong guarantee
; 941  :         _Emplace_one_at_back(_STD move(_Val));
; 942  :     }

  0001b	5d		 pop	 ebp
  0001c	c2 04 00	 ret	 4
$LN4@push_back:

; 848  :         return *_Emplace_reallocate(_Mylast, _STD forward<_Valty>(_Val)...);

  0001f	51		 push	 ecx
  00020	8b ce		 mov	 ecx, esi
  00022	e8 00 00 00 00	 call	 ??$_Emplace_reallocate@USQuestInstance@CPythonQuest@@@?$vector@USQuestInstance@CPythonQuest@@V?$allocator@USQuestInstance@CPythonQuest@@@std@@@std@@AAEPAUSQuestInstance@CPythonQuest@@QAU23@$$QAU23@@Z ; std::vector<CPythonQuest::SQuestInstance,std::allocator<CPythonQuest::SQuestInstance> >::_Emplace_reallocate<CPythonQuest::SQuestInstance>
  00027	5e		 pop	 esi

; 940  :         // insert by moving into element at end, provide strong guarantee
; 941  :         _Emplace_one_at_back(_STD move(_Val));
; 942  :     }

  00028	5d		 pop	 ebp
  00029	c2 04 00	 ret	 4
?push_back@?$vector@USQuestInstance@CPythonQuest@@V?$allocator@USQuestInstance@CPythonQuest@@@std@@@std@@QAEX$$QAUSQuestInstance@CPythonQuest@@@Z ENDP ; std::vector<CPythonQuest::SQuestInstance,std::allocator<CPythonQuest::SQuestInstance> >::push_back
_TEXT	ENDS
; Function compile flags: /Ogtp
; File C:\Program Files\Microsoft Visual Studio\2022\Community\VC\Tools\MSVC\14.34.31933\include\vector
;	COMDAT ?push_back@?$vector@USQuestInstance@CPythonQuest@@V?$allocator@USQuestInstance@CPythonQuest@@@std@@@std@@QAEXABUSQuestInstance@CPythonQuest@@@Z
_TEXT	SEGMENT
__Val$ = 8						; size = 4
?push_back@?$vector@USQuestInstance@CPythonQuest@@V?$allocator@USQuestInstance@CPythonQuest@@@std@@@std@@QAEXABUSQuestInstance@CPythonQuest@@@Z PROC ; std::vector<CPythonQuest::SQuestInstance,std::allocator<CPythonQuest::SQuestInstance> >::push_back, COMDAT
; _this$ = ecx

; 935  :     _CONSTEXPR20 void push_back(const _Ty& _Val) { // insert element at end, provide strong guarantee

  00000	55		 push	 ebp
  00001	8b ec		 mov	 ebp, esp
  00003	56		 push	 esi

; 844  :         if (_Mylast != _My_data._Myend) {

  00004	ff 75 08	 push	 DWORD PTR __Val$[ebp]

; 935  :     _CONSTEXPR20 void push_back(const _Ty& _Val) { // insert element at end, provide strong guarantee

  00007	8b f1		 mov	 esi, ecx

; 844  :         if (_Mylast != _My_data._Myend) {

  00009	8b 46 04	 mov	 eax, DWORD PTR [esi+4]
  0000c	3b 46 08	 cmp	 eax, DWORD PTR [esi+8]
  0000f	74 10		 je	 SHORT $LN4@push_back

; 869  :         ++_Mylast;

  00011	8b c8		 mov	 ecx, eax
  00013	e8 00 00 00 00	 call	 ??0SQuestInstance@CPythonQuest@@QAE@ABU01@@Z
  00018	83 46 04 74	 add	 DWORD PTR [esi+4], 116	; 00000074H
  0001c	5e		 pop	 esi

; 936  :         _Emplace_one_at_back(_Val);
; 937  :     }

  0001d	5d		 pop	 ebp
  0001e	c2 04 00	 ret	 4
$LN4@push_back:

; 848  :         return *_Emplace_reallocate(_Mylast, _STD forward<_Valty>(_Val)...);

  00021	50		 push	 eax
  00022	e8 00 00 00 00	 call	 ??$_Emplace_reallocate@ABUSQuestInstance@CPythonQuest@@@?$vector@USQuestInstance@CPythonQuest@@V?$allocator@USQuestInstance@CPythonQuest@@@std@@@std@@AAEPAUSQuestInstance@CPythonQuest@@QAU23@ABU23@@Z ; std::vector<CPythonQuest::SQuestInstance,std::allocator<CPythonQuest::SQuestInstance> >::_Emplace_reallocate<CPythonQuest::SQuestInstance const &>
  00027	5e		 pop	 esi

; 936  :         _Emplace_one_at_back(_Val);
; 937  :     }

  00028	5d		 pop	 ebp
  00029	c2 04 00	 ret	 4
?push_back@?$vector@USQuestInstance@CPythonQuest@@V?$allocator@USQuestInstance@CPythonQuest@@@std@@@std@@QAEXABUSQuestInstance@CPythonQuest@@@Z ENDP ; std::vector<CPythonQuest::SQuestInstance,std::allocator<CPythonQuest::SQuestInstance> >::push_back
_TEXT	ENDS
; Function compile flags: /Ogtp
; File C:\Program Files\Microsoft Visual Studio\2022\Community\VC\Tools\MSVC\14.34.31933\include\vector
; File C:\Program Files\Microsoft Visual Studio\2022\Community\VC\Tools\MSVC\14.34.31933\include\xmemory
; File C:\Program Files\Microsoft Visual Studio\2022\Community\VC\Tools\MSVC\14.34.31933\include\vector
; File C:\Program Files\Microsoft Visual Studio\2022\Community\VC\Tools\MSVC\14.34.31933\include\xmemory
; File C:\Program Files\Microsoft Visual Studio\2022\Community\VC\Tools\MSVC\14.34.31933\include\vector
; File C:\Program Files\Microsoft Visual Studio\2022\Community\VC\Tools\MSVC\14.34.31933\include\xmemory
; File C:\Program Files\Microsoft Visual Studio\2022\Community\VC\Tools\MSVC\14.34.31933\include\vector
; File C:\Program Files\Microsoft Visual Studio\2022\Community\VC\Tools\MSVC\14.34.31933\include\xmemory
; File C:\Program Files\Microsoft Visual Studio\2022\Community\VC\Tools\MSVC\14.34.31933\include\vector
;	COMDAT ??1?$vector@USQuestInstance@CPythonQuest@@V?$allocator@USQuestInstance@CPythonQuest@@@std@@@std@@QAE@XZ
_TEXT	SEGMENT
??1?$vector@USQuestInstance@CPythonQuest@@V?$allocator@USQuestInstance@CPythonQuest@@@std@@@std@@QAE@XZ PROC ; std::vector<CPythonQuest::SQuestInstance,std::allocator<CPythonQuest::SQuestInstance> >::~vector<CPythonQuest::SQuestInstance,std::allocator<CPythonQuest::SQuestInstance> >, COMDAT
; _this$ = ecx

; 829  :     _CONSTEXPR20 ~vector() noexcept {

  00000	56		 push	 esi
  00001	57		 push	 edi
  00002	8b f9		 mov	 edi, ecx

; 2107 :         if (_Myfirst) { // destroy and deallocate old array

  00004	8b 37		 mov	 esi, DWORD PTR [edi]
  00006	85 f6		 test	 esi, esi
  00008	74 62		 je	 SHORT $LN4@vector

; 2108 :             _Destroy_range(_Myfirst, _Mylast, _Al);

  0000a	53		 push	 ebx
  0000b	8b 5f 04	 mov	 ebx, DWORD PTR [edi+4]
; File C:\Program Files\Microsoft Visual Studio\2022\Community\VC\Tools\MSVC\14.34.31933\include\xmemory

; 947  :         for (; _First != _Last; ++_First) {

  0000e	3b f3		 cmp	 esi, ebx
  00010	74 0e		 je	 SHORT $LN8@vector
$LL9@vector:
  00012	8b ce		 mov	 ecx, esi
  00014	e8 00 00 00 00	 call	 ??1SQuestInstance@CPythonQuest@@QAE@XZ
  00019	83 c6 74	 add	 esi, 116		; 00000074H
  0001c	3b f3		 cmp	 esi, ebx
  0001e	75 f2		 jne	 SHORT $LL9@vector
$LN8@vector:
; File C:\Program Files\Microsoft Visual Studio\2022\Community\VC\Tools\MSVC\14.34.31933\include\vector

; 2110 :             _Al.deallocate(_Myfirst, static_cast<size_type>(_Myend - _Myfirst));

  00020	8b 47 08	 mov	 eax, DWORD PTR [edi+8]
  00023	8b 0f		 mov	 ecx, DWORD PTR [edi]
  00025	2b c1		 sub	 eax, ecx
  00027	c1 f8 02	 sar	 eax, 2
  0002a	69 c0 35 c2 72
	4f		 imul	 eax, eax, 1332920885
; File C:\Program Files\Microsoft Visual Studio\2022\Community\VC\Tools\MSVC\14.34.31933\include\xmemory

; 830  :         _Deallocate<_New_alignof<_Ty>>(_Ptr, sizeof(_Ty) * _Count);

  00030	5b		 pop	 ebx
  00031	6b d0 74	 imul	 edx, eax, 116

; 251  :         if (_Bytes >= _Big_allocation_threshold) { // boost the alignment of big allocations to help autovectorization

  00034	81 fa 00 10 00
	00		 cmp	 edx, 4096		; 00001000H
  0003a	72 12		 jb	 SHORT $LN34@vector

; 150  :     const uintptr_t _Ptr_container   = _Ptr_user[-1];

  0003c	8b 71 fc	 mov	 esi, DWORD PTR [ecx-4]
  0003f	83 c2 23	 add	 edx, 35			; 00000023H

; 151  : 
; 152  :     // If the following asserts, it likely means that we are performing
; 153  :     // an aligned delete on memory coming from an unaligned allocation.
; 154  :     _STL_ASSERT(_Ptr_user[-2] == _Big_allocation_sentinel, "invalid argument");
; 155  : 
; 156  :     // Extra paranoia on aligned allocation/deallocation; ensure _Ptr_container is
; 157  :     // in range [_Min_back_shift, _Non_user_size]
; 158  : #ifdef _DEBUG
; 159  :     constexpr uintptr_t _Min_back_shift = 2 * sizeof(void*);
; 160  : #else // ^^^ _DEBUG ^^^ // vvv !_DEBUG vvv
; 161  :     constexpr uintptr_t _Min_back_shift = sizeof(void*);
; 162  : #endif // _DEBUG
; 163  :     const uintptr_t _Back_shift = reinterpret_cast<uintptr_t>(_Ptr) - _Ptr_container;

  00042	2b ce		 sub	 ecx, esi

; 164  :     _STL_VERIFY(_Back_shift >= _Min_back_shift && _Back_shift <= _Non_user_size, "invalid argument");

  00044	8d 41 fc	 lea	 eax, DWORD PTR [ecx-4]
  00047	83 f8 1f	 cmp	 eax, 31			; 0000001fH
  0004a	77 23		 ja	 SHORT $LN31@vector

; 165  :     _Ptr = reinterpret_cast<void*>(_Ptr_container);

  0004c	8b ce		 mov	 ecx, esi
$LN34@vector:

; 255  :         ::operator delete(_Ptr, _Bytes);

  0004e	52		 push	 edx
  0004f	51		 push	 ecx
  00050	e8 00 00 00 00	 call	 ??3@YAXPAXI@Z		; operator delete
; File C:\Program Files\Microsoft Visual Studio\2022\Community\VC\Tools\MSVC\14.34.31933\include\vector

; 2112 :             _Myfirst = nullptr;

  00055	c7 07 00 00 00
	00		 mov	 DWORD PTR [edi], 0
; File C:\Program Files\Microsoft Visual Studio\2022\Community\VC\Tools\MSVC\14.34.31933\include\xmemory

; 255  :         ::operator delete(_Ptr, _Bytes);

  0005b	83 c4 08	 add	 esp, 8
; File C:\Program Files\Microsoft Visual Studio\2022\Community\VC\Tools\MSVC\14.34.31933\include\vector

; 2113 :             _Mylast  = nullptr;

  0005e	c7 47 04 00 00
	00 00		 mov	 DWORD PTR [edi+4], 0

; 2114 :             _Myend   = nullptr;

  00065	c7 47 08 00 00
	00 00		 mov	 DWORD PTR [edi+8], 0
$LN4@vector:
  0006c	5f		 pop	 edi

; 835  :     }

  0006d	5e		 pop	 esi
  0006e	c3		 ret	 0
$LN31@vector:
; File C:\Program Files\Microsoft Visual Studio\2022\Community\VC\Tools\MSVC\14.34.31933\include\xmemory

; 164  :     _STL_VERIFY(_Back_shift >= _Min_back_shift && _Back_shift <= _Non_user_size, "invalid argument");

  0006f	e8 00 00 00 00	 call	 __invalid_parameter_noinfo_noreturn
$LN43@vector:
  00074	cc		 int	 3
??1?$vector@USQuestInstance@CPythonQuest@@V?$allocator@USQuestInstance@CPythonQuest@@@std@@@std@@QAE@XZ ENDP ; std::vector<CPythonQuest::SQuestInstance,std::allocator<CPythonQuest::SQuestInstance> >::~vector<CPythonQuest::SQuestInstance,std::allocator<CPythonQuest::SQuestInstance> >
_TEXT	ENDS
; Function compile flags: /Ogtp
; File C:\Program Files\Microsoft Visual Studio\2022\Community\VC\Tools\MSVC\14.34.31933\include\vector
;	COMDAT ??0?$vector@USQuestInstance@CPythonQuest@@V?$allocator@USQuestInstance@CPythonQuest@@@std@@@std@@QAE@XZ
_TEXT	SEGMENT
??0?$vector@USQuestInstance@CPythonQuest@@V?$allocator@USQuestInstance@CPythonQuest@@@std@@@std@@QAE@XZ PROC ; std::vector<CPythonQuest::SQuestInstance,std::allocator<CPythonQuest::SQuestInstance> >::vector<CPythonQuest::SQuestInstance,std::allocator<CPythonQuest::SQuestInstance> >, COMDAT
; _this$ = ecx

; 390  :     _CONSTEXPR20 _Vector_val() noexcept : _Myfirst(), _Mylast(), _Myend() {}

  00000	c7 01 00 00 00
	00		 mov	 DWORD PTR [ecx], 0

; 674  :         _Mypair._Myval2._Alloc_proxy(_GET_PROXY_ALLOCATOR(_Alty, _Getal()));
; 675  :     }

  00006	8b c1		 mov	 eax, ecx

; 390  :     _CONSTEXPR20 _Vector_val() noexcept : _Myfirst(), _Mylast(), _Myend() {}

  00008	c7 41 04 00 00
	00 00		 mov	 DWORD PTR [ecx+4], 0
  0000f	c7 41 08 00 00
	00 00		 mov	 DWORD PTR [ecx+8], 0

; 674  :         _Mypair._Myval2._Alloc_proxy(_GET_PROXY_ALLOCATOR(_Alty, _Getal()));
; 675  :     }

  00016	c3		 ret	 0
??0?$vector@USQuestInstance@CPythonQuest@@V?$allocator@USQuestInstance@CPythonQuest@@@std@@@std@@QAE@XZ ENDP ; std::vector<CPythonQuest::SQuestInstance,std::allocator<CPythonQuest::SQuestInstance> >::vector<CPythonQuest::SQuestInstance,std::allocator<CPythonQuest::SQuestInstance> >
_TEXT	ENDS
; Function compile flags: /Ogtp
; File E:\Metin2_server\SolWayneSF v6\ClientVS22\source\eterBase\Singleton.h
;	COMDAT ??1?$CSingleton@VCPythonQuest@@@@UAE@XZ
_TEXT	SEGMENT
??1?$CSingleton@VCPythonQuest@@@@UAE@XZ PROC		; CSingleton<CPythonQuest>::~CSingleton<CPythonQuest>, COMDAT
; _this$ = ecx

; 19   : 	{ 

  00000	c7 01 00 00 00
	00		 mov	 DWORD PTR [ecx], OFFSET ??_7?$CSingleton@VCPythonQuest@@@@6B@

; 20   : 		assert(ms_singleton);
; 21   : 		ms_singleton = 0; 

  00006	c7 05 00 00 00
	00 00 00 00 00	 mov	 DWORD PTR ?ms_singleton@?$CSingleton@VCPythonQuest@@@@0PAVCPythonQuest@@A, 0 ; CSingleton<CPythonQuest>::ms_singleton

; 22   : 	}

  00010	c3		 ret	 0
??1?$CSingleton@VCPythonQuest@@@@UAE@XZ ENDP		; CSingleton<CPythonQuest>::~CSingleton<CPythonQuest>
_TEXT	ENDS
; Function compile flags: /Ogtp
; File E:\Metin2_server\SolWayneSF v6\ClientVS22\source\eterBase\Singleton.h
;	COMDAT ??0?$CSingleton@VCPythonQuest@@@@QAE@XZ
_TEXT	SEGMENT
??0?$CSingleton@VCPythonQuest@@@@QAE@XZ PROC		; CSingleton<CPythonQuest>::CSingleton<CPythonQuest>, COMDAT
; _this$ = ecx

; 12   : 	{ 

  00000	c7 01 00 00 00
	00		 mov	 DWORD PTR [ecx], OFFSET ??_7?$CSingleton@VCPythonQuest@@@@6B@

; 13   : 		assert(!ms_singleton);
; 14   : 		int offset = (int) (T*) 1 - (int) (CSingleton <T>*) (T*) 1; 
; 15   : 		ms_singleton = (T*) ((int) this + offset);
; 16   : 	} 

  00006	8b c1		 mov	 eax, ecx
  00008	89 0d 00 00 00
	00		 mov	 DWORD PTR ?ms_singleton@?$CSingleton@VCPythonQuest@@@@0PAVCPythonQuest@@A, ecx ; CSingleton<CPythonQuest>::ms_singleton
  0000e	c3		 ret	 0
??0?$CSingleton@VCPythonQuest@@@@QAE@XZ ENDP		; CSingleton<CPythonQuest>::CSingleton<CPythonQuest>
_TEXT	ENDS
; Function compile flags: /Ogtp
; File E:\Metin2_server\SolWayneSF v6\ClientVS22\source\eterBase\Singleton.h
;	COMDAT ??_G?$CSingleton@VCPythonQuest@@@@UAEPAXI@Z
_TEXT	SEGMENT
___flags$ = 8						; size = 4
??_G?$CSingleton@VCPythonQuest@@@@UAEPAXI@Z PROC	; CSingleton<CPythonQuest>::`scalar deleting destructor', COMDAT
; _this$ = ecx
  00000	55		 push	 ebp
  00001	8b ec		 mov	 ebp, esp
  00003	f6 45 08 01	 test	 BYTE PTR ___flags$[ebp], 1

; 19   : 	{ 

  00007	56		 push	 esi
  00008	8b f1		 mov	 esi, ecx

; 20   : 		assert(ms_singleton);
; 21   : 		ms_singleton = 0; 

  0000a	c7 05 00 00 00
	00 00 00 00 00	 mov	 DWORD PTR ?ms_singleton@?$CSingleton@VCPythonQuest@@@@0PAVCPythonQuest@@A, 0 ; CSingleton<CPythonQuest>::ms_singleton
  00014	c7 06 00 00 00
	00		 mov	 DWORD PTR [esi], OFFSET ??_7?$CSingleton@VCPythonQuest@@@@6B@
  0001a	74 0b		 je	 SHORT $LN6@scalar
  0001c	6a 04		 push	 4
  0001e	56		 push	 esi
  0001f	e8 00 00 00 00	 call	 ??3@YAXPAXI@Z		; operator delete
  00024	83 c4 08	 add	 esp, 8
$LN6@scalar:
  00027	8b c6		 mov	 eax, esi
  00029	5e		 pop	 esi
  0002a	5d		 pop	 ebp
  0002b	c2 04 00	 ret	 4
??_G?$CSingleton@VCPythonQuest@@@@UAEPAXI@Z ENDP	; CSingleton<CPythonQuest>::`scalar deleting destructor'
_TEXT	ENDS
; Function compile flags: /Ogtp
; File C:\Program Files\Microsoft Visual Studio\2022\Community\VC\Tools\MSVC\14.34.31933\include\xutility
;	COMDAT ??0?$reverse_iterator@V?$_Vector_iterator@V?$_Vector_val@U?$_Simple_types@USQuestInstance@CPythonQuest@@@std@@@std@@@std@@@std@@QAE@V?$_Vector_iterator@V?$_Vector_val@U?$_Simple_types@USQuestInstance@CPythonQuest@@@std@@@std@@@1@@Z
_TEXT	SEGMENT
__Right$ = 8						; size = 4
??0?$reverse_iterator@V?$_Vector_iterator@V?$_Vector_val@U?$_Simple_types@USQuestInstance@CPythonQuest@@@std@@@std@@@std@@@std@@QAE@V?$_Vector_iterator@V?$_Vector_val@U?$_Simple_types@USQuestInstance@CPythonQuest@@@std@@@std@@@1@@Z PROC ; std::reverse_iterator<std::_Vector_iterator<std::_Vector_val<std::_Simple_types<CPythonQuest::SQuestInstance> > > >::reverse_iterator<std::_Vector_iterator<std::_Vector_val<std::_Simple_types<CPythonQuest::SQuestInstance> > > >, COMDAT
; _this$ = ecx

; 1232 :     _CONSTEXPR17 explicit reverse_iterator(_BidIt _Right) noexcept(

  00000	55		 push	 ebp
  00001	8b ec		 mov	 ebp, esp

; 1233 :         is_nothrow_move_constructible_v<_BidIt>) // strengthened
; 1234 :         : current(_STD move(_Right)) {}

  00003	8b 45 08	 mov	 eax, DWORD PTR __Right$[ebp]
  00006	89 01		 mov	 DWORD PTR [ecx], eax
  00008	8b c1		 mov	 eax, ecx
  0000a	5d		 pop	 ebp
  0000b	c2 04 00	 ret	 4
??0?$reverse_iterator@V?$_Vector_iterator@V?$_Vector_val@U?$_Simple_types@USQuestInstance@CPythonQuest@@@std@@@std@@@std@@@std@@QAE@V?$_Vector_iterator@V?$_Vector_val@U?$_Simple_types@USQuestInstance@CPythonQuest@@@std@@@std@@@1@@Z ENDP ; std::reverse_iterator<std::_Vector_iterator<std::_Vector_val<std::_Simple_types<CPythonQuest::SQuestInstance> > > >::reverse_iterator<std::_Vector_iterator<std::_Vector_val<std::_Simple_types<CPythonQuest::SQuestInstance> > > >
_TEXT	ENDS
; Function compile flags: /Ogtp
; File C:\Program Files\Microsoft Visual Studio\2022\Community\VC\Tools\MSVC\14.34.31933\include\vector
;	COMDAT ??F?$_Vector_iterator@V?$_Vector_val@U?$_Simple_types@USQuestInstance@CPythonQuest@@@std@@@std@@@std@@QAEAAV01@XZ
_TEXT	SEGMENT
??F?$_Vector_iterator@V?$_Vector_val@U?$_Simple_types@USQuestInstance@CPythonQuest@@@std@@@std@@@std@@QAEAAV01@XZ PROC ; std::_Vector_iterator<std::_Vector_val<std::_Simple_types<CPythonQuest::SQuestInstance> > >::operator--, COMDAT
; _this$ = ecx

; 91   :         --_Ptr;

  00000	83 01 8c	 add	 DWORD PTR [ecx], -116	; ffffff8cH

; 287  :         _Mybase::operator--();
; 288  :         return *this;

  00003	8b c1		 mov	 eax, ecx

; 289  :     }

  00005	c3		 ret	 0
??F?$_Vector_iterator@V?$_Vector_val@U?$_Simple_types@USQuestInstance@CPythonQuest@@@std@@@std@@@std@@QAEAAV01@XZ ENDP ; std::_Vector_iterator<std::_Vector_val<std::_Simple_types<CPythonQuest::SQuestInstance> > >::operator--
_TEXT	ENDS
; Function compile flags: /Ogtp
; File C:\Program Files\Microsoft Visual Studio\2022\Community\VC\Tools\MSVC\14.34.31933\include\vector
;	COMDAT ?_Compat@?$_Vector_const_iterator@V?$_Vector_val@U?$_Simple_types@USQuestInstance@CPythonQuest@@@std@@@std@@@std@@QBEXABV12@@Z
_TEXT	SEGMENT
__Right$dead$ = 8					; size = 4
?_Compat@?$_Vector_const_iterator@V?$_Vector_val@U?$_Simple_types@USQuestInstance@CPythonQuest@@@std@@@std@@@std@@QBEXABV12@@Z PROC ; std::_Vector_const_iterator<std::_Vector_val<std::_Simple_types<CPythonQuest::SQuestInstance> > >::_Compat, COMDAT
; _this$dead$ = ecx

; 188  :         // test for compatible iterator pair
; 189  : #if _ITERATOR_DEBUG_LEVEL == 0
; 190  :         (void) _Right;
; 191  : #else // ^^^ _ITERATOR_DEBUG_LEVEL == 0 ^^^ // vvv _ITERATOR_DEBUG_LEVEL != 0 vvv
; 192  :         _STL_VERIFY(this->_Getcont() == _Right._Getcont(), "vector iterators incompatible");
; 193  : #endif // _ITERATOR_DEBUG_LEVEL == 0
; 194  :     }

  00000	c2 04 00	 ret	 4
?_Compat@?$_Vector_const_iterator@V?$_Vector_val@U?$_Simple_types@USQuestInstance@CPythonQuest@@@std@@@std@@@std@@QBEXABV12@@Z ENDP ; std::_Vector_const_iterator<std::_Vector_val<std::_Simple_types<CPythonQuest::SQuestInstance> > >::_Compat
_TEXT	ENDS
; Function compile flags: /Ogtp
; File C:\Program Files\Microsoft Visual Studio\2022\Community\VC\Tools\MSVC\14.34.31933\include\vector
;	COMDAT ??D?$_Vector_const_iterator@V?$_Vector_val@U?$_Simple_types@USQuestInstance@CPythonQuest@@@std@@@std@@@std@@QBEABUSQuestInstance@CPythonQuest@@XZ
_TEXT	SEGMENT
??D?$_Vector_const_iterator@V?$_Vector_val@U?$_Simple_types@USQuestInstance@CPythonQuest@@@std@@@std@@@std@@QBEABUSQuestInstance@CPythonQuest@@XZ PROC ; std::_Vector_const_iterator<std::_Vector_val<std::_Simple_types<CPythonQuest::SQuestInstance> > >::operator*, COMDAT
; _this$ = ecx

; 46   : #if _ITERATOR_DEBUG_LEVEL != 0
; 47   :         const auto _Mycont = static_cast<const _Myvec*>(this->_Getcont());
; 48   :         _STL_VERIFY(_Ptr, "can't dereference value-initialized vector iterator");
; 49   :         _STL_VERIFY(
; 50   :             _Mycont->_Myfirst <= _Ptr && _Ptr < _Mycont->_Mylast, "can't dereference out of range vector iterator");
; 51   : #endif // _ITERATOR_DEBUG_LEVEL != 0
; 52   : 
; 53   :         return *_Ptr;

  00000	8b 01		 mov	 eax, DWORD PTR [ecx]

; 54   :     }

  00002	c3		 ret	 0
??D?$_Vector_const_iterator@V?$_Vector_val@U?$_Simple_types@USQuestInstance@CPythonQuest@@@std@@@std@@@std@@QBEABUSQuestInstance@CPythonQuest@@XZ ENDP ; std::_Vector_const_iterator<std::_Vector_val<std::_Simple_types<CPythonQuest::SQuestInstance> > >::operator*
_TEXT	ENDS
; Function compile flags: /Ogtp
; File C:\Program Files\Microsoft Visual Studio\2022\Community\VC\Tools\MSVC\14.34.31933\include\vector
;	COMDAT ??0?$_Vector_const_iterator@V?$_Vector_val@U?$_Simple_types@USQuestInstance@CPythonQuest@@@std@@@std@@@std@@QAE@PAUSQuestInstance@CPythonQuest@@PBU_Container_base0@1@@Z
_TEXT	SEGMENT
__Parg$ = 8						; size = 4
__Pvector$dead$ = 12					; size = 4
??0?$_Vector_const_iterator@V?$_Vector_val@U?$_Simple_types@USQuestInstance@CPythonQuest@@@std@@@std@@@std@@QAE@PAUSQuestInstance@CPythonQuest@@PBU_Container_base0@1@@Z PROC ; std::_Vector_const_iterator<std::_Vector_val<std::_Simple_types<CPythonQuest::SQuestInstance> > >::_Vector_const_iterator<std::_Vector_val<std::_Simple_types<CPythonQuest::SQuestInstance> > >, COMDAT
; _this$ = ecx

; 41   :     _CONSTEXPR20 _Vector_const_iterator(_Tptr _Parg, const _Container_base* _Pvector) noexcept : _Ptr(_Parg) {

  00000	55		 push	 ebp
  00001	8b ec		 mov	 ebp, esp
  00003	8b 45 08	 mov	 eax, DWORD PTR __Parg$[ebp]
  00006	89 01		 mov	 DWORD PTR [ecx], eax

; 42   :         this->_Adopt(_Pvector);
; 43   :     }

  00008	8b c1		 mov	 eax, ecx
  0000a	5d		 pop	 ebp
  0000b	c2 08 00	 ret	 8
??0?$_Vector_const_iterator@V?$_Vector_val@U?$_Simple_types@USQuestInstance@CPythonQuest@@@std@@@std@@@std@@QAE@PAUSQuestInstance@CPythonQuest@@PBU_Container_base0@1@@Z ENDP ; std::_Vector_const_iterator<std::_Vector_val<std::_Simple_types<CPythonQuest::SQuestInstance> > >::_Vector_const_iterator<std::_Vector_val<std::_Simple_types<CPythonQuest::SQuestInstance> > >
_TEXT	ENDS
; Function compile flags: /Ogtp
; File C:\Program Files\Microsoft Visual Studio\2022\Community\VC\Tools\MSVC\14.34.31933\include\vector
;	COMDAT ?_Getal@?$vector@USQuestInstance@CPythonQuest@@V?$allocator@USQuestInstance@CPythonQuest@@@std@@@std@@AAEAAV?$allocator@USQuestInstance@CPythonQuest@@@2@XZ
_TEXT	SEGMENT
?_Getal@?$vector@USQuestInstance@CPythonQuest@@V?$allocator@USQuestInstance@CPythonQuest@@@std@@@std@@AAEAAV?$allocator@USQuestInstance@CPythonQuest@@@2@XZ PROC ; std::vector<CPythonQuest::SQuestInstance,std::allocator<CPythonQuest::SQuestInstance> >::_Getal, COMDAT
; _this$ = ecx

; 2244 :         return _Mypair._Get_first();

  00000	8b c1		 mov	 eax, ecx

; 2245 :     }

  00002	c3		 ret	 0
?_Getal@?$vector@USQuestInstance@CPythonQuest@@V?$allocator@USQuestInstance@CPythonQuest@@@std@@@std@@AAEAAV?$allocator@USQuestInstance@CPythonQuest@@@2@XZ ENDP ; std::vector<CPythonQuest::SQuestInstance,std::allocator<CPythonQuest::SQuestInstance> >::_Getal
_TEXT	ENDS
; Function compile flags: /Ogtp
; File C:\Program Files\Microsoft Visual Studio\2022\Community\VC\Tools\MSVC\14.34.31933\include\vector
;	COMDAT ?_Orphan_range@?$vector@USQuestInstance@CPythonQuest@@V?$allocator@USQuestInstance@CPythonQuest@@@std@@@std@@ABEXPAUSQuestInstance@CPythonQuest@@0@Z
_TEXT	SEGMENT
___formal$dead$ = 8					; size = 4
___formal$dead$ = 12					; size = 4
?_Orphan_range@?$vector@USQuestInstance@CPythonQuest@@V?$allocator@USQuestInstance@CPythonQuest@@@std@@@std@@ABEXPAUSQuestInstance@CPythonQuest@@0@Z PROC ; std::vector<CPythonQuest::SQuestInstance,std::allocator<CPythonQuest::SQuestInstance> >::_Orphan_range, COMDAT
; _this$dead$ = ecx

; 2240 :     _CONSTEXPR20 void _Orphan_range(pointer, pointer) const {}

  00000	c2 08 00	 ret	 8
?_Orphan_range@?$vector@USQuestInstance@CPythonQuest@@V?$allocator@USQuestInstance@CPythonQuest@@@std@@@std@@ABEXPAUSQuestInstance@CPythonQuest@@0@Z ENDP ; std::vector<CPythonQuest::SQuestInstance,std::allocator<CPythonQuest::SQuestInstance> >::_Orphan_range
_TEXT	ENDS
; Function compile flags: /Ogtp
; File C:\Program Files\Microsoft Visual Studio\2022\Community\VC\Tools\MSVC\14.34.31933\include\vector
; File C:\Program Files\Microsoft Visual Studio\2022\Community\VC\Tools\MSVC\14.34.31933\include\xmemory
; File C:\Program Files\Microsoft Visual Studio\2022\Community\VC\Tools\MSVC\14.34.31933\include\vector
; File C:\Program Files\Microsoft Visual Studio\2022\Community\VC\Tools\MSVC\14.34.31933\include\xmemory
; File C:\Program Files\Microsoft Visual Studio\2022\Community\VC\Tools\MSVC\14.34.31933\include\vector
; File C:\Program Files\Microsoft Visual Studio\2022\Community\VC\Tools\MSVC\14.34.31933\include\xmemory
; File C:\Program Files\Microsoft Visual Studio\2022\Community\VC\Tools\MSVC\14.34.31933\include\vector
; File C:\Program Files\Microsoft Visual Studio\2022\Community\VC\Tools\MSVC\14.34.31933\include\xmemory
; File C:\Program Files\Microsoft Visual Studio\2022\Community\VC\Tools\MSVC\14.34.31933\include\vector
;	COMDAT ?_Tidy@?$vector@USQuestInstance@CPythonQuest@@V?$allocator@USQuestInstance@CPythonQuest@@@std@@@std@@AAEXXZ
_TEXT	SEGMENT
?_Tidy@?$vector@USQuestInstance@CPythonQuest@@V?$allocator@USQuestInstance@CPythonQuest@@@std@@@std@@AAEXXZ PROC ; std::vector<CPythonQuest::SQuestInstance,std::allocator<CPythonQuest::SQuestInstance> >::_Tidy, COMDAT
; _this$ = ecx

; 2098 :     _CONSTEXPR20 void _Tidy() noexcept { // free all storage

  00000	56		 push	 esi
  00001	57		 push	 edi
  00002	8b f9		 mov	 edi, ecx

; 2099 :         auto& _Al         = _Getal();
; 2100 :         auto& _My_data    = _Mypair._Myval2;
; 2101 :         pointer& _Myfirst = _My_data._Myfirst;
; 2102 :         pointer& _Mylast  = _My_data._Mylast;
; 2103 :         pointer& _Myend   = _My_data._Myend;
; 2104 : 
; 2105 :         _My_data._Orphan_all();
; 2106 : 
; 2107 :         if (_Myfirst) { // destroy and deallocate old array

  00004	8b 37		 mov	 esi, DWORD PTR [edi]
  00006	85 f6		 test	 esi, esi
  00008	74 62		 je	 SHORT $LN2@Tidy

; 2108 :             _Destroy_range(_Myfirst, _Mylast, _Al);

  0000a	53		 push	 ebx
  0000b	8b 5f 04	 mov	 ebx, DWORD PTR [edi+4]
; File C:\Program Files\Microsoft Visual Studio\2022\Community\VC\Tools\MSVC\14.34.31933\include\xmemory

; 947  :         for (; _First != _Last; ++_First) {

  0000e	3b f3		 cmp	 esi, ebx
  00010	74 0e		 je	 SHORT $LN6@Tidy
$LL7@Tidy:
  00012	8b ce		 mov	 ecx, esi
  00014	e8 00 00 00 00	 call	 ??1SQuestInstance@CPythonQuest@@QAE@XZ
  00019	83 c6 74	 add	 esi, 116		; 00000074H
  0001c	3b f3		 cmp	 esi, ebx
  0001e	75 f2		 jne	 SHORT $LL7@Tidy
$LN6@Tidy:
; File C:\Program Files\Microsoft Visual Studio\2022\Community\VC\Tools\MSVC\14.34.31933\include\vector

; 2110 :             _Al.deallocate(_Myfirst, static_cast<size_type>(_Myend - _Myfirst));

  00020	8b 47 08	 mov	 eax, DWORD PTR [edi+8]
  00023	8b 0f		 mov	 ecx, DWORD PTR [edi]
  00025	2b c1		 sub	 eax, ecx
  00027	c1 f8 02	 sar	 eax, 2
  0002a	69 c0 35 c2 72
	4f		 imul	 eax, eax, 1332920885
; File C:\Program Files\Microsoft Visual Studio\2022\Community\VC\Tools\MSVC\14.34.31933\include\xmemory

; 830  :         _Deallocate<_New_alignof<_Ty>>(_Ptr, sizeof(_Ty) * _Count);

  00030	5b		 pop	 ebx
  00031	6b d0 74	 imul	 edx, eax, 116

; 251  :         if (_Bytes >= _Big_allocation_threshold) { // boost the alignment of big allocations to help autovectorization

  00034	81 fa 00 10 00
	00		 cmp	 edx, 4096		; 00001000H
  0003a	72 12		 jb	 SHORT $LN32@Tidy

; 150  :     const uintptr_t _Ptr_container   = _Ptr_user[-1];

  0003c	8b 71 fc	 mov	 esi, DWORD PTR [ecx-4]
  0003f	83 c2 23	 add	 edx, 35			; 00000023H

; 151  : 
; 152  :     // If the following asserts, it likely means that we are performing
; 153  :     // an aligned delete on memory coming from an unaligned allocation.
; 154  :     _STL_ASSERT(_Ptr_user[-2] == _Big_allocation_sentinel, "invalid argument");
; 155  : 
; 156  :     // Extra paranoia on aligned allocation/deallocation; ensure _Ptr_container is
; 157  :     // in range [_Min_back_shift, _Non_user_size]
; 158  : #ifdef _DEBUG
; 159  :     constexpr uintptr_t _Min_back_shift = 2 * sizeof(void*);
; 160  : #else // ^^^ _DEBUG ^^^ // vvv !_DEBUG vvv
; 161  :     constexpr uintptr_t _Min_back_shift = sizeof(void*);
; 162  : #endif // _DEBUG
; 163  :     const uintptr_t _Back_shift = reinterpret_cast<uintptr_t>(_Ptr) - _Ptr_container;

  00042	2b ce		 sub	 ecx, esi

; 164  :     _STL_VERIFY(_Back_shift >= _Min_back_shift && _Back_shift <= _Non_user_size, "invalid argument");

  00044	8d 41 fc	 lea	 eax, DWORD PTR [ecx-4]
  00047	83 f8 1f	 cmp	 eax, 31			; 0000001fH
  0004a	77 23		 ja	 SHORT $LN29@Tidy

; 165  :     _Ptr = reinterpret_cast<void*>(_Ptr_container);

  0004c	8b ce		 mov	 ecx, esi
$LN32@Tidy:

; 255  :         ::operator delete(_Ptr, _Bytes);

  0004e	52		 push	 edx
  0004f	51		 push	 ecx
  00050	e8 00 00 00 00	 call	 ??3@YAXPAXI@Z		; operator delete
; File C:\Program Files\Microsoft Visual Studio\2022\Community\VC\Tools\MSVC\14.34.31933\include\vector

; 2112 :             _Myfirst = nullptr;

  00055	c7 07 00 00 00
	00		 mov	 DWORD PTR [edi], 0
; File C:\Program Files\Microsoft Visual Studio\2022\Community\VC\Tools\MSVC\14.34.31933\include\xmemory

; 255  :         ::operator delete(_Ptr, _Bytes);

  0005b	83 c4 08	 add	 esp, 8
; File C:\Program Files\Microsoft Visual Studio\2022\Community\VC\Tools\MSVC\14.34.31933\include\vector

; 2113 :             _Mylast  = nullptr;

  0005e	c7 47 04 00 00
	00 00		 mov	 DWORD PTR [edi+4], 0

; 2114 :             _Myend   = nullptr;

  00065	c7 47 08 00 00
	00 00		 mov	 DWORD PTR [edi+8], 0
$LN2@Tidy:

; 2116 :     }

  0006c	5f		 pop	 edi
  0006d	5e		 pop	 esi
  0006e	c3		 ret	 0
$LN29@Tidy:
; File C:\Program Files\Microsoft Visual Studio\2022\Community\VC\Tools\MSVC\14.34.31933\include\xmemory

; 164  :     _STL_VERIFY(_Back_shift >= _Min_back_shift && _Back_shift <= _Non_user_size, "invalid argument");

  0006f	e8 00 00 00 00	 call	 __invalid_parameter_noinfo_noreturn
$LN40@Tidy:
  00074	cc		 int	 3
?_Tidy@?$vector@USQuestInstance@CPythonQuest@@V?$allocator@USQuestInstance@CPythonQuest@@@std@@@std@@AAEXXZ ENDP ; std::vector<CPythonQuest::SQuestInstance,std::allocator<CPythonQuest::SQuestInstance> >::_Tidy
_TEXT	ENDS
; Function compile flags: /Ogtp
; File C:\Program Files\Microsoft Visual Studio\2022\Community\VC\Tools\MSVC\14.34.31933\include\vector
;	COMDAT ??F?$_Vector_const_iterator@V?$_Vector_val@U?$_Simple_types@USQuestInstance@CPythonQuest@@@std@@@std@@@std@@QAEAAV01@XZ
_TEXT	SEGMENT
??F?$_Vector_const_iterator@V?$_Vector_val@U?$_Simple_types@USQuestInstance@CPythonQuest@@@std@@@std@@@std@@QAEAAV01@XZ PROC ; std::_Vector_const_iterator<std::_Vector_val<std::_Simple_types<CPythonQuest::SQuestInstance> > >::operator--, COMDAT
; _this$ = ecx

; 85   : #if _ITERATOR_DEBUG_LEVEL != 0
; 86   :         const auto _Mycont = static_cast<const _Myvec*>(this->_Getcont());
; 87   :         _STL_VERIFY(_Ptr, "can't decrement value-initialized vector iterator");
; 88   :         _STL_VERIFY(_Mycont->_Myfirst < _Ptr, "can't decrement vector iterator before begin");
; 89   : #endif // _ITERATOR_DEBUG_LEVEL != 0
; 90   : 
; 91   :         --_Ptr;

  00000	83 01 8c	 add	 DWORD PTR [ecx], -116	; ffffff8cH

; 92   :         return *this;

  00003	8b c1		 mov	 eax, ecx

; 93   :     }

  00005	c3		 ret	 0
??F?$_Vector_const_iterator@V?$_Vector_val@U?$_Simple_types@USQuestInstance@CPythonQuest@@@std@@@std@@@std@@QAEAAV01@XZ ENDP ; std::_Vector_const_iterator<std::_Vector_val<std::_Simple_types<CPythonQuest::SQuestInstance> > >::operator--
_TEXT	ENDS
; Function compile flags: /Ogtp
; File C:\Program Files\Microsoft Visual Studio\2022\Community\VC\Tools\MSVC\14.34.31933\include\xmemory
;	COMDAT ?_Get_first@?$_Compressed_pair@V?$allocator@USQuestInstance@CPythonQuest@@@std@@V?$_Vector_val@U?$_Simple_types@USQuestInstance@CPythonQuest@@@std@@@2@$00@std@@QAEAAV?$allocator@USQuestInstance@CPythonQuest@@@2@XZ
_TEXT	SEGMENT
?_Get_first@?$_Compressed_pair@V?$allocator@USQuestInstance@CPythonQuest@@@std@@V?$_Vector_val@U?$_Simple_types@USQuestInstance@CPythonQuest@@@std@@@2@$00@std@@QAEAAV?$allocator@USQuestInstance@CPythonQuest@@@2@XZ PROC ; std::_Compressed_pair<std::allocator<CPythonQuest::SQuestInstance>,std::_Vector_val<std::_Simple_types<CPythonQuest::SQuestInstance> >,1>::_Get_first, COMDAT
; _this$ = ecx

; 1384 :         return *this;

  00000	8b c1		 mov	 eax, ecx

; 1385 :     }

  00002	c3		 ret	 0
?_Get_first@?$_Compressed_pair@V?$allocator@USQuestInstance@CPythonQuest@@@std@@V?$_Vector_val@U?$_Simple_types@USQuestInstance@CPythonQuest@@@std@@@2@$00@std@@QAEAAV?$allocator@USQuestInstance@CPythonQuest@@@2@XZ ENDP ; std::_Compressed_pair<std::allocator<CPythonQuest::SQuestInstance>,std::_Vector_val<std::_Simple_types<CPythonQuest::SQuestInstance> >,1>::_Get_first
_TEXT	ENDS
; Function compile flags: /Ogtp
; File C:\Program Files\Microsoft Visual Studio\2022\Community\VC\Tools\MSVC\14.34.31933\include\xmemory
;	COMDAT ?deallocate@?$allocator@USQuestInstance@CPythonQuest@@@std@@QAEXQAUSQuestInstance@CPythonQuest@@I@Z
_TEXT	SEGMENT
__Ptr$ = 8						; size = 4
__Count$ = 12						; size = 4
?deallocate@?$allocator@USQuestInstance@CPythonQuest@@@std@@QAEXQAUSQuestInstance@CPythonQuest@@I@Z PROC ; std::allocator<CPythonQuest::SQuestInstance>::deallocate, COMDAT
; _this$dead$ = ecx

; 827  :     _CONSTEXPR20 void deallocate(_Ty* const _Ptr, const size_t _Count) {

  00000	55		 push	 ebp
  00001	8b ec		 mov	 ebp, esp

; 828  :         _STL_ASSERT(_Ptr != nullptr || _Count == 0, "null pointer cannot point to a block of non-zero size");
; 829  :         // no overflow check on the following multiply; we assume _Allocate did that check
; 830  :         _Deallocate<_New_alignof<_Ty>>(_Ptr, sizeof(_Ty) * _Count);

  00003	6b 4d 0c 74	 imul	 ecx, DWORD PTR __Count$[ebp], 116
  00007	8b 45 08	 mov	 eax, DWORD PTR __Ptr$[ebp]

; 251  :         if (_Bytes >= _Big_allocation_threshold) { // boost the alignment of big allocations to help autovectorization

  0000a	81 f9 00 10 00
	00		 cmp	 ecx, 4096		; 00001000H
  00010	72 12		 jb	 SHORT $LN17@deallocate

; 150  :     const uintptr_t _Ptr_container   = _Ptr_user[-1];

  00012	8b 50 fc	 mov	 edx, DWORD PTR [eax-4]
  00015	83 c1 23	 add	 ecx, 35			; 00000023H

; 151  : 
; 152  :     // If the following asserts, it likely means that we are performing
; 153  :     // an aligned delete on memory coming from an unaligned allocation.
; 154  :     _STL_ASSERT(_Ptr_user[-2] == _Big_allocation_sentinel, "invalid argument");
; 155  : 
; 156  :     // Extra paranoia on aligned allocation/deallocation; ensure _Ptr_container is
; 157  :     // in range [_Min_back_shift, _Non_user_size]
; 158  : #ifdef _DEBUG
; 159  :     constexpr uintptr_t _Min_back_shift = 2 * sizeof(void*);
; 160  : #else // ^^^ _DEBUG ^^^ // vvv !_DEBUG vvv
; 161  :     constexpr uintptr_t _Min_back_shift = sizeof(void*);
; 162  : #endif // _DEBUG
; 163  :     const uintptr_t _Back_shift = reinterpret_cast<uintptr_t>(_Ptr) - _Ptr_container;

  00018	2b c2		 sub	 eax, edx

; 164  :     _STL_VERIFY(_Back_shift >= _Min_back_shift && _Back_shift <= _Non_user_size, "invalid argument");

  0001a	83 c0 fc	 add	 eax, -4			; fffffffcH
  0001d	83 f8 1f	 cmp	 eax, 31			; 0000001fH
  00020	77 10		 ja	 SHORT $LN14@deallocate

; 165  :     _Ptr = reinterpret_cast<void*>(_Ptr_container);

  00022	8b c2		 mov	 eax, edx
$LN17@deallocate:

; 255  :         ::operator delete(_Ptr, _Bytes);

  00024	51		 push	 ecx
  00025	50		 push	 eax
  00026	e8 00 00 00 00	 call	 ??3@YAXPAXI@Z		; operator delete
  0002b	83 c4 08	 add	 esp, 8

; 831  :     }

  0002e	5d		 pop	 ebp
  0002f	c2 08 00	 ret	 8
$LN14@deallocate:

; 164  :     _STL_VERIFY(_Back_shift >= _Min_back_shift && _Back_shift <= _Non_user_size, "invalid argument");

  00032	e8 00 00 00 00	 call	 __invalid_parameter_noinfo_noreturn
$LN20@deallocate:
  00037	cc		 int	 3
?deallocate@?$allocator@USQuestInstance@CPythonQuest@@@std@@QAEXQAUSQuestInstance@CPythonQuest@@I@Z ENDP ; std::allocator<CPythonQuest::SQuestInstance>::deallocate
_TEXT	ENDS
; Function compile flags: /Ogtp
; File C:\Program Files\Microsoft Visual Studio\2022\Community\VC\Tools\MSVC\14.34.31933\include\type_traits
;	COMDAT ??$move@AAUSQuestInstance@CPythonQuest@@@std@@YA$$QAUSQuestInstance@CPythonQuest@@AAU12@@Z
_TEXT	SEGMENT
??$move@AAUSQuestInstance@CPythonQuest@@@std@@YA$$QAUSQuestInstance@CPythonQuest@@AAU12@@Z PROC ; std::move<CPythonQuest::SQuestInstance &>, COMDAT
; __Arg$ = ecx

; 1437 :     return static_cast<remove_reference_t<_Ty>&&>(_Arg);

  00000	8b c1		 mov	 eax, ecx

; 1438 : }

  00002	c3		 ret	 0
??$move@AAUSQuestInstance@CPythonQuest@@@std@@YA$$QAUSQuestInstance@CPythonQuest@@AAU12@@Z ENDP ; std::move<CPythonQuest::SQuestInstance &>
_TEXT	ENDS
; Function compile flags: /Ogtp
; File C:\Program Files\Microsoft Visual Studio\2022\Community\VC\Tools\MSVC\14.34.31933\include\xutility
; File E:\Metin2_server\SolWayneSF v6\ClientVS22\source\UserInterface\PythonQuest.cpp
; File C:\Program Files\Microsoft Visual Studio\2022\Community\VC\Tools\MSVC\14.34.31933\include\xutility
;	COMDAT ??$find_if@V?$_Vector_iterator@V?$_Vector_val@U?$_Simple_types@USQuestInstance@CPythonQuest@@@std@@@std@@@std@@UFQuestInstanceCompare@@@std@@YA?AV?$_Vector_iterator@V?$_Vector_val@U?$_Simple_types@USQuestInstance@CPythonQuest@@@std@@@std@@@0@V10@V10@UFQuestInstanceCompare@@@Z
_TEXT	SEGMENT
__First$ = 8						; size = 4
__Last$ = 12						; size = 4
__Pred$ = 16						; size = 4
??$find_if@V?$_Vector_iterator@V?$_Vector_val@U?$_Simple_types@USQuestInstance@CPythonQuest@@@std@@@std@@@std@@UFQuestInstanceCompare@@@std@@YA?AV?$_Vector_iterator@V?$_Vector_val@U?$_Simple_types@USQuestInstance@CPythonQuest@@@std@@@std@@@0@V10@V10@UFQuestInstanceCompare@@@Z PROC ; std::find_if<std::_Vector_iterator<std::_Vector_val<std::_Simple_types<CPythonQuest::SQuestInstance> > >,FQuestInstanceCompare>, COMDAT
; ___$ReturnUdt$ = ecx

; 5594 : _NODISCARD _CONSTEXPR20 _InIt find_if(_InIt _First, const _InIt _Last, _Pr _Pred) { // find first satisfying _Pred

  00000	55		 push	 ebp
  00001	8b ec		 mov	 ebp, esp

; 5595 :     _Adl_verify_range(_First, _Last);
; 5596 :     auto _UFirst      = _Get_unwrapped(_First);
; 5597 :     const auto _ULast = _Get_unwrapped(_Last);
; 5598 :     for (; _UFirst != _ULast; ++_UFirst) {

  00003	8b 45 0c	 mov	 eax, DWORD PTR __Last$[ebp]
  00006	56		 push	 esi
  00007	8b 75 08	 mov	 esi, DWORD PTR __First$[ebp]
  0000a	3b f0		 cmp	 esi, eax
  0000c	74 0e		 je	 SHORT $LN15@find_if
  0000e	8b 55 10	 mov	 edx, DWORD PTR __Pred$[ebp]
$LL4@find_if:
; File E:\Metin2_server\SolWayneSF v6\ClientVS22\source\UserInterface\PythonQuest.cpp

; 21   : 		return dwSearchIndex == rQuestInstance.dwIndex;

  00011	3b 16		 cmp	 edx, DWORD PTR [esi]
; File C:\Program Files\Microsoft Visual Studio\2022\Community\VC\Tools\MSVC\14.34.31933\include\xutility

; 5599 :         if (_Pred(*_UFirst)) {

  00013	74 07		 je	 SHORT $LN15@find_if

; 5595 :     _Adl_verify_range(_First, _Last);
; 5596 :     auto _UFirst      = _Get_unwrapped(_First);
; 5597 :     const auto _ULast = _Get_unwrapped(_Last);
; 5598 :     for (; _UFirst != _ULast; ++_UFirst) {

  00015	83 c6 74	 add	 esi, 116		; 00000074H
  00018	3b f0		 cmp	 esi, eax
  0001a	75 f5		 jne	 SHORT $LL4@find_if
$LN15@find_if:

; 5600 :             break;
; 5601 :         }
; 5602 :     }
; 5603 : 
; 5604 :     _Seek_wrapped(_First, _UFirst);
; 5605 :     return _First;
; 5606 : }

  0001c	89 31		 mov	 DWORD PTR [ecx], esi
  0001e	8b c1		 mov	 eax, ecx
  00020	5e		 pop	 esi
  00021	5d		 pop	 ebp
  00022	c3		 ret	 0
??$find_if@V?$_Vector_iterator@V?$_Vector_val@U?$_Simple_types@USQuestInstance@CPythonQuest@@@std@@@std@@@std@@UFQuestInstanceCompare@@@std@@YA?AV?$_Vector_iterator@V?$_Vector_val@U?$_Simple_types@USQuestInstance@CPythonQuest@@@std@@@std@@@0@V10@V10@UFQuestInstanceCompare@@@Z ENDP ; std::find_if<std::_Vector_iterator<std::_Vector_val<std::_Simple_types<CPythonQuest::SQuestInstance> > >,FQuestInstanceCompare>
_TEXT	ENDS
; Function compile flags: /Ogtp
; File C:\Program Files\Microsoft Visual Studio\2022\Community\VC\Tools\MSVC\14.34.31933\include\xutility
;	COMDAT ??$_Get_unwrapped@AAV?$_Vector_iterator@V?$_Vector_val@U?$_Simple_types@USQuestInstance@CPythonQuest@@@std@@@std@@@std@@@std@@YA?A_TAAV?$_Vector_iterator@V?$_Vector_val@U?$_Simple_types@USQuestInstance@CPythonQuest@@@std@@@std@@@0@@Z
_TEXT	SEGMENT
??$_Get_unwrapped@AAV?$_Vector_iterator@V?$_Vector_val@U?$_Simple_types@USQuestInstance@CPythonQuest@@@std@@@std@@@std@@@std@@YA?A_TAAV?$_Vector_iterator@V?$_Vector_val@U?$_Simple_types@USQuestInstance@CPythonQuest@@@std@@@std@@@0@@Z PROC ; std::_Get_unwrapped<std::_Vector_iterator<std::_Vector_val<std::_Simple_types<CPythonQuest::SQuestInstance> > > &>, COMDAT
; __It$ = ecx

; 912  :     // unwrap an iterator previously subjected to _Adl_verify_range or otherwise validated
; 913  :     if constexpr (is_pointer_v<decay_t<_Iter>>) { // special-case pointers and arrays
; 914  :         return _It + 0;
; 915  :     } else if constexpr (_Unwrappable_v<_Iter>) {
; 916  :         return static_cast<_Iter&&>(_It)._Unwrapped();

  00000	8b 01		 mov	 eax, DWORD PTR [ecx]

; 917  :     } else {
; 918  :         return static_cast<_Iter&&>(_It);
; 919  :     }
; 920  : }

  00002	c3		 ret	 0
??$_Get_unwrapped@AAV?$_Vector_iterator@V?$_Vector_val@U?$_Simple_types@USQuestInstance@CPythonQuest@@@std@@@std@@@std@@@std@@YA?A_TAAV?$_Vector_iterator@V?$_Vector_val@U?$_Simple_types@USQuestInstance@CPythonQuest@@@std@@@std@@@0@@Z ENDP ; std::_Get_unwrapped<std::_Vector_iterator<std::_Vector_val<std::_Simple_types<CPythonQuest::SQuestInstance> > > &>
_TEXT	ENDS
; Function compile flags: /Ogtp
; File C:\Program Files\Microsoft Visual Studio\2022\Community\VC\Tools\MSVC\14.34.31933\include\xutility
;	COMDAT ??$_Get_unwrapped@ABV?$_Vector_iterator@V?$_Vector_val@U?$_Simple_types@USQuestInstance@CPythonQuest@@@std@@@std@@@std@@@std@@YA?A_TABV?$_Vector_iterator@V?$_Vector_val@U?$_Simple_types@USQuestInstance@CPythonQuest@@@std@@@std@@@0@@Z
_TEXT	SEGMENT
??$_Get_unwrapped@ABV?$_Vector_iterator@V?$_Vector_val@U?$_Simple_types@USQuestInstance@CPythonQuest@@@std@@@std@@@std@@@std@@YA?A_TABV?$_Vector_iterator@V?$_Vector_val@U?$_Simple_types@USQuestInstance@CPythonQuest@@@std@@@std@@@0@@Z PROC ; std::_Get_unwrapped<std::_Vector_iterator<std::_Vector_val<std::_Simple_types<CPythonQuest::SQuestInstance> > > const &>, COMDAT
; __It$ = ecx

; 912  :     // unwrap an iterator previously subjected to _Adl_verify_range or otherwise validated
; 913  :     if constexpr (is_pointer_v<decay_t<_Iter>>) { // special-case pointers and arrays
; 914  :         return _It + 0;
; 915  :     } else if constexpr (_Unwrappable_v<_Iter>) {
; 916  :         return static_cast<_Iter&&>(_It)._Unwrapped();

  00000	8b 01		 mov	 eax, DWORD PTR [ecx]

; 917  :     } else {
; 918  :         return static_cast<_Iter&&>(_It);
; 919  :     }
; 920  : }

  00002	c3		 ret	 0
??$_Get_unwrapped@ABV?$_Vector_iterator@V?$_Vector_val@U?$_Simple_types@USQuestInstance@CPythonQuest@@@std@@@std@@@std@@@std@@YA?A_TABV?$_Vector_iterator@V?$_Vector_val@U?$_Simple_types@USQuestInstance@CPythonQuest@@@std@@@std@@@0@@Z ENDP ; std::_Get_unwrapped<std::_Vector_iterator<std::_Vector_val<std::_Simple_types<CPythonQuest::SQuestInstance> > > const &>
_TEXT	ENDS
; Function compile flags: /Ogtp
; File C:\Program Files\Microsoft Visual Studio\2022\Community\VC\Tools\MSVC\14.34.31933\include\vector
;	COMDAT ?_Unwrapped@?$_Vector_iterator@V?$_Vector_val@U?$_Simple_types@USQuestInstance@CPythonQuest@@@std@@@std@@@std@@QBEPAUSQuestInstance@CPythonQuest@@XZ
_TEXT	SEGMENT
?_Unwrapped@?$_Vector_iterator@V?$_Vector_val@U?$_Simple_types@USQuestInstance@CPythonQuest@@@std@@@std@@@std@@QBEPAUSQuestInstance@CPythonQuest@@XZ PROC ; std::_Vector_iterator<std::_Vector_val<std::_Simple_types<CPythonQuest::SQuestInstance> > >::_Unwrapped, COMDAT
; _this$ = ecx

; 334  :         return _Unfancy(this->_Ptr);

  00000	8b 01		 mov	 eax, DWORD PTR [ecx]

; 335  :     }

  00002	c3		 ret	 0
?_Unwrapped@?$_Vector_iterator@V?$_Vector_val@U?$_Simple_types@USQuestInstance@CPythonQuest@@@std@@@std@@@std@@QBEPAUSQuestInstance@CPythonQuest@@XZ ENDP ; std::_Vector_iterator<std::_Vector_val<std::_Simple_types<CPythonQuest::SQuestInstance> > >::_Unwrapped
_TEXT	ENDS
; Function compile flags: /Ogtp
; File C:\Program Files\Microsoft Visual Studio\2022\Community\VC\Tools\MSVC\14.34.31933\include\xutility
; File C:\Program Files\Microsoft Visual Studio\2022\Community\VC\Tools\MSVC\14.34.31933\include\vector
; File C:\Program Files\Microsoft Visual Studio\2022\Community\VC\Tools\MSVC\14.34.31933\include\xutility
;	COMDAT ??$distance@V?$_Vector_iterator@V?$_Vector_val@U?$_Simple_types@USQuestInstance@CPythonQuest@@@std@@@std@@@std@@@std@@YAHV?$_Vector_iterator@V?$_Vector_val@U?$_Simple_types@USQuestInstance@CPythonQuest@@@std@@@std@@@0@0@Z
_TEXT	SEGMENT
__First$ = 8						; size = 4
__Last$ = 12						; size = 4
??$distance@V?$_Vector_iterator@V?$_Vector_val@U?$_Simple_types@USQuestInstance@CPythonQuest@@@std@@@std@@@std@@@std@@YAHV?$_Vector_iterator@V?$_Vector_val@U?$_Simple_types@USQuestInstance@CPythonQuest@@@std@@@std@@@0@0@Z PROC ; std::distance<std::_Vector_iterator<std::_Vector_val<std::_Simple_types<CPythonQuest::SQuestInstance> > > >, COMDAT

; 1160 : _NODISCARD _CONSTEXPR17 _Iter_diff_t<_InIt> distance(_InIt _First, _InIt _Last) {

  00000	55		 push	 ebp
  00001	8b ec		 mov	 ebp, esp
; File C:\Program Files\Microsoft Visual Studio\2022\Community\VC\Tools\MSVC\14.34.31933\include\vector

; 147  :         return _Ptr - _Right._Ptr;

  00003	8b 45 0c	 mov	 eax, DWORD PTR __Last$[ebp]
  00006	2b 45 08	 sub	 eax, DWORD PTR __First$[ebp]
  00009	c1 f8 02	 sar	 eax, 2
  0000c	69 c0 35 c2 72
	4f		 imul	 eax, eax, 1332920885
; File C:\Program Files\Microsoft Visual Studio\2022\Community\VC\Tools\MSVC\14.34.31933\include\xutility

; 1174 : }

  00012	5d		 pop	 ebp
  00013	c3		 ret	 0
??$distance@V?$_Vector_iterator@V?$_Vector_val@U?$_Simple_types@USQuestInstance@CPythonQuest@@@std@@@std@@@std@@@std@@YAHV?$_Vector_iterator@V?$_Vector_val@U?$_Simple_types@USQuestInstance@CPythonQuest@@@std@@@std@@@0@0@Z ENDP ; std::distance<std::_Vector_iterator<std::_Vector_val<std::_Simple_types<CPythonQuest::SQuestInstance> > > >
_TEXT	ENDS
; Function compile flags: /Ogtp
; File C:\Program Files\Microsoft Visual Studio\2022\Community\VC\Tools\MSVC\14.34.31933\include\xstddef
;	COMDAT ??$addressof@V?$_Vector_val@U?$_Simple_types@USQuestInstance@CPythonQuest@@@std@@@std@@@std@@YAPAV?$_Vector_val@U?$_Simple_types@USQuestInstance@CPythonQuest@@@std@@@0@AAV10@@Z
_TEXT	SEGMENT
??$addressof@V?$_Vector_val@U?$_Simple_types@USQuestInstance@CPythonQuest@@@std@@@std@@@std@@YAPAV?$_Vector_val@U?$_Simple_types@USQuestInstance@CPythonQuest@@@std@@@0@AAV10@@Z PROC ; std::addressof<std::_Vector_val<std::_Simple_types<CPythonQuest::SQuestInstance> > >, COMDAT
; __Val$ = ecx

; 281  :     return __builtin_addressof(_Val);

  00000	8b c1		 mov	 eax, ecx

; 282  : }

  00002	c3		 ret	 0
??$addressof@V?$_Vector_val@U?$_Simple_types@USQuestInstance@CPythonQuest@@@std@@@std@@@std@@YAPAV?$_Vector_val@U?$_Simple_types@USQuestInstance@CPythonQuest@@@std@@@0@AAV10@@Z ENDP ; std::addressof<std::_Vector_val<std::_Simple_types<CPythonQuest::SQuestInstance> > >
_TEXT	ENDS
; Function compile flags: /Ogtp
; File C:\Program Files\Microsoft Visual Studio\2022\Community\VC\Tools\MSVC\14.34.31933\include\xmemory
;	COMDAT ??$_Destroy_range@V?$allocator@USQuestInstance@CPythonQuest@@@std@@@std@@YAXPAUSQuestInstance@CPythonQuest@@QAU12@AAV?$allocator@USQuestInstance@CPythonQuest@@@0@@Z
_TEXT	SEGMENT
__Al$dead$ = 8						; size = 4
??$_Destroy_range@V?$allocator@USQuestInstance@CPythonQuest@@@std@@@std@@YAXPAUSQuestInstance@CPythonQuest@@QAU12@AAV?$allocator@USQuestInstance@CPythonQuest@@@0@@Z PROC ; std::_Destroy_range<std::allocator<CPythonQuest::SQuestInstance> >, COMDAT
; __First$ = ecx
; __Last$ = edx

; 943  : _CONSTEXPR20 void _Destroy_range(_Alloc_ptr_t<_Alloc> _First, const _Alloc_ptr_t<_Alloc> _Last, _Alloc& _Al) noexcept {

  00000	56		 push	 esi
  00001	57		 push	 edi
  00002	8b fa		 mov	 edi, edx
  00004	8b f1		 mov	 esi, ecx

; 944  :     // note that this is an optimization for debug mode codegen; in release mode the BE removes all of this
; 945  :     using _Ty = typename _Alloc::value_type;
; 946  :     if constexpr (!conjunction_v<is_trivially_destructible<_Ty>, _Uses_default_destroy<_Alloc, _Ty*>>) {
; 947  :         for (; _First != _Last; ++_First) {

  00006	3b f7		 cmp	 esi, edi
  00008	74 14		 je	 SHORT $LN3@Destroy_ra
  0000a	66 0f 1f 44 00
	00		 npad	 6
$LL4@Destroy_ra:
  00010	8b ce		 mov	 ecx, esi
  00012	e8 00 00 00 00	 call	 ??1SQuestInstance@CPythonQuest@@QAE@XZ
  00017	83 c6 74	 add	 esi, 116		; 00000074H
  0001a	3b f7		 cmp	 esi, edi
  0001c	75 f2		 jne	 SHORT $LL4@Destroy_ra
$LN3@Destroy_ra:
  0001e	5f		 pop	 edi

; 948  :             allocator_traits<_Alloc>::destroy(_Al, _Unfancy(_First));
; 949  :         }
; 950  :     }
; 951  : }

  0001f	5e		 pop	 esi
  00020	c3		 ret	 0
??$_Destroy_range@V?$allocator@USQuestInstance@CPythonQuest@@@std@@@std@@YAXPAUSQuestInstance@CPythonQuest@@QAU12@AAV?$allocator@USQuestInstance@CPythonQuest@@@0@@Z ENDP ; std::_Destroy_range<std::allocator<CPythonQuest::SQuestInstance> >
_TEXT	ENDS
; Function compile flags: /Ogtp
; File C:\Program Files\Microsoft Visual Studio\2022\Community\VC\Tools\MSVC\14.34.31933\include\xutility
; File C:\Program Files\Microsoft Visual Studio\2022\Community\VC\Tools\MSVC\14.34.31933\include\xstring
; File C:\Program Files\Microsoft Visual Studio\2022\Community\VC\Tools\MSVC\14.34.31933\include\xutility
;	COMDAT ??$_Move_unchecked@PAUSQuestInstance@CPythonQuest@@PAU12@@std@@YAPAUSQuestInstance@CPythonQuest@@PAU12@00@Z
_TEXT	SEGMENT
__Last$1$ = -4						; size = 4
__Dest$1$ = 8						; size = 4
__Dest$ = 8						; size = 4
??$_Move_unchecked@PAUSQuestInstance@CPythonQuest@@PAU12@@std@@YAPAUSQuestInstance@CPythonQuest@@PAU12@00@Z PROC ; std::_Move_unchecked<CPythonQuest::SQuestInstance *,CPythonQuest::SQuestInstance *>, COMDAT
; __First$ = ecx
; __Last$ = edx

; 4199 : _CONSTEXPR20 _OutIt _Move_unchecked(_InIt _First, _InIt _Last, _OutIt _Dest) {

  00000	55		 push	 ebp
  00001	8b ec		 mov	 ebp, esp
  00003	51		 push	 ecx
  00004	8b c2		 mov	 eax, edx
  00006	89 45 fc	 mov	 DWORD PTR __Last$1$[ebp], eax

; 4211 :     for (; _First != _Last; ++_Dest, (void) ++_First) {

  00009	3b c8		 cmp	 ecx, eax
  0000b	0f 84 1d 01 00
	00		 je	 $LN136@Move_unche
  00011	8b 55 08	 mov	 edx, DWORD PTR __Dest$[ebp]
  00014	53		 push	 ebx
  00015	56		 push	 esi
  00016	57		 push	 edi
  00017	89 55 08	 mov	 DWORD PTR __Dest$1$[ebp], edx
  0001a	8d 5a 1c	 lea	 ebx, DWORD PTR [edx+28]
  0001d	8d 71 18	 lea	 esi, DWORD PTR [ecx+24]
$LL4@Move_unche:
  00020	8b 46 e8	 mov	 eax, DWORD PTR [esi-24]
  00023	89 02		 mov	 DWORD PTR [edx], eax
; File C:\Program Files\Microsoft Visual Studio\2022\Community\VC\Tools\MSVC\14.34.31933\include\xstring

; 3099 :         if (this == _STD addressof(_Right)) {

  00025	8d 46 04	 lea	 eax, DWORD PTR [esi+4]
  00028	3b d8		 cmp	 ebx, eax
  0002a	74 2b		 je	 SHORT $LN23@Move_unche

; 3100 :             return *this;
; 3101 :         }
; 3102 : 
; 3103 :         auto& _Al                 = _Getal();
; 3104 :         auto& _Right_al           = _Right._Getal();
; 3105 :         constexpr auto _Pocma_val = _Choose_pocma_v<_Alty>;
; 3106 :         if constexpr (_Pocma_val == _Pocma_values::_Propagate_allocators) {
; 3107 :             if (_Al != _Right_al) {
; 3108 :                 // intentionally slams into noexcept on OOM, TRANSITION, VSO-466800
; 3109 :                 _Mypair._Myval2._Orphan_all();
; 3110 :                 _Mypair._Myval2._Reload_proxy(_GET_PROXY_ALLOCATOR(_Alty, _Al), _GET_PROXY_ALLOCATOR(_Alty, _Right_al));
; 3111 :             }
; 3112 :         } else if constexpr (_Pocma_val == _Pocma_values::_No_propagate_allocators) {
; 3113 :             if (_Al != _Right_al) {
; 3114 :                 assign(_Right._Mypair._Myval2._Myptr(), _Right._Mypair._Myval2._Mysize);
; 3115 :                 return *this;
; 3116 :             }
; 3117 :         }
; 3118 : 
; 3119 :         _Tidy_deallocate();

  0002c	8d 4b e8	 lea	 ecx, DWORD PTR [ebx-24]
  0002f	e8 00 00 00 00	 call	 ?_Tidy_deallocate@?$basic_string@DU?$char_traits@D@std@@V?$allocator@D@2@@std@@AAEXXZ ; std::basic_string<char,std::char_traits<char>,std::allocator<char> >::_Tidy_deallocate

; 3137 :         _CSTD memcpy(_My_data_mem, _Right_data_mem, _Memcpy_val_size);

  00034	0f 10 46 ec	 movups	 xmm0, XMMWORD PTR [esi-20]
  00038	0f 11 43 e8	 movups	 XMMWORD PTR [ebx-24], xmm0
  0003c	f3 0f 7e 46 fc	 movq	 xmm0, QWORD PTR [esi-4]
  00041	66 0f d6 43 f8	 movq	 QWORD PTR [ebx-8], xmm0

; 4995 :         _My_data._Mysize = 0;

  00046	c7 46 fc 00 00
	00 00		 mov	 DWORD PTR [esi-4], 0

; 4996 :         _My_data._Myres  = _BUF_SIZE - 1;

  0004d	c7 06 0f 00 00
	00		 mov	 DWORD PTR [esi], 15	; 0000000fH

; 4997 :         _My_data._Activate_SSO_buffer();
; 4998 : 
; 4999 :         // the _Traits::assign is last so the codegen doesn't think the char write can alias this
; 5000 :         _Traits::assign(_My_data._Bx._Buf[0], _Elem());

  00053	c6 46 ec 00	 mov	 BYTE PTR [esi-20], 0
$LN23@Move_unche:

; 3099 :         if (this == _STD addressof(_Right)) {

  00057	8d 7e 04	 lea	 edi, DWORD PTR [esi+4]
  0005a	3b df		 cmp	 ebx, edi
  0005c	74 28		 je	 SHORT $LN45@Move_unche

; 3100 :             return *this;
; 3101 :         }
; 3102 : 
; 3103 :         auto& _Al                 = _Getal();
; 3104 :         auto& _Right_al           = _Right._Getal();
; 3105 :         constexpr auto _Pocma_val = _Choose_pocma_v<_Alty>;
; 3106 :         if constexpr (_Pocma_val == _Pocma_values::_Propagate_allocators) {
; 3107 :             if (_Al != _Right_al) {
; 3108 :                 // intentionally slams into noexcept on OOM, TRANSITION, VSO-466800
; 3109 :                 _Mypair._Myval2._Orphan_all();
; 3110 :                 _Mypair._Myval2._Reload_proxy(_GET_PROXY_ALLOCATOR(_Alty, _Al), _GET_PROXY_ALLOCATOR(_Alty, _Right_al));
; 3111 :             }
; 3112 :         } else if constexpr (_Pocma_val == _Pocma_values::_No_propagate_allocators) {
; 3113 :             if (_Al != _Right_al) {
; 3114 :                 assign(_Right._Mypair._Myval2._Myptr(), _Right._Mypair._Myval2._Mysize);
; 3115 :                 return *this;
; 3116 :             }
; 3117 :         }
; 3118 : 
; 3119 :         _Tidy_deallocate();

  0005e	8b cb		 mov	 ecx, ebx
  00060	e8 00 00 00 00	 call	 ?_Tidy_deallocate@?$basic_string@DU?$char_traits@D@std@@V?$allocator@D@2@@std@@AAEXXZ ; std::basic_string<char,std::char_traits<char>,std::allocator<char> >::_Tidy_deallocate

; 3137 :         _CSTD memcpy(_My_data_mem, _Right_data_mem, _Memcpy_val_size);

  00065	0f 10 07	 movups	 xmm0, XMMWORD PTR [edi]
  00068	0f 11 03	 movups	 XMMWORD PTR [ebx], xmm0
  0006b	f3 0f 7e 47 10	 movq	 xmm0, QWORD PTR [edi+16]
  00070	66 0f d6 43 10	 movq	 QWORD PTR [ebx+16], xmm0

; 4995 :         _My_data._Mysize = 0;

  00075	c7 46 14 00 00
	00 00		 mov	 DWORD PTR [esi+20], 0

; 4996 :         _My_data._Myres  = _BUF_SIZE - 1;

  0007c	c7 46 18 0f 00
	00 00		 mov	 DWORD PTR [esi+24], 15	; 0000000fH

; 4997 :         _My_data._Activate_SSO_buffer();
; 4998 : 
; 4999 :         // the _Traits::assign is last so the codegen doesn't think the char write can alias this
; 5000 :         _Traits::assign(_My_data._Bx._Buf[0], _Elem());

  00083	c6 07 00	 mov	 BYTE PTR [edi], 0
$LN45@Move_unche:

; 3099 :         if (this == _STD addressof(_Right)) {

  00086	8d 7e 1c	 lea	 edi, DWORD PTR [esi+28]
  00089	8d 43 18	 lea	 eax, DWORD PTR [ebx+24]
  0008c	3b c7		 cmp	 eax, edi
  0008e	74 29		 je	 SHORT $LN67@Move_unche

; 3100 :             return *this;
; 3101 :         }
; 3102 : 
; 3103 :         auto& _Al                 = _Getal();
; 3104 :         auto& _Right_al           = _Right._Getal();
; 3105 :         constexpr auto _Pocma_val = _Choose_pocma_v<_Alty>;
; 3106 :         if constexpr (_Pocma_val == _Pocma_values::_Propagate_allocators) {
; 3107 :             if (_Al != _Right_al) {
; 3108 :                 // intentionally slams into noexcept on OOM, TRANSITION, VSO-466800
; 3109 :                 _Mypair._Myval2._Orphan_all();
; 3110 :                 _Mypair._Myval2._Reload_proxy(_GET_PROXY_ALLOCATOR(_Alty, _Al), _GET_PROXY_ALLOCATOR(_Alty, _Right_al));
; 3111 :             }
; 3112 :         } else if constexpr (_Pocma_val == _Pocma_values::_No_propagate_allocators) {
; 3113 :             if (_Al != _Right_al) {
; 3114 :                 assign(_Right._Mypair._Myval2._Myptr(), _Right._Mypair._Myval2._Mysize);
; 3115 :                 return *this;
; 3116 :             }
; 3117 :         }
; 3118 : 
; 3119 :         _Tidy_deallocate();

  00090	8b c8		 mov	 ecx, eax
  00092	e8 00 00 00 00	 call	 ?_Tidy_deallocate@?$basic_string@DU?$char_traits@D@std@@V?$allocator@D@2@@std@@AAEXXZ ; std::basic_string<char,std::char_traits<char>,std::allocator<char> >::_Tidy_deallocate

; 3137 :         _CSTD memcpy(_My_data_mem, _Right_data_mem, _Memcpy_val_size);

  00097	0f 10 07	 movups	 xmm0, XMMWORD PTR [edi]
  0009a	0f 11 43 18	 movups	 XMMWORD PTR [ebx+24], xmm0
  0009e	f3 0f 7e 47 10	 movq	 xmm0, QWORD PTR [edi+16]
  000a3	66 0f d6 43 28	 movq	 QWORD PTR [ebx+40], xmm0

; 4995 :         _My_data._Mysize = 0;

  000a8	c7 46 2c 00 00
	00 00		 mov	 DWORD PTR [esi+44], 0

; 4996 :         _My_data._Myres  = _BUF_SIZE - 1;

  000af	c7 46 30 0f 00
	00 00		 mov	 DWORD PTR [esi+48], 15	; 0000000fH

; 4997 :         _My_data._Activate_SSO_buffer();
; 4998 : 
; 4999 :         // the _Traits::assign is last so the codegen doesn't think the char write can alias this
; 5000 :         _Traits::assign(_My_data._Bx._Buf[0], _Elem());

  000b6	c6 07 00	 mov	 BYTE PTR [edi], 0
$LN67@Move_unche:

; 3099 :         if (this == _STD addressof(_Right)) {

  000b9	8d 7e 34	 lea	 edi, DWORD PTR [esi+52]
  000bc	8d 43 30	 lea	 eax, DWORD PTR [ebx+48]
  000bf	3b c7		 cmp	 eax, edi
  000c1	74 29		 je	 SHORT $LN89@Move_unche

; 3100 :             return *this;
; 3101 :         }
; 3102 : 
; 3103 :         auto& _Al                 = _Getal();
; 3104 :         auto& _Right_al           = _Right._Getal();
; 3105 :         constexpr auto _Pocma_val = _Choose_pocma_v<_Alty>;
; 3106 :         if constexpr (_Pocma_val == _Pocma_values::_Propagate_allocators) {
; 3107 :             if (_Al != _Right_al) {
; 3108 :                 // intentionally slams into noexcept on OOM, TRANSITION, VSO-466800
; 3109 :                 _Mypair._Myval2._Orphan_all();
; 3110 :                 _Mypair._Myval2._Reload_proxy(_GET_PROXY_ALLOCATOR(_Alty, _Al), _GET_PROXY_ALLOCATOR(_Alty, _Right_al));
; 3111 :             }
; 3112 :         } else if constexpr (_Pocma_val == _Pocma_values::_No_propagate_allocators) {
; 3113 :             if (_Al != _Right_al) {
; 3114 :                 assign(_Right._Mypair._Myval2._Myptr(), _Right._Mypair._Myval2._Mysize);
; 3115 :                 return *this;
; 3116 :             }
; 3117 :         }
; 3118 : 
; 3119 :         _Tidy_deallocate();

  000c3	8b c8		 mov	 ecx, eax
  000c5	e8 00 00 00 00	 call	 ?_Tidy_deallocate@?$basic_string@DU?$char_traits@D@std@@V?$allocator@D@2@@std@@AAEXXZ ; std::basic_string<char,std::char_traits<char>,std::allocator<char> >::_Tidy_deallocate

; 3137 :         _CSTD memcpy(_My_data_mem, _Right_data_mem, _Memcpy_val_size);

  000ca	0f 10 07	 movups	 xmm0, XMMWORD PTR [edi]
  000cd	0f 11 43 30	 movups	 XMMWORD PTR [ebx+48], xmm0
  000d1	f3 0f 7e 47 10	 movq	 xmm0, QWORD PTR [edi+16]
  000d6	66 0f d6 43 40	 movq	 QWORD PTR [ebx+64], xmm0

; 4995 :         _My_data._Mysize = 0;

  000db	c7 46 44 00 00
	00 00		 mov	 DWORD PTR [esi+68], 0

; 4996 :         _My_data._Myres  = _BUF_SIZE - 1;

  000e2	c7 46 48 0f 00
	00 00		 mov	 DWORD PTR [esi+72], 15	; 0000000fH

; 4997 :         _My_data._Activate_SSO_buffer();
; 4998 : 
; 4999 :         // the _Traits::assign is last so the codegen doesn't think the char write can alias this
; 5000 :         _Traits::assign(_My_data._Bx._Buf[0], _Elem());

  000e9	c6 07 00	 mov	 BYTE PTR [edi], 0
$LN89@Move_unche:
  000ec	8b 46 4c	 mov	 eax, DWORD PTR [esi+76]
; File C:\Program Files\Microsoft Visual Studio\2022\Community\VC\Tools\MSVC\14.34.31933\include\xutility

; 4211 :     for (; _First != _Last; ++_Dest, (void) ++_First) {

  000ef	8b 55 08	 mov	 edx, DWORD PTR __Dest$1$[ebp]
  000f2	89 43 48	 mov	 DWORD PTR [ebx+72], eax
  000f5	83 c2 74	 add	 edx, 116		; 00000074H
  000f8	8b 46 50	 mov	 eax, DWORD PTR [esi+80]
  000fb	89 43 4c	 mov	 DWORD PTR [ebx+76], eax
  000fe	8b 46 54	 mov	 eax, DWORD PTR [esi+84]
  00101	89 43 50	 mov	 DWORD PTR [ebx+80], eax
  00104	8a 46 58	 mov	 al, BYTE PTR [esi+88]
  00107	88 43 54	 mov	 BYTE PTR [ebx+84], al
  0010a	8a 4e 59	 mov	 cl, BYTE PTR [esi+89]
  0010d	83 c6 74	 add	 esi, 116		; 00000074H
  00110	88 4b 55	 mov	 BYTE PTR [ebx+85], cl
  00113	83 c3 74	 add	 ebx, 116		; 00000074H
  00116	89 55 08	 mov	 DWORD PTR __Dest$1$[ebp], edx
  00119	8d 4e e8	 lea	 ecx, DWORD PTR [esi-24]
  0011c	3b 4d fc	 cmp	 ecx, DWORD PTR __Last$1$[ebp]
  0011f	0f 85 fb fe ff
	ff		 jne	 $LL4@Move_unche

; 4212 :         *_Dest = _STD move(*_First);
; 4213 :     }
; 4214 : 
; 4215 :     return _Dest;

  00125	5f		 pop	 edi
  00126	5e		 pop	 esi
  00127	8b c2		 mov	 eax, edx
  00129	5b		 pop	 ebx

; 4216 : }

  0012a	8b e5		 mov	 esp, ebp
  0012c	5d		 pop	 ebp
  0012d	c3		 ret	 0
$LN136@Move_unche:

; 4212 :         *_Dest = _STD move(*_First);
; 4213 :     }
; 4214 : 
; 4215 :     return _Dest;

  0012e	8b 45 08	 mov	 eax, DWORD PTR __Dest$[ebp]

; 4216 : }

  00131	8b e5		 mov	 esp, ebp
  00133	5d		 pop	 ebp
  00134	c3		 ret	 0
??$_Move_unchecked@PAUSQuestInstance@CPythonQuest@@PAU12@@std@@YAPAUSQuestInstance@CPythonQuest@@PAU12@00@Z ENDP ; std::_Move_unchecked<CPythonQuest::SQuestInstance *,CPythonQuest::SQuestInstance *>
_TEXT	ENDS
; Function compile flags: /Ogtp
; File C:\Program Files\Microsoft Visual Studio\2022\Community\VC\Tools\MSVC\14.34.31933\include\xstring
;	COMDAT ??4SQuestInstance@CPythonQuest@@QAEAAU01@$$QAU01@@Z
_TEXT	SEGMENT
___that$ = 8						; size = 4
??4SQuestInstance@CPythonQuest@@QAEAAU01@$$QAU01@@Z PROC ; CPythonQuest::SQuestInstance::operator=, COMDAT
; _this$ = ecx
  00000	55		 push	 ebp
  00001	8b ec		 mov	 ebp, esp

; 3099 :         if (this == _STD addressof(_Right)) {

  00003	53		 push	 ebx
  00004	56		 push	 esi
  00005	57		 push	 edi
  00006	8b 7d 08	 mov	 edi, DWORD PTR ___that$[ebp]
  00009	8b f1		 mov	 esi, ecx
  0000b	8b 07		 mov	 eax, DWORD PTR [edi]
  0000d	8d 5f 04	 lea	 ebx, DWORD PTR [edi+4]
  00010	89 06		 mov	 DWORD PTR [esi], eax
  00012	8d 46 04	 lea	 eax, DWORD PTR [esi+4]
  00015	3b c3		 cmp	 eax, ebx
  00017	74 29		 je	 SHORT $LN18@operator

; 3100 :             return *this;
; 3101 :         }
; 3102 : 
; 3103 :         auto& _Al                 = _Getal();
; 3104 :         auto& _Right_al           = _Right._Getal();
; 3105 :         constexpr auto _Pocma_val = _Choose_pocma_v<_Alty>;
; 3106 :         if constexpr (_Pocma_val == _Pocma_values::_Propagate_allocators) {
; 3107 :             if (_Al != _Right_al) {
; 3108 :                 // intentionally slams into noexcept on OOM, TRANSITION, VSO-466800
; 3109 :                 _Mypair._Myval2._Orphan_all();
; 3110 :                 _Mypair._Myval2._Reload_proxy(_GET_PROXY_ALLOCATOR(_Alty, _Al), _GET_PROXY_ALLOCATOR(_Alty, _Right_al));
; 3111 :             }
; 3112 :         } else if constexpr (_Pocma_val == _Pocma_values::_No_propagate_allocators) {
; 3113 :             if (_Al != _Right_al) {
; 3114 :                 assign(_Right._Mypair._Myval2._Myptr(), _Right._Mypair._Myval2._Mysize);
; 3115 :                 return *this;
; 3116 :             }
; 3117 :         }
; 3118 : 
; 3119 :         _Tidy_deallocate();

  00019	8b c8		 mov	 ecx, eax
  0001b	e8 00 00 00 00	 call	 ?_Tidy_deallocate@?$basic_string@DU?$char_traits@D@std@@V?$allocator@D@2@@std@@AAEXXZ ; std::basic_string<char,std::char_traits<char>,std::allocator<char> >::_Tidy_deallocate

; 3137 :         _CSTD memcpy(_My_data_mem, _Right_data_mem, _Memcpy_val_size);

  00020	0f 10 03	 movups	 xmm0, XMMWORD PTR [ebx]
  00023	0f 11 46 04	 movups	 XMMWORD PTR [esi+4], xmm0
  00027	f3 0f 7e 43 10	 movq	 xmm0, QWORD PTR [ebx+16]
  0002c	66 0f d6 46 14	 movq	 QWORD PTR [esi+20], xmm0

; 4995 :         _My_data._Mysize = 0;

  00031	c7 43 10 00 00
	00 00		 mov	 DWORD PTR [ebx+16], 0

; 4996 :         _My_data._Myres  = _BUF_SIZE - 1;

  00038	c7 43 14 0f 00
	00 00		 mov	 DWORD PTR [ebx+20], 15	; 0000000fH

; 4997 :         _My_data._Activate_SSO_buffer();
; 4998 : 
; 4999 :         // the _Traits::assign is last so the codegen doesn't think the char write can alias this
; 5000 :         _Traits::assign(_My_data._Bx._Buf[0], _Elem());

  0003f	c6 03 00	 mov	 BYTE PTR [ebx], 0
$LN18@operator:
  00042	8d 5f 1c	 lea	 ebx, DWORD PTR [edi+28]
  00045	8d 46 1c	 lea	 eax, DWORD PTR [esi+28]

; 3099 :         if (this == _STD addressof(_Right)) {

  00048	3b c3		 cmp	 eax, ebx
  0004a	74 29		 je	 SHORT $LN40@operator

; 3100 :             return *this;
; 3101 :         }
; 3102 : 
; 3103 :         auto& _Al                 = _Getal();
; 3104 :         auto& _Right_al           = _Right._Getal();
; 3105 :         constexpr auto _Pocma_val = _Choose_pocma_v<_Alty>;
; 3106 :         if constexpr (_Pocma_val == _Pocma_values::_Propagate_allocators) {
; 3107 :             if (_Al != _Right_al) {
; 3108 :                 // intentionally slams into noexcept on OOM, TRANSITION, VSO-466800
; 3109 :                 _Mypair._Myval2._Orphan_all();
; 3110 :                 _Mypair._Myval2._Reload_proxy(_GET_PROXY_ALLOCATOR(_Alty, _Al), _GET_PROXY_ALLOCATOR(_Alty, _Right_al));
; 3111 :             }
; 3112 :         } else if constexpr (_Pocma_val == _Pocma_values::_No_propagate_allocators) {
; 3113 :             if (_Al != _Right_al) {
; 3114 :                 assign(_Right._Mypair._Myval2._Myptr(), _Right._Mypair._Myval2._Mysize);
; 3115 :                 return *this;
; 3116 :             }
; 3117 :         }
; 3118 : 
; 3119 :         _Tidy_deallocate();

  0004c	8b c8		 mov	 ecx, eax
  0004e	e8 00 00 00 00	 call	 ?_Tidy_deallocate@?$basic_string@DU?$char_traits@D@std@@V?$allocator@D@2@@std@@AAEXXZ ; std::basic_string<char,std::char_traits<char>,std::allocator<char> >::_Tidy_deallocate

; 3137 :         _CSTD memcpy(_My_data_mem, _Right_data_mem, _Memcpy_val_size);

  00053	0f 10 03	 movups	 xmm0, XMMWORD PTR [ebx]
  00056	0f 11 46 1c	 movups	 XMMWORD PTR [esi+28], xmm0
  0005a	f3 0f 7e 43 10	 movq	 xmm0, QWORD PTR [ebx+16]
  0005f	66 0f d6 46 2c	 movq	 QWORD PTR [esi+44], xmm0

; 4995 :         _My_data._Mysize = 0;

  00064	c7 43 10 00 00
	00 00		 mov	 DWORD PTR [ebx+16], 0

; 4996 :         _My_data._Myres  = _BUF_SIZE - 1;

  0006b	c7 43 14 0f 00
	00 00		 mov	 DWORD PTR [ebx+20], 15	; 0000000fH

; 4997 :         _My_data._Activate_SSO_buffer();
; 4998 : 
; 4999 :         // the _Traits::assign is last so the codegen doesn't think the char write can alias this
; 5000 :         _Traits::assign(_My_data._Bx._Buf[0], _Elem());

  00072	c6 03 00	 mov	 BYTE PTR [ebx], 0
$LN40@operator:
  00075	8d 5f 34	 lea	 ebx, DWORD PTR [edi+52]
  00078	8d 46 34	 lea	 eax, DWORD PTR [esi+52]

; 3099 :         if (this == _STD addressof(_Right)) {

  0007b	3b c3		 cmp	 eax, ebx
  0007d	74 29		 je	 SHORT $LN62@operator

; 3100 :             return *this;
; 3101 :         }
; 3102 : 
; 3103 :         auto& _Al                 = _Getal();
; 3104 :         auto& _Right_al           = _Right._Getal();
; 3105 :         constexpr auto _Pocma_val = _Choose_pocma_v<_Alty>;
; 3106 :         if constexpr (_Pocma_val == _Pocma_values::_Propagate_allocators) {
; 3107 :             if (_Al != _Right_al) {
; 3108 :                 // intentionally slams into noexcept on OOM, TRANSITION, VSO-466800
; 3109 :                 _Mypair._Myval2._Orphan_all();
; 3110 :                 _Mypair._Myval2._Reload_proxy(_GET_PROXY_ALLOCATOR(_Alty, _Al), _GET_PROXY_ALLOCATOR(_Alty, _Right_al));
; 3111 :             }
; 3112 :         } else if constexpr (_Pocma_val == _Pocma_values::_No_propagate_allocators) {
; 3113 :             if (_Al != _Right_al) {
; 3114 :                 assign(_Right._Mypair._Myval2._Myptr(), _Right._Mypair._Myval2._Mysize);
; 3115 :                 return *this;
; 3116 :             }
; 3117 :         }
; 3118 : 
; 3119 :         _Tidy_deallocate();

  0007f	8b c8		 mov	 ecx, eax
  00081	e8 00 00 00 00	 call	 ?_Tidy_deallocate@?$basic_string@DU?$char_traits@D@std@@V?$allocator@D@2@@std@@AAEXXZ ; std::basic_string<char,std::char_traits<char>,std::allocator<char> >::_Tidy_deallocate

; 3137 :         _CSTD memcpy(_My_data_mem, _Right_data_mem, _Memcpy_val_size);

  00086	0f 10 03	 movups	 xmm0, XMMWORD PTR [ebx]
  00089	0f 11 46 34	 movups	 XMMWORD PTR [esi+52], xmm0
  0008d	f3 0f 7e 43 10	 movq	 xmm0, QWORD PTR [ebx+16]
  00092	66 0f d6 46 44	 movq	 QWORD PTR [esi+68], xmm0

; 4995 :         _My_data._Mysize = 0;

  00097	c7 43 10 00 00
	00 00		 mov	 DWORD PTR [ebx+16], 0

; 4996 :         _My_data._Myres  = _BUF_SIZE - 1;

  0009e	c7 43 14 0f 00
	00 00		 mov	 DWORD PTR [ebx+20], 15	; 0000000fH

; 4997 :         _My_data._Activate_SSO_buffer();
; 4998 : 
; 4999 :         // the _Traits::assign is last so the codegen doesn't think the char write can alias this
; 5000 :         _Traits::assign(_My_data._Bx._Buf[0], _Elem());

  000a5	c6 03 00	 mov	 BYTE PTR [ebx], 0
$LN62@operator:
  000a8	8d 5f 4c	 lea	 ebx, DWORD PTR [edi+76]
  000ab	8d 46 4c	 lea	 eax, DWORD PTR [esi+76]

; 3099 :         if (this == _STD addressof(_Right)) {

  000ae	3b c3		 cmp	 eax, ebx
  000b0	74 29		 je	 SHORT $LN84@operator

; 3100 :             return *this;
; 3101 :         }
; 3102 : 
; 3103 :         auto& _Al                 = _Getal();
; 3104 :         auto& _Right_al           = _Right._Getal();
; 3105 :         constexpr auto _Pocma_val = _Choose_pocma_v<_Alty>;
; 3106 :         if constexpr (_Pocma_val == _Pocma_values::_Propagate_allocators) {
; 3107 :             if (_Al != _Right_al) {
; 3108 :                 // intentionally slams into noexcept on OOM, TRANSITION, VSO-466800
; 3109 :                 _Mypair._Myval2._Orphan_all();
; 3110 :                 _Mypair._Myval2._Reload_proxy(_GET_PROXY_ALLOCATOR(_Alty, _Al), _GET_PROXY_ALLOCATOR(_Alty, _Right_al));
; 3111 :             }
; 3112 :         } else if constexpr (_Pocma_val == _Pocma_values::_No_propagate_allocators) {
; 3113 :             if (_Al != _Right_al) {
; 3114 :                 assign(_Right._Mypair._Myval2._Myptr(), _Right._Mypair._Myval2._Mysize);
; 3115 :                 return *this;
; 3116 :             }
; 3117 :         }
; 3118 : 
; 3119 :         _Tidy_deallocate();

  000b2	8b c8		 mov	 ecx, eax
  000b4	e8 00 00 00 00	 call	 ?_Tidy_deallocate@?$basic_string@DU?$char_traits@D@std@@V?$allocator@D@2@@std@@AAEXXZ ; std::basic_string<char,std::char_traits<char>,std::allocator<char> >::_Tidy_deallocate

; 3137 :         _CSTD memcpy(_My_data_mem, _Right_data_mem, _Memcpy_val_size);

  000b9	0f 10 03	 movups	 xmm0, XMMWORD PTR [ebx]
  000bc	0f 11 46 4c	 movups	 XMMWORD PTR [esi+76], xmm0
  000c0	f3 0f 7e 43 10	 movq	 xmm0, QWORD PTR [ebx+16]
  000c5	66 0f d6 46 5c	 movq	 QWORD PTR [esi+92], xmm0

; 4995 :         _My_data._Mysize = 0;

  000ca	c7 43 10 00 00
	00 00		 mov	 DWORD PTR [ebx+16], 0

; 4996 :         _My_data._Myres  = _BUF_SIZE - 1;

  000d1	c7 43 14 0f 00
	00 00		 mov	 DWORD PTR [ebx+20], 15	; 0000000fH

; 4997 :         _My_data._Activate_SSO_buffer();
; 4998 : 
; 4999 :         // the _Traits::assign is last so the codegen doesn't think the char write can alias this
; 5000 :         _Traits::assign(_My_data._Bx._Buf[0], _Elem());

  000d8	c6 03 00	 mov	 BYTE PTR [ebx], 0
$LN84@operator:
  000db	8b 47 64	 mov	 eax, DWORD PTR [edi+100]
  000de	89 46 64	 mov	 DWORD PTR [esi+100], eax
  000e1	8b 47 68	 mov	 eax, DWORD PTR [edi+104]
  000e4	89 46 68	 mov	 DWORD PTR [esi+104], eax
  000e7	8b 47 6c	 mov	 eax, DWORD PTR [edi+108]
  000ea	89 46 6c	 mov	 DWORD PTR [esi+108], eax
  000ed	0f b6 47 70	 movzx	 eax, BYTE PTR [edi+112]
  000f1	88 46 70	 mov	 BYTE PTR [esi+112], al
  000f4	0f b6 47 71	 movzx	 eax, BYTE PTR [edi+113]
  000f8	88 46 71	 mov	 BYTE PTR [esi+113], al
  000fb	8b c6		 mov	 eax, esi
  000fd	5f		 pop	 edi
  000fe	5e		 pop	 esi
  000ff	5b		 pop	 ebx
  00100	5d		 pop	 ebp
  00101	c2 04 00	 ret	 4
??4SQuestInstance@CPythonQuest@@QAEAAU01@$$QAU01@@Z ENDP ; CPythonQuest::SQuestInstance::operator=
_TEXT	ENDS
; Function compile flags: /Ogtp
; File C:\Program Files\Microsoft Visual Studio\2022\Community\VC\Tools\MSVC\14.34.31933\include\xstddef
;	COMDAT ??$_Unfancy@USQuestInstance@CPythonQuest@@@std@@YAPAUSQuestInstance@CPythonQuest@@PAU12@@Z
_TEXT	SEGMENT
??$_Unfancy@USQuestInstance@CPythonQuest@@@std@@YAPAUSQuestInstance@CPythonQuest@@PAU12@@Z PROC ; std::_Unfancy<CPythonQuest::SQuestInstance>, COMDAT
; __Ptr$ = ecx

; 294  :     return _Ptr;

  00000	8b c1		 mov	 eax, ecx

; 295  : }

  00002	c3		 ret	 0
??$_Unfancy@USQuestInstance@CPythonQuest@@@std@@YAPAUSQuestInstance@CPythonQuest@@PAU12@@Z ENDP ; std::_Unfancy<CPythonQuest::SQuestInstance>
_TEXT	ENDS
; Function compile flags: /Ogtp
; File C:\Program Files\Microsoft Visual Studio\2022\Community\VC\Tools\MSVC\14.34.31933\include\xmemory
;	COMDAT ??$destroy@USQuestInstance@CPythonQuest@@@?$_Default_allocator_traits@V?$allocator@USQuestInstance@CPythonQuest@@@std@@@std@@SAXAAV?$allocator@USQuestInstance@CPythonQuest@@@1@QAUSQuestInstance@CPythonQuest@@@Z
_TEXT	SEGMENT
??$destroy@USQuestInstance@CPythonQuest@@@?$_Default_allocator_traits@V?$allocator@USQuestInstance@CPythonQuest@@@std@@@std@@SAXAAV?$allocator@USQuestInstance@CPythonQuest@@@1@QAUSQuestInstance@CPythonQuest@@@Z PROC ; std::_Default_allocator_traits<std::allocator<CPythonQuest::SQuestInstance> >::destroy<CPythonQuest::SQuestInstance>, COMDAT
; ___formal$dead$ = ecx
; __Ptr$ = edx

; 685  :     static _CONSTEXPR20 void destroy(_Alloc&, _Uty* const _Ptr) {

  00000	8b ca		 mov	 ecx, edx
  00002	e9 00 00 00 00	 jmp	 ??1SQuestInstance@CPythonQuest@@QAE@XZ
??$destroy@USQuestInstance@CPythonQuest@@@?$_Default_allocator_traits@V?$allocator@USQuestInstance@CPythonQuest@@@std@@@std@@SAXAAV?$allocator@USQuestInstance@CPythonQuest@@@1@QAUSQuestInstance@CPythonQuest@@@Z ENDP ; std::_Default_allocator_traits<std::allocator<CPythonQuest::SQuestInstance> >::destroy<CPythonQuest::SQuestInstance>
_TEXT	ENDS
; Function compile flags: /Ogtp
; File C:\Program Files\Microsoft Visual Studio\2022\Community\VC\Tools\MSVC\14.34.31933\include\vector
;	COMDAT ??$_Emplace_one_at_back@USQuestInstance@CPythonQuest@@@?$vector@USQuestInstance@CPythonQuest@@V?$allocator@USQuestInstance@CPythonQuest@@@std@@@std@@AAEAAUSQuestInstance@CPythonQuest@@$$QAU23@@Z
_TEXT	SEGMENT
_<_Val_0>$ = 8						; size = 4
??$_Emplace_one_at_back@USQuestInstance@CPythonQuest@@@?$vector@USQuestInstance@CPythonQuest@@V?$allocator@USQuestInstance@CPythonQuest@@@std@@@std@@AAEAAUSQuestInstance@CPythonQuest@@$$QAU23@@Z PROC ; std::vector<CPythonQuest::SQuestInstance,std::allocator<CPythonQuest::SQuestInstance> >::_Emplace_one_at_back<CPythonQuest::SQuestInstance>, COMDAT
; _this$ = ecx

; 839  :     _CONSTEXPR20 _Ty& _Emplace_one_at_back(_Valty&&... _Val) {

  00000	55		 push	 ebp
  00001	8b ec		 mov	 ebp, esp
  00003	56		 push	 esi

; 840  :         // insert by perfectly forwarding into element at end, provide strong guarantee
; 841  :         auto& _My_data   = _Mypair._Myval2;
; 842  :         pointer& _Mylast = _My_data._Mylast;
; 843  : 
; 844  :         if (_Mylast != _My_data._Myend) {

  00004	ff 75 08	 push	 DWORD PTR _<_Val_0>$[ebp]
  00007	8b f1		 mov	 esi, ecx
  00009	8b 4e 04	 mov	 ecx, DWORD PTR [esi+4]
  0000c	3b 4e 08	 cmp	 ecx, DWORD PTR [esi+8]
  0000f	74 13		 je	 SHORT $LN2@Emplace_on

; 868  :         _Ty& _Result = *_Mylast;

  00011	e8 00 00 00 00	 call	 ??0SQuestInstance@CPythonQuest@@QAE@$$QAU01@@Z
  00016	8b 46 04	 mov	 eax, DWORD PTR [esi+4]

; 869  :         ++_Mylast;

  00019	8d 48 74	 lea	 ecx, DWORD PTR [eax+116]
  0001c	89 4e 04	 mov	 DWORD PTR [esi+4], ecx
  0001f	5e		 pop	 esi

; 849  :     }

  00020	5d		 pop	 ebp
  00021	c2 04 00	 ret	 4
$LN2@Emplace_on:

; 845  :             return _Emplace_back_with_unused_capacity(_STD forward<_Valty>(_Val)...);
; 846  :         }
; 847  : 
; 848  :         return *_Emplace_reallocate(_Mylast, _STD forward<_Valty>(_Val)...);

  00024	51		 push	 ecx
  00025	8b ce		 mov	 ecx, esi
  00027	e8 00 00 00 00	 call	 ??$_Emplace_reallocate@USQuestInstance@CPythonQuest@@@?$vector@USQuestInstance@CPythonQuest@@V?$allocator@USQuestInstance@CPythonQuest@@@std@@@std@@AAEPAUSQuestInstance@CPythonQuest@@QAU23@$$QAU23@@Z ; std::vector<CPythonQuest::SQuestInstance,std::allocator<CPythonQuest::SQuestInstance> >::_Emplace_reallocate<CPythonQuest::SQuestInstance>
  0002c	5e		 pop	 esi

; 849  :     }

  0002d	5d		 pop	 ebp
  0002e	c2 04 00	 ret	 4
??$_Emplace_one_at_back@USQuestInstance@CPythonQuest@@@?$vector@USQuestInstance@CPythonQuest@@V?$allocator@USQuestInstance@CPythonQuest@@@std@@@std@@AAEAAUSQuestInstance@CPythonQuest@@$$QAU23@@Z ENDP ; std::vector<CPythonQuest::SQuestInstance,std::allocator<CPythonQuest::SQuestInstance> >::_Emplace_one_at_back<CPythonQuest::SQuestInstance>
_TEXT	ENDS
; Function compile flags: /Ogtp
; File C:\Program Files\Microsoft Visual Studio\2022\Community\VC\Tools\MSVC\14.34.31933\include\vector
;	COMDAT ??$_Emplace_one_at_back@ABUSQuestInstance@CPythonQuest@@@?$vector@USQuestInstance@CPythonQuest@@V?$allocator@USQuestInstance@CPythonQuest@@@std@@@std@@AAEAAUSQuestInstance@CPythonQuest@@ABU23@@Z
_TEXT	SEGMENT
_<_Val_0>$ = 8						; size = 4
??$_Emplace_one_at_back@ABUSQuestInstance@CPythonQuest@@@?$vector@USQuestInstance@CPythonQuest@@V?$allocator@USQuestInstance@CPythonQuest@@@std@@@std@@AAEAAUSQuestInstance@CPythonQuest@@ABU23@@Z PROC ; std::vector<CPythonQuest::SQuestInstance,std::allocator<CPythonQuest::SQuestInstance> >::_Emplace_one_at_back<CPythonQuest::SQuestInstance const &>, COMDAT
; _this$ = ecx

; 839  :     _CONSTEXPR20 _Ty& _Emplace_one_at_back(_Valty&&... _Val) {

  00000	55		 push	 ebp
  00001	8b ec		 mov	 ebp, esp
  00003	56		 push	 esi

; 840  :         // insert by perfectly forwarding into element at end, provide strong guarantee
; 841  :         auto& _My_data   = _Mypair._Myval2;
; 842  :         pointer& _Mylast = _My_data._Mylast;
; 843  : 
; 844  :         if (_Mylast != _My_data._Myend) {

  00004	ff 75 08	 push	 DWORD PTR _<_Val_0>$[ebp]
  00007	8b f1		 mov	 esi, ecx
  00009	8b 46 04	 mov	 eax, DWORD PTR [esi+4]
  0000c	3b 46 08	 cmp	 eax, DWORD PTR [esi+8]
  0000f	74 15		 je	 SHORT $LN2@Emplace_on

; 868  :         _Ty& _Result = *_Mylast;

  00011	8b c8		 mov	 ecx, eax
  00013	e8 00 00 00 00	 call	 ??0SQuestInstance@CPythonQuest@@QAE@ABU01@@Z
  00018	8b 46 04	 mov	 eax, DWORD PTR [esi+4]

; 869  :         ++_Mylast;

  0001b	8d 48 74	 lea	 ecx, DWORD PTR [eax+116]
  0001e	89 4e 04	 mov	 DWORD PTR [esi+4], ecx
  00021	5e		 pop	 esi

; 849  :     }

  00022	5d		 pop	 ebp
  00023	c2 04 00	 ret	 4
$LN2@Emplace_on:

; 845  :             return _Emplace_back_with_unused_capacity(_STD forward<_Valty>(_Val)...);
; 846  :         }
; 847  : 
; 848  :         return *_Emplace_reallocate(_Mylast, _STD forward<_Valty>(_Val)...);

  00026	50		 push	 eax
  00027	e8 00 00 00 00	 call	 ??$_Emplace_reallocate@ABUSQuestInstance@CPythonQuest@@@?$vector@USQuestInstance@CPythonQuest@@V?$allocator@USQuestInstance@CPythonQuest@@@std@@@std@@AAEPAUSQuestInstance@CPythonQuest@@QAU23@ABU23@@Z ; std::vector<CPythonQuest::SQuestInstance,std::allocator<CPythonQuest::SQuestInstance> >::_Emplace_reallocate<CPythonQuest::SQuestInstance const &>
  0002c	5e		 pop	 esi

; 849  :     }

  0002d	5d		 pop	 ebp
  0002e	c2 04 00	 ret	 4
??$_Emplace_one_at_back@ABUSQuestInstance@CPythonQuest@@@?$vector@USQuestInstance@CPythonQuest@@V?$allocator@USQuestInstance@CPythonQuest@@@std@@@std@@AAEAAUSQuestInstance@CPythonQuest@@ABU23@@Z ENDP ; std::vector<CPythonQuest::SQuestInstance,std::allocator<CPythonQuest::SQuestInstance> >::_Emplace_one_at_back<CPythonQuest::SQuestInstance const &>
_TEXT	ENDS
; Function compile flags: /Ogtp
; File C:\Program Files\Microsoft Visual Studio\2022\Community\VC\Tools\MSVC\14.34.31933\include\xmemory
; File C:\Program Files\Microsoft Visual Studio\2022\Community\VC\Tools\MSVC\14.34.31933\include\vector
; File C:\Program Files\Microsoft Visual Studio\2022\Community\VC\Tools\MSVC\14.34.31933\include\xmemory
; File C:\Program Files\Microsoft Visual Studio\2022\Community\VC\Tools\MSVC\14.34.31933\include\vector
; File C:\Program Files\Microsoft Visual Studio\2022\Community\VC\Tools\MSVC\14.34.31933\include\xmemory
;	COMDAT ??$?0$$V@?$_Compressed_pair@V?$allocator@USQuestInstance@CPythonQuest@@@std@@V?$_Vector_val@U?$_Simple_types@USQuestInstance@CPythonQuest@@@std@@@2@$00@std@@QAE@U_Zero_then_variadic_args_t@1@@Z
_TEXT	SEGMENT
___formal$ = 8						; size = 1
??$?0$$V@?$_Compressed_pair@V?$allocator@USQuestInstance@CPythonQuest@@@std@@V?$_Vector_val@U?$_Simple_types@USQuestInstance@CPythonQuest@@@std@@@2@$00@std@@QAE@U_Zero_then_variadic_args_t@1@@Z PROC ; std::_Compressed_pair<std::allocator<CPythonQuest::SQuestInstance>,std::_Vector_val<std::_Simple_types<CPythonQuest::SQuestInstance> >,1>::_Compressed_pair<std::allocator<CPythonQuest::SQuestInstance>,std::_Vector_val<std::_Simple_types<CPythonQuest::SQuestInstance> >,1><>, COMDAT
; _this$ = ecx
; File C:\Program Files\Microsoft Visual Studio\2022\Community\VC\Tools\MSVC\14.34.31933\include\vector

; 390  :     _CONSTEXPR20 _Vector_val() noexcept : _Myfirst(), _Mylast(), _Myend() {}

  00000	c7 01 00 00 00
	00		 mov	 DWORD PTR [ecx], 0
; File C:\Program Files\Microsoft Visual Studio\2022\Community\VC\Tools\MSVC\14.34.31933\include\xmemory

; 1376 :         : _Ty1(), _Myval2(_STD forward<_Other2>(_Val2)...) {}

  00006	8b c1		 mov	 eax, ecx
; File C:\Program Files\Microsoft Visual Studio\2022\Community\VC\Tools\MSVC\14.34.31933\include\vector

; 390  :     _CONSTEXPR20 _Vector_val() noexcept : _Myfirst(), _Mylast(), _Myend() {}

  00008	c7 41 04 00 00
	00 00		 mov	 DWORD PTR [ecx+4], 0
  0000f	c7 41 08 00 00
	00 00		 mov	 DWORD PTR [ecx+8], 0
; File C:\Program Files\Microsoft Visual Studio\2022\Community\VC\Tools\MSVC\14.34.31933\include\xmemory

; 1376 :         : _Ty1(), _Myval2(_STD forward<_Other2>(_Val2)...) {}

  00016	c2 04 00	 ret	 4
??$?0$$V@?$_Compressed_pair@V?$allocator@USQuestInstance@CPythonQuest@@@std@@V?$_Vector_val@U?$_Simple_types@USQuestInstance@CPythonQuest@@@std@@@2@$00@std@@QAE@U_Zero_then_variadic_args_t@1@@Z ENDP ; std::_Compressed_pair<std::allocator<CPythonQuest::SQuestInstance>,std::_Vector_val<std::_Simple_types<CPythonQuest::SQuestInstance> >,1>::_Compressed_pair<std::allocator<CPythonQuest::SQuestInstance>,std::_Vector_val<std::_Simple_types<CPythonQuest::SQuestInstance> >,1><>
_TEXT	ENDS
; Function compile flags: /Ogtp
; File C:\Program Files\Microsoft Visual Studio\2022\Community\VC\Tools\MSVC\14.34.31933\include\type_traits
;	COMDAT ??$move@AAV?$_Vector_iterator@V?$_Vector_val@U?$_Simple_types@USQuestInstance@CPythonQuest@@@std@@@std@@@std@@@std@@YA$$QAV?$_Vector_iterator@V?$_Vector_val@U?$_Simple_types@USQuestInstance@CPythonQuest@@@std@@@std@@@0@AAV10@@Z
_TEXT	SEGMENT
??$move@AAV?$_Vector_iterator@V?$_Vector_val@U?$_Simple_types@USQuestInstance@CPythonQuest@@@std@@@std@@@std@@@std@@YA$$QAV?$_Vector_iterator@V?$_Vector_val@U?$_Simple_types@USQuestInstance@CPythonQuest@@@std@@@std@@@0@AAV10@@Z PROC ; std::move<std::_Vector_iterator<std::_Vector_val<std::_Simple_types<CPythonQuest::SQuestInstance> > > &>, COMDAT
; __Arg$ = ecx

; 1437 :     return static_cast<remove_reference_t<_Ty>&&>(_Arg);

  00000	8b c1		 mov	 eax, ecx

; 1438 : }

  00002	c3		 ret	 0
??$move@AAV?$_Vector_iterator@V?$_Vector_val@U?$_Simple_types@USQuestInstance@CPythonQuest@@@std@@@std@@@std@@@std@@YA$$QAV?$_Vector_iterator@V?$_Vector_val@U?$_Simple_types@USQuestInstance@CPythonQuest@@@std@@@std@@@0@AAV10@@Z ENDP ; std::move<std::_Vector_iterator<std::_Vector_val<std::_Simple_types<CPythonQuest::SQuestInstance> > > &>
_TEXT	ENDS
; Function compile flags: /Ogtp
; File C:\Program Files\Microsoft Visual Studio\2022\Community\VC\Tools\MSVC\14.34.31933\include\vector
;	COMDAT ??G?$_Vector_const_iterator@V?$_Vector_val@U?$_Simple_types@USQuestInstance@CPythonQuest@@@std@@@std@@@std@@QBEHABV01@@Z
_TEXT	SEGMENT
__Right$ = 8						; size = 4
??G?$_Vector_const_iterator@V?$_Vector_val@U?$_Simple_types@USQuestInstance@CPythonQuest@@@std@@@std@@@std@@QBEHABV01@@Z PROC ; std::_Vector_const_iterator<std::_Vector_val<std::_Simple_types<CPythonQuest::SQuestInstance> > >::operator-, COMDAT
; _this$ = ecx

; 145  :     _NODISCARD _CONSTEXPR20 difference_type operator-(const _Vector_const_iterator& _Right) const noexcept {

  00000	55		 push	 ebp
  00001	8b ec		 mov	 ebp, esp

; 146  :         _Compat(_Right);
; 147  :         return _Ptr - _Right._Ptr;

  00003	8b 45 08	 mov	 eax, DWORD PTR __Right$[ebp]
  00006	8b 09		 mov	 ecx, DWORD PTR [ecx]
  00008	2b 08		 sub	 ecx, DWORD PTR [eax]
  0000a	c1 f9 02	 sar	 ecx, 2
  0000d	69 c1 35 c2 72
	4f		 imul	 eax, ecx, 1332920885

; 148  :     }

  00013	5d		 pop	 ebp
  00014	c2 04 00	 ret	 4
??G?$_Vector_const_iterator@V?$_Vector_val@U?$_Simple_types@USQuestInstance@CPythonQuest@@@std@@@std@@@std@@QBEHABV01@@Z ENDP ; std::_Vector_const_iterator<std::_Vector_val<std::_Simple_types<CPythonQuest::SQuestInstance> > >::operator-
_TEXT	ENDS
; Function compile flags: /Ogtp
; File C:\Program Files\Microsoft Visual Studio\2022\Community\VC\Tools\MSVC\14.34.31933\include\vector
;	COMDAT ??0?$_Vector_val@U?$_Simple_types@USQuestInstance@CPythonQuest@@@std@@@std@@QAE@XZ
_TEXT	SEGMENT
??0?$_Vector_val@U?$_Simple_types@USQuestInstance@CPythonQuest@@@std@@@std@@QAE@XZ PROC ; std::_Vector_val<std::_Simple_types<CPythonQuest::SQuestInstance> >::_Vector_val<std::_Simple_types<CPythonQuest::SQuestInstance> >, COMDAT
; _this$ = ecx

; 390  :     _CONSTEXPR20 _Vector_val() noexcept : _Myfirst(), _Mylast(), _Myend() {}

  00000	c7 01 00 00 00
	00		 mov	 DWORD PTR [ecx], 0
  00006	8b c1		 mov	 eax, ecx
  00008	c7 41 04 00 00
	00 00		 mov	 DWORD PTR [ecx+4], 0
  0000f	c7 41 08 00 00
	00 00		 mov	 DWORD PTR [ecx+8], 0
  00016	c3		 ret	 0
??0?$_Vector_val@U?$_Simple_types@USQuestInstance@CPythonQuest@@@std@@@std@@QAE@XZ ENDP ; std::_Vector_val<std::_Simple_types<CPythonQuest::SQuestInstance> >::_Vector_val<std::_Simple_types<CPythonQuest::SQuestInstance> >
_TEXT	ENDS
; Function compile flags: /Ogtp
; File C:\Program Files\Microsoft Visual Studio\2022\Community\VC\Tools\MSVC\14.34.31933\include\xmemory
;	COMDAT ??0?$allocator@USQuestInstance@CPythonQuest@@@std@@QAE@XZ
_TEXT	SEGMENT
??0?$allocator@USQuestInstance@CPythonQuest@@@std@@QAE@XZ PROC ; std::allocator<CPythonQuest::SQuestInstance>::allocator<CPythonQuest::SQuestInstance>, COMDAT
; _this$ = ecx

; 819  :     constexpr allocator() noexcept {}

  00000	8b c1		 mov	 eax, ecx
  00002	c3		 ret	 0
??0?$allocator@USQuestInstance@CPythonQuest@@@std@@QAE@XZ ENDP ; std::allocator<CPythonQuest::SQuestInstance>::allocator<CPythonQuest::SQuestInstance>
_TEXT	ENDS
; Function compile flags: /Ogtp
; File C:\Program Files\Microsoft Visual Studio\2022\Community\VC\Tools\MSVC\14.34.31933\include\xutility
;	COMDAT ??$_Adl_verify_range@V?$_Vector_iterator@V?$_Vector_val@U?$_Simple_types@USQuestInstance@CPythonQuest@@@std@@@std@@@std@@V12@@std@@YAXABV?$_Vector_iterator@V?$_Vector_val@U?$_Simple_types@USQuestInstance@CPythonQuest@@@std@@@std@@@0@0@Z
_TEXT	SEGMENT
??$_Adl_verify_range@V?$_Vector_iterator@V?$_Vector_val@U?$_Simple_types@USQuestInstance@CPythonQuest@@@std@@@std@@@std@@V12@@std@@YAXABV?$_Vector_iterator@V?$_Vector_val@U?$_Simple_types@USQuestInstance@CPythonQuest@@@std@@@std@@@0@0@Z PROC ; std::_Adl_verify_range<std::_Vector_iterator<std::_Vector_val<std::_Simple_types<CPythonQuest::SQuestInstance> > >,std::_Vector_iterator<std::_Vector_val<std::_Simple_types<CPythonQuest::SQuestInstance> > > >, COMDAT
; __First$dead$ = ecx
; __Last$dead$ = edx

; 889  :     // check that [_First, _Last) forms an iterator range
; 890  :     if constexpr (_Range_verifiable_v<_Iter, _Sentinel>) {
; 891  :         _Verify_range(_First, _Last);
; 892  :     }
; 893  : }

  00000	c2 00 00	 ret	 0
??$_Adl_verify_range@V?$_Vector_iterator@V?$_Vector_val@U?$_Simple_types@USQuestInstance@CPythonQuest@@@std@@@std@@@std@@V12@@std@@YAXABV?$_Vector_iterator@V?$_Vector_val@U?$_Simple_types@USQuestInstance@CPythonQuest@@@std@@@std@@@0@0@Z ENDP ; std::_Adl_verify_range<std::_Vector_iterator<std::_Vector_val<std::_Simple_types<CPythonQuest::SQuestInstance> > >,std::_Vector_iterator<std::_Vector_val<std::_Simple_types<CPythonQuest::SQuestInstance> > > >
_TEXT	ENDS
; Function compile flags: /Ogtp
; File C:\Program Files\Microsoft Visual Studio\2022\Community\VC\Tools\MSVC\14.34.31933\include\xutility
;	COMDAT ??$_Seek_wrapped@V?$_Vector_iterator@V?$_Vector_val@U?$_Simple_types@USQuestInstance@CPythonQuest@@@std@@@std@@@std@@AAPAUSQuestInstance@CPythonQuest@@@std@@YAXAAV?$_Vector_iterator@V?$_Vector_val@U?$_Simple_types@USQuestInstance@CPythonQuest@@@std@@@std@@@0@AAPAUSQuestInstance@CPythonQuest@@@Z
_TEXT	SEGMENT
??$_Seek_wrapped@V?$_Vector_iterator@V?$_Vector_val@U?$_Simple_types@USQuestInstance@CPythonQuest@@@std@@@std@@@std@@AAPAUSQuestInstance@CPythonQuest@@@std@@YAXAAV?$_Vector_iterator@V?$_Vector_val@U?$_Simple_types@USQuestInstance@CPythonQuest@@@std@@@std@@@0@AAPAUSQuestInstance@CPythonQuest@@@Z PROC ; std::_Seek_wrapped<std::_Vector_iterator<std::_Vector_val<std::_Simple_types<CPythonQuest::SQuestInstance> > >,CPythonQuest::SQuestInstance * &>, COMDAT
; __It$ = ecx
; __UIt$ = edx

; 1012 :     if constexpr (_Wrapped_seekable_v<_Iter, _UIter>) {
; 1013 :         _It._Seek_to(_STD forward<_UIter>(_UIt));

  00000	8b 02		 mov	 eax, DWORD PTR [edx]
  00002	89 01		 mov	 DWORD PTR [ecx], eax

; 1014 :     } else {
; 1015 :         _It = _STD forward<_UIter>(_UIt);
; 1016 :     }
; 1017 : }

  00004	c3		 ret	 0
??$_Seek_wrapped@V?$_Vector_iterator@V?$_Vector_val@U?$_Simple_types@USQuestInstance@CPythonQuest@@@std@@@std@@@std@@AAPAUSQuestInstance@CPythonQuest@@@std@@YAXAAV?$_Vector_iterator@V?$_Vector_val@U?$_Simple_types@USQuestInstance@CPythonQuest@@@std@@@std@@@0@AAPAUSQuestInstance@CPythonQuest@@@Z ENDP ; std::_Seek_wrapped<std::_Vector_iterator<std::_Vector_val<std::_Simple_types<CPythonQuest::SQuestInstance> > >,CPythonQuest::SQuestInstance * &>
_TEXT	ENDS
; Function compile flags: /Ogtp
; File C:\Program Files\Microsoft Visual Studio\2022\Community\VC\Tools\MSVC\14.34.31933\include\xmemory
;	COMDAT ??$destroy_at@USQuestInstance@CPythonQuest@@@std@@YAXQAUSQuestInstance@CPythonQuest@@@Z
_TEXT	SEGMENT
??$destroy_at@USQuestInstance@CPythonQuest@@@std@@YAXQAUSQuestInstance@CPythonQuest@@@Z PROC ; std::destroy_at<CPythonQuest::SQuestInstance>, COMDAT
; __Location$ = ecx

; 304  : _CONSTEXPR20 void destroy_at(_Ty* const _Location) noexcept /* strengthened */ {

  00000	e9 00 00 00 00	 jmp	 ??1SQuestInstance@CPythonQuest@@QAE@XZ
??$destroy_at@USQuestInstance@CPythonQuest@@@std@@YAXQAUSQuestInstance@CPythonQuest@@@Z ENDP ; std::destroy_at<CPythonQuest::SQuestInstance>
_TEXT	ENDS
; Function compile flags: /Ogtp
; File C:\Program Files\Microsoft Visual Studio\2022\Community\VC\Tools\MSVC\14.34.31933\include\type_traits
;	COMDAT ??$forward@USQuestInstance@CPythonQuest@@@std@@YA$$QAUSQuestInstance@CPythonQuest@@AAU12@@Z
_TEXT	SEGMENT
??$forward@USQuestInstance@CPythonQuest@@@std@@YA$$QAUSQuestInstance@CPythonQuest@@AAU12@@Z PROC ; std::forward<CPythonQuest::SQuestInstance>, COMDAT
; __Arg$ = ecx

; 1426 :     return static_cast<_Ty&&>(_Arg);

  00000	8b c1		 mov	 eax, ecx

; 1427 : }

  00002	c3		 ret	 0
??$forward@USQuestInstance@CPythonQuest@@@std@@YA$$QAUSQuestInstance@CPythonQuest@@AAU12@@Z ENDP ; std::forward<CPythonQuest::SQuestInstance>
_TEXT	ENDS
; Function compile flags: /Ogtp
; File C:\Program Files\Microsoft Visual Studio\2022\Community\VC\Tools\MSVC\14.34.31933\include\vector
;	COMDAT ??$_Emplace_back_with_unused_capacity@USQuestInstance@CPythonQuest@@@?$vector@USQuestInstance@CPythonQuest@@V?$allocator@USQuestInstance@CPythonQuest@@@std@@@std@@AAEAAUSQuestInstance@CPythonQuest@@$$QAU23@@Z
_TEXT	SEGMENT
_<_Val_0>$ = 8						; size = 4
??$_Emplace_back_with_unused_capacity@USQuestInstance@CPythonQuest@@@?$vector@USQuestInstance@CPythonQuest@@V?$allocator@USQuestInstance@CPythonQuest@@@std@@@std@@AAEAAUSQuestInstance@CPythonQuest@@$$QAU23@@Z PROC ; std::vector<CPythonQuest::SQuestInstance,std::allocator<CPythonQuest::SQuestInstance> >::_Emplace_back_with_unused_capacity<CPythonQuest::SQuestInstance>, COMDAT
; _this$ = ecx

; 852  :     _CONSTEXPR20 _Ty& _Emplace_back_with_unused_capacity(_Valty&&... _Val) {

  00000	55		 push	 ebp
  00001	8b ec		 mov	 ebp, esp
  00003	56		 push	 esi

; 853  :         // insert by perfectly forwarding into element at end, provide strong guarantee
; 854  :         auto& _My_data   = _Mypair._Myval2;
; 855  :         pointer& _Mylast = _My_data._Mylast;
; 856  :         _STL_INTERNAL_CHECK(_Mylast != _My_data._Myend); // check that we have unused capacity
; 857  :         if constexpr (conjunction_v<is_nothrow_constructible<_Ty, _Valty...>,
; 858  :                           _Uses_default_construct<_Alloc, _Ty*, _Valty...>>) {
; 859  :             _ASAN_VECTOR_MODIFY(1);
; 860  :             _Construct_in_place(*_Mylast, _STD forward<_Valty>(_Val)...);
; 861  :         } else {
; 862  :             _ASAN_VECTOR_EXTEND_GUARD(static_cast<size_type>(_Mylast - _My_data._Myfirst) + 1);
; 863  :             _Alty_traits::construct(_Getal(), _Unfancy(_Mylast), _STD forward<_Valty>(_Val)...);
; 864  :             _ASAN_VECTOR_RELEASE_GUARD;
; 865  :         }
; 866  : 
; 867  :         _Orphan_range(_Mylast, _Mylast);
; 868  :         _Ty& _Result = *_Mylast;

  00004	ff 75 08	 push	 DWORD PTR _<_Val_0>$[ebp]
  00007	8b f1		 mov	 esi, ecx
  00009	8b 4e 04	 mov	 ecx, DWORD PTR [esi+4]
  0000c	e8 00 00 00 00	 call	 ??0SQuestInstance@CPythonQuest@@QAE@$$QAU01@@Z
  00011	8b 46 04	 mov	 eax, DWORD PTR [esi+4]

; 869  :         ++_Mylast;

  00014	8d 50 74	 lea	 edx, DWORD PTR [eax+116]
  00017	89 56 04	 mov	 DWORD PTR [esi+4], edx

; 870  : 
; 871  :         return _Result;

  0001a	5e		 pop	 esi

; 872  :     }

  0001b	5d		 pop	 ebp
  0001c	c2 04 00	 ret	 4
??$_Emplace_back_with_unused_capacity@USQuestInstance@CPythonQuest@@@?$vector@USQuestInstance@CPythonQuest@@V?$allocator@USQuestInstance@CPythonQuest@@@std@@@std@@AAEAAUSQuestInstance@CPythonQuest@@$$QAU23@@Z ENDP ; std::vector<CPythonQuest::SQuestInstance,std::allocator<CPythonQuest::SQuestInstance> >::_Emplace_back_with_unused_capacity<CPythonQuest::SQuestInstance>
_TEXT	ENDS
; Function compile flags: /Ogtp
; File C:\Program Files\Microsoft Visual Studio\2022\Community\VC\Tools\MSVC\14.34.31933\include\vector
; File C:\Program Files\Microsoft Visual Studio\2022\Community\VC\Tools\MSVC\14.34.31933\include\xmemory
; File C:\Program Files\Microsoft Visual Studio\2022\Community\VC\Tools\MSVC\14.34.31933\include\vector
; File C:\Program Files\Microsoft Visual Studio\2022\Community\VC\Tools\MSVC\14.34.31933\include\xmemory
; File C:\Program Files\Microsoft Visual Studio\2022\Community\VC\Tools\MSVC\14.34.31933\include\vector
; File C:\Program Files\Microsoft Visual Studio\2022\Community\VC\Tools\MSVC\14.34.31933\include\xmemory
; File C:\Program Files\Microsoft Visual Studio\2022\Community\VC\Tools\MSVC\14.34.31933\include\vector
; File C:\Program Files\Microsoft Visual Studio\2022\Community\VC\Tools\MSVC\14.34.31933\include\xmemory
; File C:\Program Files\Microsoft Visual Studio\2022\Community\VC\Tools\MSVC\14.34.31933\include\vector
; File C:\Program Files\Microsoft Visual Studio\2022\Community\VC\Tools\MSVC\14.34.31933\include\xmemory
; File C:\Program Files\Microsoft Visual Studio\2022\Community\VC\Tools\MSVC\14.34.31933\include\vector
; File C:\Program Files\Microsoft Visual Studio\2022\Community\VC\Tools\MSVC\14.34.31933\include\xmemory
; File C:\Program Files\Microsoft Visual Studio\2022\Community\VC\Tools\MSVC\14.34.31933\include\vector
;	COMDAT ??$_Emplace_reallocate@USQuestInstance@CPythonQuest@@@?$vector@USQuestInstance@CPythonQuest@@V?$allocator@USQuestInstance@CPythonQuest@@@std@@@std@@AAEPAUSQuestInstance@CPythonQuest@@QAU23@$$QAU23@@Z
_TEXT	SEGMENT
tv702 = -16						; size = 4
__Newsize$1$ = -12					; size = 4
_this$1$ = -8						; size = 4
__Newcapacity$2$ = -4					; size = 4
$T4 = 8							; size = 4
__Whereptr$ = 8						; size = 4
_<_Val_0>$ = 12						; size = 4
??$_Emplace_reallocate@USQuestInstance@CPythonQuest@@@?$vector@USQuestInstance@CPythonQuest@@V?$allocator@USQuestInstance@CPythonQuest@@@std@@@std@@AAEPAUSQuestInstance@CPythonQuest@@QAU23@$$QAU23@@Z PROC ; std::vector<CPythonQuest::SQuestInstance,std::allocator<CPythonQuest::SQuestInstance> >::_Emplace_reallocate<CPythonQuest::SQuestInstance>, COMDAT
; _this$ = ecx

; 875  :     _CONSTEXPR20 pointer _Emplace_reallocate(const pointer _Whereptr, _Valty&&... _Val) {

  00000	55		 push	 ebp
  00001	8b ec		 mov	 ebp, esp
  00003	83 ec 10	 sub	 esp, 16			; 00000010H
  00006	53		 push	 ebx

; 876  :         // reallocate and insert by perfectly forwarding _Val at _Whereptr
; 877  :         _Alty& _Al        = _Getal();
; 878  :         auto& _My_data    = _Mypair._Myval2;
; 879  :         pointer& _Myfirst = _My_data._Myfirst;
; 880  :         pointer& _Mylast  = _My_data._Mylast;
; 881  : 
; 882  :         _STL_INTERNAL_CHECK(_Mylast == _My_data._Myend); // check that we have no unused capacity
; 883  : 
; 884  :         const auto _Whereoff = static_cast<size_type>(_Whereptr - _Myfirst);

  00007	8b 19		 mov	 ebx, DWORD PTR [ecx]
  00009	b8 09 cb 3d 8d	 mov	 eax, -1925330167	; 8d3dcb09H
  0000e	56		 push	 esi
  0000f	57		 push	 edi
  00010	8b 7d 08	 mov	 edi, DWORD PTR __Whereptr$[ebp]
  00013	8b f7		 mov	 esi, edi
  00015	2b f3		 sub	 esi, ebx
  00017	89 4d f8	 mov	 DWORD PTR _this$1$[ebp], ecx
  0001a	f7 ee		 imul	 esi

; 885  :         const auto _Oldsize  = static_cast<size_type>(_Mylast - _Myfirst);

  0001c	8b 41 04	 mov	 eax, DWORD PTR [ecx+4]
  0001f	03 d6		 add	 edx, esi
  00021	2b c3		 sub	 eax, ebx
  00023	c1 fa 06	 sar	 edx, 6
  00026	c1 f8 02	 sar	 eax, 2
  00029	8b f2		 mov	 esi, edx
  0002b	69 c0 35 c2 72
	4f		 imul	 eax, eax, 1332920885
  00031	c1 ee 1f	 shr	 esi, 31			; 0000001fH
  00034	03 f2		 add	 esi, edx

; 886  : 
; 887  :         if (_Oldsize == max_size()) {

  00036	3d 2c f7 34 02	 cmp	 eax, 37025580		; 0234f72cH
  0003b	0f 84 1d 01 00
	00		 je	 $LN160@Emplace_re

; 889  :         }
; 890  : 
; 891  :         const size_type _Newsize     = _Oldsize + 1;

  00041	40		 inc	 eax
  00042	89 45 f4	 mov	 DWORD PTR __Newsize$1$[ebp], eax

; 1942 :         return static_cast<size_type>(_My_data._Myend - _My_data._Myfirst);

  00045	8b 41 08	 mov	 eax, DWORD PTR [ecx+8]
  00048	2b c3		 sub	 eax, ebx
  0004a	c1 f8 02	 sar	 eax, 2
  0004d	69 d0 35 c2 72
	4f		 imul	 edx, eax, 1332920885

; 2029 :         if (_Oldcapacity > _Max - _Oldcapacity / 2) {

  00053	b8 2c f7 34 02	 mov	 eax, 37025580		; 0234f72cH
  00058	8b ca		 mov	 ecx, edx
  0005a	d1 e9		 shr	 ecx, 1
  0005c	2b c1		 sub	 eax, ecx
  0005e	3b d0		 cmp	 edx, eax
  00060	76 1a		 jbe	 SHORT $LN12@Emplace_re

; 2030 :             return _Max; // geometric growth would overflow

  00062	b8 f0 ff ff ff	 mov	 eax, -16		; fffffff0H
  00067	bb 2c f7 34 02	 mov	 ebx, 37025580		; 0234f72cH
; File C:\Program Files\Microsoft Visual Studio\2022\Community\VC\Tools\MSVC\14.34.31933\include\xmemory

; 229  :             return _Allocate_manually_vector_aligned<_Traits>(_Bytes);

  0006c	50		 push	 eax
; File C:\Program Files\Microsoft Visual Studio\2022\Community\VC\Tools\MSVC\14.34.31933\include\vector

; 2030 :             return _Max; // geometric growth would overflow

  0006d	89 5d fc	 mov	 DWORD PTR __Newcapacity$2$[ebp], ebx
; File C:\Program Files\Microsoft Visual Studio\2022\Community\VC\Tools\MSVC\14.34.31933\include\xmemory

; 229  :             return _Allocate_manually_vector_aligned<_Traits>(_Bytes);

  00070	e8 00 00 00 00	 call	 ??$_Allocate_manually_vector_aligned@U_Default_allocate_traits@std@@@std@@YAPAXI@Z ; std::_Allocate_manually_vector_aligned<std::_Default_allocate_traits>
  00075	83 c4 04	 add	 esp, 4
  00078	8b c8		 mov	 ecx, eax
  0007a	eb 47		 jmp	 SHORT $LN157@Emplace_re
$LN12@Emplace_re:

; 60   :         if (_Count > _Max_possible) {

  0007c	8b 5d f4	 mov	 ebx, DWORD PTR __Newsize$1$[ebp]
; File C:\Program Files\Microsoft Visual Studio\2022\Community\VC\Tools\MSVC\14.34.31933\include\vector

; 2033 :         const size_type _Geometric = _Oldcapacity + _Oldcapacity / 2;

  0007f	8d 04 11	 lea	 eax, DWORD PTR [ecx+edx]
; File C:\Program Files\Microsoft Visual Studio\2022\Community\VC\Tools\MSVC\14.34.31933\include\xmemory

; 60   :         if (_Count > _Max_possible) {

  00082	3b c3		 cmp	 eax, ebx
  00084	0f 43 d8	 cmovae	 ebx, eax
  00087	89 5d fc	 mov	 DWORD PTR __Newcapacity$2$[ebp], ebx
  0008a	81 fb 2c f7 34
	02		 cmp	 ebx, 37025580		; 0234f72cH
  00090	0f 87 cd 00 00
	00		 ja	 $LN161@Emplace_re

; 62   :         }
; 63   :     }
; 64   : 
; 65   :     return _Count * _Ty_size;

  00096	6b c3 74	 imul	 eax, ebx, 116

; 228  :         if (_Bytes >= _Big_allocation_threshold) { // boost the alignment of big allocations to help autovectorization

  00099	3d 00 10 00 00	 cmp	 eax, 4096		; 00001000H
  0009e	72 0d		 jb	 SHORT $LN148@Emplace_re

; 229  :             return _Allocate_manually_vector_aligned<_Traits>(_Bytes);

  000a0	50		 push	 eax
  000a1	e8 00 00 00 00	 call	 ??$_Allocate_manually_vector_aligned@U_Default_allocate_traits@std@@@std@@YAPAXI@Z ; std::_Allocate_manually_vector_aligned<std::_Default_allocate_traits>
  000a6	83 c4 04	 add	 esp, 4
  000a9	8b c8		 mov	 ecx, eax
  000ab	eb 16		 jmp	 SHORT $LN157@Emplace_re
$LN148@Emplace_re:

; 230  :         }
; 231  :     }
; 232  : #endif // defined(_M_IX86) || defined(_M_X64)
; 233  : 
; 234  :     if (_Bytes != 0) {

  000ad	85 c0		 test	 eax, eax
  000af	74 0d		 je	 SHORT $LN26@Emplace_re

; 77   :         return ::operator new(_Bytes);

  000b1	50		 push	 eax
  000b2	e8 00 00 00 00	 call	 ??2@YAPAXI@Z		; operator new
  000b7	83 c4 04	 add	 esp, 4

; 235  :         return _Traits::_Allocate(_Bytes);

  000ba	8b c8		 mov	 ecx, eax
  000bc	eb 02		 jmp	 SHORT $LN158@Emplace_re
$LN26@Emplace_re:

; 236  :     }
; 237  : 
; 238  :     return nullptr;

  000be	33 c9		 xor	 ecx, ecx
$LN158@Emplace_re:
; File C:\Program Files\Microsoft Visual Studio\2022\Community\VC\Tools\MSVC\14.34.31933\include\vector

; 899  :         _Alty_traits::construct(_Al, _Unfancy(_Newvec + _Whereoff), _STD forward<_Valty>(_Val)...);

  000c0	89 5d fc	 mov	 DWORD PTR __Newcapacity$2$[ebp], ebx
$LN157@Emplace_re:

; 900  :         _Constructed_first = _Newvec + _Whereoff;
; 901  : 
; 902  :         if (_Whereptr == _Mylast) { // at back, provide strong guarantee

  000c3	ff 75 0c	 push	 DWORD PTR _<_Val_0>$[ebp]
  000c6	6b c6 74	 imul	 eax, esi, 116
  000c9	89 4d 08	 mov	 DWORD PTR $T4[ebp], ecx
  000cc	03 c1		 add	 eax, ecx
  000ce	8b c8		 mov	 ecx, eax
  000d0	89 45 f0	 mov	 DWORD PTR tv702[ebp], eax
  000d3	e8 00 00 00 00	 call	 ??0SQuestInstance@CPythonQuest@@QAE@$$QAU01@@Z
  000d8	8b 4d f8	 mov	 ecx, DWORD PTR _this$1$[ebp]
  000db	8b 41 04	 mov	 eax, DWORD PTR [ecx+4]
  000de	8b 31		 mov	 esi, DWORD PTR [ecx]
  000e0	8b 4d 08	 mov	 ecx, DWORD PTR $T4[ebp]
  000e3	3b f8		 cmp	 edi, eax
  000e5	75 1b		 jne	 SHORT $LN4@Emplace_re
; File C:\Program Files\Microsoft Visual Studio\2022\Community\VC\Tools\MSVC\14.34.31933\include\xmemory

; 1806 :     for (; _UFirst != _ULast; ++_UFirst) {

  000e7	8b f8		 mov	 edi, eax
  000e9	3b f7		 cmp	 esi, edi
  000eb	74 56		 je	 SHORT $LN101@Emplace_re
  000ed	0f 1f 00	 npad	 3
$LL40@Emplace_re:

; 1664 :         ++_Last;

  000f0	56		 push	 esi
  000f1	e8 00 00 00 00	 call	 ??0SQuestInstance@CPythonQuest@@QAE@$$QAU01@@Z

; 1806 :     for (; _UFirst != _ULast; ++_UFirst) {

  000f6	83 c6 74	 add	 esi, 116		; 00000074H

; 1664 :         ++_Last;

  000f9	83 c1 74	 add	 ecx, 116		; 00000074H

; 1806 :     for (; _UFirst != _ULast; ++_UFirst) {

  000fc	3b f7		 cmp	 esi, edi
  000fe	75 f0		 jne	 SHORT $LL40@Emplace_re
; File C:\Program Files\Microsoft Visual Studio\2022\Community\VC\Tools\MSVC\14.34.31933\include\vector

; 908  :         } else { // provide basic guarantee

  00100	eb 41		 jmp	 SHORT $LN101@Emplace_re
$LN4@Emplace_re:
; File C:\Program Files\Microsoft Visual Studio\2022\Community\VC\Tools\MSVC\14.34.31933\include\xmemory

; 1806 :     for (; _UFirst != _ULast; ++_UFirst) {

  00102	3b f7		 cmp	 esi, edi
  00104	74 10		 je	 SHORT $LN70@Emplace_re
$LL71@Emplace_re:

; 1664 :         ++_Last;

  00106	56		 push	 esi
  00107	e8 00 00 00 00	 call	 ??0SQuestInstance@CPythonQuest@@QAE@$$QAU01@@Z

; 1806 :     for (; _UFirst != _ULast; ++_UFirst) {

  0010c	83 c6 74	 add	 esi, 116		; 00000074H

; 1664 :         ++_Last;

  0010f	83 c1 74	 add	 ecx, 116		; 00000074H

; 1806 :     for (; _UFirst != _ULast; ++_UFirst) {

  00112	3b f7		 cmp	 esi, edi
  00114	75 f0		 jne	 SHORT $LL71@Emplace_re
$LN70@Emplace_re:

; 1793 :     const auto _ULast = _Get_unwrapped(_Last);

  00116	8b 75 f8	 mov	 esi, DWORD PTR _this$1$[ebp]
  00119	8b 76 04	 mov	 esi, DWORD PTR [esi+4]

; 1806 :     for (; _UFirst != _ULast; ++_UFirst) {

  0011c	3b fe		 cmp	 edi, esi
  0011e	74 23		 je	 SHORT $LN101@Emplace_re
  00120	8b 5d f0	 mov	 ebx, DWORD PTR tv702[ebp]
  00123	2b df		 sub	 ebx, edi
  00125	83 c3 74	 add	 ebx, 116		; 00000074H
  00128	0f 1f 84 00 00
	00 00 00	 npad	 8
$LL102@Emplace_re:

; 1664 :         ++_Last;

  00130	57		 push	 edi
  00131	8d 0c 3b	 lea	 ecx, DWORD PTR [ebx+edi]
  00134	e8 00 00 00 00	 call	 ??0SQuestInstance@CPythonQuest@@QAE@$$QAU01@@Z

; 1806 :     for (; _UFirst != _ULast; ++_UFirst) {

  00139	83 c7 74	 add	 edi, 116		; 00000074H
  0013c	3b fe		 cmp	 edi, esi
  0013e	75 f0		 jne	 SHORT $LL102@Emplace_re
  00140	8b 5d fc	 mov	 ebx, DWORD PTR __Newcapacity$2$[ebp]
$LN101@Emplace_re:
; File C:\Program Files\Microsoft Visual Studio\2022\Community\VC\Tools\MSVC\14.34.31933\include\vector

; 919  :         _Change_array(_Newvec, _Newsize, _Newcapacity);

  00143	8b 4d f8	 mov	 ecx, DWORD PTR _this$1$[ebp]
  00146	53		 push	 ebx
  00147	ff 75 f4	 push	 DWORD PTR __Newsize$1$[ebp]
  0014a	ff 75 08	 push	 DWORD PTR $T4[ebp]
  0014d	e8 00 00 00 00	 call	 ?_Change_array@?$vector@USQuestInstance@CPythonQuest@@V?$allocator@USQuestInstance@CPythonQuest@@@std@@@std@@AAEXQAUSQuestInstance@CPythonQuest@@II@Z ; std::vector<CPythonQuest::SQuestInstance,std::allocator<CPythonQuest::SQuestInstance> >::_Change_array

; 920  :         return _Newvec + _Whereoff;

  00152	8b 45 f0	 mov	 eax, DWORD PTR tv702[ebp]
  00155	5f		 pop	 edi
  00156	5e		 pop	 esi
  00157	5b		 pop	 ebx

; 921  :     }

  00158	8b e5		 mov	 esp, ebp
  0015a	5d		 pop	 ebp
  0015b	c2 08 00	 ret	 8
$LN160@Emplace_re:

; 888  :             _Xlength();

  0015e	e8 00 00 00 00	 call	 ?_Xlength@?$vector@USQuestInstance@CPythonQuest@@V?$allocator@USQuestInstance@CPythonQuest@@@std@@@std@@CAXXZ ; std::vector<CPythonQuest::SQuestInstance,std::allocator<CPythonQuest::SQuestInstance> >::_Xlength
$LN161@Emplace_re:
; File C:\Program Files\Microsoft Visual Studio\2022\Community\VC\Tools\MSVC\14.34.31933\include\xmemory

; 61   :             _Throw_bad_array_new_length(); // multiply overflow

  00163	e8 00 00 00 00	 call	 ?_Throw_bad_array_new_length@std@@YAXXZ ; std::_Throw_bad_array_new_length
$LN156@Emplace_re:
  00168	cc		 int	 3
??$_Emplace_reallocate@USQuestInstance@CPythonQuest@@@?$vector@USQuestInstance@CPythonQuest@@V?$allocator@USQuestInstance@CPythonQuest@@@std@@@std@@AAEPAUSQuestInstance@CPythonQuest@@QAU23@$$QAU23@@Z ENDP ; std::vector<CPythonQuest::SQuestInstance,std::allocator<CPythonQuest::SQuestInstance> >::_Emplace_reallocate<CPythonQuest::SQuestInstance>
_TEXT	ENDS
; Function compile flags: /Ogtp
; File C:\Program Files\Microsoft Visual Studio\2022\Community\VC\Tools\MSVC\14.34.31933\include\type_traits
;	COMDAT ??$forward@ABUSQuestInstance@CPythonQuest@@@std@@YAABUSQuestInstance@CPythonQuest@@ABU12@@Z
_TEXT	SEGMENT
??$forward@ABUSQuestInstance@CPythonQuest@@@std@@YAABUSQuestInstance@CPythonQuest@@ABU12@@Z PROC ; std::forward<CPythonQuest::SQuestInstance const &>, COMDAT
; __Arg$ = ecx

; 1426 :     return static_cast<_Ty&&>(_Arg);

  00000	8b c1		 mov	 eax, ecx

; 1427 : }

  00002	c3		 ret	 0
??$forward@ABUSQuestInstance@CPythonQuest@@@std@@YAABUSQuestInstance@CPythonQuest@@ABU12@@Z ENDP ; std::forward<CPythonQuest::SQuestInstance const &>
_TEXT	ENDS
; Function compile flags: /Ogtp
; File C:\Program Files\Microsoft Visual Studio\2022\Community\VC\Tools\MSVC\14.34.31933\include\vector
;	COMDAT ??$_Emplace_back_with_unused_capacity@ABUSQuestInstance@CPythonQuest@@@?$vector@USQuestInstance@CPythonQuest@@V?$allocator@USQuestInstance@CPythonQuest@@@std@@@std@@AAEAAUSQuestInstance@CPythonQuest@@ABU23@@Z
_TEXT	SEGMENT
_<_Val_0>$ = 8						; size = 4
??$_Emplace_back_with_unused_capacity@ABUSQuestInstance@CPythonQuest@@@?$vector@USQuestInstance@CPythonQuest@@V?$allocator@USQuestInstance@CPythonQuest@@@std@@@std@@AAEAAUSQuestInstance@CPythonQuest@@ABU23@@Z PROC ; std::vector<CPythonQuest::SQuestInstance,std::allocator<CPythonQuest::SQuestInstance> >::_Emplace_back_with_unused_capacity<CPythonQuest::SQuestInstance const &>, COMDAT
; _this$ = ecx

; 852  :     _CONSTEXPR20 _Ty& _Emplace_back_with_unused_capacity(_Valty&&... _Val) {

  00000	55		 push	 ebp
  00001	8b ec		 mov	 ebp, esp
  00003	56		 push	 esi

; 853  :         // insert by perfectly forwarding into element at end, provide strong guarantee
; 854  :         auto& _My_data   = _Mypair._Myval2;
; 855  :         pointer& _Mylast = _My_data._Mylast;
; 856  :         _STL_INTERNAL_CHECK(_Mylast != _My_data._Myend); // check that we have unused capacity
; 857  :         if constexpr (conjunction_v<is_nothrow_constructible<_Ty, _Valty...>,
; 858  :                           _Uses_default_construct<_Alloc, _Ty*, _Valty...>>) {
; 859  :             _ASAN_VECTOR_MODIFY(1);
; 860  :             _Construct_in_place(*_Mylast, _STD forward<_Valty>(_Val)...);
; 861  :         } else {
; 862  :             _ASAN_VECTOR_EXTEND_GUARD(static_cast<size_type>(_Mylast - _My_data._Myfirst) + 1);
; 863  :             _Alty_traits::construct(_Getal(), _Unfancy(_Mylast), _STD forward<_Valty>(_Val)...);
; 864  :             _ASAN_VECTOR_RELEASE_GUARD;
; 865  :         }
; 866  : 
; 867  :         _Orphan_range(_Mylast, _Mylast);
; 868  :         _Ty& _Result = *_Mylast;

  00004	ff 75 08	 push	 DWORD PTR _<_Val_0>$[ebp]
  00007	8b f1		 mov	 esi, ecx
  00009	8b 4e 04	 mov	 ecx, DWORD PTR [esi+4]
  0000c	e8 00 00 00 00	 call	 ??0SQuestInstance@CPythonQuest@@QAE@ABU01@@Z
  00011	8b 46 04	 mov	 eax, DWORD PTR [esi+4]

; 869  :         ++_Mylast;

  00014	8d 50 74	 lea	 edx, DWORD PTR [eax+116]
  00017	89 56 04	 mov	 DWORD PTR [esi+4], edx

; 870  : 
; 871  :         return _Result;

  0001a	5e		 pop	 esi

; 872  :     }

  0001b	5d		 pop	 ebp
  0001c	c2 04 00	 ret	 4
??$_Emplace_back_with_unused_capacity@ABUSQuestInstance@CPythonQuest@@@?$vector@USQuestInstance@CPythonQuest@@V?$allocator@USQuestInstance@CPythonQuest@@@std@@@std@@AAEAAUSQuestInstance@CPythonQuest@@ABU23@@Z ENDP ; std::vector<CPythonQuest::SQuestInstance,std::allocator<CPythonQuest::SQuestInstance> >::_Emplace_back_with_unused_capacity<CPythonQuest::SQuestInstance const &>
_TEXT	ENDS
; Function compile flags: /Ogtp
; File C:\Program Files\Microsoft Visual Studio\2022\Community\VC\Tools\MSVC\14.34.31933\include\vector
; File C:\Program Files\Microsoft Visual Studio\2022\Community\VC\Tools\MSVC\14.34.31933\include\xmemory
; File C:\Program Files\Microsoft Visual Studio\2022\Community\VC\Tools\MSVC\14.34.31933\include\vector
; File C:\Program Files\Microsoft Visual Studio\2022\Community\VC\Tools\MSVC\14.34.31933\include\xmemory
; File C:\Program Files\Microsoft Visual Studio\2022\Community\VC\Tools\MSVC\14.34.31933\include\vector
; File C:\Program Files\Microsoft Visual Studio\2022\Community\VC\Tools\MSVC\14.34.31933\include\xmemory
; File C:\Program Files\Microsoft Visual Studio\2022\Community\VC\Tools\MSVC\14.34.31933\include\vector
; File C:\Program Files\Microsoft Visual Studio\2022\Community\VC\Tools\MSVC\14.34.31933\include\xmemory
; File C:\Program Files\Microsoft Visual Studio\2022\Community\VC\Tools\MSVC\14.34.31933\include\vector
; File C:\Program Files\Microsoft Visual Studio\2022\Community\VC\Tools\MSVC\14.34.31933\include\xmemory
; File C:\Program Files\Microsoft Visual Studio\2022\Community\VC\Tools\MSVC\14.34.31933\include\vector
; File C:\Program Files\Microsoft Visual Studio\2022\Community\VC\Tools\MSVC\14.34.31933\include\xmemory
; File C:\Program Files\Microsoft Visual Studio\2022\Community\VC\Tools\MSVC\14.34.31933\include\vector
; File C:\Program Files\Microsoft Visual Studio\2022\Community\VC\Tools\MSVC\14.34.31933\include\xmemory
; File C:\Program Files\Microsoft Visual Studio\2022\Community\VC\Tools\MSVC\14.34.31933\include\vector
; File C:\Program Files\Microsoft Visual Studio\2022\Community\VC\Tools\MSVC\14.34.31933\include\xmemory
; File C:\Program Files\Microsoft Visual Studio\2022\Community\VC\Tools\MSVC\14.34.31933\include\vector
;	COMDAT ??$_Emplace_reallocate@ABUSQuestInstance@CPythonQuest@@@?$vector@USQuestInstance@CPythonQuest@@V?$allocator@USQuestInstance@CPythonQuest@@@std@@@std@@AAEPAUSQuestInstance@CPythonQuest@@QAU23@ABU23@@Z
_TEXT	SEGMENT
__Constructed_last$ = -40				; size = 4
tv706 = -36						; size = 4
__Newsize$1$ = -32					; size = 4
_this$1$ = -28						; size = 4
tv691 = -24						; size = 4
__Newcapacity$ = -20					; size = 4
__$EHRec$ = -16						; size = 16
$T5 = 8							; size = 4
__Whereptr$ = 8						; size = 4
_<_Val_0>$ = 12						; size = 4
??$_Emplace_reallocate@ABUSQuestInstance@CPythonQuest@@@?$vector@USQuestInstance@CPythonQuest@@V?$allocator@USQuestInstance@CPythonQuest@@@std@@@std@@AAEPAUSQuestInstance@CPythonQuest@@QAU23@ABU23@@Z PROC ; std::vector<CPythonQuest::SQuestInstance,std::allocator<CPythonQuest::SQuestInstance> >::_Emplace_reallocate<CPythonQuest::SQuestInstance const &>, COMDAT
; _this$ = ecx

; 875  :     _CONSTEXPR20 pointer _Emplace_reallocate(const pointer _Whereptr, _Valty&&... _Val) {

  00000	55		 push	 ebp
  00001	8b ec		 mov	 ebp, esp
  00003	6a ff		 push	 -1
  00005	68 00 00 00 00	 push	 __ehhandler$??$_Emplace_reallocate@ABUSQuestInstance@CPythonQuest@@@?$vector@USQuestInstance@CPythonQuest@@V?$allocator@USQuestInstance@CPythonQuest@@@std@@@std@@AAEPAUSQuestInstance@CPythonQuest@@QAU23@ABU23@@Z
  0000a	64 a1 00 00 00
	00		 mov	 eax, DWORD PTR fs:0
  00010	50		 push	 eax
  00011	83 ec 1c	 sub	 esp, 28			; 0000001cH
  00014	53		 push	 ebx
  00015	56		 push	 esi
  00016	57		 push	 edi
  00017	a1 00 00 00 00	 mov	 eax, DWORD PTR ___security_cookie
  0001c	33 c5		 xor	 eax, ebp
  0001e	50		 push	 eax
  0001f	8d 45 f4	 lea	 eax, DWORD PTR __$EHRec$[ebp+4]
  00022	64 a3 00 00 00
	00		 mov	 DWORD PTR fs:0, eax
  00028	89 65 f0	 mov	 DWORD PTR __$EHRec$[ebp], esp
  0002b	89 4d e4	 mov	 DWORD PTR _this$1$[ebp], ecx

; 876  :         // reallocate and insert by perfectly forwarding _Val at _Whereptr
; 877  :         _Alty& _Al        = _Getal();
; 878  :         auto& _My_data    = _Mypair._Myval2;
; 879  :         pointer& _Myfirst = _My_data._Myfirst;
; 880  :         pointer& _Mylast  = _My_data._Mylast;
; 881  : 
; 882  :         _STL_INTERNAL_CHECK(_Mylast == _My_data._Myend); // check that we have no unused capacity
; 883  : 
; 884  :         const auto _Whereoff = static_cast<size_type>(_Whereptr - _Myfirst);

  0002e	8b 7d 08	 mov	 edi, DWORD PTR __Whereptr$[ebp]
  00031	b8 09 cb 3d 8d	 mov	 eax, -1925330167	; 8d3dcb09H
  00036	8b 19		 mov	 ebx, DWORD PTR [ecx]
  00038	8b f7		 mov	 esi, edi
  0003a	2b f3		 sub	 esi, ebx
  0003c	f7 ee		 imul	 esi

; 885  :         const auto _Oldsize  = static_cast<size_type>(_Mylast - _Myfirst);

  0003e	8b 41 04	 mov	 eax, DWORD PTR [ecx+4]
  00041	03 d6		 add	 edx, esi
  00043	2b c3		 sub	 eax, ebx
  00045	c1 fa 06	 sar	 edx, 6
  00048	c1 f8 02	 sar	 eax, 2
  0004b	8b f2		 mov	 esi, edx
  0004d	69 c0 35 c2 72
	4f		 imul	 eax, eax, 1332920885
  00053	c1 ee 1f	 shr	 esi, 31			; 0000001fH
  00056	03 f2		 add	 esi, edx

; 886  : 
; 887  :         if (_Oldsize == max_size()) {

  00058	3d 2c f7 34 02	 cmp	 eax, 37025580		; 0234f72cH
  0005d	0f 84 58 01 00
	00		 je	 $LN161@Emplace_re

; 889  :         }
; 890  : 
; 891  :         const size_type _Newsize     = _Oldsize + 1;

  00063	40		 inc	 eax
  00064	89 45 e0	 mov	 DWORD PTR __Newsize$1$[ebp], eax

; 1942 :         return static_cast<size_type>(_My_data._Myend - _My_data._Myfirst);

  00067	8b 41 08	 mov	 eax, DWORD PTR [ecx+8]
  0006a	2b c3		 sub	 eax, ebx
  0006c	c1 f8 02	 sar	 eax, 2
  0006f	69 d0 35 c2 72
	4f		 imul	 edx, eax, 1332920885

; 2029 :         if (_Oldcapacity > _Max - _Oldcapacity / 2) {

  00075	b8 2c f7 34 02	 mov	 eax, 37025580		; 0234f72cH
  0007a	8b ca		 mov	 ecx, edx
  0007c	d1 e9		 shr	 ecx, 1
  0007e	2b c1		 sub	 eax, ecx
  00080	3b d0		 cmp	 edx, eax
  00082	76 1a		 jbe	 SHORT $LN12@Emplace_re

; 2030 :             return _Max; // geometric growth would overflow

  00084	b8 f0 ff ff ff	 mov	 eax, -16		; fffffff0H
  00089	bb 2c f7 34 02	 mov	 ebx, 37025580		; 0234f72cH
; File C:\Program Files\Microsoft Visual Studio\2022\Community\VC\Tools\MSVC\14.34.31933\include\xmemory

; 229  :             return _Allocate_manually_vector_aligned<_Traits>(_Bytes);

  0008e	50		 push	 eax
; File C:\Program Files\Microsoft Visual Studio\2022\Community\VC\Tools\MSVC\14.34.31933\include\vector

; 2030 :             return _Max; // geometric growth would overflow

  0008f	89 5d ec	 mov	 DWORD PTR __Newcapacity$[ebp], ebx
; File C:\Program Files\Microsoft Visual Studio\2022\Community\VC\Tools\MSVC\14.34.31933\include\xmemory

; 229  :             return _Allocate_manually_vector_aligned<_Traits>(_Bytes);

  00092	e8 00 00 00 00	 call	 ??$_Allocate_manually_vector_aligned@U_Default_allocate_traits@std@@@std@@YAPAXI@Z ; std::_Allocate_manually_vector_aligned<std::_Default_allocate_traits>
  00097	83 c4 04	 add	 esp, 4
  0009a	8b c8		 mov	 ecx, eax
  0009c	eb 47		 jmp	 SHORT $LN158@Emplace_re
$LN12@Emplace_re:

; 60   :         if (_Count > _Max_possible) {

  0009e	8b 5d e0	 mov	 ebx, DWORD PTR __Newsize$1$[ebp]
; File C:\Program Files\Microsoft Visual Studio\2022\Community\VC\Tools\MSVC\14.34.31933\include\vector

; 2033 :         const size_type _Geometric = _Oldcapacity + _Oldcapacity / 2;

  000a1	8d 04 11	 lea	 eax, DWORD PTR [ecx+edx]
; File C:\Program Files\Microsoft Visual Studio\2022\Community\VC\Tools\MSVC\14.34.31933\include\xmemory

; 60   :         if (_Count > _Max_possible) {

  000a4	3b c3		 cmp	 eax, ebx
  000a6	0f 43 d8	 cmovae	 ebx, eax
  000a9	81 fb 2c f7 34
	02		 cmp	 ebx, 37025580		; 0234f72cH
  000af	0f 87 0b 01 00
	00		 ja	 $LN162@Emplace_re

; 62   :         }
; 63   :     }
; 64   : 
; 65   :     return _Count * _Ty_size;

  000b5	6b c3 74	 imul	 eax, ebx, 116
  000b8	89 5d ec	 mov	 DWORD PTR __Newcapacity$[ebp], ebx

; 228  :         if (_Bytes >= _Big_allocation_threshold) { // boost the alignment of big allocations to help autovectorization

  000bb	3d 00 10 00 00	 cmp	 eax, 4096		; 00001000H
  000c0	72 0d		 jb	 SHORT $LN25@Emplace_re

; 229  :             return _Allocate_manually_vector_aligned<_Traits>(_Bytes);

  000c2	50		 push	 eax
  000c3	e8 00 00 00 00	 call	 ??$_Allocate_manually_vector_aligned@U_Default_allocate_traits@std@@@std@@YAPAXI@Z ; std::_Allocate_manually_vector_aligned<std::_Default_allocate_traits>
  000c8	83 c4 04	 add	 esp, 4
  000cb	8b c8		 mov	 ecx, eax
  000cd	eb 16		 jmp	 SHORT $LN158@Emplace_re
$LN25@Emplace_re:

; 230  :         }
; 231  :     }
; 232  : #endif // defined(_M_IX86) || defined(_M_X64)
; 233  : 
; 234  :     if (_Bytes != 0) {

  000cf	85 c0		 test	 eax, eax
  000d1	74 0d		 je	 SHORT $LN26@Emplace_re

; 77   :         return ::operator new(_Bytes);

  000d3	50		 push	 eax
  000d4	e8 00 00 00 00	 call	 ??2@YAPAXI@Z		; operator new
  000d9	83 c4 04	 add	 esp, 4

; 235  :         return _Traits::_Allocate(_Bytes);

  000dc	8b c8		 mov	 ecx, eax
  000de	eb 02		 jmp	 SHORT $LN159@Emplace_re
$LN26@Emplace_re:

; 236  :     }
; 237  : 
; 238  :     return nullptr;

  000e0	33 c9		 xor	 ecx, ecx
$LN159@Emplace_re:
; File C:\Program Files\Microsoft Visual Studio\2022\Community\VC\Tools\MSVC\14.34.31933\include\vector

; 895  :         const pointer _Constructed_last = _Newvec + _Whereoff + 1;

  000e2	89 5d ec	 mov	 DWORD PTR __Newcapacity$[ebp], ebx
$LN158@Emplace_re:
; File C:\Program Files\Microsoft Visual Studio\2022\Community\VC\Tools\MSVC\14.34.31933\include\xmemory

; 680  :             ::new (_Voidify_iter(_Ptr)) _Objty(_STD forward<_Types>(_Args)...);

  000e5	ff 75 0c	 push	 DWORD PTR _<_Val_0>$[ebp]
; File C:\Program Files\Microsoft Visual Studio\2022\Community\VC\Tools\MSVC\14.34.31933\include\vector

; 895  :         const pointer _Constructed_last = _Newvec + _Whereoff + 1;

  000e8	6b c6 74	 imul	 eax, esi, 116
  000eb	89 4d 08	 mov	 DWORD PTR $T5[ebp], ecx

; 896  :         pointer _Constructed_first      = _Constructed_last;
; 897  : 
; 898  :         _TRY_BEGIN

  000ee	c7 45 fc 00 00
	00 00		 mov	 DWORD PTR __$EHRec$[ebp+12], 0
  000f5	03 c8		 add	 ecx, eax
  000f7	89 4d dc	 mov	 DWORD PTR tv706[ebp], ecx
  000fa	8d 41 74	 lea	 eax, DWORD PTR [ecx+116]
  000fd	89 45 e8	 mov	 DWORD PTR tv691[ebp], eax
  00100	89 45 d8	 mov	 DWORD PTR __Constructed_last$[ebp], eax
; File C:\Program Files\Microsoft Visual Studio\2022\Community\VC\Tools\MSVC\14.34.31933\include\xmemory

; 680  :             ::new (_Voidify_iter(_Ptr)) _Objty(_STD forward<_Types>(_Args)...);

  00103	e8 00 00 00 00	 call	 ??0SQuestInstance@CPythonQuest@@QAE@ABU01@@Z
; File C:\Program Files\Microsoft Visual Studio\2022\Community\VC\Tools\MSVC\14.34.31933\include\vector

; 902  :         if (_Whereptr == _Mylast) { // at back, provide strong guarantee

  00108	8b 4d e4	 mov	 ecx, DWORD PTR _this$1$[ebp]
  0010b	8b 41 04	 mov	 eax, DWORD PTR [ecx+4]
  0010e	8b 31		 mov	 esi, DWORD PTR [ecx]
  00110	8b 4d 08	 mov	 ecx, DWORD PTR $T5[ebp]
  00113	3b f8		 cmp	 edi, eax
  00115	75 1b		 jne	 SHORT $LN4@Emplace_re
; File C:\Program Files\Microsoft Visual Studio\2022\Community\VC\Tools\MSVC\14.34.31933\include\xmemory

; 1806 :     for (; _UFirst != _ULast; ++_UFirst) {

  00117	8b f8		 mov	 edi, eax
  00119	3b f7		 cmp	 esi, edi
  0011b	74 56		 je	 SHORT $LN101@Emplace_re
  0011d	0f 1f 00	 npad	 3
$LL40@Emplace_re:

; 1664 :         ++_Last;

  00120	56		 push	 esi
  00121	e8 00 00 00 00	 call	 ??0SQuestInstance@CPythonQuest@@QAE@$$QAU01@@Z

; 1806 :     for (; _UFirst != _ULast; ++_UFirst) {

  00126	83 c6 74	 add	 esi, 116		; 00000074H

; 1664 :         ++_Last;

  00129	83 c1 74	 add	 ecx, 116		; 00000074H

; 1806 :     for (; _UFirst != _ULast; ++_UFirst) {

  0012c	3b f7		 cmp	 esi, edi
  0012e	75 f0		 jne	 SHORT $LL40@Emplace_re
; File C:\Program Files\Microsoft Visual Studio\2022\Community\VC\Tools\MSVC\14.34.31933\include\vector

; 908  :         } else { // provide basic guarantee

  00130	eb 41		 jmp	 SHORT $LN101@Emplace_re
$LN4@Emplace_re:
; File C:\Program Files\Microsoft Visual Studio\2022\Community\VC\Tools\MSVC\14.34.31933\include\xmemory

; 1806 :     for (; _UFirst != _ULast; ++_UFirst) {

  00132	3b f7		 cmp	 esi, edi
  00134	74 10		 je	 SHORT $LN70@Emplace_re
$LL71@Emplace_re:

; 1664 :         ++_Last;

  00136	56		 push	 esi
  00137	e8 00 00 00 00	 call	 ??0SQuestInstance@CPythonQuest@@QAE@$$QAU01@@Z

; 1806 :     for (; _UFirst != _ULast; ++_UFirst) {

  0013c	83 c6 74	 add	 esi, 116		; 00000074H

; 1664 :         ++_Last;

  0013f	83 c1 74	 add	 ecx, 116		; 00000074H

; 1806 :     for (; _UFirst != _ULast; ++_UFirst) {

  00142	3b f7		 cmp	 esi, edi
  00144	75 f0		 jne	 SHORT $LL71@Emplace_re
$LN70@Emplace_re:

; 1793 :     const auto _ULast = _Get_unwrapped(_Last);

  00146	8b 75 e4	 mov	 esi, DWORD PTR _this$1$[ebp]
  00149	8b 76 04	 mov	 esi, DWORD PTR [esi+4]

; 1806 :     for (; _UFirst != _ULast; ++_UFirst) {

  0014c	3b fe		 cmp	 edi, esi
  0014e	74 23		 je	 SHORT $LN101@Emplace_re
  00150	8b 45 e8	 mov	 eax, DWORD PTR tv691[ebp]
  00153	2b c7		 sub	 eax, edi
  00155	89 45 e8	 mov	 DWORD PTR tv691[ebp], eax
  00158	0f 1f 84 00 00
	00 00 00	 npad	 8
$LL102@Emplace_re:

; 1664 :         ++_Last;

  00160	57		 push	 edi
  00161	8d 0c 38	 lea	 ecx, DWORD PTR [eax+edi]
  00164	e8 00 00 00 00	 call	 ??0SQuestInstance@CPythonQuest@@QAE@$$QAU01@@Z

; 1806 :     for (; _UFirst != _ULast; ++_UFirst) {

  00169	8b 45 e8	 mov	 eax, DWORD PTR tv691[ebp]
  0016c	83 c7 74	 add	 edi, 116		; 00000074H
  0016f	3b fe		 cmp	 edi, esi
  00171	75 ed		 jne	 SHORT $LL102@Emplace_re
$LN101@Emplace_re:
; File C:\Program Files\Microsoft Visual Studio\2022\Community\VC\Tools\MSVC\14.34.31933\include\vector

; 919  :         _Change_array(_Newvec, _Newsize, _Newcapacity);

  00173	8b 4d e4	 mov	 ecx, DWORD PTR _this$1$[ebp]
  00176	53		 push	 ebx
  00177	ff 75 e0	 push	 DWORD PTR __Newsize$1$[ebp]
  0017a	ff 75 08	 push	 DWORD PTR $T5[ebp]
  0017d	e8 00 00 00 00	 call	 ?_Change_array@?$vector@USQuestInstance@CPythonQuest@@V?$allocator@USQuestInstance@CPythonQuest@@@std@@@std@@AAEXQAUSQuestInstance@CPythonQuest@@II@Z ; std::vector<CPythonQuest::SQuestInstance,std::allocator<CPythonQuest::SQuestInstance> >::_Change_array

; 920  :         return _Newvec + _Whereoff;

  00182	8b 45 dc	 mov	 eax, DWORD PTR tv706[ebp]

; 921  :     }

  00185	8b 4d f4	 mov	 ecx, DWORD PTR __$EHRec$[ebp+4]
  00188	64 89 0d 00 00
	00 00		 mov	 DWORD PTR fs:0, ecx
  0018f	59		 pop	 ecx
  00190	5f		 pop	 edi
  00191	5e		 pop	 esi
  00192	5b		 pop	 ebx
  00193	8b e5		 mov	 esp, ebp
  00195	5d		 pop	 ebp
  00196	c2 08 00	 ret	 8
__catch$??$_Emplace_reallocate@ABUSQuestInstance@CPythonQuest@@@?$vector@USQuestInstance@CPythonQuest@@V?$allocator@USQuestInstance@CPythonQuest@@@std@@@std@@AAEPAUSQuestInstance@CPythonQuest@@QAU23@ABU23@@Z$0:

; 909  :             _Uninitialized_move(_Myfirst, _Whereptr, _Newvec, _Al);
; 910  :             _Constructed_first = _Newvec;
; 911  :             _Uninitialized_move(_Whereptr, _Mylast, _Newvec + _Whereoff + 1, _Al);
; 912  :         }
; 913  :         _CATCH_ALL
; 914  :         _Destroy_range(_Constructed_first, _Constructed_last, _Al);

  00199	51		 push	 ecx
  0019a	8b 4d d8	 mov	 ecx, DWORD PTR __Constructed_last$[ebp]
  0019d	8b d1		 mov	 edx, ecx
  0019f	e8 00 00 00 00	 call	 ??$_Destroy_range@V?$allocator@USQuestInstance@CPythonQuest@@@std@@@std@@YAXPAUSQuestInstance@CPythonQuest@@QAU12@AAV?$allocator@USQuestInstance@CPythonQuest@@@0@@Z ; std::_Destroy_range<std::allocator<CPythonQuest::SQuestInstance> >
  001a4	83 c4 04	 add	 esp, 4

; 915  :         _Al.deallocate(_Newvec, _Newcapacity);

  001a7	ff 75 ec	 push	 DWORD PTR __Newcapacity$[ebp]
  001aa	ff 75 08	 push	 DWORD PTR $T5[ebp]
  001ad	e8 00 00 00 00	 call	 ?deallocate@?$allocator@USQuestInstance@CPythonQuest@@@std@@QAEXQAUSQuestInstance@CPythonQuest@@I@Z ; std::allocator<CPythonQuest::SQuestInstance>::deallocate

; 916  :         _RERAISE;

  001b2	6a 00		 push	 0
  001b4	6a 00		 push	 0
  001b6	e8 00 00 00 00	 call	 __CxxThrowException@8
$LN161@Emplace_re:

; 888  :             _Xlength();

  001bb	e8 00 00 00 00	 call	 ?_Xlength@?$vector@USQuestInstance@CPythonQuest@@V?$allocator@USQuestInstance@CPythonQuest@@@std@@@std@@CAXXZ ; std::vector<CPythonQuest::SQuestInstance,std::allocator<CPythonQuest::SQuestInstance> >::_Xlength
$LN162@Emplace_re:
; File C:\Program Files\Microsoft Visual Studio\2022\Community\VC\Tools\MSVC\14.34.31933\include\xmemory

; 61   :             _Throw_bad_array_new_length(); // multiply overflow

  001c0	e8 00 00 00 00	 call	 ?_Throw_bad_array_new_length@std@@YAXXZ ; std::_Throw_bad_array_new_length
$LN157@Emplace_re:
  001c5	cc		 int	 3
  001c6	cc		 int	 3
  001c7	cc		 int	 3
  001c8	cc		 int	 3
  001c9	cc		 int	 3
  001ca	cc		 int	 3
_TEXT	ENDS
;	COMDAT text$x
text$x	SEGMENT
__ehhandler$??$_Emplace_reallocate@ABUSQuestInstance@CPythonQuest@@@?$vector@USQuestInstance@CPythonQuest@@V?$allocator@USQuestInstance@CPythonQuest@@@std@@@std@@AAEPAUSQuestInstance@CPythonQuest@@QAU23@ABU23@@Z:
  00000	90		 npad	 1
  00001	90		 npad	 1
  00002	8b 54 24 08	 mov	 edx, DWORD PTR [esp+8]
  00006	8d 42 0c	 lea	 eax, DWORD PTR [edx+12]
  00009	8b 4a d4	 mov	 ecx, DWORD PTR [edx-44]
  0000c	33 c8		 xor	 ecx, eax
  0000e	e8 00 00 00 00	 call	 @__security_check_cookie@4
  00013	b8 00 00 00 00	 mov	 eax, OFFSET __ehfuncinfo$??$_Emplace_reallocate@ABUSQuestInstance@CPythonQuest@@@?$vector@USQuestInstance@CPythonQuest@@V?$allocator@USQuestInstance@CPythonQuest@@@std@@@std@@AAEPAUSQuestInstance@CPythonQuest@@QAU23@ABU23@@Z
  00018	e9 00 00 00 00	 jmp	 ___CxxFrameHandler3
text$x	ENDS
??$_Emplace_reallocate@ABUSQuestInstance@CPythonQuest@@@?$vector@USQuestInstance@CPythonQuest@@V?$allocator@USQuestInstance@CPythonQuest@@@std@@@std@@AAEPAUSQuestInstance@CPythonQuest@@QAU23@ABU23@@Z ENDP ; std::vector<CPythonQuest::SQuestInstance,std::allocator<CPythonQuest::SQuestInstance> >::_Emplace_reallocate<CPythonQuest::SQuestInstance const &>
; Function compile flags: /Ogtp
;	COMDAT ??_GSQuestInstance@CPythonQuest@@QAEPAXI@Z
_TEXT	SEGMENT
___flags$dead$ = 8					; size = 4
??_GSQuestInstance@CPythonQuest@@QAEPAXI@Z PROC		; CPythonQuest::SQuestInstance::`scalar deleting destructor', COMDAT
; _this$ = ecx
  00000	56		 push	 esi
  00001	8b f1		 mov	 esi, ecx
  00003	e8 00 00 00 00	 call	 ??1SQuestInstance@CPythonQuest@@QAE@XZ
  00008	8b c6		 mov	 eax, esi
  0000a	5e		 pop	 esi
  0000b	c2 04 00	 ret	 4
??_GSQuestInstance@CPythonQuest@@QAEPAXI@Z ENDP		; CPythonQuest::SQuestInstance::`scalar deleting destructor'
_TEXT	ENDS
; Function compile flags: /Ogtp
; File C:\Program Files\Microsoft Visual Studio\2022\Community\VC\Tools\MSVC\14.34.31933\include\vector
;	COMDAT ?_Seek_to@?$_Vector_const_iterator@V?$_Vector_val@U?$_Simple_types@USQuestInstance@CPythonQuest@@@std@@@std@@@std@@QAEXPBUSQuestInstance@CPythonQuest@@@Z
_TEXT	SEGMENT
__It$ = 8						; size = 4
?_Seek_to@?$_Vector_const_iterator@V?$_Vector_val@U?$_Simple_types@USQuestInstance@CPythonQuest@@@std@@@std@@@std@@QAEXPBUSQuestInstance@CPythonQuest@@@Z PROC ; std::_Vector_const_iterator<std::_Vector_val<std::_Simple_types<CPythonQuest::SQuestInstance> > >::_Seek_to, COMDAT
; _this$ = ecx

; 210  :     _CONSTEXPR20 void _Seek_to(const value_type* _It) noexcept {

  00000	55		 push	 ebp
  00001	8b ec		 mov	 ebp, esp

; 211  :         _Ptr = _Refancy<_Tptr>(const_cast<value_type*>(_It));

  00003	8b 45 08	 mov	 eax, DWORD PTR __It$[ebp]
  00006	89 01		 mov	 DWORD PTR [ecx], eax

; 212  :     }

  00008	5d		 pop	 ebp
  00009	c2 04 00	 ret	 4
?_Seek_to@?$_Vector_const_iterator@V?$_Vector_val@U?$_Simple_types@USQuestInstance@CPythonQuest@@@std@@@std@@@std@@QAEXPBUSQuestInstance@CPythonQuest@@@Z ENDP ; std::_Vector_const_iterator<std::_Vector_val<std::_Simple_types<CPythonQuest::SQuestInstance> > >::_Seek_to
_TEXT	ENDS
; Function compile flags: /Ogtp
; File C:\Program Files\Microsoft Visual Studio\2022\Community\VC\Tools\MSVC\14.34.31933\include\vector
;	COMDAT ?_Xlength@?$vector@USQuestInstance@CPythonQuest@@V?$allocator@USQuestInstance@CPythonQuest@@@std@@@std@@CAXXZ
_TEXT	SEGMENT
?_Xlength@?$vector@USQuestInstance@CPythonQuest@@V?$allocator@USQuestInstance@CPythonQuest@@@std@@@std@@CAXXZ PROC ; std::vector<CPythonQuest::SQuestInstance,std::allocator<CPythonQuest::SQuestInstance> >::_Xlength, COMDAT

; 2201 :         _Xlength_error("vector too long");

  00000	68 00 00 00 00	 push	 OFFSET ??_C@_0BA@FOIKENOD@vector?5too?5long@
  00005	e8 00 00 00 00	 call	 ?_Xlength_error@std@@YAXPBD@Z ; std::_Xlength_error
$LN3@Xlength:
  0000a	cc		 int	 3
?_Xlength@?$vector@USQuestInstance@CPythonQuest@@V?$allocator@USQuestInstance@CPythonQuest@@@std@@@std@@CAXXZ ENDP ; std::vector<CPythonQuest::SQuestInstance,std::allocator<CPythonQuest::SQuestInstance> >::_Xlength
_TEXT	ENDS
; Function compile flags: /Ogtp
; File C:\Program Files\Microsoft Visual Studio\2022\Community\VC\Tools\MSVC\14.34.31933\include\vector
; File C:\Program Files\Microsoft Visual Studio\2022\Community\VC\Tools\MSVC\14.34.31933\include\xmemory
; File C:\Program Files\Microsoft Visual Studio\2022\Community\VC\Tools\MSVC\14.34.31933\include\vector
; File C:\Program Files\Microsoft Visual Studio\2022\Community\VC\Tools\MSVC\14.34.31933\include\xmemory
; File C:\Program Files\Microsoft Visual Studio\2022\Community\VC\Tools\MSVC\14.34.31933\include\vector
; File C:\Program Files\Microsoft Visual Studio\2022\Community\VC\Tools\MSVC\14.34.31933\include\xmemory
; File C:\Program Files\Microsoft Visual Studio\2022\Community\VC\Tools\MSVC\14.34.31933\include\vector
;	COMDAT ?_Change_array@?$vector@USQuestInstance@CPythonQuest@@V?$allocator@USQuestInstance@CPythonQuest@@@std@@@std@@AAEXQAUSQuestInstance@CPythonQuest@@II@Z
_TEXT	SEGMENT
__Newvec$ = 8						; size = 4
__Newsize$ = 12						; size = 4
__Newcapacity$ = 16					; size = 4
?_Change_array@?$vector@USQuestInstance@CPythonQuest@@V?$allocator@USQuestInstance@CPythonQuest@@@std@@@std@@AAEXQAUSQuestInstance@CPythonQuest@@II@Z PROC ; std::vector<CPythonQuest::SQuestInstance,std::allocator<CPythonQuest::SQuestInstance> >::_Change_array, COMDAT
; _this$ = ecx

; 2076 :     _CONSTEXPR20 void _Change_array(const pointer _Newvec, const size_type _Newsize, const size_type _Newcapacity) {

  00000	55		 push	 ebp
  00001	8b ec		 mov	 ebp, esp
  00003	56		 push	 esi
  00004	57		 push	 edi
  00005	8b f9		 mov	 edi, ecx

; 2077 :         // orphan all iterators, discard old array, acquire new array
; 2078 :         auto& _Al         = _Getal();
; 2079 :         auto& _My_data    = _Mypair._Myval2;
; 2080 :         pointer& _Myfirst = _My_data._Myfirst;
; 2081 :         pointer& _Mylast  = _My_data._Mylast;
; 2082 :         pointer& _Myend   = _My_data._Myend;
; 2083 : 
; 2084 :         _My_data._Orphan_all();
; 2085 : 
; 2086 :         if (_Myfirst) { // destroy and deallocate old array

  00007	8b 37		 mov	 esi, DWORD PTR [edi]
  00009	85 f6		 test	 esi, esi
  0000b	74 4e		 je	 SHORT $LN20@Change_arr

; 2087 :             _Destroy_range(_Myfirst, _Mylast, _Al);

  0000d	53		 push	 ebx
  0000e	8b 5f 04	 mov	 ebx, DWORD PTR [edi+4]
; File C:\Program Files\Microsoft Visual Studio\2022\Community\VC\Tools\MSVC\14.34.31933\include\xmemory

; 947  :         for (; _First != _Last; ++_First) {

  00011	3b f3		 cmp	 esi, ebx
  00013	74 0e		 je	 SHORT $LN6@Change_arr
$LL7@Change_arr:
  00015	8b ce		 mov	 ecx, esi
  00017	e8 00 00 00 00	 call	 ??1SQuestInstance@CPythonQuest@@QAE@XZ
  0001c	83 c6 74	 add	 esi, 116		; 00000074H
  0001f	3b f3		 cmp	 esi, ebx
  00021	75 f2		 jne	 SHORT $LL7@Change_arr
$LN6@Change_arr:
; File C:\Program Files\Microsoft Visual Studio\2022\Community\VC\Tools\MSVC\14.34.31933\include\vector

; 2089 :             _Al.deallocate(_Myfirst, static_cast<size_type>(_Myend - _Myfirst));

  00023	8b 47 08	 mov	 eax, DWORD PTR [edi+8]
  00026	8b 0f		 mov	 ecx, DWORD PTR [edi]
  00028	2b c1		 sub	 eax, ecx
  0002a	c1 f8 02	 sar	 eax, 2
  0002d	69 c0 35 c2 72
	4f		 imul	 eax, eax, 1332920885
; File C:\Program Files\Microsoft Visual Studio\2022\Community\VC\Tools\MSVC\14.34.31933\include\xmemory

; 830  :         _Deallocate<_New_alignof<_Ty>>(_Ptr, sizeof(_Ty) * _Count);

  00033	5b		 pop	 ebx
  00034	6b d0 74	 imul	 edx, eax, 116

; 251  :         if (_Bytes >= _Big_allocation_threshold) { // boost the alignment of big allocations to help autovectorization

  00037	81 fa 00 10 00
	00		 cmp	 edx, 4096		; 00001000H
  0003d	72 12		 jb	 SHORT $LN32@Change_arr

; 150  :     const uintptr_t _Ptr_container   = _Ptr_user[-1];

  0003f	8b 71 fc	 mov	 esi, DWORD PTR [ecx-4]
  00042	83 c2 23	 add	 edx, 35			; 00000023H

; 151  : 
; 152  :     // If the following asserts, it likely means that we are performing
; 153  :     // an aligned delete on memory coming from an unaligned allocation.
; 154  :     _STL_ASSERT(_Ptr_user[-2] == _Big_allocation_sentinel, "invalid argument");
; 155  : 
; 156  :     // Extra paranoia on aligned allocation/deallocation; ensure _Ptr_container is
; 157  :     // in range [_Min_back_shift, _Non_user_size]
; 158  : #ifdef _DEBUG
; 159  :     constexpr uintptr_t _Min_back_shift = 2 * sizeof(void*);
; 160  : #else // ^^^ _DEBUG ^^^ // vvv !_DEBUG vvv
; 161  :     constexpr uintptr_t _Min_back_shift = sizeof(void*);
; 162  : #endif // _DEBUG
; 163  :     const uintptr_t _Back_shift = reinterpret_cast<uintptr_t>(_Ptr) - _Ptr_container;

  00045	2b ce		 sub	 ecx, esi

; 164  :     _STL_VERIFY(_Back_shift >= _Min_back_shift && _Back_shift <= _Non_user_size, "invalid argument");

  00047	8d 41 fc	 lea	 eax, DWORD PTR [ecx-4]
  0004a	83 f8 1f	 cmp	 eax, 31			; 0000001fH
  0004d	77 29		 ja	 SHORT $LN29@Change_arr

; 165  :     _Ptr = reinterpret_cast<void*>(_Ptr_container);

  0004f	8b ce		 mov	 ecx, esi
$LN32@Change_arr:

; 255  :         ::operator delete(_Ptr, _Bytes);

  00051	52		 push	 edx
  00052	51		 push	 ecx
  00053	e8 00 00 00 00	 call	 ??3@YAXPAXI@Z		; operator delete
  00058	83 c4 08	 add	 esp, 8
$LN20@Change_arr:
; File C:\Program Files\Microsoft Visual Studio\2022\Community\VC\Tools\MSVC\14.34.31933\include\vector

; 2093 :         _Mylast  = _Newvec + _Newsize;

  0005b	6b 45 0c 74	 imul	 eax, DWORD PTR __Newsize$[ebp], 116
  0005f	8b 4d 08	 mov	 ecx, DWORD PTR __Newvec$[ebp]
  00062	89 0f		 mov	 DWORD PTR [edi], ecx
  00064	03 c1		 add	 eax, ecx
  00066	89 47 04	 mov	 DWORD PTR [edi+4], eax

; 2094 :         _Myend   = _Newvec + _Newcapacity;

  00069	6b 45 10 74	 imul	 eax, DWORD PTR __Newcapacity$[ebp], 116
  0006d	03 c1		 add	 eax, ecx
  0006f	89 47 08	 mov	 DWORD PTR [edi+8], eax
  00072	5f		 pop	 edi
  00073	5e		 pop	 esi

; 2096 :     }

  00074	5d		 pop	 ebp
  00075	c2 0c 00	 ret	 12			; 0000000cH
$LN29@Change_arr:
; File C:\Program Files\Microsoft Visual Studio\2022\Community\VC\Tools\MSVC\14.34.31933\include\xmemory

; 164  :     _STL_VERIFY(_Back_shift >= _Min_back_shift && _Back_shift <= _Non_user_size, "invalid argument");

  00078	e8 00 00 00 00	 call	 __invalid_parameter_noinfo_noreturn
$LN40@Change_arr:
  0007d	cc		 int	 3
?_Change_array@?$vector@USQuestInstance@CPythonQuest@@V?$allocator@USQuestInstance@CPythonQuest@@@std@@@std@@AAEXQAUSQuestInstance@CPythonQuest@@II@Z ENDP ; std::vector<CPythonQuest::SQuestInstance,std::allocator<CPythonQuest::SQuestInstance> >::_Change_array
_TEXT	ENDS
; Function compile flags: /Ogtp
; File C:\Program Files\Microsoft Visual Studio\2022\Community\VC\Tools\MSVC\14.34.31933\include\vector
;	COMDAT ?_Calculate_growth@?$vector@USQuestInstance@CPythonQuest@@V?$allocator@USQuestInstance@CPythonQuest@@@std@@@std@@ABEII@Z
_TEXT	SEGMENT
__Newsize$ = 8						; size = 4
?_Calculate_growth@?$vector@USQuestInstance@CPythonQuest@@V?$allocator@USQuestInstance@CPythonQuest@@@std@@@std@@ABEII@Z PROC ; std::vector<CPythonQuest::SQuestInstance,std::allocator<CPythonQuest::SQuestInstance> >::_Calculate_growth, COMDAT
; _this$ = ecx

; 2024 :     _CONSTEXPR20 size_type _Calculate_growth(const size_type _Newsize) const {

  00000	55		 push	 ebp
  00001	8b ec		 mov	 ebp, esp

; 1942 :         return static_cast<size_type>(_My_data._Myend - _My_data._Myfirst);

  00003	8b 41 08	 mov	 eax, DWORD PTR [ecx+8]
  00006	2b 01		 sub	 eax, DWORD PTR [ecx]

; 2025 :         // given _Oldcapacity and _Newsize, calculate geometric growth
; 2026 :         const size_type _Oldcapacity = capacity();
; 2027 :         const auto _Max              = max_size();
; 2028 : 
; 2029 :         if (_Oldcapacity > _Max - _Oldcapacity / 2) {

  00008	b9 2c f7 34 02	 mov	 ecx, 37025580		; 0234f72cH

; 1942 :         return static_cast<size_type>(_My_data._Myend - _My_data._Myfirst);

  0000d	c1 f8 02	 sar	 eax, 2

; 2024 :     _CONSTEXPR20 size_type _Calculate_growth(const size_type _Newsize) const {

  00010	56		 push	 esi

; 1942 :         return static_cast<size_type>(_My_data._Myend - _My_data._Myfirst);

  00011	69 f0 35 c2 72
	4f		 imul	 esi, eax, 1332920885

; 2025 :         // given _Oldcapacity and _Newsize, calculate geometric growth
; 2026 :         const size_type _Oldcapacity = capacity();
; 2027 :         const auto _Max              = max_size();
; 2028 : 
; 2029 :         if (_Oldcapacity > _Max - _Oldcapacity / 2) {

  00017	8b d6		 mov	 edx, esi
  00019	d1 ea		 shr	 edx, 1
  0001b	2b ca		 sub	 ecx, edx
  0001d	3b f1		 cmp	 esi, ecx
  0001f	76 0a		 jbe	 SHORT $LN2@Calculate_

; 2030 :             return _Max; // geometric growth would overflow

  00021	b8 2c f7 34 02	 mov	 eax, 37025580		; 0234f72cH
  00026	5e		 pop	 esi

; 2036 :             return _Newsize; // geometric growth would be insufficient
; 2037 :         }
; 2038 : 
; 2039 :         return _Geometric; // geometric growth is sufficient
; 2040 :     }

  00027	5d		 pop	 ebp
  00028	c2 04 00	 ret	 4
$LN2@Calculate_:

; 2031 :         }
; 2032 : 
; 2033 :         const size_type _Geometric = _Oldcapacity + _Oldcapacity / 2;

  0002b	8d 04 32	 lea	 eax, DWORD PTR [edx+esi]

; 2034 : 
; 2035 :         if (_Geometric < _Newsize) {

  0002e	3b 45 08	 cmp	 eax, DWORD PTR __Newsize$[ebp]
  00031	5e		 pop	 esi
  00032	0f 42 45 08	 cmovb	 eax, DWORD PTR __Newsize$[ebp]

; 2036 :             return _Newsize; // geometric growth would be insufficient
; 2037 :         }
; 2038 : 
; 2039 :         return _Geometric; // geometric growth is sufficient
; 2040 :     }

  00036	5d		 pop	 ebp
  00037	c2 04 00	 ret	 4
?_Calculate_growth@?$vector@USQuestInstance@CPythonQuest@@V?$allocator@USQuestInstance@CPythonQuest@@@std@@@std@@ABEII@Z ENDP ; std::vector<CPythonQuest::SQuestInstance,std::allocator<CPythonQuest::SQuestInstance> >::_Calculate_growth
_TEXT	ENDS
; Function compile flags: /Ogtp
; File C:\Program Files\Microsoft Visual Studio\2022\Community\VC\Tools\MSVC\14.34.31933\include\vector
;	COMDAT ?max_size@?$vector@USQuestInstance@CPythonQuest@@V?$allocator@USQuestInstance@CPythonQuest@@@std@@@std@@QBEIXZ
_TEXT	SEGMENT
?max_size@?$vector@USQuestInstance@CPythonQuest@@V?$allocator@USQuestInstance@CPythonQuest@@@std@@@std@@QBEIXZ PROC ; std::vector<CPythonQuest::SQuestInstance,std::allocator<CPythonQuest::SQuestInstance> >::max_size, COMDAT
; _this$dead$ = ecx

; 1936 :         return (_STD min)(

  00000	b8 2c f7 34 02	 mov	 eax, 37025580		; 0234f72cH

; 1937 :             static_cast<size_type>((numeric_limits<difference_type>::max)()), _Alty_traits::max_size(_Getal()));
; 1938 :     }

  00005	c3		 ret	 0
?max_size@?$vector@USQuestInstance@CPythonQuest@@V?$allocator@USQuestInstance@CPythonQuest@@@std@@@std@@QBEIXZ ENDP ; std::vector<CPythonQuest::SQuestInstance,std::allocator<CPythonQuest::SQuestInstance> >::max_size
_TEXT	ENDS
; Function compile flags: /Ogtp
; File C:\Program Files\Microsoft Visual Studio\2022\Community\VC\Tools\MSVC\14.34.31933\include\xmemory
;	COMDAT ?allocate@?$allocator@USQuestInstance@CPythonQuest@@@std@@QAEPAUSQuestInstance@CPythonQuest@@I@Z
_TEXT	SEGMENT
__Count$ = 8						; size = 4
?allocate@?$allocator@USQuestInstance@CPythonQuest@@@std@@QAEPAUSQuestInstance@CPythonQuest@@I@Z PROC ; std::allocator<CPythonQuest::SQuestInstance>::allocate, COMDAT
; _this$dead$ = ecx

; 833  :     _NODISCARD_RAW_PTR_ALLOC _CONSTEXPR20 __declspec(allocator) _Ty* allocate(_CRT_GUARDOVERFLOW const size_t _Count) {

  00000	55		 push	 ebp
  00001	8b ec		 mov	 ebp, esp

; 60   :         if (_Count > _Max_possible) {

  00003	8b 45 08	 mov	 eax, DWORD PTR __Count$[ebp]
  00006	3d 2c f7 34 02	 cmp	 eax, 37025580		; 0234f72cH
  0000b	77 2e		 ja	 SHORT $LN16@allocate

; 62   :         }
; 63   :     }
; 64   : 
; 65   :     return _Count * _Ty_size;

  0000d	6b c0 74	 imul	 eax, eax, 116

; 228  :         if (_Bytes >= _Big_allocation_threshold) { // boost the alignment of big allocations to help autovectorization

  00010	3d 00 10 00 00	 cmp	 eax, 4096		; 00001000H
  00015	72 0d		 jb	 SHORT $LN9@allocate

; 229  :             return _Allocate_manually_vector_aligned<_Traits>(_Bytes);

  00017	50		 push	 eax
  00018	e8 00 00 00 00	 call	 ??$_Allocate_manually_vector_aligned@U_Default_allocate_traits@std@@@std@@YAPAXI@Z ; std::_Allocate_manually_vector_aligned<std::_Default_allocate_traits>
  0001d	83 c4 04	 add	 esp, 4

; 834  :         static_assert(sizeof(value_type) > 0, "value_type must be complete before calling allocate.");
; 835  :         return static_cast<_Ty*>(_Allocate<_New_alignof<_Ty>>(_Get_size_of_n<sizeof(_Ty)>(_Count)));
; 836  :     }

  00020	5d		 pop	 ebp
  00021	c2 04 00	 ret	 4
$LN9@allocate:

; 234  :     if (_Bytes != 0) {

  00024	85 c0		 test	 eax, eax
  00026	74 0d		 je	 SHORT $LN10@allocate

; 77   :         return ::operator new(_Bytes);

  00028	50		 push	 eax
  00029	e8 00 00 00 00	 call	 ??2@YAPAXI@Z		; operator new
  0002e	83 c4 04	 add	 esp, 4

; 834  :         static_assert(sizeof(value_type) > 0, "value_type must be complete before calling allocate.");
; 835  :         return static_cast<_Ty*>(_Allocate<_New_alignof<_Ty>>(_Get_size_of_n<sizeof(_Ty)>(_Count)));
; 836  :     }

  00031	5d		 pop	 ebp
  00032	c2 04 00	 ret	 4
$LN10@allocate:

; 238  :     return nullptr;

  00035	33 c0		 xor	 eax, eax

; 834  :         static_assert(sizeof(value_type) > 0, "value_type must be complete before calling allocate.");
; 835  :         return static_cast<_Ty*>(_Allocate<_New_alignof<_Ty>>(_Get_size_of_n<sizeof(_Ty)>(_Count)));
; 836  :     }

  00037	5d		 pop	 ebp
  00038	c2 04 00	 ret	 4
$LN16@allocate:

; 61   :             _Throw_bad_array_new_length(); // multiply overflow

  0003b	e8 00 00 00 00	 call	 ?_Throw_bad_array_new_length@std@@YAXXZ ; std::_Throw_bad_array_new_length
$LN14@allocate:
  00040	cc		 int	 3
?allocate@?$allocator@USQuestInstance@CPythonQuest@@@std@@QAEPAUSQuestInstance@CPythonQuest@@I@Z ENDP ; std::allocator<CPythonQuest::SQuestInstance>::allocate
_TEXT	ENDS
; Function compile flags: /Ogtp
; File C:\Program Files\Microsoft Visual Studio\2022\Community\VC\Tools\MSVC\14.34.31933\include\vector
;	COMDAT ?_Getal@?$vector@USQuestInstance@CPythonQuest@@V?$allocator@USQuestInstance@CPythonQuest@@@std@@@std@@ABEABV?$allocator@USQuestInstance@CPythonQuest@@@2@XZ
_TEXT	SEGMENT
?_Getal@?$vector@USQuestInstance@CPythonQuest@@V?$allocator@USQuestInstance@CPythonQuest@@@std@@@std@@ABEABV?$allocator@USQuestInstance@CPythonQuest@@@2@XZ PROC ; std::vector<CPythonQuest::SQuestInstance,std::allocator<CPythonQuest::SQuestInstance> >::_Getal, COMDAT
; _this$ = ecx

; 2248 :         return _Mypair._Get_first();

  00000	8b c1		 mov	 eax, ecx

; 2249 :     }

  00002	c3		 ret	 0
?_Getal@?$vector@USQuestInstance@CPythonQuest@@V?$allocator@USQuestInstance@CPythonQuest@@@std@@@std@@ABEABV?$allocator@USQuestInstance@CPythonQuest@@@2@XZ ENDP ; std::vector<CPythonQuest::SQuestInstance,std::allocator<CPythonQuest::SQuestInstance> >::_Getal
_TEXT	ENDS
; Function compile flags: /Ogtp
; File C:\Program Files\Microsoft Visual Studio\2022\Community\VC\Tools\MSVC\14.34.31933\include\vector
;	COMDAT ?capacity@?$vector@USQuestInstance@CPythonQuest@@V?$allocator@USQuestInstance@CPythonQuest@@@std@@@std@@QBEIXZ
_TEXT	SEGMENT
?capacity@?$vector@USQuestInstance@CPythonQuest@@V?$allocator@USQuestInstance@CPythonQuest@@@std@@@std@@QBEIXZ PROC ; std::vector<CPythonQuest::SQuestInstance,std::allocator<CPythonQuest::SQuestInstance> >::capacity, COMDAT
; _this$ = ecx

; 1941 :         auto& _My_data = _Mypair._Myval2;
; 1942 :         return static_cast<size_type>(_My_data._Myend - _My_data._Myfirst);

  00000	8b 41 08	 mov	 eax, DWORD PTR [ecx+8]
  00003	2b 01		 sub	 eax, DWORD PTR [ecx]
  00005	c1 f8 02	 sar	 eax, 2
  00008	69 c0 35 c2 72
	4f		 imul	 eax, eax, 1332920885

; 1943 :     }

  0000e	c3		 ret	 0
?capacity@?$vector@USQuestInstance@CPythonQuest@@V?$allocator@USQuestInstance@CPythonQuest@@@std@@@std@@QBEIXZ ENDP ; std::vector<CPythonQuest::SQuestInstance,std::allocator<CPythonQuest::SQuestInstance> >::capacity
_TEXT	ENDS
; Function compile flags: /Ogtp
; File C:\Program Files\Microsoft Visual Studio\2022\Community\VC\Tools\MSVC\14.34.31933\include\xmemory
;	COMDAT ?max_size@?$_Default_allocator_traits@V?$allocator@USQuestInstance@CPythonQuest@@@std@@@std@@SAIABV?$allocator@USQuestInstance@CPythonQuest@@@2@@Z
_TEXT	SEGMENT
?max_size@?$_Default_allocator_traits@V?$allocator@USQuestInstance@CPythonQuest@@@std@@@std@@SAIABV?$allocator@USQuestInstance@CPythonQuest@@@2@@Z PROC ; std::_Default_allocator_traits<std::allocator<CPythonQuest::SQuestInstance> >::max_size, COMDAT
; ___formal$dead$ = ecx

; 694  :         return static_cast<size_t>(-1) / sizeof(value_type);

  00000	b8 2c f7 34 02	 mov	 eax, 37025580		; 0234f72cH

; 695  :     }

  00005	c3		 ret	 0
?max_size@?$_Default_allocator_traits@V?$allocator@USQuestInstance@CPythonQuest@@@std@@@std@@SAIABV?$allocator@USQuestInstance@CPythonQuest@@@2@@Z ENDP ; std::_Default_allocator_traits<std::allocator<CPythonQuest::SQuestInstance> >::max_size
_TEXT	ENDS
; Function compile flags: /Ogtp
; File C:\Program Files\Microsoft Visual Studio\2022\Community\VC\Tools\MSVC\14.34.31933\include\xmemory
;	COMDAT ?_Get_first@?$_Compressed_pair@V?$allocator@USQuestInstance@CPythonQuest@@@std@@V?$_Vector_val@U?$_Simple_types@USQuestInstance@CPythonQuest@@@std@@@2@$00@std@@QBEABV?$allocator@USQuestInstance@CPythonQuest@@@2@XZ
_TEXT	SEGMENT
?_Get_first@?$_Compressed_pair@V?$allocator@USQuestInstance@CPythonQuest@@@std@@V?$_Vector_val@U?$_Simple_types@USQuestInstance@CPythonQuest@@@std@@@2@$00@std@@QBEABV?$allocator@USQuestInstance@CPythonQuest@@@2@XZ PROC ; std::_Compressed_pair<std::allocator<CPythonQuest::SQuestInstance>,std::_Vector_val<std::_Simple_types<CPythonQuest::SQuestInstance> >,1>::_Get_first, COMDAT
; _this$ = ecx

; 1388 :         return *this;

  00000	8b c1		 mov	 eax, ecx

; 1389 :     }

  00002	c3		 ret	 0
?_Get_first@?$_Compressed_pair@V?$allocator@USQuestInstance@CPythonQuest@@@std@@V?$_Vector_val@U?$_Simple_types@USQuestInstance@CPythonQuest@@@std@@@2@$00@std@@QBEABV?$allocator@USQuestInstance@CPythonQuest@@@2@XZ ENDP ; std::_Compressed_pair<std::allocator<CPythonQuest::SQuestInstance>,std::_Vector_val<std::_Simple_types<CPythonQuest::SQuestInstance> >,1>::_Get_first
_TEXT	ENDS
; Function compile flags: /Ogtp
; File C:\Program Files\Microsoft Visual Studio\2022\Community\VC\Tools\MSVC\14.34.31933\include\type_traits
;	COMDAT ??$forward@AAPAUSQuestInstance@CPythonQuest@@@std@@YAAAPAUSQuestInstance@CPythonQuest@@AAPAU12@@Z
_TEXT	SEGMENT
??$forward@AAPAUSQuestInstance@CPythonQuest@@@std@@YAAAPAUSQuestInstance@CPythonQuest@@AAPAU12@@Z PROC ; std::forward<CPythonQuest::SQuestInstance * &>, COMDAT
; __Arg$ = ecx

; 1426 :     return static_cast<_Ty&&>(_Arg);

  00000	8b c1		 mov	 eax, ecx

; 1427 : }

  00002	c3		 ret	 0
??$forward@AAPAUSQuestInstance@CPythonQuest@@@std@@YAAAPAUSQuestInstance@CPythonQuest@@AAPAU12@@Z ENDP ; std::forward<CPythonQuest::SQuestInstance * &>
_TEXT	ENDS
; Function compile flags: /Ogtp
; File C:\Program Files\Microsoft Visual Studio\2022\Community\VC\Tools\MSVC\14.34.31933\include\xutility
;	COMDAT ??$_Construct_in_place@USQuestInstance@CPythonQuest@@U12@@std@@YAXAAUSQuestInstance@CPythonQuest@@$$QAU12@@Z
_TEXT	SEGMENT
??$_Construct_in_place@USQuestInstance@CPythonQuest@@U12@@std@@YAXAAUSQuestInstance@CPythonQuest@@$$QAU12@@Z PROC ; std::_Construct_in_place<CPythonQuest::SQuestInstance,CPythonQuest::SQuestInstance>, COMDAT
; __Obj$ = ecx
; _<_Args_0>$ = edx

; 225  : #if _HAS_CXX20
; 226  :     if (_STD is_constant_evaluated()) {
; 227  :         _STD construct_at(_STD addressof(_Obj), _STD forward<_Types>(_Args)...);
; 228  :     } else
; 229  : #endif // _HAS_CXX20
; 230  :     {
; 231  :         ::new (_Voidify_iter(_STD addressof(_Obj))) _Ty(_STD forward<_Types>(_Args)...);
; 232  :     }
; 233  : }

  00000	52		 push	 edx
  00001	e8 00 00 00 00	 call	 ??0SQuestInstance@CPythonQuest@@QAE@$$QAU01@@Z
  00006	c3		 ret	 0
??$_Construct_in_place@USQuestInstance@CPythonQuest@@U12@@std@@YAXAAUSQuestInstance@CPythonQuest@@$$QAU12@@Z ENDP ; std::_Construct_in_place<CPythonQuest::SQuestInstance,CPythonQuest::SQuestInstance>
_TEXT	ENDS
; Function compile flags: /Ogtp
; File C:\Program Files\Microsoft Visual Studio\2022\Community\VC\Tools\MSVC\14.34.31933\include\xmemory
;	COMDAT ??$construct@USQuestInstance@CPythonQuest@@U12@@?$_Default_allocator_traits@V?$allocator@USQuestInstance@CPythonQuest@@@std@@@std@@SAXAAV?$allocator@USQuestInstance@CPythonQuest@@@1@QAUSQuestInstance@CPythonQuest@@$$QAU34@@Z
_TEXT	SEGMENT
_<_Args_0>$ = 8						; size = 4
??$construct@USQuestInstance@CPythonQuest@@U12@@?$_Default_allocator_traits@V?$allocator@USQuestInstance@CPythonQuest@@@std@@@std@@SAXAAV?$allocator@USQuestInstance@CPythonQuest@@@1@QAUSQuestInstance@CPythonQuest@@$$QAU34@@Z PROC ; std::_Default_allocator_traits<std::allocator<CPythonQuest::SQuestInstance> >::construct<CPythonQuest::SQuestInstance,CPythonQuest::SQuestInstance>, COMDAT
; ___formal$dead$ = ecx
; __Ptr$ = edx

; 673  :     static _CONSTEXPR20 void construct(_Alloc&, _Objty* const _Ptr, _Types&&... _Args) {

  00000	55		 push	 ebp
  00001	8b ec		 mov	 ebp, esp

; 674  : #if _HAS_CXX20
; 675  :         if (_STD is_constant_evaluated()) {
; 676  :             _STD construct_at(_Ptr, _STD forward<_Types>(_Args)...);
; 677  :         } else
; 678  : #endif // _HAS_CXX20
; 679  :         {
; 680  :             ::new (_Voidify_iter(_Ptr)) _Objty(_STD forward<_Types>(_Args)...);
; 681  :         }
; 682  :     }

  00003	ff 75 08	 push	 DWORD PTR _<_Args_0>$[ebp]
  00006	8b ca		 mov	 ecx, edx
  00008	e8 00 00 00 00	 call	 ??0SQuestInstance@CPythonQuest@@QAE@$$QAU01@@Z
  0000d	5d		 pop	 ebp
  0000e	c3		 ret	 0
??$construct@USQuestInstance@CPythonQuest@@U12@@?$_Default_allocator_traits@V?$allocator@USQuestInstance@CPythonQuest@@@std@@@std@@SAXAAV?$allocator@USQuestInstance@CPythonQuest@@@1@QAUSQuestInstance@CPythonQuest@@$$QAU34@@Z ENDP ; std::_Default_allocator_traits<std::allocator<CPythonQuest::SQuestInstance> >::construct<CPythonQuest::SQuestInstance,CPythonQuest::SQuestInstance>
_TEXT	ENDS
; Function compile flags: /Ogtp
; File C:\Program Files\Microsoft Visual Studio\2022\Community\VC\Tools\MSVC\14.34.31933\include\xutility
;	COMDAT ??$_Get_unwrapped@ABQAUSQuestInstance@CPythonQuest@@@std@@YA?A_TABQAUSQuestInstance@CPythonQuest@@@Z
_TEXT	SEGMENT
??$_Get_unwrapped@ABQAUSQuestInstance@CPythonQuest@@@std@@YA?A_TABQAUSQuestInstance@CPythonQuest@@@Z PROC ; std::_Get_unwrapped<CPythonQuest::SQuestInstance * const &>, COMDAT
; __It$ = ecx

; 912  :     // unwrap an iterator previously subjected to _Adl_verify_range or otherwise validated
; 913  :     if constexpr (is_pointer_v<decay_t<_Iter>>) { // special-case pointers and arrays
; 914  :         return _It + 0;

  00000	8b 01		 mov	 eax, DWORD PTR [ecx]

; 915  :     } else if constexpr (_Unwrappable_v<_Iter>) {
; 916  :         return static_cast<_Iter&&>(_It)._Unwrapped();
; 917  :     } else {
; 918  :         return static_cast<_Iter&&>(_It);
; 919  :     }
; 920  : }

  00002	c3		 ret	 0
??$_Get_unwrapped@ABQAUSQuestInstance@CPythonQuest@@@std@@YA?A_TABQAUSQuestInstance@CPythonQuest@@@Z ENDP ; std::_Get_unwrapped<CPythonQuest::SQuestInstance * const &>
_TEXT	ENDS
; Function compile flags: /Ogtp
; File C:\Program Files\Microsoft Visual Studio\2022\Community\VC\Tools\MSVC\14.34.31933\include\xmemory
;	COMDAT ??$_Uninitialized_move@PAUSQuestInstance@CPythonQuest@@V?$allocator@USQuestInstance@CPythonQuest@@@std@@@std@@YAPAUSQuestInstance@CPythonQuest@@QAU12@0PAU12@AAV?$allocator@USQuestInstance@CPythonQuest@@@0@@Z
_TEXT	SEGMENT
__Dest$ = 8						; size = 4
__Al$dead$ = 12						; size = 4
??$_Uninitialized_move@PAUSQuestInstance@CPythonQuest@@V?$allocator@USQuestInstance@CPythonQuest@@@std@@@std@@YAPAUSQuestInstance@CPythonQuest@@QAU12@0PAU12@AAV?$allocator@USQuestInstance@CPythonQuest@@@0@@Z PROC ; std::_Uninitialized_move<CPythonQuest::SQuestInstance *,std::allocator<CPythonQuest::SQuestInstance> >, COMDAT
; __First$ = ecx
; __Last$ = edx

; 1788 :     const _InIt _First, const _InIt _Last, _Alloc_ptr_t<_Alloc> _Dest, _Alloc& _Al) {

  00000	55		 push	 ebp
  00001	8b ec		 mov	 ebp, esp
  00003	56		 push	 esi
  00004	57		 push	 edi
  00005	8b f1		 mov	 esi, ecx
  00007	8b fa		 mov	 edi, edx

; 1652 :     _CONSTEXPR20 _Uninitialized_backout_al(pointer _Dest, _Alloc& _Al_) : _First(_Dest), _Last(_Dest), _Al(_Al_) {}

  00009	8b 4d 08	 mov	 ecx, DWORD PTR __Dest$[ebp]

; 1789 :     // move [_First, _Last) to raw _Dest, using _Al
; 1790 :     // note: only called internally from elsewhere in the STL
; 1791 :     using _Ptrval     = typename _Alloc::value_type*;
; 1792 :     auto _UFirst      = _Get_unwrapped(_First);
; 1793 :     const auto _ULast = _Get_unwrapped(_Last);
; 1794 :     if constexpr (conjunction_v<bool_constant<_Iter_move_cat<decltype(_UFirst), _Ptrval>::_Bitcopy_constructible>,
; 1795 :                       _Uses_default_construct<_Alloc, _Ptrval, decltype(_STD move(*_UFirst))>>) {
; 1796 : #if _HAS_CXX20
; 1797 :         if (!_STD is_constant_evaluated())
; 1798 : #endif // _HAS_CXX20
; 1799 :         {
; 1800 :             _Copy_memmove(_UFirst, _ULast, _Unfancy(_Dest));
; 1801 :             return _Dest + (_ULast - _UFirst);
; 1802 :         }
; 1803 :     }
; 1804 : 
; 1805 :     _Uninitialized_backout_al<_Alloc> _Backout{_Dest, _Al};
; 1806 :     for (; _UFirst != _ULast; ++_UFirst) {

  0000c	3b f7		 cmp	 esi, edi
  0000e	74 10		 je	 SHORT $LN40@Uninitiali
$LL4@Uninitiali:

; 1664 :         ++_Last;

  00010	56		 push	 esi
  00011	e8 00 00 00 00	 call	 ??0SQuestInstance@CPythonQuest@@QAE@$$QAU01@@Z
  00016	83 c6 74	 add	 esi, 116		; 00000074H
  00019	83 c1 74	 add	 ecx, 116		; 00000074H

; 1789 :     // move [_First, _Last) to raw _Dest, using _Al
; 1790 :     // note: only called internally from elsewhere in the STL
; 1791 :     using _Ptrval     = typename _Alloc::value_type*;
; 1792 :     auto _UFirst      = _Get_unwrapped(_First);
; 1793 :     const auto _ULast = _Get_unwrapped(_Last);
; 1794 :     if constexpr (conjunction_v<bool_constant<_Iter_move_cat<decltype(_UFirst), _Ptrval>::_Bitcopy_constructible>,
; 1795 :                       _Uses_default_construct<_Alloc, _Ptrval, decltype(_STD move(*_UFirst))>>) {
; 1796 : #if _HAS_CXX20
; 1797 :         if (!_STD is_constant_evaluated())
; 1798 : #endif // _HAS_CXX20
; 1799 :         {
; 1800 :             _Copy_memmove(_UFirst, _ULast, _Unfancy(_Dest));
; 1801 :             return _Dest + (_ULast - _UFirst);
; 1802 :         }
; 1803 :     }
; 1804 : 
; 1805 :     _Uninitialized_backout_al<_Alloc> _Backout{_Dest, _Al};
; 1806 :     for (; _UFirst != _ULast; ++_UFirst) {

  0001c	3b f7		 cmp	 esi, edi
  0001e	75 f0		 jne	 SHORT $LL4@Uninitiali
$LN40@Uninitiali:
  00020	5f		 pop	 edi

; 1807 :         _Backout._Emplace_back(_STD move(*_UFirst));
; 1808 :     }
; 1809 : 
; 1810 :     return _Backout._Release();
; 1811 : }

  00021	8b c1		 mov	 eax, ecx
  00023	5e		 pop	 esi
  00024	5d		 pop	 ebp
  00025	c3		 ret	 0
??$_Uninitialized_move@PAUSQuestInstance@CPythonQuest@@V?$allocator@USQuestInstance@CPythonQuest@@@std@@@std@@YAPAUSQuestInstance@CPythonQuest@@QAU12@0PAU12@AAV?$allocator@USQuestInstance@CPythonQuest@@@0@@Z ENDP ; std::_Uninitialized_move<CPythonQuest::SQuestInstance *,std::allocator<CPythonQuest::SQuestInstance> >
_TEXT	ENDS
; Function compile flags: /Ogtp
; File C:\Program Files\Microsoft Visual Studio\2022\Community\VC\Tools\MSVC\14.34.31933\include\xmemory
;	COMDAT ??$construct@USQuestInstance@CPythonQuest@@ABU12@@?$_Default_allocator_traits@V?$allocator@USQuestInstance@CPythonQuest@@@std@@@std@@SAXAAV?$allocator@USQuestInstance@CPythonQuest@@@1@QAUSQuestInstance@CPythonQuest@@ABU34@@Z
_TEXT	SEGMENT
_<_Args_0>$ = 8						; size = 4
??$construct@USQuestInstance@CPythonQuest@@ABU12@@?$_Default_allocator_traits@V?$allocator@USQuestInstance@CPythonQuest@@@std@@@std@@SAXAAV?$allocator@USQuestInstance@CPythonQuest@@@1@QAUSQuestInstance@CPythonQuest@@ABU34@@Z PROC ; std::_Default_allocator_traits<std::allocator<CPythonQuest::SQuestInstance> >::construct<CPythonQuest::SQuestInstance,CPythonQuest::SQuestInstance const &>, COMDAT
; ___formal$dead$ = ecx
; __Ptr$ = edx

; 673  :     static _CONSTEXPR20 void construct(_Alloc&, _Objty* const _Ptr, _Types&&... _Args) {

  00000	55		 push	 ebp
  00001	8b ec		 mov	 ebp, esp

; 674  : #if _HAS_CXX20
; 675  :         if (_STD is_constant_evaluated()) {
; 676  :             _STD construct_at(_Ptr, _STD forward<_Types>(_Args)...);
; 677  :         } else
; 678  : #endif // _HAS_CXX20
; 679  :         {
; 680  :             ::new (_Voidify_iter(_Ptr)) _Objty(_STD forward<_Types>(_Args)...);
; 681  :         }
; 682  :     }

  00003	ff 75 08	 push	 DWORD PTR _<_Args_0>$[ebp]
  00006	8b ca		 mov	 ecx, edx
  00008	e8 00 00 00 00	 call	 ??0SQuestInstance@CPythonQuest@@QAE@ABU01@@Z
  0000d	5d		 pop	 ebp
  0000e	c3		 ret	 0
??$construct@USQuestInstance@CPythonQuest@@ABU12@@?$_Default_allocator_traits@V?$allocator@USQuestInstance@CPythonQuest@@@std@@@std@@SAXAAV?$allocator@USQuestInstance@CPythonQuest@@@1@QAUSQuestInstance@CPythonQuest@@ABU34@@Z ENDP ; std::_Default_allocator_traits<std::allocator<CPythonQuest::SQuestInstance> >::construct<CPythonQuest::SQuestInstance,CPythonQuest::SQuestInstance const &>
_TEXT	ENDS
; Function compile flags: /Ogtp
; File C:\Program Files\Microsoft Visual Studio\2022\Community\VC\Tools\MSVC\14.34.31933\include\xmemory
;	COMDAT ??$_Refancy@PAUSQuestInstance@CPythonQuest@@$0A@@std@@YAPAUSQuestInstance@CPythonQuest@@PAU12@@Z
_TEXT	SEGMENT
??$_Refancy@PAUSQuestInstance@CPythonQuest@@$0A@@std@@YAPAUSQuestInstance@CPythonQuest@@PAU12@@Z PROC ; std::_Refancy<CPythonQuest::SQuestInstance *,0>, COMDAT
; __Ptr$ = ecx

; 287  :     return _Ptr;

  00000	8b c1		 mov	 eax, ecx

; 288  : }

  00002	c3		 ret	 0
??$_Refancy@PAUSQuestInstance@CPythonQuest@@$0A@@std@@YAPAUSQuestInstance@CPythonQuest@@PAU12@@Z ENDP ; std::_Refancy<CPythonQuest::SQuestInstance *,0>
_TEXT	ENDS
; Function compile flags: /Ogtp
; File C:\Program Files\Microsoft Visual Studio\2022\Community\VC\Tools\MSVC\14.34.31933\include\xmemory
;	COMDAT ??$_Get_size_of_n@$0HE@@std@@YAII@Z
_TEXT	SEGMENT
??$_Get_size_of_n@$0HE@@std@@YAII@Z PROC		; std::_Get_size_of_n<116>, COMDAT
; __Count$ = ecx

; 56   :     constexpr bool _Overflow_is_possible = _Ty_size > 1;
; 57   : 
; 58   :     if constexpr (_Overflow_is_possible) {
; 59   :         constexpr size_t _Max_possible = static_cast<size_t>(-1) / _Ty_size;
; 60   :         if (_Count > _Max_possible) {

  00000	81 f9 2c f7 34
	02		 cmp	 ecx, 37025580		; 0234f72cH
  00006	0f 87 00 00 00
	00		 ja	 ?_Throw_bad_array_new_length@std@@YAXXZ ; std::_Throw_bad_array_new_length

; 61   :             _Throw_bad_array_new_length(); // multiply overflow
; 62   :         }
; 63   :     }
; 64   : 
; 65   :     return _Count * _Ty_size;

  0000c	6b c1 74	 imul	 eax, ecx, 116

; 66   : }

  0000f	c3		 ret	 0
??$_Get_size_of_n@$0HE@@std@@YAII@Z ENDP		; std::_Get_size_of_n<116>
_TEXT	ENDS
; Function compile flags: /Ogtp
; File C:\Program Files\Microsoft Visual Studio\2022\Community\VC\Tools\MSVC\14.34.31933\include\xmemory
; File C:\Program Files\Microsoft Visual Studio\2022\Community\VC\Tools\MSVC\14.34.31933\include\xstring
; File C:\Program Files\Microsoft Visual Studio\2022\Community\VC\Tools\MSVC\14.34.31933\include\xmemory
; File C:\Program Files\Microsoft Visual Studio\2022\Community\VC\Tools\MSVC\14.34.31933\include\xstring
; File C:\Program Files\Microsoft Visual Studio\2022\Community\VC\Tools\MSVC\14.34.31933\include\xmemory
; File C:\Program Files\Microsoft Visual Studio\2022\Community\VC\Tools\MSVC\14.34.31933\include\xstring
; File C:\Program Files\Microsoft Visual Studio\2022\Community\VC\Tools\MSVC\14.34.31933\include\xmemory
; File C:\Program Files\Microsoft Visual Studio\2022\Community\VC\Tools\MSVC\14.34.31933\include\xstring
;	COMDAT ??0SQuestInstance@CPythonQuest@@QAE@$$QAU01@@Z
_TEXT	SEGMENT
___that$ = 8						; size = 4
??0SQuestInstance@CPythonQuest@@QAE@$$QAU01@@Z PROC	; CPythonQuest::SQuestInstance::SQuestInstance, COMDAT
; _this$ = ecx
  00000	55		 push	 ebp
  00001	8b ec		 mov	 ebp, esp
; File C:\Program Files\Microsoft Visual Studio\2022\Community\VC\Tools\MSVC\14.34.31933\include\xmemory

; 1381 :         : _Ty1(_STD forward<_Other1>(_Val1)), _Myval2(_STD forward<_Other2>(_Val2)...) {}

  00003	8b 55 08	 mov	 edx, DWORD PTR ___that$[ebp]
  00006	0f 57 c0	 xorps	 xmm0, xmm0
  00009	8b 02		 mov	 eax, DWORD PTR [edx]
  0000b	89 01		 mov	 DWORD PTR [ecx], eax
; File C:\Program Files\Microsoft Visual Studio\2022\Community\VC\Tools\MSVC\14.34.31933\include\xstring

; 2339 :         _CONSTEXPR20 _Bxty() noexcept : _Buf() {} // user-provided, for fancy pointers

  0000d	0f 11 41 04	 movups	 XMMWORD PTR [ecx+4], xmm0

; 2348 :     size_type _Mysize = 0; // current length of string

  00011	c7 41 14 00 00
	00 00		 mov	 DWORD PTR [ecx+20], 0

; 2349 :     size_type _Myres  = 0; // current storage reserved for string

  00018	c7 41 18 00 00
	00 00		 mov	 DWORD PTR [ecx+24], 0

; 3137 :         _CSTD memcpy(_My_data_mem, _Right_data_mem, _Memcpy_val_size);

  0001f	0f 10 42 04	 movups	 xmm0, XMMWORD PTR [edx+4]
  00023	0f 11 41 04	 movups	 XMMWORD PTR [ecx+4], xmm0
  00027	f3 0f 7e 42 14	 movq	 xmm0, QWORD PTR [edx+20]
  0002c	66 0f d6 41 14	 movq	 QWORD PTR [ecx+20], xmm0
  00031	0f 57 c0	 xorps	 xmm0, xmm0
; File C:\Program Files\Microsoft Visual Studio\2022\Community\VC\Tools\MSVC\14.34.31933\include\xmemory

; 1381 :         : _Ty1(_STD forward<_Other1>(_Val1)), _Myval2(_STD forward<_Other2>(_Val2)...) {}

  00034	c7 42 14 00 00
	00 00		 mov	 DWORD PTR [edx+20], 0
  0003b	c7 42 18 0f 00
	00 00		 mov	 DWORD PTR [edx+24], 15	; 0000000fH
  00042	c6 42 04 00	 mov	 BYTE PTR [edx+4], 0
; File C:\Program Files\Microsoft Visual Studio\2022\Community\VC\Tools\MSVC\14.34.31933\include\xstring

; 2339 :         _CONSTEXPR20 _Bxty() noexcept : _Buf() {} // user-provided, for fancy pointers

  00046	0f 11 41 1c	 movups	 XMMWORD PTR [ecx+28], xmm0

; 2348 :     size_type _Mysize = 0; // current length of string

  0004a	c7 41 2c 00 00
	00 00		 mov	 DWORD PTR [ecx+44], 0

; 2349 :     size_type _Myres  = 0; // current storage reserved for string

  00051	c7 41 30 00 00
	00 00		 mov	 DWORD PTR [ecx+48], 0

; 3137 :         _CSTD memcpy(_My_data_mem, _Right_data_mem, _Memcpy_val_size);

  00058	0f 10 42 1c	 movups	 xmm0, XMMWORD PTR [edx+28]
  0005c	0f 11 41 1c	 movups	 XMMWORD PTR [ecx+28], xmm0
  00060	f3 0f 7e 42 2c	 movq	 xmm0, QWORD PTR [edx+44]
  00065	66 0f d6 41 2c	 movq	 QWORD PTR [ecx+44], xmm0
  0006a	0f 57 c0	 xorps	 xmm0, xmm0
; File C:\Program Files\Microsoft Visual Studio\2022\Community\VC\Tools\MSVC\14.34.31933\include\xmemory

; 1381 :         : _Ty1(_STD forward<_Other1>(_Val1)), _Myval2(_STD forward<_Other2>(_Val2)...) {}

  0006d	c7 42 2c 00 00
	00 00		 mov	 DWORD PTR [edx+44], 0
  00074	c7 42 30 0f 00
	00 00		 mov	 DWORD PTR [edx+48], 15	; 0000000fH
  0007b	c6 42 1c 00	 mov	 BYTE PTR [edx+28], 0
; File C:\Program Files\Microsoft Visual Studio\2022\Community\VC\Tools\MSVC\14.34.31933\include\xstring

; 2339 :         _CONSTEXPR20 _Bxty() noexcept : _Buf() {} // user-provided, for fancy pointers

  0007f	0f 11 41 34	 movups	 XMMWORD PTR [ecx+52], xmm0

; 2348 :     size_type _Mysize = 0; // current length of string

  00083	c7 41 44 00 00
	00 00		 mov	 DWORD PTR [ecx+68], 0

; 2349 :     size_type _Myres  = 0; // current storage reserved for string

  0008a	c7 41 48 00 00
	00 00		 mov	 DWORD PTR [ecx+72], 0

; 3137 :         _CSTD memcpy(_My_data_mem, _Right_data_mem, _Memcpy_val_size);

  00091	0f 10 42 34	 movups	 xmm0, XMMWORD PTR [edx+52]
  00095	0f 11 41 34	 movups	 XMMWORD PTR [ecx+52], xmm0
  00099	f3 0f 7e 42 44	 movq	 xmm0, QWORD PTR [edx+68]
  0009e	66 0f d6 41 44	 movq	 QWORD PTR [ecx+68], xmm0
  000a3	0f 57 c0	 xorps	 xmm0, xmm0
; File C:\Program Files\Microsoft Visual Studio\2022\Community\VC\Tools\MSVC\14.34.31933\include\xmemory

; 1381 :         : _Ty1(_STD forward<_Other1>(_Val1)), _Myval2(_STD forward<_Other2>(_Val2)...) {}

  000a6	c7 42 44 00 00
	00 00		 mov	 DWORD PTR [edx+68], 0
  000ad	c7 42 48 0f 00
	00 00		 mov	 DWORD PTR [edx+72], 15	; 0000000fH
  000b4	c6 42 34 00	 mov	 BYTE PTR [edx+52], 0
; File C:\Program Files\Microsoft Visual Studio\2022\Community\VC\Tools\MSVC\14.34.31933\include\xstring

; 2339 :         _CONSTEXPR20 _Bxty() noexcept : _Buf() {} // user-provided, for fancy pointers

  000b8	0f 11 41 4c	 movups	 XMMWORD PTR [ecx+76], xmm0

; 2348 :     size_type _Mysize = 0; // current length of string

  000bc	c7 41 5c 00 00
	00 00		 mov	 DWORD PTR [ecx+92], 0

; 2349 :     size_type _Myres  = 0; // current storage reserved for string

  000c3	c7 41 60 00 00
	00 00		 mov	 DWORD PTR [ecx+96], 0

; 3137 :         _CSTD memcpy(_My_data_mem, _Right_data_mem, _Memcpy_val_size);

  000ca	0f 10 42 4c	 movups	 xmm0, XMMWORD PTR [edx+76]
  000ce	0f 11 41 4c	 movups	 XMMWORD PTR [ecx+76], xmm0
  000d2	f3 0f 7e 42 5c	 movq	 xmm0, QWORD PTR [edx+92]
  000d7	66 0f d6 41 5c	 movq	 QWORD PTR [ecx+92], xmm0
  000dc	c7 42 5c 00 00
	00 00		 mov	 DWORD PTR [edx+92], 0
  000e3	c7 42 60 0f 00
	00 00		 mov	 DWORD PTR [edx+96], 15	; 0000000fH
  000ea	c6 42 4c 00	 mov	 BYTE PTR [edx+76], 0
  000ee	8b 42 64	 mov	 eax, DWORD PTR [edx+100]
  000f1	89 41 64	 mov	 DWORD PTR [ecx+100], eax
  000f4	8b 42 68	 mov	 eax, DWORD PTR [edx+104]
  000f7	89 41 68	 mov	 DWORD PTR [ecx+104], eax
  000fa	8b 42 6c	 mov	 eax, DWORD PTR [edx+108]
  000fd	89 41 6c	 mov	 DWORD PTR [ecx+108], eax
  00100	0f b6 42 70	 movzx	 eax, BYTE PTR [edx+112]
  00104	88 41 70	 mov	 BYTE PTR [ecx+112], al
  00107	0f b6 42 71	 movzx	 eax, BYTE PTR [edx+113]
  0010b	88 41 71	 mov	 BYTE PTR [ecx+113], al
  0010e	8b c1		 mov	 eax, ecx
  00110	5d		 pop	 ebp
  00111	c2 04 00	 ret	 4
??0SQuestInstance@CPythonQuest@@QAE@$$QAU01@@Z ENDP	; CPythonQuest::SQuestInstance::SQuestInstance
_TEXT	ENDS
; Function compile flags: /Ogtp
;	COMDAT ??0SQuestInstance@CPythonQuest@@QAE@ABU01@@Z
_TEXT	SEGMENT
_this$ = -16						; size = 4
__$EHRec$ = -12						; size = 12
___that$ = 8						; size = 4
??0SQuestInstance@CPythonQuest@@QAE@ABU01@@Z PROC	; CPythonQuest::SQuestInstance::SQuestInstance, COMDAT
; _this$ = ecx
  00000	55		 push	 ebp
  00001	8b ec		 mov	 ebp, esp
  00003	6a ff		 push	 -1
  00005	68 00 00 00 00	 push	 __ehhandler$??0SQuestInstance@CPythonQuest@@QAE@ABU01@@Z
  0000a	64 a1 00 00 00
	00		 mov	 eax, DWORD PTR fs:0
  00010	50		 push	 eax
  00011	51		 push	 ecx
  00012	56		 push	 esi
  00013	57		 push	 edi
  00014	a1 00 00 00 00	 mov	 eax, DWORD PTR ___security_cookie
  00019	33 c5		 xor	 eax, ebp
  0001b	50		 push	 eax
  0001c	8d 45 f4	 lea	 eax, DWORD PTR __$EHRec$[ebp]
  0001f	64 a3 00 00 00
	00		 mov	 DWORD PTR fs:0, eax
  00025	8b f9		 mov	 edi, ecx
  00027	89 7d f0	 mov	 DWORD PTR _this$[ebp], edi
  0002a	8b 75 08	 mov	 esi, DWORD PTR ___that$[ebp]
  0002d	8d 4f 04	 lea	 ecx, DWORD PTR [edi+4]
  00030	8b 06		 mov	 eax, DWORD PTR [esi]
  00032	89 07		 mov	 DWORD PTR [edi], eax
  00034	8d 46 04	 lea	 eax, DWORD PTR [esi+4]
  00037	50		 push	 eax
  00038	e8 00 00 00 00	 call	 ??0?$basic_string@DU?$char_traits@D@std@@V?$allocator@D@2@@std@@QAE@ABV01@@Z ; std::basic_string<char,std::char_traits<char>,std::allocator<char> >::basic_string<char,std::char_traits<char>,std::allocator<char> >
  0003d	8d 46 1c	 lea	 eax, DWORD PTR [esi+28]
  00040	c7 45 fc 00 00
	00 00		 mov	 DWORD PTR __$EHRec$[ebp+8], 0
  00047	8d 4f 1c	 lea	 ecx, DWORD PTR [edi+28]
  0004a	50		 push	 eax
  0004b	e8 00 00 00 00	 call	 ??0?$basic_string@DU?$char_traits@D@std@@V?$allocator@D@2@@std@@QAE@ABV01@@Z ; std::basic_string<char,std::char_traits<char>,std::allocator<char> >::basic_string<char,std::char_traits<char>,std::allocator<char> >
  00050	8d 46 34	 lea	 eax, DWORD PTR [esi+52]
  00053	c6 45 fc 01	 mov	 BYTE PTR __$EHRec$[ebp+8], 1
  00057	8d 4f 34	 lea	 ecx, DWORD PTR [edi+52]
  0005a	50		 push	 eax
  0005b	e8 00 00 00 00	 call	 ??0?$basic_string@DU?$char_traits@D@std@@V?$allocator@D@2@@std@@QAE@ABV01@@Z ; std::basic_string<char,std::char_traits<char>,std::allocator<char> >::basic_string<char,std::char_traits<char>,std::allocator<char> >
  00060	8d 46 4c	 lea	 eax, DWORD PTR [esi+76]
  00063	c6 45 fc 02	 mov	 BYTE PTR __$EHRec$[ebp+8], 2
  00067	50		 push	 eax
  00068	8d 4f 4c	 lea	 ecx, DWORD PTR [edi+76]
  0006b	e8 00 00 00 00	 call	 ??0?$basic_string@DU?$char_traits@D@std@@V?$allocator@D@2@@std@@QAE@ABV01@@Z ; std::basic_string<char,std::char_traits<char>,std::allocator<char> >::basic_string<char,std::char_traits<char>,std::allocator<char> >
  00070	8b 46 64	 mov	 eax, DWORD PTR [esi+100]
  00073	89 47 64	 mov	 DWORD PTR [edi+100], eax
  00076	8b 46 68	 mov	 eax, DWORD PTR [esi+104]
  00079	89 47 68	 mov	 DWORD PTR [edi+104], eax
  0007c	8b 46 6c	 mov	 eax, DWORD PTR [esi+108]
  0007f	89 47 6c	 mov	 DWORD PTR [edi+108], eax
  00082	0f b6 46 70	 movzx	 eax, BYTE PTR [esi+112]
  00086	88 47 70	 mov	 BYTE PTR [edi+112], al
  00089	0f b6 46 71	 movzx	 eax, BYTE PTR [esi+113]
  0008d	88 47 71	 mov	 BYTE PTR [edi+113], al
  00090	8b c7		 mov	 eax, edi
  00092	8b 4d f4	 mov	 ecx, DWORD PTR __$EHRec$[ebp]
  00095	64 89 0d 00 00
	00 00		 mov	 DWORD PTR fs:0, ecx
  0009c	59		 pop	 ecx
  0009d	5f		 pop	 edi
  0009e	5e		 pop	 esi
  0009f	8b e5		 mov	 esp, ebp
  000a1	5d		 pop	 ebp
  000a2	c2 04 00	 ret	 4
_TEXT	ENDS
;	COMDAT text$x
text$x	SEGMENT
__unwindfunclet$??0SQuestInstance@CPythonQuest@@QAE@ABU01@@Z$0:
  00000	8b 4d f0	 mov	 ecx, DWORD PTR _this$[ebp]
  00003	83 c1 04	 add	 ecx, 4
  00006	e9 00 00 00 00	 jmp	 ??1?$basic_string@DU?$char_traits@D@std@@V?$allocator@D@2@@std@@QAE@XZ ; std::basic_string<char,std::char_traits<char>,std::allocator<char> >::~basic_string<char,std::char_traits<char>,std::allocator<char> >
__unwindfunclet$??0SQuestInstance@CPythonQuest@@QAE@ABU01@@Z$1:
  0000b	8b 4d f0	 mov	 ecx, DWORD PTR _this$[ebp]
  0000e	83 c1 1c	 add	 ecx, 28			; 0000001cH
  00011	e9 00 00 00 00	 jmp	 ??1?$basic_string@DU?$char_traits@D@std@@V?$allocator@D@2@@std@@QAE@XZ ; std::basic_string<char,std::char_traits<char>,std::allocator<char> >::~basic_string<char,std::char_traits<char>,std::allocator<char> >
__unwindfunclet$??0SQuestInstance@CPythonQuest@@QAE@ABU01@@Z$2:
  00016	8b 4d f0	 mov	 ecx, DWORD PTR _this$[ebp]
  00019	83 c1 34	 add	 ecx, 52			; 00000034H
  0001c	e9 00 00 00 00	 jmp	 ??1?$basic_string@DU?$char_traits@D@std@@V?$allocator@D@2@@std@@QAE@XZ ; std::basic_string<char,std::char_traits<char>,std::allocator<char> >::~basic_string<char,std::char_traits<char>,std::allocator<char> >
  00021	cc		 int	 3
  00022	cc		 int	 3
  00023	cc		 int	 3
  00024	cc		 int	 3
  00025	cc		 int	 3
__ehhandler$??0SQuestInstance@CPythonQuest@@QAE@ABU01@@Z:
  00026	90		 npad	 1
  00027	90		 npad	 1
  00028	8b 54 24 08	 mov	 edx, DWORD PTR [esp+8]
  0002c	8d 42 0c	 lea	 eax, DWORD PTR [edx+12]
  0002f	8b 4a f0	 mov	 ecx, DWORD PTR [edx-16]
  00032	33 c8		 xor	 ecx, eax
  00034	e8 00 00 00 00	 call	 @__security_check_cookie@4
  00039	b8 00 00 00 00	 mov	 eax, OFFSET __ehfuncinfo$??0SQuestInstance@CPythonQuest@@QAE@ABU01@@Z
  0003e	e9 00 00 00 00	 jmp	 ___CxxFrameHandler3
text$x	ENDS
??0SQuestInstance@CPythonQuest@@QAE@ABU01@@Z ENDP	; CPythonQuest::SQuestInstance::SQuestInstance
; Function compile flags: /Ogtp
; File C:\Program Files\Microsoft Visual Studio\2022\Community\VC\Tools\MSVC\14.34.31933\include\xmemory
;	COMDAT ?_Release@?$_Uninitialized_backout_al@V?$allocator@USQuestInstance@CPythonQuest@@@std@@@std@@QAEPAUSQuestInstance@CPythonQuest@@XZ
_TEXT	SEGMENT
?_Release@?$_Uninitialized_backout_al@V?$allocator@USQuestInstance@CPythonQuest@@@std@@@std@@QAEPAUSQuestInstance@CPythonQuest@@XZ PROC ; std::_Uninitialized_backout_al<std::allocator<CPythonQuest::SQuestInstance> >::_Release, COMDAT
; _this$ = ecx

; 1668 :         _First = _Last;

  00000	8b 41 04	 mov	 eax, DWORD PTR [ecx+4]
  00003	89 01		 mov	 DWORD PTR [ecx], eax

; 1669 :         return _Last;
; 1670 :     }

  00005	c3		 ret	 0
?_Release@?$_Uninitialized_backout_al@V?$allocator@USQuestInstance@CPythonQuest@@@std@@@std@@QAEPAUSQuestInstance@CPythonQuest@@XZ ENDP ; std::_Uninitialized_backout_al<std::allocator<CPythonQuest::SQuestInstance> >::_Release
_TEXT	ENDS
; Function compile flags: /Ogtp
; File C:\Program Files\Microsoft Visual Studio\2022\Community\VC\Tools\MSVC\14.34.31933\include\xmemory
;	COMDAT ??1?$_Uninitialized_backout_al@V?$allocator@USQuestInstance@CPythonQuest@@@std@@@std@@QAE@XZ
_TEXT	SEGMENT
??1?$_Uninitialized_backout_al@V?$allocator@USQuestInstance@CPythonQuest@@@std@@@std@@QAE@XZ PROC ; std::_Uninitialized_backout_al<std::allocator<CPythonQuest::SQuestInstance> >::~_Uninitialized_backout_al<std::allocator<CPythonQuest::SQuestInstance> >, COMDAT
; _this$ = ecx

; 1657 :     _CONSTEXPR20 ~_Uninitialized_backout_al() {

  00000	56		 push	 esi

; 1658 :         _Destroy_range(_First, _Last, _Al);

  00001	8b 31		 mov	 esi, DWORD PTR [ecx]
  00003	57		 push	 edi
  00004	8b 79 04	 mov	 edi, DWORD PTR [ecx+4]

; 947  :         for (; _First != _Last; ++_First) {

  00007	3b f7		 cmp	 esi, edi
  00009	74 13		 je	 SHORT $LN5@Uninitiali
  0000b	0f 1f 44 00 00	 npad	 5
$LL6@Uninitiali:
  00010	8b ce		 mov	 ecx, esi
  00012	e8 00 00 00 00	 call	 ??1SQuestInstance@CPythonQuest@@QAE@XZ
  00017	83 c6 74	 add	 esi, 116		; 00000074H
  0001a	3b f7		 cmp	 esi, edi
  0001c	75 f2		 jne	 SHORT $LL6@Uninitiali
$LN5@Uninitiali:
  0001e	5f		 pop	 edi

; 1659 :     }

  0001f	5e		 pop	 esi
  00020	c3		 ret	 0
??1?$_Uninitialized_backout_al@V?$allocator@USQuestInstance@CPythonQuest@@@std@@@std@@QAE@XZ ENDP ; std::_Uninitialized_backout_al<std::allocator<CPythonQuest::SQuestInstance> >::~_Uninitialized_backout_al<std::allocator<CPythonQuest::SQuestInstance> >
_TEXT	ENDS
; Function compile flags: /Ogtp
; File C:\Program Files\Microsoft Visual Studio\2022\Community\VC\Tools\MSVC\14.34.31933\include\xmemory
;	COMDAT ??0?$_Uninitialized_backout_al@V?$allocator@USQuestInstance@CPythonQuest@@@std@@@std@@QAE@PAUSQuestInstance@CPythonQuest@@AAV?$allocator@USQuestInstance@CPythonQuest@@@1@@Z
_TEXT	SEGMENT
__Dest$ = 8						; size = 4
__Al_$ = 12						; size = 4
??0?$_Uninitialized_backout_al@V?$allocator@USQuestInstance@CPythonQuest@@@std@@@std@@QAE@PAUSQuestInstance@CPythonQuest@@AAV?$allocator@USQuestInstance@CPythonQuest@@@1@@Z PROC ; std::_Uninitialized_backout_al<std::allocator<CPythonQuest::SQuestInstance> >::_Uninitialized_backout_al<std::allocator<CPythonQuest::SQuestInstance> >, COMDAT
; _this$ = ecx

; 1652 :     _CONSTEXPR20 _Uninitialized_backout_al(pointer _Dest, _Alloc& _Al_) : _First(_Dest), _Last(_Dest), _Al(_Al_) {}

  00000	55		 push	 ebp
  00001	8b ec		 mov	 ebp, esp
  00003	8b 45 08	 mov	 eax, DWORD PTR __Dest$[ebp]
  00006	89 01		 mov	 DWORD PTR [ecx], eax
  00008	89 41 04	 mov	 DWORD PTR [ecx+4], eax
  0000b	8b 45 0c	 mov	 eax, DWORD PTR __Al_$[ebp]
  0000e	89 41 08	 mov	 DWORD PTR [ecx+8], eax
  00011	8b c1		 mov	 eax, ecx
  00013	5d		 pop	 ebp
  00014	c2 08 00	 ret	 8
??0?$_Uninitialized_backout_al@V?$allocator@USQuestInstance@CPythonQuest@@@std@@@std@@QAE@PAUSQuestInstance@CPythonQuest@@AAV?$allocator@USQuestInstance@CPythonQuest@@@1@@Z ENDP ; std::_Uninitialized_backout_al<std::allocator<CPythonQuest::SQuestInstance> >::_Uninitialized_backout_al<std::allocator<CPythonQuest::SQuestInstance> >
_TEXT	ENDS
; Function compile flags: /Ogtp
; File C:\Program Files\Microsoft Visual Studio\2022\Community\VC\Tools\MSVC\14.34.31933\include\xstddef
;	COMDAT ??$addressof@USQuestInstance@CPythonQuest@@@std@@YAPAUSQuestInstance@CPythonQuest@@AAU12@@Z
_TEXT	SEGMENT
??$addressof@USQuestInstance@CPythonQuest@@@std@@YAPAUSQuestInstance@CPythonQuest@@AAU12@@Z PROC ; std::addressof<CPythonQuest::SQuestInstance>, COMDAT
; __Val$ = ecx

; 281  :     return __builtin_addressof(_Val);

  00000	8b c1		 mov	 eax, ecx

; 282  : }

  00002	c3		 ret	 0
??$addressof@USQuestInstance@CPythonQuest@@@std@@YAPAUSQuestInstance@CPythonQuest@@AAU12@@Z ENDP ; std::addressof<CPythonQuest::SQuestInstance>
_TEXT	ENDS
; Function compile flags: /Ogtp
; File C:\Program Files\Microsoft Visual Studio\2022\Community\VC\Tools\MSVC\14.34.31933\include\xutility
;	COMDAT ??$construct_at@USQuestInstance@CPythonQuest@@U12@$0A@@std@@YAPAUSQuestInstance@CPythonQuest@@QAU12@$$QAU12@@Z
_TEXT	SEGMENT
??$construct_at@USQuestInstance@CPythonQuest@@U12@$0A@@std@@YAPAUSQuestInstance@CPythonQuest@@QAU12@$$QAU12@@Z PROC ; std::construct_at<CPythonQuest::SQuestInstance,CPythonQuest::SQuestInstance,0>, COMDAT
; __Location$ = ecx
; _<_Args_0>$ = edx

; 218  :     _MSVC_CONSTEXPR return ::new (_Voidify_iter(_Location)) _Ty(_STD forward<_Types>(_Args)...);

  00000	52		 push	 edx
  00001	e8 00 00 00 00	 call	 ??0SQuestInstance@CPythonQuest@@QAE@$$QAU01@@Z

; 219  : }

  00006	c3		 ret	 0
??$construct_at@USQuestInstance@CPythonQuest@@U12@$0A@@std@@YAPAUSQuestInstance@CPythonQuest@@QAU12@$$QAU12@@Z ENDP ; std::construct_at<CPythonQuest::SQuestInstance,CPythonQuest::SQuestInstance,0>
_TEXT	ENDS
; Function compile flags: /Ogtp
; File C:\Program Files\Microsoft Visual Studio\2022\Community\VC\Tools\MSVC\14.34.31933\include\xutility
;	COMDAT ??$_Voidify_iter@PAUSQuestInstance@CPythonQuest@@@std@@YAPAXPAUSQuestInstance@CPythonQuest@@@Z
_TEXT	SEGMENT
??$_Voidify_iter@PAUSQuestInstance@CPythonQuest@@@std@@YAPAXPAUSQuestInstance@CPythonQuest@@@Z PROC ; std::_Voidify_iter<CPythonQuest::SQuestInstance *>, COMDAT
; __It$ = ecx

; 201  :     if constexpr (is_pointer_v<_Iter>) {
; 202  :         return const_cast<void*>(static_cast<const volatile void*>(_It));

  00000	8b c1		 mov	 eax, ecx

; 203  :     } else {
; 204  :         return const_cast<void*>(static_cast<const volatile void*>(_STD addressof(*_It)));
; 205  :     }
; 206  : }

  00002	c3		 ret	 0
??$_Voidify_iter@PAUSQuestInstance@CPythonQuest@@@std@@YAPAXPAUSQuestInstance@CPythonQuest@@@Z ENDP ; std::_Voidify_iter<CPythonQuest::SQuestInstance *>
_TEXT	ENDS
; Function compile flags: /Ogtp
; File C:\Program Files\Microsoft Visual Studio\2022\Community\VC\Tools\MSVC\14.34.31933\include\xmemory
;	COMDAT ??$_Emplace_back@USQuestInstance@CPythonQuest@@@?$_Uninitialized_backout_al@V?$allocator@USQuestInstance@CPythonQuest@@@std@@@std@@QAEX$$QAUSQuestInstance@CPythonQuest@@@Z
_TEXT	SEGMENT
_<_Vals_0>$ = 8						; size = 4
??$_Emplace_back@USQuestInstance@CPythonQuest@@@?$_Uninitialized_backout_al@V?$allocator@USQuestInstance@CPythonQuest@@@std@@@std@@QAEX$$QAUSQuestInstance@CPythonQuest@@@Z PROC ; std::_Uninitialized_backout_al<std::allocator<CPythonQuest::SQuestInstance> >::_Emplace_back<CPythonQuest::SQuestInstance>, COMDAT
; _this$ = ecx

; 1662 :     _CONSTEXPR20 void _Emplace_back(_Types&&... _Vals) { // construct a new element at *_Last and increment

  00000	55		 push	 ebp
  00001	8b ec		 mov	 ebp, esp
  00003	56		 push	 esi

; 1663 :         allocator_traits<_Alloc>::construct(_Al, _Unfancy(_Last), _STD forward<_Types>(_Vals)...);
; 1664 :         ++_Last;

  00004	ff 75 08	 push	 DWORD PTR _<_Vals_0>$[ebp]
  00007	8b f1		 mov	 esi, ecx
  00009	8b 4e 04	 mov	 ecx, DWORD PTR [esi+4]
  0000c	e8 00 00 00 00	 call	 ??0SQuestInstance@CPythonQuest@@QAE@$$QAU01@@Z
  00011	83 46 04 74	 add	 DWORD PTR [esi+4], 116	; 00000074H
  00015	5e		 pop	 esi

; 1665 :     }

  00016	5d		 pop	 ebp
  00017	c2 04 00	 ret	 4
??$_Emplace_back@USQuestInstance@CPythonQuest@@@?$_Uninitialized_backout_al@V?$allocator@USQuestInstance@CPythonQuest@@@std@@@std@@QAEX$$QAUSQuestInstance@CPythonQuest@@@Z ENDP ; std::_Uninitialized_backout_al<std::allocator<CPythonQuest::SQuestInstance> >::_Emplace_back<CPythonQuest::SQuestInstance>
_TEXT	ENDS
; Function compile flags: /Ogtp
; File C:\Program Files\Microsoft Visual Studio\2022\Community\VC\Tools\MSVC\14.34.31933\include\xutility
;	COMDAT ??$construct_at@USQuestInstance@CPythonQuest@@ABU12@$0A@@std@@YAPAUSQuestInstance@CPythonQuest@@QAU12@ABU12@@Z
_TEXT	SEGMENT
??$construct_at@USQuestInstance@CPythonQuest@@ABU12@$0A@@std@@YAPAUSQuestInstance@CPythonQuest@@QAU12@ABU12@@Z PROC ; std::construct_at<CPythonQuest::SQuestInstance,CPythonQuest::SQuestInstance const &,0>, COMDAT
; __Location$ = ecx
; _<_Args_0>$ = edx

; 218  :     _MSVC_CONSTEXPR return ::new (_Voidify_iter(_Location)) _Ty(_STD forward<_Types>(_Args)...);

  00000	52		 push	 edx
  00001	e8 00 00 00 00	 call	 ??0SQuestInstance@CPythonQuest@@QAE@ABU01@@Z

; 219  : }

  00006	c3		 ret	 0
??$construct_at@USQuestInstance@CPythonQuest@@ABU12@$0A@@std@@YAPAUSQuestInstance@CPythonQuest@@QAU12@ABU12@@Z ENDP ; std::construct_at<CPythonQuest::SQuestInstance,CPythonQuest::SQuestInstance const &,0>
_TEXT	ENDS
END
