; Listing generated by Microsoft (R) Optimizing Compiler Version 19.34.31937.0 

	TITLE	e:\metin2_server\solwaynesf v6\clientvs22\vs_files\userinterface\distribute\pythonitemmodule.obj
	.686P
	.XMM
	include listing.inc
	.model	flat

INCLUDELIB OLDNAMES

PUBLIC	??_C@_0BH@EOAFOHJK@Cannot?5find?5item?5by?5?$CFd@ ; `string'
PUBLIC	??_C@_0BG@LNOAJHHG@no?5selected?5item?5data@	; `string'
PUBLIC	??_C@_0BJ@FJOAFFCG@Not?5yet?5select?5item?5data@ ; `string'
PUBLIC	??_C@_0BM@MLEHJLDK@Cannot?5get?5icon?5image?5by?5?$CFd@ ; `string'
PUBLIC	??_C@_0BM@KPLEGEEH@Can?8t?5find?5select?5item?5data@ ; `string'
PUBLIC	??_C@_0BE@HKKEFMIC@SetUseSoundFileName@		; `string'
PUBLIC	??_C@_0BF@BODGENI@SetDropSoundFileName@		; `string'
PUBLIC	??_C@_0L@GFKKOOBA@SelectItem@			; `string'
PUBLIC	??_C@_0M@BFODJMFI@GetItemName@			; `string'
PUBLIC	??_C@_0BD@GLEOJONA@GetItemDescription@		; `string'
PUBLIC	??_C@_0P@OIBFDAMI@GetItemSummary@		; `string'
PUBLIC	??_C@_0N@IEABDKDK@GetIconImage@			; `string'
PUBLIC	??_C@_0BF@NNPLLIOE@GetIconImageFileName@	; `string'
PUBLIC	??_C@_0M@FBEOFCHB@GetItemSize@			; `string'
PUBLIC	??_C@_0M@LOOAFMCI@GetItemType@			; `string'
PUBLIC	??_C@_0P@MFCMKOKJ@GetItemSubType@		; `string'
PUBLIC	??_C@_0BB@KJGHJKGD@GetIBuyItemPrice@		; `string'
PUBLIC	??_C@_0BC@OKNBBEMG@GetISellItemPrice@		; `string'
PUBLIC	??_C@_0L@NKLNOBKA@IsAntiFlag@			; `string'
PUBLIC	??_C@_06PLFMNGGB@IsFlag@			; `string'
PUBLIC	??_C@_0P@KNFGADIE@IsWearableFlag@		; `string'
PUBLIC	??_C@_0M@IKKLMPND@Is1GoldItem@			; `string'
PUBLIC	??_C@_08KIIGDNA@GetLimit@			; `string'
PUBLIC	??_C@_09HJGEAOAM@GetAffect@			; `string'
PUBLIC	??_C@_08GGOMBHIN@GetValue@			; `string'
PUBLIC	??_C@_09ICJIFGNC@GetSocket@			; `string'
PUBLIC	??_C@_0BA@PMLMLIHH@GetIconInstance@		; `string'
PUBLIC	??_C@_0L@POCKMHMA@GetUseType@			; `string'
PUBLIC	??_C@_0BD@BNBIIKMM@DeleteIconInstance@		; `string'
PUBLIC	??_C@_0P@OGDGGJFE@IsEquipmentVID@		; `string'
PUBLIC	??_C@_0P@LGDKNEFF@IsRefineScroll@		; `string'
PUBLIC	??_C@_0P@CNNPGCCK@IsDetachScroll@		; `string'
PUBLIC	??_C@_05CEOMILKP@IsKey@				; `string'
PUBLIC	??_C@_07MLLOFDCE@IsMetin@			; `string'
PUBLIC	??_C@_0BG@FEGHIHDK@CanAddToQuickSlotItem@	; `string'
PUBLIC	??_C@_0L@EMDEHLJF@CreateItem@			; `string'
PUBLIC	??_C@_0L@IIJEEMCG@DeleteItem@			; `string'
PUBLIC	??_C@_0O@HJNOJBCJ@LoadItemTable@		; `string'
PUBLIC	??_C@_0BD@MEKMBKPM@USESOUND_ACCESSORY@		; `string'
PUBLIC	??_C@_0P@ENGKPPPD@USESOUND_ARMOR@		; `string'
PUBLIC	??_C@_0N@MDIFIDON@USESOUND_BOW@			; `string'
PUBLIC	??_C@_0BB@BHHNCGFC@USESOUND_DEFAULT@		; `string'
PUBLIC	??_C@_0BA@IJKKKKOO@USESOUND_WEAPON@		; `string'
PUBLIC	??_C@_0BA@GIIHLHOB@USESOUND_POTION@		; `string'
PUBLIC	??_C@_0BA@HNBMICIL@USESOUND_PORTAL@		; `string'
PUBLIC	??_C@_0BE@PBPPNIPJ@DROPSOUND_ACCESSORY@		; `string'
PUBLIC	??_C@_0BA@PCCDLKKO@DROPSOUND_ARMOR@		; `string'
PUBLIC	??_C@_0O@OOJPAKOO@DROPSOUND_BOW@		; `string'
PUBLIC	??_C@_0BC@BONOAPBN@DROPSOUND_DEFAULT@		; `string'
PUBLIC	??_C@_0BB@JMMPMOOC@DROPSOUND_WEAPON@		; `string'
PUBLIC	??_C@_0BA@KJELJAII@EQUIPMENT_COUNT@		; `string'
PUBLIC	??_C@_0P@GCJFHMFC@EQUIPMENT_HEAD@		; `string'
PUBLIC	??_C@_0P@LODPCKGA@EQUIPMENT_BODY@		; `string'
PUBLIC	??_C@_0BB@IKOPOEMN@EQUIPMENT_WEAPON@		; `string'
PUBLIC	??_C@_0BA@KHENFLDC@EQUIPMENT_WRIST@		; `string'
PUBLIC	??_C@_0BA@GEANIANO@EQUIPMENT_SHOES@		; `string'
PUBLIC	??_C@_0P@GJMJEBFD@EQUIPMENT_NECK@		; `string'
PUBLIC	??_C@_0O@KNFMDJEG@EQUIPMENT_EAR@		; `string'
PUBLIC	??_C@_0BC@IBOCPGBL@EQUIPMENT_UNIQUE1@		; `string'
PUBLIC	??_C@_0BC@KKMPKFNI@EQUIPMENT_UNIQUE2@		; `string'
PUBLIC	??_C@_0BA@MLMLGDPN@EQUIPMENT_ARROW@		; `string'
PUBLIC	??_C@_0BA@HOMCMAOF@EQUIPMENT_RING1@		; `string'
PUBLIC	??_C@_0BA@FFOPJDCG@EQUIPMENT_RING2@		; `string'
PUBLIC	??_C@_0P@GKDPOFPB@EQUIPMENT_BELT@		; `string'
PUBLIC	??_C@_0P@EMFHBOCE@ITEM_TYPE_NONE@		; `string'
PUBLIC	??_C@_0BB@KIJBPCOD@ITEM_TYPE_WEAPON@		; `string'
PUBLIC	??_C@_0BA@MCMGEHMH@ITEM_TYPE_ARMOR@		; `string'
PUBLIC	??_C@_0O@EJGIJMHP@ITEM_TYPE_USE@		; `string'
PUBLIC	??_C@_0BC@PDFOCJLB@ITEM_TYPE_AUTOUSE@		; `string'
PUBLIC	??_C@_0BD@NFIKPBKO@ITEM_TYPE_MATERIAL@		; `string'
PUBLIC	??_C@_0BC@EGCNCIAP@ITEM_TYPE_SPECIAL@		; `string'
PUBLIC	??_C@_0P@LGAHEAHJ@ITEM_TYPE_TOOL@		; `string'
PUBLIC	??_C@_0BC@LGJDJIG@ITEM_TYPE_LOTTERY@		; `string'
PUBLIC	??_C@_0O@JAIIACCD@ITEM_TYPE_ELK@		; `string'
PUBLIC	??_C@_0BA@KICPPFNE@ITEM_TYPE_METIN@		; `string'
PUBLIC	??_C@_0BE@JBBPDBJM@ITEM_TYPE_CONTAINER@		; `string'
PUBLIC	??_C@_0P@PIBMEEFH@ITEM_TYPE_FISH@		; `string'
PUBLIC	??_C@_0O@NIJIMPJD@ITEM_TYPE_ROD@		; `string'
PUBLIC	??_C@_0BD@KBPLAMLF@ITEM_TYPE_RESOURCE@		; `string'
PUBLIC	??_C@_0BD@OGNHPHCL@ITEM_TYPE_CAMPFIRE@		; `string'
PUBLIC	??_C@_0BB@CPEAMAMA@ITEM_TYPE_UNIQUE@		; `string'
PUBLIC	??_C@_0BE@FAMMFDKM@ITEM_TYPE_SKILLBOOK@		; `string'
PUBLIC	??_C@_0BA@PFOCEMDB@ITEM_TYPE_QUEST@		; `string'
PUBLIC	??_C@_0BE@DGPJCLHG@ITEM_TYPE_POLYMORPH@		; `string'
PUBLIC	??_C@_0BH@MPEMDLLF@ITEM_TYPE_TREASURE_BOX@	; `string'
PUBLIC	??_C@_0BH@KGMIMAKI@ITEM_TYPE_TREASURE_KEY@	; `string'
PUBLIC	??_C@_0P@CALHNGMG@ITEM_TYPE_PICK@		; `string'
PUBLIC	??_C@_0BA@EDGMOLIF@ITEM_TYPE_BLEND@		; `string'
PUBLIC	??_C@_0N@BKIJEOLO@ITEM_TYPE_DS@			; `string'
PUBLIC	??_C@_0BF@GGLFIBNL@ITEM_TYPE_SPECIAL_DS@	; `string'
PUBLIC	??_C@_0P@POBKFJPJ@ITEM_TYPE_RING@		; `string'
PUBLIC	??_C@_0P@LGEHOEDP@ITEM_TYPE_BELT@		; `string'
PUBLIC	??_C@_0BC@GOFIPFBN@ITEM_TYPE_COSTUME@		; `string'
PUBLIC	??_C@_0BC@IBLNMJBH@COSTUME_TYPE_BODY@		; `string'
PUBLIC	??_C@_0BC@MAPOOMBN@COSTUME_TYPE_HAIR@		; `string'
PUBLIC	??_C@_0BD@JCGACLBK@COSTUME_SLOT_START@		; `string'
PUBLIC	??_C@_0BD@EMMBBFMO@COSTUME_SLOT_COUNT@		; `string'
PUBLIC	??_C@_0BC@OBAEGBKN@COSTUME_SLOT_BODY@		; `string'
PUBLIC	??_C@_0BC@KAEHEEKH@COSTUME_SLOT_HAIR@		; `string'
PUBLIC	??_C@_0BB@IEFLAOJF@COSTUME_SLOT_END@		; `string'
PUBLIC	??_C@_0BC@HGFCJGPD@COSTUME_TYPE_SASH@		; `string'
PUBLIC	??_C@_0BC@BGOLDOEJ@COSTUME_SLOT_SASH@		; `string'
PUBLIC	??_C@_0BE@NDJCIHLM@COSTUME_TYPE_WEAPON@		; `string'
PUBLIC	??_C@_0BE@BFLFIKON@COSTUME_SLOT_WEAPON@		; `string'
PUBLIC	??_C@_0BK@JAICDGKA@BELT_INVENTORY_SLOT_START@	; `string'
PUBLIC	??_C@_0BK@EOCDAIHE@BELT_INVENTORY_SLOT_COUNT@	; `string'
PUBLIC	??_C@_0BI@GPHFDCEJ@BELT_INVENTORY_SLOT_END@	; `string'
PUBLIC	??_C@_0N@FCLCNMLC@WEAPON_SWORD@			; `string'
PUBLIC	??_C@_0O@IMDDJKDH@WEAPON_DAGGER@		; `string'
PUBLIC	??_C@_0L@KDNCAJJM@WEAPON_BOW@			; `string'
PUBLIC	??_C@_0BC@OILJBHHK@WEAPON_TWO_HANDED@		; `string'
PUBLIC	??_C@_0M@NKBIKBJK@WEAPON_BELL@			; `string'
PUBLIC	??_C@_0L@LNCOBKNJ@WEAPON_FAN@			; `string'
PUBLIC	??_C@_0N@DCOAOKB@WEAPON_ARROW@			; `string'
PUBLIC	??_C@_0BH@BDHELGOG@WEAPON_UNLIMITED_ARROW@	; `string'
PUBLIC	??_C@_0BB@KFDFBDPL@WEAPON_NUM_TYPES@		; `string'
PUBLIC	??_C@_0L@DENJCCNI@USE_POTION@			; `string'
PUBLIC	??_C@_0N@CINBPLKM@USE_TALISMAN@			; `string'
PUBLIC	??_C@_0L@JIILHJGL@USE_TUNING@			; `string'
PUBLIC	??_C@_08JHFKMGGA@USE_MOVE@			; `string'
PUBLIC	??_C@_0BB@BBPDKOFG@USE_TREASURE_BOX@		; `string'
PUBLIC	??_C@_0N@BOHEHPFI@USE_MONEYBAG@			; `string'
PUBLIC	??_C@_08LBHGOBNP@USE_BAIT@			; `string'
PUBLIC	??_C@_0P@JBLCKFGE@USE_ABILITY_UP@		; `string'
PUBLIC	??_C@_0L@DLLOJMIP@USE_AFFECT@			; `string'
PUBLIC	??_C@_0BB@PBBDNJH@USE_CREATE_STONE@		; `string'
PUBLIC	??_C@_0M@GHOELJHH@USE_SPECIAL@			; `string'
PUBLIC	??_C@_0BD@MMDEHJ@USE_POTION_NODELAY@		; `string'
PUBLIC	??_C@_09PNKHEPEF@USE_CLEAR@			; `string'
PUBLIC	??_C@_0BB@NCIEFOD@USE_INVISIBILITY@		; `string'
PUBLIC	??_C@_0P@MKAMDACK@USE_DETACHMENT@		; `string'
PUBLIC	??_C@_0BE@NEAJJELI@USE_TIME_CHARGE_PER@		; `string'
PUBLIC	??_C@_0BE@FCIOINBF@USE_TIME_CHARGE_FIX@		; `string'
PUBLIC	??_C@_0BK@FFJFCNLF@MATERIAL_DS_REFINE_NORMAL@	; `string'
PUBLIC	??_C@_0BL@HNMOOIKG@MATERIAL_DS_REFINE_BLESSED@	; `string'
PUBLIC	??_C@_0BJ@KCHKGND@MATERIAL_DS_REFINE_HOLLY@	; `string'
PUBLIC	??_C@_0N@HOHHHOFD@METIN_NORMAL@			; `string'
PUBLIC	??_C@_0L@MFIGJJDC@METIN_GOLD@			; `string'
PUBLIC	??_C@_0L@MKHGBGII@LIMIT_NONE@			; `string'
PUBLIC	??_C@_0M@CNLALLNH@LIMIT_LEVEL@			; `string'
PUBLIC	??_C@_09JOBFCJGA@LIMIT_STR@			; `string'
PUBLIC	??_C@_09LENAGHIL@LIMIT_DEX@			; `string'
PUBLIC	??_C@_09OGFKBPLL@LIMIT_INT@			; `string'
PUBLIC	??_C@_09DIAIGPDD@LIMIT_CON@			; `string'
PUBLIC	??_C@_0N@MIADEJNC@LIMIT_PCBANG@			; `string'
PUBLIC	??_C@_0BA@FCJCAFPM@LIMIT_REAL_TIME@		; `string'
PUBLIC	??_C@_0CA@KECNELOI@LIMIT_REAL_TIME_START_FIRST_USE@ ; `string'
PUBLIC	??_C@_0BK@DKGMKHOA@LIMIT_TIMER_BASED_ON_WEAR@	; `string'
PUBLIC	??_C@_0BD@JIAJEJNL@LIMIT_TYPE_MAX_NUM@		; `string'
PUBLIC	??_C@_0O@DPNMMLCK@LIMIT_MAX_NUM@		; `string'
PUBLIC	??_C@_0BF@DFHLBKDO@ITEM_ANTIFLAG_FEMALE@	; `string'
PUBLIC	??_C@_0BD@DBFGLDPM@ITEM_ANTIFLAG_MALE@		; `string'
PUBLIC	??_C@_0BG@OCAOGEDJ@ITEM_ANTIFLAG_WARRIOR@	; `string'
PUBLIC	??_C@_0BH@NDIALJFO@ITEM_ANTIFLAG_ASSASSIN@	; `string'
PUBLIC	??_C@_0BD@EDCJBBKJ@ITEM_ANTIFLAG_SURA@		; `string'
PUBLIC	??_C@_0BF@NIAJKCKI@ITEM_ANTIFLAG_SHAMAN@	; `string'
PUBLIC	??_C@_0BC@NECEHGFA@ITEM_ANTIFLAG_GET@		; `string'
PUBLIC	??_C@_0BD@ELBJHBLB@ITEM_ANTIFLAG_DROP@		; `string'
PUBLIC	??_C@_0BD@LACGLGAB@ITEM_ANTIFLAG_SELL@		; `string'
PUBLIC	??_C@_0BH@ONMHLBEF@ITEM_ANTIFLAG_EMPIRE_A@	; `string'
PUBLIC	??_C@_0BH@MGOKOCIG@ITEM_ANTIFLAG_EMPIRE_B@	; `string'
PUBLIC	??_C@_0BH@IMCIPANH@ITEM_ANTIFLAG_EMPIRE_R@	; `string'
PUBLIC	??_C@_0BD@PPDHLMLJ@ITEM_ANTIFLAG_SAVE@		; `string'
PUBLIC	??_C@_0BD@KPODKFBE@ITEM_ANTIFLAG_GIVE@		; `string'
PUBLIC	??_C@_0BF@HBDABAPH@ITEM_ANTIFLAG_PKDROP@	; `string'
PUBLIC	??_C@_0BE@MAIMKBDM@ITEM_ANTIFLAG_STACK@		; `string'
PUBLIC	??_C@_0BF@NEEDLCAA@ITEM_ANTIFLAG_MYSHOP@	; `string'
PUBLIC	??_C@_0P@POCGDPPH@ITEM_FLAG_RARE@		; `string'
PUBLIC	??_C@_0BB@PGFIBJHK@ITEM_FLAG_UNIQUE@		; `string'
PUBLIC	??_C@_0BL@IPKGPKMA@ITEM_FLAG_CONFIRM_WHEN_USE@	; `string'
PUBLIC	??_C@_0BA@PLOPKCNG@ANTIFLAG_FEMALE@		; `string'
PUBLIC	??_C@_0O@GCOFJDKL@ANTIFLAG_MALE@		; `string'
PUBLIC	??_C@_0BB@EMBBJKML@ANTIFLAG_WARRIOR@		; `string'
PUBLIC	??_C@_0BC@IAJNDFJA@ANTIFLAG_ASSASSIN@		; `string'
PUBLIC	??_C@_0O@BAJKDBPO@ANTIFLAG_SURA@		; `string'
PUBLIC	??_C@_0BA@BGJNBKEA@ANTIFLAG_SHAMAN@		; `string'
PUBLIC	??_C@_0N@NEJHBBKC@ANTIFLAG_GET@			; `string'
PUBLIC	??_C@_0O@BIKKFBOG@ANTIFLAG_DROP@		; `string'
PUBLIC	??_C@_0O@ODJFJGFG@ANTIFLAG_SELL@		; `string'
PUBLIC	??_C@_0BC@LONKDNIL@ANTIFLAG_EMPIRE_A@		; `string'
PUBLIC	??_C@_0BC@JFPHGOEI@ANTIFLAG_EMPIRE_B@		; `string'
PUBLIC	??_C@_0BC@NPDFHMBJ@ANTIFLAG_EMPIRE_R@		; `string'
PUBLIC	??_C@_0O@KMIEJMOO@ANTIFLAG_SAVE@		; `string'
PUBLIC	??_C@_0O@PMFAIFED@ANTIFLAG_GIVE@		; `string'
PUBLIC	??_C@_0BA@LPKEKIBP@ANTIFLAG_PKDROP@		; `string'
PUBLIC	??_C@_0P@DFNANGEL@ANTIFLAG_STACK@		; `string'
PUBLIC	??_C@_0BA@BKNHAKOI@ANTIFLAG_MYSHOP@		; `string'
PUBLIC	??_C@_0O@KOFPKKKF@WEARABLE_BODY@		; `string'
PUBLIC	??_C@_0O@HCPFPMJH@WEARABLE_HEAD@		; `string'
PUBLIC	??_C@_0P@HDMMFABO@WEARABLE_FOOTS@		; `string'
PUBLIC	??_C@_0P@EMFDANIN@WEARABLE_WRIST@		; `string'
PUBLIC	??_C@_0BA@NBNKFEIG@WEARABLE_WEAPON@		; `string'
PUBLIC	??_C@_0O@HJKJMBJG@WEARABLE_NECK@		; `string'
PUBLIC	??_C@_0N@BHKGKGNM@WEARABLE_EAR@			; `string'
PUBLIC	??_C@_0BA@FGALGGKF@WEARABLE_UNIQUE@		; `string'
PUBLIC	??_C@_0BA@DGBFNJPE@WEARABLE_SHIELD@		; `string'
PUBLIC	??_C@_0P@CANFDFEC@WEARABLE_ARROW@		; `string'
PUBLIC	??_C@_0L@FFADCIKH@ARMOR_BODY@			; `string'
PUBLIC	??_C@_0L@IJKJHOJF@ARMOR_HEAD@			; `string'
PUBLIC	??_C@_0N@HJFKCCG@ARMOR_SHIELD@			; `string'
PUBLIC	??_C@_0M@KCKGDACD@ARMOR_WRIST@			; `string'
PUBLIC	??_C@_0M@JNDJGNLA@ARMOR_FOOTS@			; `string'
PUBLIC	??_C@_0L@ICPFEDJE@ARMOR_NECK@			; `string'
PUBLIC	??_C@_09JPGIMBID@ARMOR_EAR@			; `string'
PUBLIC	??_C@_0BD@POBJPMPE@ITEM_APPLY_MAX_NUM@		; `string'
PUBLIC	??_C@_0BE@PABFDMOM@ITEM_SOCKET_MAX_NUM@		; `string'
PUBLIC	??_C@_0L@KOOBDLCP@APPLY_NONE@			; `string'
PUBLIC	??_C@_09GCJAEOHJ@APPLY_STR@			; `string'
PUBLIC	??_C@_09EIFFAAJC@APPLY_DEX@			; `string'
PUBLIC	??_C@_09MEINAICK@APPLY_CON@			; `string'
PUBLIC	??_C@_09BKNPHIKC@APPLY_INT@			; `string'
PUBLIC	??_C@_0N@LMMDFALA@APPLY_MAX_HP@			; `string'
PUBLIC	??_C@_0N@KMLABMCB@APPLY_MAX_SP@			; `string'
PUBLIC	??_C@_0P@CBOEJMBC@APPLY_HP_REGEN@		; `string'
PUBLIC	??_C@_0P@PHBEALO@APPLY_SP_REGEN@		; `string'
PUBLIC	??_C@_0BG@DJGIDNN@APPLY_DEF_GRADE_BONUS@	; `string'
PUBLIC	??_C@_0BG@DIKOCKN@APPLY_ATT_GRADE_BONUS@	; `string'
PUBLIC	??_C@_0BA@PBNDFNHA@APPLY_ATT_SPEED@		; `string'
PUBLIC	??_C@_0BA@IHFPGGCP@APPLY_MOV_SPEED@		; `string'
PUBLIC	??_C@_0BB@IMPHMAIN@APPLY_CAST_SPEED@		; `string'
PUBLIC	??_C@_0BG@JIJNNLOL@APPLY_MAGIC_ATT_GRADE@	; `string'
PUBLIC	??_C@_0BG@PLJBHAML@APPLY_MAGIC_DEF_GRADE@	; `string'
PUBLIC	??_C@_0M@CPHNGINI@APPLY_SKILL@			; `string'
PUBLIC	??_C@_0BG@FCHNFPKG@APPLY_ATTBONUS_ANIMAL@	; `string'
PUBLIC	??_C@_0BG@DEBBIBCN@APPLY_ATTBONUS_UNDEAD@	; `string'
PUBLIC	??_C@_0BF@PHBHKMPC@APPLY_ATTBONUS_DEVIL@	; `string'
PUBLIC	??_C@_0BF@FLAIBIKP@APPLY_ATTBONUS_HUMAN@	; `string'
PUBLIC	??_C@_0BD@DGLENODO@APPLY_BOW_DISTANCE@		; `string'
PUBLIC	??_C@_0BB@KEIAGOOG@APPLY_RESIST_BOW@		; `string'
PUBLIC	??_C@_0BC@BCODEHJE@APPLY_RESIST_FIRE@		; `string'
PUBLIC	??_C@_0BC@CNKONPAF@APPLY_RESIST_ELEC@		; `string'
PUBLIC	??_C@_0BD@BIEOENBH@APPLY_RESIST_MAGIC@		; `string'
PUBLIC	??_C@_0BB@OFEPEABG@APPLY_POISON_PCT@		; `string'
PUBLIC	??_C@_0P@EAEIAPML@APPLY_SLOW_PCT@		; `string'
PUBLIC	??_C@_0P@IGBLFIG@APPLY_STUN_PCT@		; `string'
PUBLIC	??_C@_0BD@DOHBCDEC@APPLY_CRITICAL_PCT@		; `string'
PUBLIC	??_C@_0BE@MIHOPHBF@APPLY_PENETRATE_PCT@		; `string'
PUBLIC	??_C@_0BD@GHNBCFFK@APPLY_ATTBONUS_ORC@		; `string'
PUBLIC	??_C@_0BG@BGJNMLHF@APPLY_ATTBONUS_MILGYO@	; `string'
PUBLIC	??_C@_0P@IJPDEMHM@APPLY_STEAL_HP@		; `string'
PUBLIC	??_C@_0P@JJIAAAON@APPLY_STEAL_SP@		; `string'
PUBLIC	??_C@_0BE@MMJAOBJI@APPLY_MANA_BURN_PCT@		; `string'
PUBLIC	??_C@_0BI@CNPFJGMF@APPLY_DAMAGE_SP_RECOVER@	; `string'
PUBLIC	??_C@_0M@DEKBOLNA@APPLY_BLOCK@			; `string'
PUBLIC	??_C@_0M@OLNDHAEO@APPLY_DODGE@			; `string'
PUBLIC	??_C@_0BD@FELELOGH@APPLY_RESIST_SWORD@		; `string'
PUBLIC	??_C@_0BF@PPDPGLJM@APPLY_RESIST_TWOHAND@	; `string'
PUBLIC	??_C@_0BE@HKIMLKAO@APPLY_RESIST_DAGGER@		; `string'
PUBLIC	??_C@_0BC@GKMPGLNP@APPLY_RESIST_BELL@		; `string'
PUBLIC	??_C@_0BB@LKHMHNKD@APPLY_RESIST_FAN@		; `string'
PUBLIC	??_C@_0BC@EDEEJCPD@APPLY_RESIST_WIND@		; `string'
PUBLIC	??_C@_0BE@JKECBGFJ@APPLY_REFLECT_MELEE@		; `string'
PUBLIC	??_C@_0BE@GIMFBPMF@APPLY_REFLECT_CURSE@		; `string'
PUBLIC	??_C@_0BE@CMJGNONM@APPLY_POISON_REDUCE@		; `string'
PUBLIC	??_C@_0BG@NAAMOKGC@APPLY_KILL_SP_RECOVER@	; `string'
PUBLIC	??_C@_0BH@BOFCHNGC@APPLY_EXP_DOUBLE_BONUS@	; `string'
PUBLIC	??_C@_0BI@CPGCKKHM@APPLY_GOLD_DOUBLE_BONUS@	; `string'
PUBLIC	??_C@_0BG@GJLPLNJK@APPLY_ITEM_DROP_BONUS@	; `string'
PUBLIC	??_C@_0BD@HAABJCED@APPLY_POTION_BONUS@		; `string'
PUBLIC	??_C@_0BG@FNNLKJON@APPLY_KILL_HP_RECOVER@	; `string'
PUBLIC	??_C@_0BC@GMOGAEGD@APPLY_IMMUNE_STUN@		; `string'
PUBLIC	??_C@_0BC@HDPKPEKN@APPLY_IMMUNE_SLOW@		; `string'
PUBLIC	??_C@_0BC@ICOAEBEB@APPLY_IMMUNE_FALL@		; `string'
PUBLIC	??_C@_0BC@MENAELHN@APPLY_MAX_STAMINA@		; `string'
PUBLIC	??_C@_0BH@LHKFGIKM@APPLY_ATTBONUS_WARRIOR@	; `string'
PUBLIC	??_C@_0BI@FDLAHFJJ@APPLY_ATTBONUS_ASSASSIN@	; `string'
PUBLIC	??_C@_0BE@EHJIJMPG@APPLY_ATTBONUS_SURA@		; `string'
PUBLIC	??_C@_0BG@HGCDBIBP@APPLY_ATTBONUS_SHAMAN@	; `string'
PUBLIC	??_C@_0BH@OMHBNPNG@APPLY_ATTBONUS_MONSTER@	; `string'
PUBLIC	??_C@_0BE@INMGAFDB@APPLY_MALL_ATTBONUS@		; `string'
PUBLIC	??_C@_0BE@IHABPMCM@APPLY_MALL_DEFBONUS@		; `string'
PUBLIC	??_C@_0BE@HDMKGFGB@APPLY_MALL_EXPBONUS@		; `string'
PUBLIC	??_C@_0BF@JHCAFPEC@APPLY_MALL_ITEMBONUS@	; `string'
PUBLIC	??_C@_0BF@CNKLONKF@APPLY_MALL_GOLDBONUS@	; `string'
PUBLIC	??_C@_0BB@IOILOHHB@APPLY_MAX_HP_PCT@		; `string'
PUBLIC	??_C@_0BB@OLFCCPEF@APPLY_MAX_SP_PCT@		; `string'
PUBLIC	??_C@_0BJ@ILJOEJMP@APPLY_SKILL_DAMAGE_BONUS@	; `string'
PUBLIC	??_C@_0BO@KJDLNPKH@APPLY_NORMAL_HIT_DAMAGE_BONUS@ ; `string'
PUBLIC	??_C@_0BJ@MCFLODEL@APPLY_SKILL_DEFEND_BONUS@	; `string'
PUBLIC	??_C@_0BO@OAPOHFCD@APPLY_NORMAL_HIT_DEFEND_BONUS@ ; `string'
PUBLIC	??_C@_0BI@MMJMNMDE@APPLY_PC_BANG_EXP_BONUS@	; `string'
PUBLIC	??_C@_0BJ@MIHJNNLH@APPLY_PC_BANG_DROP_BONUS@	; `string'
PUBLIC	??_C@_0BF@DIEIKMOC@APPLY_RESIST_WARRIOR@	; `string'
PUBLIC	??_C@_0BG@MCFLPEMK@APPLY_RESIST_ASSASSIN@	; `string'
PUBLIC	??_C@_0BC@MEEAHCEF@APPLY_RESIST_SURA@		; `string'
PUBLIC	??_C@_0BE@POHJKJMD@APPLY_RESIST_SHAMAN@		; `string'
PUBLIC	??_C@_0N@MOPONLJI@APPLY_ENERGY@			; `string'
PUBLIC	??_C@_0BJ@IGOAELFN@APPLY_COSTUME_ATTR_BONUS@	; `string'
PUBLIC	??_C@_0BJ@JJJKDKFC@APPLY_MAGIC_ATTBONUS_PER@	; `string'
PUBLIC	??_C@_0BP@MGKGKJGA@APPLY_MELEE_MAGIC_ATTBONUS_PER@ ; `string'
PUBLIC	??_C@_0BB@CGPGAFA@APPLY_RESIST_ICE@		; `string'
PUBLIC	??_C@_0BD@GENAIBDP@APPLY_RESIST_EARTH@		; `string'
PUBLIC	??_C@_0BC@DDBEBBJF@APPLY_RESIST_DARK@		; `string'
PUBLIC	??_C@_0BI@KIMFHHIO@APPLY_ANTI_CRITICAL_PCT@	; `string'
PUBLIC	??_C@_0BJ@FKDKMNNK@APPLY_ANTI_PENETRATE_PCT@	; `string'
EXTRN	?IsEquipment@CItemData@@QBEHXZ:PROC		; CItemData::IsEquipment
EXTRN	?GetUseTypeString@CItemData@@QBEPBDXZ:PROC	; CItemData::GetUseTypeString
EXTRN	?SetImagePointer@CGraphicImageInstance@@QAEXPAVCGraphicImage@@@Z:PROC ; CGraphicImageInstance::SetImagePointer
EXTRN	?Delete@CGraphicImageInstance@@SAXPAV1@@Z:PROC	; CGraphicImageInstance::Delete
EXTRN	?GetSocket@CItemData@@QBEJE@Z:PROC		; CItemData::GetSocket
EXTRN	?New@CGraphicImageInstance@@SAPAV1@XZ:PROC	; CGraphicImageInstance::New
EXTRN	?GetApply@CItemData@@QBEHEPAUSItemApply@1@@Z:PROC ; CItemData::GetApply
EXTRN	?GetLimit@CItemData@@QBEHEPAUSItemLimit@1@@Z:PROC ; CItemData::GetLimit
EXTRN	?IsFlag@CItemData@@QBEHK@Z:PROC			; CItemData::IsFlag
EXTRN	?IsWearableFlag@CItemData@@QBEHK@Z:PROC		; CItemData::IsWearableFlag
EXTRN	?GetISellItemPrice@CItemData@@QBEKXZ:PROC	; CItemData::GetISellItemPrice
EXTRN	?IsAntiFlag@CItemData@@QBEHK@Z:PROC		; CItemData::IsAntiFlag
EXTRN	?GetSize@CItemData@@QBEEXZ:PROC			; CItemData::GetSize
EXTRN	?GetIBuyItemPrice@CItemData@@QBEKXZ:PROC	; CItemData::GetIBuyItemPrice
EXTRN	?GetSummary@CItemData@@QBEPBDXZ:PROC		; CItemData::GetSummary
EXTRN	?GetIconImage@CItemData@@QAEPAVCGraphicSubImage@@XZ:PROC ; CItemData::GetIconImage
EXTRN	?GetSelectedItemDataPointer@CItemManager@@QAEPAVCItemData@@XZ:PROC ; CItemManager::GetSelectedItemDataPointer
EXTRN	?GetDescription@CItemData@@QBEPBDXZ:PROC	; CItemData::GetDescription
EXTRN	?SelectItemData@CItemManager@@QAEHK@Z:PROC	; CItemManager::SelectItemData
;	COMDAT ?s_methods@?1??initItem@@YAXXZ@4PAUPyMethodDef@@A
_DATA	SEGMENT
?s_methods@?1??initItem@@YAXXZ@4PAUPyMethodDef@@A DD FLAT:??_C@_0BE@HKKEFMIC@SetUseSoundFileName@ ; `initItem'::`2'::s_methods
	DD	FLAT:?itemSetUseSoundFileName@@YAPAU_object@@PAU1@0@Z
	DD	01H
	ORG $+4
	DD	FLAT:??_C@_0BF@BODGENI@SetDropSoundFileName@
	DD	FLAT:?itemSetDropSoundFileName@@YAPAU_object@@PAU1@0@Z
	DD	01H
	ORG $+4
	DD	FLAT:??_C@_0L@GFKKOOBA@SelectItem@
	DD	FLAT:?itemSelectItem@@YAPAU_object@@PAU1@0@Z
	DD	01H
	ORG $+4
	DD	FLAT:??_C@_0M@BFODJMFI@GetItemName@
	DD	FLAT:?itemGetItemName@@YAPAU_object@@PAU1@0@Z
	DD	01H
	ORG $+4
	DD	FLAT:??_C@_0BD@GLEOJONA@GetItemDescription@
	DD	FLAT:?itemGetItemDescription@@YAPAU_object@@PAU1@0@Z
	DD	01H
	ORG $+4
	DD	FLAT:??_C@_0P@OIBFDAMI@GetItemSummary@
	DD	FLAT:?itemGetItemSummary@@YAPAU_object@@PAU1@0@Z
	DD	01H
	ORG $+4
	DD	FLAT:??_C@_0N@IEABDKDK@GetIconImage@
	DD	FLAT:?itemGetIconImage@@YAPAU_object@@PAU1@0@Z
	DD	01H
	ORG $+4
	DD	FLAT:??_C@_0BF@NNPLLIOE@GetIconImageFileName@
	DD	FLAT:?itemGetIconImageFileName@@YAPAU_object@@PAU1@0@Z
	DD	01H
	ORG $+4
	DD	FLAT:??_C@_0M@FBEOFCHB@GetItemSize@
	DD	FLAT:?itemGetItemSize@@YAPAU_object@@PAU1@0@Z
	DD	01H
	ORG $+4
	DD	FLAT:??_C@_0M@LOOAFMCI@GetItemType@
	DD	FLAT:?itemGetItemType@@YAPAU_object@@PAU1@0@Z
	DD	01H
	ORG $+4
	DD	FLAT:??_C@_0P@MFCMKOKJ@GetItemSubType@
	DD	FLAT:?itemGetItemSubType@@YAPAU_object@@PAU1@0@Z
	DD	01H
	ORG $+4
	DD	FLAT:??_C@_0BB@KJGHJKGD@GetIBuyItemPrice@
	DD	FLAT:?itemGetIBuyItemPrice@@YAPAU_object@@PAU1@0@Z
	DD	01H
	ORG $+4
	DD	FLAT:??_C@_0BC@OKNBBEMG@GetISellItemPrice@
	DD	FLAT:?itemGetISellItemPrice@@YAPAU_object@@PAU1@0@Z
	DD	01H
	ORG $+4
	DD	FLAT:??_C@_0L@NKLNOBKA@IsAntiFlag@
	DD	FLAT:?itemIsAntiFlag@@YAPAU_object@@PAU1@0@Z
	DD	01H
	ORG $+4
	DD	FLAT:??_C@_06PLFMNGGB@IsFlag@
	DD	FLAT:?itemIsFlag@@YAPAU_object@@PAU1@0@Z
	DD	01H
	ORG $+4
	DD	FLAT:??_C@_0P@KNFGADIE@IsWearableFlag@
	DD	FLAT:?itemIsWearableFlag@@YAPAU_object@@PAU1@0@Z
	DD	01H
	ORG $+4
	DD	FLAT:??_C@_0M@IKKLMPND@Is1GoldItem@
	DD	FLAT:?itemIs1GoldItem@@YAPAU_object@@PAU1@0@Z
	DD	01H
	ORG $+4
	DD	FLAT:??_C@_08KIIGDNA@GetLimit@
	DD	FLAT:?itemGetLimit@@YAPAU_object@@PAU1@0@Z
	DD	01H
	ORG $+4
	DD	FLAT:??_C@_09HJGEAOAM@GetAffect@
	DD	FLAT:?itemGetAffect@@YAPAU_object@@PAU1@0@Z
	DD	01H
	ORG $+4
	DD	FLAT:??_C@_08GGOMBHIN@GetValue@
	DD	FLAT:?itemGetValue@@YAPAU_object@@PAU1@0@Z
	DD	01H
	ORG $+4
	DD	FLAT:??_C@_09ICJIFGNC@GetSocket@
	DD	FLAT:?itemGetSocket@@YAPAU_object@@PAU1@0@Z
	DD	01H
	ORG $+4
	DD	FLAT:??_C@_0BA@PMLMLIHH@GetIconInstance@
	DD	FLAT:?itemGetIconInstance@@YAPAU_object@@PAU1@0@Z
	DD	01H
	ORG $+4
	DD	FLAT:??_C@_0L@POCKMHMA@GetUseType@
	DD	FLAT:?itemGetUseType@@YAPAU_object@@PAU1@0@Z
	DD	01H
	ORG $+4
	DD	FLAT:??_C@_0BD@BNBIIKMM@DeleteIconInstance@
	DD	FLAT:?itemDeleteIconInstance@@YAPAU_object@@PAU1@0@Z
	DD	01H
	ORG $+4
	DD	FLAT:??_C@_0P@OGDGGJFE@IsEquipmentVID@
	DD	FLAT:?itemIsEquipmentVID@@YAPAU_object@@PAU1@0@Z
	DD	01H
	ORG $+4
	DD	FLAT:??_C@_0P@LGDKNEFF@IsRefineScroll@
	DD	FLAT:?itemIsRefineScroll@@YAPAU_object@@PAU1@0@Z
	DD	01H
	ORG $+4
	DD	FLAT:??_C@_0P@CNNPGCCK@IsDetachScroll@
	DD	FLAT:?itemIsDetachScroll@@YAPAU_object@@PAU1@0@Z
	DD	01H
	ORG $+4
	DD	FLAT:??_C@_05CEOMILKP@IsKey@
	DD	FLAT:?itemIsKey@@YAPAU_object@@PAU1@0@Z
	DD	01H
	ORG $+4
	DD	FLAT:??_C@_07MLLOFDCE@IsMetin@
	DD	FLAT:?itemIsMetin@@YAPAU_object@@PAU1@0@Z
	DD	01H
	ORG $+4
	DD	FLAT:??_C@_0BG@FEGHIHDK@CanAddToQuickSlotItem@
	DD	FLAT:?itemCanAddToQuickSlotItem@@YAPAU_object@@PAU1@0@Z
	DD	01H
	ORG $+4
	DD	FLAT:??_C@_06LMAGPFNF@Update@
	DD	FLAT:?itemUpdate@@YAPAU_object@@PAU1@0@Z
	DD	01H
	ORG $+4
	DD	FLAT:??_C@_06EPLDPNDB@Render@
	DD	FLAT:?itemRender@@YAPAU_object@@PAU1@0@Z
	DD	01H
	ORG $+4
	DD	FLAT:??_C@_0L@EMDEHLJF@CreateItem@
	DD	FLAT:?itemCreateItem@@YAPAU_object@@PAU1@0@Z
	DD	01H
	ORG $+4
	DD	FLAT:??_C@_0L@IIJEEMCG@DeleteItem@
	DD	FLAT:?itemDeleteItem@@YAPAU_object@@PAU1@0@Z
	DD	01H
	ORG $+4
	DD	FLAT:??_C@_04ILHILILF@Pick@
	DD	FLAT:?itemPick@@YAPAU_object@@PAU1@0@Z
	DD	01H
	ORG $+4
	DD	FLAT:??_C@_0O@HJNOJBCJ@LoadItemTable@
	DD	FLAT:?itemLoadItemTable@@YAPAU_object@@PAU1@0@Z
	DD	01H
	ORG $+4
	DD	00H
	DD	00H
	DD	00H
	ORG $+4
_DATA	ENDS
;	COMDAT ??_C@_0BJ@FKDKMNNK@APPLY_ANTI_PENETRATE_PCT@
CONST	SEGMENT
??_C@_0BJ@FKDKMNNK@APPLY_ANTI_PENETRATE_PCT@ DB 'APPLY_ANTI_PENETRATE_PCT'
	DB	00H						; `string'
CONST	ENDS
;	COMDAT ??_C@_0BI@KIMFHHIO@APPLY_ANTI_CRITICAL_PCT@
CONST	SEGMENT
??_C@_0BI@KIMFHHIO@APPLY_ANTI_CRITICAL_PCT@ DB 'APPLY_ANTI_CRITICAL_PCT', 00H ; `string'
CONST	ENDS
;	COMDAT ??_C@_0BC@DDBEBBJF@APPLY_RESIST_DARK@
CONST	SEGMENT
??_C@_0BC@DDBEBBJF@APPLY_RESIST_DARK@ DB 'APPLY_RESIST_DARK', 00H ; `string'
CONST	ENDS
;	COMDAT ??_C@_0BD@GENAIBDP@APPLY_RESIST_EARTH@
CONST	SEGMENT
??_C@_0BD@GENAIBDP@APPLY_RESIST_EARTH@ DB 'APPLY_RESIST_EARTH', 00H ; `string'
CONST	ENDS
;	COMDAT ??_C@_0BB@CGPGAFA@APPLY_RESIST_ICE@
CONST	SEGMENT
??_C@_0BB@CGPGAFA@APPLY_RESIST_ICE@ DB 'APPLY_RESIST_ICE', 00H ; `string'
CONST	ENDS
;	COMDAT ??_C@_0BP@MGKGKJGA@APPLY_MELEE_MAGIC_ATTBONUS_PER@
CONST	SEGMENT
??_C@_0BP@MGKGKJGA@APPLY_MELEE_MAGIC_ATTBONUS_PER@ DB 'APPLY_MELEE_MAGIC_'
	DB	'ATTBONUS_PER', 00H				; `string'
CONST	ENDS
;	COMDAT ??_C@_0BJ@JJJKDKFC@APPLY_MAGIC_ATTBONUS_PER@
CONST	SEGMENT
??_C@_0BJ@JJJKDKFC@APPLY_MAGIC_ATTBONUS_PER@ DB 'APPLY_MAGIC_ATTBONUS_PER'
	DB	00H						; `string'
CONST	ENDS
;	COMDAT ??_C@_0BJ@IGOAELFN@APPLY_COSTUME_ATTR_BONUS@
CONST	SEGMENT
??_C@_0BJ@IGOAELFN@APPLY_COSTUME_ATTR_BONUS@ DB 'APPLY_COSTUME_ATTR_BONUS'
	DB	00H						; `string'
CONST	ENDS
;	COMDAT ??_C@_0N@MOPONLJI@APPLY_ENERGY@
CONST	SEGMENT
??_C@_0N@MOPONLJI@APPLY_ENERGY@ DB 'APPLY_ENERGY', 00H	; `string'
CONST	ENDS
;	COMDAT ??_C@_0BE@POHJKJMD@APPLY_RESIST_SHAMAN@
CONST	SEGMENT
??_C@_0BE@POHJKJMD@APPLY_RESIST_SHAMAN@ DB 'APPLY_RESIST_SHAMAN', 00H ; `string'
CONST	ENDS
;	COMDAT ??_C@_0BC@MEEAHCEF@APPLY_RESIST_SURA@
CONST	SEGMENT
??_C@_0BC@MEEAHCEF@APPLY_RESIST_SURA@ DB 'APPLY_RESIST_SURA', 00H ; `string'
CONST	ENDS
;	COMDAT ??_C@_0BG@MCFLPEMK@APPLY_RESIST_ASSASSIN@
CONST	SEGMENT
??_C@_0BG@MCFLPEMK@APPLY_RESIST_ASSASSIN@ DB 'APPLY_RESIST_ASSASSIN', 00H ; `string'
CONST	ENDS
;	COMDAT ??_C@_0BF@DIEIKMOC@APPLY_RESIST_WARRIOR@
CONST	SEGMENT
??_C@_0BF@DIEIKMOC@APPLY_RESIST_WARRIOR@ DB 'APPLY_RESIST_WARRIOR', 00H ; `string'
CONST	ENDS
;	COMDAT ??_C@_0BJ@MIHJNNLH@APPLY_PC_BANG_DROP_BONUS@
CONST	SEGMENT
??_C@_0BJ@MIHJNNLH@APPLY_PC_BANG_DROP_BONUS@ DB 'APPLY_PC_BANG_DROP_BONUS'
	DB	00H						; `string'
CONST	ENDS
;	COMDAT ??_C@_0BI@MMJMNMDE@APPLY_PC_BANG_EXP_BONUS@
CONST	SEGMENT
??_C@_0BI@MMJMNMDE@APPLY_PC_BANG_EXP_BONUS@ DB 'APPLY_PC_BANG_EXP_BONUS', 00H ; `string'
CONST	ENDS
;	COMDAT ??_C@_0BO@OAPOHFCD@APPLY_NORMAL_HIT_DEFEND_BONUS@
CONST	SEGMENT
??_C@_0BO@OAPOHFCD@APPLY_NORMAL_HIT_DEFEND_BONUS@ DB 'APPLY_NORMAL_HIT_DE'
	DB	'FEND_BONUS', 00H				; `string'
CONST	ENDS
;	COMDAT ??_C@_0BJ@MCFLODEL@APPLY_SKILL_DEFEND_BONUS@
CONST	SEGMENT
??_C@_0BJ@MCFLODEL@APPLY_SKILL_DEFEND_BONUS@ DB 'APPLY_SKILL_DEFEND_BONUS'
	DB	00H						; `string'
CONST	ENDS
;	COMDAT ??_C@_0BO@KJDLNPKH@APPLY_NORMAL_HIT_DAMAGE_BONUS@
CONST	SEGMENT
??_C@_0BO@KJDLNPKH@APPLY_NORMAL_HIT_DAMAGE_BONUS@ DB 'APPLY_NORMAL_HIT_DA'
	DB	'MAGE_BONUS', 00H				; `string'
CONST	ENDS
;	COMDAT ??_C@_0BJ@ILJOEJMP@APPLY_SKILL_DAMAGE_BONUS@
CONST	SEGMENT
??_C@_0BJ@ILJOEJMP@APPLY_SKILL_DAMAGE_BONUS@ DB 'APPLY_SKILL_DAMAGE_BONUS'
	DB	00H						; `string'
CONST	ENDS
;	COMDAT ??_C@_0BB@OLFCCPEF@APPLY_MAX_SP_PCT@
CONST	SEGMENT
??_C@_0BB@OLFCCPEF@APPLY_MAX_SP_PCT@ DB 'APPLY_MAX_SP_PCT', 00H ; `string'
CONST	ENDS
;	COMDAT ??_C@_0BB@IOILOHHB@APPLY_MAX_HP_PCT@
CONST	SEGMENT
??_C@_0BB@IOILOHHB@APPLY_MAX_HP_PCT@ DB 'APPLY_MAX_HP_PCT', 00H ; `string'
CONST	ENDS
;	COMDAT ??_C@_0BF@CNKLONKF@APPLY_MALL_GOLDBONUS@
CONST	SEGMENT
??_C@_0BF@CNKLONKF@APPLY_MALL_GOLDBONUS@ DB 'APPLY_MALL_GOLDBONUS', 00H ; `string'
CONST	ENDS
;	COMDAT ??_C@_0BF@JHCAFPEC@APPLY_MALL_ITEMBONUS@
CONST	SEGMENT
??_C@_0BF@JHCAFPEC@APPLY_MALL_ITEMBONUS@ DB 'APPLY_MALL_ITEMBONUS', 00H ; `string'
CONST	ENDS
;	COMDAT ??_C@_0BE@HDMKGFGB@APPLY_MALL_EXPBONUS@
CONST	SEGMENT
??_C@_0BE@HDMKGFGB@APPLY_MALL_EXPBONUS@ DB 'APPLY_MALL_EXPBONUS', 00H ; `string'
CONST	ENDS
;	COMDAT ??_C@_0BE@IHABPMCM@APPLY_MALL_DEFBONUS@
CONST	SEGMENT
??_C@_0BE@IHABPMCM@APPLY_MALL_DEFBONUS@ DB 'APPLY_MALL_DEFBONUS', 00H ; `string'
CONST	ENDS
;	COMDAT ??_C@_0BE@INMGAFDB@APPLY_MALL_ATTBONUS@
CONST	SEGMENT
??_C@_0BE@INMGAFDB@APPLY_MALL_ATTBONUS@ DB 'APPLY_MALL_ATTBONUS', 00H ; `string'
CONST	ENDS
;	COMDAT ??_C@_0BH@OMHBNPNG@APPLY_ATTBONUS_MONSTER@
CONST	SEGMENT
??_C@_0BH@OMHBNPNG@APPLY_ATTBONUS_MONSTER@ DB 'APPLY_ATTBONUS_MONSTER', 00H ; `string'
CONST	ENDS
;	COMDAT ??_C@_0BG@HGCDBIBP@APPLY_ATTBONUS_SHAMAN@
CONST	SEGMENT
??_C@_0BG@HGCDBIBP@APPLY_ATTBONUS_SHAMAN@ DB 'APPLY_ATTBONUS_SHAMAN', 00H ; `string'
CONST	ENDS
;	COMDAT ??_C@_0BE@EHJIJMPG@APPLY_ATTBONUS_SURA@
CONST	SEGMENT
??_C@_0BE@EHJIJMPG@APPLY_ATTBONUS_SURA@ DB 'APPLY_ATTBONUS_SURA', 00H ; `string'
CONST	ENDS
;	COMDAT ??_C@_0BI@FDLAHFJJ@APPLY_ATTBONUS_ASSASSIN@
CONST	SEGMENT
??_C@_0BI@FDLAHFJJ@APPLY_ATTBONUS_ASSASSIN@ DB 'APPLY_ATTBONUS_ASSASSIN', 00H ; `string'
CONST	ENDS
;	COMDAT ??_C@_0BH@LHKFGIKM@APPLY_ATTBONUS_WARRIOR@
CONST	SEGMENT
??_C@_0BH@LHKFGIKM@APPLY_ATTBONUS_WARRIOR@ DB 'APPLY_ATTBONUS_WARRIOR', 00H ; `string'
CONST	ENDS
;	COMDAT ??_C@_0BC@MENAELHN@APPLY_MAX_STAMINA@
CONST	SEGMENT
??_C@_0BC@MENAELHN@APPLY_MAX_STAMINA@ DB 'APPLY_MAX_STAMINA', 00H ; `string'
CONST	ENDS
;	COMDAT ??_C@_0BC@ICOAEBEB@APPLY_IMMUNE_FALL@
CONST	SEGMENT
??_C@_0BC@ICOAEBEB@APPLY_IMMUNE_FALL@ DB 'APPLY_IMMUNE_FALL', 00H ; `string'
CONST	ENDS
;	COMDAT ??_C@_0BC@HDPKPEKN@APPLY_IMMUNE_SLOW@
CONST	SEGMENT
??_C@_0BC@HDPKPEKN@APPLY_IMMUNE_SLOW@ DB 'APPLY_IMMUNE_SLOW', 00H ; `string'
CONST	ENDS
;	COMDAT ??_C@_0BC@GMOGAEGD@APPLY_IMMUNE_STUN@
CONST	SEGMENT
??_C@_0BC@GMOGAEGD@APPLY_IMMUNE_STUN@ DB 'APPLY_IMMUNE_STUN', 00H ; `string'
CONST	ENDS
;	COMDAT ??_C@_0BG@FNNLKJON@APPLY_KILL_HP_RECOVER@
CONST	SEGMENT
??_C@_0BG@FNNLKJON@APPLY_KILL_HP_RECOVER@ DB 'APPLY_KILL_HP_RECOVER', 00H ; `string'
CONST	ENDS
;	COMDAT ??_C@_0BD@HAABJCED@APPLY_POTION_BONUS@
CONST	SEGMENT
??_C@_0BD@HAABJCED@APPLY_POTION_BONUS@ DB 'APPLY_POTION_BONUS', 00H ; `string'
CONST	ENDS
;	COMDAT ??_C@_0BG@GJLPLNJK@APPLY_ITEM_DROP_BONUS@
CONST	SEGMENT
??_C@_0BG@GJLPLNJK@APPLY_ITEM_DROP_BONUS@ DB 'APPLY_ITEM_DROP_BONUS', 00H ; `string'
CONST	ENDS
;	COMDAT ??_C@_0BI@CPGCKKHM@APPLY_GOLD_DOUBLE_BONUS@
CONST	SEGMENT
??_C@_0BI@CPGCKKHM@APPLY_GOLD_DOUBLE_BONUS@ DB 'APPLY_GOLD_DOUBLE_BONUS', 00H ; `string'
CONST	ENDS
;	COMDAT ??_C@_0BH@BOFCHNGC@APPLY_EXP_DOUBLE_BONUS@
CONST	SEGMENT
??_C@_0BH@BOFCHNGC@APPLY_EXP_DOUBLE_BONUS@ DB 'APPLY_EXP_DOUBLE_BONUS', 00H ; `string'
CONST	ENDS
;	COMDAT ??_C@_0BG@NAAMOKGC@APPLY_KILL_SP_RECOVER@
CONST	SEGMENT
??_C@_0BG@NAAMOKGC@APPLY_KILL_SP_RECOVER@ DB 'APPLY_KILL_SP_RECOVER', 00H ; `string'
CONST	ENDS
;	COMDAT ??_C@_0BE@CMJGNONM@APPLY_POISON_REDUCE@
CONST	SEGMENT
??_C@_0BE@CMJGNONM@APPLY_POISON_REDUCE@ DB 'APPLY_POISON_REDUCE', 00H ; `string'
CONST	ENDS
;	COMDAT ??_C@_0BE@GIMFBPMF@APPLY_REFLECT_CURSE@
CONST	SEGMENT
??_C@_0BE@GIMFBPMF@APPLY_REFLECT_CURSE@ DB 'APPLY_REFLECT_CURSE', 00H ; `string'
CONST	ENDS
;	COMDAT ??_C@_0BE@JKECBGFJ@APPLY_REFLECT_MELEE@
CONST	SEGMENT
??_C@_0BE@JKECBGFJ@APPLY_REFLECT_MELEE@ DB 'APPLY_REFLECT_MELEE', 00H ; `string'
CONST	ENDS
;	COMDAT ??_C@_0BC@EDEEJCPD@APPLY_RESIST_WIND@
CONST	SEGMENT
??_C@_0BC@EDEEJCPD@APPLY_RESIST_WIND@ DB 'APPLY_RESIST_WIND', 00H ; `string'
CONST	ENDS
;	COMDAT ??_C@_0BB@LKHMHNKD@APPLY_RESIST_FAN@
CONST	SEGMENT
??_C@_0BB@LKHMHNKD@APPLY_RESIST_FAN@ DB 'APPLY_RESIST_FAN', 00H ; `string'
CONST	ENDS
;	COMDAT ??_C@_0BC@GKMPGLNP@APPLY_RESIST_BELL@
CONST	SEGMENT
??_C@_0BC@GKMPGLNP@APPLY_RESIST_BELL@ DB 'APPLY_RESIST_BELL', 00H ; `string'
CONST	ENDS
;	COMDAT ??_C@_0BE@HKIMLKAO@APPLY_RESIST_DAGGER@
CONST	SEGMENT
??_C@_0BE@HKIMLKAO@APPLY_RESIST_DAGGER@ DB 'APPLY_RESIST_DAGGER', 00H ; `string'
CONST	ENDS
;	COMDAT ??_C@_0BF@PPDPGLJM@APPLY_RESIST_TWOHAND@
CONST	SEGMENT
??_C@_0BF@PPDPGLJM@APPLY_RESIST_TWOHAND@ DB 'APPLY_RESIST_TWOHAND', 00H ; `string'
CONST	ENDS
;	COMDAT ??_C@_0BD@FELELOGH@APPLY_RESIST_SWORD@
CONST	SEGMENT
??_C@_0BD@FELELOGH@APPLY_RESIST_SWORD@ DB 'APPLY_RESIST_SWORD', 00H ; `string'
CONST	ENDS
;	COMDAT ??_C@_0M@OLNDHAEO@APPLY_DODGE@
CONST	SEGMENT
??_C@_0M@OLNDHAEO@APPLY_DODGE@ DB 'APPLY_DODGE', 00H	; `string'
CONST	ENDS
;	COMDAT ??_C@_0M@DEKBOLNA@APPLY_BLOCK@
CONST	SEGMENT
??_C@_0M@DEKBOLNA@APPLY_BLOCK@ DB 'APPLY_BLOCK', 00H	; `string'
CONST	ENDS
;	COMDAT ??_C@_0BI@CNPFJGMF@APPLY_DAMAGE_SP_RECOVER@
CONST	SEGMENT
??_C@_0BI@CNPFJGMF@APPLY_DAMAGE_SP_RECOVER@ DB 'APPLY_DAMAGE_SP_RECOVER', 00H ; `string'
CONST	ENDS
;	COMDAT ??_C@_0BE@MMJAOBJI@APPLY_MANA_BURN_PCT@
CONST	SEGMENT
??_C@_0BE@MMJAOBJI@APPLY_MANA_BURN_PCT@ DB 'APPLY_MANA_BURN_PCT', 00H ; `string'
CONST	ENDS
;	COMDAT ??_C@_0P@JJIAAAON@APPLY_STEAL_SP@
CONST	SEGMENT
??_C@_0P@JJIAAAON@APPLY_STEAL_SP@ DB 'APPLY_STEAL_SP', 00H ; `string'
CONST	ENDS
;	COMDAT ??_C@_0P@IJPDEMHM@APPLY_STEAL_HP@
CONST	SEGMENT
??_C@_0P@IJPDEMHM@APPLY_STEAL_HP@ DB 'APPLY_STEAL_HP', 00H ; `string'
CONST	ENDS
;	COMDAT ??_C@_0BG@BGJNMLHF@APPLY_ATTBONUS_MILGYO@
CONST	SEGMENT
??_C@_0BG@BGJNMLHF@APPLY_ATTBONUS_MILGYO@ DB 'APPLY_ATTBONUS_MILGYO', 00H ; `string'
CONST	ENDS
;	COMDAT ??_C@_0BD@GHNBCFFK@APPLY_ATTBONUS_ORC@
CONST	SEGMENT
??_C@_0BD@GHNBCFFK@APPLY_ATTBONUS_ORC@ DB 'APPLY_ATTBONUS_ORC', 00H ; `string'
CONST	ENDS
;	COMDAT ??_C@_0BE@MIHOPHBF@APPLY_PENETRATE_PCT@
CONST	SEGMENT
??_C@_0BE@MIHOPHBF@APPLY_PENETRATE_PCT@ DB 'APPLY_PENETRATE_PCT', 00H ; `string'
CONST	ENDS
;	COMDAT ??_C@_0BD@DOHBCDEC@APPLY_CRITICAL_PCT@
CONST	SEGMENT
??_C@_0BD@DOHBCDEC@APPLY_CRITICAL_PCT@ DB 'APPLY_CRITICAL_PCT', 00H ; `string'
CONST	ENDS
;	COMDAT ??_C@_0P@IGBLFIG@APPLY_STUN_PCT@
CONST	SEGMENT
??_C@_0P@IGBLFIG@APPLY_STUN_PCT@ DB 'APPLY_STUN_PCT', 00H ; `string'
CONST	ENDS
;	COMDAT ??_C@_0P@EAEIAPML@APPLY_SLOW_PCT@
CONST	SEGMENT
??_C@_0P@EAEIAPML@APPLY_SLOW_PCT@ DB 'APPLY_SLOW_PCT', 00H ; `string'
CONST	ENDS
;	COMDAT ??_C@_0BB@OFEPEABG@APPLY_POISON_PCT@
CONST	SEGMENT
??_C@_0BB@OFEPEABG@APPLY_POISON_PCT@ DB 'APPLY_POISON_PCT', 00H ; `string'
CONST	ENDS
;	COMDAT ??_C@_0BD@BIEOENBH@APPLY_RESIST_MAGIC@
CONST	SEGMENT
??_C@_0BD@BIEOENBH@APPLY_RESIST_MAGIC@ DB 'APPLY_RESIST_MAGIC', 00H ; `string'
CONST	ENDS
;	COMDAT ??_C@_0BC@CNKONPAF@APPLY_RESIST_ELEC@
CONST	SEGMENT
??_C@_0BC@CNKONPAF@APPLY_RESIST_ELEC@ DB 'APPLY_RESIST_ELEC', 00H ; `string'
CONST	ENDS
;	COMDAT ??_C@_0BC@BCODEHJE@APPLY_RESIST_FIRE@
CONST	SEGMENT
??_C@_0BC@BCODEHJE@APPLY_RESIST_FIRE@ DB 'APPLY_RESIST_FIRE', 00H ; `string'
CONST	ENDS
;	COMDAT ??_C@_0BB@KEIAGOOG@APPLY_RESIST_BOW@
CONST	SEGMENT
??_C@_0BB@KEIAGOOG@APPLY_RESIST_BOW@ DB 'APPLY_RESIST_BOW', 00H ; `string'
CONST	ENDS
;	COMDAT ??_C@_0BD@DGLENODO@APPLY_BOW_DISTANCE@
CONST	SEGMENT
??_C@_0BD@DGLENODO@APPLY_BOW_DISTANCE@ DB 'APPLY_BOW_DISTANCE', 00H ; `string'
CONST	ENDS
;	COMDAT ??_C@_0BF@FLAIBIKP@APPLY_ATTBONUS_HUMAN@
CONST	SEGMENT
??_C@_0BF@FLAIBIKP@APPLY_ATTBONUS_HUMAN@ DB 'APPLY_ATTBONUS_HUMAN', 00H ; `string'
CONST	ENDS
;	COMDAT ??_C@_0BF@PHBHKMPC@APPLY_ATTBONUS_DEVIL@
CONST	SEGMENT
??_C@_0BF@PHBHKMPC@APPLY_ATTBONUS_DEVIL@ DB 'APPLY_ATTBONUS_DEVIL', 00H ; `string'
CONST	ENDS
;	COMDAT ??_C@_0BG@DEBBIBCN@APPLY_ATTBONUS_UNDEAD@
CONST	SEGMENT
??_C@_0BG@DEBBIBCN@APPLY_ATTBONUS_UNDEAD@ DB 'APPLY_ATTBONUS_UNDEAD', 00H ; `string'
CONST	ENDS
;	COMDAT ??_C@_0BG@FCHNFPKG@APPLY_ATTBONUS_ANIMAL@
CONST	SEGMENT
??_C@_0BG@FCHNFPKG@APPLY_ATTBONUS_ANIMAL@ DB 'APPLY_ATTBONUS_ANIMAL', 00H ; `string'
CONST	ENDS
;	COMDAT ??_C@_0M@CPHNGINI@APPLY_SKILL@
CONST	SEGMENT
??_C@_0M@CPHNGINI@APPLY_SKILL@ DB 'APPLY_SKILL', 00H	; `string'
CONST	ENDS
;	COMDAT ??_C@_0BG@PLJBHAML@APPLY_MAGIC_DEF_GRADE@
CONST	SEGMENT
??_C@_0BG@PLJBHAML@APPLY_MAGIC_DEF_GRADE@ DB 'APPLY_MAGIC_DEF_GRADE', 00H ; `string'
CONST	ENDS
;	COMDAT ??_C@_0BG@JIJNNLOL@APPLY_MAGIC_ATT_GRADE@
CONST	SEGMENT
??_C@_0BG@JIJNNLOL@APPLY_MAGIC_ATT_GRADE@ DB 'APPLY_MAGIC_ATT_GRADE', 00H ; `string'
CONST	ENDS
;	COMDAT ??_C@_0BB@IMPHMAIN@APPLY_CAST_SPEED@
CONST	SEGMENT
??_C@_0BB@IMPHMAIN@APPLY_CAST_SPEED@ DB 'APPLY_CAST_SPEED', 00H ; `string'
CONST	ENDS
;	COMDAT ??_C@_0BA@IHFPGGCP@APPLY_MOV_SPEED@
CONST	SEGMENT
??_C@_0BA@IHFPGGCP@APPLY_MOV_SPEED@ DB 'APPLY_MOV_SPEED', 00H ; `string'
CONST	ENDS
;	COMDAT ??_C@_0BA@PBNDFNHA@APPLY_ATT_SPEED@
CONST	SEGMENT
??_C@_0BA@PBNDFNHA@APPLY_ATT_SPEED@ DB 'APPLY_ATT_SPEED', 00H ; `string'
CONST	ENDS
;	COMDAT ??_C@_0BG@DIKOCKN@APPLY_ATT_GRADE_BONUS@
CONST	SEGMENT
??_C@_0BG@DIKOCKN@APPLY_ATT_GRADE_BONUS@ DB 'APPLY_ATT_GRADE_BONUS', 00H ; `string'
CONST	ENDS
;	COMDAT ??_C@_0BG@DJGIDNN@APPLY_DEF_GRADE_BONUS@
CONST	SEGMENT
??_C@_0BG@DJGIDNN@APPLY_DEF_GRADE_BONUS@ DB 'APPLY_DEF_GRADE_BONUS', 00H ; `string'
CONST	ENDS
;	COMDAT ??_C@_0P@PHBEALO@APPLY_SP_REGEN@
CONST	SEGMENT
??_C@_0P@PHBEALO@APPLY_SP_REGEN@ DB 'APPLY_SP_REGEN', 00H ; `string'
CONST	ENDS
;	COMDAT ??_C@_0P@CBOEJMBC@APPLY_HP_REGEN@
CONST	SEGMENT
??_C@_0P@CBOEJMBC@APPLY_HP_REGEN@ DB 'APPLY_HP_REGEN', 00H ; `string'
CONST	ENDS
;	COMDAT ??_C@_0N@KMLABMCB@APPLY_MAX_SP@
CONST	SEGMENT
??_C@_0N@KMLABMCB@APPLY_MAX_SP@ DB 'APPLY_MAX_SP', 00H	; `string'
CONST	ENDS
;	COMDAT ??_C@_0N@LMMDFALA@APPLY_MAX_HP@
CONST	SEGMENT
??_C@_0N@LMMDFALA@APPLY_MAX_HP@ DB 'APPLY_MAX_HP', 00H	; `string'
CONST	ENDS
;	COMDAT ??_C@_09BKNPHIKC@APPLY_INT@
CONST	SEGMENT
??_C@_09BKNPHIKC@APPLY_INT@ DB 'APPLY_INT', 00H		; `string'
CONST	ENDS
;	COMDAT ??_C@_09MEINAICK@APPLY_CON@
CONST	SEGMENT
??_C@_09MEINAICK@APPLY_CON@ DB 'APPLY_CON', 00H		; `string'
CONST	ENDS
;	COMDAT ??_C@_09EIFFAAJC@APPLY_DEX@
CONST	SEGMENT
??_C@_09EIFFAAJC@APPLY_DEX@ DB 'APPLY_DEX', 00H		; `string'
CONST	ENDS
;	COMDAT ??_C@_09GCJAEOHJ@APPLY_STR@
CONST	SEGMENT
??_C@_09GCJAEOHJ@APPLY_STR@ DB 'APPLY_STR', 00H		; `string'
CONST	ENDS
;	COMDAT ??_C@_0L@KOOBDLCP@APPLY_NONE@
CONST	SEGMENT
??_C@_0L@KOOBDLCP@APPLY_NONE@ DB 'APPLY_NONE', 00H	; `string'
CONST	ENDS
;	COMDAT ??_C@_0BE@PABFDMOM@ITEM_SOCKET_MAX_NUM@
CONST	SEGMENT
??_C@_0BE@PABFDMOM@ITEM_SOCKET_MAX_NUM@ DB 'ITEM_SOCKET_MAX_NUM', 00H ; `string'
CONST	ENDS
;	COMDAT ??_C@_0BD@POBJPMPE@ITEM_APPLY_MAX_NUM@
CONST	SEGMENT
??_C@_0BD@POBJPMPE@ITEM_APPLY_MAX_NUM@ DB 'ITEM_APPLY_MAX_NUM', 00H ; `string'
CONST	ENDS
;	COMDAT ??_C@_09JPGIMBID@ARMOR_EAR@
CONST	SEGMENT
??_C@_09JPGIMBID@ARMOR_EAR@ DB 'ARMOR_EAR', 00H		; `string'
CONST	ENDS
;	COMDAT ??_C@_0L@ICPFEDJE@ARMOR_NECK@
CONST	SEGMENT
??_C@_0L@ICPFEDJE@ARMOR_NECK@ DB 'ARMOR_NECK', 00H	; `string'
CONST	ENDS
;	COMDAT ??_C@_0M@JNDJGNLA@ARMOR_FOOTS@
CONST	SEGMENT
??_C@_0M@JNDJGNLA@ARMOR_FOOTS@ DB 'ARMOR_FOOTS', 00H	; `string'
CONST	ENDS
;	COMDAT ??_C@_0M@KCKGDACD@ARMOR_WRIST@
CONST	SEGMENT
??_C@_0M@KCKGDACD@ARMOR_WRIST@ DB 'ARMOR_WRIST', 00H	; `string'
CONST	ENDS
;	COMDAT ??_C@_0N@HJFKCCG@ARMOR_SHIELD@
CONST	SEGMENT
??_C@_0N@HJFKCCG@ARMOR_SHIELD@ DB 'ARMOR_SHIELD', 00H	; `string'
CONST	ENDS
;	COMDAT ??_C@_0L@IJKJHOJF@ARMOR_HEAD@
CONST	SEGMENT
??_C@_0L@IJKJHOJF@ARMOR_HEAD@ DB 'ARMOR_HEAD', 00H	; `string'
CONST	ENDS
;	COMDAT ??_C@_0L@FFADCIKH@ARMOR_BODY@
CONST	SEGMENT
??_C@_0L@FFADCIKH@ARMOR_BODY@ DB 'ARMOR_BODY', 00H	; `string'
CONST	ENDS
;	COMDAT ??_C@_0P@CANFDFEC@WEARABLE_ARROW@
CONST	SEGMENT
??_C@_0P@CANFDFEC@WEARABLE_ARROW@ DB 'WEARABLE_ARROW', 00H ; `string'
CONST	ENDS
;	COMDAT ??_C@_0BA@DGBFNJPE@WEARABLE_SHIELD@
CONST	SEGMENT
??_C@_0BA@DGBFNJPE@WEARABLE_SHIELD@ DB 'WEARABLE_SHIELD', 00H ; `string'
CONST	ENDS
;	COMDAT ??_C@_0BA@FGALGGKF@WEARABLE_UNIQUE@
CONST	SEGMENT
??_C@_0BA@FGALGGKF@WEARABLE_UNIQUE@ DB 'WEARABLE_UNIQUE', 00H ; `string'
CONST	ENDS
;	COMDAT ??_C@_0N@BHKGKGNM@WEARABLE_EAR@
CONST	SEGMENT
??_C@_0N@BHKGKGNM@WEARABLE_EAR@ DB 'WEARABLE_EAR', 00H	; `string'
CONST	ENDS
;	COMDAT ??_C@_0O@HJKJMBJG@WEARABLE_NECK@
CONST	SEGMENT
??_C@_0O@HJKJMBJG@WEARABLE_NECK@ DB 'WEARABLE_NECK', 00H ; `string'
CONST	ENDS
;	COMDAT ??_C@_0BA@NBNKFEIG@WEARABLE_WEAPON@
CONST	SEGMENT
??_C@_0BA@NBNKFEIG@WEARABLE_WEAPON@ DB 'WEARABLE_WEAPON', 00H ; `string'
CONST	ENDS
;	COMDAT ??_C@_0P@EMFDANIN@WEARABLE_WRIST@
CONST	SEGMENT
??_C@_0P@EMFDANIN@WEARABLE_WRIST@ DB 'WEARABLE_WRIST', 00H ; `string'
CONST	ENDS
;	COMDAT ??_C@_0P@HDMMFABO@WEARABLE_FOOTS@
CONST	SEGMENT
??_C@_0P@HDMMFABO@WEARABLE_FOOTS@ DB 'WEARABLE_FOOTS', 00H ; `string'
CONST	ENDS
;	COMDAT ??_C@_0O@HCPFPMJH@WEARABLE_HEAD@
CONST	SEGMENT
??_C@_0O@HCPFPMJH@WEARABLE_HEAD@ DB 'WEARABLE_HEAD', 00H ; `string'
CONST	ENDS
;	COMDAT ??_C@_0O@KOFPKKKF@WEARABLE_BODY@
CONST	SEGMENT
??_C@_0O@KOFPKKKF@WEARABLE_BODY@ DB 'WEARABLE_BODY', 00H ; `string'
CONST	ENDS
;	COMDAT ??_C@_0BA@BKNHAKOI@ANTIFLAG_MYSHOP@
CONST	SEGMENT
??_C@_0BA@BKNHAKOI@ANTIFLAG_MYSHOP@ DB 'ANTIFLAG_MYSHOP', 00H ; `string'
CONST	ENDS
;	COMDAT ??_C@_0P@DFNANGEL@ANTIFLAG_STACK@
CONST	SEGMENT
??_C@_0P@DFNANGEL@ANTIFLAG_STACK@ DB 'ANTIFLAG_STACK', 00H ; `string'
CONST	ENDS
;	COMDAT ??_C@_0BA@LPKEKIBP@ANTIFLAG_PKDROP@
CONST	SEGMENT
??_C@_0BA@LPKEKIBP@ANTIFLAG_PKDROP@ DB 'ANTIFLAG_PKDROP', 00H ; `string'
CONST	ENDS
;	COMDAT ??_C@_0O@PMFAIFED@ANTIFLAG_GIVE@
CONST	SEGMENT
??_C@_0O@PMFAIFED@ANTIFLAG_GIVE@ DB 'ANTIFLAG_GIVE', 00H ; `string'
CONST	ENDS
;	COMDAT ??_C@_0O@KMIEJMOO@ANTIFLAG_SAVE@
CONST	SEGMENT
??_C@_0O@KMIEJMOO@ANTIFLAG_SAVE@ DB 'ANTIFLAG_SAVE', 00H ; `string'
CONST	ENDS
;	COMDAT ??_C@_0BC@NPDFHMBJ@ANTIFLAG_EMPIRE_R@
CONST	SEGMENT
??_C@_0BC@NPDFHMBJ@ANTIFLAG_EMPIRE_R@ DB 'ANTIFLAG_EMPIRE_R', 00H ; `string'
CONST	ENDS
;	COMDAT ??_C@_0BC@JFPHGOEI@ANTIFLAG_EMPIRE_B@
CONST	SEGMENT
??_C@_0BC@JFPHGOEI@ANTIFLAG_EMPIRE_B@ DB 'ANTIFLAG_EMPIRE_B', 00H ; `string'
CONST	ENDS
;	COMDAT ??_C@_0BC@LONKDNIL@ANTIFLAG_EMPIRE_A@
CONST	SEGMENT
??_C@_0BC@LONKDNIL@ANTIFLAG_EMPIRE_A@ DB 'ANTIFLAG_EMPIRE_A', 00H ; `string'
CONST	ENDS
;	COMDAT ??_C@_0O@ODJFJGFG@ANTIFLAG_SELL@
CONST	SEGMENT
??_C@_0O@ODJFJGFG@ANTIFLAG_SELL@ DB 'ANTIFLAG_SELL', 00H ; `string'
CONST	ENDS
;	COMDAT ??_C@_0O@BIKKFBOG@ANTIFLAG_DROP@
CONST	SEGMENT
??_C@_0O@BIKKFBOG@ANTIFLAG_DROP@ DB 'ANTIFLAG_DROP', 00H ; `string'
CONST	ENDS
;	COMDAT ??_C@_0N@NEJHBBKC@ANTIFLAG_GET@
CONST	SEGMENT
??_C@_0N@NEJHBBKC@ANTIFLAG_GET@ DB 'ANTIFLAG_GET', 00H	; `string'
CONST	ENDS
;	COMDAT ??_C@_0BA@BGJNBKEA@ANTIFLAG_SHAMAN@
CONST	SEGMENT
??_C@_0BA@BGJNBKEA@ANTIFLAG_SHAMAN@ DB 'ANTIFLAG_SHAMAN', 00H ; `string'
CONST	ENDS
;	COMDAT ??_C@_0O@BAJKDBPO@ANTIFLAG_SURA@
CONST	SEGMENT
??_C@_0O@BAJKDBPO@ANTIFLAG_SURA@ DB 'ANTIFLAG_SURA', 00H ; `string'
CONST	ENDS
;	COMDAT ??_C@_0BC@IAJNDFJA@ANTIFLAG_ASSASSIN@
CONST	SEGMENT
??_C@_0BC@IAJNDFJA@ANTIFLAG_ASSASSIN@ DB 'ANTIFLAG_ASSASSIN', 00H ; `string'
CONST	ENDS
;	COMDAT ??_C@_0BB@EMBBJKML@ANTIFLAG_WARRIOR@
CONST	SEGMENT
??_C@_0BB@EMBBJKML@ANTIFLAG_WARRIOR@ DB 'ANTIFLAG_WARRIOR', 00H ; `string'
CONST	ENDS
;	COMDAT ??_C@_0O@GCOFJDKL@ANTIFLAG_MALE@
CONST	SEGMENT
??_C@_0O@GCOFJDKL@ANTIFLAG_MALE@ DB 'ANTIFLAG_MALE', 00H ; `string'
CONST	ENDS
;	COMDAT ??_C@_0BA@PLOPKCNG@ANTIFLAG_FEMALE@
CONST	SEGMENT
??_C@_0BA@PLOPKCNG@ANTIFLAG_FEMALE@ DB 'ANTIFLAG_FEMALE', 00H ; `string'
CONST	ENDS
;	COMDAT ??_C@_0BL@IPKGPKMA@ITEM_FLAG_CONFIRM_WHEN_USE@
CONST	SEGMENT
??_C@_0BL@IPKGPKMA@ITEM_FLAG_CONFIRM_WHEN_USE@ DB 'ITEM_FLAG_CONFIRM_WHEN'
	DB	'_USE', 00H					; `string'
CONST	ENDS
;	COMDAT ??_C@_0BB@PGFIBJHK@ITEM_FLAG_UNIQUE@
CONST	SEGMENT
??_C@_0BB@PGFIBJHK@ITEM_FLAG_UNIQUE@ DB 'ITEM_FLAG_UNIQUE', 00H ; `string'
CONST	ENDS
;	COMDAT ??_C@_0P@POCGDPPH@ITEM_FLAG_RARE@
CONST	SEGMENT
??_C@_0P@POCGDPPH@ITEM_FLAG_RARE@ DB 'ITEM_FLAG_RARE', 00H ; `string'
CONST	ENDS
;	COMDAT ??_C@_0BF@NEEDLCAA@ITEM_ANTIFLAG_MYSHOP@
CONST	SEGMENT
??_C@_0BF@NEEDLCAA@ITEM_ANTIFLAG_MYSHOP@ DB 'ITEM_ANTIFLAG_MYSHOP', 00H ; `string'
CONST	ENDS
;	COMDAT ??_C@_0BE@MAIMKBDM@ITEM_ANTIFLAG_STACK@
CONST	SEGMENT
??_C@_0BE@MAIMKBDM@ITEM_ANTIFLAG_STACK@ DB 'ITEM_ANTIFLAG_STACK', 00H ; `string'
CONST	ENDS
;	COMDAT ??_C@_0BF@HBDABAPH@ITEM_ANTIFLAG_PKDROP@
CONST	SEGMENT
??_C@_0BF@HBDABAPH@ITEM_ANTIFLAG_PKDROP@ DB 'ITEM_ANTIFLAG_PKDROP', 00H ; `string'
CONST	ENDS
;	COMDAT ??_C@_0BD@KPODKFBE@ITEM_ANTIFLAG_GIVE@
CONST	SEGMENT
??_C@_0BD@KPODKFBE@ITEM_ANTIFLAG_GIVE@ DB 'ITEM_ANTIFLAG_GIVE', 00H ; `string'
CONST	ENDS
;	COMDAT ??_C@_0BD@PPDHLMLJ@ITEM_ANTIFLAG_SAVE@
CONST	SEGMENT
??_C@_0BD@PPDHLMLJ@ITEM_ANTIFLAG_SAVE@ DB 'ITEM_ANTIFLAG_SAVE', 00H ; `string'
CONST	ENDS
;	COMDAT ??_C@_0BH@IMCIPANH@ITEM_ANTIFLAG_EMPIRE_R@
CONST	SEGMENT
??_C@_0BH@IMCIPANH@ITEM_ANTIFLAG_EMPIRE_R@ DB 'ITEM_ANTIFLAG_EMPIRE_R', 00H ; `string'
CONST	ENDS
;	COMDAT ??_C@_0BH@MGOKOCIG@ITEM_ANTIFLAG_EMPIRE_B@
CONST	SEGMENT
??_C@_0BH@MGOKOCIG@ITEM_ANTIFLAG_EMPIRE_B@ DB 'ITEM_ANTIFLAG_EMPIRE_B', 00H ; `string'
CONST	ENDS
;	COMDAT ??_C@_0BH@ONMHLBEF@ITEM_ANTIFLAG_EMPIRE_A@
CONST	SEGMENT
??_C@_0BH@ONMHLBEF@ITEM_ANTIFLAG_EMPIRE_A@ DB 'ITEM_ANTIFLAG_EMPIRE_A', 00H ; `string'
CONST	ENDS
;	COMDAT ??_C@_0BD@LACGLGAB@ITEM_ANTIFLAG_SELL@
CONST	SEGMENT
??_C@_0BD@LACGLGAB@ITEM_ANTIFLAG_SELL@ DB 'ITEM_ANTIFLAG_SELL', 00H ; `string'
CONST	ENDS
;	COMDAT ??_C@_0BD@ELBJHBLB@ITEM_ANTIFLAG_DROP@
CONST	SEGMENT
??_C@_0BD@ELBJHBLB@ITEM_ANTIFLAG_DROP@ DB 'ITEM_ANTIFLAG_DROP', 00H ; `string'
CONST	ENDS
;	COMDAT ??_C@_0BC@NECEHGFA@ITEM_ANTIFLAG_GET@
CONST	SEGMENT
??_C@_0BC@NECEHGFA@ITEM_ANTIFLAG_GET@ DB 'ITEM_ANTIFLAG_GET', 00H ; `string'
CONST	ENDS
;	COMDAT ??_C@_0BF@NIAJKCKI@ITEM_ANTIFLAG_SHAMAN@
CONST	SEGMENT
??_C@_0BF@NIAJKCKI@ITEM_ANTIFLAG_SHAMAN@ DB 'ITEM_ANTIFLAG_SHAMAN', 00H ; `string'
CONST	ENDS
;	COMDAT ??_C@_0BD@EDCJBBKJ@ITEM_ANTIFLAG_SURA@
CONST	SEGMENT
??_C@_0BD@EDCJBBKJ@ITEM_ANTIFLAG_SURA@ DB 'ITEM_ANTIFLAG_SURA', 00H ; `string'
CONST	ENDS
;	COMDAT ??_C@_0BH@NDIALJFO@ITEM_ANTIFLAG_ASSASSIN@
CONST	SEGMENT
??_C@_0BH@NDIALJFO@ITEM_ANTIFLAG_ASSASSIN@ DB 'ITEM_ANTIFLAG_ASSASSIN', 00H ; `string'
CONST	ENDS
;	COMDAT ??_C@_0BG@OCAOGEDJ@ITEM_ANTIFLAG_WARRIOR@
CONST	SEGMENT
??_C@_0BG@OCAOGEDJ@ITEM_ANTIFLAG_WARRIOR@ DB 'ITEM_ANTIFLAG_WARRIOR', 00H ; `string'
CONST	ENDS
;	COMDAT ??_C@_0BD@DBFGLDPM@ITEM_ANTIFLAG_MALE@
CONST	SEGMENT
??_C@_0BD@DBFGLDPM@ITEM_ANTIFLAG_MALE@ DB 'ITEM_ANTIFLAG_MALE', 00H ; `string'
CONST	ENDS
;	COMDAT ??_C@_0BF@DFHLBKDO@ITEM_ANTIFLAG_FEMALE@
CONST	SEGMENT
??_C@_0BF@DFHLBKDO@ITEM_ANTIFLAG_FEMALE@ DB 'ITEM_ANTIFLAG_FEMALE', 00H ; `string'
CONST	ENDS
;	COMDAT ??_C@_0O@DPNMMLCK@LIMIT_MAX_NUM@
CONST	SEGMENT
??_C@_0O@DPNMMLCK@LIMIT_MAX_NUM@ DB 'LIMIT_MAX_NUM', 00H ; `string'
CONST	ENDS
;	COMDAT ??_C@_0BD@JIAJEJNL@LIMIT_TYPE_MAX_NUM@
CONST	SEGMENT
??_C@_0BD@JIAJEJNL@LIMIT_TYPE_MAX_NUM@ DB 'LIMIT_TYPE_MAX_NUM', 00H ; `string'
CONST	ENDS
;	COMDAT ??_C@_0BK@DKGMKHOA@LIMIT_TIMER_BASED_ON_WEAR@
CONST	SEGMENT
??_C@_0BK@DKGMKHOA@LIMIT_TIMER_BASED_ON_WEAR@ DB 'LIMIT_TIMER_BASED_ON_WE'
	DB	'AR', 00H					; `string'
CONST	ENDS
;	COMDAT ??_C@_0CA@KECNELOI@LIMIT_REAL_TIME_START_FIRST_USE@
CONST	SEGMENT
??_C@_0CA@KECNELOI@LIMIT_REAL_TIME_START_FIRST_USE@ DB 'LIMIT_REAL_TIME_S'
	DB	'TART_FIRST_USE', 00H			; `string'
CONST	ENDS
;	COMDAT ??_C@_0BA@FCJCAFPM@LIMIT_REAL_TIME@
CONST	SEGMENT
??_C@_0BA@FCJCAFPM@LIMIT_REAL_TIME@ DB 'LIMIT_REAL_TIME', 00H ; `string'
CONST	ENDS
;	COMDAT ??_C@_0N@MIADEJNC@LIMIT_PCBANG@
CONST	SEGMENT
??_C@_0N@MIADEJNC@LIMIT_PCBANG@ DB 'LIMIT_PCBANG', 00H	; `string'
CONST	ENDS
;	COMDAT ??_C@_09DIAIGPDD@LIMIT_CON@
CONST	SEGMENT
??_C@_09DIAIGPDD@LIMIT_CON@ DB 'LIMIT_CON', 00H		; `string'
CONST	ENDS
;	COMDAT ??_C@_09OGFKBPLL@LIMIT_INT@
CONST	SEGMENT
??_C@_09OGFKBPLL@LIMIT_INT@ DB 'LIMIT_INT', 00H		; `string'
CONST	ENDS
;	COMDAT ??_C@_09LENAGHIL@LIMIT_DEX@
CONST	SEGMENT
??_C@_09LENAGHIL@LIMIT_DEX@ DB 'LIMIT_DEX', 00H		; `string'
CONST	ENDS
;	COMDAT ??_C@_09JOBFCJGA@LIMIT_STR@
CONST	SEGMENT
??_C@_09JOBFCJGA@LIMIT_STR@ DB 'LIMIT_STR', 00H		; `string'
CONST	ENDS
;	COMDAT ??_C@_0M@CNLALLNH@LIMIT_LEVEL@
CONST	SEGMENT
??_C@_0M@CNLALLNH@LIMIT_LEVEL@ DB 'LIMIT_LEVEL', 00H	; `string'
CONST	ENDS
;	COMDAT ??_C@_0L@MKHGBGII@LIMIT_NONE@
CONST	SEGMENT
??_C@_0L@MKHGBGII@LIMIT_NONE@ DB 'LIMIT_NONE', 00H	; `string'
CONST	ENDS
;	COMDAT ??_C@_0L@MFIGJJDC@METIN_GOLD@
CONST	SEGMENT
??_C@_0L@MFIGJJDC@METIN_GOLD@ DB 'METIN_GOLD', 00H	; `string'
CONST	ENDS
;	COMDAT ??_C@_0N@HOHHHOFD@METIN_NORMAL@
CONST	SEGMENT
??_C@_0N@HOHHHOFD@METIN_NORMAL@ DB 'METIN_NORMAL', 00H	; `string'
CONST	ENDS
;	COMDAT ??_C@_0BJ@KCHKGND@MATERIAL_DS_REFINE_HOLLY@
CONST	SEGMENT
??_C@_0BJ@KCHKGND@MATERIAL_DS_REFINE_HOLLY@ DB 'MATERIAL_DS_REFINE_HOLLY', 00H ; `string'
CONST	ENDS
;	COMDAT ??_C@_0BL@HNMOOIKG@MATERIAL_DS_REFINE_BLESSED@
CONST	SEGMENT
??_C@_0BL@HNMOOIKG@MATERIAL_DS_REFINE_BLESSED@ DB 'MATERIAL_DS_REFINE_BLE'
	DB	'SSED', 00H					; `string'
CONST	ENDS
;	COMDAT ??_C@_0BK@FFJFCNLF@MATERIAL_DS_REFINE_NORMAL@
CONST	SEGMENT
??_C@_0BK@FFJFCNLF@MATERIAL_DS_REFINE_NORMAL@ DB 'MATERIAL_DS_REFINE_NORM'
	DB	'AL', 00H					; `string'
CONST	ENDS
;	COMDAT ??_C@_0BE@FCIOINBF@USE_TIME_CHARGE_FIX@
CONST	SEGMENT
??_C@_0BE@FCIOINBF@USE_TIME_CHARGE_FIX@ DB 'USE_TIME_CHARGE_FIX', 00H ; `string'
CONST	ENDS
;	COMDAT ??_C@_0BE@NEAJJELI@USE_TIME_CHARGE_PER@
CONST	SEGMENT
??_C@_0BE@NEAJJELI@USE_TIME_CHARGE_PER@ DB 'USE_TIME_CHARGE_PER', 00H ; `string'
CONST	ENDS
;	COMDAT ??_C@_0P@MKAMDACK@USE_DETACHMENT@
CONST	SEGMENT
??_C@_0P@MKAMDACK@USE_DETACHMENT@ DB 'USE_DETACHMENT', 00H ; `string'
CONST	ENDS
;	COMDAT ??_C@_0BB@NCIEFOD@USE_INVISIBILITY@
CONST	SEGMENT
??_C@_0BB@NCIEFOD@USE_INVISIBILITY@ DB 'USE_INVISIBILITY', 00H ; `string'
CONST	ENDS
;	COMDAT ??_C@_09PNKHEPEF@USE_CLEAR@
CONST	SEGMENT
??_C@_09PNKHEPEF@USE_CLEAR@ DB 'USE_CLEAR', 00H		; `string'
CONST	ENDS
;	COMDAT ??_C@_0BD@MMDEHJ@USE_POTION_NODELAY@
CONST	SEGMENT
??_C@_0BD@MMDEHJ@USE_POTION_NODELAY@ DB 'USE_POTION_NODELAY', 00H ; `string'
CONST	ENDS
;	COMDAT ??_C@_0M@GHOELJHH@USE_SPECIAL@
CONST	SEGMENT
??_C@_0M@GHOELJHH@USE_SPECIAL@ DB 'USE_SPECIAL', 00H	; `string'
CONST	ENDS
;	COMDAT ??_C@_0BB@PBBDNJH@USE_CREATE_STONE@
CONST	SEGMENT
??_C@_0BB@PBBDNJH@USE_CREATE_STONE@ DB 'USE_CREATE_STONE', 00H ; `string'
CONST	ENDS
;	COMDAT ??_C@_0L@DLLOJMIP@USE_AFFECT@
CONST	SEGMENT
??_C@_0L@DLLOJMIP@USE_AFFECT@ DB 'USE_AFFECT', 00H	; `string'
CONST	ENDS
;	COMDAT ??_C@_0P@JBLCKFGE@USE_ABILITY_UP@
CONST	SEGMENT
??_C@_0P@JBLCKFGE@USE_ABILITY_UP@ DB 'USE_ABILITY_UP', 00H ; `string'
CONST	ENDS
;	COMDAT ??_C@_08LBHGOBNP@USE_BAIT@
CONST	SEGMENT
??_C@_08LBHGOBNP@USE_BAIT@ DB 'USE_BAIT', 00H		; `string'
CONST	ENDS
;	COMDAT ??_C@_0N@BOHEHPFI@USE_MONEYBAG@
CONST	SEGMENT
??_C@_0N@BOHEHPFI@USE_MONEYBAG@ DB 'USE_MONEYBAG', 00H	; `string'
CONST	ENDS
;	COMDAT ??_C@_0BB@BBPDKOFG@USE_TREASURE_BOX@
CONST	SEGMENT
??_C@_0BB@BBPDKOFG@USE_TREASURE_BOX@ DB 'USE_TREASURE_BOX', 00H ; `string'
CONST	ENDS
;	COMDAT ??_C@_08JHFKMGGA@USE_MOVE@
CONST	SEGMENT
??_C@_08JHFKMGGA@USE_MOVE@ DB 'USE_MOVE', 00H		; `string'
CONST	ENDS
;	COMDAT ??_C@_0L@JIILHJGL@USE_TUNING@
CONST	SEGMENT
??_C@_0L@JIILHJGL@USE_TUNING@ DB 'USE_TUNING', 00H	; `string'
CONST	ENDS
;	COMDAT ??_C@_0N@CINBPLKM@USE_TALISMAN@
CONST	SEGMENT
??_C@_0N@CINBPLKM@USE_TALISMAN@ DB 'USE_TALISMAN', 00H	; `string'
CONST	ENDS
;	COMDAT ??_C@_0L@DENJCCNI@USE_POTION@
CONST	SEGMENT
??_C@_0L@DENJCCNI@USE_POTION@ DB 'USE_POTION', 00H	; `string'
CONST	ENDS
;	COMDAT ??_C@_0BB@KFDFBDPL@WEAPON_NUM_TYPES@
CONST	SEGMENT
??_C@_0BB@KFDFBDPL@WEAPON_NUM_TYPES@ DB 'WEAPON_NUM_TYPES', 00H ; `string'
CONST	ENDS
;	COMDAT ??_C@_0BH@BDHELGOG@WEAPON_UNLIMITED_ARROW@
CONST	SEGMENT
??_C@_0BH@BDHELGOG@WEAPON_UNLIMITED_ARROW@ DB 'WEAPON_UNLIMITED_ARROW', 00H ; `string'
CONST	ENDS
;	COMDAT ??_C@_0N@DCOAOKB@WEAPON_ARROW@
CONST	SEGMENT
??_C@_0N@DCOAOKB@WEAPON_ARROW@ DB 'WEAPON_ARROW', 00H	; `string'
CONST	ENDS
;	COMDAT ??_C@_0L@LNCOBKNJ@WEAPON_FAN@
CONST	SEGMENT
??_C@_0L@LNCOBKNJ@WEAPON_FAN@ DB 'WEAPON_FAN', 00H	; `string'
CONST	ENDS
;	COMDAT ??_C@_0M@NKBIKBJK@WEAPON_BELL@
CONST	SEGMENT
??_C@_0M@NKBIKBJK@WEAPON_BELL@ DB 'WEAPON_BELL', 00H	; `string'
CONST	ENDS
;	COMDAT ??_C@_0BC@OILJBHHK@WEAPON_TWO_HANDED@
CONST	SEGMENT
??_C@_0BC@OILJBHHK@WEAPON_TWO_HANDED@ DB 'WEAPON_TWO_HANDED', 00H ; `string'
CONST	ENDS
;	COMDAT ??_C@_0L@KDNCAJJM@WEAPON_BOW@
CONST	SEGMENT
??_C@_0L@KDNCAJJM@WEAPON_BOW@ DB 'WEAPON_BOW', 00H	; `string'
CONST	ENDS
;	COMDAT ??_C@_0O@IMDDJKDH@WEAPON_DAGGER@
CONST	SEGMENT
??_C@_0O@IMDDJKDH@WEAPON_DAGGER@ DB 'WEAPON_DAGGER', 00H ; `string'
CONST	ENDS
;	COMDAT ??_C@_0N@FCLCNMLC@WEAPON_SWORD@
CONST	SEGMENT
??_C@_0N@FCLCNMLC@WEAPON_SWORD@ DB 'WEAPON_SWORD', 00H	; `string'
CONST	ENDS
;	COMDAT ??_C@_0BI@GPHFDCEJ@BELT_INVENTORY_SLOT_END@
CONST	SEGMENT
??_C@_0BI@GPHFDCEJ@BELT_INVENTORY_SLOT_END@ DB 'BELT_INVENTORY_SLOT_END', 00H ; `string'
CONST	ENDS
;	COMDAT ??_C@_0BK@EOCDAIHE@BELT_INVENTORY_SLOT_COUNT@
CONST	SEGMENT
??_C@_0BK@EOCDAIHE@BELT_INVENTORY_SLOT_COUNT@ DB 'BELT_INVENTORY_SLOT_COU'
	DB	'NT', 00H					; `string'
CONST	ENDS
;	COMDAT ??_C@_0BK@JAICDGKA@BELT_INVENTORY_SLOT_START@
CONST	SEGMENT
??_C@_0BK@JAICDGKA@BELT_INVENTORY_SLOT_START@ DB 'BELT_INVENTORY_SLOT_STA'
	DB	'RT', 00H					; `string'
CONST	ENDS
;	COMDAT ??_C@_0BE@BFLFIKON@COSTUME_SLOT_WEAPON@
CONST	SEGMENT
??_C@_0BE@BFLFIKON@COSTUME_SLOT_WEAPON@ DB 'COSTUME_SLOT_WEAPON', 00H ; `string'
CONST	ENDS
;	COMDAT ??_C@_0BE@NDJCIHLM@COSTUME_TYPE_WEAPON@
CONST	SEGMENT
??_C@_0BE@NDJCIHLM@COSTUME_TYPE_WEAPON@ DB 'COSTUME_TYPE_WEAPON', 00H ; `string'
CONST	ENDS
;	COMDAT ??_C@_0BC@BGOLDOEJ@COSTUME_SLOT_SASH@
CONST	SEGMENT
??_C@_0BC@BGOLDOEJ@COSTUME_SLOT_SASH@ DB 'COSTUME_SLOT_SASH', 00H ; `string'
CONST	ENDS
;	COMDAT ??_C@_0BC@HGFCJGPD@COSTUME_TYPE_SASH@
CONST	SEGMENT
??_C@_0BC@HGFCJGPD@COSTUME_TYPE_SASH@ DB 'COSTUME_TYPE_SASH', 00H ; `string'
CONST	ENDS
;	COMDAT ??_C@_0BB@IEFLAOJF@COSTUME_SLOT_END@
CONST	SEGMENT
??_C@_0BB@IEFLAOJF@COSTUME_SLOT_END@ DB 'COSTUME_SLOT_END', 00H ; `string'
CONST	ENDS
;	COMDAT ??_C@_0BC@KAEHEEKH@COSTUME_SLOT_HAIR@
CONST	SEGMENT
??_C@_0BC@KAEHEEKH@COSTUME_SLOT_HAIR@ DB 'COSTUME_SLOT_HAIR', 00H ; `string'
CONST	ENDS
;	COMDAT ??_C@_0BC@OBAEGBKN@COSTUME_SLOT_BODY@
CONST	SEGMENT
??_C@_0BC@OBAEGBKN@COSTUME_SLOT_BODY@ DB 'COSTUME_SLOT_BODY', 00H ; `string'
CONST	ENDS
;	COMDAT ??_C@_0BD@EMMBBFMO@COSTUME_SLOT_COUNT@
CONST	SEGMENT
??_C@_0BD@EMMBBFMO@COSTUME_SLOT_COUNT@ DB 'COSTUME_SLOT_COUNT', 00H ; `string'
CONST	ENDS
;	COMDAT ??_C@_0BD@JCGACLBK@COSTUME_SLOT_START@
CONST	SEGMENT
??_C@_0BD@JCGACLBK@COSTUME_SLOT_START@ DB 'COSTUME_SLOT_START', 00H ; `string'
CONST	ENDS
;	COMDAT ??_C@_0BC@MAPOOMBN@COSTUME_TYPE_HAIR@
CONST	SEGMENT
??_C@_0BC@MAPOOMBN@COSTUME_TYPE_HAIR@ DB 'COSTUME_TYPE_HAIR', 00H ; `string'
CONST	ENDS
;	COMDAT ??_C@_0BC@IBLNMJBH@COSTUME_TYPE_BODY@
CONST	SEGMENT
??_C@_0BC@IBLNMJBH@COSTUME_TYPE_BODY@ DB 'COSTUME_TYPE_BODY', 00H ; `string'
CONST	ENDS
;	COMDAT ??_C@_0BC@GOFIPFBN@ITEM_TYPE_COSTUME@
CONST	SEGMENT
??_C@_0BC@GOFIPFBN@ITEM_TYPE_COSTUME@ DB 'ITEM_TYPE_COSTUME', 00H ; `string'
CONST	ENDS
;	COMDAT ??_C@_0P@LGEHOEDP@ITEM_TYPE_BELT@
CONST	SEGMENT
??_C@_0P@LGEHOEDP@ITEM_TYPE_BELT@ DB 'ITEM_TYPE_BELT', 00H ; `string'
CONST	ENDS
;	COMDAT ??_C@_0P@POBKFJPJ@ITEM_TYPE_RING@
CONST	SEGMENT
??_C@_0P@POBKFJPJ@ITEM_TYPE_RING@ DB 'ITEM_TYPE_RING', 00H ; `string'
CONST	ENDS
;	COMDAT ??_C@_0BF@GGLFIBNL@ITEM_TYPE_SPECIAL_DS@
CONST	SEGMENT
??_C@_0BF@GGLFIBNL@ITEM_TYPE_SPECIAL_DS@ DB 'ITEM_TYPE_SPECIAL_DS', 00H ; `string'
CONST	ENDS
;	COMDAT ??_C@_0N@BKIJEOLO@ITEM_TYPE_DS@
CONST	SEGMENT
??_C@_0N@BKIJEOLO@ITEM_TYPE_DS@ DB 'ITEM_TYPE_DS', 00H	; `string'
CONST	ENDS
;	COMDAT ??_C@_0BA@EDGMOLIF@ITEM_TYPE_BLEND@
CONST	SEGMENT
??_C@_0BA@EDGMOLIF@ITEM_TYPE_BLEND@ DB 'ITEM_TYPE_BLEND', 00H ; `string'
CONST	ENDS
;	COMDAT ??_C@_0P@CALHNGMG@ITEM_TYPE_PICK@
CONST	SEGMENT
??_C@_0P@CALHNGMG@ITEM_TYPE_PICK@ DB 'ITEM_TYPE_PICK', 00H ; `string'
CONST	ENDS
;	COMDAT ??_C@_0BH@KGMIMAKI@ITEM_TYPE_TREASURE_KEY@
CONST	SEGMENT
??_C@_0BH@KGMIMAKI@ITEM_TYPE_TREASURE_KEY@ DB 'ITEM_TYPE_TREASURE_KEY', 00H ; `string'
CONST	ENDS
;	COMDAT ??_C@_0BH@MPEMDLLF@ITEM_TYPE_TREASURE_BOX@
CONST	SEGMENT
??_C@_0BH@MPEMDLLF@ITEM_TYPE_TREASURE_BOX@ DB 'ITEM_TYPE_TREASURE_BOX', 00H ; `string'
CONST	ENDS
;	COMDAT ??_C@_0BE@DGPJCLHG@ITEM_TYPE_POLYMORPH@
CONST	SEGMENT
??_C@_0BE@DGPJCLHG@ITEM_TYPE_POLYMORPH@ DB 'ITEM_TYPE_POLYMORPH', 00H ; `string'
CONST	ENDS
;	COMDAT ??_C@_0BA@PFOCEMDB@ITEM_TYPE_QUEST@
CONST	SEGMENT
??_C@_0BA@PFOCEMDB@ITEM_TYPE_QUEST@ DB 'ITEM_TYPE_QUEST', 00H ; `string'
CONST	ENDS
;	COMDAT ??_C@_0BE@FAMMFDKM@ITEM_TYPE_SKILLBOOK@
CONST	SEGMENT
??_C@_0BE@FAMMFDKM@ITEM_TYPE_SKILLBOOK@ DB 'ITEM_TYPE_SKILLBOOK', 00H ; `string'
CONST	ENDS
;	COMDAT ??_C@_0BB@CPEAMAMA@ITEM_TYPE_UNIQUE@
CONST	SEGMENT
??_C@_0BB@CPEAMAMA@ITEM_TYPE_UNIQUE@ DB 'ITEM_TYPE_UNIQUE', 00H ; `string'
CONST	ENDS
;	COMDAT ??_C@_0BD@OGNHPHCL@ITEM_TYPE_CAMPFIRE@
CONST	SEGMENT
??_C@_0BD@OGNHPHCL@ITEM_TYPE_CAMPFIRE@ DB 'ITEM_TYPE_CAMPFIRE', 00H ; `string'
CONST	ENDS
;	COMDAT ??_C@_0BD@KBPLAMLF@ITEM_TYPE_RESOURCE@
CONST	SEGMENT
??_C@_0BD@KBPLAMLF@ITEM_TYPE_RESOURCE@ DB 'ITEM_TYPE_RESOURCE', 00H ; `string'
CONST	ENDS
;	COMDAT ??_C@_0O@NIJIMPJD@ITEM_TYPE_ROD@
CONST	SEGMENT
??_C@_0O@NIJIMPJD@ITEM_TYPE_ROD@ DB 'ITEM_TYPE_ROD', 00H ; `string'
CONST	ENDS
;	COMDAT ??_C@_0P@PIBMEEFH@ITEM_TYPE_FISH@
CONST	SEGMENT
??_C@_0P@PIBMEEFH@ITEM_TYPE_FISH@ DB 'ITEM_TYPE_FISH', 00H ; `string'
CONST	ENDS
;	COMDAT ??_C@_0BE@JBBPDBJM@ITEM_TYPE_CONTAINER@
CONST	SEGMENT
??_C@_0BE@JBBPDBJM@ITEM_TYPE_CONTAINER@ DB 'ITEM_TYPE_CONTAINER', 00H ; `string'
CONST	ENDS
;	COMDAT ??_C@_0BA@KICPPFNE@ITEM_TYPE_METIN@
CONST	SEGMENT
??_C@_0BA@KICPPFNE@ITEM_TYPE_METIN@ DB 'ITEM_TYPE_METIN', 00H ; `string'
CONST	ENDS
;	COMDAT ??_C@_0O@JAIIACCD@ITEM_TYPE_ELK@
CONST	SEGMENT
??_C@_0O@JAIIACCD@ITEM_TYPE_ELK@ DB 'ITEM_TYPE_ELK', 00H ; `string'
CONST	ENDS
;	COMDAT ??_C@_0BC@LGJDJIG@ITEM_TYPE_LOTTERY@
CONST	SEGMENT
??_C@_0BC@LGJDJIG@ITEM_TYPE_LOTTERY@ DB 'ITEM_TYPE_LOTTERY', 00H ; `string'
CONST	ENDS
;	COMDAT ??_C@_0P@LGAHEAHJ@ITEM_TYPE_TOOL@
CONST	SEGMENT
??_C@_0P@LGAHEAHJ@ITEM_TYPE_TOOL@ DB 'ITEM_TYPE_TOOL', 00H ; `string'
CONST	ENDS
;	COMDAT ??_C@_0BC@EGCNCIAP@ITEM_TYPE_SPECIAL@
CONST	SEGMENT
??_C@_0BC@EGCNCIAP@ITEM_TYPE_SPECIAL@ DB 'ITEM_TYPE_SPECIAL', 00H ; `string'
CONST	ENDS
;	COMDAT ??_C@_0BD@NFIKPBKO@ITEM_TYPE_MATERIAL@
CONST	SEGMENT
??_C@_0BD@NFIKPBKO@ITEM_TYPE_MATERIAL@ DB 'ITEM_TYPE_MATERIAL', 00H ; `string'
CONST	ENDS
;	COMDAT ??_C@_0BC@PDFOCJLB@ITEM_TYPE_AUTOUSE@
CONST	SEGMENT
??_C@_0BC@PDFOCJLB@ITEM_TYPE_AUTOUSE@ DB 'ITEM_TYPE_AUTOUSE', 00H ; `string'
CONST	ENDS
;	COMDAT ??_C@_0O@EJGIJMHP@ITEM_TYPE_USE@
CONST	SEGMENT
??_C@_0O@EJGIJMHP@ITEM_TYPE_USE@ DB 'ITEM_TYPE_USE', 00H ; `string'
CONST	ENDS
;	COMDAT ??_C@_0BA@MCMGEHMH@ITEM_TYPE_ARMOR@
CONST	SEGMENT
??_C@_0BA@MCMGEHMH@ITEM_TYPE_ARMOR@ DB 'ITEM_TYPE_ARMOR', 00H ; `string'
CONST	ENDS
;	COMDAT ??_C@_0BB@KIJBPCOD@ITEM_TYPE_WEAPON@
CONST	SEGMENT
??_C@_0BB@KIJBPCOD@ITEM_TYPE_WEAPON@ DB 'ITEM_TYPE_WEAPON', 00H ; `string'
CONST	ENDS
;	COMDAT ??_C@_0P@EMFHBOCE@ITEM_TYPE_NONE@
CONST	SEGMENT
??_C@_0P@EMFHBOCE@ITEM_TYPE_NONE@ DB 'ITEM_TYPE_NONE', 00H ; `string'
CONST	ENDS
;	COMDAT ??_C@_0P@GKDPOFPB@EQUIPMENT_BELT@
CONST	SEGMENT
??_C@_0P@GKDPOFPB@EQUIPMENT_BELT@ DB 'EQUIPMENT_BELT', 00H ; `string'
CONST	ENDS
;	COMDAT ??_C@_0BA@FFOPJDCG@EQUIPMENT_RING2@
CONST	SEGMENT
??_C@_0BA@FFOPJDCG@EQUIPMENT_RING2@ DB 'EQUIPMENT_RING2', 00H ; `string'
CONST	ENDS
;	COMDAT ??_C@_0BA@HOMCMAOF@EQUIPMENT_RING1@
CONST	SEGMENT
??_C@_0BA@HOMCMAOF@EQUIPMENT_RING1@ DB 'EQUIPMENT_RING1', 00H ; `string'
CONST	ENDS
;	COMDAT ??_C@_0BA@MLMLGDPN@EQUIPMENT_ARROW@
CONST	SEGMENT
??_C@_0BA@MLMLGDPN@EQUIPMENT_ARROW@ DB 'EQUIPMENT_ARROW', 00H ; `string'
CONST	ENDS
;	COMDAT ??_C@_0BC@KKMPKFNI@EQUIPMENT_UNIQUE2@
CONST	SEGMENT
??_C@_0BC@KKMPKFNI@EQUIPMENT_UNIQUE2@ DB 'EQUIPMENT_UNIQUE2', 00H ; `string'
CONST	ENDS
;	COMDAT ??_C@_0BC@IBOCPGBL@EQUIPMENT_UNIQUE1@
CONST	SEGMENT
??_C@_0BC@IBOCPGBL@EQUIPMENT_UNIQUE1@ DB 'EQUIPMENT_UNIQUE1', 00H ; `string'
CONST	ENDS
;	COMDAT ??_C@_0O@KNFMDJEG@EQUIPMENT_EAR@
CONST	SEGMENT
??_C@_0O@KNFMDJEG@EQUIPMENT_EAR@ DB 'EQUIPMENT_EAR', 00H ; `string'
CONST	ENDS
;	COMDAT ??_C@_0P@GJMJEBFD@EQUIPMENT_NECK@
CONST	SEGMENT
??_C@_0P@GJMJEBFD@EQUIPMENT_NECK@ DB 'EQUIPMENT_NECK', 00H ; `string'
CONST	ENDS
;	COMDAT ??_C@_0BA@GEANIANO@EQUIPMENT_SHOES@
CONST	SEGMENT
??_C@_0BA@GEANIANO@EQUIPMENT_SHOES@ DB 'EQUIPMENT_SHOES', 00H ; `string'
CONST	ENDS
;	COMDAT ??_C@_0BA@KHENFLDC@EQUIPMENT_WRIST@
CONST	SEGMENT
??_C@_0BA@KHENFLDC@EQUIPMENT_WRIST@ DB 'EQUIPMENT_WRIST', 00H ; `string'
CONST	ENDS
;	COMDAT ??_C@_0BB@IKOPOEMN@EQUIPMENT_WEAPON@
CONST	SEGMENT
??_C@_0BB@IKOPOEMN@EQUIPMENT_WEAPON@ DB 'EQUIPMENT_WEAPON', 00H ; `string'
CONST	ENDS
;	COMDAT ??_C@_0P@LODPCKGA@EQUIPMENT_BODY@
CONST	SEGMENT
??_C@_0P@LODPCKGA@EQUIPMENT_BODY@ DB 'EQUIPMENT_BODY', 00H ; `string'
CONST	ENDS
;	COMDAT ??_C@_0P@GCJFHMFC@EQUIPMENT_HEAD@
CONST	SEGMENT
??_C@_0P@GCJFHMFC@EQUIPMENT_HEAD@ DB 'EQUIPMENT_HEAD', 00H ; `string'
CONST	ENDS
;	COMDAT ??_C@_0BA@KJELJAII@EQUIPMENT_COUNT@
CONST	SEGMENT
??_C@_0BA@KJELJAII@EQUIPMENT_COUNT@ DB 'EQUIPMENT_COUNT', 00H ; `string'
CONST	ENDS
;	COMDAT ??_C@_0BB@JMMPMOOC@DROPSOUND_WEAPON@
CONST	SEGMENT
??_C@_0BB@JMMPMOOC@DROPSOUND_WEAPON@ DB 'DROPSOUND_WEAPON', 00H ; `string'
CONST	ENDS
;	COMDAT ??_C@_0BC@BONOAPBN@DROPSOUND_DEFAULT@
CONST	SEGMENT
??_C@_0BC@BONOAPBN@DROPSOUND_DEFAULT@ DB 'DROPSOUND_DEFAULT', 00H ; `string'
CONST	ENDS
;	COMDAT ??_C@_0O@OOJPAKOO@DROPSOUND_BOW@
CONST	SEGMENT
??_C@_0O@OOJPAKOO@DROPSOUND_BOW@ DB 'DROPSOUND_BOW', 00H ; `string'
CONST	ENDS
;	COMDAT ??_C@_0BA@PCCDLKKO@DROPSOUND_ARMOR@
CONST	SEGMENT
??_C@_0BA@PCCDLKKO@DROPSOUND_ARMOR@ DB 'DROPSOUND_ARMOR', 00H ; `string'
CONST	ENDS
;	COMDAT ??_C@_0BE@PBPPNIPJ@DROPSOUND_ACCESSORY@
CONST	SEGMENT
??_C@_0BE@PBPPNIPJ@DROPSOUND_ACCESSORY@ DB 'DROPSOUND_ACCESSORY', 00H ; `string'
CONST	ENDS
;	COMDAT ??_C@_0BA@HNBMICIL@USESOUND_PORTAL@
CONST	SEGMENT
??_C@_0BA@HNBMICIL@USESOUND_PORTAL@ DB 'USESOUND_PORTAL', 00H ; `string'
CONST	ENDS
;	COMDAT ??_C@_0BA@GIIHLHOB@USESOUND_POTION@
CONST	SEGMENT
??_C@_0BA@GIIHLHOB@USESOUND_POTION@ DB 'USESOUND_POTION', 00H ; `string'
CONST	ENDS
;	COMDAT ??_C@_0BA@IJKKKKOO@USESOUND_WEAPON@
CONST	SEGMENT
??_C@_0BA@IJKKKKOO@USESOUND_WEAPON@ DB 'USESOUND_WEAPON', 00H ; `string'
CONST	ENDS
;	COMDAT ??_C@_0BB@BHHNCGFC@USESOUND_DEFAULT@
CONST	SEGMENT
??_C@_0BB@BHHNCGFC@USESOUND_DEFAULT@ DB 'USESOUND_DEFAULT', 00H ; `string'
CONST	ENDS
;	COMDAT ??_C@_0N@MDIFIDON@USESOUND_BOW@
CONST	SEGMENT
??_C@_0N@MDIFIDON@USESOUND_BOW@ DB 'USESOUND_BOW', 00H	; `string'
CONST	ENDS
;	COMDAT ??_C@_0P@ENGKPPPD@USESOUND_ARMOR@
CONST	SEGMENT
??_C@_0P@ENGKPPPD@USESOUND_ARMOR@ DB 'USESOUND_ARMOR', 00H ; `string'
CONST	ENDS
;	COMDAT ??_C@_0BD@MEKMBKPM@USESOUND_ACCESSORY@
CONST	SEGMENT
??_C@_0BD@MEKMBKPM@USESOUND_ACCESSORY@ DB 'USESOUND_ACCESSORY', 00H ; `string'
CONST	ENDS
;	COMDAT ??_C@_0O@HJNOJBCJ@LoadItemTable@
CONST	SEGMENT
??_C@_0O@HJNOJBCJ@LoadItemTable@ DB 'LoadItemTable', 00H ; `string'
CONST	ENDS
;	COMDAT ??_C@_0L@IIJEEMCG@DeleteItem@
CONST	SEGMENT
??_C@_0L@IIJEEMCG@DeleteItem@ DB 'DeleteItem', 00H	; `string'
CONST	ENDS
;	COMDAT ??_C@_0L@EMDEHLJF@CreateItem@
CONST	SEGMENT
??_C@_0L@EMDEHLJF@CreateItem@ DB 'CreateItem', 00H	; `string'
CONST	ENDS
;	COMDAT ??_C@_0BG@FEGHIHDK@CanAddToQuickSlotItem@
CONST	SEGMENT
??_C@_0BG@FEGHIHDK@CanAddToQuickSlotItem@ DB 'CanAddToQuickSlotItem', 00H ; `string'
CONST	ENDS
;	COMDAT ??_C@_07MLLOFDCE@IsMetin@
CONST	SEGMENT
??_C@_07MLLOFDCE@IsMetin@ DB 'IsMetin', 00H		; `string'
CONST	ENDS
;	COMDAT ??_C@_05CEOMILKP@IsKey@
CONST	SEGMENT
??_C@_05CEOMILKP@IsKey@ DB 'IsKey', 00H			; `string'
CONST	ENDS
;	COMDAT ??_C@_0P@CNNPGCCK@IsDetachScroll@
CONST	SEGMENT
??_C@_0P@CNNPGCCK@IsDetachScroll@ DB 'IsDetachScroll', 00H ; `string'
CONST	ENDS
;	COMDAT ??_C@_0P@LGDKNEFF@IsRefineScroll@
CONST	SEGMENT
??_C@_0P@LGDKNEFF@IsRefineScroll@ DB 'IsRefineScroll', 00H ; `string'
CONST	ENDS
;	COMDAT ??_C@_0P@OGDGGJFE@IsEquipmentVID@
CONST	SEGMENT
??_C@_0P@OGDGGJFE@IsEquipmentVID@ DB 'IsEquipmentVID', 00H ; `string'
CONST	ENDS
;	COMDAT ??_C@_0BD@BNBIIKMM@DeleteIconInstance@
CONST	SEGMENT
??_C@_0BD@BNBIIKMM@DeleteIconInstance@ DB 'DeleteIconInstance', 00H ; `string'
CONST	ENDS
;	COMDAT ??_C@_0L@POCKMHMA@GetUseType@
CONST	SEGMENT
??_C@_0L@POCKMHMA@GetUseType@ DB 'GetUseType', 00H	; `string'
CONST	ENDS
;	COMDAT ??_C@_0BA@PMLMLIHH@GetIconInstance@
CONST	SEGMENT
??_C@_0BA@PMLMLIHH@GetIconInstance@ DB 'GetIconInstance', 00H ; `string'
CONST	ENDS
;	COMDAT ??_C@_09ICJIFGNC@GetSocket@
CONST	SEGMENT
??_C@_09ICJIFGNC@GetSocket@ DB 'GetSocket', 00H		; `string'
CONST	ENDS
;	COMDAT ??_C@_08GGOMBHIN@GetValue@
CONST	SEGMENT
??_C@_08GGOMBHIN@GetValue@ DB 'GetValue', 00H		; `string'
CONST	ENDS
;	COMDAT ??_C@_09HJGEAOAM@GetAffect@
CONST	SEGMENT
??_C@_09HJGEAOAM@GetAffect@ DB 'GetAffect', 00H		; `string'
CONST	ENDS
;	COMDAT ??_C@_08KIIGDNA@GetLimit@
CONST	SEGMENT
??_C@_08KIIGDNA@GetLimit@ DB 'GetLimit', 00H		; `string'
CONST	ENDS
;	COMDAT ??_C@_0M@IKKLMPND@Is1GoldItem@
CONST	SEGMENT
??_C@_0M@IKKLMPND@Is1GoldItem@ DB 'Is1GoldItem', 00H	; `string'
CONST	ENDS
;	COMDAT ??_C@_0P@KNFGADIE@IsWearableFlag@
CONST	SEGMENT
??_C@_0P@KNFGADIE@IsWearableFlag@ DB 'IsWearableFlag', 00H ; `string'
CONST	ENDS
;	COMDAT ??_C@_06PLFMNGGB@IsFlag@
CONST	SEGMENT
??_C@_06PLFMNGGB@IsFlag@ DB 'IsFlag', 00H		; `string'
CONST	ENDS
;	COMDAT ??_C@_0L@NKLNOBKA@IsAntiFlag@
CONST	SEGMENT
??_C@_0L@NKLNOBKA@IsAntiFlag@ DB 'IsAntiFlag', 00H	; `string'
CONST	ENDS
;	COMDAT ??_C@_0BC@OKNBBEMG@GetISellItemPrice@
CONST	SEGMENT
??_C@_0BC@OKNBBEMG@GetISellItemPrice@ DB 'GetISellItemPrice', 00H ; `string'
CONST	ENDS
;	COMDAT ??_C@_0BB@KJGHJKGD@GetIBuyItemPrice@
CONST	SEGMENT
??_C@_0BB@KJGHJKGD@GetIBuyItemPrice@ DB 'GetIBuyItemPrice', 00H ; `string'
CONST	ENDS
;	COMDAT ??_C@_0P@MFCMKOKJ@GetItemSubType@
CONST	SEGMENT
??_C@_0P@MFCMKOKJ@GetItemSubType@ DB 'GetItemSubType', 00H ; `string'
CONST	ENDS
;	COMDAT ??_C@_0M@LOOAFMCI@GetItemType@
CONST	SEGMENT
??_C@_0M@LOOAFMCI@GetItemType@ DB 'GetItemType', 00H	; `string'
CONST	ENDS
;	COMDAT ??_C@_0M@FBEOFCHB@GetItemSize@
CONST	SEGMENT
??_C@_0M@FBEOFCHB@GetItemSize@ DB 'GetItemSize', 00H	; `string'
CONST	ENDS
;	COMDAT ??_C@_0BF@NNPLLIOE@GetIconImageFileName@
CONST	SEGMENT
??_C@_0BF@NNPLLIOE@GetIconImageFileName@ DB 'GetIconImageFileName', 00H ; `string'
CONST	ENDS
;	COMDAT ??_C@_0N@IEABDKDK@GetIconImage@
CONST	SEGMENT
??_C@_0N@IEABDKDK@GetIconImage@ DB 'GetIconImage', 00H	; `string'
CONST	ENDS
;	COMDAT ??_C@_0P@OIBFDAMI@GetItemSummary@
CONST	SEGMENT
??_C@_0P@OIBFDAMI@GetItemSummary@ DB 'GetItemSummary', 00H ; `string'
CONST	ENDS
;	COMDAT ??_C@_0BD@GLEOJONA@GetItemDescription@
CONST	SEGMENT
??_C@_0BD@GLEOJONA@GetItemDescription@ DB 'GetItemDescription', 00H ; `string'
CONST	ENDS
;	COMDAT ??_C@_0M@BFODJMFI@GetItemName@
CONST	SEGMENT
??_C@_0M@BFODJMFI@GetItemName@ DB 'GetItemName', 00H	; `string'
CONST	ENDS
;	COMDAT ??_C@_0L@GFKKOOBA@SelectItem@
CONST	SEGMENT
??_C@_0L@GFKKOOBA@SelectItem@ DB 'SelectItem', 00H	; `string'
CONST	ENDS
;	COMDAT ??_C@_0BF@BODGENI@SetDropSoundFileName@
CONST	SEGMENT
??_C@_0BF@BODGENI@SetDropSoundFileName@ DB 'SetDropSoundFileName', 00H ; `string'
CONST	ENDS
;	COMDAT ??_C@_0BE@HKKEFMIC@SetUseSoundFileName@
CONST	SEGMENT
??_C@_0BE@HKKEFMIC@SetUseSoundFileName@ DB 'SetUseSoundFileName', 00H ; `string'
CONST	ENDS
;	COMDAT ??_C@_0BM@KPLEGEEH@Can?8t?5find?5select?5item?5data@
CONST	SEGMENT
??_C@_0BM@KPLEGEEH@Can?8t?5find?5select?5item?5data@ DB 'Can''t find sele'
	DB	'ct item data', 00H				; `string'
CONST	ENDS
;	COMDAT ??_C@_0BM@MLEHJLDK@Cannot?5get?5icon?5image?5by?5?$CFd@
CONST	SEGMENT
??_C@_0BM@MLEHJLDK@Cannot?5get?5icon?5image?5by?5?$CFd@ DB 'Cannot get ic'
	DB	'on image by %d', 00H			; `string'
CONST	ENDS
;	COMDAT ??_C@_0BJ@FJOAFFCG@Not?5yet?5select?5item?5data@
CONST	SEGMENT
??_C@_0BJ@FJOAFFCG@Not?5yet?5select?5item?5data@ DB 'Not yet select item '
	DB	'data', 00H					; `string'
CONST	ENDS
;	COMDAT ??_C@_0BG@LNOAJHHG@no?5selected?5item?5data@
CONST	SEGMENT
??_C@_0BG@LNOAJHHG@no?5selected?5item?5data@ DB 'no selected item data', 00H ; `string'
CONST	ENDS
;	COMDAT ??_C@_0BH@EOAFOHJK@Cannot?5find?5item?5by?5?$CFd@
CONST	SEGMENT
??_C@_0BH@EOAFOHJK@Cannot?5find?5item?5by?5?$CFd@ DB 'Cannot find item by'
	DB	' %d', 00H					; `string'
PUBLIC	?initItem@@YAXXZ				; initItem
PUBLIC	?itemLoadItemTable@@YAPAU_object@@PAU1@0@Z	; itemLoadItemTable
PUBLIC	?itemPick@@YAPAU_object@@PAU1@0@Z		; itemPick
PUBLIC	?itemDeleteItem@@YAPAU_object@@PAU1@0@Z		; itemDeleteItem
PUBLIC	?itemCreateItem@@YAPAU_object@@PAU1@0@Z		; itemCreateItem
PUBLIC	?itemUpdate@@YAPAU_object@@PAU1@0@Z		; itemUpdate
PUBLIC	?itemRender@@YAPAU_object@@PAU1@0@Z		; itemRender
PUBLIC	?itemIsMetin@@YAPAU_object@@PAU1@0@Z		; itemIsMetin
PUBLIC	?itemIsKey@@YAPAU_object@@PAU1@0@Z		; itemIsKey
PUBLIC	?itemCanAddToQuickSlotItem@@YAPAU_object@@PAU1@0@Z ; itemCanAddToQuickSlotItem
PUBLIC	?itemIsDetachScroll@@YAPAU_object@@PAU1@0@Z	; itemIsDetachScroll
PUBLIC	?itemIsRefineScroll@@YAPAU_object@@PAU1@0@Z	; itemIsRefineScroll
PUBLIC	?itemGetUseType@@YAPAU_object@@PAU1@0@Z		; itemGetUseType
PUBLIC	?itemIsEquipmentVID@@YAPAU_object@@PAU1@0@Z	; itemIsEquipmentVID
PUBLIC	?itemDeleteIconInstance@@YAPAU_object@@PAU1@0@Z	; itemDeleteIconInstance
PUBLIC	?itemGetIconInstance@@YAPAU_object@@PAU1@0@Z	; itemGetIconInstance
PUBLIC	?itemGetSocket@@YAPAU_object@@PAU1@0@Z		; itemGetSocket
PUBLIC	?itemGetValue@@YAPAU_object@@PAU1@0@Z		; itemGetValue
PUBLIC	?itemGetAffect@@YAPAU_object@@PAU1@0@Z		; itemGetAffect
PUBLIC	?itemGetLimit@@YAPAU_object@@PAU1@0@Z		; itemGetLimit
PUBLIC	?itemIs1GoldItem@@YAPAU_object@@PAU1@0@Z	; itemIs1GoldItem
PUBLIC	?itemIsWearableFlag@@YAPAU_object@@PAU1@0@Z	; itemIsWearableFlag
PUBLIC	?itemIsFlag@@YAPAU_object@@PAU1@0@Z		; itemIsFlag
PUBLIC	?itemIsAntiFlag@@YAPAU_object@@PAU1@0@Z		; itemIsAntiFlag
PUBLIC	?itemGetISellItemPrice@@YAPAU_object@@PAU1@0@Z	; itemGetISellItemPrice
PUBLIC	?itemGetIBuyItemPrice@@YAPAU_object@@PAU1@0@Z	; itemGetIBuyItemPrice
PUBLIC	?itemGetItemSubType@@YAPAU_object@@PAU1@0@Z	; itemGetItemSubType
PUBLIC	?itemGetItemType@@YAPAU_object@@PAU1@0@Z	; itemGetItemType
PUBLIC	?itemGetItemSize@@YAPAU_object@@PAU1@0@Z	; itemGetItemSize
PUBLIC	?itemGetIconImageFileName@@YAPAU_object@@PAU1@0@Z ; itemGetIconImageFileName
PUBLIC	?itemGetIconImage@@YAPAU_object@@PAU1@0@Z	; itemGetIconImage
PUBLIC	?itemGetItemSummary@@YAPAU_object@@PAU1@0@Z	; itemGetItemSummary
PUBLIC	?itemGetItemDescription@@YAPAU_object@@PAU1@0@Z	; itemGetItemDescription
PUBLIC	?itemGetItemName@@YAPAU_object@@PAU1@0@Z	; itemGetItemName
PUBLIC	?itemSelectItem@@YAPAU_object@@PAU1@0@Z		; itemSelectItem
PUBLIC	?itemSetDropSoundFileName@@YAPAU_object@@PAU1@0@Z ; itemSetDropSoundFileName
PUBLIC	?itemSetUseSoundFileName@@YAPAU_object@@PAU1@0@Z ; itemSetUseSoundFileName
;	COMDAT xdata$x
xdata$x	SEGMENT
__ehfuncinfo$?itemSetUseSoundFileName@@YAPAU_object@@PAU1@0@Z DD 019930522H
	DD	01H
	DD	FLAT:__unwindtable$?itemSetUseSoundFileName@@YAPAU_object@@PAU1@0@Z
	DD	2 DUP(00H)
	DD	2 DUP(00H)
	DD	00H
	DD	01H
__unwindtable$?itemSetUseSoundFileName@@YAPAU_object@@PAU1@0@Z DD 0ffffffffH
	DD	FLAT:__unwindfunclet$?itemSetUseSoundFileName@@YAPAU_object@@PAU1@0@Z$0
xdata$x	ENDS
;	COMDAT xdata$x
xdata$x	SEGMENT
__ehfuncinfo$?itemSetDropSoundFileName@@YAPAU_object@@PAU1@0@Z DD 019930522H
	DD	01H
	DD	FLAT:__unwindtable$?itemSetDropSoundFileName@@YAPAU_object@@PAU1@0@Z
	DD	2 DUP(00H)
	DD	2 DUP(00H)
	DD	00H
	DD	01H
__unwindtable$?itemSetDropSoundFileName@@YAPAU_object@@PAU1@0@Z DD 0ffffffffH
	DD	FLAT:__unwindfunclet$?itemSetDropSoundFileName@@YAPAU_object@@PAU1@0@Z$0
; Function compile flags: /Ogtp
; File E:\Metin2_server\SolWayneSF v6\ClientVS22\source\UserInterface\PythonItemModule.cpp
; File C:\Program Files\Microsoft Visual Studio\2022\Community\VC\Tools\MSVC\14.34.31933\include\xstring
; File E:\Metin2_server\SolWayneSF v6\ClientVS22\source\UserInterface\PythonItemModule.cpp
; File C:\Program Files\Microsoft Visual Studio\2022\Community\VC\Tools\MSVC\14.34.31933\include\xstring
; File E:\Metin2_server\SolWayneSF v6\ClientVS22\source\UserInterface\PythonItemModule.cpp
; File C:\Program Files\Microsoft Visual Studio\2022\Community\VC\Tools\MSVC\14.34.31933\include\xstring
; File C:\Program Files\Microsoft Visual Studio\2022\Community\VC\Tools\MSVC\14.34.31933\include\xmemory
; File C:\Program Files\Microsoft Visual Studio\2022\Community\VC\Tools\MSVC\14.34.31933\include\xstring
; File C:\Program Files\Microsoft Visual Studio\2022\Community\VC\Tools\MSVC\14.34.31933\include\xmemory
; File E:\Metin2_server\SolWayneSF v6\ClientVS22\source\UserInterface\PythonItemModule.cpp
; File C:\Program Files\Microsoft Visual Studio\2022\Community\VC\Tools\MSVC\14.34.31933\include\xmemory
; File E:\Metin2_server\SolWayneSF v6\ClientVS22\source\UserInterface\PythonItemModule.cpp
;	COMDAT ?itemSetUseSoundFileName@@YAPAU_object@@PAU1@0@Z
_TEXT	SEGMENT
_iUseSound$ = -48					; size = 4
_szFileName$ = -44					; size = 4
$T2 = -40						; size = 24
__$ArrayPad$ = -16					; size = 4
__$EHRec$ = -12						; size = 12
_poSelf$ = 8						; size = 4
_poArgs$ = 12						; size = 4
?itemSetUseSoundFileName@@YAPAU_object@@PAU1@0@Z PROC	; itemSetUseSoundFileName, COMDAT

; 11   : {

  00000	55		 push	 ebp
  00001	8b ec		 mov	 ebp, esp
  00003	6a ff		 push	 -1
  00005	68 00 00 00 00	 push	 __ehhandler$?itemSetUseSoundFileName@@YAPAU_object@@PAU1@0@Z
  0000a	64 a1 00 00 00
	00		 mov	 eax, DWORD PTR fs:0
  00010	50		 push	 eax
  00011	83 ec 24	 sub	 esp, 36			; 00000024H
  00014	a1 00 00 00 00	 mov	 eax, DWORD PTR ___security_cookie
  00019	33 c5		 xor	 eax, ebp
  0001b	89 45 f0	 mov	 DWORD PTR __$ArrayPad$[ebp], eax
  0001e	56		 push	 esi
  0001f	57		 push	 edi
  00020	50		 push	 eax
  00021	8d 45 f4	 lea	 eax, DWORD PTR __$EHRec$[ebp]
  00024	64 a3 00 00 00
	00		 mov	 DWORD PTR fs:0, eax
  0002a	8b 75 0c	 mov	 esi, DWORD PTR _poArgs$[ebp]

; 12   : 	int iUseSound;
; 13   : 	if (!PyTuple_GetInteger(poArgs, 0, &iUseSound))

  0002d	8d 45 d0	 lea	 eax, DWORD PTR _iUseSound$[ebp]
  00030	50		 push	 eax
  00031	6a 00		 push	 0
  00033	56		 push	 esi
  00034	e8 00 00 00 00	 call	 ?PyTuple_GetInteger@@YA_NPAU_object@@HPAH@Z ; PyTuple_GetInteger
  00039	83 c4 0c	 add	 esp, 12			; 0000000cH
  0003c	84 c0		 test	 al, al
  0003e	75 0a		 jne	 SHORT $LN2@itemSetUse
$LN51@itemSetUse:

; 23   : }

  00040	e8 00 00 00 00	 call	 ?Py_BadArgument@@YAPAU_object@@XZ ; Py_BadArgument
  00045	e9 9a 00 00 00	 jmp	 $LN1@itemSetUse
$LN2@itemSetUse:

; 14   : 		return Py_BadArgument();
; 15   : 	
; 16   : 	char* szFileName;
; 17   : 	if (!PyTuple_GetString(poArgs, 1, &szFileName))

  0004a	8d 45 d4	 lea	 eax, DWORD PTR _szFileName$[ebp]
  0004d	50		 push	 eax
  0004e	6a 01		 push	 1
  00050	56		 push	 esi
  00051	e8 00 00 00 00	 call	 ?PyTuple_GetString@@YA_NPAU_object@@HPAPAD@Z ; PyTuple_GetString
  00056	83 c4 0c	 add	 esp, 12			; 0000000cH
  00059	84 c0		 test	 al, al
  0005b	74 e3		 je	 SHORT $LN51@itemSetUse
; File C:\Program Files\Microsoft Visual Studio\2022\Community\VC\Tools\MSVC\14.34.31933\include\xstring

; 415  :             return __builtin_strlen(_First);

  0005d	8b 55 d4	 mov	 edx, DWORD PTR _szFileName$[ebp]
  00060	0f 57 c0	 xorps	 xmm0, xmm0
; File E:\Metin2_server\SolWayneSF v6\ClientVS22\source\UserInterface\PythonItemModule.cpp

; 20   : 	CPythonItem& rkItem=CPythonItem::Instance();

  00063	8b 35 00 00 00
	00		 mov	 esi, DWORD PTR ?ms_singleton@?$CSingleton@VCPythonItem@@@@0PAVCPythonItem@@A ; CSingleton<CPythonItem>::ms_singleton
; File C:\Program Files\Microsoft Visual Studio\2022\Community\VC\Tools\MSVC\14.34.31933\include\xstring

; 415  :             return __builtin_strlen(_First);

  00069	8b ca		 mov	 ecx, edx

; 2339 :         _CONSTEXPR20 _Bxty() noexcept : _Buf() {} // user-provided, for fancy pointers

  0006b	0f 11 45 d8	 movups	 XMMWORD PTR $T2[ebp], xmm0

; 2348 :     size_type _Mysize = 0; // current length of string

  0006f	c7 45 e8 00 00
	00 00		 mov	 DWORD PTR $T2[ebp+16], 0

; 2349 :     size_type _Myres  = 0; // current storage reserved for string

  00076	c7 45 ec 00 00
	00 00		 mov	 DWORD PTR $T2[ebp+20], 0

; 415  :             return __builtin_strlen(_First);

  0007d	8d 79 01	 lea	 edi, DWORD PTR [ecx+1]
$LL48@itemSetUse:
  00080	8a 01		 mov	 al, BYTE PTR [ecx]
  00082	41		 inc	 ecx
  00083	84 c0		 test	 al, al
  00085	75 f9		 jne	 SHORT $LL48@itemSetUse
  00087	2b cf		 sub	 ecx, edi

; 2674 :         _Construct<_Construct_strategy::_From_ptr>(_Ptr, _Convert_size<size_type>(_Traits::length(_Ptr)));

  00089	51		 push	 ecx
  0008a	52		 push	 edx
  0008b	8d 4d d8	 lea	 ecx, DWORD PTR $T2[ebp]
  0008e	e8 00 00 00 00	 call	 ??$_Construct@$00PBD@?$basic_string@DU?$char_traits@D@std@@V?$allocator@D@2@@std@@AAEXQBDI@Z ; std::basic_string<char,std::char_traits<char>,std::allocator<char> >::_Construct<1,char const *>
; File E:\Metin2_server\SolWayneSF v6\ClientVS22\source\UserInterface\PythonItemModule.cpp

; 21   : 	rkItem.SetUseSoundFileName(iUseSound, szFileName);

  00093	8d 45 d8	 lea	 eax, DWORD PTR $T2[ebp]
  00096	c7 45 fc 00 00
	00 00		 mov	 DWORD PTR __$EHRec$[ebp+8], 0
  0009d	50		 push	 eax
  0009e	ff 75 d0	 push	 DWORD PTR _iUseSound$[ebp]
  000a1	8b ce		 mov	 ecx, esi
  000a3	e8 00 00 00 00	 call	 ?SetUseSoundFileName@CPythonItem@@QAEXKABV?$basic_string@DU?$char_traits@D@std@@V?$allocator@D@2@@std@@@Z ; CPythonItem::SetUseSoundFileName
  000a8	c7 45 fc ff ff
	ff ff		 mov	 DWORD PTR __$EHRec$[ebp+8], -1
; File C:\Program Files\Microsoft Visual Studio\2022\Community\VC\Tools\MSVC\14.34.31933\include\xstring

; 2301 :         return _BUF_SIZE <= _Myres;

  000af	8b 4d ec	 mov	 ecx, DWORD PTR $T2[ebp+20]
  000b2	83 f9 10	 cmp	 ecx, 16			; 00000010H

; 5008 :         if (_My_data._Large_string_engaged()) {

  000b5	72 28		 jb	 SHORT $LN30@itemSetUse
; File C:\Program Files\Microsoft Visual Studio\2022\Community\VC\Tools\MSVC\14.34.31933\include\xmemory

; 830  :         _Deallocate<_New_alignof<_Ty>>(_Ptr, sizeof(_Ty) * _Count);

  000b7	8b 55 d8	 mov	 edx, DWORD PTR $T2[ebp]
; File C:\Program Files\Microsoft Visual Studio\2022\Community\VC\Tools\MSVC\14.34.31933\include\xstring

; 5013 :             _Al.deallocate(_Ptr, _My_data._Myres + 1);

  000ba	41		 inc	 ecx
; File C:\Program Files\Microsoft Visual Studio\2022\Community\VC\Tools\MSVC\14.34.31933\include\xmemory

; 830  :         _Deallocate<_New_alignof<_Ty>>(_Ptr, sizeof(_Ty) * _Count);

  000bb	8b c2		 mov	 eax, edx

; 251  :         if (_Bytes >= _Big_allocation_threshold) { // boost the alignment of big allocations to help autovectorization

  000bd	81 f9 00 10 00
	00		 cmp	 ecx, 4096		; 00001000H
  000c3	72 10		 jb	 SHORT $LN42@itemSetUse

; 150  :     const uintptr_t _Ptr_container   = _Ptr_user[-1];

  000c5	8b 50 fc	 mov	 edx, DWORD PTR [eax-4]
  000c8	83 c1 23	 add	 ecx, 35			; 00000023H
  000cb	2b c2		 sub	 eax, edx

; 164  :     _STL_VERIFY(_Back_shift >= _Min_back_shift && _Back_shift <= _Non_user_size, "invalid argument");

  000cd	83 c0 fc	 add	 eax, -4			; fffffffcH
  000d0	83 f8 1f	 cmp	 eax, 31			; 0000001fH
  000d3	77 2a		 ja	 SHORT $LN53@itemSetUse
$LN42@itemSetUse:

; 255  :         ::operator delete(_Ptr, _Bytes);

  000d5	51		 push	 ecx
  000d6	52		 push	 edx
  000d7	e8 00 00 00 00	 call	 ??3@YAXPAXI@Z		; operator delete
  000dc	83 c4 08	 add	 esp, 8
$LN30@itemSetUse:
; File E:\Metin2_server\SolWayneSF v6\ClientVS22\source\UserInterface\PythonItemModule.cpp

; 22   : 	return Py_BuildNone();

  000df	e8 00 00 00 00	 call	 ?Py_BuildNone@@YAPAU_object@@XZ ; Py_BuildNone
$LN1@itemSetUse:

; 23   : }

  000e4	8b 4d f4	 mov	 ecx, DWORD PTR __$EHRec$[ebp]
  000e7	64 89 0d 00 00
	00 00		 mov	 DWORD PTR fs:0, ecx
  000ee	59		 pop	 ecx
  000ef	5f		 pop	 edi
  000f0	5e		 pop	 esi
  000f1	8b 4d f0	 mov	 ecx, DWORD PTR __$ArrayPad$[ebp]
  000f4	33 cd		 xor	 ecx, ebp
  000f6	e8 00 00 00 00	 call	 @__security_check_cookie@4
  000fb	8b e5		 mov	 esp, ebp
  000fd	5d		 pop	 ebp
  000fe	c3		 ret	 0
$LN53@itemSetUse:
; File C:\Program Files\Microsoft Visual Studio\2022\Community\VC\Tools\MSVC\14.34.31933\include\xmemory

; 164  :     _STL_VERIFY(_Back_shift >= _Min_back_shift && _Back_shift <= _Non_user_size, "invalid argument");

  000ff	e8 00 00 00 00	 call	 __invalid_parameter_noinfo_noreturn
$LN50@itemSetUse:
  00104	cc		 int	 3
_TEXT	ENDS
;	COMDAT text$x
text$x	SEGMENT
__unwindfunclet$?itemSetUseSoundFileName@@YAPAU_object@@PAU1@0@Z$0:
  00000	8d 4d d8	 lea	 ecx, DWORD PTR $T2[ebp]
  00003	e9 00 00 00 00	 jmp	 ??1?$basic_string@DU?$char_traits@D@std@@V?$allocator@D@2@@std@@QAE@XZ ; std::basic_string<char,std::char_traits<char>,std::allocator<char> >::~basic_string<char,std::char_traits<char>,std::allocator<char> >
  00008	cc		 int	 3
  00009	cc		 int	 3
  0000a	cc		 int	 3
  0000b	cc		 int	 3
  0000c	cc		 int	 3
__ehhandler$?itemSetUseSoundFileName@@YAPAU_object@@PAU1@0@Z:
  0000d	90		 npad	 1
  0000e	90		 npad	 1
  0000f	8b 54 24 08	 mov	 edx, DWORD PTR [esp+8]
  00013	8d 42 0c	 lea	 eax, DWORD PTR [edx+12]
  00016	8b 4a d0	 mov	 ecx, DWORD PTR [edx-48]
  00019	33 c8		 xor	 ecx, eax
  0001b	e8 00 00 00 00	 call	 @__security_check_cookie@4
  00020	8b 4a fc	 mov	 ecx, DWORD PTR [edx-4]
  00023	33 c8		 xor	 ecx, eax
  00025	e8 00 00 00 00	 call	 @__security_check_cookie@4
  0002a	b8 00 00 00 00	 mov	 eax, OFFSET __ehfuncinfo$?itemSetUseSoundFileName@@YAPAU_object@@PAU1@0@Z
  0002f	e9 00 00 00 00	 jmp	 ___CxxFrameHandler3
text$x	ENDS
?itemSetUseSoundFileName@@YAPAU_object@@PAU1@0@Z ENDP	; itemSetUseSoundFileName
; Function compile flags: /Ogtp
; File E:\Metin2_server\SolWayneSF v6\ClientVS22\source\UserInterface\PythonItemModule.cpp
; File C:\Program Files\Microsoft Visual Studio\2022\Community\VC\Tools\MSVC\14.34.31933\include\xstring
; File E:\Metin2_server\SolWayneSF v6\ClientVS22\source\UserInterface\PythonItemModule.cpp
; File C:\Program Files\Microsoft Visual Studio\2022\Community\VC\Tools\MSVC\14.34.31933\include\xstring
; File C:\Program Files\Microsoft Visual Studio\2022\Community\VC\Tools\MSVC\14.34.31933\include\xmemory
; File C:\Program Files\Microsoft Visual Studio\2022\Community\VC\Tools\MSVC\14.34.31933\include\xstring
; File C:\Program Files\Microsoft Visual Studio\2022\Community\VC\Tools\MSVC\14.34.31933\include\xmemory
; File C:\Program Files\Microsoft Visual Studio\2022\Community\VC\Tools\MSVC\14.34.31933\include\xstring
; File E:\Metin2_server\SolWayneSF v6\ClientVS22\source\UserInterface\PythonItemModule.cpp
; File C:\Program Files\Microsoft Visual Studio\2022\Community\VC\Tools\MSVC\14.34.31933\include\xmemory
; File E:\Metin2_server\SolWayneSF v6\ClientVS22\source\UserInterface\PythonItemModule.cpp
;	COMDAT ?itemSetDropSoundFileName@@YAPAU_object@@PAU1@0@Z
_TEXT	SEGMENT
_iDropSound$ = -48					; size = 4
_szFileName$ = -44					; size = 4
$T2 = -40						; size = 24
__$ArrayPad$ = -16					; size = 4
__$EHRec$ = -12						; size = 12
_poSelf$ = 8						; size = 4
_poArgs$ = 12						; size = 4
?itemSetDropSoundFileName@@YAPAU_object@@PAU1@0@Z PROC	; itemSetDropSoundFileName, COMDAT

; 26   : {

  00000	55		 push	 ebp
  00001	8b ec		 mov	 ebp, esp
  00003	6a ff		 push	 -1
  00005	68 00 00 00 00	 push	 __ehhandler$?itemSetDropSoundFileName@@YAPAU_object@@PAU1@0@Z
  0000a	64 a1 00 00 00
	00		 mov	 eax, DWORD PTR fs:0
  00010	50		 push	 eax
  00011	83 ec 24	 sub	 esp, 36			; 00000024H
  00014	a1 00 00 00 00	 mov	 eax, DWORD PTR ___security_cookie
  00019	33 c5		 xor	 eax, ebp
  0001b	89 45 f0	 mov	 DWORD PTR __$ArrayPad$[ebp], eax
  0001e	56		 push	 esi
  0001f	50		 push	 eax
  00020	8d 45 f4	 lea	 eax, DWORD PTR __$EHRec$[ebp]
  00023	64 a3 00 00 00
	00		 mov	 DWORD PTR fs:0, eax
  00029	8b 75 0c	 mov	 esi, DWORD PTR _poArgs$[ebp]

; 27   : 	int iDropSound;
; 28   : 	if (!PyTuple_GetInteger(poArgs, 0, &iDropSound))

  0002c	8d 45 d0	 lea	 eax, DWORD PTR _iDropSound$[ebp]
  0002f	50		 push	 eax
  00030	6a 00		 push	 0
  00032	56		 push	 esi
  00033	e8 00 00 00 00	 call	 ?PyTuple_GetInteger@@YA_NPAU_object@@HPAH@Z ; PyTuple_GetInteger
  00038	83 c4 0c	 add	 esp, 12			; 0000000cH
  0003b	84 c0		 test	 al, al
  0003d	75 0a		 jne	 SHORT $LN2@itemSetDro
$LN51@itemSetDro:

; 38   : }

  0003f	e8 00 00 00 00	 call	 ?Py_BadArgument@@YAPAU_object@@XZ ; Py_BadArgument
  00044	e9 ab 00 00 00	 jmp	 $LN1@itemSetDro
$LN2@itemSetDro:

; 29   : 		return Py_BadArgument();
; 30   : 	
; 31   : 	char* szFileName;
; 32   : 	if (!PyTuple_GetString(poArgs, 1, &szFileName))

  00049	8d 45 d4	 lea	 eax, DWORD PTR _szFileName$[ebp]
  0004c	50		 push	 eax
  0004d	6a 01		 push	 1
  0004f	56		 push	 esi
  00050	e8 00 00 00 00	 call	 ?PyTuple_GetString@@YA_NPAU_object@@HPAPAD@Z ; PyTuple_GetString
  00055	83 c4 0c	 add	 esp, 12			; 0000000cH
  00058	84 c0		 test	 al, al
  0005a	74 e3		 je	 SHORT $LN51@itemSetDro
; File C:\Program Files\Microsoft Visual Studio\2022\Community\VC\Tools\MSVC\14.34.31933\include\xstring

; 415  :             return __builtin_strlen(_First);

  0005c	8b 55 d4	 mov	 edx, DWORD PTR _szFileName$[ebp]
  0005f	0f 57 c0	 xorps	 xmm0, xmm0
  00062	8b ca		 mov	 ecx, edx

; 2348 :     size_type _Mysize = 0; // current length of string

  00064	c7 45 e8 00 00
	00 00		 mov	 DWORD PTR $T2[ebp+16], 0

; 2339 :         _CONSTEXPR20 _Bxty() noexcept : _Buf() {} // user-provided, for fancy pointers

  0006b	0f 11 45 d8	 movups	 XMMWORD PTR $T2[ebp], xmm0

; 2349 :     size_type _Myres  = 0; // current storage reserved for string

  0006f	c7 45 ec 00 00
	00 00		 mov	 DWORD PTR $T2[ebp+20], 0

; 415  :             return __builtin_strlen(_First);

  00076	8d 71 01	 lea	 esi, DWORD PTR [ecx+1]
  00079	0f 1f 80 00 00
	00 00		 npad	 7
$LL48@itemSetDro:
  00080	8a 01		 mov	 al, BYTE PTR [ecx]
  00082	41		 inc	 ecx
  00083	84 c0		 test	 al, al
  00085	75 f9		 jne	 SHORT $LL48@itemSetDro
  00087	2b ce		 sub	 ecx, esi

; 2674 :         _Construct<_Construct_strategy::_From_ptr>(_Ptr, _Convert_size<size_type>(_Traits::length(_Ptr)));

  00089	51		 push	 ecx
  0008a	52		 push	 edx
  0008b	8d 4d d8	 lea	 ecx, DWORD PTR $T2[ebp]
  0008e	e8 00 00 00 00	 call	 ??$_Construct@$00PBD@?$basic_string@DU?$char_traits@D@std@@V?$allocator@D@2@@std@@AAEXQBDI@Z ; std::basic_string<char,std::char_traits<char>,std::allocator<char> >::_Construct<1,char const *>
; File E:\Metin2_server\SolWayneSF v6\ClientVS22\source\UserInterface\PythonItemModule.cpp

; 36   : 	rkItem.SetDropSoundFileName(iDropSound, szFileName);

  00093	8d 45 d8	 lea	 eax, DWORD PTR $T2[ebp]
  00096	c7 45 fc 00 00
	00 00		 mov	 DWORD PTR __$EHRec$[ebp+8], 0
  0009d	50		 push	 eax
  0009e	ff 75 d0	 push	 DWORD PTR _iDropSound$[ebp]
  000a1	e8 00 00 00 00	 call	 ?SetDropSoundFileName@CPythonItem@@QAEXKABV?$basic_string@DU?$char_traits@D@std@@V?$allocator@D@2@@std@@@Z ; CPythonItem::SetDropSoundFileName
  000a6	c7 45 fc ff ff
	ff ff		 mov	 DWORD PTR __$EHRec$[ebp+8], -1
; File C:\Program Files\Microsoft Visual Studio\2022\Community\VC\Tools\MSVC\14.34.31933\include\xstring

; 2301 :         return _BUF_SIZE <= _Myres;

  000ad	8b 4d ec	 mov	 ecx, DWORD PTR $T2[ebp+20]
  000b0	83 f9 10	 cmp	 ecx, 16			; 00000010H

; 5008 :         if (_My_data._Large_string_engaged()) {

  000b3	72 28		 jb	 SHORT $LN30@itemSetDro
; File C:\Program Files\Microsoft Visual Studio\2022\Community\VC\Tools\MSVC\14.34.31933\include\xmemory

; 830  :         _Deallocate<_New_alignof<_Ty>>(_Ptr, sizeof(_Ty) * _Count);

  000b5	8b 55 d8	 mov	 edx, DWORD PTR $T2[ebp]
; File C:\Program Files\Microsoft Visual Studio\2022\Community\VC\Tools\MSVC\14.34.31933\include\xstring

; 5013 :             _Al.deallocate(_Ptr, _My_data._Myres + 1);

  000b8	41		 inc	 ecx
; File C:\Program Files\Microsoft Visual Studio\2022\Community\VC\Tools\MSVC\14.34.31933\include\xmemory

; 830  :         _Deallocate<_New_alignof<_Ty>>(_Ptr, sizeof(_Ty) * _Count);

  000b9	8b c2		 mov	 eax, edx

; 251  :         if (_Bytes >= _Big_allocation_threshold) { // boost the alignment of big allocations to help autovectorization

  000bb	81 f9 00 10 00
	00		 cmp	 ecx, 4096		; 00001000H
  000c1	72 10		 jb	 SHORT $LN42@itemSetDro

; 150  :     const uintptr_t _Ptr_container   = _Ptr_user[-1];

  000c3	8b 50 fc	 mov	 edx, DWORD PTR [eax-4]
  000c6	83 c1 23	 add	 ecx, 35			; 00000023H
  000c9	2b c2		 sub	 eax, edx

; 164  :     _STL_VERIFY(_Back_shift >= _Min_back_shift && _Back_shift <= _Non_user_size, "invalid argument");

  000cb	83 c0 fc	 add	 eax, -4			; fffffffcH
  000ce	83 f8 1f	 cmp	 eax, 31			; 0000001fH
  000d1	77 3b		 ja	 SHORT $LN53@itemSetDro
$LN42@itemSetDro:

; 255  :         ::operator delete(_Ptr, _Bytes);

  000d3	51		 push	 ecx
  000d4	52		 push	 edx
  000d5	e8 00 00 00 00	 call	 ??3@YAXPAXI@Z		; operator delete
  000da	83 c4 08	 add	 esp, 8
$LN30@itemSetDro:
; File C:\Program Files\Microsoft Visual Studio\2022\Community\VC\Tools\MSVC\14.34.31933\include\xstring

; 5016 :         _My_data._Mysize = 0;

  000dd	c7 45 e8 00 00
	00 00		 mov	 DWORD PTR $T2[ebp+16], 0

; 5017 :         _My_data._Myres  = _BUF_SIZE - 1;

  000e4	c7 45 ec 0f 00
	00 00		 mov	 DWORD PTR $T2[ebp+20], 15 ; 0000000fH

; 5018 :         // the _Traits::assign is last so the codegen doesn't think the char write can alias this
; 5019 :         _Traits::assign(_My_data._Bx._Buf[0], _Elem());

  000eb	c6 45 d8 00	 mov	 BYTE PTR $T2[ebp], 0
; File E:\Metin2_server\SolWayneSF v6\ClientVS22\source\UserInterface\PythonItemModule.cpp

; 37   : 	return Py_BuildNone();

  000ef	e8 00 00 00 00	 call	 ?Py_BuildNone@@YAPAU_object@@XZ ; Py_BuildNone
$LN1@itemSetDro:

; 38   : }

  000f4	8b 4d f4	 mov	 ecx, DWORD PTR __$EHRec$[ebp]
  000f7	64 89 0d 00 00
	00 00		 mov	 DWORD PTR fs:0, ecx
  000fe	59		 pop	 ecx
  000ff	5e		 pop	 esi
  00100	8b 4d f0	 mov	 ecx, DWORD PTR __$ArrayPad$[ebp]
  00103	33 cd		 xor	 ecx, ebp
  00105	e8 00 00 00 00	 call	 @__security_check_cookie@4
  0010a	8b e5		 mov	 esp, ebp
  0010c	5d		 pop	 ebp
  0010d	c3		 ret	 0
$LN53@itemSetDro:
; File C:\Program Files\Microsoft Visual Studio\2022\Community\VC\Tools\MSVC\14.34.31933\include\xmemory

; 164  :     _STL_VERIFY(_Back_shift >= _Min_back_shift && _Back_shift <= _Non_user_size, "invalid argument");

  0010e	e8 00 00 00 00	 call	 __invalid_parameter_noinfo_noreturn
$LN50@itemSetDro:
  00113	cc		 int	 3
_TEXT	ENDS
;	COMDAT text$x
text$x	SEGMENT
__unwindfunclet$?itemSetDropSoundFileName@@YAPAU_object@@PAU1@0@Z$0:
  00000	8d 4d d8	 lea	 ecx, DWORD PTR $T2[ebp]
  00003	e9 00 00 00 00	 jmp	 ??1?$basic_string@DU?$char_traits@D@std@@V?$allocator@D@2@@std@@QAE@XZ ; std::basic_string<char,std::char_traits<char>,std::allocator<char> >::~basic_string<char,std::char_traits<char>,std::allocator<char> >
  00008	cc		 int	 3
  00009	cc		 int	 3
  0000a	cc		 int	 3
  0000b	cc		 int	 3
  0000c	cc		 int	 3
__ehhandler$?itemSetDropSoundFileName@@YAPAU_object@@PAU1@0@Z:
  0000d	90		 npad	 1
  0000e	90		 npad	 1
  0000f	8b 54 24 08	 mov	 edx, DWORD PTR [esp+8]
  00013	8d 42 0c	 lea	 eax, DWORD PTR [edx+12]
  00016	8b 4a d4	 mov	 ecx, DWORD PTR [edx-44]
  00019	33 c8		 xor	 ecx, eax
  0001b	e8 00 00 00 00	 call	 @__security_check_cookie@4
  00020	8b 4a fc	 mov	 ecx, DWORD PTR [edx-4]
  00023	33 c8		 xor	 ecx, eax
  00025	e8 00 00 00 00	 call	 @__security_check_cookie@4
  0002a	b8 00 00 00 00	 mov	 eax, OFFSET __ehfuncinfo$?itemSetDropSoundFileName@@YAPAU_object@@PAU1@0@Z
  0002f	e9 00 00 00 00	 jmp	 ___CxxFrameHandler3
text$x	ENDS
?itemSetDropSoundFileName@@YAPAU_object@@PAU1@0@Z ENDP	; itemSetDropSoundFileName
; Function compile flags: /Ogtp
; File E:\Metin2_server\SolWayneSF v6\ClientVS22\source\UserInterface\PythonItemModule.cpp
;	COMDAT ?itemSelectItem@@YAPAU_object@@PAU1@0@Z
_TEXT	SEGMENT
_iIndex$ = -4						; size = 4
_poSelf$ = 8						; size = 4
_poArgs$ = 12						; size = 4
?itemSelectItem@@YAPAU_object@@PAU1@0@Z PROC		; itemSelectItem, COMDAT

; 41   : {

  00000	55		 push	 ebp
  00001	8b ec		 mov	 ebp, esp
  00003	51		 push	 ecx

; 42   : 	int iIndex;
; 43   : 	if (!PyTuple_GetInteger(poArgs, 0, &iIndex))

  00004	8d 45 fc	 lea	 eax, DWORD PTR _iIndex$[ebp]
  00007	50		 push	 eax
  00008	6a 00		 push	 0
  0000a	ff 75 0c	 push	 DWORD PTR _poArgs$[ebp]
  0000d	e8 00 00 00 00	 call	 ?PyTuple_GetInteger@@YA_NPAU_object@@HPAH@Z ; PyTuple_GetInteger
  00012	83 c4 0c	 add	 esp, 12			; 0000000cH
  00015	84 c0		 test	 al, al
  00017	75 09		 jne	 SHORT $LN2@itemSelect

; 44   : 		return Py_BadArgument();

  00019	e8 00 00 00 00	 call	 ?Py_BadArgument@@YAPAU_object@@XZ ; Py_BadArgument

; 53   : }

  0001e	8b e5		 mov	 esp, ebp
  00020	5d		 pop	 ebp
  00021	c3		 ret	 0
$LN2@itemSelect:

; 45   : 
; 46   : 	if (!CItemManager::Instance().SelectItemData(iIndex))

  00022	ff 75 fc	 push	 DWORD PTR _iIndex$[ebp]
  00025	8b 0d 00 00 00
	00		 mov	 ecx, DWORD PTR ?ms_singleton@?$CSingleton@VCItemManager@@@@0PAVCItemManager@@A ; CSingleton<CItemManager>::ms_singleton
  0002b	e8 00 00 00 00	 call	 ?SelectItemData@CItemManager@@QAEHK@Z ; CItemManager::SelectItemData
  00030	85 c0		 test	 eax, eax
  00032	75 20		 jne	 SHORT $LN3@itemSelect

; 47   : 	{
; 48   : 		TraceError("Cannot find item by %d", iIndex);

  00034	ff 75 fc	 push	 DWORD PTR _iIndex$[ebp]
  00037	68 00 00 00 00	 push	 OFFSET ??_C@_0BH@EOAFOHJK@Cannot?5find?5item?5by?5?$CFd@
  0003c	e8 00 00 00 00	 call	 ?TraceError@@YAXPBDZZ	; TraceError

; 49   : 		CItemManager::Instance().SelectItemData(60001);

  00041	8b 0d 00 00 00
	00		 mov	 ecx, DWORD PTR ?ms_singleton@?$CSingleton@VCItemManager@@@@0PAVCItemManager@@A ; CSingleton<CItemManager>::ms_singleton
  00047	83 c4 08	 add	 esp, 8
  0004a	68 61 ea 00 00	 push	 60001			; 0000ea61H
  0004f	e8 00 00 00 00	 call	 ?SelectItemData@CItemManager@@QAEHK@Z ; CItemManager::SelectItemData
$LN3@itemSelect:

; 50   : 	}
; 51   : 
; 52   : 	return Py_BuildNone();

  00054	e8 00 00 00 00	 call	 ?Py_BuildNone@@YAPAU_object@@XZ ; Py_BuildNone

; 53   : }

  00059	8b e5		 mov	 esp, ebp
  0005b	5d		 pop	 ebp
  0005c	c3		 ret	 0
?itemSelectItem@@YAPAU_object@@PAU1@0@Z ENDP		; itemSelectItem
_TEXT	ENDS
; Function compile flags: /Ogtp
; File E:\Metin2_server\SolWayneSF v6\ClientVS22\source\UserInterface\PythonItemModule.cpp
;	COMDAT ?itemGetItemName@@YAPAU_object@@PAU1@0@Z
_TEXT	SEGMENT
_poSelf$ = 8						; size = 4
_poArgs$ = 12						; size = 4
?itemGetItemName@@YAPAU_object@@PAU1@0@Z PROC		; itemGetItemName, COMDAT

; 57   : 	CItemData * pItemData = CItemManager::Instance().GetSelectedItemDataPointer();

  00000	8b 0d 00 00 00
	00		 mov	 ecx, DWORD PTR ?ms_singleton@?$CSingleton@VCItemManager@@@@0PAVCItemManager@@A ; CSingleton<CItemManager>::ms_singleton
  00006	e8 00 00 00 00	 call	 ?GetSelectedItemDataPointer@CItemManager@@QAEPAVCItemData@@XZ ; CItemManager::GetSelectedItemDataPointer

; 58   : 	if (!pItemData)

  0000b	85 c0		 test	 eax, eax
  0000d	75 0e		 jne	 SHORT $LN2@itemGetIte

; 59   : 		return Py_BuildException("no selected item data");

  0000f	68 00 00 00 00	 push	 OFFSET ??_C@_0BG@LNOAJHHG@no?5selected?5item?5data@
  00014	e8 00 00 00 00	 call	 ?Py_BuildException@@YAPAU_object@@PBDZZ ; Py_BuildException
  00019	83 c4 04	 add	 esp, 4

; 62   : }

  0001c	c3		 ret	 0
$LN2@itemGetIte:

; 60   : 
; 61   : 	return Py_BuildValue("s", pItemData->GetName());

  0001d	8b c8		 mov	 ecx, eax
  0001f	e8 00 00 00 00	 call	 ?GetName@CItemData@@QBEPBDXZ ; CItemData::GetName
  00024	50		 push	 eax
  00025	68 00 00 00 00	 push	 OFFSET ??_C@_01LKDEMHDF@s@
  0002a	ff 15 00 00 00
	00		 call	 DWORD PTR __imp__Py_BuildValue
  00030	83 c4 08	 add	 esp, 8

; 62   : }

  00033	c3		 ret	 0
?itemGetItemName@@YAPAU_object@@PAU1@0@Z ENDP		; itemGetItemName
_TEXT	ENDS
; Function compile flags: /Ogtp
; File E:\Metin2_server\SolWayneSF v6\ClientVS22\source\UserInterface\PythonItemModule.cpp
;	COMDAT ?itemGetItemDescription@@YAPAU_object@@PAU1@0@Z
_TEXT	SEGMENT
_poSelf$ = 8						; size = 4
_poArgs$ = 12						; size = 4
?itemGetItemDescription@@YAPAU_object@@PAU1@0@Z PROC	; itemGetItemDescription, COMDAT

; 66   : 	CItemData * pItemData = CItemManager::Instance().GetSelectedItemDataPointer();

  00000	8b 0d 00 00 00
	00		 mov	 ecx, DWORD PTR ?ms_singleton@?$CSingleton@VCItemManager@@@@0PAVCItemManager@@A ; CSingleton<CItemManager>::ms_singleton
  00006	e8 00 00 00 00	 call	 ?GetSelectedItemDataPointer@CItemManager@@QAEPAVCItemData@@XZ ; CItemManager::GetSelectedItemDataPointer

; 67   : 	if (!pItemData)

  0000b	85 c0		 test	 eax, eax
  0000d	75 0e		 jne	 SHORT $LN2@itemGetIte

; 68   : 		return Py_BuildException("no selected item data");

  0000f	68 00 00 00 00	 push	 OFFSET ??_C@_0BG@LNOAJHHG@no?5selected?5item?5data@
  00014	e8 00 00 00 00	 call	 ?Py_BuildException@@YAPAU_object@@PBDZZ ; Py_BuildException
  00019	83 c4 04	 add	 esp, 4

; 71   : }

  0001c	c3		 ret	 0
$LN2@itemGetIte:

; 69   : 
; 70   : 	return Py_BuildValue("s", pItemData->GetDescription());

  0001d	8b c8		 mov	 ecx, eax
  0001f	e8 00 00 00 00	 call	 ?GetDescription@CItemData@@QBEPBDXZ ; CItemData::GetDescription
  00024	50		 push	 eax
  00025	68 00 00 00 00	 push	 OFFSET ??_C@_01LKDEMHDF@s@
  0002a	ff 15 00 00 00
	00		 call	 DWORD PTR __imp__Py_BuildValue
  00030	83 c4 08	 add	 esp, 8

; 71   : }

  00033	c3		 ret	 0
?itemGetItemDescription@@YAPAU_object@@PAU1@0@Z ENDP	; itemGetItemDescription
_TEXT	ENDS
; Function compile flags: /Ogtp
; File E:\Metin2_server\SolWayneSF v6\ClientVS22\source\UserInterface\PythonItemModule.cpp
;	COMDAT ?itemGetItemSummary@@YAPAU_object@@PAU1@0@Z
_TEXT	SEGMENT
_poSelf$ = 8						; size = 4
_poArgs$ = 12						; size = 4
?itemGetItemSummary@@YAPAU_object@@PAU1@0@Z PROC	; itemGetItemSummary, COMDAT

; 75   : 	CItemData * pItemData = CItemManager::Instance().GetSelectedItemDataPointer();

  00000	8b 0d 00 00 00
	00		 mov	 ecx, DWORD PTR ?ms_singleton@?$CSingleton@VCItemManager@@@@0PAVCItemManager@@A ; CSingleton<CItemManager>::ms_singleton
  00006	e8 00 00 00 00	 call	 ?GetSelectedItemDataPointer@CItemManager@@QAEPAVCItemData@@XZ ; CItemManager::GetSelectedItemDataPointer

; 76   : 	if (!pItemData)

  0000b	85 c0		 test	 eax, eax
  0000d	75 0e		 jne	 SHORT $LN2@itemGetIte

; 77   : 		return Py_BuildException("no selected item data");

  0000f	68 00 00 00 00	 push	 OFFSET ??_C@_0BG@LNOAJHHG@no?5selected?5item?5data@
  00014	e8 00 00 00 00	 call	 ?Py_BuildException@@YAPAU_object@@PBDZZ ; Py_BuildException
  00019	83 c4 04	 add	 esp, 4

; 80   : }

  0001c	c3		 ret	 0
$LN2@itemGetIte:

; 78   : 
; 79   : 	return Py_BuildValue("s", pItemData->GetSummary());

  0001d	8b c8		 mov	 ecx, eax
  0001f	e8 00 00 00 00	 call	 ?GetSummary@CItemData@@QBEPBDXZ ; CItemData::GetSummary
  00024	50		 push	 eax
  00025	68 00 00 00 00	 push	 OFFSET ??_C@_01LKDEMHDF@s@
  0002a	ff 15 00 00 00
	00		 call	 DWORD PTR __imp__Py_BuildValue
  00030	83 c4 08	 add	 esp, 8

; 80   : }

  00033	c3		 ret	 0
?itemGetItemSummary@@YAPAU_object@@PAU1@0@Z ENDP	; itemGetItemSummary
_TEXT	ENDS
; Function compile flags: /Ogtp
; File E:\Metin2_server\SolWayneSF v6\ClientVS22\source\UserInterface\PythonItemModule.cpp
;	COMDAT ?itemGetIconImage@@YAPAU_object@@PAU1@0@Z
_TEXT	SEGMENT
_poSelf$ = 8						; size = 4
_poArgs$ = 12						; size = 4
?itemGetIconImage@@YAPAU_object@@PAU1@0@Z PROC		; itemGetIconImage, COMDAT

; 84   : 	CItemData * pItemData = CItemManager::Instance().GetSelectedItemDataPointer();

  00000	8b 0d 00 00 00
	00		 mov	 ecx, DWORD PTR ?ms_singleton@?$CSingleton@VCItemManager@@@@0PAVCItemManager@@A ; CSingleton<CItemManager>::ms_singleton
  00006	e8 00 00 00 00	 call	 ?GetSelectedItemDataPointer@CItemManager@@QAEPAVCItemData@@XZ ; CItemManager::GetSelectedItemDataPointer

; 85   : 	if (!pItemData)

  0000b	85 c0		 test	 eax, eax
  0000d	75 0e		 jne	 SHORT $LN2@itemGetIco

; 86   : 		return Py_BuildException("no selected item data");

  0000f	68 00 00 00 00	 push	 OFFSET ??_C@_0BG@LNOAJHHG@no?5selected?5item?5data@
  00014	e8 00 00 00 00	 call	 ?Py_BuildException@@YAPAU_object@@PBDZZ ; Py_BuildException
  00019	83 c4 04	 add	 esp, 4

; 96   : }

  0001c	c3		 ret	 0
$LN2@itemGetIco:

; 87   : 
; 88   : //	if (CItemData::ITEM_TYPE_SKILLBOOK == pItemData->GetType())
; 89   : //	{
; 90   : //		char szItemName[64+1];
; 91   : //		_snprintf(szItemName, "d:/ymir work/ui/items/etc/book_%02d.sub", );
; 92   : //		CGraphicImage * pImage = (CGraphicImage *)CResourceManager::Instance().GetResourcePointer(szItemName);
; 93   : //	}
; 94   : 
; 95   : 	return Py_BuildValue("i", pItemData->GetIconImage());

  0001d	8b c8		 mov	 ecx, eax
  0001f	e8 00 00 00 00	 call	 ?GetIconImage@CItemData@@QAEPAVCGraphicSubImage@@XZ ; CItemData::GetIconImage
  00024	50		 push	 eax
  00025	68 00 00 00 00	 push	 OFFSET ??_C@_01KBJDNOO@i@
  0002a	ff 15 00 00 00
	00		 call	 DWORD PTR __imp__Py_BuildValue
  00030	83 c4 08	 add	 esp, 8

; 96   : }

  00033	c3		 ret	 0
?itemGetIconImage@@YAPAU_object@@PAU1@0@Z ENDP		; itemGetIconImage
_TEXT	ENDS
; Function compile flags: /Ogtp
; File E:\Metin2_server\SolWayneSF v6\ClientVS22\source\UserInterface\PythonItemModule.cpp
; File C:\Program Files\Microsoft Visual Studio\2022\Community\VC\Tools\MSVC\14.34.31933\include\xstring
; File E:\Metin2_server\SolWayneSF v6\ClientVS22\source\UserInterface\PythonItemModule.cpp
;	COMDAT ?itemGetIconImageFileName@@YAPAU_object@@PAU1@0@Z
_TEXT	SEGMENT
_poSelf$ = 8						; size = 4
_poArgs$ = 12						; size = 4
?itemGetIconImageFileName@@YAPAU_object@@PAU1@0@Z PROC	; itemGetIconImageFileName, COMDAT

; 100  : 	CItemData * pItemData = CItemManager::Instance().GetSelectedItemDataPointer();

  00000	8b 0d 00 00 00
	00		 mov	 ecx, DWORD PTR ?ms_singleton@?$CSingleton@VCItemManager@@@@0PAVCItemManager@@A ; CSingleton<CItemManager>::ms_singleton
  00006	e8 00 00 00 00	 call	 ?GetSelectedItemDataPointer@CItemManager@@QAEPAVCItemData@@XZ ; CItemManager::GetSelectedItemDataPointer

; 101  : 	if (!pItemData)

  0000b	85 c0		 test	 eax, eax
  0000d	75 0e		 jne	 SHORT $LN2@itemGetIco

; 102  : 		return Py_BuildException("no selected item data");

  0000f	68 00 00 00 00	 push	 OFFSET ??_C@_0BG@LNOAJHHG@no?5selected?5item?5data@
  00014	e8 00 00 00 00	 call	 ?Py_BuildException@@YAPAU_object@@PBDZZ ; Py_BuildException
  00019	83 c4 04	 add	 esp, 4

; 109  : }

  0001c	c3		 ret	 0
$LN2@itemGetIco:

; 103  : 
; 104  : 	CGraphicSubImage * pImage = pItemData->GetIconImage();

  0001d	8b c8		 mov	 ecx, eax
  0001f	e8 00 00 00 00	 call	 ?GetIconImage@CItemData@@QAEPAVCGraphicSubImage@@XZ ; CItemData::GetIconImage

; 105  : 	if (!pImage)

  00024	85 c0		 test	 eax, eax
  00026	75 14		 jne	 SHORT $LN3@itemGetIco

; 106  : 		return Py_BuildValue("s", "Noname");

  00028	68 00 00 00 00	 push	 OFFSET ??_C@_06HCBIANPB@Noname@

; 109  : }

  0002d	68 00 00 00 00	 push	 OFFSET ??_C@_01LKDEMHDF@s@
  00032	ff 15 00 00 00
	00		 call	 DWORD PTR __imp__Py_BuildValue
  00038	83 c4 08	 add	 esp, 8
  0003b	c3		 ret	 0
$LN3@itemGetIco:
; File C:\Program Files\Microsoft Visual Studio\2022\Community\VC\Tools\MSVC\14.34.31933\include\xstring

; 4256 :         return _Mypair._Myval2._Myptr();

  0003c	83 c0 0c	 add	 eax, 12			; 0000000cH

; 2301 :         return _BUF_SIZE <= _Myres;

  0003f	83 78 14 10	 cmp	 DWORD PTR [eax+20], 16	; 00000010H

; 2293 :         if (_Large_string_engaged()) {

  00043	72 02		 jb	 SHORT $LN10@itemGetIco

; 2294 :             _Result = _Unfancy(_Bx._Ptr);

  00045	8b 00		 mov	 eax, DWORD PTR [eax]
$LN10@itemGetIco:
; File E:\Metin2_server\SolWayneSF v6\ClientVS22\source\UserInterface\PythonItemModule.cpp

; 108  : 	return Py_BuildValue("s", pImage->GetFileName());

  00047	50		 push	 eax

; 109  : }

  00048	68 00 00 00 00	 push	 OFFSET ??_C@_01LKDEMHDF@s@
  0004d	ff 15 00 00 00
	00		 call	 DWORD PTR __imp__Py_BuildValue
  00053	83 c4 08	 add	 esp, 8
  00056	c3		 ret	 0
?itemGetIconImageFileName@@YAPAU_object@@PAU1@0@Z ENDP	; itemGetIconImageFileName
_TEXT	ENDS
; Function compile flags: /Ogtp
; File E:\Metin2_server\SolWayneSF v6\ClientVS22\source\UserInterface\PythonItemModule.cpp
;	COMDAT ?itemGetItemSize@@YAPAU_object@@PAU1@0@Z
_TEXT	SEGMENT
_poSelf$ = 8						; size = 4
_poArgs$ = 12						; size = 4
?itemGetItemSize@@YAPAU_object@@PAU1@0@Z PROC		; itemGetItemSize, COMDAT

; 113  : 	CItemData * pItemData = CItemManager::Instance().GetSelectedItemDataPointer();

  00000	8b 0d 00 00 00
	00		 mov	 ecx, DWORD PTR ?ms_singleton@?$CSingleton@VCItemManager@@@@0PAVCItemManager@@A ; CSingleton<CItemManager>::ms_singleton
  00006	e8 00 00 00 00	 call	 ?GetSelectedItemDataPointer@CItemManager@@QAEPAVCItemData@@XZ ; CItemManager::GetSelectedItemDataPointer

; 114  : 	if (!pItemData)

  0000b	85 c0		 test	 eax, eax
  0000d	75 0e		 jne	 SHORT $LN2@itemGetIte

; 115  : 		return Py_BuildException("no selected item data");

  0000f	68 00 00 00 00	 push	 OFFSET ??_C@_0BG@LNOAJHHG@no?5selected?5item?5data@
  00014	e8 00 00 00 00	 call	 ?Py_BuildException@@YAPAU_object@@PBDZZ ; Py_BuildException
  00019	83 c4 04	 add	 esp, 4

; 118  : }

  0001c	c3		 ret	 0
$LN2@itemGetIte:

; 116  : 
; 117  : 	return Py_BuildValue("(ii)", 1, pItemData->GetSize());

  0001d	8b c8		 mov	 ecx, eax
  0001f	e8 00 00 00 00	 call	 ?GetSize@CItemData@@QBEEXZ ; CItemData::GetSize
  00024	0f b6 c0	 movzx	 eax, al
  00027	50		 push	 eax
  00028	6a 01		 push	 1
  0002a	68 00 00 00 00	 push	 OFFSET ??_C@_04INACLLOK@?$CIii?$CJ@
  0002f	ff 15 00 00 00
	00		 call	 DWORD PTR __imp__Py_BuildValue
  00035	83 c4 0c	 add	 esp, 12			; 0000000cH

; 118  : }

  00038	c3		 ret	 0
?itemGetItemSize@@YAPAU_object@@PAU1@0@Z ENDP		; itemGetItemSize
_TEXT	ENDS
; Function compile flags: /Ogtp
; File E:\Metin2_server\SolWayneSF v6\ClientVS22\source\UserInterface\PythonItemModule.cpp
;	COMDAT ?itemGetItemType@@YAPAU_object@@PAU1@0@Z
_TEXT	SEGMENT
_poSelf$ = 8						; size = 4
_poArgs$ = 12						; size = 4
?itemGetItemType@@YAPAU_object@@PAU1@0@Z PROC		; itemGetItemType, COMDAT

; 122  : 	CItemData * pItemData = CItemManager::Instance().GetSelectedItemDataPointer();

  00000	8b 0d 00 00 00
	00		 mov	 ecx, DWORD PTR ?ms_singleton@?$CSingleton@VCItemManager@@@@0PAVCItemManager@@A ; CSingleton<CItemManager>::ms_singleton
  00006	e8 00 00 00 00	 call	 ?GetSelectedItemDataPointer@CItemManager@@QAEPAVCItemData@@XZ ; CItemManager::GetSelectedItemDataPointer

; 123  : 	if (!pItemData)

  0000b	85 c0		 test	 eax, eax
  0000d	75 0e		 jne	 SHORT $LN2@itemGetIte

; 124  : 		return Py_BuildException("no selected item data");

  0000f	68 00 00 00 00	 push	 OFFSET ??_C@_0BG@LNOAJHHG@no?5selected?5item?5data@
  00014	e8 00 00 00 00	 call	 ?Py_BuildException@@YAPAU_object@@PBDZZ ; Py_BuildException
  00019	83 c4 04	 add	 esp, 4

; 127  : }

  0001c	c3		 ret	 0
$LN2@itemGetIte:

; 125  : 
; 126  : 	return Py_BuildValue("i", pItemData->GetType());

  0001d	8b c8		 mov	 ecx, eax
  0001f	e8 00 00 00 00	 call	 ?GetType@CItemData@@QBEEXZ ; CItemData::GetType
  00024	0f b6 c0	 movzx	 eax, al
  00027	50		 push	 eax
  00028	68 00 00 00 00	 push	 OFFSET ??_C@_01KBJDNOO@i@
  0002d	ff 15 00 00 00
	00		 call	 DWORD PTR __imp__Py_BuildValue
  00033	83 c4 08	 add	 esp, 8

; 127  : }

  00036	c3		 ret	 0
?itemGetItemType@@YAPAU_object@@PAU1@0@Z ENDP		; itemGetItemType
_TEXT	ENDS
; Function compile flags: /Ogtp
; File E:\Metin2_server\SolWayneSF v6\ClientVS22\source\UserInterface\PythonItemModule.cpp
;	COMDAT ?itemGetItemSubType@@YAPAU_object@@PAU1@0@Z
_TEXT	SEGMENT
_poSelf$ = 8						; size = 4
_poArgs$ = 12						; size = 4
?itemGetItemSubType@@YAPAU_object@@PAU1@0@Z PROC	; itemGetItemSubType, COMDAT

; 131  : 	CItemData * pItemData = CItemManager::Instance().GetSelectedItemDataPointer();

  00000	8b 0d 00 00 00
	00		 mov	 ecx, DWORD PTR ?ms_singleton@?$CSingleton@VCItemManager@@@@0PAVCItemManager@@A ; CSingleton<CItemManager>::ms_singleton
  00006	e8 00 00 00 00	 call	 ?GetSelectedItemDataPointer@CItemManager@@QAEPAVCItemData@@XZ ; CItemManager::GetSelectedItemDataPointer

; 132  : 	if (!pItemData)

  0000b	85 c0		 test	 eax, eax
  0000d	75 0e		 jne	 SHORT $LN2@itemGetIte

; 133  : 		return Py_BuildException("no selected item data");

  0000f	68 00 00 00 00	 push	 OFFSET ??_C@_0BG@LNOAJHHG@no?5selected?5item?5data@
  00014	e8 00 00 00 00	 call	 ?Py_BuildException@@YAPAU_object@@PBDZZ ; Py_BuildException
  00019	83 c4 04	 add	 esp, 4

; 136  : }

  0001c	c3		 ret	 0
$LN2@itemGetIte:

; 134  : 
; 135  : 	return Py_BuildValue("i", pItemData->GetSubType());

  0001d	8b c8		 mov	 ecx, eax
  0001f	e8 00 00 00 00	 call	 ?GetSubType@CItemData@@QBEEXZ ; CItemData::GetSubType
  00024	0f b6 c0	 movzx	 eax, al
  00027	50		 push	 eax
  00028	68 00 00 00 00	 push	 OFFSET ??_C@_01KBJDNOO@i@
  0002d	ff 15 00 00 00
	00		 call	 DWORD PTR __imp__Py_BuildValue
  00033	83 c4 08	 add	 esp, 8

; 136  : }

  00036	c3		 ret	 0
?itemGetItemSubType@@YAPAU_object@@PAU1@0@Z ENDP	; itemGetItemSubType
_TEXT	ENDS
; Function compile flags: /Ogtp
; File E:\Metin2_server\SolWayneSF v6\ClientVS22\source\UserInterface\PythonItemModule.cpp
;	COMDAT ?itemGetIBuyItemPrice@@YAPAU_object@@PAU1@0@Z
_TEXT	SEGMENT
_poSelf$ = 8						; size = 4
_poArgs$ = 12						; size = 4
?itemGetIBuyItemPrice@@YAPAU_object@@PAU1@0@Z PROC	; itemGetIBuyItemPrice, COMDAT

; 140  : 	CItemData * pItemData = CItemManager::Instance().GetSelectedItemDataPointer();

  00000	8b 0d 00 00 00
	00		 mov	 ecx, DWORD PTR ?ms_singleton@?$CSingleton@VCItemManager@@@@0PAVCItemManager@@A ; CSingleton<CItemManager>::ms_singleton
  00006	e8 00 00 00 00	 call	 ?GetSelectedItemDataPointer@CItemManager@@QAEPAVCItemData@@XZ ; CItemManager::GetSelectedItemDataPointer

; 141  : 
; 142  : 	if (!pItemData)

  0000b	85 c0		 test	 eax, eax
  0000d	75 0e		 jne	 SHORT $LN2@itemGetIBu

; 143  : 		return Py_BuildException("no selected item data");

  0000f	68 00 00 00 00	 push	 OFFSET ??_C@_0BG@LNOAJHHG@no?5selected?5item?5data@
  00014	e8 00 00 00 00	 call	 ?Py_BuildException@@YAPAU_object@@PBDZZ ; Py_BuildException
  00019	83 c4 04	 add	 esp, 4

; 146  : }

  0001c	c3		 ret	 0
$LN2@itemGetIBu:

; 144  : 
; 145  : 	return PyLong_FromLongLong(pItemData->GetIBuyItemPrice());

  0001d	8b c8		 mov	 ecx, eax
  0001f	e8 00 00 00 00	 call	 ?GetIBuyItemPrice@CItemData@@QBEKXZ ; CItemData::GetIBuyItemPrice
  00024	6a 00		 push	 0
  00026	50		 push	 eax
  00027	ff 15 00 00 00
	00		 call	 DWORD PTR __imp__PyLong_FromLongLong
  0002d	83 c4 08	 add	 esp, 8

; 146  : }

  00030	c3		 ret	 0
?itemGetIBuyItemPrice@@YAPAU_object@@PAU1@0@Z ENDP	; itemGetIBuyItemPrice
_TEXT	ENDS
; Function compile flags: /Ogtp
; File E:\Metin2_server\SolWayneSF v6\ClientVS22\source\UserInterface\PythonItemModule.cpp
;	COMDAT ?itemGetISellItemPrice@@YAPAU_object@@PAU1@0@Z
_TEXT	SEGMENT
_poSelf$ = 8						; size = 4
_poArgs$ = 12						; size = 4
?itemGetISellItemPrice@@YAPAU_object@@PAU1@0@Z PROC	; itemGetISellItemPrice, COMDAT

; 150  : 	CItemData * pItemData = CItemManager::Instance().GetSelectedItemDataPointer();

  00000	8b 0d 00 00 00
	00		 mov	 ecx, DWORD PTR ?ms_singleton@?$CSingleton@VCItemManager@@@@0PAVCItemManager@@A ; CSingleton<CItemManager>::ms_singleton
  00006	e8 00 00 00 00	 call	 ?GetSelectedItemDataPointer@CItemManager@@QAEPAVCItemData@@XZ ; CItemManager::GetSelectedItemDataPointer

; 151  : 
; 152  : 	if (!pItemData)

  0000b	85 c0		 test	 eax, eax
  0000d	75 0e		 jne	 SHORT $LN2@itemGetISe

; 153  : 		return Py_BuildException("no selected item data");

  0000f	68 00 00 00 00	 push	 OFFSET ??_C@_0BG@LNOAJHHG@no?5selected?5item?5data@
  00014	e8 00 00 00 00	 call	 ?Py_BuildException@@YAPAU_object@@PBDZZ ; Py_BuildException
  00019	83 c4 04	 add	 esp, 4

; 156  : }

  0001c	c3		 ret	 0
$LN2@itemGetISe:

; 154  : 
; 155  : 	return PyLong_FromLongLong(pItemData->GetISellItemPrice());

  0001d	8b c8		 mov	 ecx, eax
  0001f	e8 00 00 00 00	 call	 ?GetISellItemPrice@CItemData@@QBEKXZ ; CItemData::GetISellItemPrice
  00024	6a 00		 push	 0
  00026	50		 push	 eax
  00027	ff 15 00 00 00
	00		 call	 DWORD PTR __imp__PyLong_FromLongLong
  0002d	83 c4 08	 add	 esp, 8

; 156  : }

  00030	c3		 ret	 0
?itemGetISellItemPrice@@YAPAU_object@@PAU1@0@Z ENDP	; itemGetISellItemPrice
_TEXT	ENDS
; Function compile flags: /Ogtp
; File E:\Metin2_server\SolWayneSF v6\ClientVS22\source\UserInterface\PythonItemModule.cpp
;	COMDAT ?itemIsAntiFlag@@YAPAU_object@@PAU1@0@Z
_TEXT	SEGMENT
_iFlag$ = -4						; size = 4
_poSelf$ = 8						; size = 4
_poArgs$ = 12						; size = 4
?itemIsAntiFlag@@YAPAU_object@@PAU1@0@Z PROC		; itemIsAntiFlag, COMDAT

; 160  : {

  00000	55		 push	 ebp
  00001	8b ec		 mov	 ebp, esp
  00003	51		 push	 ecx

; 161  : 	int iFlag;
; 162  : 	if (!PyTuple_GetInteger(poArgs, 0, &iFlag))

  00004	8d 45 fc	 lea	 eax, DWORD PTR _iFlag$[ebp]
  00007	50		 push	 eax
  00008	6a 00		 push	 0
  0000a	ff 75 0c	 push	 DWORD PTR _poArgs$[ebp]
  0000d	e8 00 00 00 00	 call	 ?PyTuple_GetInteger@@YA_NPAU_object@@HPAH@Z ; PyTuple_GetInteger
  00012	83 c4 0c	 add	 esp, 12			; 0000000cH
  00015	84 c0		 test	 al, al
  00017	75 09		 jne	 SHORT $LN2@itemIsAnti

; 163  : 		return Py_BadArgument();

  00019	e8 00 00 00 00	 call	 ?Py_BadArgument@@YAPAU_object@@XZ ; Py_BadArgument

; 170  : }

  0001e	8b e5		 mov	 esp, ebp
  00020	5d		 pop	 ebp
  00021	c3		 ret	 0
$LN2@itemIsAnti:

; 164  : 
; 165  : 	CItemData * pItemData = CItemManager::Instance().GetSelectedItemDataPointer();

  00022	8b 0d 00 00 00
	00		 mov	 ecx, DWORD PTR ?ms_singleton@?$CSingleton@VCItemManager@@@@0PAVCItemManager@@A ; CSingleton<CItemManager>::ms_singleton
  00028	e8 00 00 00 00	 call	 ?GetSelectedItemDataPointer@CItemManager@@QAEPAVCItemData@@XZ ; CItemManager::GetSelectedItemDataPointer

; 166  : 	if (!pItemData)

  0002d	85 c0		 test	 eax, eax
  0002f	75 11		 jne	 SHORT $LN3@itemIsAnti

; 167  : 		return Py_BuildException("no selected item data");

  00031	68 00 00 00 00	 push	 OFFSET ??_C@_0BG@LNOAJHHG@no?5selected?5item?5data@
  00036	e8 00 00 00 00	 call	 ?Py_BuildException@@YAPAU_object@@PBDZZ ; Py_BuildException
  0003b	83 c4 04	 add	 esp, 4

; 170  : }

  0003e	8b e5		 mov	 esp, ebp
  00040	5d		 pop	 ebp
  00041	c3		 ret	 0
$LN3@itemIsAnti:

; 168  : 
; 169  : 	return Py_BuildValue("i", pItemData->IsAntiFlag(iFlag));

  00042	ff 75 fc	 push	 DWORD PTR _iFlag$[ebp]
  00045	8b c8		 mov	 ecx, eax
  00047	e8 00 00 00 00	 call	 ?IsAntiFlag@CItemData@@QBEHK@Z ; CItemData::IsAntiFlag
  0004c	50		 push	 eax
  0004d	68 00 00 00 00	 push	 OFFSET ??_C@_01KBJDNOO@i@
  00052	ff 15 00 00 00
	00		 call	 DWORD PTR __imp__Py_BuildValue
  00058	83 c4 08	 add	 esp, 8

; 170  : }

  0005b	8b e5		 mov	 esp, ebp
  0005d	5d		 pop	 ebp
  0005e	c3		 ret	 0
?itemIsAntiFlag@@YAPAU_object@@PAU1@0@Z ENDP		; itemIsAntiFlag
_TEXT	ENDS
; Function compile flags: /Ogtp
; File E:\Metin2_server\SolWayneSF v6\ClientVS22\source\UserInterface\PythonItemModule.cpp
;	COMDAT ?itemIsFlag@@YAPAU_object@@PAU1@0@Z
_TEXT	SEGMENT
_iFlag$ = -4						; size = 4
_poSelf$ = 8						; size = 4
_poArgs$ = 12						; size = 4
?itemIsFlag@@YAPAU_object@@PAU1@0@Z PROC		; itemIsFlag, COMDAT

; 173  : {

  00000	55		 push	 ebp
  00001	8b ec		 mov	 ebp, esp
  00003	51		 push	 ecx

; 174  : 	int iFlag;
; 175  : 	if (!PyTuple_GetInteger(poArgs, 0, &iFlag))

  00004	8d 45 fc	 lea	 eax, DWORD PTR _iFlag$[ebp]
  00007	50		 push	 eax
  00008	6a 00		 push	 0
  0000a	ff 75 0c	 push	 DWORD PTR _poArgs$[ebp]
  0000d	e8 00 00 00 00	 call	 ?PyTuple_GetInteger@@YA_NPAU_object@@HPAH@Z ; PyTuple_GetInteger
  00012	83 c4 0c	 add	 esp, 12			; 0000000cH
  00015	84 c0		 test	 al, al
  00017	75 09		 jne	 SHORT $LN2@itemIsFlag

; 176  : 		return Py_BadArgument();

  00019	e8 00 00 00 00	 call	 ?Py_BadArgument@@YAPAU_object@@XZ ; Py_BadArgument

; 183  : }

  0001e	8b e5		 mov	 esp, ebp
  00020	5d		 pop	 ebp
  00021	c3		 ret	 0
$LN2@itemIsFlag:

; 177  : 
; 178  : 	CItemData * pItemData = CItemManager::Instance().GetSelectedItemDataPointer();

  00022	8b 0d 00 00 00
	00		 mov	 ecx, DWORD PTR ?ms_singleton@?$CSingleton@VCItemManager@@@@0PAVCItemManager@@A ; CSingleton<CItemManager>::ms_singleton
  00028	e8 00 00 00 00	 call	 ?GetSelectedItemDataPointer@CItemManager@@QAEPAVCItemData@@XZ ; CItemManager::GetSelectedItemDataPointer

; 179  : 	if (!pItemData)

  0002d	85 c0		 test	 eax, eax
  0002f	75 11		 jne	 SHORT $LN3@itemIsFlag

; 180  : 		return Py_BuildException("no selected item data");

  00031	68 00 00 00 00	 push	 OFFSET ??_C@_0BG@LNOAJHHG@no?5selected?5item?5data@
  00036	e8 00 00 00 00	 call	 ?Py_BuildException@@YAPAU_object@@PBDZZ ; Py_BuildException
  0003b	83 c4 04	 add	 esp, 4

; 183  : }

  0003e	8b e5		 mov	 esp, ebp
  00040	5d		 pop	 ebp
  00041	c3		 ret	 0
$LN3@itemIsFlag:

; 181  : 
; 182  : 	return Py_BuildValue("i", pItemData->IsFlag(iFlag));

  00042	ff 75 fc	 push	 DWORD PTR _iFlag$[ebp]
  00045	8b c8		 mov	 ecx, eax
  00047	e8 00 00 00 00	 call	 ?IsFlag@CItemData@@QBEHK@Z ; CItemData::IsFlag
  0004c	50		 push	 eax
  0004d	68 00 00 00 00	 push	 OFFSET ??_C@_01KBJDNOO@i@
  00052	ff 15 00 00 00
	00		 call	 DWORD PTR __imp__Py_BuildValue
  00058	83 c4 08	 add	 esp, 8

; 183  : }

  0005b	8b e5		 mov	 esp, ebp
  0005d	5d		 pop	 ebp
  0005e	c3		 ret	 0
?itemIsFlag@@YAPAU_object@@PAU1@0@Z ENDP		; itemIsFlag
_TEXT	ENDS
; Function compile flags: /Ogtp
; File E:\Metin2_server\SolWayneSF v6\ClientVS22\source\UserInterface\PythonItemModule.cpp
;	COMDAT ?itemIsWearableFlag@@YAPAU_object@@PAU1@0@Z
_TEXT	SEGMENT
_iFlag$ = -4						; size = 4
_poSelf$ = 8						; size = 4
_poArgs$ = 12						; size = 4
?itemIsWearableFlag@@YAPAU_object@@PAU1@0@Z PROC	; itemIsWearableFlag, COMDAT

; 186  : {

  00000	55		 push	 ebp
  00001	8b ec		 mov	 ebp, esp
  00003	51		 push	 ecx

; 187  : 	int iFlag;
; 188  : 	if (!PyTuple_GetInteger(poArgs, 0, &iFlag))

  00004	8d 45 fc	 lea	 eax, DWORD PTR _iFlag$[ebp]
  00007	50		 push	 eax
  00008	6a 00		 push	 0
  0000a	ff 75 0c	 push	 DWORD PTR _poArgs$[ebp]
  0000d	e8 00 00 00 00	 call	 ?PyTuple_GetInteger@@YA_NPAU_object@@HPAH@Z ; PyTuple_GetInteger
  00012	83 c4 0c	 add	 esp, 12			; 0000000cH
  00015	84 c0		 test	 al, al
  00017	75 09		 jne	 SHORT $LN2@itemIsWear

; 189  : 		return Py_BadArgument();

  00019	e8 00 00 00 00	 call	 ?Py_BadArgument@@YAPAU_object@@XZ ; Py_BadArgument

; 196  : }

  0001e	8b e5		 mov	 esp, ebp
  00020	5d		 pop	 ebp
  00021	c3		 ret	 0
$LN2@itemIsWear:

; 190  : 
; 191  : 	CItemData * pItemData = CItemManager::Instance().GetSelectedItemDataPointer();

  00022	8b 0d 00 00 00
	00		 mov	 ecx, DWORD PTR ?ms_singleton@?$CSingleton@VCItemManager@@@@0PAVCItemManager@@A ; CSingleton<CItemManager>::ms_singleton
  00028	e8 00 00 00 00	 call	 ?GetSelectedItemDataPointer@CItemManager@@QAEPAVCItemData@@XZ ; CItemManager::GetSelectedItemDataPointer

; 192  : 	if (!pItemData)

  0002d	85 c0		 test	 eax, eax
  0002f	75 11		 jne	 SHORT $LN3@itemIsWear

; 193  : 		return Py_BuildException("no selected item data");

  00031	68 00 00 00 00	 push	 OFFSET ??_C@_0BG@LNOAJHHG@no?5selected?5item?5data@
  00036	e8 00 00 00 00	 call	 ?Py_BuildException@@YAPAU_object@@PBDZZ ; Py_BuildException
  0003b	83 c4 04	 add	 esp, 4

; 196  : }

  0003e	8b e5		 mov	 esp, ebp
  00040	5d		 pop	 ebp
  00041	c3		 ret	 0
$LN3@itemIsWear:

; 194  : 
; 195  : 	return Py_BuildValue("i", pItemData->IsWearableFlag(iFlag));

  00042	ff 75 fc	 push	 DWORD PTR _iFlag$[ebp]
  00045	8b c8		 mov	 ecx, eax
  00047	e8 00 00 00 00	 call	 ?IsWearableFlag@CItemData@@QBEHK@Z ; CItemData::IsWearableFlag
  0004c	50		 push	 eax
  0004d	68 00 00 00 00	 push	 OFFSET ??_C@_01KBJDNOO@i@
  00052	ff 15 00 00 00
	00		 call	 DWORD PTR __imp__Py_BuildValue
  00058	83 c4 08	 add	 esp, 8

; 196  : }

  0005b	8b e5		 mov	 esp, ebp
  0005d	5d		 pop	 ebp
  0005e	c3		 ret	 0
?itemIsWearableFlag@@YAPAU_object@@PAU1@0@Z ENDP	; itemIsWearableFlag
_TEXT	ENDS
; Function compile flags: /Ogtp
; File E:\Metin2_server\SolWayneSF v6\ClientVS22\source\UserInterface\PythonItemModule.cpp
;	COMDAT ?itemIs1GoldItem@@YAPAU_object@@PAU1@0@Z
_TEXT	SEGMENT
_poSelf$ = 8						; size = 4
_poArgs$ = 12						; size = 4
?itemIs1GoldItem@@YAPAU_object@@PAU1@0@Z PROC		; itemIs1GoldItem, COMDAT

; 200  : 	CItemData * pItemData = CItemManager::Instance().GetSelectedItemDataPointer();

  00000	8b 0d 00 00 00
	00		 mov	 ecx, DWORD PTR ?ms_singleton@?$CSingleton@VCItemManager@@@@0PAVCItemManager@@A ; CSingleton<CItemManager>::ms_singleton
  00006	e8 00 00 00 00	 call	 ?GetSelectedItemDataPointer@CItemManager@@QAEPAVCItemData@@XZ ; CItemManager::GetSelectedItemDataPointer

; 201  : 	if (!pItemData)

  0000b	85 c0		 test	 eax, eax
  0000d	75 0e		 jne	 SHORT $LN2@itemIs1Gol

; 202  : 		return Py_BuildException("no selected item data");

  0000f	68 00 00 00 00	 push	 OFFSET ??_C@_0BG@LNOAJHHG@no?5selected?5item?5data@
  00014	e8 00 00 00 00	 call	 ?Py_BuildException@@YAPAU_object@@PBDZZ ; Py_BuildException
  00019	83 c4 04	 add	 esp, 4

; 205  : }

  0001c	c3		 ret	 0
$LN2@itemIs1Gol:

; 203  : 
; 204  : 	return Py_BuildValue("i", pItemData->IsFlag(CItemData::ITEM_FLAG_COUNT_PER_1GOLD));

  0001d	6a 08		 push	 8
  0001f	8b c8		 mov	 ecx, eax
  00021	e8 00 00 00 00	 call	 ?IsFlag@CItemData@@QBEHK@Z ; CItemData::IsFlag
  00026	50		 push	 eax
  00027	68 00 00 00 00	 push	 OFFSET ??_C@_01KBJDNOO@i@
  0002c	ff 15 00 00 00
	00		 call	 DWORD PTR __imp__Py_BuildValue
  00032	83 c4 08	 add	 esp, 8

; 205  : }

  00035	c3		 ret	 0
?itemIs1GoldItem@@YAPAU_object@@PAU1@0@Z ENDP		; itemIs1GoldItem
_TEXT	ENDS
; Function compile flags: /Ogtp
; File E:\Metin2_server\SolWayneSF v6\ClientVS22\source\UserInterface\PythonItemModule.cpp
;	COMDAT ?itemGetLimit@@YAPAU_object@@PAU1@0@Z
_TEXT	SEGMENT
_ItemLimit$ = -12					; size = 5
_iValueIndex$ = -4					; size = 4
_poSelf$ = 8						; size = 4
_poArgs$ = 12						; size = 4
?itemGetLimit@@YAPAU_object@@PAU1@0@Z PROC		; itemGetLimit, COMDAT

; 208  : {

  00000	55		 push	 ebp
  00001	8b ec		 mov	 ebp, esp
  00003	83 ec 0c	 sub	 esp, 12			; 0000000cH

; 209  : 	int iValueIndex;
; 210  : 	if (!PyTuple_GetInteger(poArgs, 0, &iValueIndex))

  00006	8d 45 fc	 lea	 eax, DWORD PTR _iValueIndex$[ebp]
  00009	50		 push	 eax
  0000a	6a 00		 push	 0
  0000c	ff 75 0c	 push	 DWORD PTR _poArgs$[ebp]
  0000f	e8 00 00 00 00	 call	 ?PyTuple_GetInteger@@YA_NPAU_object@@HPAH@Z ; PyTuple_GetInteger
  00014	83 c4 0c	 add	 esp, 12			; 0000000cH
  00017	84 c0		 test	 al, al
  00019	75 09		 jne	 SHORT $LN2@itemGetLim

; 211  : 		return Py_BadArgument();

  0001b	e8 00 00 00 00	 call	 ?Py_BadArgument@@YAPAU_object@@XZ ; Py_BadArgument

; 222  : }

  00020	8b e5		 mov	 esp, ebp
  00022	5d		 pop	 ebp
  00023	c3		 ret	 0
$LN2@itemGetLim:

; 212  : 
; 213  : 	CItemData * pItemData = CItemManager::Instance().GetSelectedItemDataPointer();

  00024	8b 0d 00 00 00
	00		 mov	 ecx, DWORD PTR ?ms_singleton@?$CSingleton@VCItemManager@@@@0PAVCItemManager@@A ; CSingleton<CItemManager>::ms_singleton
  0002a	e8 00 00 00 00	 call	 ?GetSelectedItemDataPointer@CItemManager@@QAEPAVCItemData@@XZ ; CItemManager::GetSelectedItemDataPointer

; 214  : 	if (!pItemData)

  0002f	85 c0		 test	 eax, eax
  00031	75 11		 jne	 SHORT $LN3@itemGetLim

; 215  : 		return Py_BuildException("Not yet select item data");

  00033	68 00 00 00 00	 push	 OFFSET ??_C@_0BJ@FJOAFFCG@Not?5yet?5select?5item?5data@
  00038	e8 00 00 00 00	 call	 ?Py_BuildException@@YAPAU_object@@PBDZZ ; Py_BuildException
  0003d	83 c4 04	 add	 esp, 4

; 222  : }

  00040	8b e5		 mov	 esp, ebp
  00042	5d		 pop	 ebp
  00043	c3		 ret	 0
$LN3@itemGetLim:

; 216  : 
; 217  : 	CItemData::TItemLimit ItemLimit;
; 218  : 	if (!pItemData->GetLimit(iValueIndex, &ItemLimit))

  00044	8d 4d f4	 lea	 ecx, DWORD PTR _ItemLimit$[ebp]
  00047	51		 push	 ecx
  00048	ff 75 fc	 push	 DWORD PTR _iValueIndex$[ebp]
  0004b	8b c8		 mov	 ecx, eax
  0004d	e8 00 00 00 00	 call	 ?GetLimit@CItemData@@QBEHEPAUSItemLimit@1@@Z ; CItemData::GetLimit
  00052	85 c0		 test	 eax, eax
  00054	75 0d		 jne	 SHORT $LN4@itemGetLim

; 219  : 		return Py_BuildException();

  00056	50		 push	 eax
  00057	e8 00 00 00 00	 call	 ?Py_BuildException@@YAPAU_object@@PBDZZ ; Py_BuildException
  0005c	83 c4 04	 add	 esp, 4

; 222  : }

  0005f	8b e5		 mov	 esp, ebp
  00061	5d		 pop	 ebp
  00062	c3		 ret	 0
$LN4@itemGetLim:

; 220  : 
; 221  : 	return Py_BuildValue("ii", ItemLimit.bType, ItemLimit.lValue);

  00063	ff 75 f5	 push	 DWORD PTR _ItemLimit$[ebp+1]
  00066	0f b6 45 f4	 movzx	 eax, BYTE PTR _ItemLimit$[ebp]
  0006a	50		 push	 eax
  0006b	68 00 00 00 00	 push	 OFFSET ??_C@_02PDIHAGKM@ii@
  00070	ff 15 00 00 00
	00		 call	 DWORD PTR __imp__Py_BuildValue
  00076	83 c4 0c	 add	 esp, 12			; 0000000cH

; 222  : }

  00079	8b e5		 mov	 esp, ebp
  0007b	5d		 pop	 ebp
  0007c	c3		 ret	 0
?itemGetLimit@@YAPAU_object@@PAU1@0@Z ENDP		; itemGetLimit
_TEXT	ENDS
; Function compile flags: /Ogtp
; File E:\Metin2_server\SolWayneSF v6\ClientVS22\source\UserInterface\PythonItemModule.cpp
;	COMDAT ?itemGetAffect@@YAPAU_object@@PAU1@0@Z
_TEXT	SEGMENT
_ItemApply$ = -12					; size = 5
_iValueIndex$ = -4					; size = 4
_poSelf$ = 8						; size = 4
_poArgs$ = 12						; size = 4
?itemGetAffect@@YAPAU_object@@PAU1@0@Z PROC		; itemGetAffect, COMDAT

; 225  : {

  00000	55		 push	 ebp
  00001	8b ec		 mov	 ebp, esp
  00003	83 ec 0c	 sub	 esp, 12			; 0000000cH

; 226  : 	int iValueIndex;
; 227  : 	if (!PyTuple_GetInteger(poArgs, 0, &iValueIndex))

  00006	8d 45 fc	 lea	 eax, DWORD PTR _iValueIndex$[ebp]
  00009	50		 push	 eax
  0000a	6a 00		 push	 0
  0000c	ff 75 0c	 push	 DWORD PTR _poArgs$[ebp]
  0000f	e8 00 00 00 00	 call	 ?PyTuple_GetInteger@@YA_NPAU_object@@HPAH@Z ; PyTuple_GetInteger
  00014	83 c4 0c	 add	 esp, 12			; 0000000cH
  00017	84 c0		 test	 al, al
  00019	75 09		 jne	 SHORT $LN2@itemGetAff

; 228  : 		return Py_BadArgument();

  0001b	e8 00 00 00 00	 call	 ?Py_BadArgument@@YAPAU_object@@XZ ; Py_BadArgument

; 244  : }

  00020	8b e5		 mov	 esp, ebp
  00022	5d		 pop	 ebp
  00023	c3		 ret	 0
$LN2@itemGetAff:

; 229  : 
; 230  : 	CItemData * pItemData = CItemManager::Instance().GetSelectedItemDataPointer();

  00024	8b 0d 00 00 00
	00		 mov	 ecx, DWORD PTR ?ms_singleton@?$CSingleton@VCItemManager@@@@0PAVCItemManager@@A ; CSingleton<CItemManager>::ms_singleton
  0002a	56		 push	 esi
  0002b	e8 00 00 00 00	 call	 ?GetSelectedItemDataPointer@CItemManager@@QAEPAVCItemData@@XZ ; CItemManager::GetSelectedItemDataPointer
  00030	8b f0		 mov	 esi, eax

; 231  : 	if (!pItemData)

  00032	85 f6		 test	 esi, esi
  00034	75 12		 jne	 SHORT $LN3@itemGetAff

; 232  : 		return Py_BuildException("Not yet select item data");

  00036	68 00 00 00 00	 push	 OFFSET ??_C@_0BJ@FJOAFFCG@Not?5yet?5select?5item?5data@
  0003b	e8 00 00 00 00	 call	 ?Py_BuildException@@YAPAU_object@@PBDZZ ; Py_BuildException
  00040	83 c4 04	 add	 esp, 4
  00043	5e		 pop	 esi

; 244  : }

  00044	8b e5		 mov	 esp, ebp
  00046	5d		 pop	 ebp
  00047	c3		 ret	 0
$LN3@itemGetAff:

; 233  : 
; 234  : 	CItemData::TItemApply ItemApply;
; 235  : 	if (!pItemData->GetApply(iValueIndex, &ItemApply))

  00048	8d 45 f4	 lea	 eax, DWORD PTR _ItemApply$[ebp]
  0004b	8b ce		 mov	 ecx, esi
  0004d	50		 push	 eax
  0004e	ff 75 fc	 push	 DWORD PTR _iValueIndex$[ebp]
  00051	e8 00 00 00 00	 call	 ?GetApply@CItemData@@QBEHEPAUSItemApply@1@@Z ; CItemData::GetApply
  00056	85 c0		 test	 eax, eax
  00058	75 0e		 jne	 SHORT $LN4@itemGetAff

; 236  : 		return Py_BuildException();

  0005a	50		 push	 eax
  0005b	e8 00 00 00 00	 call	 ?Py_BuildException@@YAPAU_object@@PBDZZ ; Py_BuildException
  00060	83 c4 04	 add	 esp, 4
  00063	5e		 pop	 esi

; 244  : }

  00064	8b e5		 mov	 esp, ebp
  00066	5d		 pop	 ebp
  00067	c3		 ret	 0
$LN4@itemGetAff:

; 237  : 
; 238  : 	if ((CItemData::APPLY_ATT_SPEED == ItemApply.bType) && (CItemData::ITEM_TYPE_WEAPON == pItemData->GetType()) && (CItemData::WEAPON_TWO_HANDED == pItemData->GetSubType()))

  00068	80 7d f4 07	 cmp	 BYTE PTR _ItemApply$[ebp], 7
  0006c	75 1e		 jne	 SHORT $LN8@itemGetAff
  0006e	8b ce		 mov	 ecx, esi
  00070	e8 00 00 00 00	 call	 ?GetType@CItemData@@QBEEXZ ; CItemData::GetType
  00075	3c 01		 cmp	 al, 1
  00077	75 13		 jne	 SHORT $LN8@itemGetAff
  00079	8b ce		 mov	 ecx, esi
  0007b	e8 00 00 00 00	 call	 ?GetSubType@CItemData@@QBEEXZ ; CItemData::GetSubType
  00080	3c 03		 cmp	 al, 3
  00082	75 08		 jne	 SHORT $LN8@itemGetAff

; 239  : 	{
; 240  : 		ItemApply.lValue -= TWOHANDED_WEWAPON_ATT_SPEED_DECREASE_VALUE;

  00084	a1 00 00 00 00	 mov	 eax, DWORD PTR ?TWOHANDED_WEWAPON_ATT_SPEED_DECREASE_VALUE@@3HA ; TWOHANDED_WEWAPON_ATT_SPEED_DECREASE_VALUE
  00089	29 45 f5	 sub	 DWORD PTR _ItemApply$[ebp+1], eax
$LN8@itemGetAff:

; 241  : 	}
; 242  : 
; 243  : 	return Py_BuildValue("ii", ItemApply.bType, ItemApply.lValue);

  0008c	ff 75 f5	 push	 DWORD PTR _ItemApply$[ebp+1]
  0008f	0f b6 45 f4	 movzx	 eax, BYTE PTR _ItemApply$[ebp]
  00093	50		 push	 eax
  00094	68 00 00 00 00	 push	 OFFSET ??_C@_02PDIHAGKM@ii@
  00099	ff 15 00 00 00
	00		 call	 DWORD PTR __imp__Py_BuildValue
  0009f	83 c4 0c	 add	 esp, 12			; 0000000cH
  000a2	5e		 pop	 esi

; 244  : }

  000a3	8b e5		 mov	 esp, ebp
  000a5	5d		 pop	 ebp
  000a6	c3		 ret	 0
?itemGetAffect@@YAPAU_object@@PAU1@0@Z ENDP		; itemGetAffect
_TEXT	ENDS
; Function compile flags: /Ogtp
; File E:\Metin2_server\SolWayneSF v6\ClientVS22\source\UserInterface\PythonItemModule.cpp
;	COMDAT ?itemGetValue@@YAPAU_object@@PAU1@0@Z
_TEXT	SEGMENT
_iValueIndex$ = -4					; size = 4
_poSelf$ = 8						; size = 4
_poArgs$ = 12						; size = 4
?itemGetValue@@YAPAU_object@@PAU1@0@Z PROC		; itemGetValue, COMDAT

; 247  : {

  00000	55		 push	 ebp
  00001	8b ec		 mov	 ebp, esp
  00003	51		 push	 ecx

; 248  : 	int iValueIndex;
; 249  : 	if (!PyTuple_GetInteger(poArgs, 0, &iValueIndex))

  00004	8d 45 fc	 lea	 eax, DWORD PTR _iValueIndex$[ebp]
  00007	50		 push	 eax
  00008	6a 00		 push	 0
  0000a	ff 75 0c	 push	 DWORD PTR _poArgs$[ebp]
  0000d	e8 00 00 00 00	 call	 ?PyTuple_GetInteger@@YA_NPAU_object@@HPAH@Z ; PyTuple_GetInteger
  00012	83 c4 0c	 add	 esp, 12			; 0000000cH
  00015	84 c0		 test	 al, al
  00017	75 09		 jne	 SHORT $LN2@itemGetVal

; 250  : 		return Py_BadArgument();

  00019	e8 00 00 00 00	 call	 ?Py_BadArgument@@YAPAU_object@@XZ ; Py_BadArgument

; 257  : }

  0001e	8b e5		 mov	 esp, ebp
  00020	5d		 pop	 ebp
  00021	c3		 ret	 0
$LN2@itemGetVal:

; 251  : 
; 252  : 	CItemData * pItemData = CItemManager::Instance().GetSelectedItemDataPointer();

  00022	8b 0d 00 00 00
	00		 mov	 ecx, DWORD PTR ?ms_singleton@?$CSingleton@VCItemManager@@@@0PAVCItemManager@@A ; CSingleton<CItemManager>::ms_singleton
  00028	e8 00 00 00 00	 call	 ?GetSelectedItemDataPointer@CItemManager@@QAEPAVCItemData@@XZ ; CItemManager::GetSelectedItemDataPointer

; 253  : 	if (!pItemData)

  0002d	85 c0		 test	 eax, eax
  0002f	75 11		 jne	 SHORT $LN3@itemGetVal

; 254  : 		return Py_BuildException("Not yet select item data");

  00031	68 00 00 00 00	 push	 OFFSET ??_C@_0BJ@FJOAFFCG@Not?5yet?5select?5item?5data@
  00036	e8 00 00 00 00	 call	 ?Py_BuildException@@YAPAU_object@@PBDZZ ; Py_BuildException
  0003b	83 c4 04	 add	 esp, 4

; 257  : }

  0003e	8b e5		 mov	 esp, ebp
  00040	5d		 pop	 ebp
  00041	c3		 ret	 0
$LN3@itemGetVal:

; 255  : 
; 256  : 	return Py_BuildValue("i", pItemData->GetValue(iValueIndex));

  00042	ff 75 fc	 push	 DWORD PTR _iValueIndex$[ebp]
  00045	8b c8		 mov	 ecx, eax
  00047	e8 00 00 00 00	 call	 ?GetValue@CItemData@@QBEJE@Z ; CItemData::GetValue
  0004c	50		 push	 eax
  0004d	68 00 00 00 00	 push	 OFFSET ??_C@_01KBJDNOO@i@
  00052	ff 15 00 00 00
	00		 call	 DWORD PTR __imp__Py_BuildValue
  00058	83 c4 08	 add	 esp, 8

; 257  : }

  0005b	8b e5		 mov	 esp, ebp
  0005d	5d		 pop	 ebp
  0005e	c3		 ret	 0
?itemGetValue@@YAPAU_object@@PAU1@0@Z ENDP		; itemGetValue
_TEXT	ENDS
; Function compile flags: /Ogtp
; File E:\Metin2_server\SolWayneSF v6\ClientVS22\source\UserInterface\PythonItemModule.cpp
;	COMDAT ?itemGetSocket@@YAPAU_object@@PAU1@0@Z
_TEXT	SEGMENT
_iValueIndex$ = -4					; size = 4
_poSelf$ = 8						; size = 4
_poArgs$ = 12						; size = 4
?itemGetSocket@@YAPAU_object@@PAU1@0@Z PROC		; itemGetSocket, COMDAT

; 260  : {

  00000	55		 push	 ebp
  00001	8b ec		 mov	 ebp, esp
  00003	51		 push	 ecx

; 261  : 	int iValueIndex;
; 262  : 	if (!PyTuple_GetInteger(poArgs, 0, &iValueIndex))

  00004	8d 45 fc	 lea	 eax, DWORD PTR _iValueIndex$[ebp]
  00007	50		 push	 eax
  00008	6a 00		 push	 0
  0000a	ff 75 0c	 push	 DWORD PTR _poArgs$[ebp]
  0000d	e8 00 00 00 00	 call	 ?PyTuple_GetInteger@@YA_NPAU_object@@HPAH@Z ; PyTuple_GetInteger
  00012	83 c4 0c	 add	 esp, 12			; 0000000cH
  00015	84 c0		 test	 al, al
  00017	75 09		 jne	 SHORT $LN2@itemGetSoc

; 263  : 		return Py_BadArgument();

  00019	e8 00 00 00 00	 call	 ?Py_BadArgument@@YAPAU_object@@XZ ; Py_BadArgument

; 270  : }

  0001e	8b e5		 mov	 esp, ebp
  00020	5d		 pop	 ebp
  00021	c3		 ret	 0
$LN2@itemGetSoc:

; 264  : 
; 265  : 	CItemData * pItemData = CItemManager::Instance().GetSelectedItemDataPointer();

  00022	8b 0d 00 00 00
	00		 mov	 ecx, DWORD PTR ?ms_singleton@?$CSingleton@VCItemManager@@@@0PAVCItemManager@@A ; CSingleton<CItemManager>::ms_singleton
  00028	e8 00 00 00 00	 call	 ?GetSelectedItemDataPointer@CItemManager@@QAEPAVCItemData@@XZ ; CItemManager::GetSelectedItemDataPointer

; 266  : 	if (!pItemData)

  0002d	85 c0		 test	 eax, eax
  0002f	75 11		 jne	 SHORT $LN3@itemGetSoc

; 267  : 		return Py_BuildException("Not yet select item data");

  00031	68 00 00 00 00	 push	 OFFSET ??_C@_0BJ@FJOAFFCG@Not?5yet?5select?5item?5data@
  00036	e8 00 00 00 00	 call	 ?Py_BuildException@@YAPAU_object@@PBDZZ ; Py_BuildException
  0003b	83 c4 04	 add	 esp, 4

; 270  : }

  0003e	8b e5		 mov	 esp, ebp
  00040	5d		 pop	 ebp
  00041	c3		 ret	 0
$LN3@itemGetSoc:

; 268  : 
; 269  : 	return Py_BuildValue("i", pItemData->GetSocket(iValueIndex));

  00042	ff 75 fc	 push	 DWORD PTR _iValueIndex$[ebp]
  00045	8b c8		 mov	 ecx, eax
  00047	e8 00 00 00 00	 call	 ?GetSocket@CItemData@@QBEJE@Z ; CItemData::GetSocket
  0004c	50		 push	 eax
  0004d	68 00 00 00 00	 push	 OFFSET ??_C@_01KBJDNOO@i@
  00052	ff 15 00 00 00
	00		 call	 DWORD PTR __imp__Py_BuildValue
  00058	83 c4 08	 add	 esp, 8

; 270  : }

  0005b	8b e5		 mov	 esp, ebp
  0005d	5d		 pop	 ebp
  0005e	c3		 ret	 0
?itemGetSocket@@YAPAU_object@@PAU1@0@Z ENDP		; itemGetSocket
_TEXT	ENDS
; Function compile flags: /Ogtp
; File E:\Metin2_server\SolWayneSF v6\ClientVS22\source\UserInterface\PythonItemModule.cpp
;	COMDAT ?itemGetIconInstance@@YAPAU_object@@PAU1@0@Z
_TEXT	SEGMENT
_poSelf$ = 8						; size = 4
_poArgs$ = 12						; size = 4
?itemGetIconInstance@@YAPAU_object@@PAU1@0@Z PROC	; itemGetIconInstance, COMDAT

; 274  : 	CItemData * pItemData = CItemManager::Instance().GetSelectedItemDataPointer();

  00000	8b 0d 00 00 00
	00		 mov	 ecx, DWORD PTR ?ms_singleton@?$CSingleton@VCItemManager@@@@0PAVCItemManager@@A ; CSingleton<CItemManager>::ms_singleton
  00006	56		 push	 esi
  00007	e8 00 00 00 00	 call	 ?GetSelectedItemDataPointer@CItemManager@@QAEPAVCItemData@@XZ ; CItemManager::GetSelectedItemDataPointer
  0000c	8b f0		 mov	 esi, eax

; 275  : 	if (!pItemData)

  0000e	85 f6		 test	 esi, esi
  00010	75 0f		 jne	 SHORT $LN2@itemGetIco

; 276  : 		return Py_BuildException("Not yet select item data");

  00012	68 00 00 00 00	 push	 OFFSET ??_C@_0BJ@FJOAFFCG@Not?5yet?5select?5item?5data@
  00017	e8 00 00 00 00	 call	 ?Py_BuildException@@YAPAU_object@@PBDZZ ; Py_BuildException
  0001c	83 c4 04	 add	 esp, 4
  0001f	5e		 pop	 esi

; 286  : }

  00020	c3		 ret	 0
$LN2@itemGetIco:
  00021	57		 push	 edi

; 277  : 
; 278  : 	CGraphicSubImage * pImage = pItemData->GetIconImage();

  00022	8b ce		 mov	 ecx, esi
  00024	e8 00 00 00 00	 call	 ?GetIconImage@CItemData@@QAEPAVCGraphicSubImage@@XZ ; CItemData::GetIconImage
  00029	8b f8		 mov	 edi, eax

; 279  : 	if (!pImage)

  0002b	85 ff		 test	 edi, edi
  0002d	75 18		 jne	 SHORT $LN3@itemGetIco

; 280  : 		return Py_BuildException("Cannot get icon image by %d", pItemData->GetIndex());

  0002f	8b ce		 mov	 ecx, esi
  00031	e8 00 00 00 00	 call	 ?GetIndex@CItemData@@QBEKXZ ; CItemData::GetIndex
  00036	50		 push	 eax
  00037	68 00 00 00 00	 push	 OFFSET ??_C@_0BM@MLEHJLDK@Cannot?5get?5icon?5image?5by?5?$CFd@
  0003c	e8 00 00 00 00	 call	 ?Py_BuildException@@YAPAU_object@@PBDZZ ; Py_BuildException

; 284  : 
; 285  : 	return Py_BuildValue("i", pImageInstance);

  00041	83 c4 08	 add	 esp, 8
  00044	5f		 pop	 edi
  00045	5e		 pop	 esi

; 286  : }

  00046	c3		 ret	 0
$LN3@itemGetIco:

; 281  : 
; 282  : 	CGraphicImageInstance * pImageInstance = CGraphicImageInstance::New();

  00047	e8 00 00 00 00	 call	 ?New@CGraphicImageInstance@@SAPAV1@XZ ; CGraphicImageInstance::New
  0004c	8b f0		 mov	 esi, eax

; 283  : 	pImageInstance->SetImagePointer(pImage);

  0004e	57		 push	 edi
  0004f	8b ce		 mov	 ecx, esi
  00051	e8 00 00 00 00	 call	 ?SetImagePointer@CGraphicImageInstance@@QAEXPAVCGraphicImage@@@Z ; CGraphicImageInstance::SetImagePointer

; 284  : 
; 285  : 	return Py_BuildValue("i", pImageInstance);

  00056	56		 push	 esi
  00057	68 00 00 00 00	 push	 OFFSET ??_C@_01KBJDNOO@i@
  0005c	ff 15 00 00 00
	00		 call	 DWORD PTR __imp__Py_BuildValue
  00062	83 c4 08	 add	 esp, 8
  00065	5f		 pop	 edi
  00066	5e		 pop	 esi

; 286  : }

  00067	c3		 ret	 0
?itemGetIconInstance@@YAPAU_object@@PAU1@0@Z ENDP	; itemGetIconInstance
_TEXT	ENDS
; Function compile flags: /Ogtp
; File E:\Metin2_server\SolWayneSF v6\ClientVS22\source\UserInterface\PythonItemModule.cpp
;	COMDAT ?itemDeleteIconInstance@@YAPAU_object@@PAU1@0@Z
_TEXT	SEGMENT
_iHandle$ = -4						; size = 4
_poSelf$ = 8						; size = 4
_poArgs$ = 12						; size = 4
?itemDeleteIconInstance@@YAPAU_object@@PAU1@0@Z PROC	; itemDeleteIconInstance, COMDAT

; 289  : {

  00000	55		 push	 ebp
  00001	8b ec		 mov	 ebp, esp
  00003	51		 push	 ecx

; 290  : 	int iHandle;
; 291  : 	if (!PyTuple_GetInteger(poArgs, 0, &iHandle))

  00004	8d 45 fc	 lea	 eax, DWORD PTR _iHandle$[ebp]
  00007	50		 push	 eax
  00008	6a 00		 push	 0
  0000a	ff 75 0c	 push	 DWORD PTR _poArgs$[ebp]
  0000d	e8 00 00 00 00	 call	 ?PyTuple_GetInteger@@YA_NPAU_object@@HPAH@Z ; PyTuple_GetInteger
  00012	83 c4 0c	 add	 esp, 12			; 0000000cH
  00015	84 c0		 test	 al, al
  00017	75 09		 jne	 SHORT $LN2@itemDelete

; 292  : 		return Py_BadArgument();

  00019	e8 00 00 00 00	 call	 ?Py_BadArgument@@YAPAU_object@@XZ ; Py_BadArgument

; 297  : }

  0001e	8b e5		 mov	 esp, ebp
  00020	5d		 pop	 ebp
  00021	c3		 ret	 0
$LN2@itemDelete:

; 293  : 
; 294  : 	CGraphicImageInstance::Delete((CGraphicImageInstance *) iHandle);

  00022	ff 75 fc	 push	 DWORD PTR _iHandle$[ebp]
  00025	e8 00 00 00 00	 call	 ?Delete@CGraphicImageInstance@@SAXPAV1@@Z ; CGraphicImageInstance::Delete
  0002a	83 c4 04	 add	 esp, 4

; 295  : 
; 296  : 	return Py_BuildNone();

  0002d	e8 00 00 00 00	 call	 ?Py_BuildNone@@YAPAU_object@@XZ ; Py_BuildNone

; 297  : }

  00032	8b e5		 mov	 esp, ebp
  00034	5d		 pop	 ebp
  00035	c3		 ret	 0
?itemDeleteIconInstance@@YAPAU_object@@PAU1@0@Z ENDP	; itemDeleteIconInstance
_TEXT	ENDS
; Function compile flags: /Ogtp
; File E:\Metin2_server\SolWayneSF v6\ClientVS22\source\UserInterface\PythonItemModule.cpp
;	COMDAT ?itemIsEquipmentVID@@YAPAU_object@@PAU1@0@Z
_TEXT	SEGMENT
_iItemVID$ = -4						; size = 4
_poSelf$ = 8						; size = 4
_poArgs$ = 12						; size = 4
?itemIsEquipmentVID@@YAPAU_object@@PAU1@0@Z PROC	; itemIsEquipmentVID, COMDAT

; 300  : {

  00000	55		 push	 ebp
  00001	8b ec		 mov	 ebp, esp
  00003	51		 push	 ecx

; 301  : 	int iItemVID;
; 302  : 	if (!PyTuple_GetInteger(poArgs, 0, &iItemVID))

  00004	8d 45 fc	 lea	 eax, DWORD PTR _iItemVID$[ebp]
  00007	50		 push	 eax
  00008	6a 00		 push	 0
  0000a	ff 75 0c	 push	 DWORD PTR _poArgs$[ebp]
  0000d	e8 00 00 00 00	 call	 ?PyTuple_GetInteger@@YA_NPAU_object@@HPAH@Z ; PyTuple_GetInteger
  00012	83 c4 0c	 add	 esp, 12			; 0000000cH
  00015	84 c0		 test	 al, al
  00017	75 09		 jne	 SHORT $LN2@itemIsEqui

; 303  : 		return Py_BadArgument();

  00019	e8 00 00 00 00	 call	 ?Py_BadArgument@@YAPAU_object@@XZ ; Py_BadArgument

; 311  : }

  0001e	8b e5		 mov	 esp, ebp
  00020	5d		 pop	 ebp
  00021	c3		 ret	 0
$LN2@itemIsEqui:

; 304  : 
; 305  : 	CItemManager::Instance().SelectItemData(iItemVID);

  00022	ff 75 fc	 push	 DWORD PTR _iItemVID$[ebp]
  00025	8b 0d 00 00 00
	00		 mov	 ecx, DWORD PTR ?ms_singleton@?$CSingleton@VCItemManager@@@@0PAVCItemManager@@A ; CSingleton<CItemManager>::ms_singleton
  0002b	e8 00 00 00 00	 call	 ?SelectItemData@CItemManager@@QAEHK@Z ; CItemManager::SelectItemData

; 306  : 	CItemData * pItemData = CItemManager::Instance().GetSelectedItemDataPointer();

  00030	8b 0d 00 00 00
	00		 mov	 ecx, DWORD PTR ?ms_singleton@?$CSingleton@VCItemManager@@@@0PAVCItemManager@@A ; CSingleton<CItemManager>::ms_singleton
  00036	e8 00 00 00 00	 call	 ?GetSelectedItemDataPointer@CItemManager@@QAEPAVCItemData@@XZ ; CItemManager::GetSelectedItemDataPointer

; 307  : 	if (!pItemData)

  0003b	85 c0		 test	 eax, eax
  0003d	75 11		 jne	 SHORT $LN3@itemIsEqui

; 308  : 		return Py_BuildException("Not yet select item data");

  0003f	68 00 00 00 00	 push	 OFFSET ??_C@_0BJ@FJOAFFCG@Not?5yet?5select?5item?5data@
  00044	e8 00 00 00 00	 call	 ?Py_BuildException@@YAPAU_object@@PBDZZ ; Py_BuildException
  00049	83 c4 04	 add	 esp, 4

; 311  : }

  0004c	8b e5		 mov	 esp, ebp
  0004e	5d		 pop	 ebp
  0004f	c3		 ret	 0
$LN3@itemIsEqui:

; 309  : 
; 310  : 	return Py_BuildValue("i", pItemData->IsEquipment());

  00050	8b c8		 mov	 ecx, eax
  00052	e8 00 00 00 00	 call	 ?IsEquipment@CItemData@@QBEHXZ ; CItemData::IsEquipment
  00057	50		 push	 eax
  00058	68 00 00 00 00	 push	 OFFSET ??_C@_01KBJDNOO@i@
  0005d	ff 15 00 00 00
	00		 call	 DWORD PTR __imp__Py_BuildValue
  00063	83 c4 08	 add	 esp, 8

; 311  : }

  00066	8b e5		 mov	 esp, ebp
  00068	5d		 pop	 ebp
  00069	c3		 ret	 0
?itemIsEquipmentVID@@YAPAU_object@@PAU1@0@Z ENDP	; itemIsEquipmentVID
_TEXT	ENDS
; Function compile flags: /Ogtp
; File E:\Metin2_server\SolWayneSF v6\ClientVS22\source\UserInterface\PythonItemModule.cpp
;	COMDAT ?itemGetUseType@@YAPAU_object@@PAU1@0@Z
_TEXT	SEGMENT
_iItemVID$ = -4						; size = 4
_poSelf$ = 8						; size = 4
_poArgs$ = 12						; size = 4
?itemGetUseType@@YAPAU_object@@PAU1@0@Z PROC		; itemGetUseType, COMDAT

; 315  : {

  00000	55		 push	 ebp
  00001	8b ec		 mov	 ebp, esp
  00003	51		 push	 ecx

; 316  : 	int iItemVID;
; 317  : 	if (!PyTuple_GetInteger(poArgs, 0, &iItemVID))

  00004	8d 45 fc	 lea	 eax, DWORD PTR _iItemVID$[ebp]
  00007	50		 push	 eax
  00008	6a 00		 push	 0
  0000a	ff 75 0c	 push	 DWORD PTR _poArgs$[ebp]
  0000d	e8 00 00 00 00	 call	 ?PyTuple_GetInteger@@YA_NPAU_object@@HPAH@Z ; PyTuple_GetInteger
  00012	83 c4 0c	 add	 esp, 12			; 0000000cH
  00015	84 c0		 test	 al, al
  00017	75 09		 jne	 SHORT $LN2@itemGetUse

; 318  : 		return Py_BadArgument();

  00019	e8 00 00 00 00	 call	 ?Py_BadArgument@@YAPAU_object@@XZ ; Py_BadArgument

; 326  : }

  0001e	8b e5		 mov	 esp, ebp
  00020	5d		 pop	 ebp
  00021	c3		 ret	 0
$LN2@itemGetUse:

; 319  : 
; 320  : 	CItemManager::Instance().SelectItemData(iItemVID);

  00022	ff 75 fc	 push	 DWORD PTR _iItemVID$[ebp]
  00025	8b 0d 00 00 00
	00		 mov	 ecx, DWORD PTR ?ms_singleton@?$CSingleton@VCItemManager@@@@0PAVCItemManager@@A ; CSingleton<CItemManager>::ms_singleton
  0002b	e8 00 00 00 00	 call	 ?SelectItemData@CItemManager@@QAEHK@Z ; CItemManager::SelectItemData

; 321  : 	CItemData * pItemData = CItemManager::Instance().GetSelectedItemDataPointer();

  00030	8b 0d 00 00 00
	00		 mov	 ecx, DWORD PTR ?ms_singleton@?$CSingleton@VCItemManager@@@@0PAVCItemManager@@A ; CSingleton<CItemManager>::ms_singleton
  00036	e8 00 00 00 00	 call	 ?GetSelectedItemDataPointer@CItemManager@@QAEPAVCItemData@@XZ ; CItemManager::GetSelectedItemDataPointer

; 322  : 	if (!pItemData)

  0003b	85 c0		 test	 eax, eax
  0003d	75 11		 jne	 SHORT $LN3@itemGetUse

; 323  : 		return Py_BuildException("Can't find select item data");

  0003f	68 00 00 00 00	 push	 OFFSET ??_C@_0BM@KPLEGEEH@Can?8t?5find?5select?5item?5data@
  00044	e8 00 00 00 00	 call	 ?Py_BuildException@@YAPAU_object@@PBDZZ ; Py_BuildException
  00049	83 c4 04	 add	 esp, 4

; 326  : }

  0004c	8b e5		 mov	 esp, ebp
  0004e	5d		 pop	 ebp
  0004f	c3		 ret	 0
$LN3@itemGetUse:

; 324  : 	
; 325  : 	return Py_BuildValue("s", pItemData->GetUseTypeString());	

  00050	8b c8		 mov	 ecx, eax
  00052	e8 00 00 00 00	 call	 ?GetUseTypeString@CItemData@@QBEPBDXZ ; CItemData::GetUseTypeString
  00057	50		 push	 eax
  00058	68 00 00 00 00	 push	 OFFSET ??_C@_01LKDEMHDF@s@
  0005d	ff 15 00 00 00
	00		 call	 DWORD PTR __imp__Py_BuildValue
  00063	83 c4 08	 add	 esp, 8

; 326  : }

  00066	8b e5		 mov	 esp, ebp
  00068	5d		 pop	 ebp
  00069	c3		 ret	 0
?itemGetUseType@@YAPAU_object@@PAU1@0@Z ENDP		; itemGetUseType
_TEXT	ENDS
; Function compile flags: /Ogtp
; File E:\Metin2_server\SolWayneSF v6\ClientVS22\source\UserInterface\PythonItemModule.cpp
;	COMDAT ?itemIsRefineScroll@@YAPAU_object@@PAU1@0@Z
_TEXT	SEGMENT
_iItemIndex$ = -4					; size = 4
_poSelf$ = 8						; size = 4
_poArgs$ = 12						; size = 4
?itemIsRefineScroll@@YAPAU_object@@PAU1@0@Z PROC	; itemIsRefineScroll, COMDAT

; 329  : {

  00000	55		 push	 ebp
  00001	8b ec		 mov	 ebp, esp
  00003	51		 push	 ecx

; 330  : 	int iItemIndex;
; 331  : 	if (!PyTuple_GetInteger(poArgs, 0, &iItemIndex))

  00004	8d 45 fc	 lea	 eax, DWORD PTR _iItemIndex$[ebp]
  00007	50		 push	 eax
  00008	6a 00		 push	 0
  0000a	ff 75 0c	 push	 DWORD PTR _poArgs$[ebp]
  0000d	e8 00 00 00 00	 call	 ?PyTuple_GetInteger@@YA_NPAU_object@@HPAH@Z ; PyTuple_GetInteger
  00012	83 c4 0c	 add	 esp, 12			; 0000000cH
  00015	84 c0		 test	 al, al
  00017	75 09		 jne	 SHORT $LN4@itemIsRefi

; 332  : 		return Py_BadArgument();

  00019	e8 00 00 00 00	 call	 ?Py_BadArgument@@YAPAU_object@@XZ ; Py_BadArgument

; 346  : 			break;
; 347  : 	}
; 348  : 	
; 349  : 	return Py_BuildValue("i", FALSE);
; 350  : }

  0001e	8b e5		 mov	 esp, ebp
  00020	5d		 pop	 ebp
  00021	c3		 ret	 0
$LN4@itemIsRefi:

; 333  : 
; 334  : 	CItemManager::Instance().SelectItemData(iItemIndex);

  00022	8b 0d 00 00 00
	00		 mov	 ecx, DWORD PTR ?ms_singleton@?$CSingleton@VCItemManager@@@@0PAVCItemManager@@A ; CSingleton<CItemManager>::ms_singleton
  00028	56		 push	 esi
  00029	ff 75 fc	 push	 DWORD PTR _iItemIndex$[ebp]
  0002c	e8 00 00 00 00	 call	 ?SelectItemData@CItemManager@@QAEHK@Z ; CItemManager::SelectItemData

; 335  : 	CItemData * pItemData = CItemManager::Instance().GetSelectedItemDataPointer();

  00031	8b 0d 00 00 00
	00		 mov	 ecx, DWORD PTR ?ms_singleton@?$CSingleton@VCItemManager@@@@0PAVCItemManager@@A ; CSingleton<CItemManager>::ms_singleton
  00037	e8 00 00 00 00	 call	 ?GetSelectedItemDataPointer@CItemManager@@QAEPAVCItemData@@XZ ; CItemManager::GetSelectedItemDataPointer
  0003c	8b f0		 mov	 esi, eax

; 336  : 	if (!pItemData)

  0003e	85 f6		 test	 esi, esi
  00040	75 12		 jne	 SHORT $LN5@itemIsRefi

; 337  : 		return Py_BuildException("Can't find select item data");

  00042	68 00 00 00 00	 push	 OFFSET ??_C@_0BM@KPLEGEEH@Can?8t?5find?5select?5item?5data@
  00047	e8 00 00 00 00	 call	 ?Py_BuildException@@YAPAU_object@@PBDZZ ; Py_BuildException
  0004c	83 c4 04	 add	 esp, 4
  0004f	5e		 pop	 esi

; 346  : 			break;
; 347  : 	}
; 348  : 	
; 349  : 	return Py_BuildValue("i", FALSE);
; 350  : }

  00050	8b e5		 mov	 esp, ebp
  00052	5d		 pop	 ebp
  00053	c3		 ret	 0
$LN5@itemIsRefi:

; 338  : 
; 339  : 	if (pItemData->GetType() != CItemData::ITEM_TYPE_USE)

  00054	8b ce		 mov	 ecx, esi
  00056	e8 00 00 00 00	 call	 ?GetType@CItemData@@QBEEXZ ; CItemData::GetType
  0005b	3c 03		 cmp	 al, 3
  0005d	74 15		 je	 SHORT $LN6@itemIsRefi
$LN11@itemIsRefi:

; 343  : 	{
; 344  : 		case CItemData::USE_TUNING:
; 345  : 			return Py_BuildValue("i", TRUE);

  0005f	6a 00		 push	 0
  00061	68 00 00 00 00	 push	 OFFSET ??_C@_01KBJDNOO@i@
  00066	ff 15 00 00 00
	00		 call	 DWORD PTR __imp__Py_BuildValue
  0006c	83 c4 08	 add	 esp, 8
  0006f	5e		 pop	 esi

; 346  : 			break;
; 347  : 	}
; 348  : 	
; 349  : 	return Py_BuildValue("i", FALSE);
; 350  : }

  00070	8b e5		 mov	 esp, ebp
  00072	5d		 pop	 ebp
  00073	c3		 ret	 0
$LN6@itemIsRefi:

; 340  : 		return Py_BuildValue("i", FALSE);
; 341  : 	
; 342  : 	switch (pItemData->GetSubType())

  00074	8b ce		 mov	 ecx, esi
  00076	e8 00 00 00 00	 call	 ?GetSubType@CItemData@@QBEEXZ ; CItemData::GetSubType
  0007b	0f b6 c0	 movzx	 eax, al
  0007e	83 e8 02	 sub	 eax, 2
  00081	75 dc		 jne	 SHORT $LN11@itemIsRefi

; 343  : 	{
; 344  : 		case CItemData::USE_TUNING:
; 345  : 			return Py_BuildValue("i", TRUE);

  00083	6a 01		 push	 1
  00085	68 00 00 00 00	 push	 OFFSET ??_C@_01KBJDNOO@i@
  0008a	ff 15 00 00 00
	00		 call	 DWORD PTR __imp__Py_BuildValue
  00090	83 c4 08	 add	 esp, 8
  00093	5e		 pop	 esi

; 346  : 			break;
; 347  : 	}
; 348  : 	
; 349  : 	return Py_BuildValue("i", FALSE);
; 350  : }

  00094	8b e5		 mov	 esp, ebp
  00096	5d		 pop	 ebp
  00097	c3		 ret	 0
?itemIsRefineScroll@@YAPAU_object@@PAU1@0@Z ENDP	; itemIsRefineScroll
_TEXT	ENDS
; Function compile flags: /Ogtp
; File E:\Metin2_server\SolWayneSF v6\ClientVS22\source\UserInterface\PythonItemModule.cpp
;	COMDAT ?itemIsDetachScroll@@YAPAU_object@@PAU1@0@Z
_TEXT	SEGMENT
_iItemIndex$ = -4					; size = 4
_poSelf$ = 8						; size = 4
_poArgs$ = 12						; size = 4
?itemIsDetachScroll@@YAPAU_object@@PAU1@0@Z PROC	; itemIsDetachScroll, COMDAT

; 353  : {

  00000	55		 push	 ebp
  00001	8b ec		 mov	 ebp, esp
  00003	51		 push	 ecx

; 354  : 	int iItemIndex;
; 355  : 	if (!PyTuple_GetInteger(poArgs, 0, &iItemIndex))

  00004	8d 45 fc	 lea	 eax, DWORD PTR _iItemIndex$[ebp]
  00007	50		 push	 eax
  00008	6a 00		 push	 0
  0000a	ff 75 0c	 push	 DWORD PTR _poArgs$[ebp]
  0000d	e8 00 00 00 00	 call	 ?PyTuple_GetInteger@@YA_NPAU_object@@HPAH@Z ; PyTuple_GetInteger
  00012	83 c4 0c	 add	 esp, 12			; 0000000cH
  00015	84 c0		 test	 al, al
  00017	75 09		 jne	 SHORT $LN2@itemIsDeta

; 356  : 		return Py_BadArgument();

  00019	e8 00 00 00 00	 call	 ?Py_BadArgument@@YAPAU_object@@XZ ; Py_BadArgument

; 372  : }

  0001e	8b e5		 mov	 esp, ebp
  00020	5d		 pop	 ebp
  00021	c3		 ret	 0
$LN2@itemIsDeta:

; 357  : 
; 358  : 	CItemManager::Instance().SelectItemData(iItemIndex);

  00022	8b 0d 00 00 00
	00		 mov	 ecx, DWORD PTR ?ms_singleton@?$CSingleton@VCItemManager@@@@0PAVCItemManager@@A ; CSingleton<CItemManager>::ms_singleton
  00028	57		 push	 edi
  00029	ff 75 fc	 push	 DWORD PTR _iItemIndex$[ebp]
  0002c	e8 00 00 00 00	 call	 ?SelectItemData@CItemManager@@QAEHK@Z ; CItemManager::SelectItemData

; 359  : 	CItemData * pItemData = CItemManager::Instance().GetSelectedItemDataPointer();

  00031	8b 0d 00 00 00
	00		 mov	 ecx, DWORD PTR ?ms_singleton@?$CSingleton@VCItemManager@@@@0PAVCItemManager@@A ; CSingleton<CItemManager>::ms_singleton
  00037	e8 00 00 00 00	 call	 ?GetSelectedItemDataPointer@CItemManager@@QAEPAVCItemData@@XZ ; CItemManager::GetSelectedItemDataPointer
  0003c	8b f8		 mov	 edi, eax

; 360  : 	if (!pItemData)

  0003e	85 ff		 test	 edi, edi
  00040	75 12		 jne	 SHORT $LN3@itemIsDeta

; 361  : 		return Py_BuildException("Can't find select item data");

  00042	68 00 00 00 00	 push	 OFFSET ??_C@_0BM@KPLEGEEH@Can?8t?5find?5select?5item?5data@
  00047	e8 00 00 00 00	 call	 ?Py_BuildException@@YAPAU_object@@PBDZZ ; Py_BuildException
  0004c	83 c4 04	 add	 esp, 4
  0004f	5f		 pop	 edi

; 372  : }

  00050	8b e5		 mov	 esp, ebp
  00052	5d		 pop	 ebp
  00053	c3		 ret	 0
$LN3@itemIsDeta:
  00054	56		 push	 esi

; 362  : 
; 363  : 	int iType = pItemData->GetType();

  00055	8b cf		 mov	 ecx, edi
  00057	e8 00 00 00 00	 call	 ?GetType@CItemData@@QBEEXZ ; CItemData::GetType

; 364  : 	int iSubType = pItemData->GetSubType();

  0005c	8b cf		 mov	 ecx, edi
  0005e	0f b6 f0	 movzx	 esi, al
  00061	e8 00 00 00 00	 call	 ?GetSubType@CItemData@@QBEEXZ ; CItemData::GetSubType

; 365  : 	if (iType == CItemData::ITEM_TYPE_USE)

  00066	83 fe 03	 cmp	 esi, 3
  00069	0f b6 c0	 movzx	 eax, al
  0006c	5e		 pop	 esi
  0006d	75 1a		 jne	 SHORT $LN5@itemIsDeta

; 366  : 	if (iSubType == CItemData::USE_DETACHMENT)

  0006f	83 f8 0e	 cmp	 eax, 14			; 0000000eH
  00072	75 15		 jne	 SHORT $LN5@itemIsDeta

; 367  : 	{
; 368  : 		return Py_BuildValue("i", TRUE);

  00074	6a 01		 push	 1

; 369  : 	}
; 370  : 
; 371  : 	return Py_BuildValue("i", FALSE);

  00076	68 00 00 00 00	 push	 OFFSET ??_C@_01KBJDNOO@i@
  0007b	ff 15 00 00 00
	00		 call	 DWORD PTR __imp__Py_BuildValue
  00081	83 c4 08	 add	 esp, 8
  00084	5f		 pop	 edi

; 372  : }

  00085	8b e5		 mov	 esp, ebp
  00087	5d		 pop	 ebp
  00088	c3		 ret	 0
$LN5@itemIsDeta:

; 369  : 	}
; 370  : 
; 371  : 	return Py_BuildValue("i", FALSE);

  00089	6a 00		 push	 0
  0008b	68 00 00 00 00	 push	 OFFSET ??_C@_01KBJDNOO@i@
  00090	ff 15 00 00 00
	00		 call	 DWORD PTR __imp__Py_BuildValue
  00096	83 c4 08	 add	 esp, 8
  00099	5f		 pop	 edi

; 372  : }

  0009a	8b e5		 mov	 esp, ebp
  0009c	5d		 pop	 ebp
  0009d	c3		 ret	 0
?itemIsDetachScroll@@YAPAU_object@@PAU1@0@Z ENDP	; itemIsDetachScroll
_TEXT	ENDS
; Function compile flags: /Ogtp
; File E:\Metin2_server\SolWayneSF v6\ClientVS22\source\UserInterface\PythonItemModule.cpp
;	COMDAT ?itemCanAddToQuickSlotItem@@YAPAU_object@@PAU1@0@Z
_TEXT	SEGMENT
_iItemIndex$ = -4					; size = 4
_poSelf$ = 8						; size = 4
_poArgs$ = 12						; size = 4
?itemCanAddToQuickSlotItem@@YAPAU_object@@PAU1@0@Z PROC	; itemCanAddToQuickSlotItem, COMDAT

; 375  : {

  00000	55		 push	 ebp
  00001	8b ec		 mov	 ebp, esp
  00003	51		 push	 ecx

; 376  : 	int iItemIndex;
; 377  : 	if (!PyTuple_GetInteger(poArgs, 0, &iItemIndex))

  00004	8d 45 fc	 lea	 eax, DWORD PTR _iItemIndex$[ebp]
  00007	50		 push	 eax
  00008	6a 00		 push	 0
  0000a	ff 75 0c	 push	 DWORD PTR _poArgs$[ebp]
  0000d	e8 00 00 00 00	 call	 ?PyTuple_GetInteger@@YA_NPAU_object@@HPAH@Z ; PyTuple_GetInteger
  00012	83 c4 0c	 add	 esp, 12			; 0000000cH
  00015	84 c0		 test	 al, al
  00017	75 09		 jne	 SHORT $LN2@itemCanAdd

; 378  : 		return Py_BadArgument();

  00019	e8 00 00 00 00	 call	 ?Py_BadArgument@@YAPAU_object@@XZ ; Py_BadArgument

; 391  : }

  0001e	8b e5		 mov	 esp, ebp
  00020	5d		 pop	 ebp
  00021	c3		 ret	 0
$LN2@itemCanAdd:

; 379  : 
; 380  : 	CItemManager::Instance().SelectItemData(iItemIndex);

  00022	8b 0d 00 00 00
	00		 mov	 ecx, DWORD PTR ?ms_singleton@?$CSingleton@VCItemManager@@@@0PAVCItemManager@@A ; CSingleton<CItemManager>::ms_singleton
  00028	56		 push	 esi
  00029	ff 75 fc	 push	 DWORD PTR _iItemIndex$[ebp]
  0002c	e8 00 00 00 00	 call	 ?SelectItemData@CItemManager@@QAEHK@Z ; CItemManager::SelectItemData

; 381  : 	CItemData * pItemData = CItemManager::Instance().GetSelectedItemDataPointer();

  00031	8b 0d 00 00 00
	00		 mov	 ecx, DWORD PTR ?ms_singleton@?$CSingleton@VCItemManager@@@@0PAVCItemManager@@A ; CSingleton<CItemManager>::ms_singleton
  00037	e8 00 00 00 00	 call	 ?GetSelectedItemDataPointer@CItemManager@@QAEPAVCItemData@@XZ ; CItemManager::GetSelectedItemDataPointer
  0003c	8b f0		 mov	 esi, eax

; 382  : 	if (!pItemData)

  0003e	85 f6		 test	 esi, esi
  00040	75 12		 jne	 SHORT $LN3@itemCanAdd

; 383  : 		return Py_BuildException("Can't find select item data");

  00042	68 00 00 00 00	 push	 OFFSET ??_C@_0BM@KPLEGEEH@Can?8t?5find?5select?5item?5data@
  00047	e8 00 00 00 00	 call	 ?Py_BuildException@@YAPAU_object@@PBDZZ ; Py_BuildException
  0004c	83 c4 04	 add	 esp, 4
  0004f	5e		 pop	 esi

; 391  : }

  00050	8b e5		 mov	 esp, ebp
  00052	5d		 pop	 ebp
  00053	c3		 ret	 0
$LN3@itemCanAdd:

; 384  : 
; 385  : 	if (CItemData::ITEM_TYPE_USE == pItemData->GetType() || CItemData::ITEM_TYPE_QUEST == pItemData->GetType())

  00054	8b ce		 mov	 ecx, esi
  00056	e8 00 00 00 00	 call	 ?GetType@CItemData@@QBEEXZ ; CItemData::GetType
  0005b	3c 03		 cmp	 al, 3
  0005d	74 20		 je	 SHORT $LN5@itemCanAdd
  0005f	8b ce		 mov	 ecx, esi
  00061	e8 00 00 00 00	 call	 ?GetType@CItemData@@QBEEXZ ; CItemData::GetType
  00066	3c 12		 cmp	 al, 18			; 00000012H
  00068	74 15		 je	 SHORT $LN5@itemCanAdd

; 388  : 	}
; 389  : 
; 390  : 	return Py_BuildValue("i", FALSE);

  0006a	6a 00		 push	 0
  0006c	68 00 00 00 00	 push	 OFFSET ??_C@_01KBJDNOO@i@
  00071	ff 15 00 00 00
	00		 call	 DWORD PTR __imp__Py_BuildValue
  00077	83 c4 08	 add	 esp, 8
  0007a	5e		 pop	 esi

; 391  : }

  0007b	8b e5		 mov	 esp, ebp
  0007d	5d		 pop	 ebp
  0007e	c3		 ret	 0
$LN5@itemCanAdd:

; 386  : 	{
; 387  : 		return Py_BuildValue("i", TRUE);

  0007f	6a 01		 push	 1
  00081	68 00 00 00 00	 push	 OFFSET ??_C@_01KBJDNOO@i@
  00086	ff 15 00 00 00
	00		 call	 DWORD PTR __imp__Py_BuildValue
  0008c	83 c4 08	 add	 esp, 8
  0008f	5e		 pop	 esi

; 391  : }

  00090	8b e5		 mov	 esp, ebp
  00092	5d		 pop	 ebp
  00093	c3		 ret	 0
?itemCanAddToQuickSlotItem@@YAPAU_object@@PAU1@0@Z ENDP	; itemCanAddToQuickSlotItem
_TEXT	ENDS
; Function compile flags: /Ogtp
; File E:\Metin2_server\SolWayneSF v6\ClientVS22\source\UserInterface\PythonItemModule.cpp
;	COMDAT ?itemIsKey@@YAPAU_object@@PAU1@0@Z
_TEXT	SEGMENT
_iItemIndex$ = -4					; size = 4
_poSelf$ = 8						; size = 4
_poArgs$ = 12						; size = 4
?itemIsKey@@YAPAU_object@@PAU1@0@Z PROC			; itemIsKey, COMDAT

; 394  : {

  00000	55		 push	 ebp
  00001	8b ec		 mov	 ebp, esp
  00003	51		 push	 ecx

; 395  : 	int iItemIndex;
; 396  : 	if (!PyTuple_GetInteger(poArgs, 0, &iItemIndex))

  00004	8d 45 fc	 lea	 eax, DWORD PTR _iItemIndex$[ebp]
  00007	50		 push	 eax
  00008	6a 00		 push	 0
  0000a	ff 75 0c	 push	 DWORD PTR _poArgs$[ebp]
  0000d	e8 00 00 00 00	 call	 ?PyTuple_GetInteger@@YA_NPAU_object@@HPAH@Z ; PyTuple_GetInteger
  00012	83 c4 0c	 add	 esp, 12			; 0000000cH
  00015	84 c0		 test	 al, al
  00017	75 09		 jne	 SHORT $LN2@itemIsKey

; 397  : 		return Py_BadArgument();

  00019	e8 00 00 00 00	 call	 ?Py_BadArgument@@YAPAU_object@@XZ ; Py_BadArgument

; 410  : }

  0001e	8b e5		 mov	 esp, ebp
  00020	5d		 pop	 ebp
  00021	c3		 ret	 0
$LN2@itemIsKey:

; 398  : 
; 399  : 	CItemManager::Instance().SelectItemData(iItemIndex);

  00022	ff 75 fc	 push	 DWORD PTR _iItemIndex$[ebp]
  00025	8b 0d 00 00 00
	00		 mov	 ecx, DWORD PTR ?ms_singleton@?$CSingleton@VCItemManager@@@@0PAVCItemManager@@A ; CSingleton<CItemManager>::ms_singleton
  0002b	e8 00 00 00 00	 call	 ?SelectItemData@CItemManager@@QAEHK@Z ; CItemManager::SelectItemData

; 400  : 	CItemData * pItemData = CItemManager::Instance().GetSelectedItemDataPointer();

  00030	8b 0d 00 00 00
	00		 mov	 ecx, DWORD PTR ?ms_singleton@?$CSingleton@VCItemManager@@@@0PAVCItemManager@@A ; CSingleton<CItemManager>::ms_singleton
  00036	e8 00 00 00 00	 call	 ?GetSelectedItemDataPointer@CItemManager@@QAEPAVCItemData@@XZ ; CItemManager::GetSelectedItemDataPointer

; 401  : 	if (!pItemData)

  0003b	85 c0		 test	 eax, eax
  0003d	75 11		 jne	 SHORT $LN3@itemIsKey

; 402  : 		return Py_BuildException("Can't find select item data");

  0003f	68 00 00 00 00	 push	 OFFSET ??_C@_0BM@KPLEGEEH@Can?8t?5find?5select?5item?5data@
  00044	e8 00 00 00 00	 call	 ?Py_BuildException@@YAPAU_object@@PBDZZ ; Py_BuildException
  00049	83 c4 04	 add	 esp, 4

; 410  : }

  0004c	8b e5		 mov	 esp, ebp
  0004e	5d		 pop	 ebp
  0004f	c3		 ret	 0
$LN3@itemIsKey:

; 403  : 
; 404  : 	if (CItemData::ITEM_TYPE_TREASURE_KEY == pItemData->GetType())

  00050	8b c8		 mov	 ecx, eax
  00052	e8 00 00 00 00	 call	 ?GetType@CItemData@@QBEEXZ ; CItemData::GetType
  00057	3c 15		 cmp	 al, 21			; 00000015H
  00059	75 14		 jne	 SHORT $LN4@itemIsKey

; 405  : 	{
; 406  : 		return Py_BuildValue("i", TRUE);

  0005b	6a 01		 push	 1

; 410  : }

  0005d	68 00 00 00 00	 push	 OFFSET ??_C@_01KBJDNOO@i@
  00062	ff 15 00 00 00
	00		 call	 DWORD PTR __imp__Py_BuildValue
  00068	83 c4 08	 add	 esp, 8
  0006b	8b e5		 mov	 esp, ebp
  0006d	5d		 pop	 ebp
  0006e	c3		 ret	 0
$LN4@itemIsKey:

; 407  : 	}
; 408  : 
; 409  : 	return Py_BuildValue("i", FALSE);

  0006f	6a 00		 push	 0

; 410  : }

  00071	68 00 00 00 00	 push	 OFFSET ??_C@_01KBJDNOO@i@
  00076	ff 15 00 00 00
	00		 call	 DWORD PTR __imp__Py_BuildValue
  0007c	83 c4 08	 add	 esp, 8
  0007f	8b e5		 mov	 esp, ebp
  00081	5d		 pop	 ebp
  00082	c3		 ret	 0
?itemIsKey@@YAPAU_object@@PAU1@0@Z ENDP			; itemIsKey
_TEXT	ENDS
; Function compile flags: /Ogtp
; File E:\Metin2_server\SolWayneSF v6\ClientVS22\source\UserInterface\PythonItemModule.cpp
;	COMDAT ?itemIsMetin@@YAPAU_object@@PAU1@0@Z
_TEXT	SEGMENT
_iItemIndex$ = -4					; size = 4
_poSelf$ = 8						; size = 4
_poArgs$ = 12						; size = 4
?itemIsMetin@@YAPAU_object@@PAU1@0@Z PROC		; itemIsMetin, COMDAT

; 413  : {

  00000	55		 push	 ebp
  00001	8b ec		 mov	 ebp, esp
  00003	51		 push	 ecx

; 414  : 	int iItemIndex;
; 415  : 	if (!PyTuple_GetInteger(poArgs, 0, &iItemIndex))

  00004	8d 45 fc	 lea	 eax, DWORD PTR _iItemIndex$[ebp]
  00007	50		 push	 eax
  00008	6a 00		 push	 0
  0000a	ff 75 0c	 push	 DWORD PTR _poArgs$[ebp]
  0000d	e8 00 00 00 00	 call	 ?PyTuple_GetInteger@@YA_NPAU_object@@HPAH@Z ; PyTuple_GetInteger
  00012	83 c4 0c	 add	 esp, 12			; 0000000cH
  00015	84 c0		 test	 al, al
  00017	75 09		 jne	 SHORT $LN2@itemIsMeti

; 416  : 		return Py_BadArgument();

  00019	e8 00 00 00 00	 call	 ?Py_BadArgument@@YAPAU_object@@XZ ; Py_BadArgument

; 429  : }

  0001e	8b e5		 mov	 esp, ebp
  00020	5d		 pop	 ebp
  00021	c3		 ret	 0
$LN2@itemIsMeti:

; 417  : 
; 418  : 	CItemManager::Instance().SelectItemData(iItemIndex);

  00022	ff 75 fc	 push	 DWORD PTR _iItemIndex$[ebp]
  00025	8b 0d 00 00 00
	00		 mov	 ecx, DWORD PTR ?ms_singleton@?$CSingleton@VCItemManager@@@@0PAVCItemManager@@A ; CSingleton<CItemManager>::ms_singleton
  0002b	e8 00 00 00 00	 call	 ?SelectItemData@CItemManager@@QAEHK@Z ; CItemManager::SelectItemData

; 419  : 	CItemData * pItemData = CItemManager::Instance().GetSelectedItemDataPointer();

  00030	8b 0d 00 00 00
	00		 mov	 ecx, DWORD PTR ?ms_singleton@?$CSingleton@VCItemManager@@@@0PAVCItemManager@@A ; CSingleton<CItemManager>::ms_singleton
  00036	e8 00 00 00 00	 call	 ?GetSelectedItemDataPointer@CItemManager@@QAEPAVCItemData@@XZ ; CItemManager::GetSelectedItemDataPointer

; 420  : 	if (!pItemData)

  0003b	85 c0		 test	 eax, eax
  0003d	75 11		 jne	 SHORT $LN3@itemIsMeti

; 421  : 		return Py_BuildException("Can't find select item data");

  0003f	68 00 00 00 00	 push	 OFFSET ??_C@_0BM@KPLEGEEH@Can?8t?5find?5select?5item?5data@
  00044	e8 00 00 00 00	 call	 ?Py_BuildException@@YAPAU_object@@PBDZZ ; Py_BuildException
  00049	83 c4 04	 add	 esp, 4

; 429  : }

  0004c	8b e5		 mov	 esp, ebp
  0004e	5d		 pop	 ebp
  0004f	c3		 ret	 0
$LN3@itemIsMeti:

; 422  : 
; 423  : 	if (CItemData::ITEM_TYPE_METIN == pItemData->GetType())

  00050	8b c8		 mov	 ecx, eax
  00052	e8 00 00 00 00	 call	 ?GetType@CItemData@@QBEEXZ ; CItemData::GetType
  00057	3c 0a		 cmp	 al, 10			; 0000000aH
  00059	75 14		 jne	 SHORT $LN4@itemIsMeti

; 424  : 	{
; 425  : 		return Py_BuildValue("i", TRUE);

  0005b	6a 01		 push	 1

; 429  : }

  0005d	68 00 00 00 00	 push	 OFFSET ??_C@_01KBJDNOO@i@
  00062	ff 15 00 00 00
	00		 call	 DWORD PTR __imp__Py_BuildValue
  00068	83 c4 08	 add	 esp, 8
  0006b	8b e5		 mov	 esp, ebp
  0006d	5d		 pop	 ebp
  0006e	c3		 ret	 0
$LN4@itemIsMeti:

; 426  : 	}
; 427  : 
; 428  : 	return Py_BuildValue("i", FALSE);

  0006f	6a 00		 push	 0

; 429  : }

  00071	68 00 00 00 00	 push	 OFFSET ??_C@_01KBJDNOO@i@
  00076	ff 15 00 00 00
	00		 call	 DWORD PTR __imp__Py_BuildValue
  0007c	83 c4 08	 add	 esp, 8
  0007f	8b e5		 mov	 esp, ebp
  00081	5d		 pop	 ebp
  00082	c3		 ret	 0
?itemIsMetin@@YAPAU_object@@PAU1@0@Z ENDP		; itemIsMetin
_TEXT	ENDS
; Function compile flags: /Ogtp
; File E:\Metin2_server\SolWayneSF v6\ClientVS22\source\UserInterface\PythonItemModule.cpp
;	COMDAT ?itemRender@@YAPAU_object@@PAU1@0@Z
_TEXT	SEGMENT
_poSelf$ = 8						; size = 4
_poArgs$ = 12						; size = 4
?itemRender@@YAPAU_object@@PAU1@0@Z PROC		; itemRender, COMDAT

; 433  : 	CPythonItem::Instance().Render();

  00000	8b 0d 00 00 00
	00		 mov	 ecx, DWORD PTR ?ms_singleton@?$CSingleton@VCPythonItem@@@@0PAVCPythonItem@@A ; CSingleton<CPythonItem>::ms_singleton
  00006	e8 00 00 00 00	 call	 ?Render@CPythonItem@@QAEXXZ ; CPythonItem::Render

; 434  : 	return Py_BuildNone();

  0000b	e9 00 00 00 00	 jmp	 ?Py_BuildNone@@YAPAU_object@@XZ ; Py_BuildNone
?itemRender@@YAPAU_object@@PAU1@0@Z ENDP		; itemRender
_TEXT	ENDS
; Function compile flags: /Ogtp
; File E:\Metin2_server\SolWayneSF v6\ClientVS22\source\UserInterface\PythonItemModule.cpp
;	COMDAT ?itemUpdate@@YAPAU_object@@PAU1@0@Z
_TEXT	SEGMENT
_ptMouse$ = -8						; size = 8
_poSelf$ = 8						; size = 4
_poArgs$ = 12						; size = 4
?itemUpdate@@YAPAU_object@@PAU1@0@Z PROC		; itemUpdate, COMDAT

; 438  : {

  00000	55		 push	 ebp
  00001	8b ec		 mov	 ebp, esp
  00003	83 e4 f8	 and	 esp, -8			; fffffff8H

; 439  : 	IAbstractApplication& rkApp=IAbstractApplication::GetSingleton();

  00006	8b 0d 00 00 00
	00		 mov	 ecx, DWORD PTR ?ms_singleton@?$TAbstractSingleton@VIAbstractApplication@@@@0PAVIAbstractApplication@@A ; TAbstractSingleton<IAbstractApplication>::ms_singleton

; 440  : 
; 441  : 	POINT ptMouse;
; 442  : 	rkApp.GetMousePosition(&ptMouse);	

  0000c	8d 54 24 f8	 lea	 edx, DWORD PTR _ptMouse$[esp]
  00010	83 ec 08	 sub	 esp, 8
  00013	8b 01		 mov	 eax, DWORD PTR [ecx]
  00015	52		 push	 edx
  00016	ff 50 04	 call	 DWORD PTR [eax+4]

; 443  : 
; 444  : 	CPythonItem::Instance().Update(ptMouse);

  00019	8b 0d 00 00 00
	00		 mov	 ecx, DWORD PTR ?ms_singleton@?$CSingleton@VCPythonItem@@@@0PAVCPythonItem@@A ; CSingleton<CPythonItem>::ms_singleton
  0001f	8d 04 24	 lea	 eax, DWORD PTR _ptMouse$[esp+8]
  00022	50		 push	 eax
  00023	e8 00 00 00 00	 call	 ?Update@CPythonItem@@QAEXABUtagPOINT@@@Z ; CPythonItem::Update

; 445  : 	return Py_BuildNone();

  00028	e8 00 00 00 00	 call	 ?Py_BuildNone@@YAPAU_object@@XZ ; Py_BuildNone

; 446  : }

  0002d	8b e5		 mov	 esp, ebp
  0002f	5d		 pop	 ebp
  00030	c3		 ret	 0
?itemUpdate@@YAPAU_object@@PAU1@0@Z ENDP		; itemUpdate
_TEXT	ENDS
; Function compile flags: /Ogtp
; File E:\Metin2_server\SolWayneSF v6\ClientVS22\source\UserInterface\PythonItemModule.cpp
;	COMDAT ?itemCreateItem@@YAPAU_object@@PAU1@0@Z
_TEXT	SEGMENT
_x$ = -24						; size = 4
_iVirtualID$ = -20					; size = 4
_iVirtualNumber$ = -16					; size = 4
_y$ = -12						; size = 4
_z$ = -8						; size = 4
_bDrop$ = -4						; size = 1
_poSelf$ = 8						; size = 4
_poArgs$ = 12						; size = 4
?itemCreateItem@@YAPAU_object@@PAU1@0@Z PROC		; itemCreateItem, COMDAT

; 449  : {

  00000	55		 push	 ebp
  00001	8b ec		 mov	 ebp, esp
  00003	83 ec 18	 sub	 esp, 24			; 00000018H

; 450  : 	int iVirtualID;
; 451  : 	if (!PyTuple_GetInteger(poArgs, 0, &iVirtualID))

  00006	8d 45 ec	 lea	 eax, DWORD PTR _iVirtualID$[ebp]
  00009	56		 push	 esi
  0000a	8b 75 0c	 mov	 esi, DWORD PTR _poArgs$[ebp]
  0000d	50		 push	 eax
  0000e	6a 00		 push	 0
  00010	56		 push	 esi
  00011	e8 00 00 00 00	 call	 ?PyTuple_GetInteger@@YA_NPAU_object@@HPAH@Z ; PyTuple_GetInteger
  00016	83 c4 0c	 add	 esp, 12			; 0000000cH
  00019	84 c0		 test	 al, al
  0001b	75 0a		 jne	 SHORT $LN2@itemCreate
$LN8@itemCreate:

; 473  : }

  0001d	e8 00 00 00 00	 call	 ?Py_BadArgument@@YAPAU_object@@XZ ; Py_BadArgument
  00022	5e		 pop	 esi
  00023	8b e5		 mov	 esp, ebp
  00025	5d		 pop	 ebp
  00026	c3		 ret	 0
$LN2@itemCreate:

; 452  : 		return Py_BadArgument();
; 453  : 	int iVirtualNumber;
; 454  : 	if (!PyTuple_GetInteger(poArgs, 1, &iVirtualNumber))

  00027	8d 45 f0	 lea	 eax, DWORD PTR _iVirtualNumber$[ebp]
  0002a	50		 push	 eax
  0002b	6a 01		 push	 1
  0002d	56		 push	 esi
  0002e	e8 00 00 00 00	 call	 ?PyTuple_GetInteger@@YA_NPAU_object@@HPAH@Z ; PyTuple_GetInteger
  00033	83 c4 0c	 add	 esp, 12			; 0000000cH
  00036	84 c0		 test	 al, al
  00038	74 e3		 je	 SHORT $LN8@itemCreate

; 455  : 		return Py_BadArgument();
; 456  : 
; 457  : 	float x;
; 458  : 	if (!PyTuple_GetFloat(poArgs, 2, &x))

  0003a	8d 45 e8	 lea	 eax, DWORD PTR _x$[ebp]
  0003d	50		 push	 eax
  0003e	6a 02		 push	 2
  00040	56		 push	 esi
  00041	e8 00 00 00 00	 call	 ?PyTuple_GetFloat@@YA_NPAU_object@@HPAM@Z ; PyTuple_GetFloat
  00046	83 c4 0c	 add	 esp, 12			; 0000000cH
  00049	84 c0		 test	 al, al
  0004b	74 d0		 je	 SHORT $LN8@itemCreate

; 459  : 		return Py_BadArgument();
; 460  : 	float y;
; 461  : 	if (!PyTuple_GetFloat(poArgs, 3, &y))

  0004d	8d 45 f4	 lea	 eax, DWORD PTR _y$[ebp]
  00050	50		 push	 eax
  00051	6a 03		 push	 3
  00053	56		 push	 esi
  00054	e8 00 00 00 00	 call	 ?PyTuple_GetFloat@@YA_NPAU_object@@HPAM@Z ; PyTuple_GetFloat
  00059	83 c4 0c	 add	 esp, 12			; 0000000cH
  0005c	84 c0		 test	 al, al
  0005e	74 bd		 je	 SHORT $LN8@itemCreate

; 462  : 		return Py_BadArgument();
; 463  : 	float z;
; 464  : 	if (!PyTuple_GetFloat(poArgs, 4, &z))

  00060	8d 45 f8	 lea	 eax, DWORD PTR _z$[ebp]
  00063	50		 push	 eax
  00064	6a 04		 push	 4
  00066	56		 push	 esi
  00067	e8 00 00 00 00	 call	 ?PyTuple_GetFloat@@YA_NPAU_object@@HPAM@Z ; PyTuple_GetFloat
  0006c	83 c4 0c	 add	 esp, 12			; 0000000cH
  0006f	84 c0		 test	 al, al
  00071	74 aa		 je	 SHORT $LN8@itemCreate

; 465  : 		return Py_BadArgument();
; 466  : 	
; 467  : 	bool bDrop = true;
; 468  : 	PyTuple_GetBoolean(poArgs, 5, &bDrop);

  00073	8d 45 fc	 lea	 eax, DWORD PTR _bDrop$[ebp]
  00076	c6 45 fc 01	 mov	 BYTE PTR _bDrop$[ebp], 1
  0007a	50		 push	 eax
  0007b	6a 05		 push	 5
  0007d	56		 push	 esi
  0007e	e8 00 00 00 00	 call	 ?PyTuple_GetBoolean@@YA_NPAU_object@@HPA_N@Z ; PyTuple_GetBoolean

; 469  : 
; 470  : 	CPythonItem::Instance().CreateItem(iVirtualID, iVirtualNumber, x, y, z, bDrop);

  00083	f3 0f 10 45 f8	 movss	 xmm0, DWORD PTR _z$[ebp]
  00088	83 c4 0c	 add	 esp, 12			; 0000000cH
  0008b	f3 0f 10 5d e8	 movss	 xmm3, DWORD PTR _x$[ebp]
  00090	8b 0d 00 00 00
	00		 mov	 ecx, DWORD PTR ?ms_singleton@?$CSingleton@VCPythonItem@@@@0PAVCPythonItem@@A ; CSingleton<CPythonItem>::ms_singleton
  00096	ff 75 fc	 push	 DWORD PTR _bDrop$[ebp]
  00099	83 ec 08	 sub	 esp, 8
  0009c	f3 0f 11 44 24
	04		 movss	 DWORD PTR [esp+4], xmm0
  000a2	f3 0f 10 45 f4	 movss	 xmm0, DWORD PTR _y$[ebp]
  000a7	f3 0f 11 04 24	 movss	 DWORD PTR [esp], xmm0
  000ac	ff 75 f0	 push	 DWORD PTR _iVirtualNumber$[ebp]
  000af	ff 75 ec	 push	 DWORD PTR _iVirtualID$[ebp]
  000b2	e8 00 00 00 00	 call	 ?CreateItem@CPythonItem@@QAEXKKMMM_N@Z ; CPythonItem::CreateItem

; 471  : 
; 472  : 	return Py_BuildNone();

  000b7	e8 00 00 00 00	 call	 ?Py_BuildNone@@YAPAU_object@@XZ ; Py_BuildNone
  000bc	5e		 pop	 esi

; 473  : }

  000bd	8b e5		 mov	 esp, ebp
  000bf	5d		 pop	 ebp
  000c0	c3		 ret	 0
?itemCreateItem@@YAPAU_object@@PAU1@0@Z ENDP		; itemCreateItem
_TEXT	ENDS
; Function compile flags: /Ogtp
; File E:\Metin2_server\SolWayneSF v6\ClientVS22\source\UserInterface\PythonItemModule.cpp
;	COMDAT ?itemDeleteItem@@YAPAU_object@@PAU1@0@Z
_TEXT	SEGMENT
_iVirtualID$ = -4					; size = 4
_poSelf$ = 8						; size = 4
_poArgs$ = 12						; size = 4
?itemDeleteItem@@YAPAU_object@@PAU1@0@Z PROC		; itemDeleteItem, COMDAT

; 476  : {

  00000	55		 push	 ebp
  00001	8b ec		 mov	 ebp, esp
  00003	51		 push	 ecx

; 477  : 	int iVirtualID;
; 478  : 	if (!PyTuple_GetInteger(poArgs, 0, &iVirtualID))

  00004	8d 45 fc	 lea	 eax, DWORD PTR _iVirtualID$[ebp]
  00007	50		 push	 eax
  00008	6a 00		 push	 0
  0000a	ff 75 0c	 push	 DWORD PTR _poArgs$[ebp]
  0000d	e8 00 00 00 00	 call	 ?PyTuple_GetInteger@@YA_NPAU_object@@HPAH@Z ; PyTuple_GetInteger
  00012	83 c4 0c	 add	 esp, 12			; 0000000cH
  00015	84 c0		 test	 al, al
  00017	75 09		 jne	 SHORT $LN2@itemDelete

; 479  : 		return Py_BadArgument();

  00019	e8 00 00 00 00	 call	 ?Py_BadArgument@@YAPAU_object@@XZ ; Py_BadArgument

; 483  : }

  0001e	8b e5		 mov	 esp, ebp
  00020	5d		 pop	 ebp
  00021	c3		 ret	 0
$LN2@itemDelete:

; 480  : 
; 481  : 	CPythonItem::Instance().DeleteItem(iVirtualID);

  00022	ff 75 fc	 push	 DWORD PTR _iVirtualID$[ebp]
  00025	8b 0d 00 00 00
	00		 mov	 ecx, DWORD PTR ?ms_singleton@?$CSingleton@VCPythonItem@@@@0PAVCPythonItem@@A ; CSingleton<CPythonItem>::ms_singleton
  0002b	e8 00 00 00 00	 call	 ?DeleteItem@CPythonItem@@QAEXK@Z ; CPythonItem::DeleteItem

; 482  : 	return Py_BuildNone();

  00030	e8 00 00 00 00	 call	 ?Py_BuildNone@@YAPAU_object@@XZ ; Py_BuildNone

; 483  : }

  00035	8b e5		 mov	 esp, ebp
  00037	5d		 pop	 ebp
  00038	c3		 ret	 0
?itemDeleteItem@@YAPAU_object@@PAU1@0@Z ENDP		; itemDeleteItem
_TEXT	ENDS
; Function compile flags: /Ogtp
; File E:\Metin2_server\SolWayneSF v6\ClientVS22\source\UserInterface\PythonItemModule.cpp
;	COMDAT ?itemPick@@YAPAU_object@@PAU1@0@Z
_TEXT	SEGMENT
_dwItemID$ = -4						; size = 4
_poSelf$ = 8						; size = 4
_poArgs$ = 12						; size = 4
?itemPick@@YAPAU_object@@PAU1@0@Z PROC			; itemPick, COMDAT

; 486  : {

  00000	55		 push	 ebp
  00001	8b ec		 mov	 ebp, esp
  00003	51		 push	 ecx

; 487  : 	DWORD dwItemID;
; 488  : 	if (CPythonItem::Instance().GetPickedItemID(&dwItemID))

  00004	8b 0d 00 00 00
	00		 mov	 ecx, DWORD PTR ?ms_singleton@?$CSingleton@VCPythonItem@@@@0PAVCPythonItem@@A ; CSingleton<CPythonItem>::ms_singleton
  0000a	8d 45 fc	 lea	 eax, DWORD PTR _dwItemID$[ebp]
  0000d	50		 push	 eax
  0000e	e8 00 00 00 00	 call	 ?GetPickedItemID@CPythonItem@@QAE_NPAK@Z ; CPythonItem::GetPickedItemID
  00013	84 c0		 test	 al, al
  00015	74 15		 je	 SHORT $LN2@itemPick

; 489  : 		return Py_BuildValue("i", dwItemID);

  00017	ff 75 fc	 push	 DWORD PTR _dwItemID$[ebp]

; 492  : }

  0001a	68 00 00 00 00	 push	 OFFSET ??_C@_01KBJDNOO@i@
  0001f	ff 15 00 00 00
	00		 call	 DWORD PTR __imp__Py_BuildValue
  00025	83 c4 08	 add	 esp, 8
  00028	8b e5		 mov	 esp, ebp
  0002a	5d		 pop	 ebp
  0002b	c3		 ret	 0
$LN2@itemPick:

; 490  : 	else
; 491  : 		return Py_BuildValue("i", -1);

  0002c	6a ff		 push	 -1

; 492  : }

  0002e	68 00 00 00 00	 push	 OFFSET ??_C@_01KBJDNOO@i@
  00033	ff 15 00 00 00
	00		 call	 DWORD PTR __imp__Py_BuildValue
  00039	83 c4 08	 add	 esp, 8
  0003c	8b e5		 mov	 esp, ebp
  0003e	5d		 pop	 ebp
  0003f	c3		 ret	 0
?itemPick@@YAPAU_object@@PAU1@0@Z ENDP			; itemPick
_TEXT	ENDS
; Function compile flags: /Ogtp
; File E:\Metin2_server\SolWayneSF v6\ClientVS22\source\UserInterface\PythonItemModule.cpp
;	COMDAT ?itemLoadItemTable@@YAPAU_object@@PAU1@0@Z
_TEXT	SEGMENT
_szFileName$ = -4					; size = 4
_poSelf$ = 8						; size = 4
_poArgs$ = 12						; size = 4
?itemLoadItemTable@@YAPAU_object@@PAU1@0@Z PROC		; itemLoadItemTable, COMDAT

; 495  : {

  00000	55		 push	 ebp
  00001	8b ec		 mov	 ebp, esp
  00003	51		 push	 ecx

; 496  : 	char * szFileName;
; 497  : 	if (!PyTuple_GetString(poArgs, 0, &szFileName))

  00004	8d 45 fc	 lea	 eax, DWORD PTR _szFileName$[ebp]
  00007	50		 push	 eax
  00008	6a 00		 push	 0
  0000a	ff 75 0c	 push	 DWORD PTR _poArgs$[ebp]
  0000d	e8 00 00 00 00	 call	 ?PyTuple_GetString@@YA_NPAU_object@@HPAPAD@Z ; PyTuple_GetString
  00012	83 c4 0c	 add	 esp, 12			; 0000000cH
  00015	84 c0		 test	 al, al
  00017	75 09		 jne	 SHORT $LN2@itemLoadIt

; 498  : 		return Py_BadArgument();

  00019	e8 00 00 00 00	 call	 ?Py_BadArgument@@YAPAU_object@@XZ ; Py_BadArgument

; 502  : }

  0001e	8b e5		 mov	 esp, ebp
  00020	5d		 pop	 ebp
  00021	c3		 ret	 0
$LN2@itemLoadIt:

; 499  : 
; 500  : 	CItemManager::Instance().LoadItemTable(szFileName);

  00022	ff 75 fc	 push	 DWORD PTR _szFileName$[ebp]
  00025	8b 0d 00 00 00
	00		 mov	 ecx, DWORD PTR ?ms_singleton@?$CSingleton@VCItemManager@@@@0PAVCItemManager@@A ; CSingleton<CItemManager>::ms_singleton
  0002b	e8 00 00 00 00	 call	 ?LoadItemTable@CItemManager@@QAE_NPBD@Z ; CItemManager::LoadItemTable

; 501  : 	return Py_BuildNone();

  00030	e8 00 00 00 00	 call	 ?Py_BuildNone@@YAPAU_object@@XZ ; Py_BuildNone

; 502  : }

  00035	8b e5		 mov	 esp, ebp
  00037	5d		 pop	 ebp
  00038	c3		 ret	 0
?itemLoadItemTable@@YAPAU_object@@PAU1@0@Z ENDP		; itemLoadItemTable
_TEXT	ENDS
; Function compile flags: /Ogtp
; File E:\Metin2_server\SolWayneSF v6\ClientVS22\source\UserInterface\PythonItemModule.cpp
;	COMDAT ?initItem@@YAXXZ
_TEXT	SEGMENT
?initItem@@YAXXZ PROC					; initItem, COMDAT

; 505  : {

  00000	56		 push	 esi
  00001	57		 push	 edi

; 506  : 	static PyMethodDef s_methods[] =
; 507  : 	{	
; 508  : 		{ "SetUseSoundFileName",			itemSetUseSoundFileName,				METH_VARARGS },
; 509  : 		{ "SetDropSoundFileName",			itemSetDropSoundFileName,				METH_VARARGS },
; 510  : 		{ "SelectItem",						itemSelectItem,							METH_VARARGS },
; 511  : 
; 512  : 		{ "GetItemName",					itemGetItemName,						METH_VARARGS },
; 513  : 		{ "GetItemDescription",				itemGetItemDescription,					METH_VARARGS },
; 514  : 		{ "GetItemSummary",					itemGetItemSummary,						METH_VARARGS },
; 515  : 		{ "GetIconImage",					itemGetIconImage,						METH_VARARGS },
; 516  : 		{ "GetIconImageFileName",			itemGetIconImageFileName,				METH_VARARGS },
; 517  : 		{ "GetItemSize",					itemGetItemSize,						METH_VARARGS },
; 518  : 		{ "GetItemType",					itemGetItemType,						METH_VARARGS },
; 519  : 		{ "GetItemSubType",					itemGetItemSubType,						METH_VARARGS },
; 520  : 		{ "GetIBuyItemPrice",				itemGetIBuyItemPrice,					METH_VARARGS },
; 521  : 		{ "GetISellItemPrice",				itemGetISellItemPrice,					METH_VARARGS },
; 522  : 		{ "IsAntiFlag",						itemIsAntiFlag,							METH_VARARGS },
; 523  : 		{ "IsFlag",							itemIsFlag,								METH_VARARGS },
; 524  : 		{ "IsWearableFlag",					itemIsWearableFlag,						METH_VARARGS },
; 525  : 		{ "Is1GoldItem",					itemIs1GoldItem,						METH_VARARGS },
; 526  : 		{ "GetLimit",						itemGetLimit,							METH_VARARGS },
; 527  : 		{ "GetAffect",						itemGetAffect,							METH_VARARGS },
; 528  : 		{ "GetValue",						itemGetValue,							METH_VARARGS },
; 529  : 		{ "GetSocket",						itemGetSocket,							METH_VARARGS },
; 530  : 		{ "GetIconInstance",				itemGetIconInstance,					METH_VARARGS },
; 531  : 		{ "GetUseType",						itemGetUseType,							METH_VARARGS },
; 532  : 		{ "DeleteIconInstance",				itemDeleteIconInstance,					METH_VARARGS },
; 533  : 		{ "IsEquipmentVID",					itemIsEquipmentVID,						METH_VARARGS },		
; 534  : 		{ "IsRefineScroll",					itemIsRefineScroll,						METH_VARARGS },
; 535  : 		{ "IsDetachScroll",					itemIsDetachScroll,						METH_VARARGS },
; 536  : 		{ "IsKey",							itemIsKey,								METH_VARARGS },
; 537  : 		{ "IsMetin",						itemIsMetin,							METH_VARARGS },
; 538  : 		{ "CanAddToQuickSlotItem",			itemCanAddToQuickSlotItem,				METH_VARARGS },
; 539  : 
; 540  : 		{ "Update",							itemUpdate,								METH_VARARGS },
; 541  : 		{ "Render",							itemRender,								METH_VARARGS },
; 542  : 		{ "CreateItem",						itemCreateItem,							METH_VARARGS },
; 543  : 		{ "DeleteItem",						itemDeleteItem,							METH_VARARGS },
; 544  : 		{ "Pick",							itemPick,								METH_VARARGS },
; 545  : 
; 546  : 		{ "LoadItemTable",					itemLoadItemTable,						METH_VARARGS },
; 547  : 
; 548  : 		{ NULL,								NULL,									NULL		 },
; 549  : 	};
; 550  : 
; 551  : 	PyObject * poModule = Py_InitModule("item", s_methods);

  00002	68 f5 03 00 00	 push	 1013			; 000003f5H
  00007	6a 00		 push	 0
  00009	6a 00		 push	 0
  0000b	68 00 00 00 00	 push	 OFFSET ?s_methods@?1??initItem@@YAXXZ@4PAUPyMethodDef@@A
  00010	68 00 00 00 00	 push	 OFFSET ??_C@_04NHONDGDE@item@
  00015	ff 15 00 00 00
	00		 call	 DWORD PTR __imp__Py_InitModule4

; 552  : 
; 553  : 	PyModule_AddIntConstant(poModule, "USESOUND_ACCESSORY",			CPythonItem::USESOUND_ACCESSORY);

  0001b	8b 35 00 00 00
	00		 mov	 esi, DWORD PTR __imp__PyModule_AddIntConstant
  00021	8b f8		 mov	 edi, eax
  00023	6a 05		 push	 5
  00025	68 00 00 00 00	 push	 OFFSET ??_C@_0BD@MEKMBKPM@USESOUND_ACCESSORY@
  0002a	57		 push	 edi
  0002b	ff d6		 call	 esi

; 554  : 	PyModule_AddIntConstant(poModule, "USESOUND_ARMOR",				CPythonItem::USESOUND_ARMOR);

  0002d	6a 02		 push	 2
  0002f	68 00 00 00 00	 push	 OFFSET ??_C@_0P@ENGKPPPD@USESOUND_ARMOR@
  00034	57		 push	 edi
  00035	ff d6		 call	 esi

; 555  : 	PyModule_AddIntConstant(poModule, "USESOUND_BOW",				CPythonItem::USESOUND_BOW);

  00037	6a 04		 push	 4
  00039	68 00 00 00 00	 push	 OFFSET ??_C@_0N@MDIFIDON@USESOUND_BOW@
  0003e	57		 push	 edi
  0003f	ff d6		 call	 esi

; 556  : 	PyModule_AddIntConstant(poModule, "USESOUND_DEFAULT",			CPythonItem::USESOUND_DEFAULT);

  00041	6a 01		 push	 1
  00043	68 00 00 00 00	 push	 OFFSET ??_C@_0BB@BHHNCGFC@USESOUND_DEFAULT@
  00048	57		 push	 edi
  00049	ff d6		 call	 esi
  0004b	83 c4 44	 add	 esp, 68			; 00000044H

; 557  : 	PyModule_AddIntConstant(poModule, "USESOUND_WEAPON",			CPythonItem::USESOUND_WEAPON);

  0004e	6a 03		 push	 3
  00050	68 00 00 00 00	 push	 OFFSET ??_C@_0BA@IJKKKKOO@USESOUND_WEAPON@
  00055	57		 push	 edi
  00056	ff d6		 call	 esi

; 558  : 	PyModule_AddIntConstant(poModule, "USESOUND_POTION",			CPythonItem::USESOUND_POTION);

  00058	6a 06		 push	 6
  0005a	68 00 00 00 00	 push	 OFFSET ??_C@_0BA@GIIHLHOB@USESOUND_POTION@
  0005f	57		 push	 edi
  00060	ff d6		 call	 esi

; 559  : 	PyModule_AddIntConstant(poModule, "USESOUND_PORTAL",			CPythonItem::USESOUND_PORTAL);

  00062	6a 07		 push	 7
  00064	68 00 00 00 00	 push	 OFFSET ??_C@_0BA@HNBMICIL@USESOUND_PORTAL@
  00069	57		 push	 edi
  0006a	ff d6		 call	 esi

; 560  : 
; 561  : 	PyModule_AddIntConstant(poModule, "DROPSOUND_ACCESSORY",		CPythonItem::DROPSOUND_ACCESSORY);

  0006c	6a 04		 push	 4
  0006e	68 00 00 00 00	 push	 OFFSET ??_C@_0BE@PBPPNIPJ@DROPSOUND_ACCESSORY@
  00073	57		 push	 edi
  00074	ff d6		 call	 esi

; 562  : 	PyModule_AddIntConstant(poModule, "DROPSOUND_ARMOR",			CPythonItem::DROPSOUND_ARMOR);

  00076	6a 01		 push	 1
  00078	68 00 00 00 00	 push	 OFFSET ??_C@_0BA@PCCDLKKO@DROPSOUND_ARMOR@
  0007d	57		 push	 edi
  0007e	ff d6		 call	 esi

; 563  : 	PyModule_AddIntConstant(poModule, "DROPSOUND_BOW",				CPythonItem::DROPSOUND_BOW);

  00080	6a 03		 push	 3
  00082	68 00 00 00 00	 push	 OFFSET ??_C@_0O@OOJPAKOO@DROPSOUND_BOW@
  00087	57		 push	 edi
  00088	ff d6		 call	 esi
  0008a	83 c4 48	 add	 esp, 72			; 00000048H

; 564  : 	PyModule_AddIntConstant(poModule, "DROPSOUND_DEFAULT",			CPythonItem::DROPSOUND_DEFAULT);

  0008d	6a 00		 push	 0
  0008f	68 00 00 00 00	 push	 OFFSET ??_C@_0BC@BONOAPBN@DROPSOUND_DEFAULT@
  00094	57		 push	 edi
  00095	ff d6		 call	 esi

; 565  : 	PyModule_AddIntConstant(poModule, "DROPSOUND_WEAPON",			CPythonItem::DROPSOUND_WEAPON);

  00097	6a 02		 push	 2
  00099	68 00 00 00 00	 push	 OFFSET ??_C@_0BB@JMMPMOOC@DROPSOUND_WEAPON@
  0009e	57		 push	 edi
  0009f	ff d6		 call	 esi

; 566  : 
; 567  : 	PyModule_AddIntConstant(poModule, "EQUIPMENT_COUNT",			c_Equipment_Count);

  000a1	6a 0c		 push	 12			; 0000000cH
  000a3	68 00 00 00 00	 push	 OFFSET ??_C@_0BA@KJELJAII@EQUIPMENT_COUNT@
  000a8	57		 push	 edi
  000a9	ff d6		 call	 esi

; 568  : 	PyModule_AddIntConstant(poModule, "EQUIPMENT_HEAD",				c_Equipment_Head);

  000ab	68 b5 00 00 00	 push	 181			; 000000b5H
  000b0	68 00 00 00 00	 push	 OFFSET ??_C@_0P@GCJFHMFC@EQUIPMENT_HEAD@
  000b5	57		 push	 edi
  000b6	ff d6		 call	 esi

; 569  : 	PyModule_AddIntConstant(poModule, "EQUIPMENT_BODY",				c_Equipment_Body);

  000b8	68 b4 00 00 00	 push	 180			; 000000b4H
  000bd	68 00 00 00 00	 push	 OFFSET ??_C@_0P@LODPCKGA@EQUIPMENT_BODY@
  000c2	57		 push	 edi
  000c3	ff d6		 call	 esi

; 570  : 	PyModule_AddIntConstant(poModule, "EQUIPMENT_WEAPON",			c_Equipment_Weapon);

  000c5	68 b8 00 00 00	 push	 184			; 000000b8H
  000ca	68 00 00 00 00	 push	 OFFSET ??_C@_0BB@IKOPOEMN@EQUIPMENT_WEAPON@
  000cf	57		 push	 edi
  000d0	ff d6		 call	 esi
  000d2	83 c4 48	 add	 esp, 72			; 00000048H

; 571  : 	PyModule_AddIntConstant(poModule, "EQUIPMENT_WRIST",			c_Equipment_Wrist);

  000d5	68 b7 00 00 00	 push	 183			; 000000b7H
  000da	68 00 00 00 00	 push	 OFFSET ??_C@_0BA@KHENFLDC@EQUIPMENT_WRIST@
  000df	57		 push	 edi
  000e0	ff d6		 call	 esi

; 572  : 	PyModule_AddIntConstant(poModule, "EQUIPMENT_SHOES",			c_Equipment_Shoes);

  000e2	68 b6 00 00 00	 push	 182			; 000000b6H
  000e7	68 00 00 00 00	 push	 OFFSET ??_C@_0BA@GEANIANO@EQUIPMENT_SHOES@
  000ec	57		 push	 edi
  000ed	ff d6		 call	 esi

; 573  : 	PyModule_AddIntConstant(poModule, "EQUIPMENT_NECK",				c_Equipment_Neck);

  000ef	68 b9 00 00 00	 push	 185			; 000000b9H
  000f4	68 00 00 00 00	 push	 OFFSET ??_C@_0P@GJMJEBFD@EQUIPMENT_NECK@
  000f9	57		 push	 edi
  000fa	ff d6		 call	 esi

; 574  : 	PyModule_AddIntConstant(poModule, "EQUIPMENT_EAR",				c_Equipment_Ear);

  000fc	68 ba 00 00 00	 push	 186			; 000000baH
  00101	68 00 00 00 00	 push	 OFFSET ??_C@_0O@KNFMDJEG@EQUIPMENT_EAR@
  00106	57		 push	 edi
  00107	ff d6		 call	 esi

; 575  : 	PyModule_AddIntConstant(poModule, "EQUIPMENT_UNIQUE1",			c_Equipment_Unique1);

  00109	68 bb 00 00 00	 push	 187			; 000000bbH
  0010e	68 00 00 00 00	 push	 OFFSET ??_C@_0BC@IBOCPGBL@EQUIPMENT_UNIQUE1@
  00113	57		 push	 edi
  00114	ff d6		 call	 esi

; 576  : 	PyModule_AddIntConstant(poModule, "EQUIPMENT_UNIQUE2",			c_Equipment_Unique2);

  00116	68 bc 00 00 00	 push	 188			; 000000bcH
  0011b	68 00 00 00 00	 push	 OFFSET ??_C@_0BC@KKMPKFNI@EQUIPMENT_UNIQUE2@
  00120	57		 push	 edi
  00121	ff d6		 call	 esi
  00123	83 c4 48	 add	 esp, 72			; 00000048H

; 577  : 	PyModule_AddIntConstant(poModule, "EQUIPMENT_ARROW",			c_Equipment_Arrow);

  00126	68 bd 00 00 00	 push	 189			; 000000bdH
  0012b	68 00 00 00 00	 push	 OFFSET ??_C@_0BA@MLMLGDPN@EQUIPMENT_ARROW@
  00130	57		 push	 edi
  00131	ff d6		 call	 esi

; 578  : 
; 579  : #ifdef ENABLE_NEW_EQUIPMENT_SYSTEM
; 580  : 	PyModule_AddIntConstant(poModule, "EQUIPMENT_RING1",			c_Equipment_Ring1);

  00133	68 cb 00 00 00	 push	 203			; 000000cbH
  00138	68 00 00 00 00	 push	 OFFSET ??_C@_0BA@HOMCMAOF@EQUIPMENT_RING1@
  0013d	57		 push	 edi
  0013e	ff d6		 call	 esi

; 581  : 	PyModule_AddIntConstant(poModule, "EQUIPMENT_RING2",			c_Equipment_Ring2);

  00140	68 cc 00 00 00	 push	 204			; 000000ccH
  00145	68 00 00 00 00	 push	 OFFSET ??_C@_0BA@FFOPJDCG@EQUIPMENT_RING2@
  0014a	57		 push	 edi
  0014b	ff d6		 call	 esi

; 582  : 	PyModule_AddIntConstant(poModule, "EQUIPMENT_BELT",				c_Equipment_Belt);

  0014d	68 cd 00 00 00	 push	 205			; 000000cdH
  00152	68 00 00 00 00	 push	 OFFSET ??_C@_0P@GKDPOFPB@EQUIPMENT_BELT@
  00157	57		 push	 edi
  00158	ff d6		 call	 esi

; 583  : #endif
; 584  : 
; 585  : 	PyModule_AddIntConstant(poModule, "ITEM_TYPE_NONE",				CItemData::ITEM_TYPE_NONE);

  0015a	6a 00		 push	 0
  0015c	68 00 00 00 00	 push	 OFFSET ??_C@_0P@EMFHBOCE@ITEM_TYPE_NONE@
  00161	57		 push	 edi
  00162	ff d6		 call	 esi

; 586  : 	PyModule_AddIntConstant(poModule, "ITEM_TYPE_WEAPON",			CItemData::ITEM_TYPE_WEAPON);

  00164	6a 01		 push	 1
  00166	68 00 00 00 00	 push	 OFFSET ??_C@_0BB@KIJBPCOD@ITEM_TYPE_WEAPON@
  0016b	57		 push	 edi
  0016c	ff d6		 call	 esi
  0016e	83 c4 48	 add	 esp, 72			; 00000048H

; 587  : 	PyModule_AddIntConstant(poModule, "ITEM_TYPE_ARMOR",			CItemData::ITEM_TYPE_ARMOR);

  00171	6a 02		 push	 2
  00173	68 00 00 00 00	 push	 OFFSET ??_C@_0BA@MCMGEHMH@ITEM_TYPE_ARMOR@
  00178	57		 push	 edi
  00179	ff d6		 call	 esi

; 588  : 	PyModule_AddIntConstant(poModule, "ITEM_TYPE_USE",				CItemData::ITEM_TYPE_USE);

  0017b	6a 03		 push	 3
  0017d	68 00 00 00 00	 push	 OFFSET ??_C@_0O@EJGIJMHP@ITEM_TYPE_USE@
  00182	57		 push	 edi
  00183	ff d6		 call	 esi

; 589  : 	PyModule_AddIntConstant(poModule, "ITEM_TYPE_AUTOUSE",			CItemData::ITEM_TYPE_AUTOUSE);

  00185	6a 04		 push	 4
  00187	68 00 00 00 00	 push	 OFFSET ??_C@_0BC@PDFOCJLB@ITEM_TYPE_AUTOUSE@
  0018c	57		 push	 edi
  0018d	ff d6		 call	 esi

; 590  : 	PyModule_AddIntConstant(poModule, "ITEM_TYPE_MATERIAL",			CItemData::ITEM_TYPE_MATERIAL);

  0018f	6a 05		 push	 5
  00191	68 00 00 00 00	 push	 OFFSET ??_C@_0BD@NFIKPBKO@ITEM_TYPE_MATERIAL@
  00196	57		 push	 edi
  00197	ff d6		 call	 esi

; 591  : 	PyModule_AddIntConstant(poModule, "ITEM_TYPE_SPECIAL",			CItemData::ITEM_TYPE_SPECIAL);

  00199	6a 06		 push	 6
  0019b	68 00 00 00 00	 push	 OFFSET ??_C@_0BC@EGCNCIAP@ITEM_TYPE_SPECIAL@
  001a0	57		 push	 edi
  001a1	ff d6		 call	 esi

; 592  : 	PyModule_AddIntConstant(poModule, "ITEM_TYPE_TOOL",				CItemData::ITEM_TYPE_TOOL);

  001a3	6a 07		 push	 7
  001a5	68 00 00 00 00	 push	 OFFSET ??_C@_0P@LGAHEAHJ@ITEM_TYPE_TOOL@
  001aa	57		 push	 edi
  001ab	ff d6		 call	 esi
  001ad	83 c4 48	 add	 esp, 72			; 00000048H

; 593  : 	PyModule_AddIntConstant(poModule, "ITEM_TYPE_LOTTERY",			CItemData::ITEM_TYPE_LOTTERY);

  001b0	6a 08		 push	 8
  001b2	68 00 00 00 00	 push	 OFFSET ??_C@_0BC@LGJDJIG@ITEM_TYPE_LOTTERY@
  001b7	57		 push	 edi
  001b8	ff d6		 call	 esi

; 594  : 	PyModule_AddIntConstant(poModule, "ITEM_TYPE_ELK",				CItemData::ITEM_TYPE_ELK);

  001ba	6a 09		 push	 9
  001bc	68 00 00 00 00	 push	 OFFSET ??_C@_0O@JAIIACCD@ITEM_TYPE_ELK@
  001c1	57		 push	 edi
  001c2	ff d6		 call	 esi

; 595  : 	PyModule_AddIntConstant(poModule, "ITEM_TYPE_METIN",			CItemData::ITEM_TYPE_METIN);

  001c4	6a 0a		 push	 10			; 0000000aH
  001c6	68 00 00 00 00	 push	 OFFSET ??_C@_0BA@KICPPFNE@ITEM_TYPE_METIN@
  001cb	57		 push	 edi
  001cc	ff d6		 call	 esi

; 596  : 	PyModule_AddIntConstant(poModule, "ITEM_TYPE_CONTAINER",		CItemData::ITEM_TYPE_CONTAINER);

  001ce	6a 0b		 push	 11			; 0000000bH
  001d0	68 00 00 00 00	 push	 OFFSET ??_C@_0BE@JBBPDBJM@ITEM_TYPE_CONTAINER@
  001d5	57		 push	 edi
  001d6	ff d6		 call	 esi

; 597  : 	PyModule_AddIntConstant(poModule, "ITEM_TYPE_FISH",				CItemData::ITEM_TYPE_FISH);

  001d8	6a 0c		 push	 12			; 0000000cH
  001da	68 00 00 00 00	 push	 OFFSET ??_C@_0P@PIBMEEFH@ITEM_TYPE_FISH@
  001df	57		 push	 edi
  001e0	ff d6		 call	 esi

; 598  : 	PyModule_AddIntConstant(poModule, "ITEM_TYPE_ROD",				CItemData::ITEM_TYPE_ROD);

  001e2	6a 0d		 push	 13			; 0000000dH
  001e4	68 00 00 00 00	 push	 OFFSET ??_C@_0O@NIJIMPJD@ITEM_TYPE_ROD@
  001e9	57		 push	 edi
  001ea	ff d6		 call	 esi
  001ec	83 c4 48	 add	 esp, 72			; 00000048H

; 599  : 	PyModule_AddIntConstant(poModule, "ITEM_TYPE_RESOURCE",			CItemData::ITEM_TYPE_RESOURCE);

  001ef	6a 0e		 push	 14			; 0000000eH
  001f1	68 00 00 00 00	 push	 OFFSET ??_C@_0BD@KBPLAMLF@ITEM_TYPE_RESOURCE@
  001f6	57		 push	 edi
  001f7	ff d6		 call	 esi

; 600  : 	PyModule_AddIntConstant(poModule, "ITEM_TYPE_CAMPFIRE",			CItemData::ITEM_TYPE_CAMPFIRE);

  001f9	6a 0f		 push	 15			; 0000000fH
  001fb	68 00 00 00 00	 push	 OFFSET ??_C@_0BD@OGNHPHCL@ITEM_TYPE_CAMPFIRE@
  00200	57		 push	 edi
  00201	ff d6		 call	 esi

; 601  : 	PyModule_AddIntConstant(poModule, "ITEM_TYPE_UNIQUE",			CItemData::ITEM_TYPE_UNIQUE);

  00203	6a 10		 push	 16			; 00000010H
  00205	68 00 00 00 00	 push	 OFFSET ??_C@_0BB@CPEAMAMA@ITEM_TYPE_UNIQUE@
  0020a	57		 push	 edi
  0020b	ff d6		 call	 esi

; 602  : 	PyModule_AddIntConstant(poModule, "ITEM_TYPE_SKILLBOOK",		CItemData::ITEM_TYPE_SKILLBOOK);

  0020d	6a 11		 push	 17			; 00000011H
  0020f	68 00 00 00 00	 push	 OFFSET ??_C@_0BE@FAMMFDKM@ITEM_TYPE_SKILLBOOK@
  00214	57		 push	 edi
  00215	ff d6		 call	 esi

; 603  : 	PyModule_AddIntConstant(poModule, "ITEM_TYPE_QUEST",			CItemData::ITEM_TYPE_QUEST);

  00217	6a 12		 push	 18			; 00000012H
  00219	68 00 00 00 00	 push	 OFFSET ??_C@_0BA@PFOCEMDB@ITEM_TYPE_QUEST@
  0021e	57		 push	 edi
  0021f	ff d6		 call	 esi

; 604  : 	PyModule_AddIntConstant(poModule, "ITEM_TYPE_POLYMORPH",		CItemData::ITEM_TYPE_POLYMORPH);

  00221	6a 13		 push	 19			; 00000013H
  00223	68 00 00 00 00	 push	 OFFSET ??_C@_0BE@DGPJCLHG@ITEM_TYPE_POLYMORPH@
  00228	57		 push	 edi
  00229	ff d6		 call	 esi
  0022b	83 c4 48	 add	 esp, 72			; 00000048H

; 605  : 	PyModule_AddIntConstant(poModule, "ITEM_TYPE_TREASURE_BOX",		CItemData::ITEM_TYPE_TREASURE_BOX);

  0022e	6a 14		 push	 20			; 00000014H
  00230	68 00 00 00 00	 push	 OFFSET ??_C@_0BH@MPEMDLLF@ITEM_TYPE_TREASURE_BOX@
  00235	57		 push	 edi
  00236	ff d6		 call	 esi

; 606  : 	PyModule_AddIntConstant(poModule, "ITEM_TYPE_TREASURE_KEY",		CItemData::ITEM_TYPE_TREASURE_KEY);

  00238	6a 15		 push	 21			; 00000015H
  0023a	68 00 00 00 00	 push	 OFFSET ??_C@_0BH@KGMIMAKI@ITEM_TYPE_TREASURE_KEY@
  0023f	57		 push	 edi
  00240	ff d6		 call	 esi

; 607  : 	PyModule_AddIntConstant(poModule, "ITEM_TYPE_PICK",				CItemData::ITEM_TYPE_PICK);

  00242	6a 18		 push	 24			; 00000018H
  00244	68 00 00 00 00	 push	 OFFSET ??_C@_0P@CALHNGMG@ITEM_TYPE_PICK@
  00249	57		 push	 edi
  0024a	ff d6		 call	 esi

; 608  : 	PyModule_AddIntConstant(poModule, "ITEM_TYPE_BLEND",			CItemData::ITEM_TYPE_BLEND);

  0024c	6a 1b		 push	 27			; 0000001bH
  0024e	68 00 00 00 00	 push	 OFFSET ??_C@_0BA@EDGMOLIF@ITEM_TYPE_BLEND@
  00253	57		 push	 edi
  00254	ff d6		 call	 esi

; 609  : 	PyModule_AddIntConstant(poModule, "ITEM_TYPE_DS",				CItemData::ITEM_TYPE_DS);

  00256	6a 1d		 push	 29			; 0000001dH
  00258	68 00 00 00 00	 push	 OFFSET ??_C@_0N@BKIJEOLO@ITEM_TYPE_DS@
  0025d	57		 push	 edi
  0025e	ff d6		 call	 esi

; 610  : 	PyModule_AddIntConstant(poModule, "ITEM_TYPE_SPECIAL_DS",		CItemData::ITEM_TYPE_SPECIAL_DS);

  00260	6a 1e		 push	 30			; 0000001eH
  00262	68 00 00 00 00	 push	 OFFSET ??_C@_0BF@GGLFIBNL@ITEM_TYPE_SPECIAL_DS@
  00267	57		 push	 edi
  00268	ff d6		 call	 esi
  0026a	83 c4 48	 add	 esp, 72			; 00000048H

; 611  : 	PyModule_AddIntConstant(poModule, "ITEM_TYPE_RING",				CItemData::ITEM_TYPE_RING);

  0026d	6a 21		 push	 33			; 00000021H
  0026f	68 00 00 00 00	 push	 OFFSET ??_C@_0P@POBKFJPJ@ITEM_TYPE_RING@
  00274	57		 push	 edi
  00275	ff d6		 call	 esi

; 612  : 	PyModule_AddIntConstant(poModule, "ITEM_TYPE_BELT",				CItemData::ITEM_TYPE_BELT);

  00277	6a 22		 push	 34			; 00000022H
  00279	68 00 00 00 00	 push	 OFFSET ??_C@_0P@LGEHOEDP@ITEM_TYPE_BELT@
  0027e	57		 push	 edi
  0027f	ff d6		 call	 esi

; 613  : 
; 614  : 
; 615  : #ifdef ENABLE_COSTUME_SYSTEM
; 616  : 	PyModule_AddIntConstant(poModule, "ITEM_TYPE_COSTUME",			CItemData::ITEM_TYPE_COSTUME);

  00281	6a 1c		 push	 28			; 0000001cH
  00283	68 00 00 00 00	 push	 OFFSET ??_C@_0BC@GOFIPFBN@ITEM_TYPE_COSTUME@
  00288	57		 push	 edi
  00289	ff d6		 call	 esi

; 617  : 
; 618  : 	// Item Sub Type
; 619  : 	PyModule_AddIntConstant(poModule, "COSTUME_TYPE_BODY",			CItemData::COSTUME_BODY);

  0028b	6a 00		 push	 0
  0028d	68 00 00 00 00	 push	 OFFSET ??_C@_0BC@IBLNMJBH@COSTUME_TYPE_BODY@
  00292	57		 push	 edi
  00293	ff d6		 call	 esi

; 620  : 	PyModule_AddIntConstant(poModule, "COSTUME_TYPE_HAIR",			CItemData::COSTUME_HAIR);

  00295	6a 01		 push	 1
  00297	68 00 00 00 00	 push	 OFFSET ??_C@_0BC@MAPOOMBN@COSTUME_TYPE_HAIR@
  0029c	57		 push	 edi
  0029d	ff d6		 call	 esi

; 621  : 
; 622  : 	//     
; 623  : 	PyModule_AddIntConstant(poModule, "COSTUME_SLOT_START",			c_Costume_Slot_Start);

  0029f	68 c7 00 00 00	 push	 199			; 000000c7H
  002a4	68 00 00 00 00	 push	 OFFSET ??_C@_0BD@JCGACLBK@COSTUME_SLOT_START@
  002a9	57		 push	 edi
  002aa	ff d6		 call	 esi
  002ac	83 c4 48	 add	 esp, 72			; 00000048H

; 624  : 	PyModule_AddIntConstant(poModule, "COSTUME_SLOT_COUNT",			c_Costume_Slot_Count);

  002af	6a 04		 push	 4
  002b1	68 00 00 00 00	 push	 OFFSET ??_C@_0BD@EMMBBFMO@COSTUME_SLOT_COUNT@
  002b6	57		 push	 edi
  002b7	ff d6		 call	 esi

; 625  : 	PyModule_AddIntConstant(poModule, "COSTUME_SLOT_BODY",			c_Costume_Slot_Body);

  002b9	68 c7 00 00 00	 push	 199			; 000000c7H
  002be	68 00 00 00 00	 push	 OFFSET ??_C@_0BC@OBAEGBKN@COSTUME_SLOT_BODY@
  002c3	57		 push	 edi
  002c4	ff d6		 call	 esi

; 626  : 	PyModule_AddIntConstant(poModule, "COSTUME_SLOT_HAIR",			c_Costume_Slot_Hair);

  002c6	68 c8 00 00 00	 push	 200			; 000000c8H
  002cb	68 00 00 00 00	 push	 OFFSET ??_C@_0BC@KAEHEEKH@COSTUME_SLOT_HAIR@
  002d0	57		 push	 edi
  002d1	ff d6		 call	 esi

; 627  : 	PyModule_AddIntConstant(poModule, "COSTUME_SLOT_END",			c_Costume_Slot_End);

  002d3	68 cb 00 00 00	 push	 203			; 000000cbH
  002d8	68 00 00 00 00	 push	 OFFSET ??_C@_0BB@IEFLAOJF@COSTUME_SLOT_END@
  002dd	57		 push	 edi
  002de	ff d6		 call	 esi

; 628  : 	#ifdef ENABLE_SASH_SYSTEM
; 629  : 	PyModule_AddIntConstant(poModule, "COSTUME_TYPE_SASH", CItemData::COSTUME_SASH);

  002e0	6a 02		 push	 2
  002e2	68 00 00 00 00	 push	 OFFSET ??_C@_0BC@HGFCJGPD@COSTUME_TYPE_SASH@
  002e7	57		 push	 edi
  002e8	ff d6		 call	 esi

; 630  : 	PyModule_AddIntConstant(poModule, "COSTUME_SLOT_SASH", c_Costume_Slot_Sash);

  002ea	68 ca 00 00 00	 push	 202			; 000000caH
  002ef	68 00 00 00 00	 push	 OFFSET ??_C@_0BC@BGOLDOEJ@COSTUME_SLOT_SASH@
  002f4	57		 push	 edi
  002f5	ff d6		 call	 esi
  002f7	83 c4 48	 add	 esp, 72			; 00000048H

; 631  : 	#endif
; 632  : #endif
; 633  : 
; 634  : #ifdef ENABLE_COSTUME_WEAPON_SYSTEM
; 635  : 	PyModule_AddIntConstant(poModule, "COSTUME_TYPE_WEAPON", CItemData::COSTUME_WEAPON);

  002fa	6a 03		 push	 3
  002fc	68 00 00 00 00	 push	 OFFSET ??_C@_0BE@NDJCIHLM@COSTUME_TYPE_WEAPON@
  00301	57		 push	 edi
  00302	ff d6		 call	 esi

; 636  : 	PyModule_AddIntConstant(poModule, "COSTUME_SLOT_WEAPON", c_Costume_Slot_Weapon);

  00304	68 c9 00 00 00	 push	 201			; 000000c9H
  00309	68 00 00 00 00	 push	 OFFSET ??_C@_0BE@BFLFIKON@COSTUME_SLOT_WEAPON@
  0030e	57		 push	 edi
  0030f	ff d6		 call	 esi

; 637  : #endif
; 638  : 
; 639  : #ifdef ENABLE_NEW_EQUIPMENT_SYSTEM
; 640  : 	PyModule_AddIntConstant(poModule, "BELT_INVENTORY_SLOT_START",			c_Belt_Inventory_Slot_Start);

  00311	68 f2 00 00 00	 push	 242			; 000000f2H
  00316	68 00 00 00 00	 push	 OFFSET ??_C@_0BK@JAICDGKA@BELT_INVENTORY_SLOT_START@
  0031b	57		 push	 edi
  0031c	ff d6		 call	 esi

; 641  : 	PyModule_AddIntConstant(poModule, "BELT_INVENTORY_SLOT_COUNT",			c_Belt_Inventory_Slot_Count);

  0031e	6a 10		 push	 16			; 00000010H
  00320	68 00 00 00 00	 push	 OFFSET ??_C@_0BK@EOCDAIHE@BELT_INVENTORY_SLOT_COUNT@
  00325	57		 push	 edi
  00326	ff d6		 call	 esi

; 642  : 	PyModule_AddIntConstant(poModule, "BELT_INVENTORY_SLOT_END",			c_Belt_Inventory_Slot_End);

  00328	68 02 01 00 00	 push	 258			; 00000102H
  0032d	68 00 00 00 00	 push	 OFFSET ??_C@_0BI@GPHFDCEJ@BELT_INVENTORY_SLOT_END@
  00332	57		 push	 edi
  00333	ff d6		 call	 esi

; 643  : 
; 644  : #endif
; 645  : 
; 646  : 	PyModule_AddIntConstant(poModule, "WEAPON_SWORD",				CItemData::WEAPON_SWORD);

  00335	6a 00		 push	 0
  00337	68 00 00 00 00	 push	 OFFSET ??_C@_0N@FCLCNMLC@WEAPON_SWORD@
  0033c	57		 push	 edi
  0033d	ff d6		 call	 esi
  0033f	83 c4 48	 add	 esp, 72			; 00000048H

; 647  : 	PyModule_AddIntConstant(poModule, "WEAPON_DAGGER",				CItemData::WEAPON_DAGGER);

  00342	6a 01		 push	 1
  00344	68 00 00 00 00	 push	 OFFSET ??_C@_0O@IMDDJKDH@WEAPON_DAGGER@
  00349	57		 push	 edi
  0034a	ff d6		 call	 esi

; 648  : 	PyModule_AddIntConstant(poModule, "WEAPON_BOW",					CItemData::WEAPON_BOW);

  0034c	6a 02		 push	 2
  0034e	68 00 00 00 00	 push	 OFFSET ??_C@_0L@KDNCAJJM@WEAPON_BOW@
  00353	57		 push	 edi
  00354	ff d6		 call	 esi

; 649  : 	PyModule_AddIntConstant(poModule, "WEAPON_TWO_HANDED",			CItemData::WEAPON_TWO_HANDED);

  00356	6a 03		 push	 3
  00358	68 00 00 00 00	 push	 OFFSET ??_C@_0BC@OILJBHHK@WEAPON_TWO_HANDED@
  0035d	57		 push	 edi
  0035e	ff d6		 call	 esi

; 650  : 	PyModule_AddIntConstant(poModule, "WEAPON_BELL",				CItemData::WEAPON_BELL);

  00360	6a 04		 push	 4
  00362	68 00 00 00 00	 push	 OFFSET ??_C@_0M@NKBIKBJK@WEAPON_BELL@
  00367	57		 push	 edi
  00368	ff d6		 call	 esi

; 651  : 	PyModule_AddIntConstant(poModule, "WEAPON_FAN",					CItemData::WEAPON_FAN);

  0036a	6a 05		 push	 5
  0036c	68 00 00 00 00	 push	 OFFSET ??_C@_0L@LNCOBKNJ@WEAPON_FAN@
  00371	57		 push	 edi
  00372	ff d6		 call	 esi

; 652  : 	PyModule_AddIntConstant(poModule, "WEAPON_ARROW",				CItemData::WEAPON_ARROW);

  00374	6a 06		 push	 6
  00376	68 00 00 00 00	 push	 OFFSET ??_C@_0N@DCOAOKB@WEAPON_ARROW@
  0037b	57		 push	 edi
  0037c	ff d6		 call	 esi
  0037e	83 c4 48	 add	 esp, 72			; 00000048H

; 653  : #ifdef ENABLE_NEW_ARROW_SYSTEM
; 654  : 	PyModule_AddIntConstant(poModule, "WEAPON_UNLIMITED_ARROW", CItemData::WEAPON_UNLIMITED_ARROW);

  00381	6a 07		 push	 7
  00383	68 00 00 00 00	 push	 OFFSET ??_C@_0BH@BDHELGOG@WEAPON_UNLIMITED_ARROW@
  00388	57		 push	 edi
  00389	ff d6		 call	 esi

; 655  : #endif
; 656  : 	PyModule_AddIntConstant(poModule, "WEAPON_NUM_TYPES",			CItemData::WEAPON_NUM_TYPES);

  0038b	6a 08		 push	 8
  0038d	68 00 00 00 00	 push	 OFFSET ??_C@_0BB@KFDFBDPL@WEAPON_NUM_TYPES@
  00392	57		 push	 edi
  00393	ff d6		 call	 esi

; 657  : 
; 658  : 	PyModule_AddIntConstant(poModule, "USE_POTION",					CItemData::USE_POTION);

  00395	6a 00		 push	 0
  00397	68 00 00 00 00	 push	 OFFSET ??_C@_0L@DENJCCNI@USE_POTION@
  0039c	57		 push	 edi
  0039d	ff d6		 call	 esi

; 659  : 	PyModule_AddIntConstant(poModule, "USE_TALISMAN",				CItemData::USE_TALISMAN);

  0039f	6a 01		 push	 1
  003a1	68 00 00 00 00	 push	 OFFSET ??_C@_0N@CINBPLKM@USE_TALISMAN@
  003a6	57		 push	 edi
  003a7	ff d6		 call	 esi

; 660  : 	PyModule_AddIntConstant(poModule, "USE_TUNING",					CItemData::USE_TUNING);

  003a9	6a 02		 push	 2
  003ab	68 00 00 00 00	 push	 OFFSET ??_C@_0L@JIILHJGL@USE_TUNING@
  003b0	57		 push	 edi
  003b1	ff d6		 call	 esi

; 661  : 	PyModule_AddIntConstant(poModule, "USE_MOVE",					CItemData::USE_MOVE);

  003b3	6a 03		 push	 3
  003b5	68 00 00 00 00	 push	 OFFSET ??_C@_08JHFKMGGA@USE_MOVE@
  003ba	57		 push	 edi
  003bb	ff d6		 call	 esi
  003bd	83 c4 48	 add	 esp, 72			; 00000048H

; 662  : 	PyModule_AddIntConstant(poModule, "USE_TREASURE_BOX",			CItemData::USE_TREASURE_BOX);

  003c0	6a 04		 push	 4
  003c2	68 00 00 00 00	 push	 OFFSET ??_C@_0BB@BBPDKOFG@USE_TREASURE_BOX@
  003c7	57		 push	 edi
  003c8	ff d6		 call	 esi

; 663  : 	PyModule_AddIntConstant(poModule, "USE_MONEYBAG",				CItemData::USE_MONEYBAG);

  003ca	6a 05		 push	 5
  003cc	68 00 00 00 00	 push	 OFFSET ??_C@_0N@BOHEHPFI@USE_MONEYBAG@
  003d1	57		 push	 edi
  003d2	ff d6		 call	 esi

; 664  : 	PyModule_AddIntConstant(poModule, "USE_BAIT",					CItemData::USE_BAIT);

  003d4	6a 06		 push	 6
  003d6	68 00 00 00 00	 push	 OFFSET ??_C@_08LBHGOBNP@USE_BAIT@
  003db	57		 push	 edi
  003dc	ff d6		 call	 esi

; 665  : 	PyModule_AddIntConstant(poModule, "USE_ABILITY_UP",				CItemData::USE_ABILITY_UP);

  003de	6a 07		 push	 7
  003e0	68 00 00 00 00	 push	 OFFSET ??_C@_0P@JBLCKFGE@USE_ABILITY_UP@
  003e5	57		 push	 edi
  003e6	ff d6		 call	 esi

; 666  : 	PyModule_AddIntConstant(poModule, "USE_AFFECT",					CItemData::USE_AFFECT);

  003e8	6a 08		 push	 8
  003ea	68 00 00 00 00	 push	 OFFSET ??_C@_0L@DLLOJMIP@USE_AFFECT@
  003ef	57		 push	 edi
  003f0	ff d6		 call	 esi

; 667  : 	PyModule_AddIntConstant(poModule, "USE_CREATE_STONE",			CItemData::USE_CREATE_STONE);

  003f2	6a 09		 push	 9
  003f4	68 00 00 00 00	 push	 OFFSET ??_C@_0BB@PBBDNJH@USE_CREATE_STONE@
  003f9	57		 push	 edi
  003fa	ff d6		 call	 esi
  003fc	83 c4 48	 add	 esp, 72			; 00000048H

; 668  : 	PyModule_AddIntConstant(poModule, "USE_SPECIAL",				CItemData::USE_SPECIAL);

  003ff	6a 0a		 push	 10			; 0000000aH
  00401	68 00 00 00 00	 push	 OFFSET ??_C@_0M@GHOELJHH@USE_SPECIAL@
  00406	57		 push	 edi
  00407	ff d6		 call	 esi

; 669  : 	PyModule_AddIntConstant(poModule, "USE_POTION_NODELAY",			CItemData::USE_POTION_NODELAY);

  00409	6a 0b		 push	 11			; 0000000bH
  0040b	68 00 00 00 00	 push	 OFFSET ??_C@_0BD@MMDEHJ@USE_POTION_NODELAY@
  00410	57		 push	 edi
  00411	ff d6		 call	 esi

; 670  : 	PyModule_AddIntConstant(poModule, "USE_CLEAR",					CItemData::USE_CLEAR);

  00413	6a 0c		 push	 12			; 0000000cH
  00415	68 00 00 00 00	 push	 OFFSET ??_C@_09PNKHEPEF@USE_CLEAR@
  0041a	57		 push	 edi
  0041b	ff d6		 call	 esi

; 671  : 	PyModule_AddIntConstant(poModule, "USE_INVISIBILITY",			CItemData::USE_INVISIBILITY);

  0041d	6a 0d		 push	 13			; 0000000dH
  0041f	68 00 00 00 00	 push	 OFFSET ??_C@_0BB@NCIEFOD@USE_INVISIBILITY@
  00424	57		 push	 edi
  00425	ff d6		 call	 esi

; 672  : 	PyModule_AddIntConstant(poModule, "USE_DETACHMENT",				CItemData::USE_DETACHMENT);

  00427	6a 0e		 push	 14			; 0000000eH
  00429	68 00 00 00 00	 push	 OFFSET ??_C@_0P@MKAMDACK@USE_DETACHMENT@
  0042e	57		 push	 edi
  0042f	ff d6		 call	 esi

; 673  : 	PyModule_AddIntConstant(poModule, "USE_TIME_CHARGE_PER",		CItemData::USE_TIME_CHARGE_PER);

  00431	6a 1b		 push	 27			; 0000001bH
  00433	68 00 00 00 00	 push	 OFFSET ??_C@_0BE@NEAJJELI@USE_TIME_CHARGE_PER@
  00438	57		 push	 edi
  00439	ff d6		 call	 esi
  0043b	83 c4 48	 add	 esp, 72			; 00000048H

; 674  : 	PyModule_AddIntConstant(poModule, "USE_TIME_CHARGE_FIX",		CItemData::USE_TIME_CHARGE_FIX);

  0043e	6a 1c		 push	 28			; 0000001cH
  00440	68 00 00 00 00	 push	 OFFSET ??_C@_0BE@FCIOINBF@USE_TIME_CHARGE_FIX@
  00445	57		 push	 edi
  00446	ff d6		 call	 esi

; 675  : 
; 676  : 	PyModule_AddIntConstant(poModule, "MATERIAL_DS_REFINE_NORMAL",	CItemData::MATERIAL_DS_REFINE_NORMAL);

  00448	6a 05		 push	 5
  0044a	68 00 00 00 00	 push	 OFFSET ??_C@_0BK@FFJFCNLF@MATERIAL_DS_REFINE_NORMAL@
  0044f	57		 push	 edi
  00450	ff d6		 call	 esi

; 677  : 	PyModule_AddIntConstant(poModule, "MATERIAL_DS_REFINE_BLESSED",	CItemData::MATERIAL_DS_REFINE_BLESSED);

  00452	6a 06		 push	 6
  00454	68 00 00 00 00	 push	 OFFSET ??_C@_0BL@HNMOOIKG@MATERIAL_DS_REFINE_BLESSED@
  00459	57		 push	 edi
  0045a	ff d6		 call	 esi

; 678  : 	PyModule_AddIntConstant(poModule, "MATERIAL_DS_REFINE_HOLLY",	CItemData::MATERIAL_DS_REFINE_HOLLY);

  0045c	6a 07		 push	 7
  0045e	68 00 00 00 00	 push	 OFFSET ??_C@_0BJ@KCHKGND@MATERIAL_DS_REFINE_HOLLY@
  00463	57		 push	 edi
  00464	ff d6		 call	 esi

; 679  : 
; 680  : 	PyModule_AddIntConstant(poModule, "METIN_NORMAL",				CItemData::METIN_NORMAL);

  00466	6a 00		 push	 0
  00468	68 00 00 00 00	 push	 OFFSET ??_C@_0N@HOHHHOFD@METIN_NORMAL@
  0046d	57		 push	 edi
  0046e	ff d6		 call	 esi

; 681  : 	PyModule_AddIntConstant(poModule, "METIN_GOLD",					CItemData::METIN_GOLD);

  00470	6a 01		 push	 1
  00472	68 00 00 00 00	 push	 OFFSET ??_C@_0L@MFIGJJDC@METIN_GOLD@
  00477	57		 push	 edi
  00478	ff d6		 call	 esi
  0047a	83 c4 48	 add	 esp, 72			; 00000048H

; 682  : 
; 683  : 	PyModule_AddIntConstant(poModule, "LIMIT_NONE",					CItemData::LIMIT_NONE);

  0047d	6a 00		 push	 0
  0047f	68 00 00 00 00	 push	 OFFSET ??_C@_0L@MKHGBGII@LIMIT_NONE@
  00484	57		 push	 edi
  00485	ff d6		 call	 esi

; 684  : 	PyModule_AddIntConstant(poModule, "LIMIT_LEVEL",				CItemData::LIMIT_LEVEL);

  00487	6a 01		 push	 1
  00489	68 00 00 00 00	 push	 OFFSET ??_C@_0M@CNLALLNH@LIMIT_LEVEL@
  0048e	57		 push	 edi
  0048f	ff d6		 call	 esi

; 685  : 	PyModule_AddIntConstant(poModule, "LIMIT_STR",					CItemData::LIMIT_STR);

  00491	6a 02		 push	 2
  00493	68 00 00 00 00	 push	 OFFSET ??_C@_09JOBFCJGA@LIMIT_STR@
  00498	57		 push	 edi
  00499	ff d6		 call	 esi

; 686  : 	PyModule_AddIntConstant(poModule, "LIMIT_DEX",					CItemData::LIMIT_DEX);

  0049b	6a 03		 push	 3
  0049d	68 00 00 00 00	 push	 OFFSET ??_C@_09LENAGHIL@LIMIT_DEX@
  004a2	57		 push	 edi
  004a3	ff d6		 call	 esi

; 687  : 	PyModule_AddIntConstant(poModule, "LIMIT_INT",					CItemData::LIMIT_INT);

  004a5	6a 04		 push	 4
  004a7	68 00 00 00 00	 push	 OFFSET ??_C@_09OGFKBPLL@LIMIT_INT@
  004ac	57		 push	 edi
  004ad	ff d6		 call	 esi

; 688  : 	PyModule_AddIntConstant(poModule, "LIMIT_CON",					CItemData::LIMIT_CON);

  004af	6a 05		 push	 5
  004b1	68 00 00 00 00	 push	 OFFSET ??_C@_09DIAIGPDD@LIMIT_CON@
  004b6	57		 push	 edi
  004b7	ff d6		 call	 esi
  004b9	83 c4 48	 add	 esp, 72			; 00000048H

; 689  : 	PyModule_AddIntConstant(poModule, "LIMIT_PCBANG",				CItemData::LIMIT_PCBANG);

  004bc	6a 06		 push	 6
  004be	68 00 00 00 00	 push	 OFFSET ??_C@_0N@MIADEJNC@LIMIT_PCBANG@
  004c3	57		 push	 edi
  004c4	ff d6		 call	 esi

; 690  : 	PyModule_AddIntConstant(poModule, "LIMIT_REAL_TIME",			CItemData::LIMIT_REAL_TIME);

  004c6	6a 07		 push	 7
  004c8	68 00 00 00 00	 push	 OFFSET ??_C@_0BA@FCJCAFPM@LIMIT_REAL_TIME@
  004cd	57		 push	 edi
  004ce	ff d6		 call	 esi

; 691  : 	PyModule_AddIntConstant(poModule, "LIMIT_REAL_TIME_START_FIRST_USE",	CItemData::LIMIT_REAL_TIME_START_FIRST_USE);

  004d0	6a 08		 push	 8
  004d2	68 00 00 00 00	 push	 OFFSET ??_C@_0CA@KECNELOI@LIMIT_REAL_TIME_START_FIRST_USE@
  004d7	57		 push	 edi
  004d8	ff d6		 call	 esi

; 692  : 	PyModule_AddIntConstant(poModule, "LIMIT_TIMER_BASED_ON_WEAR",	CItemData::LIMIT_TIMER_BASED_ON_WEAR);

  004da	6a 09		 push	 9
  004dc	68 00 00 00 00	 push	 OFFSET ??_C@_0BK@DKGMKHOA@LIMIT_TIMER_BASED_ON_WEAR@
  004e1	57		 push	 edi
  004e2	ff d6		 call	 esi

; 693  : 	PyModule_AddIntConstant(poModule, "LIMIT_TYPE_MAX_NUM",			CItemData::LIMIT_MAX_NUM);

  004e4	6a 0a		 push	 10			; 0000000aH
  004e6	68 00 00 00 00	 push	 OFFSET ??_C@_0BD@JIAJEJNL@LIMIT_TYPE_MAX_NUM@
  004eb	57		 push	 edi
  004ec	ff d6		 call	 esi

; 694  : 	PyModule_AddIntConstant(poModule, "LIMIT_MAX_NUM",				CItemData::ITEM_LIMIT_MAX_NUM);

  004ee	6a 02		 push	 2
  004f0	68 00 00 00 00	 push	 OFFSET ??_C@_0O@DPNMMLCK@LIMIT_MAX_NUM@
  004f5	57		 push	 edi
  004f6	ff d6		 call	 esi
  004f8	83 c4 48	 add	 esp, 72			; 00000048H

; 695  : 
; 696  : 	PyModule_AddIntConstant(poModule, "ITEM_ANTIFLAG_FEMALE",		CItemData::ITEM_ANTIFLAG_FEMALE);

  004fb	6a 01		 push	 1
  004fd	68 00 00 00 00	 push	 OFFSET ??_C@_0BF@DFHLBKDO@ITEM_ANTIFLAG_FEMALE@
  00502	57		 push	 edi
  00503	ff d6		 call	 esi

; 697  : 	PyModule_AddIntConstant(poModule, "ITEM_ANTIFLAG_MALE",			CItemData::ITEM_ANTIFLAG_MALE);

  00505	6a 02		 push	 2
  00507	68 00 00 00 00	 push	 OFFSET ??_C@_0BD@DBFGLDPM@ITEM_ANTIFLAG_MALE@
  0050c	57		 push	 edi
  0050d	ff d6		 call	 esi

; 698  : 	PyModule_AddIntConstant(poModule, "ITEM_ANTIFLAG_WARRIOR",		CItemData::ITEM_ANTIFLAG_WARRIOR);

  0050f	6a 04		 push	 4
  00511	68 00 00 00 00	 push	 OFFSET ??_C@_0BG@OCAOGEDJ@ITEM_ANTIFLAG_WARRIOR@
  00516	57		 push	 edi
  00517	ff d6		 call	 esi

; 699  : 	PyModule_AddIntConstant(poModule, "ITEM_ANTIFLAG_ASSASSIN",		CItemData::ITEM_ANTIFLAG_ASSASSIN);

  00519	6a 08		 push	 8
  0051b	68 00 00 00 00	 push	 OFFSET ??_C@_0BH@NDIALJFO@ITEM_ANTIFLAG_ASSASSIN@
  00520	57		 push	 edi
  00521	ff d6		 call	 esi

; 700  : 	PyModule_AddIntConstant(poModule, "ITEM_ANTIFLAG_SURA",			CItemData::ITEM_ANTIFLAG_SURA);

  00523	6a 10		 push	 16			; 00000010H
  00525	68 00 00 00 00	 push	 OFFSET ??_C@_0BD@EDCJBBKJ@ITEM_ANTIFLAG_SURA@
  0052a	57		 push	 edi
  0052b	ff d6		 call	 esi

; 701  : 	PyModule_AddIntConstant(poModule, "ITEM_ANTIFLAG_SHAMAN",		CItemData::ITEM_ANTIFLAG_SHAMAN);

  0052d	6a 20		 push	 32			; 00000020H
  0052f	68 00 00 00 00	 push	 OFFSET ??_C@_0BF@NIAJKCKI@ITEM_ANTIFLAG_SHAMAN@
  00534	57		 push	 edi
  00535	ff d6		 call	 esi
  00537	83 c4 48	 add	 esp, 72			; 00000048H

; 702  : 	PyModule_AddIntConstant(poModule, "ITEM_ANTIFLAG_GET",			CItemData::ITEM_ANTIFLAG_GET);

  0053a	6a 40		 push	 64			; 00000040H
  0053c	68 00 00 00 00	 push	 OFFSET ??_C@_0BC@NECEHGFA@ITEM_ANTIFLAG_GET@
  00541	57		 push	 edi
  00542	ff d6		 call	 esi

; 703  : 	PyModule_AddIntConstant(poModule, "ITEM_ANTIFLAG_DROP",			CItemData::ITEM_ANTIFLAG_DROP);

  00544	68 80 00 00 00	 push	 128			; 00000080H
  00549	68 00 00 00 00	 push	 OFFSET ??_C@_0BD@ELBJHBLB@ITEM_ANTIFLAG_DROP@
  0054e	57		 push	 edi
  0054f	ff d6		 call	 esi

; 704  : 	PyModule_AddIntConstant(poModule, "ITEM_ANTIFLAG_SELL",			CItemData::ITEM_ANTIFLAG_SELL);

  00551	68 00 01 00 00	 push	 256			; 00000100H
  00556	68 00 00 00 00	 push	 OFFSET ??_C@_0BD@LACGLGAB@ITEM_ANTIFLAG_SELL@
  0055b	57		 push	 edi
  0055c	ff d6		 call	 esi

; 705  : 	PyModule_AddIntConstant(poModule, "ITEM_ANTIFLAG_EMPIRE_A",		CItemData::ITEM_ANTIFLAG_EMPIRE_A);

  0055e	68 00 02 00 00	 push	 512			; 00000200H
  00563	68 00 00 00 00	 push	 OFFSET ??_C@_0BH@ONMHLBEF@ITEM_ANTIFLAG_EMPIRE_A@
  00568	57		 push	 edi
  00569	ff d6		 call	 esi

; 706  : 	PyModule_AddIntConstant(poModule, "ITEM_ANTIFLAG_EMPIRE_B",		CItemData::ITEM_ANTIFLAG_EMPIRE_B);

  0056b	68 00 04 00 00	 push	 1024			; 00000400H
  00570	68 00 00 00 00	 push	 OFFSET ??_C@_0BH@MGOKOCIG@ITEM_ANTIFLAG_EMPIRE_B@
  00575	57		 push	 edi
  00576	ff d6		 call	 esi

; 707  : 	PyModule_AddIntConstant(poModule, "ITEM_ANTIFLAG_EMPIRE_R",		CItemData::ITEM_ANTIFLAG_EMPIRE_R);

  00578	68 00 08 00 00	 push	 2048			; 00000800H
  0057d	68 00 00 00 00	 push	 OFFSET ??_C@_0BH@IMCIPANH@ITEM_ANTIFLAG_EMPIRE_R@
  00582	57		 push	 edi
  00583	ff d6		 call	 esi
  00585	83 c4 48	 add	 esp, 72			; 00000048H

; 708  : 	PyModule_AddIntConstant(poModule, "ITEM_ANTIFLAG_SAVE",			CItemData::ITEM_ANTIFLAG_SAVE);

  00588	68 00 10 00 00	 push	 4096			; 00001000H
  0058d	68 00 00 00 00	 push	 OFFSET ??_C@_0BD@PPDHLMLJ@ITEM_ANTIFLAG_SAVE@
  00592	57		 push	 edi
  00593	ff d6		 call	 esi

; 709  : 	PyModule_AddIntConstant(poModule, "ITEM_ANTIFLAG_GIVE",			CItemData::ITEM_ANTIFLAG_GIVE);

  00595	68 00 20 00 00	 push	 8192			; 00002000H
  0059a	68 00 00 00 00	 push	 OFFSET ??_C@_0BD@KPODKFBE@ITEM_ANTIFLAG_GIVE@
  0059f	57		 push	 edi
  005a0	ff d6		 call	 esi

; 710  : 	PyModule_AddIntConstant(poModule, "ITEM_ANTIFLAG_PKDROP",		CItemData::ITEM_ANTIFLAG_PKDROP);

  005a2	68 00 40 00 00	 push	 16384			; 00004000H
  005a7	68 00 00 00 00	 push	 OFFSET ??_C@_0BF@HBDABAPH@ITEM_ANTIFLAG_PKDROP@
  005ac	57		 push	 edi
  005ad	ff d6		 call	 esi

; 711  : 	PyModule_AddIntConstant(poModule, "ITEM_ANTIFLAG_STACK",		CItemData::ITEM_ANTIFLAG_STACK);

  005af	68 00 80 00 00	 push	 32768			; 00008000H
  005b4	68 00 00 00 00	 push	 OFFSET ??_C@_0BE@MAIMKBDM@ITEM_ANTIFLAG_STACK@
  005b9	57		 push	 edi
  005ba	ff d6		 call	 esi

; 712  : 	PyModule_AddIntConstant(poModule, "ITEM_ANTIFLAG_MYSHOP",		CItemData::ITEM_ANTIFLAG_MYSHOP);

  005bc	68 00 00 01 00	 push	 65536			; 00010000H
  005c1	68 00 00 00 00	 push	 OFFSET ??_C@_0BF@NEEDLCAA@ITEM_ANTIFLAG_MYSHOP@
  005c6	57		 push	 edi
  005c7	ff d6		 call	 esi

; 713  : 
; 714  : 	PyModule_AddIntConstant(poModule, "ITEM_FLAG_RARE",				CItemData::ITEM_FLAG_RARE);

  005c9	6a 20		 push	 32			; 00000020H
  005cb	68 00 00 00 00	 push	 OFFSET ??_C@_0P@POCGDPPH@ITEM_FLAG_RARE@
  005d0	57		 push	 edi
  005d1	ff d6		 call	 esi
  005d3	83 c4 48	 add	 esp, 72			; 00000048H

; 715  : 	PyModule_AddIntConstant(poModule, "ITEM_FLAG_UNIQUE",			CItemData::ITEM_FLAG_UNIQUE);

  005d6	6a 40		 push	 64			; 00000040H
  005d8	68 00 00 00 00	 push	 OFFSET ??_C@_0BB@PGFIBJHK@ITEM_FLAG_UNIQUE@
  005dd	57		 push	 edi
  005de	ff d6		 call	 esi

; 716  : 	PyModule_AddIntConstant(poModule, "ITEM_FLAG_CONFIRM_WHEN_USE",	CItemData::ITEM_FLAG_CONFIRM_WHEN_USE);

  005e0	68 00 02 00 00	 push	 512			; 00000200H
  005e5	68 00 00 00 00	 push	 OFFSET ??_C@_0BL@IPKGPKMA@ITEM_FLAG_CONFIRM_WHEN_USE@
  005ea	57		 push	 edi
  005eb	ff d6		 call	 esi

; 717  : 
; 718  : 	PyModule_AddIntConstant(poModule, "ANTIFLAG_FEMALE",			CItemData::ITEM_ANTIFLAG_FEMALE);

  005ed	6a 01		 push	 1
  005ef	68 00 00 00 00	 push	 OFFSET ??_C@_0BA@PLOPKCNG@ANTIFLAG_FEMALE@
  005f4	57		 push	 edi
  005f5	ff d6		 call	 esi

; 719  : 	PyModule_AddIntConstant(poModule, "ANTIFLAG_MALE",				CItemData::ITEM_ANTIFLAG_MALE);

  005f7	6a 02		 push	 2
  005f9	68 00 00 00 00	 push	 OFFSET ??_C@_0O@GCOFJDKL@ANTIFLAG_MALE@
  005fe	57		 push	 edi
  005ff	ff d6		 call	 esi

; 720  : 	PyModule_AddIntConstant(poModule, "ANTIFLAG_WARRIOR",			CItemData::ITEM_ANTIFLAG_WARRIOR);

  00601	6a 04		 push	 4
  00603	68 00 00 00 00	 push	 OFFSET ??_C@_0BB@EMBBJKML@ANTIFLAG_WARRIOR@
  00608	57		 push	 edi
  00609	ff d6		 call	 esi

; 721  : 	PyModule_AddIntConstant(poModule, "ANTIFLAG_ASSASSIN",			CItemData::ITEM_ANTIFLAG_ASSASSIN);

  0060b	6a 08		 push	 8
  0060d	68 00 00 00 00	 push	 OFFSET ??_C@_0BC@IAJNDFJA@ANTIFLAG_ASSASSIN@
  00612	57		 push	 edi
  00613	ff d6		 call	 esi
  00615	83 c4 48	 add	 esp, 72			; 00000048H

; 722  : 	PyModule_AddIntConstant(poModule, "ANTIFLAG_SURA",				CItemData::ITEM_ANTIFLAG_SURA);

  00618	6a 10		 push	 16			; 00000010H
  0061a	68 00 00 00 00	 push	 OFFSET ??_C@_0O@BAJKDBPO@ANTIFLAG_SURA@
  0061f	57		 push	 edi
  00620	ff d6		 call	 esi

; 723  : 	PyModule_AddIntConstant(poModule, "ANTIFLAG_SHAMAN",			CItemData::ITEM_ANTIFLAG_SHAMAN);

  00622	6a 20		 push	 32			; 00000020H
  00624	68 00 00 00 00	 push	 OFFSET ??_C@_0BA@BGJNBKEA@ANTIFLAG_SHAMAN@
  00629	57		 push	 edi
  0062a	ff d6		 call	 esi

; 724  : 	PyModule_AddIntConstant(poModule, "ANTIFLAG_GET",				CItemData::ITEM_ANTIFLAG_GET);

  0062c	6a 40		 push	 64			; 00000040H
  0062e	68 00 00 00 00	 push	 OFFSET ??_C@_0N@NEJHBBKC@ANTIFLAG_GET@
  00633	57		 push	 edi
  00634	ff d6		 call	 esi

; 725  : 	PyModule_AddIntConstant(poModule, "ANTIFLAG_DROP",				CItemData::ITEM_ANTIFLAG_DROP);

  00636	68 80 00 00 00	 push	 128			; 00000080H
  0063b	68 00 00 00 00	 push	 OFFSET ??_C@_0O@BIKKFBOG@ANTIFLAG_DROP@
  00640	57		 push	 edi
  00641	ff d6		 call	 esi

; 726  : 	PyModule_AddIntConstant(poModule, "ANTIFLAG_SELL",				CItemData::ITEM_ANTIFLAG_SELL);

  00643	68 00 01 00 00	 push	 256			; 00000100H
  00648	68 00 00 00 00	 push	 OFFSET ??_C@_0O@ODJFJGFG@ANTIFLAG_SELL@
  0064d	57		 push	 edi
  0064e	ff d6		 call	 esi

; 727  : 	PyModule_AddIntConstant(poModule, "ANTIFLAG_EMPIRE_A",			CItemData::ITEM_ANTIFLAG_EMPIRE_A);

  00650	68 00 02 00 00	 push	 512			; 00000200H
  00655	68 00 00 00 00	 push	 OFFSET ??_C@_0BC@LONKDNIL@ANTIFLAG_EMPIRE_A@
  0065a	57		 push	 edi
  0065b	ff d6		 call	 esi
  0065d	83 c4 48	 add	 esp, 72			; 00000048H

; 728  : 	PyModule_AddIntConstant(poModule, "ANTIFLAG_EMPIRE_B",			CItemData::ITEM_ANTIFLAG_EMPIRE_B);

  00660	68 00 04 00 00	 push	 1024			; 00000400H
  00665	68 00 00 00 00	 push	 OFFSET ??_C@_0BC@JFPHGOEI@ANTIFLAG_EMPIRE_B@
  0066a	57		 push	 edi
  0066b	ff d6		 call	 esi

; 729  : 	PyModule_AddIntConstant(poModule, "ANTIFLAG_EMPIRE_R",			CItemData::ITEM_ANTIFLAG_EMPIRE_R);

  0066d	68 00 08 00 00	 push	 2048			; 00000800H
  00672	68 00 00 00 00	 push	 OFFSET ??_C@_0BC@NPDFHMBJ@ANTIFLAG_EMPIRE_R@
  00677	57		 push	 edi
  00678	ff d6		 call	 esi

; 730  : 	PyModule_AddIntConstant(poModule, "ANTIFLAG_SAVE",				CItemData::ITEM_ANTIFLAG_SAVE);

  0067a	68 00 10 00 00	 push	 4096			; 00001000H
  0067f	68 00 00 00 00	 push	 OFFSET ??_C@_0O@KMIEJMOO@ANTIFLAG_SAVE@
  00684	57		 push	 edi
  00685	ff d6		 call	 esi

; 731  : 	PyModule_AddIntConstant(poModule, "ANTIFLAG_GIVE",				CItemData::ITEM_ANTIFLAG_GIVE);

  00687	68 00 20 00 00	 push	 8192			; 00002000H
  0068c	68 00 00 00 00	 push	 OFFSET ??_C@_0O@PMFAIFED@ANTIFLAG_GIVE@
  00691	57		 push	 edi
  00692	ff d6		 call	 esi

; 732  : 	PyModule_AddIntConstant(poModule, "ANTIFLAG_PKDROP",			CItemData::ITEM_ANTIFLAG_PKDROP);

  00694	68 00 40 00 00	 push	 16384			; 00004000H
  00699	68 00 00 00 00	 push	 OFFSET ??_C@_0BA@LPKEKIBP@ANTIFLAG_PKDROP@
  0069e	57		 push	 edi
  0069f	ff d6		 call	 esi

; 733  : 	PyModule_AddIntConstant(poModule, "ANTIFLAG_STACK",				CItemData::ITEM_ANTIFLAG_STACK);

  006a1	68 00 80 00 00	 push	 32768			; 00008000H
  006a6	68 00 00 00 00	 push	 OFFSET ??_C@_0P@DFNANGEL@ANTIFLAG_STACK@
  006ab	57		 push	 edi
  006ac	ff d6		 call	 esi
  006ae	83 c4 48	 add	 esp, 72			; 00000048H

; 734  : 	PyModule_AddIntConstant(poModule, "ANTIFLAG_MYSHOP",			CItemData::ITEM_ANTIFLAG_MYSHOP);

  006b1	68 00 00 01 00	 push	 65536			; 00010000H
  006b6	68 00 00 00 00	 push	 OFFSET ??_C@_0BA@BKNHAKOI@ANTIFLAG_MYSHOP@
  006bb	57		 push	 edi
  006bc	ff d6		 call	 esi

; 735  : 
; 736  : 	PyModule_AddIntConstant(poModule, "WEARABLE_BODY",				CItemData::WEARABLE_BODY);

  006be	6a 01		 push	 1
  006c0	68 00 00 00 00	 push	 OFFSET ??_C@_0O@KOFPKKKF@WEARABLE_BODY@
  006c5	57		 push	 edi
  006c6	ff d6		 call	 esi

; 737  : 	PyModule_AddIntConstant(poModule, "WEARABLE_HEAD",				CItemData::WEARABLE_HEAD);

  006c8	6a 02		 push	 2
  006ca	68 00 00 00 00	 push	 OFFSET ??_C@_0O@HCPFPMJH@WEARABLE_HEAD@
  006cf	57		 push	 edi
  006d0	ff d6		 call	 esi

; 738  : 	PyModule_AddIntConstant(poModule, "WEARABLE_FOOTS",				CItemData::WEARABLE_FOOTS);

  006d2	6a 04		 push	 4
  006d4	68 00 00 00 00	 push	 OFFSET ??_C@_0P@HDMMFABO@WEARABLE_FOOTS@
  006d9	57		 push	 edi
  006da	ff d6		 call	 esi

; 739  : 	PyModule_AddIntConstant(poModule, "WEARABLE_WRIST",				CItemData::WEARABLE_WRIST);

  006dc	6a 08		 push	 8
  006de	68 00 00 00 00	 push	 OFFSET ??_C@_0P@EMFDANIN@WEARABLE_WRIST@
  006e3	57		 push	 edi
  006e4	ff d6		 call	 esi

; 740  : 	PyModule_AddIntConstant(poModule, "WEARABLE_WEAPON",			CItemData::WEARABLE_WEAPON);

  006e6	6a 10		 push	 16			; 00000010H
  006e8	68 00 00 00 00	 push	 OFFSET ??_C@_0BA@NBNKFEIG@WEARABLE_WEAPON@
  006ed	57		 push	 edi
  006ee	ff d6		 call	 esi
  006f0	83 c4 48	 add	 esp, 72			; 00000048H

; 741  : 	PyModule_AddIntConstant(poModule, "WEARABLE_NECK",				CItemData::WEARABLE_NECK);

  006f3	6a 20		 push	 32			; 00000020H
  006f5	68 00 00 00 00	 push	 OFFSET ??_C@_0O@HJKJMBJG@WEARABLE_NECK@
  006fa	57		 push	 edi
  006fb	ff d6		 call	 esi

; 742  : 	PyModule_AddIntConstant(poModule, "WEARABLE_EAR",				CItemData::WEARABLE_EAR);

  006fd	6a 40		 push	 64			; 00000040H
  006ff	68 00 00 00 00	 push	 OFFSET ??_C@_0N@BHKGKGNM@WEARABLE_EAR@
  00704	57		 push	 edi
  00705	ff d6		 call	 esi

; 743  : 	PyModule_AddIntConstant(poModule, "WEARABLE_UNIQUE",			CItemData::WEARABLE_UNIQUE);

  00707	68 80 00 00 00	 push	 128			; 00000080H
  0070c	68 00 00 00 00	 push	 OFFSET ??_C@_0BA@FGALGGKF@WEARABLE_UNIQUE@
  00711	57		 push	 edi
  00712	ff d6		 call	 esi

; 744  : 	PyModule_AddIntConstant(poModule, "WEARABLE_SHIELD",			CItemData::WEARABLE_SHIELD);

  00714	68 00 01 00 00	 push	 256			; 00000100H
  00719	68 00 00 00 00	 push	 OFFSET ??_C@_0BA@DGBFNJPE@WEARABLE_SHIELD@
  0071e	57		 push	 edi
  0071f	ff d6		 call	 esi

; 745  : 	PyModule_AddIntConstant(poModule, "WEARABLE_ARROW",				CItemData::WEARABLE_ARROW);

  00721	68 00 02 00 00	 push	 512			; 00000200H
  00726	68 00 00 00 00	 push	 OFFSET ??_C@_0P@CANFDFEC@WEARABLE_ARROW@
  0072b	57		 push	 edi
  0072c	ff d6		 call	 esi

; 746  : 
; 747  : 	PyModule_AddIntConstant(poModule, "ARMOR_BODY",					CItemData::ARMOR_BODY);

  0072e	6a 00		 push	 0
  00730	68 00 00 00 00	 push	 OFFSET ??_C@_0L@FFADCIKH@ARMOR_BODY@
  00735	57		 push	 edi
  00736	ff d6		 call	 esi
  00738	83 c4 48	 add	 esp, 72			; 00000048H

; 748  : 	PyModule_AddIntConstant(poModule, "ARMOR_HEAD",					CItemData::ARMOR_HEAD);

  0073b	6a 01		 push	 1
  0073d	68 00 00 00 00	 push	 OFFSET ??_C@_0L@IJKJHOJF@ARMOR_HEAD@
  00742	57		 push	 edi
  00743	ff d6		 call	 esi

; 749  : 	PyModule_AddIntConstant(poModule, "ARMOR_SHIELD",				CItemData::ARMOR_SHIELD);

  00745	6a 02		 push	 2
  00747	68 00 00 00 00	 push	 OFFSET ??_C@_0N@HJFKCCG@ARMOR_SHIELD@
  0074c	57		 push	 edi
  0074d	ff d6		 call	 esi

; 750  : 	PyModule_AddIntConstant(poModule, "ARMOR_WRIST",				CItemData::ARMOR_WRIST);

  0074f	6a 03		 push	 3
  00751	68 00 00 00 00	 push	 OFFSET ??_C@_0M@KCKGDACD@ARMOR_WRIST@
  00756	57		 push	 edi
  00757	ff d6		 call	 esi

; 751  : 	PyModule_AddIntConstant(poModule, "ARMOR_FOOTS",				CItemData::ARMOR_FOOTS);

  00759	6a 04		 push	 4
  0075b	68 00 00 00 00	 push	 OFFSET ??_C@_0M@JNDJGNLA@ARMOR_FOOTS@
  00760	57		 push	 edi
  00761	ff d6		 call	 esi

; 752  : 	PyModule_AddIntConstant(poModule, "ARMOR_NECK",					CItemData::ARMOR_NECK);

  00763	6a 05		 push	 5
  00765	68 00 00 00 00	 push	 OFFSET ??_C@_0L@ICPFEDJE@ARMOR_NECK@
  0076a	57		 push	 edi
  0076b	ff d6		 call	 esi

; 753  : 	PyModule_AddIntConstant(poModule, "ARMOR_EAR",					CItemData::ARMOR_EAR);

  0076d	6a 06		 push	 6
  0076f	68 00 00 00 00	 push	 OFFSET ??_C@_09JPGIMBID@ARMOR_EAR@
  00774	57		 push	 edi
  00775	ff d6		 call	 esi
  00777	83 c4 48	 add	 esp, 72			; 00000048H

; 754  : 	
; 755  : 	PyModule_AddIntConstant(poModule, "ITEM_APPLY_MAX_NUM",			CItemData::ITEM_APPLY_MAX_NUM);

  0077a	6a 03		 push	 3
  0077c	68 00 00 00 00	 push	 OFFSET ??_C@_0BD@POBJPMPE@ITEM_APPLY_MAX_NUM@
  00781	57		 push	 edi
  00782	ff d6		 call	 esi

; 756  : 	PyModule_AddIntConstant(poModule, "ITEM_SOCKET_MAX_NUM",		CItemData::ITEM_SOCKET_MAX_NUM);

  00784	6a 03		 push	 3
  00786	68 00 00 00 00	 push	 OFFSET ??_C@_0BE@PABFDMOM@ITEM_SOCKET_MAX_NUM@
  0078b	57		 push	 edi
  0078c	ff d6		 call	 esi

; 757  : 
; 758  : 	PyModule_AddIntConstant(poModule, "APPLY_NONE",					CItemData::APPLY_NONE);

  0078e	6a 00		 push	 0
  00790	68 00 00 00 00	 push	 OFFSET ??_C@_0L@KOOBDLCP@APPLY_NONE@
  00795	57		 push	 edi
  00796	ff d6		 call	 esi

; 759  : 	PyModule_AddIntConstant(poModule, "APPLY_STR",					CItemData::APPLY_STR);

  00798	6a 05		 push	 5
  0079a	68 00 00 00 00	 push	 OFFSET ??_C@_09GCJAEOHJ@APPLY_STR@
  0079f	57		 push	 edi
  007a0	ff d6		 call	 esi

; 760  : 	PyModule_AddIntConstant(poModule, "APPLY_DEX",					CItemData::APPLY_DEX);

  007a2	6a 06		 push	 6
  007a4	68 00 00 00 00	 push	 OFFSET ??_C@_09EIFFAAJC@APPLY_DEX@
  007a9	57		 push	 edi
  007aa	ff d6		 call	 esi

; 761  : 	PyModule_AddIntConstant(poModule, "APPLY_CON",					CItemData::APPLY_CON);

  007ac	6a 03		 push	 3
  007ae	68 00 00 00 00	 push	 OFFSET ??_C@_09MEINAICK@APPLY_CON@
  007b3	57		 push	 edi
  007b4	ff d6		 call	 esi
  007b6	83 c4 48	 add	 esp, 72			; 00000048H

; 762  : 	PyModule_AddIntConstant(poModule, "APPLY_INT",					CItemData::APPLY_INT);

  007b9	6a 04		 push	 4
  007bb	68 00 00 00 00	 push	 OFFSET ??_C@_09BKNPHIKC@APPLY_INT@
  007c0	57		 push	 edi
  007c1	ff d6		 call	 esi

; 763  : 	PyModule_AddIntConstant(poModule, "APPLY_MAX_HP",				CItemData::APPLY_MAX_HP);

  007c3	6a 01		 push	 1
  007c5	68 00 00 00 00	 push	 OFFSET ??_C@_0N@LMMDFALA@APPLY_MAX_HP@
  007ca	57		 push	 edi
  007cb	ff d6		 call	 esi

; 764  : 	PyModule_AddIntConstant(poModule, "APPLY_MAX_SP",				CItemData::APPLY_MAX_SP);

  007cd	6a 02		 push	 2
  007cf	68 00 00 00 00	 push	 OFFSET ??_C@_0N@KMLABMCB@APPLY_MAX_SP@
  007d4	57		 push	 edi
  007d5	ff d6		 call	 esi

; 765  : 	PyModule_AddIntConstant(poModule, "APPLY_HP_REGEN",				CItemData::APPLY_HP_REGEN);

  007d7	6a 0a		 push	 10			; 0000000aH
  007d9	68 00 00 00 00	 push	 OFFSET ??_C@_0P@CBOEJMBC@APPLY_HP_REGEN@
  007de	57		 push	 edi
  007df	ff d6		 call	 esi

; 766  : 	PyModule_AddIntConstant(poModule, "APPLY_SP_REGEN",				CItemData::APPLY_SP_REGEN);

  007e1	6a 0b		 push	 11			; 0000000bH
  007e3	68 00 00 00 00	 push	 OFFSET ??_C@_0P@PHBEALO@APPLY_SP_REGEN@
  007e8	57		 push	 edi
  007e9	ff d6		 call	 esi

; 767  : 	PyModule_AddIntConstant(poModule, "APPLY_DEF_GRADE_BONUS",		CItemData::APPLY_DEF_GRADE_BONUS);

  007eb	6a 36		 push	 54			; 00000036H
  007ed	68 00 00 00 00	 push	 OFFSET ??_C@_0BG@DJGIDNN@APPLY_DEF_GRADE_BONUS@
  007f2	57		 push	 edi
  007f3	ff d6		 call	 esi
  007f5	83 c4 48	 add	 esp, 72			; 00000048H

; 768  : 	PyModule_AddIntConstant(poModule, "APPLY_ATT_GRADE_BONUS",		CItemData::APPLY_ATT_GRADE_BONUS);

  007f8	6a 35		 push	 53			; 00000035H
  007fa	68 00 00 00 00	 push	 OFFSET ??_C@_0BG@DIKOCKN@APPLY_ATT_GRADE_BONUS@
  007ff	57		 push	 edi
  00800	ff d6		 call	 esi

; 769  : 	PyModule_AddIntConstant(poModule, "APPLY_ATT_SPEED",			CItemData::APPLY_ATT_SPEED);

  00802	6a 07		 push	 7
  00804	68 00 00 00 00	 push	 OFFSET ??_C@_0BA@PBNDFNHA@APPLY_ATT_SPEED@
  00809	57		 push	 edi
  0080a	ff d6		 call	 esi

; 770  : 	PyModule_AddIntConstant(poModule, "APPLY_MOV_SPEED",			CItemData::APPLY_MOV_SPEED);

  0080c	6a 08		 push	 8
  0080e	68 00 00 00 00	 push	 OFFSET ??_C@_0BA@IHFPGGCP@APPLY_MOV_SPEED@
  00813	57		 push	 edi
  00814	ff d6		 call	 esi

; 771  : 	PyModule_AddIntConstant(poModule, "APPLY_CAST_SPEED",			CItemData::APPLY_CAST_SPEED);

  00816	6a 09		 push	 9
  00818	68 00 00 00 00	 push	 OFFSET ??_C@_0BB@IMPHMAIN@APPLY_CAST_SPEED@
  0081d	57		 push	 edi
  0081e	ff d6		 call	 esi

; 772  : 	PyModule_AddIntConstant(poModule, "APPLY_MAGIC_ATT_GRADE",		CItemData::APPLY_MAGIC_ATT_GRADE);

  00820	6a 37		 push	 55			; 00000037H
  00822	68 00 00 00 00	 push	 OFFSET ??_C@_0BG@JIJNNLOL@APPLY_MAGIC_ATT_GRADE@
  00827	57		 push	 edi
  00828	ff d6		 call	 esi

; 773  : 	PyModule_AddIntConstant(poModule, "APPLY_MAGIC_DEF_GRADE",		CItemData::APPLY_MAGIC_DEF_GRADE);

  0082a	6a 38		 push	 56			; 00000038H
  0082c	68 00 00 00 00	 push	 OFFSET ??_C@_0BG@PLJBHAML@APPLY_MAGIC_DEF_GRADE@
  00831	57		 push	 edi
  00832	ff d6		 call	 esi
  00834	83 c4 48	 add	 esp, 72			; 00000048H

; 774  : 	PyModule_AddIntConstant(poModule, "APPLY_SKILL",				CItemData::APPLY_SKILL);

  00837	6a 33		 push	 51			; 00000033H
  00839	68 00 00 00 00	 push	 OFFSET ??_C@_0M@CPHNGINI@APPLY_SKILL@
  0083e	57		 push	 edi
  0083f	ff d6		 call	 esi

; 775  :     PyModule_AddIntConstant(poModule, "APPLY_ATTBONUS_ANIMAL",		CItemData::APPLY_ATTBONUS_ANIMAL);

  00841	6a 12		 push	 18			; 00000012H
  00843	68 00 00 00 00	 push	 OFFSET ??_C@_0BG@FCHNFPKG@APPLY_ATTBONUS_ANIMAL@
  00848	57		 push	 edi
  00849	ff d6		 call	 esi

; 776  :     PyModule_AddIntConstant(poModule, "APPLY_ATTBONUS_UNDEAD",		CItemData::APPLY_ATTBONUS_UNDEAD);

  0084b	6a 15		 push	 21			; 00000015H
  0084d	68 00 00 00 00	 push	 OFFSET ??_C@_0BG@DEBBIBCN@APPLY_ATTBONUS_UNDEAD@
  00852	57		 push	 edi
  00853	ff d6		 call	 esi

; 777  :     PyModule_AddIntConstant(poModule, "APPLY_ATTBONUS_DEVIL", 		CItemData::APPLY_ATTBONUS_DEVIL);

  00855	6a 16		 push	 22			; 00000016H
  00857	68 00 00 00 00	 push	 OFFSET ??_C@_0BF@PHBHKMPC@APPLY_ATTBONUS_DEVIL@
  0085c	57		 push	 edi
  0085d	ff d6		 call	 esi

; 778  :     PyModule_AddIntConstant(poModule, "APPLY_ATTBONUS_HUMAN",		CItemData::APPLY_ATTBONUS_HUMAN);

  0085f	6a 11		 push	 17			; 00000011H
  00861	68 00 00 00 00	 push	 OFFSET ??_C@_0BF@FLAIBIKP@APPLY_ATTBONUS_HUMAN@
  00866	57		 push	 edi
  00867	ff d6		 call	 esi

; 779  :     PyModule_AddIntConstant(poModule, "APPLY_BOW_DISTANCE", 		CItemData::APPLY_BOW_DISTANCE);

  00869	6a 34		 push	 52			; 00000034H
  0086b	68 00 00 00 00	 push	 OFFSET ??_C@_0BD@DGLENODO@APPLY_BOW_DISTANCE@
  00870	57		 push	 edi
  00871	ff d6		 call	 esi
  00873	83 c4 48	 add	 esp, 72			; 00000048H

; 780  :     PyModule_AddIntConstant(poModule, "APPLY_RESIST_BOW", 			CItemData::APPLY_RESIST_BOW);

  00876	6a 22		 push	 34			; 00000022H
  00878	68 00 00 00 00	 push	 OFFSET ??_C@_0BB@KEIAGOOG@APPLY_RESIST_BOW@
  0087d	57		 push	 edi
  0087e	ff d6		 call	 esi

; 781  :     PyModule_AddIntConstant(poModule, "APPLY_RESIST_FIRE", 			CItemData::APPLY_RESIST_FIRE);

  00880	6a 23		 push	 35			; 00000023H
  00882	68 00 00 00 00	 push	 OFFSET ??_C@_0BC@BCODEHJE@APPLY_RESIST_FIRE@
  00887	57		 push	 edi
  00888	ff d6		 call	 esi

; 782  :     PyModule_AddIntConstant(poModule, "APPLY_RESIST_ELEC", 			CItemData::APPLY_RESIST_ELEC);

  0088a	6a 24		 push	 36			; 00000024H
  0088c	68 00 00 00 00	 push	 OFFSET ??_C@_0BC@CNKONPAF@APPLY_RESIST_ELEC@
  00891	57		 push	 edi
  00892	ff d6		 call	 esi

; 783  :     PyModule_AddIntConstant(poModule, "APPLY_RESIST_MAGIC", 		CItemData::APPLY_RESIST_MAGIC);

  00894	6a 25		 push	 37			; 00000025H
  00896	68 00 00 00 00	 push	 OFFSET ??_C@_0BD@BIEOENBH@APPLY_RESIST_MAGIC@
  0089b	57		 push	 edi
  0089c	ff d6		 call	 esi

; 784  :     PyModule_AddIntConstant(poModule, "APPLY_POISON_PCT",			CItemData::APPLY_POISON_PCT);

  0089e	6a 0c		 push	 12			; 0000000cH
  008a0	68 00 00 00 00	 push	 OFFSET ??_C@_0BB@OFEPEABG@APPLY_POISON_PCT@
  008a5	57		 push	 edi
  008a6	ff d6		 call	 esi

; 785  :     PyModule_AddIntConstant(poModule, "APPLY_SLOW_PCT", 			CItemData::APPLY_SLOW_PCT);

  008a8	6a 0e		 push	 14			; 0000000eH
  008aa	68 00 00 00 00	 push	 OFFSET ??_C@_0P@EAEIAPML@APPLY_SLOW_PCT@
  008af	57		 push	 edi
  008b0	ff d6		 call	 esi
  008b2	83 c4 48	 add	 esp, 72			; 00000048H

; 786  :     PyModule_AddIntConstant(poModule, "APPLY_STUN_PCT", 			CItemData::APPLY_STUN_PCT);

  008b5	6a 0d		 push	 13			; 0000000dH
  008b7	68 00 00 00 00	 push	 OFFSET ??_C@_0P@IGBLFIG@APPLY_STUN_PCT@
  008bc	57		 push	 edi
  008bd	ff d6		 call	 esi

; 787  : 	PyModule_AddIntConstant(poModule, "APPLY_CRITICAL_PCT",			CItemData::APPLY_CRITICAL_PCT);			// n%   

  008bf	6a 0f		 push	 15			; 0000000fH
  008c1	68 00 00 00 00	 push	 OFFSET ??_C@_0BD@DOHBCDEC@APPLY_CRITICAL_PCT@
  008c6	57		 push	 edi
  008c7	ff d6		 call	 esi

; 788  : 	PyModule_AddIntConstant(poModule, "APPLY_PENETRATE_PCT",		CItemData::APPLY_PENETRATE_PCT);		// n%    

  008c9	6a 10		 push	 16			; 00000010H
  008cb	68 00 00 00 00	 push	 OFFSET ??_C@_0BE@MIHOPHBF@APPLY_PENETRATE_PCT@
  008d0	57		 push	 edi
  008d1	ff d6		 call	 esi

; 789  : 	PyModule_AddIntConstant(poModule, "APPLY_ATTBONUS_ORC",			CItemData::APPLY_ATTBONUS_ORC);			//  n%  

  008d3	6a 13		 push	 19			; 00000013H
  008d5	68 00 00 00 00	 push	 OFFSET ??_C@_0BD@GHNBCFFK@APPLY_ATTBONUS_ORC@
  008da	57		 push	 edi
  008db	ff d6		 call	 esi

; 790  : 	PyModule_AddIntConstant(poModule, "APPLY_ATTBONUS_MILGYO",		CItemData::APPLY_ATTBONUS_MILGYO);		//  n%  

  008dd	6a 14		 push	 20			; 00000014H
  008df	68 00 00 00 00	 push	 OFFSET ??_C@_0BG@BGJNMLHF@APPLY_ATTBONUS_MILGYO@
  008e4	57		 push	 edi
  008e5	ff d6		 call	 esi

; 791  : 	PyModule_AddIntConstant(poModule, "APPLY_ATTBONUS_UNDEAD",		CItemData::APPLY_ATTBONUS_UNDEAD);		//  n%  

  008e7	6a 15		 push	 21			; 00000015H
  008e9	68 00 00 00 00	 push	 OFFSET ??_C@_0BG@DEBBIBCN@APPLY_ATTBONUS_UNDEAD@
  008ee	57		 push	 edi
  008ef	ff d6		 call	 esi
  008f1	83 c4 48	 add	 esp, 72			; 00000048H

; 792  : 	PyModule_AddIntConstant(poModule, "APPLY_ATTBONUS_DEVIL",		CItemData::APPLY_ATTBONUS_DEVIL);		//  n%  

  008f4	6a 16		 push	 22			; 00000016H
  008f6	68 00 00 00 00	 push	 OFFSET ??_C@_0BF@PHBHKMPC@APPLY_ATTBONUS_DEVIL@
  008fb	57		 push	 edi
  008fc	ff d6		 call	 esi

; 793  : 	PyModule_AddIntConstant(poModule, "APPLY_STEAL_HP",				CItemData::APPLY_STEAL_HP);				// n%   10%   

  008fe	6a 17		 push	 23			; 00000017H
  00900	68 00 00 00 00	 push	 OFFSET ??_C@_0P@IJPDEMHM@APPLY_STEAL_HP@
  00905	57		 push	 edi
  00906	ff d6		 call	 esi

; 794  : 	PyModule_AddIntConstant(poModule, "APPLY_STEAL_SP",				CItemData::APPLY_STEAL_SP);				// n%   10%   

  00908	6a 18		 push	 24			; 00000018H
  0090a	68 00 00 00 00	 push	 OFFSET ??_C@_0P@JJIAAAON@APPLY_STEAL_SP@
  0090f	57		 push	 edi
  00910	ff d6		 call	 esi

; 795  : 	PyModule_AddIntConstant(poModule, "APPLY_MANA_BURN_PCT",		CItemData::APPLY_MANA_BURN_PCT);		// n%    

  00912	6a 19		 push	 25			; 00000019H
  00914	68 00 00 00 00	 push	 OFFSET ??_C@_0BE@MMJAOBJI@APPLY_MANA_BURN_PCT@
  00919	57		 push	 edi
  0091a	ff d6		 call	 esi

; 796  : 	PyModule_AddIntConstant(poModule, "APPLY_DAMAGE_SP_RECOVER",	CItemData::APPLY_DAMAGE_SP_RECOVER);	// n%   2 

  0091c	6a 1a		 push	 26			; 0000001aH
  0091e	68 00 00 00 00	 push	 OFFSET ??_C@_0BI@CNPFJGMF@APPLY_DAMAGE_SP_RECOVER@
  00923	57		 push	 edi
  00924	ff d6		 call	 esi

; 797  : 	PyModule_AddIntConstant(poModule, "APPLY_BLOCK",				CItemData::APPLY_BLOCK);				// n%    

  00926	6a 1b		 push	 27			; 0000001bH
  00928	68 00 00 00 00	 push	 OFFSET ??_C@_0M@DEKBOLNA@APPLY_BLOCK@
  0092d	57		 push	 edi
  0092e	ff d6		 call	 esi
  00930	83 c4 48	 add	 esp, 72			; 00000048H

; 798  : 	PyModule_AddIntConstant(poModule, "APPLY_DODGE",				CItemData::APPLY_DODGE);				// n%    

  00933	6a 1c		 push	 28			; 0000001cH
  00935	68 00 00 00 00	 push	 OFFSET ??_C@_0M@OLNDHAEO@APPLY_DODGE@
  0093a	57		 push	 edi
  0093b	ff d6		 call	 esi

; 799  : 	PyModule_AddIntConstant(poModule, "APPLY_RESIST_SWORD",			CItemData::APPLY_RESIST_SWORD);			//    n% 

  0093d	6a 1d		 push	 29			; 0000001dH
  0093f	68 00 00 00 00	 push	 OFFSET ??_C@_0BD@FELELOGH@APPLY_RESIST_SWORD@
  00944	57		 push	 edi
  00945	ff d6		 call	 esi

; 800  : 	PyModule_AddIntConstant(poModule, "APPLY_RESIST_TWOHAND",		CItemData::APPLY_RESIST_TWOHAND);		//    n% 

  00947	6a 1e		 push	 30			; 0000001eH
  00949	68 00 00 00 00	 push	 OFFSET ??_C@_0BF@PPDPGLJM@APPLY_RESIST_TWOHAND@
  0094e	57		 push	 edi
  0094f	ff d6		 call	 esi

; 801  : 	PyModule_AddIntConstant(poModule, "APPLY_RESIST_DAGGER",		CItemData::APPLY_RESIST_DAGGER);		//    n% 

  00951	6a 1f		 push	 31			; 0000001fH
  00953	68 00 00 00 00	 push	 OFFSET ??_C@_0BE@HKIMLKAO@APPLY_RESIST_DAGGER@
  00958	57		 push	 edi
  00959	ff d6		 call	 esi

; 802  : 	PyModule_AddIntConstant(poModule, "APPLY_RESIST_BELL",			CItemData::APPLY_RESIST_BELL);			//    n% 

  0095b	6a 20		 push	 32			; 00000020H
  0095d	68 00 00 00 00	 push	 OFFSET ??_C@_0BC@GKMPGLNP@APPLY_RESIST_BELL@
  00962	57		 push	 edi
  00963	ff d6		 call	 esi

; 803  : 	PyModule_AddIntConstant(poModule, "APPLY_RESIST_FAN",			CItemData::APPLY_RESIST_FAN);			//    n% 

  00965	6a 21		 push	 33			; 00000021H
  00967	68 00 00 00 00	 push	 OFFSET ??_C@_0BB@LKHMHNKD@APPLY_RESIST_FAN@
  0096c	57		 push	 edi
  0096d	ff d6		 call	 esi
  0096f	83 c4 48	 add	 esp, 72			; 00000048H

; 804  : 	PyModule_AddIntConstant(poModule, "APPLY_RESIST_WIND",			CItemData::APPLY_RESIST_WIND);			//    n% 

  00972	6a 26		 push	 38			; 00000026H
  00974	68 00 00 00 00	 push	 OFFSET ??_C@_0BC@EDEEJCPD@APPLY_RESIST_WIND@
  00979	57		 push	 edi
  0097a	ff d6		 call	 esi

; 805  : 	PyModule_AddIntConstant(poModule, "APPLY_REFLECT_MELEE",		CItemData::APPLY_REFLECT_MELEE);		//   n%   

  0097c	6a 27		 push	 39			; 00000027H
  0097e	68 00 00 00 00	 push	 OFFSET ??_C@_0BE@JKECBGFJ@APPLY_REFLECT_MELEE@
  00983	57		 push	 edi
  00984	ff d6		 call	 esi

; 806  : 	PyModule_AddIntConstant(poModule, "APPLY_REFLECT_CURSE",		CItemData::APPLY_REFLECT_CURSE);		//     n%  

  00986	6a 28		 push	 40			; 00000028H
  00988	68 00 00 00 00	 push	 OFFSET ??_C@_0BE@GIMFBPMF@APPLY_REFLECT_CURSE@
  0098d	57		 push	 edi
  0098e	ff d6		 call	 esi

; 807  : 	PyModule_AddIntConstant(poModule, "APPLY_POISON_REDUCE",		CItemData::APPLY_POISON_REDUCE);		//    

  00990	6a 29		 push	 41			; 00000029H
  00992	68 00 00 00 00	 push	 OFFSET ??_C@_0BE@CMJGNONM@APPLY_POISON_REDUCE@
  00997	57		 push	 edi
  00998	ff d6		 call	 esi

; 808  : 	PyModule_AddIntConstant(poModule, "APPLY_KILL_SP_RECOVER",		CItemData::APPLY_KILL_SP_RECOVER);		//   n%   10 

  0099a	6a 2a		 push	 42			; 0000002aH
  0099c	68 00 00 00 00	 push	 OFFSET ??_C@_0BG@NAAMOKGC@APPLY_KILL_SP_RECOVER@
  009a1	57		 push	 edi
  009a2	ff d6		 call	 esi

; 809  : 	PyModule_AddIntConstant(poModule, "APPLY_EXP_DOUBLE_BONUS",		CItemData::APPLY_EXP_DOUBLE_BONUS);		// n%    2

  009a4	6a 2b		 push	 43			; 0000002bH
  009a6	68 00 00 00 00	 push	 OFFSET ??_C@_0BH@BOFCHNGC@APPLY_EXP_DOUBLE_BONUS@
  009ab	57		 push	 edi
  009ac	ff d6		 call	 esi
  009ae	83 c4 48	 add	 esp, 72			; 00000048H

; 810  : 	PyModule_AddIntConstant(poModule, "APPLY_GOLD_DOUBLE_BONUS",	CItemData::APPLY_GOLD_DOUBLE_BONUS);	// n%    2

  009b1	6a 2c		 push	 44			; 0000002cH
  009b3	68 00 00 00 00	 push	 OFFSET ??_C@_0BI@CPGCKKHM@APPLY_GOLD_DOUBLE_BONUS@
  009b8	57		 push	 edi
  009b9	ff d6		 call	 esi

; 811  : 	PyModule_AddIntConstant(poModule, "APPLY_ITEM_DROP_BONUS",		CItemData::APPLY_ITEM_DROP_BONUS);		// n%    2

  009bb	6a 2d		 push	 45			; 0000002dH
  009bd	68 00 00 00 00	 push	 OFFSET ??_C@_0BG@GJLPLNJK@APPLY_ITEM_DROP_BONUS@
  009c2	57		 push	 edi
  009c3	ff d6		 call	 esi

; 812  : 	PyModule_AddIntConstant(poModule, "APPLY_POTION_BONUS",			CItemData::APPLY_POTION_BONUS);			//   n%   

  009c5	6a 2e		 push	 46			; 0000002eH
  009c7	68 00 00 00 00	 push	 OFFSET ??_C@_0BD@HAABJCED@APPLY_POTION_BONUS@
  009cc	57		 push	 edi
  009cd	ff d6		 call	 esi

; 813  : 	PyModule_AddIntConstant(poModule, "APPLY_KILL_HP_RECOVER",		CItemData::APPLY_KILL_HP_RECOVER);		//    

  009cf	6a 2f		 push	 47			; 0000002fH
  009d1	68 00 00 00 00	 push	 OFFSET ??_C@_0BG@FNNLKJON@APPLY_KILL_HP_RECOVER@
  009d6	57		 push	 edi
  009d7	ff d6		 call	 esi

; 814  : 	PyModule_AddIntConstant(poModule, "APPLY_IMMUNE_STUN",			CItemData::APPLY_IMMUNE_STUN);			//   

  009d9	6a 30		 push	 48			; 00000030H
  009db	68 00 00 00 00	 push	 OFFSET ??_C@_0BC@GMOGAEGD@APPLY_IMMUNE_STUN@
  009e0	57		 push	 edi
  009e1	ff d6		 call	 esi

; 815  : 	PyModule_AddIntConstant(poModule, "APPLY_IMMUNE_SLOW",			CItemData::APPLY_IMMUNE_SLOW);			//  

  009e3	6a 31		 push	 49			; 00000031H
  009e5	68 00 00 00 00	 push	 OFFSET ??_C@_0BC@HDPKPEKN@APPLY_IMMUNE_SLOW@
  009ea	57		 push	 edi
  009eb	ff d6		 call	 esi
  009ed	83 c4 48	 add	 esp, 72			; 00000048H

; 816  : 	PyModule_AddIntConstant(poModule, "APPLY_IMMUNE_FALL",			CItemData::APPLY_IMMUNE_FALL);			//  

  009f0	6a 32		 push	 50			; 00000032H
  009f2	68 00 00 00 00	 push	 OFFSET ??_C@_0BC@ICOAEBEB@APPLY_IMMUNE_FALL@
  009f7	57		 push	 edi
  009f8	ff d6		 call	 esi

; 817  : 	PyModule_AddIntConstant(poModule, "APPLY_MAX_STAMINA",			CItemData::APPLY_MAX_STAMINA);			//   

  009fa	6a 3a		 push	 58			; 0000003aH
  009fc	68 00 00 00 00	 push	 OFFSET ??_C@_0BC@MENAELHN@APPLY_MAX_STAMINA@
  00a01	57		 push	 edi
  00a02	ff d6		 call	 esi

; 818  : 	PyModule_AddIntConstant(poModule, "APPLY_ATTBONUS_WARRIOR",		CItemData::APPLY_ATT_BONUS_TO_WARRIOR);

  00a04	6a 3b		 push	 59			; 0000003bH
  00a06	68 00 00 00 00	 push	 OFFSET ??_C@_0BH@LHKFGIKM@APPLY_ATTBONUS_WARRIOR@
  00a0b	57		 push	 edi
  00a0c	ff d6		 call	 esi

; 819  : 	PyModule_AddIntConstant(poModule, "APPLY_ATTBONUS_ASSASSIN",	CItemData::APPLY_ATT_BONUS_TO_ASSASSIN);

  00a0e	6a 3c		 push	 60			; 0000003cH
  00a10	68 00 00 00 00	 push	 OFFSET ??_C@_0BI@FDLAHFJJ@APPLY_ATTBONUS_ASSASSIN@
  00a15	57		 push	 edi
  00a16	ff d6		 call	 esi

; 820  : 	PyModule_AddIntConstant(poModule, "APPLY_ATTBONUS_SURA",		CItemData::APPLY_ATT_BONUS_TO_SURA);

  00a18	6a 3d		 push	 61			; 0000003dH
  00a1a	68 00 00 00 00	 push	 OFFSET ??_C@_0BE@EHJIJMPG@APPLY_ATTBONUS_SURA@
  00a1f	57		 push	 edi
  00a20	ff d6		 call	 esi

; 821  : 	PyModule_AddIntConstant(poModule, "APPLY_ATTBONUS_SHAMAN",		CItemData::APPLY_ATT_BONUS_TO_SHAMAN);

  00a22	6a 3e		 push	 62			; 0000003eH
  00a24	68 00 00 00 00	 push	 OFFSET ??_C@_0BG@HGCDBIBP@APPLY_ATTBONUS_SHAMAN@
  00a29	57		 push	 edi
  00a2a	ff d6		 call	 esi
  00a2c	83 c4 48	 add	 esp, 72			; 00000048H

; 822  : 	PyModule_AddIntConstant(poModule, "APPLY_ATTBONUS_MONSTER",		CItemData::APPLY_ATT_BONUS_TO_MONSTER);

  00a2f	6a 3f		 push	 63			; 0000003fH
  00a31	68 00 00 00 00	 push	 OFFSET ??_C@_0BH@OMHBNPNG@APPLY_ATTBONUS_MONSTER@
  00a36	57		 push	 edi
  00a37	ff d6		 call	 esi

; 823  : 	PyModule_AddIntConstant(poModule, "APPLY_MALL_ATTBONUS",		CItemData::APPLY_MALL_ATTBONUS);

  00a39	6a 40		 push	 64			; 00000040H
  00a3b	68 00 00 00 00	 push	 OFFSET ??_C@_0BE@INMGAFDB@APPLY_MALL_ATTBONUS@
  00a40	57		 push	 edi
  00a41	ff d6		 call	 esi

; 824  : 	PyModule_AddIntConstant(poModule, "APPLY_MALL_DEFBONUS",		CItemData::APPLY_MALL_DEFBONUS);

  00a43	6a 41		 push	 65			; 00000041H
  00a45	68 00 00 00 00	 push	 OFFSET ??_C@_0BE@IHABPMCM@APPLY_MALL_DEFBONUS@
  00a4a	57		 push	 edi
  00a4b	ff d6		 call	 esi

; 825  : 	PyModule_AddIntConstant(poModule, "APPLY_MALL_EXPBONUS",		CItemData::APPLY_MALL_EXPBONUS);

  00a4d	6a 42		 push	 66			; 00000042H
  00a4f	68 00 00 00 00	 push	 OFFSET ??_C@_0BE@HDMKGFGB@APPLY_MALL_EXPBONUS@
  00a54	57		 push	 edi
  00a55	ff d6		 call	 esi

; 826  : 	PyModule_AddIntConstant(poModule, "APPLY_MALL_ITEMBONUS",		CItemData::APPLY_MALL_ITEMBONUS);

  00a57	6a 43		 push	 67			; 00000043H
  00a59	68 00 00 00 00	 push	 OFFSET ??_C@_0BF@JHCAFPEC@APPLY_MALL_ITEMBONUS@
  00a5e	57		 push	 edi
  00a5f	ff d6		 call	 esi

; 827  : 	PyModule_AddIntConstant(poModule, "APPLY_MALL_GOLDBONUS",		CItemData::APPLY_MALL_GOLDBONUS);

  00a61	6a 44		 push	 68			; 00000044H
  00a63	68 00 00 00 00	 push	 OFFSET ??_C@_0BF@CNKLONKF@APPLY_MALL_GOLDBONUS@
  00a68	57		 push	 edi
  00a69	ff d6		 call	 esi
  00a6b	83 c4 48	 add	 esp, 72			; 00000048H

; 828  : 	PyModule_AddIntConstant(poModule, "APPLY_MAX_HP_PCT",			CItemData::APPLY_MAX_HP_PCT);

  00a6e	6a 45		 push	 69			; 00000045H
  00a70	68 00 00 00 00	 push	 OFFSET ??_C@_0BB@IOILOHHB@APPLY_MAX_HP_PCT@
  00a75	57		 push	 edi
  00a76	ff d6		 call	 esi

; 829  : 	PyModule_AddIntConstant(poModule, "APPLY_MAX_SP_PCT",			CItemData::APPLY_MAX_SP_PCT);

  00a78	6a 46		 push	 70			; 00000046H
  00a7a	68 00 00 00 00	 push	 OFFSET ??_C@_0BB@OLFCCPEF@APPLY_MAX_SP_PCT@
  00a7f	57		 push	 edi
  00a80	ff d6		 call	 esi

; 830  : 	PyModule_AddIntConstant(poModule, "APPLY_SKILL_DAMAGE_BONUS",		CItemData::APPLY_SKILL_DAMAGE_BONUS);

  00a82	6a 47		 push	 71			; 00000047H
  00a84	68 00 00 00 00	 push	 OFFSET ??_C@_0BJ@ILJOEJMP@APPLY_SKILL_DAMAGE_BONUS@
  00a89	57		 push	 edi
  00a8a	ff d6		 call	 esi

; 831  : 	PyModule_AddIntConstant(poModule, "APPLY_NORMAL_HIT_DAMAGE_BONUS",	CItemData::APPLY_NORMAL_HIT_DAMAGE_BONUS);

  00a8c	6a 48		 push	 72			; 00000048H
  00a8e	68 00 00 00 00	 push	 OFFSET ??_C@_0BO@KJDLNPKH@APPLY_NORMAL_HIT_DAMAGE_BONUS@
  00a93	57		 push	 edi
  00a94	ff d6		 call	 esi

; 832  : 	PyModule_AddIntConstant(poModule, "APPLY_SKILL_DEFEND_BONUS",		CItemData::APPLY_SKILL_DEFEND_BONUS);

  00a96	6a 49		 push	 73			; 00000049H
  00a98	68 00 00 00 00	 push	 OFFSET ??_C@_0BJ@MCFLODEL@APPLY_SKILL_DEFEND_BONUS@
  00a9d	57		 push	 edi
  00a9e	ff d6		 call	 esi

; 833  : 	PyModule_AddIntConstant(poModule, "APPLY_NORMAL_HIT_DEFEND_BONUS",	CItemData::APPLY_NORMAL_HIT_DEFEND_BONUS);

  00aa0	6a 4a		 push	 74			; 0000004aH
  00aa2	68 00 00 00 00	 push	 OFFSET ??_C@_0BO@OAPOHFCD@APPLY_NORMAL_HIT_DEFEND_BONUS@
  00aa7	57		 push	 edi
  00aa8	ff d6		 call	 esi
  00aaa	83 c4 48	 add	 esp, 72			; 00000048H

; 834  : 
; 835  : 	PyModule_AddIntConstant(poModule, "APPLY_PC_BANG_EXP_BONUS",	CItemData::APPLY_PC_BANG_EXP_BONUS);

  00aad	6a 4c		 push	 76			; 0000004cH
  00aaf	68 00 00 00 00	 push	 OFFSET ??_C@_0BI@MMJMNMDE@APPLY_PC_BANG_EXP_BONUS@
  00ab4	57		 push	 edi
  00ab5	ff d6		 call	 esi

; 836  : 	PyModule_AddIntConstant(poModule, "APPLY_PC_BANG_DROP_BONUS",	CItemData::APPLY_PC_BANG_DROP_BONUS);

  00ab7	6a 4d		 push	 77			; 0000004dH
  00ab9	68 00 00 00 00	 push	 OFFSET ??_C@_0BJ@MIHJNNLH@APPLY_PC_BANG_DROP_BONUS@
  00abe	57		 push	 edi
  00abf	ff d6		 call	 esi

; 837  : 
; 838  : 	PyModule_AddIntConstant(poModule, "APPLY_RESIST_WARRIOR",	CItemData::APPLY_RESIST_WARRIOR );

  00ac1	6a 4e		 push	 78			; 0000004eH
  00ac3	68 00 00 00 00	 push	 OFFSET ??_C@_0BF@DIEIKMOC@APPLY_RESIST_WARRIOR@
  00ac8	57		 push	 edi
  00ac9	ff d6		 call	 esi

; 839  : 	PyModule_AddIntConstant(poModule, "APPLY_RESIST_ASSASSIN",	CItemData::APPLY_RESIST_ASSASSIN );

  00acb	6a 4f		 push	 79			; 0000004fH
  00acd	68 00 00 00 00	 push	 OFFSET ??_C@_0BG@MCFLPEMK@APPLY_RESIST_ASSASSIN@
  00ad2	57		 push	 edi
  00ad3	ff d6		 call	 esi

; 840  : 	PyModule_AddIntConstant(poModule, "APPLY_RESIST_SURA",		CItemData::APPLY_RESIST_SURA );

  00ad5	6a 50		 push	 80			; 00000050H
  00ad7	68 00 00 00 00	 push	 OFFSET ??_C@_0BC@MEEAHCEF@APPLY_RESIST_SURA@
  00adc	57		 push	 edi
  00add	ff d6		 call	 esi

; 841  : 	PyModule_AddIntConstant(poModule, "APPLY_RESIST_SHAMAN",	CItemData::APPLY_RESIST_SHAMAN );

  00adf	6a 51		 push	 81			; 00000051H
  00ae1	68 00 00 00 00	 push	 OFFSET ??_C@_0BE@POHJKJMD@APPLY_RESIST_SHAMAN@
  00ae6	57		 push	 edi
  00ae7	ff d6		 call	 esi
  00ae9	83 c4 48	 add	 esp, 72			; 00000048H

; 842  : 	PyModule_AddIntConstant(poModule, "APPLY_ENERGY",	CItemData::APPLY_ENERGY );		// 

  00aec	6a 52		 push	 82			; 00000052H
  00aee	68 00 00 00 00	 push	 OFFSET ??_C@_0N@MOPONLJI@APPLY_ENERGY@
  00af3	57		 push	 edi
  00af4	ff d6		 call	 esi

; 843  : 	PyModule_AddIntConstant(poModule, "APPLY_COSTUME_ATTR_BONUS",	CItemData::APPLY_COSTUME_ATTR_BONUS );		

  00af6	6a 54		 push	 84			; 00000054H
  00af8	68 00 00 00 00	 push	 OFFSET ??_C@_0BJ@IGOAELFN@APPLY_COSTUME_ATTR_BONUS@
  00afd	57		 push	 edi
  00afe	ff d6		 call	 esi

; 844  : 
; 845  : 	PyModule_AddIntConstant(poModule, "APPLY_MAGIC_ATTBONUS_PER",	CItemData::APPLY_MAGIC_ATTBONUS_PER );		

  00b00	6a 55		 push	 85			; 00000055H
  00b02	68 00 00 00 00	 push	 OFFSET ??_C@_0BJ@JJJKDKFC@APPLY_MAGIC_ATTBONUS_PER@
  00b07	57		 push	 edi
  00b08	ff d6		 call	 esi

; 846  : 	PyModule_AddIntConstant(poModule, "APPLY_MELEE_MAGIC_ATTBONUS_PER",	CItemData::APPLY_MELEE_MAGIC_ATTBONUS_PER );		

  00b0a	6a 56		 push	 86			; 00000056H
  00b0c	68 00 00 00 00	 push	 OFFSET ??_C@_0BP@MGKGKJGA@APPLY_MELEE_MAGIC_ATTBONUS_PER@
  00b11	57		 push	 edi
  00b12	ff d6		 call	 esi

; 847  : 	PyModule_AddIntConstant(poModule, "APPLY_RESIST_ICE",	CItemData::APPLY_RESIST_ICE );		

  00b14	6a 57		 push	 87			; 00000057H
  00b16	68 00 00 00 00	 push	 OFFSET ??_C@_0BB@CGPGAFA@APPLY_RESIST_ICE@
  00b1b	57		 push	 edi
  00b1c	ff d6		 call	 esi

; 848  : 	PyModule_AddIntConstant(poModule, "APPLY_RESIST_EARTH",	CItemData::APPLY_RESIST_EARTH );		

  00b1e	6a 58		 push	 88			; 00000058H
  00b20	68 00 00 00 00	 push	 OFFSET ??_C@_0BD@GENAIBDP@APPLY_RESIST_EARTH@
  00b25	57		 push	 edi
  00b26	ff d6		 call	 esi
  00b28	83 c4 48	 add	 esp, 72			; 00000048H

; 849  : 	PyModule_AddIntConstant(poModule, "APPLY_RESIST_DARK",	CItemData::APPLY_RESIST_DARK );		

  00b2b	6a 59		 push	 89			; 00000059H
  00b2d	68 00 00 00 00	 push	 OFFSET ??_C@_0BC@DDBEBBJF@APPLY_RESIST_DARK@
  00b32	57		 push	 edi
  00b33	ff d6		 call	 esi

; 850  : 	PyModule_AddIntConstant(poModule, "APPLY_ANTI_CRITICAL_PCT",	CItemData::APPLY_ANTI_CRITICAL_PCT );		

  00b35	6a 5a		 push	 90			; 0000005aH
  00b37	68 00 00 00 00	 push	 OFFSET ??_C@_0BI@KIMFHHIO@APPLY_ANTI_CRITICAL_PCT@
  00b3c	57		 push	 edi
  00b3d	ff d6		 call	 esi

; 851  : 	PyModule_AddIntConstant(poModule, "APPLY_ANTI_PENETRATE_PCT",	CItemData::APPLY_ANTI_PENETRATE_PCT );		

  00b3f	6a 5b		 push	 91			; 0000005bH
  00b41	68 00 00 00 00	 push	 OFFSET ??_C@_0BJ@FKDKMNNK@APPLY_ANTI_PENETRATE_PCT@
  00b46	57		 push	 edi
  00b47	ff d6		 call	 esi
  00b49	83 c4 24	 add	 esp, 36			; 00000024H
  00b4c	5f		 pop	 edi
  00b4d	5e		 pop	 esi

; 852  : }

  00b4e	c3		 ret	 0
?initItem@@YAXXZ ENDP					; initItem
_TEXT	ENDS
END
