; Listing generated by Microsoft (R) Optimizing Compiler Version 19.34.31937.0 

	TITLE	e:\metin2_server\solwaynesf v6\clientvs22\vs_files\userinterface\distribute\pythonshop.obj
	.686P
	.XMM
	include listing.inc
	.model	flat

INCLUDELIB OLDNAMES

PUBLIC	??_C@_0FC@PFANBFHB@Out?5of?5Index?4?5tabIdx?$CI?$CFd?$CJ?5must?5b@ ; `string'
PUBLIC	??_C@_0CP@FJEENICJ@Out?5of?5Index?4?5tabIdx?$CI?$CFd?$CJ?5must?5b@ ; `string'
PUBLIC	??_C@_06DKEIEPKC@IsOpen@			; `string'
PUBLIC	??_C@_04DNCDCIAE@Open@				; `string'
PUBLIC	??_C@_0BI@HHPKCPJD@IsMainPlayerPrivateShop@	; `string'
PUBLIC	??_C@_0O@EDCBOPPA@IsPrivateShop@		; `string'
PUBLIC	??_C@_0M@PGHDAHMM@GetTabCount@			; `string'
PUBLIC	??_C@_0N@OIFMMAOE@GetItemPrice@			; `string'
PUBLIC	??_C@_0P@CFALBIIJ@GetTabCoinType@		; `string'
PUBLIC	??_C@_0L@HEMHLKHB@GetTabName@			; `string'
PUBLIC	??_C@_0BI@JLNKJOOM@AddPrivateShopItemStock@	; `string'
PUBLIC	??_C@_0BG@BMKKEDKK@ClearPrivateShopStock@	; `string'
PUBLIC	??_C@_0BI@KLFPJJHF@GetPrivateShopItemPrice@	; `string'
PUBLIC	??_C@_0BI@FBMJKJEA@DelPrivateShopItemStock@	; `string'
PUBLIC	??_C@_04BFIJLIPK@shop@				; `string'
PUBLIC	??_C@_0BB@MDMPBIAN@BuildPrivateShop@		; `string'
PUBLIC	??_C@_0BE@FOBHCAAH@SHOP_COIN_TYPE_GOLD@		; `string'
PUBLIC	??_C@_0BA@MMIAEKCC@SHOP_SLOT_COUNT@		; `string'
PUBLIC	??_C@_0BO@GEPHLMDC@SHOP_COIN_TYPE_SECONDARY_COIN@ ; `string'
PUBLIC	??_R2CPythonShop@@8				; CPythonShop::`RTTI Base Class Array'
PUBLIC	??_R2?$CSingleton@VCPythonShop@@@@8		; CSingleton<CPythonShop>::`RTTI Base Class Array'
PUBLIC	??_R1A@?0A@EA@?$CSingleton@VCPythonShop@@@@8	; CSingleton<CPythonShop>::`RTTI Base Class Descriptor at (0,-1,0,64)'
PUBLIC	??_R1A@?0A@EA@CPythonShop@@8			; CPythonShop::`RTTI Base Class Descriptor at (0,-1,0,64)'
PUBLIC	??_R3?$CSingleton@VCPythonShop@@@@8		; CSingleton<CPythonShop>::`RTTI Class Hierarchy Descriptor'
PUBLIC	??_R3CPythonShop@@8				; CPythonShop::`RTTI Class Hierarchy Descriptor'
PUBLIC	??_R0?AV?$CSingleton@VCPythonShop@@@@@8		; CSingleton<CPythonShop> `RTTI Type Descriptor'
PUBLIC	??_R0?AVCPythonShop@@@8				; CPythonShop `RTTI Type Descriptor'
PUBLIC	??_R4?$CSingleton@VCPythonShop@@@@6B@		; CSingleton<CPythonShop>::`RTTI Complete Object Locator'
PUBLIC	??_R4CPythonShop@@6B@				; CPythonShop::`RTTI Complete Object Locator'
PUBLIC	??_7?$CSingleton@VCPythonShop@@@@6B@		; CSingleton<CPythonShop>::`vftable'
PUBLIC	??_7CPythonShop@@6B@				; CPythonShop::`vftable'
;	COMDAT ??_7CPythonShop@@6B@
CONST	SEGMENT
??_7CPythonShop@@6B@ DD FLAT:??_R4CPythonShop@@6B@	; CPythonShop::`vftable'
	DD	FLAT:??_ECPythonShop@@UAEPAXI@Z
CONST	ENDS
;	COMDAT ?s_methods@?1??initshop@@YAXXZ@4PAUPyMethodDef@@A
_DATA	SEGMENT
?s_methods@?1??initshop@@YAXXZ@4PAUPyMethodDef@@A DD FLAT:??_C@_04DNCDCIAE@Open@ ; `initshop'::`2'::s_methods
	DD	FLAT:?shopOpen@@YAPAU_object@@PAU1@0@Z
	DD	01H
	ORG $+4
	DD	FLAT:??_C@_05LGELBCGM@Close@
	DD	FLAT:?shopClose@@YAPAU_object@@PAU1@0@Z
	DD	01H
	ORG $+4
	DD	FLAT:??_C@_06DKEIEPKC@IsOpen@
	DD	FLAT:?shopIsOpen@@YAPAU_object@@PAU1@0@Z
	DD	01H
	ORG $+4
	DD	FLAT:??_C@_0O@EDCBOPPA@IsPrivateShop@
	DD	FLAT:?shopIsPrviateShop@@YAPAU_object@@PAU1@0@Z
	DD	01H
	ORG $+4
	DD	FLAT:??_C@_0BI@HHPKCPJD@IsMainPlayerPrivateShop@
	DD	FLAT:?shopIsMainPlayerPrivateShop@@YAPAU_object@@PAU1@0@Z
	DD	01H
	ORG $+4
	DD	FLAT:??_C@_09GMBNEEAB@GetItemID@
	DD	FLAT:?shopGetItemID@@YAPAU_object@@PAU1@0@Z
	DD	01H
	ORG $+4
	DD	FLAT:??_C@_0N@LEKALLIG@GetItemCount@
	DD	FLAT:?shopGetItemCount@@YAPAU_object@@PAU1@0@Z
	DD	01H
	ORG $+4
	DD	FLAT:??_C@_0N@OIFMMAOE@GetItemPrice@
	DD	FLAT:?shopGetItemPrice@@YAPAU_object@@PAU1@0@Z
	DD	01H
	ORG $+4
	DD	FLAT:??_C@_0BD@JBOBKHIE@GetItemMetinSocket@
	DD	FLAT:?shopGetItemMetinSocket@@YAPAU_object@@PAU1@0@Z
	DD	01H
	ORG $+4
	DD	FLAT:??_C@_0BB@GOKPPDHH@GetItemAttribute@
	DD	FLAT:?shopGetItemAttribute@@YAPAU_object@@PAU1@0@Z
	DD	01H
	ORG $+4
	DD	FLAT:??_C@_0M@PGHDAHMM@GetTabCount@
	DD	FLAT:?shopGetTabCount@@YAPAU_object@@PAU1@0@Z
	DD	01H
	ORG $+4
	DD	FLAT:??_C@_0L@HEMHLKHB@GetTabName@
	DD	FLAT:?shopGetTabName@@YAPAU_object@@PAU1@0@Z
	DD	01H
	ORG $+4
	DD	FLAT:??_C@_0P@CFALBIIJ@GetTabCoinType@
	DD	FLAT:?shopGetTabCoinType@@YAPAU_object@@PAU1@0@Z
	DD	01H
	ORG $+4
	DD	FLAT:??_C@_0BG@BMKKEDKK@ClearPrivateShopStock@
	DD	FLAT:?shopClearPrivateShopStock@@YAPAU_object@@PAU1@0@Z
	DD	01H
	ORG $+4
	DD	FLAT:??_C@_0BI@JLNKJOOM@AddPrivateShopItemStock@
	DD	FLAT:?shopAddPrivateShopItemStock@@YAPAU_object@@PAU1@0@Z
	DD	01H
	ORG $+4
	DD	FLAT:??_C@_0BI@FBMJKJEA@DelPrivateShopItemStock@
	DD	FLAT:?shopDelPrivateShopItemStock@@YAPAU_object@@PAU1@0@Z
	DD	01H
	ORG $+4
	DD	FLAT:??_C@_0BI@KLFPJJHF@GetPrivateShopItemPrice@
	DD	FLAT:?shopGetPrivateShopItemPrice@@YAPAU_object@@PAU1@0@Z
	DD	01H
	ORG $+4
	DD	FLAT:??_C@_0BB@MDMPBIAN@BuildPrivateShop@
	DD	FLAT:?shopBuildPrivateShop@@YAPAU_object@@PAU1@0@Z
	DD	01H
	ORG $+4
	DD	00H
	DD	00H
	DD	00H
	ORG $+4
_DATA	ENDS
;	COMDAT ??_7?$CSingleton@VCPythonShop@@@@6B@
CONST	SEGMENT
??_7?$CSingleton@VCPythonShop@@@@6B@ DD FLAT:??_R4?$CSingleton@VCPythonShop@@@@6B@ ; CSingleton<CPythonShop>::`vftable'
	DD	FLAT:??_E?$CSingleton@VCPythonShop@@@@UAEPAXI@Z
CONST	ENDS
;	COMDAT ??_R4CPythonShop@@6B@
rdata$r	SEGMENT
??_R4CPythonShop@@6B@ DD 00H				; CPythonShop::`RTTI Complete Object Locator'
	DD	00H
	DD	00H
	DD	FLAT:??_R0?AVCPythonShop@@@8
	DD	FLAT:??_R3CPythonShop@@8
rdata$r	ENDS
;	COMDAT ??_R4?$CSingleton@VCPythonShop@@@@6B@
rdata$r	SEGMENT
??_R4?$CSingleton@VCPythonShop@@@@6B@ DD 00H		; CSingleton<CPythonShop>::`RTTI Complete Object Locator'
	DD	00H
	DD	00H
	DD	FLAT:??_R0?AV?$CSingleton@VCPythonShop@@@@@8
	DD	FLAT:??_R3?$CSingleton@VCPythonShop@@@@8
rdata$r	ENDS
;	COMDAT ??_R0?AVCPythonShop@@@8
data$rs	SEGMENT
??_R0?AVCPythonShop@@@8 DD FLAT:??_7type_info@@6B@	; CPythonShop `RTTI Type Descriptor'
	DD	00H
	DB	'.?AVCPythonShop@@', 00H
data$rs	ENDS
;	COMDAT ??_R0?AV?$CSingleton@VCPythonShop@@@@@8
data$rs	SEGMENT
??_R0?AV?$CSingleton@VCPythonShop@@@@@8 DD FLAT:??_7type_info@@6B@ ; CSingleton<CPythonShop> `RTTI Type Descriptor'
	DD	00H
	DB	'.?AV?$CSingleton@VCPythonShop@@@@', 00H
data$rs	ENDS
;	COMDAT ??_R3CPythonShop@@8
rdata$r	SEGMENT
??_R3CPythonShop@@8 DD 00H				; CPythonShop::`RTTI Class Hierarchy Descriptor'
	DD	00H
	DD	02H
	DD	FLAT:??_R2CPythonShop@@8
rdata$r	ENDS
;	COMDAT ??_R3?$CSingleton@VCPythonShop@@@@8
rdata$r	SEGMENT
??_R3?$CSingleton@VCPythonShop@@@@8 DD 00H		; CSingleton<CPythonShop>::`RTTI Class Hierarchy Descriptor'
	DD	00H
	DD	01H
	DD	FLAT:??_R2?$CSingleton@VCPythonShop@@@@8
rdata$r	ENDS
;	COMDAT ??_R1A@?0A@EA@CPythonShop@@8
rdata$r	SEGMENT
??_R1A@?0A@EA@CPythonShop@@8 DD FLAT:??_R0?AVCPythonShop@@@8 ; CPythonShop::`RTTI Base Class Descriptor at (0,-1,0,64)'
	DD	01H
	DD	00H
	DD	0ffffffffH
	DD	00H
	DD	040H
	DD	FLAT:??_R3CPythonShop@@8
rdata$r	ENDS
;	COMDAT ??_R1A@?0A@EA@?$CSingleton@VCPythonShop@@@@8
rdata$r	SEGMENT
??_R1A@?0A@EA@?$CSingleton@VCPythonShop@@@@8 DD FLAT:??_R0?AV?$CSingleton@VCPythonShop@@@@@8 ; CSingleton<CPythonShop>::`RTTI Base Class Descriptor at (0,-1,0,64)'
	DD	00H
	DD	00H
	DD	0ffffffffH
	DD	00H
	DD	040H
	DD	FLAT:??_R3?$CSingleton@VCPythonShop@@@@8
rdata$r	ENDS
;	COMDAT ??_R2?$CSingleton@VCPythonShop@@@@8
rdata$r	SEGMENT
??_R2?$CSingleton@VCPythonShop@@@@8 DD FLAT:??_R1A@?0A@EA@?$CSingleton@VCPythonShop@@@@8 ; CSingleton<CPythonShop>::`RTTI Base Class Array'
rdata$r	ENDS
;	COMDAT ??_R2CPythonShop@@8
rdata$r	SEGMENT
??_R2CPythonShop@@8 DD FLAT:??_R1A@?0A@EA@CPythonShop@@8 ; CPythonShop::`RTTI Base Class Array'
	DD	FLAT:??_R1A@?0A@EA@?$CSingleton@VCPythonShop@@@@8
rdata$r	ENDS
;	COMDAT ??_C@_0BO@GEPHLMDC@SHOP_COIN_TYPE_SECONDARY_COIN@
CONST	SEGMENT
??_C@_0BO@GEPHLMDC@SHOP_COIN_TYPE_SECONDARY_COIN@ DB 'SHOP_COIN_TYPE_SECO'
	DB	'NDARY_COIN', 00H				; `string'
CONST	ENDS
;	COMDAT ??_C@_0BA@MMIAEKCC@SHOP_SLOT_COUNT@
CONST	SEGMENT
??_C@_0BA@MMIAEKCC@SHOP_SLOT_COUNT@ DB 'SHOP_SLOT_COUNT', 00H ; `string'
CONST	ENDS
;	COMDAT ??_C@_0BE@FOBHCAAH@SHOP_COIN_TYPE_GOLD@
CONST	SEGMENT
??_C@_0BE@FOBHCAAH@SHOP_COIN_TYPE_GOLD@ DB 'SHOP_COIN_TYPE_GOLD', 00H ; `string'
CONST	ENDS
;	COMDAT ??_C@_0BB@MDMPBIAN@BuildPrivateShop@
CONST	SEGMENT
??_C@_0BB@MDMPBIAN@BuildPrivateShop@ DB 'BuildPrivateShop', 00H ; `string'
CONST	ENDS
;	COMDAT ??_C@_04BFIJLIPK@shop@
CONST	SEGMENT
??_C@_04BFIJLIPK@shop@ DB 'shop', 00H			; `string'
CONST	ENDS
;	COMDAT ??_C@_0BI@FBMJKJEA@DelPrivateShopItemStock@
CONST	SEGMENT
??_C@_0BI@FBMJKJEA@DelPrivateShopItemStock@ DB 'DelPrivateShopItemStock', 00H ; `string'
CONST	ENDS
;	COMDAT ??_C@_0BI@KLFPJJHF@GetPrivateShopItemPrice@
CONST	SEGMENT
??_C@_0BI@KLFPJJHF@GetPrivateShopItemPrice@ DB 'GetPrivateShopItemPrice', 00H ; `string'
CONST	ENDS
;	COMDAT ??_C@_0BG@BMKKEDKK@ClearPrivateShopStock@
CONST	SEGMENT
??_C@_0BG@BMKKEDKK@ClearPrivateShopStock@ DB 'ClearPrivateShopStock', 00H ; `string'
CONST	ENDS
;	COMDAT ??_C@_0BI@JLNKJOOM@AddPrivateShopItemStock@
CONST	SEGMENT
??_C@_0BI@JLNKJOOM@AddPrivateShopItemStock@ DB 'AddPrivateShopItemStock', 00H ; `string'
CONST	ENDS
;	COMDAT ??_C@_0L@HEMHLKHB@GetTabName@
CONST	SEGMENT
??_C@_0L@HEMHLKHB@GetTabName@ DB 'GetTabName', 00H	; `string'
CONST	ENDS
;	COMDAT ??_C@_0P@CFALBIIJ@GetTabCoinType@
CONST	SEGMENT
??_C@_0P@CFALBIIJ@GetTabCoinType@ DB 'GetTabCoinType', 00H ; `string'
CONST	ENDS
;	COMDAT ??_C@_0N@OIFMMAOE@GetItemPrice@
CONST	SEGMENT
??_C@_0N@OIFMMAOE@GetItemPrice@ DB 'GetItemPrice', 00H	; `string'
CONST	ENDS
;	COMDAT ??_C@_0M@PGHDAHMM@GetTabCount@
CONST	SEGMENT
??_C@_0M@PGHDAHMM@GetTabCount@ DB 'GetTabCount', 00H	; `string'
CONST	ENDS
;	COMDAT ??_C@_0O@EDCBOPPA@IsPrivateShop@
CONST	SEGMENT
??_C@_0O@EDCBOPPA@IsPrivateShop@ DB 'IsPrivateShop', 00H ; `string'
CONST	ENDS
;	COMDAT ??_C@_0BI@HHPKCPJD@IsMainPlayerPrivateShop@
CONST	SEGMENT
??_C@_0BI@HHPKCPJD@IsMainPlayerPrivateShop@ DB 'IsMainPlayerPrivateShop', 00H ; `string'
CONST	ENDS
;	COMDAT ??_C@_04DNCDCIAE@Open@
CONST	SEGMENT
??_C@_04DNCDCIAE@Open@ DB 'Open', 00H			; `string'
CONST	ENDS
;	COMDAT ??_C@_06DKEIEPKC@IsOpen@
CONST	SEGMENT
??_C@_06DKEIEPKC@IsOpen@ DB 'IsOpen', 00H		; `string'
CONST	ENDS
;	COMDAT ??_C@_0CP@FJEENICJ@Out?5of?5Index?4?5tabIdx?$CI?$CFd?$CJ?5must?5b@
CONST	SEGMENT
??_C@_0CP@FJEENICJ@Out?5of?5Index?4?5tabIdx?$CI?$CFd?$CJ?5must?5b@ DB 'Ou'
	DB	't of Index. tabIdx(%d) must be less than %d.', 00H ; `string'
CONST	ENDS
;	COMDAT ??_C@_0FC@PFANBFHB@Out?5of?5Index?4?5tabIdx?$CI?$CFd?$CJ?5must?5b@
CONST	SEGMENT
??_C@_0FC@PFANBFHB@Out?5of?5Index?4?5tabIdx?$CI?$CFd?$CJ?5must?5b@ DB 'Ou'
	DB	't of Index. tabIdx(%d) must be less than %d. dwSlotPos(%d) mu'
	DB	'st be less than %d', 00H			; `string'
PUBLIC	??MSItemPos@@QBE_NABU0@@Z			; SItemPos::operator<
PUBLIC	??$forward@USItemPos@@@std@@YA$$QAUSItemPos@@AAU1@@Z ; std::forward<SItemPos>
PUBLIC	??$construct_at@PAU?$_Tree_node@U?$pair@$$CBUSItemPos@@USShopItemTable@@@std@@PAX@std@@AAPAU12@$0A@@std@@YAPAPAU?$_Tree_node@U?$pair@$$CBUSItemPos@@USShopItemTable@@@std@@PAX@0@QAPAU10@AAPAU10@@Z ; std::construct_at<std::_Tree_node<std::pair<SItemPos const ,SShopItemTable>,void *> *,std::_Tree_node<std::pair<SItemPos const ,SShopItemTable>,void *> * &,0>
PUBLIC	??$_Voidify_iter@PAU?$pair@$$CBUSItemPos@@USShopItemTable@@@std@@@std@@YAPAXPAU?$pair@$$CBUSItemPos@@USShopItemTable@@@0@@Z ; std::_Voidify_iter<std::pair<SItemPos const ,SShopItemTable> *>
PUBLIC	??$construct_at@U?$pair@$$CBUSItemPos@@USShopItemTable@@@std@@U?$pair@USItemPos@@USShopItemTable@@@2@$0A@@std@@YAPAU?$pair@$$CBUSItemPos@@USShopItemTable@@@0@QAU10@$$QAU?$pair@USItemPos@@USShopItemTable@@@0@@Z ; std::construct_at<std::pair<SItemPos const ,SShopItemTable>,std::pair<SItemPos,SShopItemTable>,0>
PUBLIC	??$?0USItemPos@@USShopItemTable@@$0A@@?$pair@$$CBUSItemPos@@USShopItemTable@@@std@@QAE@$$QAU?$pair@USItemPos@@USShopItemTable@@@1@@Z ; std::pair<SItemPos const ,SShopItemTable>::pair<SItemPos const ,SShopItemTable><SItemPos,SShopItemTable,0>
PUBLIC	??$forward@AAPAUSShopItemTable@@@std@@YAAAPAUSShopItemTable@@AAPAU1@@Z ; std::forward<SShopItemTable * &>
PUBLIC	??$swap@USShopItemTable@@$0A@@std@@YAXAAUSShopItemTable@@0@Z ; std::swap<SShopItemTable,0>
PUBLIC	??$_Med3_unchecked@PAUSShopItemTable@@UItemStockSortFunc@@@std@@YAXPAUSShopItemTable@@00UItemStockSortFunc@@@Z ; std::_Med3_unchecked<SShopItemTable *,ItemStockSortFunc>
PUBLIC	??$_Pop_heap_hole_unchecked@PAUSShopItemTable@@U1@UItemStockSortFunc@@@std@@YAXPAUSShopItemTable@@00$$QAU1@UItemStockSortFunc@@@Z ; std::_Pop_heap_hole_unchecked<SShopItemTable *,SShopItemTable,ItemStockSortFunc>
PUBLIC	??$_Push_heap_by_index@PAUSShopItemTable@@U1@UItemStockSortFunc@@@std@@YAXPAUSShopItemTable@@HH$$QAU1@UItemStockSortFunc@@@Z ; std::_Push_heap_by_index<SShopItemTable *,SShopItemTable,ItemStockSortFunc>
PUBLIC	??$_Copy_backward_memmove@PAUSShopItemTable@@PAU1@@std@@YAPAUSShopItemTable@@PAU1@00@Z ; std::_Copy_backward_memmove<SShopItemTable *,SShopItemTable *>
PUBLIC	??$forward@PAU?$_Tree_node@U?$pair@$$CBUSItemPos@@USShopItemTable@@@std@@PAX@std@@@std@@YA$$QAPAU?$_Tree_node@U?$pair@$$CBUSItemPos@@USShopItemTable@@@std@@PAX@0@AAPAU10@@Z ; std::forward<std::_Tree_node<std::pair<SItemPos const ,SShopItemTable>,void *> *>
PUBLIC	??$_Construct_in_place@PAU?$_Tree_node@U?$pair@$$CBUSItemPos@@USShopItemTable@@@std@@PAX@std@@AAPAU12@@std@@YAXAAPAU?$_Tree_node@U?$pair@$$CBUSItemPos@@USShopItemTable@@@std@@PAX@0@0@Z ; std::_Construct_in_place<std::_Tree_node<std::pair<SItemPos const ,SShopItemTable>,void *> *,std::_Tree_node<std::pair<SItemPos const ,SShopItemTable>,void *> * &>
PUBLIC	??$construct@U?$pair@$$CBUSItemPos@@USShopItemTable@@@std@@U?$pair@USItemPos@@USShopItemTable@@@2@@?$_Default_allocator_traits@V?$allocator@U?$_Tree_node@U?$pair@$$CBUSItemPos@@USShopItemTable@@@std@@PAX@std@@@std@@@std@@SAXAAV?$allocator@U?$_Tree_node@U?$pair@$$CBUSItemPos@@USShopItemTable@@@std@@PAX@std@@@1@QAU?$pair@$$CBUSItemPos@@USShopItemTable@@@1@$$QAU?$pair@USItemPos@@USShopItemTable@@@1@@Z ; std::_Default_allocator_traits<std::allocator<std::_Tree_node<std::pair<SItemPos const ,SShopItemTable>,void *> > >::construct<std::pair<SItemPos const ,SShopItemTable>,std::pair<SItemPos,SShopItemTable> >
PUBLIC	??0?$_Alloc_construct_ptr@V?$allocator@U?$_Tree_node@U?$pair@$$CBUSItemPos@@USShopItemTable@@@std@@PAX@std@@@std@@@std@@QAE@AAV?$allocator@U?$_Tree_node@U?$pair@$$CBUSItemPos@@USShopItemTable@@@std@@PAX@std@@@1@@Z ; std::_Alloc_construct_ptr<std::allocator<std::_Tree_node<std::pair<SItemPos const ,SShopItemTable>,void *> > >::_Alloc_construct_ptr<std::allocator<std::_Tree_node<std::pair<SItemPos const ,SShopItemTable>,void *> > >
PUBLIC	?_Allocate@?$_Alloc_construct_ptr@V?$allocator@U?$_Tree_node@U?$pair@$$CBUSItemPos@@USShopItemTable@@@std@@PAX@std@@@std@@@std@@QAEXXZ ; std::_Alloc_construct_ptr<std::allocator<std::_Tree_node<std::pair<SItemPos const ,SShopItemTable>,void *> > >::_Allocate
PUBLIC	??0?$_Tree_temp_node_alloc@V?$allocator@U?$_Tree_node@U?$pair@$$CBUSItemPos@@USShopItemTable@@@std@@PAX@std@@@std@@@std@@QAE@AAV?$allocator@U?$_Tree_node@U?$pair@$$CBUSItemPos@@USShopItemTable@@@std@@PAX@std@@@1@@Z ; std::_Tree_temp_node_alloc<std::allocator<std::_Tree_node<std::pair<SItemPos const ,SShopItemTable>,void *> > >::_Tree_temp_node_alloc<std::allocator<std::_Tree_node<std::pair<SItemPos const ,SShopItemTable>,void *> > >
PUBLIC	??$exchange@PAU?$_Tree_node@U?$pair@$$CBUSItemPos@@USShopItemTable@@@std@@PAX@std@@$$T@std@@YAPAU?$_Tree_node@U?$pair@$$CBUSItemPos@@USShopItemTable@@@std@@PAX@0@AAPAU10@$$QA$$T@Z ; std::exchange<std::_Tree_node<std::pair<SItemPos const ,SShopItemTable>,void *> *,std::nullptr_t>
PUBLIC	??$construct_at@USShopItemTable@@U1@$0A@@std@@YAPAUSShopItemTable@@QAU1@$$QAU1@@Z ; std::construct_at<SShopItemTable,SShopItemTable,0>
PUBLIC	??$_Voidify_iter@PAUSShopItemTable@@@std@@YAPAXPAUSShopItemTable@@@Z ; std::_Voidify_iter<SShopItemTable *>
PUBLIC	??$construct_at@USShopItemTable@@ABU1@$0A@@std@@YAPAUSShopItemTable@@QAU1@ABU1@@Z ; std::construct_at<SShopItemTable,SShopItemTable const &,0>
PUBLIC	??$addressof@USShopItemTable@@@std@@YAPAUSShopItemTable@@AAU1@@Z ; std::addressof<SShopItemTable>
PUBLIC	??$?0AAPAUSShopItemTable@@AAPAU0@$0A@@?$pair@PAUSShopItemTable@@PAU1@@std@@QAE@AAPAUSShopItemTable@@0@Z ; std::pair<SShopItemTable *,SShopItemTable *>::pair<SShopItemTable *,SShopItemTable *><SShopItemTable * &,SShopItemTable * &,0>
PUBLIC	??$iter_swap@PAUSShopItemTable@@PAU1@@std@@YAXPAUSShopItemTable@@0@Z ; std::iter_swap<SShopItemTable *,SShopItemTable *>
PUBLIC	??$_Next_iter@PAUSShopItemTable@@@std@@YAPAUSShopItemTable@@PAU1@@Z ; std::_Next_iter<SShopItemTable *>
PUBLIC	??$_Guess_median_unchecked@PAUSShopItemTable@@UItemStockSortFunc@@@std@@YAXPAUSShopItemTable@@00UItemStockSortFunc@@@Z ; std::_Guess_median_unchecked<SShopItemTable *,ItemStockSortFunc>
PUBLIC	??$_Prev_iter@PAUSShopItemTable@@@std@@YAPAUSShopItemTable@@PAU1@@Z ; std::_Prev_iter<SShopItemTable *>
PUBLIC	??$_Pop_heap_unchecked@PAUSShopItemTable@@UItemStockSortFunc@@@std@@YAXPAUSShopItemTable@@0UItemStockSortFunc@@@Z ; std::_Pop_heap_unchecked<SShopItemTable *,ItemStockSortFunc>
PUBLIC	??$_Pop_heap_hole_by_index@PAUSShopItemTable@@U1@UItemStockSortFunc@@@std@@YAXPAUSShopItemTable@@HH$$QAU1@UItemStockSortFunc@@@Z ; std::_Pop_heap_hole_by_index<SShopItemTable *,SShopItemTable,ItemStockSortFunc>
PUBLIC	??$_Move_backward_unchecked@PAUSShopItemTable@@PAU1@@std@@YAPAUSShopItemTable@@PAU1@00@Z ; std::_Move_backward_unchecked<SShopItemTable *,SShopItemTable *>
PUBLIC	??$forward@V?$_Tree_iterator@V?$_Tree_val@U?$_Tree_simple_types@U?$pair@$$CBUSItemPos@@USShopItemTable@@@std@@@std@@@std@@@std@@@std@@YA$$QAV?$_Tree_iterator@V?$_Tree_val@U?$_Tree_simple_types@U?$pair@$$CBUSItemPos@@USShopItemTable@@@std@@@std@@@std@@@0@AAV10@@Z ; std::forward<std::_Tree_iterator<std::_Tree_val<std::_Tree_simple_types<std::pair<SItemPos const ,SShopItemTable> > > > >
PUBLIC	??$?0PAU?$_Tree_node@U?$pair@$$CBUSItemPos@@USShopItemTable@@@std@@PAX@std@@_N$0A@@?$pair@PAU?$_Tree_node@U?$pair@$$CBUSItemPos@@USShopItemTable@@@std@@PAX@std@@_N@std@@QAE@$$QAPAU?$_Tree_node@U?$pair@$$CBUSItemPos@@USShopItemTable@@@std@@PAX@1@$$QA_N@Z ; std::pair<std::_Tree_node<std::pair<SItemPos const ,SShopItemTable>,void *> *,bool>::pair<std::_Tree_node<std::pair<SItemPos const ,SShopItemTable>,void *> *,bool><std::_Tree_node<std::pair<SItemPos const ,SShopItemTable>,void *> *,bool,0>
PUBLIC	??$?0AAPAU?$_Tree_node@U?$pair@$$CBUSItemPos@@USShopItemTable@@@std@@PAX@std@@_N$0A@@?$pair@PAU?$_Tree_node@U?$pair@$$CBUSItemPos@@USShopItemTable@@@std@@PAX@std@@_N@std@@QAE@AAPAU?$_Tree_node@U?$pair@$$CBUSItemPos@@USShopItemTable@@@std@@PAX@1@$$QA_N@Z ; std::pair<std::_Tree_node<std::pair<SItemPos const ,SShopItemTable>,void *> *,bool>::pair<std::_Tree_node<std::pair<SItemPos const ,SShopItemTable>,void *> *,bool><std::_Tree_node<std::pair<SItemPos const ,SShopItemTable>,void *> * &,bool,0>
PUBLIC	??$?0U?$pair@USItemPos@@USShopItemTable@@@std@@@?$_Tree_temp_node@V?$allocator@U?$_Tree_node@U?$pair@$$CBUSItemPos@@USShopItemTable@@@std@@PAX@std@@@std@@@std@@QAE@AAV?$allocator@U?$_Tree_node@U?$pair@$$CBUSItemPos@@USShopItemTable@@@std@@PAX@std@@@1@PAU?$_Tree_node@U?$pair@$$CBUSItemPos@@USShopItemTable@@@std@@PAX@1@$$QAU?$pair@USItemPos@@USShopItemTable@@@1@@Z ; std::_Tree_temp_node<std::allocator<std::_Tree_node<std::pair<SItemPos const ,SShopItemTable>,void *> > >::_Tree_temp_node<std::allocator<std::_Tree_node<std::pair<SItemPos const ,SShopItemTable>,void *> > ><std::pair<SItemPos,SShopItemTable> >
PUBLIC	?_Get_first@?$_Compressed_pair@V?$allocator@U?$_Tree_node@U?$pair@$$CBUSItemPos@@USShopItemTable@@@std@@PAX@std@@@std@@V?$_Tree_val@U?$_Tree_simple_types@U?$pair@$$CBUSItemPos@@USShopItemTable@@@std@@@std@@@2@$00@std@@QBEABV?$allocator@U?$_Tree_node@U?$pair@$$CBUSItemPos@@USShopItemTable@@@std@@PAX@std@@@2@XZ ; std::_Compressed_pair<std::allocator<std::_Tree_node<std::pair<SItemPos const ,SShopItemTable>,void *> >,std::_Tree_val<std::_Tree_simple_types<std::pair<SItemPos const ,SShopItemTable> > >,1>::_Get_first
PUBLIC	?max_size@?$_Default_allocator_traits@V?$allocator@U?$_Tree_node@U?$pair@$$CBUSItemPos@@USShopItemTable@@@std@@PAX@std@@@std@@@std@@SAIABV?$allocator@U?$_Tree_node@U?$pair@$$CBUSItemPos@@USShopItemTable@@@std@@PAX@std@@@2@@Z ; std::_Default_allocator_traits<std::allocator<std::_Tree_node<std::pair<SItemPos const ,SShopItemTable>,void *> > >::max_size
PUBLIC	?_Getal@?$_Tree@V?$_Tmap_traits@USItemPos@@USShopItemTable@@U?$less@USItemPos@@@std@@V?$allocator@U?$pair@$$CBUSItemPos@@USShopItemTable@@@std@@@4@$0A@@std@@@std@@IBEABV?$allocator@U?$_Tree_node@U?$pair@$$CBUSItemPos@@USShopItemTable@@@std@@PAX@std@@@2@XZ ; std::_Tree<std::_Tmap_traits<SItemPos,SShopItemTable,std::less<SItemPos>,std::allocator<std::pair<SItemPos const ,SShopItemTable> >,0> >::_Getal
PUBLIC	?max_size@?$_Tree@V?$_Tmap_traits@USItemPos@@USShopItemTable@@U?$less@USItemPos@@@std@@V?$allocator@U?$pair@$$CBUSItemPos@@USShopItemTable@@@std@@@4@$0A@@std@@@std@@QBEIXZ ; std::_Tree<std::_Tmap_traits<SItemPos,SShopItemTable,std::less<SItemPos>,std::allocator<std::pair<SItemPos const ,SShopItemTable> >,0> >::max_size
PUBLIC	??1?$_Alloc_construct_ptr@V?$allocator@U?$_Tree_node@U?$pair@$$CBUSItemPos@@USShopItemTable@@@std@@PAX@std@@@std@@@std@@QAE@XZ ; std::_Alloc_construct_ptr<std::allocator<std::_Tree_node<std::pair<SItemPos const ,SShopItemTable>,void *> > >::~_Alloc_construct_ptr<std::allocator<std::_Tree_node<std::pair<SItemPos const ,SShopItemTable>,void *> > >
PUBLIC	??1?$_Tree_temp_node_alloc@V?$allocator@U?$_Tree_node@U?$pair@$$CBUSItemPos@@USShopItemTable@@@std@@PAX@std@@@std@@@std@@QAE@XZ ; std::_Tree_temp_node_alloc<std::allocator<std::_Tree_node<std::pair<SItemPos const ,SShopItemTable>,void *> > >::~_Tree_temp_node_alloc<std::allocator<std::_Tree_node<std::pair<SItemPos const ,SShopItemTable>,void *> > >
PUBLIC	?_Check_grow_by_1@?$_Tree@V?$_Tmap_traits@USItemPos@@USShopItemTable@@U?$less@USItemPos@@@std@@V?$allocator@U?$pair@$$CBUSItemPos@@USShopItemTable@@@std@@@4@$0A@@std@@@std@@IAEXXZ ; std::_Tree<std::_Tmap_traits<SItemPos,SShopItemTable,std::less<SItemPos>,std::allocator<std::pair<SItemPos const ,SShopItemTable> >,0> >::_Check_grow_by_1
PUBLIC	?_Insert_node@?$_Tree_val@U?$_Tree_simple_types@U?$pair@$$CBUSItemPos@@USShopItemTable@@@std@@@std@@@std@@QAEPAU?$_Tree_node@U?$pair@$$CBUSItemPos@@USShopItemTable@@@std@@PAX@2@U?$_Tree_id@PAU?$_Tree_node@U?$pair@$$CBUSItemPos@@USShopItemTable@@@std@@PAX@std@@@2@QAU32@@Z ; std::_Tree_val<std::_Tree_simple_types<std::pair<SItemPos const ,SShopItemTable> > >::_Insert_node
PUBLIC	?_Release@?$_Alloc_construct_ptr@V?$allocator@U?$_Tree_node@U?$pair@$$CBUSItemPos@@USShopItemTable@@@std@@PAX@std@@@std@@@std@@QAEPAU?$_Tree_node@U?$pair@$$CBUSItemPos@@USShopItemTable@@@std@@PAX@2@XZ ; std::_Alloc_construct_ptr<std::allocator<std::_Tree_node<std::pair<SItemPos const ,SShopItemTable>,void *> > >::_Release
PUBLIC	??1?$_Tree_temp_node@V?$allocator@U?$_Tree_node@U?$pair@$$CBUSItemPos@@USShopItemTable@@@std@@PAX@std@@@std@@@std@@QAE@XZ ; std::_Tree_temp_node<std::allocator<std::_Tree_node<std::pair<SItemPos const ,SShopItemTable>,void *> > >::~_Tree_temp_node<std::allocator<std::_Tree_node<std::pair<SItemPos const ,SShopItemTable>,void *> > >
PUBLIC	?_Extract@?$_In_place_key_extract_map@USItemPos@@U?$pair@USItemPos@@USShopItemTable@@@std@@@std@@SAABUSItemPos@@ABU?$pair@USItemPos@@USShopItemTable@@@2@@Z ; std::_In_place_key_extract_map<SItemPos,std::pair<SItemPos,SShopItemTable> >::_Extract
PUBLIC	??$destroy_at@U?$pair@$$CBUSItemPos@@USShopItemTable@@@std@@@std@@YAXQAU?$pair@$$CBUSItemPos@@USShopItemTable@@@0@@Z ; std::destroy_at<std::pair<SItemPos const ,SShopItemTable> >
PUBLIC	??$_Voidify_iter@PAPAU?$_Tree_node@U?$pair@$$CBUSItemPos@@USShopItemTable@@@std@@PAX@std@@@std@@YAPAXPAPAU?$_Tree_node@U?$pair@$$CBUSItemPos@@USShopItemTable@@@std@@PAX@0@@Z ; std::_Voidify_iter<std::_Tree_node<std::pair<SItemPos const ,SShopItemTable>,void *> * *>
PUBLIC	??$construct_at@PAU?$_Tree_node@U?$pair@$$CBUSItemPos@@USShopItemTable@@@std@@PAX@std@@ABQAU12@$0A@@std@@YAPAPAU?$_Tree_node@U?$pair@$$CBUSItemPos@@USShopItemTable@@@std@@PAX@0@QAPAU10@ABQAU10@@Z ; std::construct_at<std::_Tree_node<std::pair<SItemPos const ,SShopItemTable>,void *> *,std::_Tree_node<std::pair<SItemPos const ,SShopItemTable>,void *> * const &,0>
PUBLIC	??$forward@ABQAU?$_Tree_node@U?$pair@$$CBUSItemPos@@USShopItemTable@@@std@@PAX@std@@@std@@YAABQAU?$_Tree_node@U?$pair@$$CBUSItemPos@@USShopItemTable@@@std@@PAX@0@ABQAU10@@Z ; std::forward<std::_Tree_node<std::pair<SItemPos const ,SShopItemTable>,void *> * const &>
PUBLIC	??$addressof@PAU?$_Tree_node@U?$pair@$$CBUSItemPos@@USShopItemTable@@@std@@PAX@std@@@std@@YAPAPAU?$_Tree_node@U?$pair@$$CBUSItemPos@@USShopItemTable@@@std@@PAX@0@AAPAU10@@Z ; std::addressof<std::_Tree_node<std::pair<SItemPos const ,SShopItemTable>,void *> *>
PUBLIC	??$construct@USShopItemTable@@U1@@?$_Default_allocator_traits@V?$allocator@USShopItemTable@@@std@@@std@@SAXAAV?$allocator@USShopItemTable@@@1@QAUSShopItemTable@@$$QAU3@@Z ; std::_Default_allocator_traits<std::allocator<SShopItemTable> >::construct<SShopItemTable,SShopItemTable>
PUBLIC	??$forward@USShopItemTable@@@std@@YA$$QAUSShopItemTable@@AAU1@@Z ; std::forward<SShopItemTable>
PUBLIC	??$to_address@USShopItemTable@@@std@@YAPAUSShopItemTable@@QAU1@@Z ; std::to_address<SShopItemTable>
PUBLIC	??$_Destroy_in_place@PAU?$_Tree_node@U?$pair@$$CBUSItemPos@@USShopItemTable@@@std@@PAX@std@@@std@@YAXAAPAU?$_Tree_node@U?$pair@$$CBUSItemPos@@USShopItemTable@@@std@@PAX@0@@Z ; std::_Destroy_in_place<std::_Tree_node<std::pair<SItemPos const ,SShopItemTable>,void *> *>
PUBLIC	??$construct@USShopItemTable@@ABU1@@?$_Default_allocator_traits@V?$allocator@USShopItemTable@@@std@@@std@@SAXAAV?$allocator@USShopItemTable@@@1@QAUSShopItemTable@@ABU3@@Z ; std::_Default_allocator_traits<std::allocator<SShopItemTable> >::construct<SShopItemTable,SShopItemTable const &>
PUBLIC	??$_Construct_in_place@USShopItemTable@@ABU1@@std@@YAXAAUSShopItemTable@@ABU1@@Z ; std::_Construct_in_place<SShopItemTable,SShopItemTable const &>
PUBLIC	??$_Partition_by_median_guess_unchecked@PAUSShopItemTable@@UItemStockSortFunc@@@std@@YA?AU?$pair@PAUSShopItemTable@@PAU1@@0@PAUSShopItemTable@@0UItemStockSortFunc@@@Z ; std::_Partition_by_median_guess_unchecked<SShopItemTable *,ItemStockSortFunc>
PUBLIC	??$_Sort_heap_unchecked@PAUSShopItemTable@@UItemStockSortFunc@@@std@@YAXPAUSShopItemTable@@0UItemStockSortFunc@@@Z ; std::_Sort_heap_unchecked<SShopItemTable *,ItemStockSortFunc>
PUBLIC	??$_Make_heap_unchecked@PAUSShopItemTable@@UItemStockSortFunc@@@std@@YAXPAUSShopItemTable@@0UItemStockSortFunc@@@Z ; std::_Make_heap_unchecked<SShopItemTable *,ItemStockSortFunc>
PUBLIC	??$_Insertion_sort_unchecked@PAUSShopItemTable@@UItemStockSortFunc@@@std@@YAPAUSShopItemTable@@QAU1@0UItemStockSortFunc@@@Z ; std::_Insertion_sort_unchecked<SShopItemTable *,ItemStockSortFunc>
PUBLIC	??$forward@AAPAU?$_Tree_node@U?$pair@$$CBUSItemPos@@USShopItemTable@@@std@@PAX@std@@@std@@YAAAPAU?$_Tree_node@U?$pair@$$CBUSItemPos@@USShopItemTable@@@std@@PAX@0@AAPAU10@@Z ; std::forward<std::_Tree_node<std::pair<SItemPos const ,SShopItemTable>,void *> * &>
PUBLIC	??$?0V?$_Tree_iterator@V?$_Tree_val@U?$_Tree_simple_types@U?$pair@$$CBUSItemPos@@USShopItemTable@@@std@@@std@@@std@@@std@@AB_N$0A@@?$pair@V?$_Tree_iterator@V?$_Tree_val@U?$_Tree_simple_types@U?$pair@$$CBUSItemPos@@USShopItemTable@@@std@@@std@@@std@@@std@@_N@std@@QAE@$$QAV?$_Tree_iterator@V?$_Tree_val@U?$_Tree_simple_types@U?$pair@$$CBUSItemPos@@USShopItemTable@@@std@@@std@@@std@@@1@AB_N@Z ; std::pair<std::_Tree_iterator<std::_Tree_val<std::_Tree_simple_types<std::pair<SItemPos const ,SShopItemTable> > > >,bool>::pair<std::_Tree_iterator<std::_Tree_val<std::_Tree_simple_types<std::pair<SItemPos const ,SShopItemTable> > > >,bool><std::_Tree_iterator<std::_Tree_val<std::_Tree_simple_types<std::pair<SItemPos const ,SShopItemTable> > > >,bool const &,0>
PUBLIC	??$_Emplace@U?$pair@USItemPos@@USShopItemTable@@@std@@@?$_Tree@V?$_Tmap_traits@USItemPos@@USShopItemTable@@U?$less@USItemPos@@@std@@V?$allocator@U?$pair@$$CBUSItemPos@@USShopItemTable@@@std@@@4@$0A@@std@@@std@@IAE?AU?$pair@PAU?$_Tree_node@U?$pair@$$CBUSItemPos@@USShopItemTable@@@std@@PAX@std@@_N@1@$$QAU?$pair@USItemPos@@USShopItemTable@@@1@@Z ; std::_Tree<std::_Tmap_traits<SItemPos,SShopItemTable,std::less<SItemPos>,std::allocator<std::pair<SItemPos const ,SShopItemTable> >,0> >::_Emplace<std::pair<SItemPos,SShopItemTable> >
PUBLIC	?deallocate@?$allocator@U?$_Tree_node@U?$pair@$$CBUSItemPos@@USShopItemTable@@@std@@PAX@std@@@std@@QAEXQAU?$_Tree_node@U?$pair@$$CBUSItemPos@@USShopItemTable@@@std@@PAX@2@I@Z ; std::allocator<std::_Tree_node<std::pair<SItemPos const ,SShopItemTable>,void *> >::deallocate
PUBLIC	??0?$allocator@U?$_Tree_node@U?$pair@$$CBUSItemPos@@USShopItemTable@@@std@@PAX@std@@@std@@QAE@XZ ; std::allocator<std::_Tree_node<std::pair<SItemPos const ,SShopItemTable>,void *> >::allocator<std::_Tree_node<std::pair<SItemPos const ,SShopItemTable>,void *> >
PUBLIC	?deallocate@?$_Default_allocator_traits@V?$allocator@U?$_Tree_node@U?$pair@$$CBUSItemPos@@USShopItemTable@@@std@@PAX@std@@@std@@@std@@SAXAAV?$allocator@U?$_Tree_node@U?$pair@$$CBUSItemPos@@USShopItemTable@@@std@@PAX@std@@@2@QAU?$_Tree_node@U?$pair@$$CBUSItemPos@@USShopItemTable@@@std@@PAX@2@I@Z ; std::_Default_allocator_traits<std::allocator<std::_Tree_node<std::pair<SItemPos const ,SShopItemTable>,void *> > >::deallocate
PUBLIC	??0?$_Tree_val@U?$_Tree_simple_types@U?$pair@$$CBUSItemPos@@USShopItemTable@@@std@@@std@@@std@@QAE@XZ ; std::_Tree_val<std::_Tree_simple_types<std::pair<SItemPos const ,SShopItemTable> > >::_Tree_val<std::_Tree_simple_types<std::pair<SItemPos const ,SShopItemTable> > >
PUBLIC	?_Calculate_growth@?$vector@USShopItemTable@@V?$allocator@USShopItemTable@@@std@@@std@@ABEII@Z ; std::vector<SShopItemTable,std::allocator<SShopItemTable> >::_Calculate_growth
PUBLIC	?_Orphan_range@?$vector@USShopItemTable@@V?$allocator@USShopItemTable@@@std@@@std@@ABEXPAUSShopItemTable@@0@Z ; std::vector<SShopItemTable,std::allocator<SShopItemTable> >::_Orphan_range
PUBLIC	??$destroy@U?$pair@$$CBUSItemPos@@USShopItemTable@@@std@@@?$_Default_allocator_traits@V?$allocator@U?$_Tree_node@U?$pair@$$CBUSItemPos@@USShopItemTable@@@std@@PAX@std@@@std@@@std@@SAXAAV?$allocator@U?$_Tree_node@U?$pair@$$CBUSItemPos@@USShopItemTable@@@std@@PAX@std@@@1@QAU?$pair@$$CBUSItemPos@@USShopItemTable@@@1@@Z ; std::_Default_allocator_traits<std::allocator<std::_Tree_node<std::pair<SItemPos const ,SShopItemTable>,void *> > >::destroy<std::pair<SItemPos const ,SShopItemTable> >
PUBLIC	??$_Construct_in_place@PAU?$_Tree_node@U?$pair@$$CBUSItemPos@@USShopItemTable@@@std@@PAX@std@@ABQAU12@@std@@YAXAAPAU?$_Tree_node@U?$pair@$$CBUSItemPos@@USShopItemTable@@@std@@PAX@0@ABQAU10@@Z ; std::_Construct_in_place<std::_Tree_node<std::pair<SItemPos const ,SShopItemTable>,void *> *,std::_Tree_node<std::pair<SItemPos const ,SShopItemTable>,void *> * const &>
PUBLIC	??$forward@ABU?$less@USItemPos@@@std@@@std@@YAABU?$less@USItemPos@@@0@ABU10@@Z ; std::forward<std::less<SItemPos> const &>
PUBLIC	??$_Adl_verify_range@V?$_Tree_unchecked_const_iterator@V?$_Tree_val@U?$_Tree_simple_types@U?$pair@$$CBUSItemPos@@USShopItemTable@@@std@@@std@@@std@@U_Iterator_base0@2@@std@@V12@@std@@YAXABV?$_Tree_unchecked_const_iterator@V?$_Tree_val@U?$_Tree_simple_types@U?$pair@$$CBUSItemPos@@USShopItemTable@@@std@@@std@@@std@@U_Iterator_base0@2@@0@0@Z ; std::_Adl_verify_range<std::_Tree_unchecked_const_iterator<std::_Tree_val<std::_Tree_simple_types<std::pair<SItemPos const ,SShopItemTable> > >,std::_Iterator_base0>,std::_Tree_unchecked_const_iterator<std::_Tree_val<std::_Tree_simple_types<std::pair<SItemPos const ,SShopItemTable> > >,std::_Iterator_base0> >
PUBLIC	??$_Emplace_back@USShopItemTable@@@?$_Uninitialized_backout_al@V?$allocator@USShopItemTable@@@std@@@std@@QAEX$$QAUSShopItemTable@@@Z ; std::_Uninitialized_backout_al<std::allocator<SShopItemTable> >::_Emplace_back<SShopItemTable>
PUBLIC	??$_To_address@PAUSShopItemTable@@@std@@YA?A_PABQAUSShopItemTable@@@Z ; std::_To_address<SShopItemTable *>
PUBLIC	??$_Copy_memmove@PAUSShopItemTable@@PAU1@@std@@YAPAUSShopItemTable@@PAU1@00@Z ; std::_Copy_memmove<SShopItemTable *,SShopItemTable *>
PUBLIC	??$move@AAUSShopItemTable@@@std@@YA$$QAUSShopItemTable@@AAU1@@Z ; std::move<SShopItemTable &>
PUBLIC	??$_Freenode0@V?$allocator@U?$_Tree_node@U?$pair@$$CBUSItemPos@@USShopItemTable@@@std@@PAX@std@@@std@@@?$_Tree_node@U?$pair@$$CBUSItemPos@@USShopItemTable@@@std@@PAX@std@@SAXAAV?$allocator@U?$_Tree_node@U?$pair@$$CBUSItemPos@@USShopItemTable@@@std@@PAX@std@@@1@PAU01@@Z ; std::_Tree_node<std::pair<SItemPos const ,SShopItemTable>,void *>::_Freenode0<std::allocator<std::_Tree_node<std::pair<SItemPos const ,SShopItemTable>,void *> > >
PUBLIC	??$exchange@PAU?$_Tree_node@U?$pair@$$CBUSItemPos@@USShopItemTable@@@std@@PAX@std@@AAPAU12@@std@@YAPAU?$_Tree_node@U?$pair@$$CBUSItemPos@@USShopItemTable@@@std@@PAX@0@AAPAU10@0@Z ; std::exchange<std::_Tree_node<std::pair<SItemPos const ,SShopItemTable>,void *> *,std::_Tree_node<std::pair<SItemPos const ,SShopItemTable>,void *> * &>
PUBLIC	??$_Lower_bound_duplicate@USItemPos@@@?$_Tree@V?$_Tmap_traits@USItemPos@@USShopItemTable@@U?$less@USItemPos@@@std@@V?$allocator@U?$pair@$$CBUSItemPos@@USShopItemTable@@@std@@@4@$0A@@std@@@std@@IBE_NQAU?$_Tree_node@U?$pair@$$CBUSItemPos@@USShopItemTable@@@std@@PAX@1@ABUSItemPos@@@Z ; std::_Tree<std::_Tmap_traits<SItemPos,SShopItemTable,std::less<SItemPos>,std::allocator<std::pair<SItemPos const ,SShopItemTable> >,0> >::_Lower_bound_duplicate<SItemPos>
PUBLIC	??$_Find_lower_bound@USItemPos@@@?$_Tree@V?$_Tmap_traits@USItemPos@@USShopItemTable@@U?$less@USItemPos@@@std@@V?$allocator@U?$pair@$$CBUSItemPos@@USShopItemTable@@@std@@@4@$0A@@std@@@std@@IBE?AU?$_Tree_find_result@PAU?$_Tree_node@U?$pair@$$CBUSItemPos@@USShopItemTable@@@std@@PAX@std@@@1@ABUSItemPos@@@Z ; std::_Tree<std::_Tmap_traits<SItemPos,SShopItemTable,std::less<SItemPos>,std::allocator<std::pair<SItemPos const ,SShopItemTable> >,0> >::_Find_lower_bound<SItemPos>
PUBLIC	??$_Emplace_reallocate@ABUSShopItemTable@@@?$vector@USShopItemTable@@V?$allocator@USShopItemTable@@@std@@@std@@AAEPAUSShopItemTable@@QAU2@ABU2@@Z ; std::vector<SShopItemTable,std::allocator<SShopItemTable> >::_Emplace_reallocate<SShopItemTable const &>
PUBLIC	??$_Emplace_back_with_unused_capacity@ABUSShopItemTable@@@?$vector@USShopItemTable@@V?$allocator@USShopItemTable@@@std@@@std@@AAEAAUSShopItemTable@@ABU2@@Z ; std::vector<SShopItemTable,std::allocator<SShopItemTable> >::_Emplace_back_with_unused_capacity<SShopItemTable const &>
PUBLIC	??$forward@ABUSShopItemTable@@@std@@YAABUSShopItemTable@@ABU1@@Z ; std::forward<SShopItemTable const &>
PUBLIC	??$_Sort_unchecked@PAUSShopItemTable@@UItemStockSortFunc@@@std@@YAXPAUSShopItemTable@@0HUItemStockSortFunc@@@Z ; std::_Sort_unchecked<SShopItemTable *,ItemStockSortFunc>
PUBLIC	??$_Pass_fn@UItemStockSortFunc@@$0A@@std@@YA?AUItemStockSortFunc@@U1@@Z ; std::_Pass_fn<ItemStockSortFunc,0>
PUBLIC	??$_Adl_verify_range@V?$_Vector_iterator@V?$_Vector_val@U?$_Simple_types@USShopItemTable@@@std@@@std@@@std@@V12@@std@@YAXABV?$_Vector_iterator@V?$_Vector_val@U?$_Simple_types@USShopItemTable@@@std@@@std@@@0@0@Z ; std::_Adl_verify_range<std::_Vector_iterator<std::_Vector_val<std::_Simple_types<SShopItemTable> > >,std::_Vector_iterator<std::_Vector_val<std::_Simple_types<SShopItemTable> > > >
PUBLIC	??$?0AAPAU?$_Tree_node@U?$pair@$$CBUSItemPos@@USShopItemTable@@@std@@PAX@std@@AAPAU01@$0A@@?$pair@PAU?$_Tree_node@U?$pair@$$CBUSItemPos@@USShopItemTable@@@std@@PAX@std@@PAU12@@std@@QAE@AAPAU?$_Tree_node@U?$pair@$$CBUSItemPos@@USShopItemTable@@@std@@PAX@1@0@Z ; std::pair<std::_Tree_node<std::pair<SItemPos const ,SShopItemTable>,void *> *,std::_Tree_node<std::pair<SItemPos const ,SShopItemTable>,void *> *>::pair<std::_Tree_node<std::pair<SItemPos const ,SShopItemTable>,void *> *,std::_Tree_node<std::pair<SItemPos const ,SShopItemTable>,void *> *><std::_Tree_node<std::pair<SItemPos const ,SShopItemTable>,void *> * &,std::_Tree_node<std::pair<SItemPos const ,SShopItemTable>,void *> * &,0>
PUBLIC	??$_Kfn@$$CBUSItemPos@@USShopItemTable@@@?$_Tmap_traits@USItemPos@@USShopItemTable@@U?$less@USItemPos@@@std@@V?$allocator@U?$pair@$$CBUSItemPos@@USShopItemTable@@@std@@@4@$0A@@std@@SAABUSItemPos@@ABU?$pair@$$CBUSItemPos@@USShopItemTable@@@1@@Z ; std::_Tmap_traits<SItemPos,SShopItemTable,std::less<SItemPos>,std::allocator<std::pair<SItemPos const ,SShopItemTable> >,0>::_Kfn<SItemPos const ,SShopItemTable>
PUBLIC	??$emplace@U?$pair@USItemPos@@USShopItemTable@@@std@@@?$_Tree@V?$_Tmap_traits@USItemPos@@USShopItemTable@@U?$less@USItemPos@@@std@@V?$allocator@U?$pair@$$CBUSItemPos@@USShopItemTable@@@std@@@4@$0A@@std@@@std@@QAE?AU?$pair@V?$_Tree_iterator@V?$_Tree_val@U?$_Tree_simple_types@U?$pair@$$CBUSItemPos@@USShopItemTable@@@std@@@std@@@std@@@std@@_N@1@$$QAU?$pair@USItemPos@@USShopItemTable@@@1@@Z ; std::_Tree<std::_Tmap_traits<SItemPos,SShopItemTable,std::less<SItemPos>,std::allocator<std::pair<SItemPos const ,SShopItemTable> >,0> >::emplace<std::pair<SItemPos,SShopItemTable> >
PUBLIC	??$forward@U?$pair@USItemPos@@USShopItemTable@@@std@@@std@@YA$$QAU?$pair@USItemPos@@USShopItemTable@@@0@AAU10@@Z ; std::forward<std::pair<SItemPos,SShopItemTable> >
PUBLIC	??$?0AAUSItemPos@@AAUSShopItemTable@@$0A@@?$pair@USItemPos@@USShopItemTable@@@std@@QAE@AAUSItemPos@@AAUSShopItemTable@@@Z ; std::pair<SItemPos,SShopItemTable>::pair<SItemPos,SShopItemTable><SItemPos &,SShopItemTable &,0>
PUBLIC	??$forward@AAUSShopItemTable@@@std@@YAAAUSShopItemTable@@AAU1@@Z ; std::forward<SShopItemTable &>
PUBLIC	??$forward@AAUSItemPos@@@std@@YAAAUSItemPos@@AAU1@@Z ; std::forward<SItemPos &>
PUBLIC	??$?0$$V@?$_Compressed_pair@V?$allocator@U?$_Tree_node@U?$pair@$$CBUSItemPos@@USShopItemTable@@@std@@PAX@std@@@std@@V?$_Tree_val@U?$_Tree_simple_types@U?$pair@$$CBUSItemPos@@USShopItemTable@@@std@@@std@@@2@$00@std@@QAE@U_Zero_then_variadic_args_t@1@@Z ; std::_Compressed_pair<std::allocator<std::_Tree_node<std::pair<SItemPos const ,SShopItemTable>,void *> >,std::_Tree_val<std::_Tree_simple_types<std::pair<SItemPos const ,SShopItemTable> > >,1>::_Compressed_pair<std::allocator<std::_Tree_node<std::pair<SItemPos const ,SShopItemTable>,void *> >,std::_Tree_val<std::_Tree_simple_types<std::pair<SItemPos const ,SShopItemTable> > >,1><>
PUBLIC	?_Get_first@?$_Compressed_pair@U?$less@USItemPos@@@std@@V?$_Compressed_pair@V?$allocator@U?$_Tree_node@U?$pair@$$CBUSItemPos@@USShopItemTable@@@std@@PAX@std@@@std@@V?$_Tree_val@U?$_Tree_simple_types@U?$pair@$$CBUSItemPos@@USShopItemTable@@@std@@@std@@@2@$00@2@$00@std@@QBEABU?$less@USItemPos@@@2@XZ ; std::_Compressed_pair<std::less<SItemPos>,std::_Compressed_pair<std::allocator<std::_Tree_node<std::pair<SItemPos const ,SShopItemTable>,void *> >,std::_Tree_val<std::_Tree_simple_types<std::pair<SItemPos const ,SShopItemTable> > >,1>,1>::_Get_first
PUBLIC	?allocate@?$allocator@U?$_Tree_node@U?$pair@$$CBUSItemPos@@USShopItemTable@@@std@@PAX@std@@@std@@QAEPAU?$_Tree_node@U?$pair@$$CBUSItemPos@@USShopItemTable@@@std@@PAX@2@I@Z ; std::allocator<std::_Tree_node<std::pair<SItemPos const ,SShopItemTable>,void *> >::allocate
PUBLIC	?_Getcomp@?$_Tree@V?$_Tmap_traits@USItemPos@@USShopItemTable@@U?$less@USItemPos@@@std@@V?$allocator@U?$pair@$$CBUSItemPos@@USShopItemTable@@@std@@@4@$0A@@std@@@std@@IBEABU?$less@USItemPos@@@2@XZ ; std::_Tree<std::_Tmap_traits<SItemPos,SShopItemTable,std::less<SItemPos>,std::allocator<std::pair<SItemPos const ,SShopItemTable> >,0> >::_Getcomp
PUBLIC	??R?$less@USItemPos@@@std@@QBE_NABUSItemPos@@0@Z ; std::less<SItemPos>::operator()
PUBLIC	??0?$allocator@USShopItemTable@@@std@@QAE@XZ	; std::allocator<SShopItemTable>::allocator<SShopItemTable>
PUBLIC	??0?$_Vector_val@U?$_Simple_types@USShopItemTable@@@std@@@std@@QAE@XZ ; std::_Vector_val<std::_Simple_types<SShopItemTable> >::_Vector_val<std::_Simple_types<SShopItemTable> >
PUBLIC	??0?$_Uninitialized_backout_al@V?$allocator@USShopItemTable@@@std@@@std@@QAE@PAUSShopItemTable@@AAV?$allocator@USShopItemTable@@@1@@Z ; std::_Uninitialized_backout_al<std::allocator<SShopItemTable> >::_Uninitialized_backout_al<std::allocator<SShopItemTable> >
PUBLIC	??1?$_Uninitialized_backout_al@V?$allocator@USShopItemTable@@@std@@@std@@QAE@XZ ; std::_Uninitialized_backout_al<std::allocator<SShopItemTable> >::~_Uninitialized_backout_al<std::allocator<SShopItemTable> >
PUBLIC	?_Release@?$_Uninitialized_backout_al@V?$allocator@USShopItemTable@@@std@@@std@@QAEPAUSShopItemTable@@XZ ; std::_Uninitialized_backout_al<std::allocator<SShopItemTable> >::_Release
PUBLIC	??$_Freenode@V?$allocator@U?$_Tree_node@U?$pair@$$CBUSItemPos@@USShopItemTable@@@std@@PAX@std@@@std@@@?$_Tree_node@U?$pair@$$CBUSItemPos@@USShopItemTable@@@std@@PAX@std@@SAXAAV?$allocator@U?$_Tree_node@U?$pair@$$CBUSItemPos@@USShopItemTable@@@std@@PAX@std@@@1@PAU01@@Z ; std::_Tree_node<std::pair<SItemPos const ,SShopItemTable>,void *>::_Freenode<std::allocator<std::_Tree_node<std::pair<SItemPos const ,SShopItemTable>,void *> > >
PUBLIC	??$_Buyheadnode@V?$allocator@U?$_Tree_node@U?$pair@$$CBUSItemPos@@USShopItemTable@@@std@@PAX@std@@@std@@@?$_Tree_node@U?$pair@$$CBUSItemPos@@USShopItemTable@@@std@@PAX@std@@SAPAU01@AAV?$allocator@U?$_Tree_node@U?$pair@$$CBUSItemPos@@USShopItemTable@@@std@@PAX@std@@@1@@Z ; std::_Tree_node<std::pair<SItemPos const ,SShopItemTable>,void *>::_Buyheadnode<std::allocator<std::_Tree_node<std::pair<SItemPos const ,SShopItemTable>,void *> > >
PUBLIC	??$_Get_size_of_n@$0BB@@std@@YAII@Z		; std::_Get_size_of_n<17>
PUBLIC	??$?0ABU?$less@USItemPos@@@std@@U_Zero_then_variadic_args_t@1@@?$_Compressed_pair@U?$less@USItemPos@@@std@@V?$_Compressed_pair@V?$allocator@U?$_Tree_node@U?$pair@$$CBUSItemPos@@USShopItemTable@@@std@@PAX@std@@@std@@V?$_Tree_val@U?$_Tree_simple_types@U?$pair@$$CBUSItemPos@@USShopItemTable@@@std@@@std@@@2@$00@2@$00@std@@QAE@U_One_then_variadic_args_t@1@ABU?$less@USItemPos@@@1@$$QAU_Zero_then_variadic_args_t@1@@Z ; std::_Compressed_pair<std::less<SItemPos>,std::_Compressed_pair<std::allocator<std::_Tree_node<std::pair<SItemPos const ,SShopItemTable>,void *> >,std::_Tree_val<std::_Tree_simple_types<std::pair<SItemPos const ,SShopItemTable> > >,1>,1>::_Compressed_pair<std::less<SItemPos>,std::_Compressed_pair<std::allocator<std::_Tree_node<std::pair<SItemPos const ,SShopItemTable>,void *> >,std::_Tree_val<std::_Tree_simple_types<std::pair<SItemPos const ,SShopItemTable> > >,1>,1><std::less<SItemPos> const &,std::_Zero_then_variadic_args_t>
PUBLIC	??$_Get_unwrapped@AAV?$_Tree_unchecked_const_iterator@V?$_Tree_val@U?$_Tree_simple_types@U?$pair@$$CBUSItemPos@@USShopItemTable@@@std@@@std@@@std@@U_Iterator_base0@2@@std@@@std@@YA?A_TAAV?$_Tree_unchecked_const_iterator@V?$_Tree_val@U?$_Tree_simple_types@U?$pair@$$CBUSItemPos@@USShopItemTable@@@std@@@std@@@std@@U_Iterator_base0@2@@0@@Z ; std::_Get_unwrapped<std::_Tree_unchecked_const_iterator<std::_Tree_val<std::_Tree_simple_types<std::pair<SItemPos const ,SShopItemTable> > >,std::_Iterator_base0> &>
PUBLIC	??$distance@V?$_Tree_unchecked_const_iterator@V?$_Tree_val@U?$_Tree_simple_types@U?$pair@$$CBUSItemPos@@USShopItemTable@@@std@@@std@@@std@@U_Iterator_base0@2@@std@@@std@@YAHV?$_Tree_unchecked_const_iterator@V?$_Tree_val@U?$_Tree_simple_types@U?$pair@$$CBUSItemPos@@USShopItemTable@@@std@@@std@@@std@@U_Iterator_base0@2@@0@0@Z ; std::distance<std::_Tree_unchecked_const_iterator<std::_Tree_val<std::_Tree_simple_types<std::pair<SItemPos const ,SShopItemTable> > >,std::_Iterator_base0> >
PUBLIC	??$addressof@V?$_Tree_val@U?$_Tree_simple_types@U?$pair@$$CBUSItemPos@@USShopItemTable@@@std@@@std@@@std@@@std@@YAPAV?$_Tree_val@U?$_Tree_simple_types@U?$pair@$$CBUSItemPos@@USShopItemTable@@@std@@@std@@@0@AAV10@@Z ; std::addressof<std::_Tree_val<std::_Tree_simple_types<std::pair<SItemPos const ,SShopItemTable> > > >
PUBLIC	??$addressof@$$CBV?$_Tree_val@U?$_Tree_simple_types@U?$pair@$$CBUSItemPos@@USShopItemTable@@@std@@@std@@@std@@@std@@YAPBV?$_Tree_val@U?$_Tree_simple_types@U?$pair@$$CBUSItemPos@@USShopItemTable@@@std@@@std@@@0@ABV10@@Z ; std::addressof<std::_Tree_val<std::_Tree_simple_types<std::pair<SItemPos const ,SShopItemTable> > > const >
PUBLIC	??$_Uninitialized_move@PAUSShopItemTable@@V?$allocator@USShopItemTable@@@std@@@std@@YAPAUSShopItemTable@@QAU1@0PAU1@AAV?$allocator@USShopItemTable@@@0@@Z ; std::_Uninitialized_move<SShopItemTable *,std::allocator<SShopItemTable> >
PUBLIC	??$_Get_unwrapped@ABQAUSShopItemTable@@@std@@YA?A_TABQAUSShopItemTable@@@Z ; std::_Get_unwrapped<SShopItemTable * const &>
PUBLIC	??$_Destroy_range@V?$allocator@USShopItemTable@@@std@@@std@@YAXPAUSShopItemTable@@QAU1@AAV?$allocator@USShopItemTable@@@0@@Z ; std::_Destroy_range<std::allocator<SShopItemTable> >
PUBLIC	??$addressof@U?$pair@$$CBUSItemPos@@USShopItemTable@@@std@@@std@@YAPAU?$pair@$$CBUSItemPos@@USShopItemTable@@@0@AAU10@@Z ; std::addressof<std::pair<SItemPos const ,SShopItemTable> >
PUBLIC	??$_Erase_head@V?$allocator@U?$_Tree_node@U?$pair@$$CBUSItemPos@@USShopItemTable@@@std@@PAX@std@@@std@@@?$_Tree_val@U?$_Tree_simple_types@U?$pair@$$CBUSItemPos@@USShopItemTable@@@std@@@std@@@std@@QAEXAAV?$allocator@U?$_Tree_node@U?$pair@$$CBUSItemPos@@USShopItemTable@@@std@@PAX@std@@@1@@Z ; std::_Tree_val<std::_Tree_simple_types<std::pair<SItemPos const ,SShopItemTable> > >::_Erase_head<std::allocator<std::_Tree_node<std::pair<SItemPos const ,SShopItemTable>,void *> > >
PUBLIC	??$_Erase_tree@V?$allocator@U?$_Tree_node@U?$pair@$$CBUSItemPos@@USShopItemTable@@@std@@PAX@std@@@std@@@?$_Tree_val@U?$_Tree_simple_types@U?$pair@$$CBUSItemPos@@USShopItemTable@@@std@@@std@@@std@@QAEXAAV?$allocator@U?$_Tree_node@U?$pair@$$CBUSItemPos@@USShopItemTable@@@std@@PAX@std@@@1@PAU?$_Tree_node@U?$pair@$$CBUSItemPos@@USShopItemTable@@@std@@PAX@1@@Z ; std::_Tree_val<std::_Tree_simple_types<std::pair<SItemPos const ,SShopItemTable> > >::_Erase_tree<std::allocator<std::_Tree_node<std::pair<SItemPos const ,SShopItemTable>,void *> > >
PUBLIC	??$_Find@USItemPos@@@?$_Tree@V?$_Tmap_traits@USItemPos@@USShopItemTable@@U?$less@USItemPos@@@std@@V?$allocator@U?$pair@$$CBUSItemPos@@USShopItemTable@@@std@@@4@$0A@@std@@@std@@ABEPAU?$_Tree_node@U?$pair@$$CBUSItemPos@@USShopItemTable@@@std@@PAX@1@ABUSItemPos@@@Z ; std::_Tree<std::_Tmap_traits<SItemPos,SShopItemTable,std::less<SItemPos>,std::allocator<std::pair<SItemPos const ,SShopItemTable> >,0> >::_Find<SItemPos>
PUBLIC	??$?0$$V@?$_Compressed_pair@V?$allocator@USShopItemTable@@@std@@V?$_Vector_val@U?$_Simple_types@USShopItemTable@@@std@@@2@$00@std@@QAE@U_Zero_then_variadic_args_t@1@@Z ; std::_Compressed_pair<std::allocator<SShopItemTable>,std::_Vector_val<std::_Simple_types<SShopItemTable> >,1>::_Compressed_pair<std::allocator<SShopItemTable>,std::_Vector_val<std::_Simple_types<SShopItemTable> >,1><>
PUBLIC	??$_Emplace_one_at_back@ABUSShopItemTable@@@?$vector@USShopItemTable@@V?$allocator@USShopItemTable@@@std@@@std@@AAEAAUSShopItemTable@@ABU2@@Z ; std::vector<SShopItemTable,std::allocator<SShopItemTable> >::_Emplace_one_at_back<SShopItemTable const &>
PUBLIC	??$addressof@V?$_Vector_val@U?$_Simple_types@USShopItemTable@@@std@@@std@@@std@@YAPAV?$_Vector_val@U?$_Simple_types@USShopItemTable@@@std@@@0@AAV10@@Z ; std::addressof<std::_Vector_val<std::_Simple_types<SShopItemTable> > >
PUBLIC	?_Unwrapped@?$_Vector_iterator@V?$_Vector_val@U?$_Simple_types@USShopItemTable@@@std@@@std@@@std@@QBEPAUSShopItemTable@@XZ ; std::_Vector_iterator<std::_Vector_val<std::_Simple_types<SShopItemTable> > >::_Unwrapped
PUBLIC	??$_Get_unwrapped@ABV?$_Vector_iterator@V?$_Vector_val@U?$_Simple_types@USShopItemTable@@@std@@@std@@@std@@@std@@YA?A_TABV?$_Vector_iterator@V?$_Vector_val@U?$_Simple_types@USShopItemTable@@@std@@@std@@@0@@Z ; std::_Get_unwrapped<std::_Vector_iterator<std::_Vector_val<std::_Simple_types<SShopItemTable> > > const &>
PUBLIC	??$sort@V?$_Vector_iterator@V?$_Vector_val@U?$_Simple_types@USShopItemTable@@@std@@@std@@@std@@UItemStockSortFunc@@@std@@YAXV?$_Vector_iterator@V?$_Vector_val@U?$_Simple_types@USShopItemTable@@@std@@@std@@@0@0UItemStockSortFunc@@@Z ; std::sort<std::_Vector_iterator<std::_Vector_val<std::_Simple_types<SShopItemTable> > >,ItemStockSortFunc>
PUBLIC	??$_Eqrange@USItemPos@@@?$_Tree@V?$_Tmap_traits@USItemPos@@USShopItemTable@@U?$less@USItemPos@@@std@@V?$allocator@U?$pair@$$CBUSItemPos@@USShopItemTable@@@std@@@4@$0A@@std@@@std@@IBE?AU?$pair@PAU?$_Tree_node@U?$pair@$$CBUSItemPos@@USShopItemTable@@@std@@PAX@std@@PAU12@@1@ABUSItemPos@@@Z ; std::_Tree<std::_Tmap_traits<SItemPos,SShopItemTable,std::less<SItemPos>,std::allocator<std::pair<SItemPos const ,SShopItemTable> >,0> >::_Eqrange<SItemPos>
PUBLIC	??$insert@U?$pair@USItemPos@@USShopItemTable@@@std@@$0A@@?$map@USItemPos@@USShopItemTable@@U?$less@USItemPos@@@std@@V?$allocator@U?$pair@$$CBUSItemPos@@USShopItemTable@@@std@@@4@@std@@QAE?AU?$pair@V?$_Tree_iterator@V?$_Tree_val@U?$_Tree_simple_types@U?$pair@$$CBUSItemPos@@USShopItemTable@@@std@@@std@@@std@@@std@@_N@1@$$QAU?$pair@USItemPos@@USShopItemTable@@@1@@Z ; std::map<SItemPos,SShopItemTable,std::less<SItemPos>,std::allocator<std::pair<SItemPos const ,SShopItemTable> > >::insert<std::pair<SItemPos,SShopItemTable>,0>
PUBLIC	??$make_pair@AAUSItemPos@@AAUSShopItemTable@@@std@@YA?AU?$pair@USItemPos@@USShopItemTable@@@0@AAUSItemPos@@AAUSShopItemTable@@@Z ; std::make_pair<SItemPos &,SShopItemTable &>
PUBLIC	?_Max@?$_Tree_val@U?$_Tree_simple_types@U?$pair@$$CBUSItemPos@@USShopItemTable@@@std@@@std@@@std@@SAPAU?$_Tree_node@U?$pair@$$CBUSItemPos@@USShopItemTable@@@std@@PAX@2@PAU32@@Z ; std::_Tree_val<std::_Tree_simple_types<std::pair<SItemPos const ,SShopItemTable> > >::_Max
PUBLIC	?_Lrotate@?$_Tree_val@U?$_Tree_simple_types@U?$pair@$$CBUSItemPos@@USShopItemTable@@@std@@@std@@@std@@QAEXPAU?$_Tree_node@U?$pair@$$CBUSItemPos@@USShopItemTable@@@std@@PAX@2@@Z ; std::_Tree_val<std::_Tree_simple_types<std::pair<SItemPos const ,SShopItemTable> > >::_Lrotate
PUBLIC	?_Rrotate@?$_Tree_val@U?$_Tree_simple_types@U?$pair@$$CBUSItemPos@@USShopItemTable@@@std@@@std@@@std@@QAEXPAU?$_Tree_node@U?$pair@$$CBUSItemPos@@USShopItemTable@@@std@@PAX@2@@Z ; std::_Tree_val<std::_Tree_simple_types<std::pair<SItemPos const ,SShopItemTable> > >::_Rrotate
PUBLIC	?_Extract@?$_Tree_val@U?$_Tree_simple_types@U?$pair@$$CBUSItemPos@@USShopItemTable@@@std@@@std@@@std@@QAEPAU?$_Tree_node@U?$pair@$$CBUSItemPos@@USShopItemTable@@@std@@PAX@2@V?$_Tree_unchecked_const_iterator@V?$_Tree_val@U?$_Tree_simple_types@U?$pair@$$CBUSItemPos@@USShopItemTable@@@std@@@std@@@std@@U_Iterator_base0@2@@2@@Z ; std::_Tree_val<std::_Tree_simple_types<std::pair<SItemPos const ,SShopItemTable> > >::_Extract
PUBLIC	??0?$_Tree_unchecked_iterator@V?$_Tree_val@U?$_Tree_simple_types@U?$pair@$$CBUSItemPos@@USShopItemTable@@@std@@@std@@@std@@@std@@QAE@PAU?$_Tree_node@U?$pair@$$CBUSItemPos@@USShopItemTable@@@std@@PAX@1@PBV?$_Tree_val@U?$_Tree_simple_types@U?$pair@$$CBUSItemPos@@USShopItemTable@@@std@@@std@@@1@@Z ; std::_Tree_unchecked_iterator<std::_Tree_val<std::_Tree_simple_types<std::pair<SItemPos const ,SShopItemTable> > > >::_Tree_unchecked_iterator<std::_Tree_val<std::_Tree_simple_types<std::pair<SItemPos const ,SShopItemTable> > > >
PUBLIC	?_Unchecked_begin@?$_Tree@V?$_Tmap_traits@USItemPos@@USShopItemTable@@U?$less@USItemPos@@@std@@V?$allocator@U?$pair@$$CBUSItemPos@@USShopItemTable@@@std@@@4@$0A@@std@@@std@@QAE?AV?$_Tree_unchecked_iterator@V?$_Tree_val@U?$_Tree_simple_types@U?$pair@$$CBUSItemPos@@USShopItemTable@@@std@@@std@@@std@@@2@XZ ; std::_Tree<std::_Tmap_traits<SItemPos,SShopItemTable,std::less<SItemPos>,std::allocator<std::pair<SItemPos const ,SShopItemTable> >,0> >::_Unchecked_begin
PUBLIC	?_Erase_unchecked@?$_Tree@V?$_Tmap_traits@USItemPos@@USShopItemTable@@U?$less@USItemPos@@@std@@V?$allocator@U?$pair@$$CBUSItemPos@@USShopItemTable@@@std@@@4@$0A@@std@@@std@@AAEPAU?$_Tree_node@U?$pair@$$CBUSItemPos@@USShopItemTable@@@std@@PAX@2@V?$_Tree_unchecked_const_iterator@V?$_Tree_val@U?$_Tree_simple_types@U?$pair@$$CBUSItemPos@@USShopItemTable@@@std@@@std@@@std@@U_Iterator_base0@2@@2@@Z ; std::_Tree<std::_Tmap_traits<SItemPos,SShopItemTable,std::less<SItemPos>,std::allocator<std::pair<SItemPos const ,SShopItemTable> >,0> >::_Erase_unchecked
PUBLIC	?_Min@?$_Tree_val@U?$_Tree_simple_types@U?$pair@$$CBUSItemPos@@USShopItemTable@@@std@@@std@@@std@@SAPAU?$_Tree_node@U?$pair@$$CBUSItemPos@@USShopItemTable@@@std@@PAX@2@PAU32@@Z ; std::_Tree_val<std::_Tree_simple_types<std::pair<SItemPos const ,SShopItemTable> > >::_Min
PUBLIC	??E?$_Tree_unchecked_const_iterator@V?$_Tree_val@U?$_Tree_simple_types@U?$pair@$$CBUSItemPos@@USShopItemTable@@@std@@@std@@@std@@U_Iterator_base0@2@@std@@QAE?AV01@H@Z ; std::_Tree_unchecked_const_iterator<std::_Tree_val<std::_Tree_simple_types<std::pair<SItemPos const ,SShopItemTable> > >,std::_Iterator_base0>::operator++
PUBLIC	??8?$_Tree_unchecked_const_iterator@V?$_Tree_val@U?$_Tree_simple_types@U?$pair@$$CBUSItemPos@@USShopItemTable@@@std@@@std@@@std@@U_Iterator_base0@2@@std@@QBE_NABV01@@Z ; std::_Tree_unchecked_const_iterator<std::_Tree_val<std::_Tree_simple_types<std::pair<SItemPos const ,SShopItemTable> > >,std::_Iterator_base0>::operator==
PUBLIC	?_Get_first@?$_Compressed_pair@V?$allocator@USShopItemTable@@@std@@V?$_Vector_val@U?$_Simple_types@USShopItemTable@@@std@@@2@$00@std@@QAEAAV?$allocator@USShopItemTable@@@2@XZ ; std::_Compressed_pair<std::allocator<SShopItemTable>,std::_Vector_val<std::_Simple_types<SShopItemTable> >,1>::_Get_first
PUBLIC	?_Get_first@?$_Compressed_pair@V?$allocator@USShopItemTable@@@std@@V?$_Vector_val@U?$_Simple_types@USShopItemTable@@@std@@@2@$00@std@@QBEABV?$allocator@USShopItemTable@@@2@XZ ; std::_Compressed_pair<std::allocator<SShopItemTable>,std::_Vector_val<std::_Simple_types<SShopItemTable> >,1>::_Get_first
PUBLIC	?_Erase_unchecked@?$_Tree@V?$_Tmap_traits@USItemPos@@USShopItemTable@@U?$less@USItemPos@@@std@@V?$allocator@U?$pair@$$CBUSItemPos@@USShopItemTable@@@std@@@4@$0A@@std@@@std@@AAEPAU?$_Tree_node@U?$pair@$$CBUSItemPos@@USShopItemTable@@@std@@PAX@2@V?$_Tree_unchecked_const_iterator@V?$_Tree_val@U?$_Tree_simple_types@U?$pair@$$CBUSItemPos@@USShopItemTable@@@std@@@std@@@std@@U_Iterator_base0@2@@2@0@Z ; std::_Tree<std::_Tmap_traits<SItemPos,SShopItemTable,std::less<SItemPos>,std::allocator<std::pair<SItemPos const ,SShopItemTable> >,0> >::_Erase_unchecked
PUBLIC	?_Alloc_sentinel_and_proxy@?$_Tree@V?$_Tmap_traits@USItemPos@@USShopItemTable@@U?$less@USItemPos@@@std@@V?$allocator@U?$pair@$$CBUSItemPos@@USShopItemTable@@@std@@@4@$0A@@std@@@std@@IAEXXZ ; std::_Tree<std::_Tmap_traits<SItemPos,SShopItemTable,std::less<SItemPos>,std::allocator<std::pair<SItemPos const ,SShopItemTable> >,0> >::_Alloc_sentinel_and_proxy
PUBLIC	?_Get_first@?$_Compressed_pair@V?$allocator@U?$_Tree_node@U?$pair@$$CBUSItemPos@@USShopItemTable@@@std@@PAX@std@@@std@@V?$_Tree_val@U?$_Tree_simple_types@U?$pair@$$CBUSItemPos@@USShopItemTable@@@std@@@std@@@2@$00@std@@QAEAAV?$allocator@U?$_Tree_node@U?$pair@$$CBUSItemPos@@USShopItemTable@@@std@@PAX@std@@@2@XZ ; std::_Compressed_pair<std::allocator<std::_Tree_node<std::pair<SItemPos const ,SShopItemTable>,void *> >,std::_Tree_val<std::_Tree_simple_types<std::pair<SItemPos const ,SShopItemTable> > >,1>::_Get_first
PUBLIC	??E?$_Tree_unchecked_const_iterator@V?$_Tree_val@U?$_Tree_simple_types@U?$pair@$$CBUSItemPos@@USShopItemTable@@@std@@@std@@@std@@U_Iterator_base0@2@@std@@QAEAAV01@XZ ; std::_Tree_unchecked_const_iterator<std::_Tree_val<std::_Tree_simple_types<std::pair<SItemPos const ,SShopItemTable> > >,std::_Iterator_base0>::operator++
PUBLIC	??D?$_Tree_const_iterator@V?$_Tree_val@U?$_Tree_simple_types@U?$pair@$$CBUSItemPos@@USShopItemTable@@@std@@@std@@@std@@@std@@QBEABU?$pair@$$CBUSItemPos@@USShopItemTable@@@1@XZ ; std::_Tree_const_iterator<std::_Tree_val<std::_Tree_simple_types<std::pair<SItemPos const ,SShopItemTable> > > >::operator*
PUBLIC	?deallocate@?$allocator@USShopItemTable@@@std@@QAEXQAUSShopItemTable@@I@Z ; std::allocator<SShopItemTable>::deallocate
PUBLIC	?allocate@?$allocator@USShopItemTable@@@std@@QAEPAUSShopItemTable@@I@Z ; std::allocator<SShopItemTable>::allocate
PUBLIC	?max_size@?$_Default_allocator_traits@V?$allocator@USShopItemTable@@@std@@@std@@SAIABV?$allocator@USShopItemTable@@@2@@Z ; std::_Default_allocator_traits<std::allocator<SShopItemTable> >::max_size
PUBLIC	?_Change_array@?$vector@USShopItemTable@@V?$allocator@USShopItemTable@@@std@@@std@@AAEXQAUSShopItemTable@@II@Z ; std::vector<SShopItemTable,std::allocator<SShopItemTable> >::_Change_array
PUBLIC	?_Getal@?$vector@USShopItemTable@@V?$allocator@USShopItemTable@@@std@@@std@@AAEAAV?$allocator@USShopItemTable@@@2@XZ ; std::vector<SShopItemTable,std::allocator<SShopItemTable> >::_Getal
PUBLIC	?_Getal@?$vector@USShopItemTable@@V?$allocator@USShopItemTable@@@std@@@std@@ABEABV?$allocator@USShopItemTable@@@2@XZ ; std::vector<SShopItemTable,std::allocator<SShopItemTable> >::_Getal
PUBLIC	??0?$_Tree@V?$_Tmap_traits@USItemPos@@USShopItemTable@@U?$less@USItemPos@@@std@@V?$allocator@U?$pair@$$CBUSItemPos@@USShopItemTable@@@std@@@4@$0A@@std@@@std@@QAE@ABU?$less@USItemPos@@@1@@Z ; std::_Tree<std::_Tmap_traits<SItemPos,SShopItemTable,std::less<SItemPos>,std::allocator<std::pair<SItemPos const ,SShopItemTable> >,0> >::_Tree<std::_Tmap_traits<SItemPos,SShopItemTable,std::less<SItemPos>,std::allocator<std::pair<SItemPos const ,SShopItemTable> >,0> >
PUBLIC	?_Erase@?$_Tree@V?$_Tmap_traits@USItemPos@@USShopItemTable@@U?$less@USItemPos@@@std@@V?$allocator@U?$pair@$$CBUSItemPos@@USShopItemTable@@@std@@@4@$0A@@std@@@std@@AAEIU?$pair@PAU?$_Tree_node@U?$pair@$$CBUSItemPos@@USShopItemTable@@@std@@PAX@std@@PAU12@@2@@Z ; std::_Tree<std::_Tmap_traits<SItemPos,SShopItemTable,std::less<SItemPos>,std::allocator<std::pair<SItemPos const ,SShopItemTable> >,0> >::_Erase
PUBLIC	?_Getal@?$_Tree@V?$_Tmap_traits@USItemPos@@USShopItemTable@@U?$less@USItemPos@@@std@@V?$allocator@U?$pair@$$CBUSItemPos@@USShopItemTable@@@std@@@4@$0A@@std@@@std@@IAEAAV?$allocator@U?$_Tree_node@U?$pair@$$CBUSItemPos@@USShopItemTable@@@std@@PAX@std@@@2@XZ ; std::_Tree<std::_Tmap_traits<SItemPos,SShopItemTable,std::less<SItemPos>,std::allocator<std::pair<SItemPos const ,SShopItemTable> >,0> >::_Getal
PUBLIC	?_Get_scary@?$_Tree@V?$_Tmap_traits@USItemPos@@USShopItemTable@@U?$less@USItemPos@@@std@@V?$allocator@U?$pair@$$CBUSItemPos@@USShopItemTable@@@std@@@4@$0A@@std@@@std@@IAEPAV?$_Tree_val@U?$_Tree_simple_types@U?$pair@$$CBUSItemPos@@USShopItemTable@@@std@@@std@@@2@XZ ; std::_Tree<std::_Tmap_traits<SItemPos,SShopItemTable,std::less<SItemPos>,std::allocator<std::pair<SItemPos const ,SShopItemTable> >,0> >::_Get_scary
PUBLIC	?_Get_scary@?$_Tree@V?$_Tmap_traits@USItemPos@@USShopItemTable@@U?$less@USItemPos@@@std@@V?$allocator@U?$pair@$$CBUSItemPos@@USShopItemTable@@@std@@@4@$0A@@std@@@std@@IBEPBV?$_Tree_val@U?$_Tree_simple_types@U?$pair@$$CBUSItemPos@@USShopItemTable@@@std@@@std@@@2@XZ ; std::_Tree<std::_Tmap_traits<SItemPos,SShopItemTable,std::less<SItemPos>,std::allocator<std::pair<SItemPos const ,SShopItemTable> >,0> >::_Get_scary
PUBLIC	?_Orphan_ptr@?$_Tree_val@U?$_Tree_simple_types@U?$pair@$$CBUSItemPos@@USShopItemTable@@@std@@@std@@@std@@QAEXQAU?$_Tree_node@U?$pair@$$CBUSItemPos@@USShopItemTable@@@std@@PAX@2@@Z ; std::_Tree_val<std::_Tree_simple_types<std::pair<SItemPos const ,SShopItemTable> > >::_Orphan_ptr
PUBLIC	??0?$_Tree_unchecked_const_iterator@V?$_Tree_val@U?$_Tree_simple_types@U?$pair@$$CBUSItemPos@@USShopItemTable@@@std@@@std@@@std@@U_Iterator_base0@2@@std@@QAE@PAU?$_Tree_node@U?$pair@$$CBUSItemPos@@USShopItemTable@@@std@@PAX@1@PBV?$_Tree_val@U?$_Tree_simple_types@U?$pair@$$CBUSItemPos@@USShopItemTable@@@std@@@std@@@1@@Z ; std::_Tree_unchecked_const_iterator<std::_Tree_val<std::_Tree_simple_types<std::pair<SItemPos const ,SShopItemTable> > >,std::_Iterator_base0>::_Tree_unchecked_const_iterator<std::_Tree_val<std::_Tree_simple_types<std::pair<SItemPos const ,SShopItemTable> > >,std::_Iterator_base0>
PUBLIC	??E?$_Tree_const_iterator@V?$_Tree_val@U?$_Tree_simple_types@U?$pair@$$CBUSItemPos@@USShopItemTable@@@std@@@std@@@std@@@std@@QAEAAV01@XZ ; std::_Tree_const_iterator<std::_Tree_val<std::_Tree_simple_types<std::pair<SItemPos const ,SShopItemTable> > > >::operator++
PUBLIC	??D?$_Tree_iterator@V?$_Tree_val@U?$_Tree_simple_types@U?$pair@$$CBUSItemPos@@USShopItemTable@@@std@@@std@@@std@@@std@@QBEAAU?$pair@$$CBUSItemPos@@USShopItemTable@@@1@XZ ; std::_Tree_iterator<std::_Tree_val<std::_Tree_simple_types<std::pair<SItemPos const ,SShopItemTable> > > >::operator*
PUBLIC	?_Reallocate_exactly@?$vector@USShopItemTable@@V?$allocator@USShopItemTable@@@std@@@std@@AAEXI@Z ; std::vector<SShopItemTable,std::allocator<SShopItemTable> >::_Reallocate_exactly
PUBLIC	?max_size@?$vector@USShopItemTable@@V?$allocator@USShopItemTable@@@std@@@std@@QBEIXZ ; std::vector<SShopItemTable,std::allocator<SShopItemTable> >::max_size
PUBLIC	?capacity@?$vector@USShopItemTable@@V?$allocator@USShopItemTable@@@std@@@std@@QBEIXZ ; std::vector<SShopItemTable,std::allocator<SShopItemTable> >::capacity
PUBLIC	?_Tidy@?$vector@USShopItemTable@@V?$allocator@USShopItemTable@@@std@@@std@@AAEXXZ ; std::vector<SShopItemTable,std::allocator<SShopItemTable> >::_Tidy
PUBLIC	?_Xlength@?$vector@USShopItemTable@@V?$allocator@USShopItemTable@@@std@@@std@@CAXXZ ; std::vector<SShopItemTable,std::allocator<SShopItemTable> >::_Xlength
PUBLIC	?pointer_to@?$pointer_traits@PAU?$pair@$$CBUSItemPos@@USShopItemTable@@@std@@@std@@SAPAU?$pair@$$CBUSItemPos@@USShopItemTable@@@2@AAU32@@Z ; std::pointer_traits<std::pair<SItemPos const ,SShopItemTable> *>::pointer_to
PUBLIC	??0?$_Tree_const_iterator@V?$_Tree_val@U?$_Tree_simple_types@U?$pair@$$CBUSItemPos@@USShopItemTable@@@std@@@std@@@std@@@std@@QAE@PAU?$_Tree_node@U?$pair@$$CBUSItemPos@@USShopItemTable@@@std@@PAX@1@PBV?$_Tree_val@U?$_Tree_simple_types@U?$pair@$$CBUSItemPos@@USShopItemTable@@@std@@@std@@@1@@Z ; std::_Tree_const_iterator<std::_Tree_val<std::_Tree_simple_types<std::pair<SItemPos const ,SShopItemTable> > > >::_Tree_const_iterator<std::_Tree_val<std::_Tree_simple_types<std::pair<SItemPos const ,SShopItemTable> > > >
PUBLIC	??_G?$CSingleton@VCPythonShop@@@@UAEPAXI@Z	; CSingleton<CPythonShop>::`scalar deleting destructor'
PUBLIC	??0?$_Tree_iterator@V?$_Tree_val@U?$_Tree_simple_types@U?$pair@$$CBUSItemPos@@USShopItemTable@@@std@@@std@@@std@@@std@@QAE@PAU?$_Tree_node@U?$pair@$$CBUSItemPos@@USShopItemTable@@@std@@PAX@1@PBV?$_Tree_val@U?$_Tree_simple_types@U?$pair@$$CBUSItemPos@@USShopItemTable@@@std@@@std@@@1@@Z ; std::_Tree_iterator<std::_Tree_val<std::_Tree_simple_types<std::pair<SItemPos const ,SShopItemTable> > > >::_Tree_iterator<std::_Tree_val<std::_Tree_simple_types<std::pair<SItemPos const ,SShopItemTable> > > >
PUBLIC	??0?$CSingleton@VCPythonShop@@@@QAE@XZ		; CSingleton<CPythonShop>::CSingleton<CPythonShop>
PUBLIC	??1?$CSingleton@VCPythonShop@@@@UAE@XZ		; CSingleton<CPythonShop>::~CSingleton<CPythonShop>
PUBLIC	??1?$_Tree@V?$_Tmap_traits@USItemPos@@USShopItemTable@@U?$less@USItemPos@@@std@@V?$allocator@U?$pair@$$CBUSItemPos@@USShopItemTable@@@std@@@4@$0A@@std@@@std@@QAE@XZ ; std::_Tree<std::_Tmap_traits<SItemPos,SShopItemTable,std::less<SItemPos>,std::allocator<std::pair<SItemPos const ,SShopItemTable> >,0> >::~_Tree<std::_Tmap_traits<SItemPos,SShopItemTable,std::less<SItemPos>,std::allocator<std::pair<SItemPos const ,SShopItemTable> >,0> >
PUBLIC	?begin@?$_Tree@V?$_Tmap_traits@USItemPos@@USShopItemTable@@U?$less@USItemPos@@@std@@V?$allocator@U?$pair@$$CBUSItemPos@@USShopItemTable@@@std@@@4@$0A@@std@@@std@@QAE?AV?$_Tree_iterator@V?$_Tree_val@U?$_Tree_simple_types@U?$pair@$$CBUSItemPos@@USShopItemTable@@@std@@@std@@@std@@@2@XZ ; std::_Tree<std::_Tmap_traits<SItemPos,SShopItemTable,std::less<SItemPos>,std::allocator<std::pair<SItemPos const ,SShopItemTable> >,0> >::begin
PUBLIC	?end@?$_Tree@V?$_Tmap_traits@USItemPos@@USShopItemTable@@U?$less@USItemPos@@@std@@V?$allocator@U?$pair@$$CBUSItemPos@@USShopItemTable@@@std@@@4@$0A@@std@@@std@@QAE?AV?$_Tree_iterator@V?$_Tree_val@U?$_Tree_simple_types@U?$pair@$$CBUSItemPos@@USShopItemTable@@@std@@@std@@@std@@@2@XZ ; std::_Tree<std::_Tmap_traits<SItemPos,SShopItemTable,std::less<SItemPos>,std::allocator<std::pair<SItemPos const ,SShopItemTable> >,0> >::end
PUBLIC	?size@?$_Tree@V?$_Tmap_traits@USItemPos@@USShopItemTable@@U?$less@USItemPos@@@std@@V?$allocator@U?$pair@$$CBUSItemPos@@USShopItemTable@@@std@@@4@$0A@@std@@@std@@QBEIXZ ; std::_Tree<std::_Tmap_traits<SItemPos,SShopItemTable,std::less<SItemPos>,std::allocator<std::pair<SItemPos const ,SShopItemTable> >,0> >::size
PUBLIC	?erase@?$_Tree@V?$_Tmap_traits@USItemPos@@USShopItemTable@@U?$less@USItemPos@@@std@@V?$allocator@U?$pair@$$CBUSItemPos@@USShopItemTable@@@std@@@4@$0A@@std@@@std@@QAEIABUSItemPos@@@Z ; std::_Tree<std::_Tmap_traits<SItemPos,SShopItemTable,std::less<SItemPos>,std::allocator<std::pair<SItemPos const ,SShopItemTable> >,0> >::erase
PUBLIC	?clear@?$_Tree@V?$_Tmap_traits@USItemPos@@USShopItemTable@@U?$less@USItemPos@@@std@@V?$allocator@U?$pair@$$CBUSItemPos@@USShopItemTable@@@std@@@4@$0A@@std@@@std@@QAEXXZ ; std::_Tree<std::_Tmap_traits<SItemPos,SShopItemTable,std::less<SItemPos>,std::allocator<std::pair<SItemPos const ,SShopItemTable> >,0> >::clear
PUBLIC	?find@?$_Tree@V?$_Tmap_traits@USItemPos@@USShopItemTable@@U?$less@USItemPos@@@std@@V?$allocator@U?$pair@$$CBUSItemPos@@USShopItemTable@@@std@@@4@$0A@@std@@@std@@QAE?AV?$_Tree_iterator@V?$_Tree_val@U?$_Tree_simple_types@U?$pair@$$CBUSItemPos@@USShopItemTable@@@std@@@std@@@std@@@2@ABUSItemPos@@@Z ; std::_Tree<std::_Tmap_traits<SItemPos,SShopItemTable,std::less<SItemPos>,std::allocator<std::pair<SItemPos const ,SShopItemTable> >,0> >::find
PUBLIC	??0?$map@USItemPos@@USShopItemTable@@U?$less@USItemPos@@@std@@V?$allocator@U?$pair@$$CBUSItemPos@@USShopItemTable@@@std@@@4@@std@@QAE@XZ ; std::map<SItemPos,SShopItemTable,std::less<SItemPos>,std::allocator<std::pair<SItemPos const ,SShopItemTable> > >::map<SItemPos,SShopItemTable,std::less<SItemPos>,std::allocator<std::pair<SItemPos const ,SShopItemTable> > >
PUBLIC	??8?$_Tree_const_iterator@V?$_Tree_val@U?$_Tree_simple_types@U?$pair@$$CBUSItemPos@@USShopItemTable@@@std@@@std@@@std@@@std@@QBE_NABV01@@Z ; std::_Tree_const_iterator<std::_Tree_val<std::_Tree_simple_types<std::pair<SItemPos const ,SShopItemTable> > > >::operator==
PUBLIC	??C?$_Tree_iterator@V?$_Tree_val@U?$_Tree_simple_types@U?$pair@$$CBUSItemPos@@USShopItemTable@@@std@@@std@@@std@@@std@@QBEPAU?$pair@$$CBUSItemPos@@USShopItemTable@@@1@XZ ; std::_Tree_iterator<std::_Tree_val<std::_Tree_simple_types<std::pair<SItemPos const ,SShopItemTable> > > >::operator->
PUBLIC	??E?$_Tree_iterator@V?$_Tree_val@U?$_Tree_simple_types@U?$pair@$$CBUSItemPos@@USShopItemTable@@@std@@@std@@@std@@@std@@QAEAAV01@XZ ; std::_Tree_iterator<std::_Tree_val<std::_Tree_simple_types<std::pair<SItemPos const ,SShopItemTable> > > >::operator++
PUBLIC	??0?$vector@USShopItemTable@@V?$allocator@USShopItemTable@@@std@@@std@@QAE@XZ ; std::vector<SShopItemTable,std::allocator<SShopItemTable> >::vector<SShopItemTable,std::allocator<SShopItemTable> >
PUBLIC	??1?$vector@USShopItemTable@@V?$allocator@USShopItemTable@@@std@@@std@@QAE@XZ ; std::vector<SShopItemTable,std::allocator<SShopItemTable> >::~vector<SShopItemTable,std::allocator<SShopItemTable> >
PUBLIC	?push_back@?$vector@USShopItemTable@@V?$allocator@USShopItemTable@@@std@@@std@@QAEXABUSShopItemTable@@@Z ; std::vector<SShopItemTable,std::allocator<SShopItemTable> >::push_back
PUBLIC	?reserve@?$vector@USShopItemTable@@V?$allocator@USShopItemTable@@@std@@@std@@QAEXI@Z ; std::vector<SShopItemTable,std::allocator<SShopItemTable> >::reserve
PUBLIC	?begin@?$vector@USShopItemTable@@V?$allocator@USShopItemTable@@@std@@@std@@QAE?AV?$_Vector_iterator@V?$_Vector_val@U?$_Simple_types@USShopItemTable@@@std@@@std@@@2@XZ ; std::vector<SShopItemTable,std::allocator<SShopItemTable> >::begin
PUBLIC	??0?$_Vector_iterator@V?$_Vector_val@U?$_Simple_types@USShopItemTable@@@std@@@std@@@std@@QAE@PAUSShopItemTable@@PBU_Container_base0@1@@Z ; std::_Vector_iterator<std::_Vector_val<std::_Simple_types<SShopItemTable> > >::_Vector_iterator<std::_Vector_val<std::_Simple_types<SShopItemTable> > >
PUBLIC	?end@?$vector@USShopItemTable@@V?$allocator@USShopItemTable@@@std@@@std@@QAE?AV?$_Vector_iterator@V?$_Vector_val@U?$_Simple_types@USShopItemTable@@@std@@@std@@@2@XZ ; std::vector<SShopItemTable,std::allocator<SShopItemTable> >::end
PUBLIC	?initshop@@YAXXZ				; initshop
PUBLIC	?shopGetTabCoinType@@YAPAU_object@@PAU1@0@Z	; shopGetTabCoinType
PUBLIC	?shopGetTabName@@YAPAU_object@@PAU1@0@Z		; shopGetTabName
PUBLIC	?shopGetTabCount@@YAPAU_object@@PAU1@0@Z	; shopGetTabCount
PUBLIC	?shopBuildPrivateShop@@YAPAU_object@@PAU1@0@Z	; shopBuildPrivateShop
PUBLIC	?shopGetPrivateShopItemPrice@@YAPAU_object@@PAU1@0@Z ; shopGetPrivateShopItemPrice
PUBLIC	?shopDelPrivateShopItemStock@@YAPAU_object@@PAU1@0@Z ; shopDelPrivateShopItemStock
PUBLIC	?shopAddPrivateShopItemStock@@YAPAU_object@@PAU1@0@Z ; shopAddPrivateShopItemStock
PUBLIC	?shopClearPrivateShopStock@@YAPAU_object@@PAU1@0@Z ; shopClearPrivateShopStock
PUBLIC	?shopGetItemAttribute@@YAPAU_object@@PAU1@0@Z	; shopGetItemAttribute
PUBLIC	?shopGetItemMetinSocket@@YAPAU_object@@PAU1@0@Z	; shopGetItemMetinSocket
PUBLIC	?shopGetItemPrice@@YAPAU_object@@PAU1@0@Z	; shopGetItemPrice
PUBLIC	?shopGetItemCount@@YAPAU_object@@PAU1@0@Z	; shopGetItemCount
PUBLIC	?shopGetItemID@@YAPAU_object@@PAU1@0@Z		; shopGetItemID
PUBLIC	?shopIsMainPlayerPrivateShop@@YAPAU_object@@PAU1@0@Z ; shopIsMainPlayerPrivateShop
PUBLIC	?shopIsPrviateShop@@YAPAU_object@@PAU1@0@Z	; shopIsPrviateShop
PUBLIC	?shopIsOpen@@YAPAU_object@@PAU1@0@Z		; shopIsOpen
PUBLIC	?shopClose@@YAPAU_object@@PAU1@0@Z		; shopClose
PUBLIC	?shopOpen@@YAPAU_object@@PAU1@0@Z		; shopOpen
PUBLIC	??1?$map@USItemPos@@USShopItemTable@@U?$less@USItemPos@@@std@@V?$allocator@U?$pair@$$CBUSItemPos@@USShopItemTable@@@std@@@4@@std@@QAE@XZ ; std::map<SItemPos,SShopItemTable,std::less<SItemPos>,std::allocator<std::pair<SItemPos const ,SShopItemTable> > >::~map<SItemPos,SShopItemTable,std::less<SItemPos>,std::allocator<std::pair<SItemPos const ,SShopItemTable> > >
PUBLIC	??1ShopTab@CPythonShop@@QAE@XZ			; CPythonShop::ShopTab::~ShopTab
PUBLIC	??_GCPythonShop@@UAEPAXI@Z			; CPythonShop::`scalar deleting destructor'
PUBLIC	?IsMainPlayerPrivateShop@CPythonShop@@QAEHXZ	; CPythonShop::IsMainPlayerPrivateShop
PUBLIC	?IsPrivateShop@CPythonShop@@QAEHXZ		; CPythonShop::IsPrivateShop
PUBLIC	?Close@CPythonShop@@QAEXXZ			; CPythonShop::Close
PUBLIC	?Open@CPythonShop@@QAEXHH@Z			; CPythonShop::Open
PUBLIC	?BuildPrivateShop@CPythonShop@@QAEXPBD@Z	; CPythonShop::BuildPrivateShop
PUBLIC	??RItemStockSortFunc@@QAE_NAAUSShopItemTable@@0@Z ; ItemStockSortFunc::operator()
PUBLIC	?GetPrivateShopItemPrice@CPythonShop@@QAE_JUSItemPos@@@Z ; CPythonShop::GetPrivateShopItemPrice
PUBLIC	?DelPrivateShopItemStock@CPythonShop@@QAEXUSItemPos@@@Z ; CPythonShop::DelPrivateShopItemStock
PUBLIC	??0SShopItemTable@@QAE@XZ			; SShopItemTable::SShopItemTable
PUBLIC	?AddPrivateShopItemStock@CPythonShop@@QAEXUSItemPos@@E_J@Z ; CPythonShop::AddPrivateShopItemStock
PUBLIC	?ClearPrivateShopStock@CPythonShop@@QAEXXZ	; CPythonShop::ClearPrivateShopStock
PUBLIC	?GetItemData@CPythonShop@@QAEHEKPAPBUpacket_shop_item@@@Z ; CPythonShop::GetItemData
PUBLIC	?GetItemData@CPythonShop@@QAEHKPAPBUpacket_shop_item@@@Z ; CPythonShop::GetItemData
PUBLIC	?GetTabName@CPythonShop@@QAEPBDE@Z		; CPythonShop::GetTabName
PUBLIC	?GetTabCoinType@CPythonShop@@QAEEE@Z		; CPythonShop::GetTabCoinType
PUBLIC	??0ShopTab@CPythonShop@@QAE@XZ			; CPythonShop::ShopTab::ShopTab
PUBLIC	?GetTabCount@CPythonShop@@QAEEXZ		; CPythonShop::GetTabCount
PUBLIC	?IsOpen@CPythonShop@@QAEHXZ			; CPythonShop::IsOpen
PUBLIC	?Clear@CPythonShop@@QAEXXZ			; CPythonShop::Clear
PUBLIC	?SetItemData@CPythonShop@@QAEXKABUpacket_shop_item@@@Z ; CPythonShop::SetItemData
PUBLIC	?SetTabCoinType@CPythonShop@@QAEXEE@Z		; CPythonShop::SetTabCoinType
PUBLIC	?SetTabName@CPythonShop@@QAEXEPBD@Z		; CPythonShop::SetTabName
PUBLIC	?SetItemData@CPythonShop@@QAEXEKABUpacket_shop_item@@@Z ; CPythonShop::SetItemData
PUBLIC	??0CPythonShop@@QAE@XZ				; CPythonShop::CPythonShop
PUBLIC	??1CPythonShop@@UAE@XZ				; CPythonShop::~CPythonShop
EXTRN	??_ECPythonShop@@UAEPAXI@Z:PROC			; CPythonShop::`vector deleting destructor'
EXTRN	??_E?$CSingleton@VCPythonShop@@@@UAEPAXI@Z:PROC	; CSingleton<CPythonShop>::`vector deleting destructor'
;	COMDAT xdata$x
xdata$x	SEGMENT
__ehfuncinfo$??1CPythonShop@@UAE@XZ DD 019930522H
	DD	00H
	DD	00H
	DD	2 DUP(00H)
	DD	2 DUP(00H)
	DD	00H
	DD	05H
xdata$x	ENDS
;	COMDAT xdata$x
xdata$x	SEGMENT
__ehfuncinfo$??0CPythonShop@@QAE@XZ DD 019930522H
	DD	02H
	DD	FLAT:__unwindtable$??0CPythonShop@@QAE@XZ
	DD	2 DUP(00H)
	DD	2 DUP(00H)
	DD	00H
	DD	01H
__unwindtable$??0CPythonShop@@QAE@XZ DD 0ffffffffH
	DD	FLAT:__unwindfunclet$??0CPythonShop@@QAE@XZ$0
	DD	00H
	DD	FLAT:__unwindfunclet$??0CPythonShop@@QAE@XZ$1
xdata$x	ENDS
;	COMDAT xdata$x
xdata$x	SEGMENT
__ehfuncinfo$?AddPrivateShopItemStock@CPythonShop@@QAEXUSItemPos@@E_J@Z DD 019930522H
	DD	01H
	DD	FLAT:__unwindtable$?AddPrivateShopItemStock@CPythonShop@@QAEXUSItemPos@@E_J@Z
	DD	2 DUP(00H)
	DD	2 DUP(00H)
	DD	00H
	DD	01H
__unwindtable$?AddPrivateShopItemStock@CPythonShop@@QAEXUSItemPos@@E_J@Z DD 0ffffffffH
	DD	FLAT:__unwindfunclet$?AddPrivateShopItemStock@CPythonShop@@QAEXUSItemPos@@E_J@Z$2
xdata$x	ENDS
;	COMDAT xdata$x
xdata$x	SEGMENT
__ehfuncinfo$?BuildPrivateShop@CPythonShop@@QAEXPBD@Z DD 019930522H
	DD	01H
	DD	FLAT:__unwindtable$?BuildPrivateShop@CPythonShop@@QAEXPBD@Z
	DD	2 DUP(00H)
	DD	2 DUP(00H)
	DD	00H
	DD	01H
__unwindtable$?BuildPrivateShop@CPythonShop@@QAEXPBD@Z DD 0ffffffffH
	DD	FLAT:__unwindfunclet$?BuildPrivateShop@CPythonShop@@QAEXPBD@Z$0
xdata$x	ENDS
;	COMDAT xdata$x
xdata$x	SEGMENT
__ehfuncinfo$??$insert@U?$pair@USItemPos@@USShopItemTable@@@std@@$0A@@?$map@USItemPos@@USShopItemTable@@U?$less@USItemPos@@@std@@V?$allocator@U?$pair@$$CBUSItemPos@@USShopItemTable@@@std@@@4@@std@@QAE?AU?$pair@V?$_Tree_iterator@V?$_Tree_val@U?$_Tree_simple_types@U?$pair@$$CBUSItemPos@@USShopItemTable@@@std@@@std@@@std@@@std@@_N@1@$$QAU?$pair@USItemPos@@USShopItemTable@@@1@@Z DD 019930522H
	DD	01H
	DD	FLAT:__unwindtable$??$insert@U?$pair@USItemPos@@USShopItemTable@@@std@@$0A@@?$map@USItemPos@@USShopItemTable@@U?$less@USItemPos@@@std@@V?$allocator@U?$pair@$$CBUSItemPos@@USShopItemTable@@@std@@@4@@std@@QAE?AU?$pair@V?$_Tree_iterator@V?$_Tree_val@U?$_Tree_simple_types@U?$pair@$$CBUSItemPos@@USShopItemTable@@@std@@@std@@@std@@@std@@_N@1@$$QAU?$pair@USItemPos@@USShopItemTable@@@1@@Z
	DD	2 DUP(00H)
	DD	2 DUP(00H)
	DD	00H
	DD	01H
__unwindtable$??$insert@U?$pair@USItemPos@@USShopItemTable@@@std@@$0A@@?$map@USItemPos@@USShopItemTable@@U?$less@USItemPos@@@std@@V?$allocator@U?$pair@$$CBUSItemPos@@USShopItemTable@@@std@@@4@@std@@QAE?AU?$pair@V?$_Tree_iterator@V?$_Tree_val@U?$_Tree_simple_types@U?$pair@$$CBUSItemPos@@USShopItemTable@@@std@@@std@@@std@@@std@@_N@1@$$QAU?$pair@USItemPos@@USShopItemTable@@@1@@Z DD 0ffffffffH
	DD	FLAT:__unwindfunclet$??$insert@U?$pair@USItemPos@@USShopItemTable@@@std@@$0A@@?$map@USItemPos@@USShopItemTable@@U?$less@USItemPos@@@std@@V?$allocator@U?$pair@$$CBUSItemPos@@USShopItemTable@@@std@@@4@@std@@QAE?AU?$pair@V?$_Tree_iterator@V?$_Tree_val@U?$_Tree_simple_types@U?$pair@$$CBUSItemPos@@USShopItemTable@@@std@@@std@@@std@@@std@@_N@1@$$QAU?$pair@USItemPos@@USShopItemTable@@@1@@Z$2
xdata$x	ENDS
;	COMDAT xdata$x
xdata$x	SEGMENT
__ehfuncinfo$??$emplace@U?$pair@USItemPos@@USShopItemTable@@@std@@@?$_Tree@V?$_Tmap_traits@USItemPos@@USShopItemTable@@U?$less@USItemPos@@@std@@V?$allocator@U?$pair@$$CBUSItemPos@@USShopItemTable@@@std@@@4@$0A@@std@@@std@@QAE?AU?$pair@V?$_Tree_iterator@V?$_Tree_val@U?$_Tree_simple_types@U?$pair@$$CBUSItemPos@@USShopItemTable@@@std@@@std@@@std@@@std@@_N@1@$$QAU?$pair@USItemPos@@USShopItemTable@@@1@@Z DD 019930522H
	DD	01H
	DD	FLAT:__unwindtable$??$emplace@U?$pair@USItemPos@@USShopItemTable@@@std@@@?$_Tree@V?$_Tmap_traits@USItemPos@@USShopItemTable@@U?$less@USItemPos@@@std@@V?$allocator@U?$pair@$$CBUSItemPos@@USShopItemTable@@@std@@@4@$0A@@std@@@std@@QAE?AU?$pair@V?$_Tree_iterator@V?$_Tree_val@U?$_Tree_simple_types@U?$pair@$$CBUSItemPos@@USShopItemTable@@@std@@@std@@@std@@@std@@_N@1@$$QAU?$pair@USItemPos@@USShopItemTable@@@1@@Z
	DD	2 DUP(00H)
	DD	2 DUP(00H)
	DD	00H
	DD	01H
__unwindtable$??$emplace@U?$pair@USItemPos@@USShopItemTable@@@std@@@?$_Tree@V?$_Tmap_traits@USItemPos@@USShopItemTable@@U?$less@USItemPos@@@std@@V?$allocator@U?$pair@$$CBUSItemPos@@USShopItemTable@@@std@@@4@$0A@@std@@@std@@QAE?AU?$pair@V?$_Tree_iterator@V?$_Tree_val@U?$_Tree_simple_types@U?$pair@$$CBUSItemPos@@USShopItemTable@@@std@@@std@@@std@@@std@@_N@1@$$QAU?$pair@USItemPos@@USShopItemTable@@@1@@Z DD 0ffffffffH
	DD	FLAT:__unwindfunclet$??$emplace@U?$pair@USItemPos@@USShopItemTable@@@std@@@?$_Tree@V?$_Tmap_traits@USItemPos@@USShopItemTable@@U?$less@USItemPos@@@std@@V?$allocator@U?$pair@$$CBUSItemPos@@USShopItemTable@@@std@@@4@$0A@@std@@@std@@QAE?AU?$pair@V?$_Tree_iterator@V?$_Tree_val@U?$_Tree_simple_types@U?$pair@$$CBUSItemPos@@USShopItemTable@@@std@@@std@@@std@@@std@@_N@1@$$QAU?$pair@USItemPos@@USShopItemTable@@@1@@Z$2
xdata$x	ENDS
;	COMDAT xdata$x
xdata$x	SEGMENT
__ehfuncinfo$??$_Emplace@U?$pair@USItemPos@@USShopItemTable@@@std@@@?$_Tree@V?$_Tmap_traits@USItemPos@@USShopItemTable@@U?$less@USItemPos@@@std@@V?$allocator@U?$pair@$$CBUSItemPos@@USShopItemTable@@@std@@@4@$0A@@std@@@std@@IAE?AU?$pair@PAU?$_Tree_node@U?$pair@$$CBUSItemPos@@USShopItemTable@@@std@@PAX@std@@_N@1@$$QAU?$pair@USItemPos@@USShopItemTable@@@1@@Z DD 019930522H
	DD	01H
	DD	FLAT:__unwindtable$??$_Emplace@U?$pair@USItemPos@@USShopItemTable@@@std@@@?$_Tree@V?$_Tmap_traits@USItemPos@@USShopItemTable@@U?$less@USItemPos@@@std@@V?$allocator@U?$pair@$$CBUSItemPos@@USShopItemTable@@@std@@@4@$0A@@std@@@std@@IAE?AU?$pair@PAU?$_Tree_node@U?$pair@$$CBUSItemPos@@USShopItemTable@@@std@@PAX@std@@_N@1@$$QAU?$pair@USItemPos@@USShopItemTable@@@1@@Z
	DD	2 DUP(00H)
	DD	2 DUP(00H)
	DD	00H
	DD	01H
__unwindtable$??$_Emplace@U?$pair@USItemPos@@USShopItemTable@@@std@@@?$_Tree@V?$_Tmap_traits@USItemPos@@USShopItemTable@@U?$less@USItemPos@@@std@@V?$allocator@U?$pair@$$CBUSItemPos@@USShopItemTable@@@std@@@4@$0A@@std@@@std@@IAE?AU?$pair@PAU?$_Tree_node@U?$pair@$$CBUSItemPos@@USShopItemTable@@@std@@PAX@std@@_N@1@$$QAU?$pair@USItemPos@@USShopItemTable@@@1@@Z DD 0ffffffffH
	DD	FLAT:__unwindfunclet$??$_Emplace@U?$pair@USItemPos@@USShopItemTable@@@std@@@?$_Tree@V?$_Tmap_traits@USItemPos@@USShopItemTable@@U?$less@USItemPos@@@std@@V?$allocator@U?$pair@$$CBUSItemPos@@USShopItemTable@@@std@@@4@$0A@@std@@@std@@IAE?AU?$pair@PAU?$_Tree_node@U?$pair@$$CBUSItemPos@@USShopItemTable@@@std@@PAX@std@@_N@1@$$QAU?$pair@USItemPos@@USShopItemTable@@@1@@Z$2
xdata$x	ENDS
;	COMDAT xdata$x
xdata$x	SEGMENT
__ehfuncinfo$??$?0U?$pair@USItemPos@@USShopItemTable@@@std@@@?$_Tree_temp_node@V?$allocator@U?$_Tree_node@U?$pair@$$CBUSItemPos@@USShopItemTable@@@std@@PAX@std@@@std@@@std@@QAE@AAV?$allocator@U?$_Tree_node@U?$pair@$$CBUSItemPos@@USShopItemTable@@@std@@PAX@std@@@1@PAU?$_Tree_node@U?$pair@$$CBUSItemPos@@USShopItemTable@@@std@@PAX@1@$$QAU?$pair@USItemPos@@USShopItemTable@@@1@@Z DD 019930522H
	DD	01H
	DD	FLAT:__unwindtable$??$?0U?$pair@USItemPos@@USShopItemTable@@@std@@@?$_Tree_temp_node@V?$allocator@U?$_Tree_node@U?$pair@$$CBUSItemPos@@USShopItemTable@@@std@@PAX@std@@@std@@@std@@QAE@AAV?$allocator@U?$_Tree_node@U?$pair@$$CBUSItemPos@@USShopItemTable@@@std@@PAX@std@@@1@PAU?$_Tree_node@U?$pair@$$CBUSItemPos@@USShopItemTable@@@std@@PAX@1@$$QAU?$pair@USItemPos@@USShopItemTable@@@1@@Z
	DD	2 DUP(00H)
	DD	2 DUP(00H)
	DD	00H
	DD	01H
__unwindtable$??$?0U?$pair@USItemPos@@USShopItemTable@@@std@@@?$_Tree_temp_node@V?$allocator@U?$_Tree_node@U?$pair@$$CBUSItemPos@@USShopItemTable@@@std@@PAX@std@@@std@@@std@@QAE@AAV?$allocator@U?$_Tree_node@U?$pair@$$CBUSItemPos@@USShopItemTable@@@std@@PAX@std@@@1@PAU?$_Tree_node@U?$pair@$$CBUSItemPos@@USShopItemTable@@@std@@PAX@1@$$QAU?$pair@USItemPos@@USShopItemTable@@@1@@Z DD 0ffffffffH
	DD	FLAT:__unwindfunclet$??$?0U?$pair@USItemPos@@USShopItemTable@@@std@@@?$_Tree_temp_node@V?$allocator@U?$_Tree_node@U?$pair@$$CBUSItemPos@@USShopItemTable@@@std@@PAX@std@@@std@@@std@@QAE@AAV?$allocator@U?$_Tree_node@U?$pair@$$CBUSItemPos@@USShopItemTable@@@std@@PAX@std@@@1@PAU?$_Tree_node@U?$pair@$$CBUSItemPos@@USShopItemTable@@@std@@PAX@1@$$QAU?$pair@USItemPos@@USShopItemTable@@@1@@Z$1
xdata$x	ENDS
;	COMDAT xdata$x
xdata$x	SEGMENT
__ehfuncinfo$??0?$_Tree_temp_node_alloc@V?$allocator@U?$_Tree_node@U?$pair@$$CBUSItemPos@@USShopItemTable@@@std@@PAX@std@@@std@@@std@@QAE@AAV?$allocator@U?$_Tree_node@U?$pair@$$CBUSItemPos@@USShopItemTable@@@std@@PAX@std@@@1@@Z DD 019930522H
	DD	01H
	DD	FLAT:__unwindtable$??0?$_Tree_temp_node_alloc@V?$allocator@U?$_Tree_node@U?$pair@$$CBUSItemPos@@USShopItemTable@@@std@@PAX@std@@@std@@@std@@QAE@AAV?$allocator@U?$_Tree_node@U?$pair@$$CBUSItemPos@@USShopItemTable@@@std@@PAX@std@@@1@@Z
	DD	2 DUP(00H)
	DD	2 DUP(00H)
	DD	00H
	DD	01H
__unwindtable$??0?$_Tree_temp_node_alloc@V?$allocator@U?$_Tree_node@U?$pair@$$CBUSItemPos@@USShopItemTable@@@std@@PAX@std@@@std@@@std@@QAE@AAV?$allocator@U?$_Tree_node@U?$pair@$$CBUSItemPos@@USShopItemTable@@@std@@PAX@std@@@1@@Z DD 0ffffffffH
	DD	FLAT:__unwindfunclet$??0?$_Tree_temp_node_alloc@V?$allocator@U?$_Tree_node@U?$pair@$$CBUSItemPos@@USShopItemTable@@@std@@PAX@std@@@std@@@std@@QAE@AAV?$allocator@U?$_Tree_node@U?$pair@$$CBUSItemPos@@USShopItemTable@@@std@@PAX@std@@@1@@Z$0
; Function compile flags: /Ogtp
; File E:\Metin2_server\SolWayneSF v6\ClientVS22\source\UserInterface\PythonShop.cpp
; File C:\Program Files\Microsoft Visual Studio\2022\Community\VC\Tools\MSVC\14.34.31933\include\xtree
; File C:\Program Files\Microsoft Visual Studio\2022\Community\VC\Tools\MSVC\14.34.31933\include\xmemory
; File E:\Metin2_server\SolWayneSF v6\ClientVS22\source\UserInterface\PythonShop.cpp
; File E:\Metin2_server\SolWayneSF v6\ClientVS22\source\eterBase\Singleton.h
; File E:\Metin2_server\SolWayneSF v6\ClientVS22\source\UserInterface\PythonShop.cpp
;	COMDAT ??1CPythonShop@@UAE@XZ
_TEXT	SEGMENT
__$EHRec$ = -12						; size = 12
??1CPythonShop@@UAE@XZ PROC				; CPythonShop::~CPythonShop, COMDAT
; _this$ = ecx

; 208  : {

  00000	55		 push	 ebp
  00001	8b ec		 mov	 ebp, esp
  00003	6a ff		 push	 -1
  00005	68 00 00 00 00	 push	 __ehhandler$??1CPythonShop@@UAE@XZ
  0000a	64 a1 00 00 00
	00		 mov	 eax, DWORD PTR fs:0
  00010	50		 push	 eax
  00011	56		 push	 esi
  00012	57		 push	 edi
  00013	a1 00 00 00 00	 mov	 eax, DWORD PTR ___security_cookie
  00018	33 c5		 xor	 eax, ebp
  0001a	50		 push	 eax
  0001b	8d 45 f4	 lea	 eax, DWORD PTR __$EHRec$[ebp]
  0001e	64 a3 00 00 00
	00		 mov	 DWORD PTR fs:0, eax
  00024	8b f9		 mov	 edi, ecx

; 209  : }

  00026	8d b7 78 2c 00
	00		 lea	 esi, DWORD PTR [edi+11384]
  0002c	c7 07 00 00 00
	00		 mov	 DWORD PTR [edi], OFFSET ??_7CPythonShop@@6B@
; File C:\Program Files\Microsoft Visual Studio\2022\Community\VC\Tools\MSVC\14.34.31933\include\xtree

; 754  :         _Erase_tree(_Al, _Myhead->_Parent);

  00032	8b 06		 mov	 eax, DWORD PTR [esi]
  00034	8b ce		 mov	 ecx, esi
  00036	ff 70 04	 push	 DWORD PTR [eax+4]
  00039	56		 push	 esi
  0003a	e8 00 00 00 00	 call	 ??$_Erase_tree@V?$allocator@U?$_Tree_node@U?$pair@$$CBUSItemPos@@USShopItemTable@@@std@@PAX@std@@@std@@@?$_Tree_val@U?$_Tree_simple_types@U?$pair@$$CBUSItemPos@@USShopItemTable@@@std@@@std@@@std@@QAEXAAV?$allocator@U?$_Tree_node@U?$pair@$$CBUSItemPos@@USShopItemTable@@@std@@PAX@std@@@1@PAU?$_Tree_node@U?$pair@$$CBUSItemPos@@USShopItemTable@@@std@@PAX@1@@Z ; std::_Tree_val<std::_Tree_simple_types<std::pair<SItemPos const ,SShopItemTable> > >::_Erase_tree<std::allocator<std::_Tree_node<std::pair<SItemPos const ,SShopItemTable>,void *> > >
; File C:\Program Files\Microsoft Visual Studio\2022\Community\VC\Tools\MSVC\14.34.31933\include\xmemory

; 255  :         ::operator delete(_Ptr, _Bytes);

  0003f	6a 24		 push	 36			; 00000024H
  00041	ff 36		 push	 DWORD PTR [esi]
  00043	e8 00 00 00 00	 call	 ??3@YAXPAXI@Z		; operator delete
  00048	83 c4 08	 add	 esp, 8
; File E:\Metin2_server\SolWayneSF v6\ClientVS22\source\UserInterface\PythonShop.cpp

; 209  : }

  0004b	8d 47 14	 lea	 eax, DWORD PTR [edi+20]
  0004e	68 00 00 00 00	 push	 OFFSET ??1ShopTab@CPythonShop@@QAE@XZ
  00053	6a 03		 push	 3
  00055	68 cc 0e 00 00	 push	 3788			; 00000eccH
  0005a	50		 push	 eax
  0005b	e8 00 00 00 00	 call	 ??_M@YGXPAXIIP6EX0@Z@Z
; File E:\Metin2_server\SolWayneSF v6\ClientVS22\source\eterBase\Singleton.h

; 19   : 	{ 

  00060	c7 07 00 00 00
	00		 mov	 DWORD PTR [edi], OFFSET ??_7?$CSingleton@VCPythonShop@@@@6B@

; 20   : 		assert(ms_singleton);
; 21   : 		ms_singleton = 0; 

  00066	c7 05 00 00 00
	00 00 00 00 00	 mov	 DWORD PTR ?ms_singleton@?$CSingleton@VCPythonShop@@@@0PAVCPythonShop@@A, 0 ; CSingleton<CPythonShop>::ms_singleton
; File E:\Metin2_server\SolWayneSF v6\ClientVS22\source\UserInterface\PythonShop.cpp

; 209  : }

  00070	8b 4d f4	 mov	 ecx, DWORD PTR __$EHRec$[ebp]
  00073	64 89 0d 00 00
	00 00		 mov	 DWORD PTR fs:0, ecx
  0007a	59		 pop	 ecx
  0007b	5f		 pop	 edi
  0007c	5e		 pop	 esi
  0007d	8b e5		 mov	 esp, ebp
  0007f	5d		 pop	 ebp
  00080	c3		 ret	 0
  00081	cc		 int	 3
  00082	cc		 int	 3
  00083	cc		 int	 3
  00084	cc		 int	 3
  00085	cc		 int	 3
_TEXT	ENDS
;	COMDAT text$x
text$x	SEGMENT
__ehhandler$??1CPythonShop@@UAE@XZ:
  00000	90		 npad	 1
  00001	90		 npad	 1
  00002	8b 54 24 08	 mov	 edx, DWORD PTR [esp+8]
  00006	8d 42 0c	 lea	 eax, DWORD PTR [edx+12]
  00009	8b 4a f4	 mov	 ecx, DWORD PTR [edx-12]
  0000c	33 c8		 xor	 ecx, eax
  0000e	e8 00 00 00 00	 call	 @__security_check_cookie@4
  00013	b8 00 00 00 00	 mov	 eax, OFFSET __ehfuncinfo$??1CPythonShop@@UAE@XZ
  00018	e9 00 00 00 00	 jmp	 ___CxxFrameHandler3
text$x	ENDS
??1CPythonShop@@UAE@XZ ENDP				; CPythonShop::~CPythonShop
; Function compile flags: /Ogtp
; File E:\Metin2_server\SolWayneSF v6\ClientVS22\source\UserInterface\PythonShop.cpp
; File E:\Metin2_server\SolWayneSF v6\ClientVS22\source\eterBase\Singleton.h
; File E:\Metin2_server\SolWayneSF v6\ClientVS22\source\UserInterface\PythonShop.cpp
; File C:\Program Files\Microsoft Visual Studio\2022\Community\VC\Tools\MSVC\14.34.31933\include\xmemory
; File E:\Metin2_server\SolWayneSF v6\ClientVS22\source\UserInterface\PythonShop.cpp
; File C:\Program Files\Microsoft Visual Studio\2022\Community\VC\Tools\MSVC\14.34.31933\include\xtree
; File C:\Program Files\Microsoft Visual Studio\2022\Community\VC\Tools\MSVC\14.34.31933\include\xmemory
; File E:\Metin2_server\SolWayneSF v6\ClientVS22\source\UserInterface\PythonShop.cpp
; File C:\Program Files\Microsoft Visual Studio\2022\Community\VC\Tools\MSVC\14.34.31933\include\xtree
; File E:\Metin2_server\SolWayneSF v6\ClientVS22\source\UserInterface\PythonShop.cpp
;	COMDAT ??0CPythonShop@@QAE@XZ
_TEXT	SEGMENT
_this$ = -20						; size = 4
_this$ = -16						; size = 4
__$EHRec$ = -12						; size = 12
??0CPythonShop@@QAE@XZ PROC				; CPythonShop::CPythonShop, COMDAT
; _this$ = ecx

; 203  : {

  00000	55		 push	 ebp
  00001	8b ec		 mov	 ebp, esp
  00003	6a ff		 push	 -1
  00005	68 00 00 00 00	 push	 __ehhandler$??0CPythonShop@@QAE@XZ
  0000a	64 a1 00 00 00
	00		 mov	 eax, DWORD PTR fs:0
  00010	50		 push	 eax
  00011	83 ec 08	 sub	 esp, 8
  00014	56		 push	 esi
  00015	57		 push	 edi
  00016	a1 00 00 00 00	 mov	 eax, DWORD PTR ___security_cookie
  0001b	33 c5		 xor	 eax, ebp
  0001d	50		 push	 eax
  0001e	8d 45 f4	 lea	 eax, DWORD PTR __$EHRec$[ebp]
  00021	64 a3 00 00 00
	00		 mov	 DWORD PTR fs:0, eax
  00027	8b f9		 mov	 edi, ecx
  00029	89 7d f0	 mov	 DWORD PTR _this$[ebp], edi
; File E:\Metin2_server\SolWayneSF v6\ClientVS22\source\eterBase\Singleton.h

; 15   : 		ms_singleton = (T*) ((int) this + offset);

  0002c	89 3d 00 00 00
	00		 mov	 DWORD PTR ?ms_singleton@?$CSingleton@VCPythonShop@@@@0PAVCPythonShop@@A, edi ; CSingleton<CPythonShop>::ms_singleton
; File E:\Metin2_server\SolWayneSF v6\ClientVS22\source\UserInterface\PythonShop.cpp

; 203  : {

  00032	68 00 00 00 00	 push	 OFFSET ??1ShopTab@CPythonShop@@QAE@XZ
  00037	68 00 00 00 00	 push	 OFFSET ??0ShopTab@CPythonShop@@QAE@XZ ; CPythonShop::ShopTab::ShopTab
  0003c	6a 03		 push	 3
  0003e	68 cc 0e 00 00	 push	 3788			; 00000eccH
  00043	8d 47 14	 lea	 eax, DWORD PTR [edi+20]
  00046	c7 45 fc 00 00
	00 00		 mov	 DWORD PTR __$EHRec$[ebp+8], 0
  0004d	50		 push	 eax
  0004e	c7 07 00 00 00
	00		 mov	 DWORD PTR [edi], OFFSET ??_7CPythonShop@@6B@
  00054	e8 00 00 00 00	 call	 ??_L@YGXPAXIIP6EX0@Z1@Z
  00059	8d b7 78 2c 00
	00		 lea	 esi, DWORD PTR [edi+11384]
  0005f	c6 45 fc 01	 mov	 BYTE PTR __$EHRec$[ebp+8], 1
; File C:\Program Files\Microsoft Visual Studio\2022\Community\VC\Tools\MSVC\14.34.31933\include\xmemory

; 77   :         return ::operator new(_Bytes);

  00063	6a 24		 push	 36			; 00000024H
; File E:\Metin2_server\SolWayneSF v6\ClientVS22\source\UserInterface\PythonShop.cpp

; 203  : {

  00065	89 75 ec	 mov	 DWORD PTR _this$[ebp], esi
; File C:\Program Files\Microsoft Visual Studio\2022\Community\VC\Tools\MSVC\14.34.31933\include\xtree

; 437  :     _Tree_val() noexcept : _Myhead(), _Mysize(0) {}

  00068	c7 06 00 00 00
	00		 mov	 DWORD PTR [esi], 0
  0006e	c7 46 04 00 00
	00 00		 mov	 DWORD PTR [esi+4], 0
; File C:\Program Files\Microsoft Visual Studio\2022\Community\VC\Tools\MSVC\14.34.31933\include\xmemory

; 77   :         return ::operator new(_Bytes);

  00075	e8 00 00 00 00	 call	 ??2@YAPAXI@Z		; operator new
  0007a	83 c4 04	 add	 esp, 4
; File E:\Metin2_server\SolWayneSF v6\ClientVS22\source\UserInterface\PythonShop.cpp

; 204  : 	Clear();

  0007d	8b cf		 mov	 ecx, edi
; File C:\Program Files\Microsoft Visual Studio\2022\Community\VC\Tools\MSVC\14.34.31933\include\xtree

; 347  :         _Construct_in_place(_Pnode->_Left, _Pnode);

  0007f	89 00		 mov	 DWORD PTR [eax], eax

; 348  :         _Construct_in_place(_Pnode->_Parent, _Pnode);

  00081	89 40 04	 mov	 DWORD PTR [eax+4], eax

; 349  :         _Construct_in_place(_Pnode->_Right, _Pnode);

  00084	89 40 08	 mov	 DWORD PTR [eax+8], eax

; 350  :         _Pnode->_Color = _Black;

  00087	66 c7 40 0c 01
	01		 mov	 WORD PTR [eax+12], 257	; 00000101H

; 1941 :         _Scary->_Myhead = _Node::_Buyheadnode(_Getal());

  0008d	89 06		 mov	 DWORD PTR [esi], eax
; File E:\Metin2_server\SolWayneSF v6\ClientVS22\source\UserInterface\PythonShop.cpp

; 204  : 	Clear();

  0008f	e8 00 00 00 00	 call	 ?Clear@CPythonShop@@QAEXXZ ; CPythonShop::Clear

; 205  : }

  00094	8b c7		 mov	 eax, edi
  00096	8b 4d f4	 mov	 ecx, DWORD PTR __$EHRec$[ebp]
  00099	64 89 0d 00 00
	00 00		 mov	 DWORD PTR fs:0, ecx
  000a0	59		 pop	 ecx
  000a1	5f		 pop	 edi
  000a2	5e		 pop	 esi
  000a3	8b e5		 mov	 esp, ebp
  000a5	5d		 pop	 ebp
  000a6	c3		 ret	 0
_TEXT	ENDS
;	COMDAT text$x
text$x	SEGMENT
__unwindfunclet$??0CPythonShop@@QAE@XZ$0:
  00000	8b 4d f0	 mov	 ecx, DWORD PTR _this$[ebp]
  00003	e9 00 00 00 00	 jmp	 ??1?$CSingleton@VCPythonShop@@@@UAE@XZ ; CSingleton<CPythonShop>::~CSingleton<CPythonShop>
__unwindfunclet$??0CPythonShop@@QAE@XZ$1:
  00008	68 00 00 00 00	 push	 OFFSET ??1ShopTab@CPythonShop@@QAE@XZ
  0000d	6a 03		 push	 3
  0000f	68 cc 0e 00 00	 push	 3788			; 00000eccH
  00014	8b 45 f0	 mov	 eax, DWORD PTR _this$[ebp]
  00017	83 c0 14	 add	 eax, 20			; 00000014H
  0001a	50		 push	 eax
  0001b	e8 00 00 00 00	 call	 ??_M@YGXPAXIIP6EX0@Z@Z
  00020	c3		 ret	 0
  00021	cc		 int	 3
  00022	cc		 int	 3
  00023	cc		 int	 3
  00024	cc		 int	 3
  00025	cc		 int	 3
__ehhandler$??0CPythonShop@@QAE@XZ:
  00026	90		 npad	 1
  00027	90		 npad	 1
  00028	8b 54 24 08	 mov	 edx, DWORD PTR [esp+8]
  0002c	8d 42 0c	 lea	 eax, DWORD PTR [edx+12]
  0002f	8b 4a ec	 mov	 ecx, DWORD PTR [edx-20]
  00032	33 c8		 xor	 ecx, eax
  00034	e8 00 00 00 00	 call	 @__security_check_cookie@4
  00039	b8 00 00 00 00	 mov	 eax, OFFSET __ehfuncinfo$??0CPythonShop@@QAE@XZ
  0003e	e9 00 00 00 00	 jmp	 ___CxxFrameHandler3
text$x	ENDS
??0CPythonShop@@QAE@XZ ENDP				; CPythonShop::CPythonShop
; Function compile flags: /Ogtp
; File E:\Metin2_server\SolWayneSF v6\ClientVS22\source\UserInterface\PythonShop.cpp
;	COMDAT ?SetItemData@CPythonShop@@QAEXEKABUpacket_shop_item@@@Z
_TEXT	SEGMENT
_tabIdx$ = 8						; size = 1
_dwSlotPos$ = 12					; size = 4
_c_rShopItemData$ = 16					; size = 4
?SetItemData@CPythonShop@@QAEXEKABUpacket_shop_item@@@Z PROC ; CPythonShop::SetItemData, COMDAT
; _this$ = ecx

; 74   : {

  00000	55		 push	 ebp
  00001	8b ec		 mov	 ebp, esp

; 75   : 	if (tabIdx >= SHOP_TAB_COUNT_MAX || dwSlotPos >= SHOP_HOST_ITEM_MAX_NUM)

  00003	8a 45 08	 mov	 al, BYTE PTR _tabIdx$[ebp]
  00006	8b 55 0c	 mov	 edx, DWORD PTR _dwSlotPos$[ebp]
  00009	56		 push	 esi
  0000a	8b f1		 mov	 esi, ecx
  0000c	3c 03		 cmp	 al, 3
  0000e	73 4a		 jae	 SHORT $LN3@SetItemDat
  00010	83 fa 50	 cmp	 edx, 80			; 00000050H
  00013	73 45		 jae	 SHORT $LN3@SetItemDat

; 78   : 		return;
; 79   : 	}
; 80   : 
; 81   : 	m_aShoptabs[tabIdx].items[dwSlotPos] = c_rShopItemData;

  00015	0f b6 c0	 movzx	 eax, al
  00018	69 c8 cc 0e 00
	00		 imul	 ecx, eax, 3788
  0001e	6b d2 2f	 imul	 edx, edx, 47
  00021	03 ce		 add	 ecx, esi
  00023	03 d1		 add	 edx, ecx
  00025	8b 4d 10	 mov	 ecx, DWORD PTR _c_rShopItemData$[ebp]
  00028	5e		 pop	 esi
  00029	0f 10 01	 movups	 xmm0, XMMWORD PTR [ecx]
  0002c	0f 11 42 30	 movups	 XMMWORD PTR [edx+48], xmm0
  00030	0f 10 41 10	 movups	 xmm0, XMMWORD PTR [ecx+16]
  00034	0f 11 42 40	 movups	 XMMWORD PTR [edx+64], xmm0
  00038	f3 0f 7e 41 20	 movq	 xmm0, QWORD PTR [ecx+32]
  0003d	66 0f d6 42 50	 movq	 QWORD PTR [edx+80], xmm0
  00042	8b 41 28	 mov	 eax, DWORD PTR [ecx+40]
  00045	89 42 58	 mov	 DWORD PTR [edx+88], eax
  00048	66 8b 41 2c	 mov	 ax, WORD PTR [ecx+44]
  0004c	66 89 42 5c	 mov	 WORD PTR [edx+92], ax
  00050	8a 41 2e	 mov	 al, BYTE PTR [ecx+46]
  00053	88 42 5e	 mov	 BYTE PTR [edx+94], al

; 82   : }

  00056	5d		 pop	 ebp
  00057	c2 0c 00	 ret	 12			; 0000000cH
$LN3@SetItemDat:

; 76   : 	{
; 77   : 		TraceError("Out of Index. tabIdx(%d) must be less than %d. dwSlotPos(%d) must be less than %d", tabIdx, SHOP_TAB_COUNT_MAX, dwSlotPos, SHOP_HOST_ITEM_MAX_NUM);

  0005a	6a 50		 push	 80			; 00000050H
  0005c	52		 push	 edx
  0005d	6a 03		 push	 3
  0005f	0f b6 c0	 movzx	 eax, al
  00062	50		 push	 eax
  00063	68 00 00 00 00	 push	 OFFSET ??_C@_0FC@PFANBFHB@Out?5of?5Index?4?5tabIdx?$CI?$CFd?$CJ?5must?5b@
  00068	e8 00 00 00 00	 call	 ?TraceError@@YAXPBDZZ	; TraceError
  0006d	83 c4 14	 add	 esp, 20			; 00000014H
  00070	5e		 pop	 esi

; 82   : }

  00071	5d		 pop	 ebp
  00072	c2 0c 00	 ret	 12			; 0000000cH
?SetItemData@CPythonShop@@QAEXEKABUpacket_shop_item@@@Z ENDP ; CPythonShop::SetItemData
_TEXT	ENDS
; Function compile flags: /Ogtp
; File E:\Metin2_server\SolWayneSF v6\ClientVS22\source\UserInterface\PythonShop.cpp
; File C:\Program Files\Microsoft Visual Studio\2022\Community\VC\Tools\MSVC\14.34.31933\include\xstring
; File E:\Metin2_server\SolWayneSF v6\ClientVS22\source\UserInterface\PythonShop.cpp
; File C:\Program Files\Microsoft Visual Studio\2022\Community\VC\Tools\MSVC\14.34.31933\include\xstring
; File E:\Metin2_server\SolWayneSF v6\ClientVS22\source\UserInterface\PythonShop.cpp
;	COMDAT ?SetTabName@CPythonShop@@QAEXEPBD@Z
_TEXT	SEGMENT
_tabIdx$ = 8						; size = 1
_name$ = 12						; size = 4
?SetTabName@CPythonShop@@QAEXEPBD@Z PROC		; CPythonShop::SetTabName, COMDAT
; _this$ = ecx

; 37   : {

  00000	55		 push	 ebp
  00001	8b ec		 mov	 ebp, esp

; 38   : 	if (tabIdx >= m_bTabCount)

  00003	8a 45 08	 mov	 al, BYTE PTR _tabIdx$[ebp]
  00006	56		 push	 esi
  00007	8b f1		 mov	 esi, ecx
  00009	0f b6 d0	 movzx	 edx, al
  0000c	3a 46 10	 cmp	 al, BYTE PTR [esi+16]
  0000f	72 15		 jb	 SHORT $LN2@SetTabName

; 39   : 	{	
; 40   : 		TraceError("Out of Index. tabIdx(%d) must be less than %d.", tabIdx, SHOP_TAB_COUNT_MAX);

  00011	6a 03		 push	 3
  00013	52		 push	 edx
  00014	68 00 00 00 00	 push	 OFFSET ??_C@_0CP@FJEENICJ@Out?5of?5Index?4?5tabIdx?$CI?$CFd?$CJ?5must?5b@
  00019	e8 00 00 00 00	 call	 ?TraceError@@YAXPBDZZ	; TraceError
  0001e	83 c4 0c	 add	 esp, 12			; 0000000cH
  00021	5e		 pop	 esi

; 44   : }

  00022	5d		 pop	 ebp
  00023	c2 08 00	 ret	 8
$LN2@SetTabName:
; File C:\Program Files\Microsoft Visual Studio\2022\Community\VC\Tools\MSVC\14.34.31933\include\xstring

; 415  :             return __builtin_strlen(_First);

  00026	8b 4d 0c	 mov	 ecx, DWORD PTR _name$[ebp]
  00029	53		 push	 ebx
  0002a	8d 59 01	 lea	 ebx, DWORD PTR [ecx+1]
  0002d	0f 1f 00	 npad	 3
$LL10@SetTabName:
  00030	8a 01		 mov	 al, BYTE PTR [ecx]
  00032	41		 inc	 ecx
  00033	84 c0		 test	 al, al
  00035	75 f9		 jne	 SHORT $LL10@SetTabName
  00037	2b cb		 sub	 ecx, ebx

; 3546 :         return assign(_Ptr, _Convert_size<size_type>(_Traits::length(_Ptr)));

  00039	51		 push	 ecx
  0003a	ff 75 0c	 push	 DWORD PTR _name$[ebp]
; File E:\Metin2_server\SolWayneSF v6\ClientVS22\source\UserInterface\PythonShop.cpp

; 43   : 	m_aShoptabs[tabIdx].name = name;

  0003d	69 ca cc 0e 00
	00		 imul	 ecx, edx, 3788
  00043	83 c1 18	 add	 ecx, 24			; 00000018H
  00046	03 ce		 add	 ecx, esi
; File C:\Program Files\Microsoft Visual Studio\2022\Community\VC\Tools\MSVC\14.34.31933\include\xstring

; 3546 :         return assign(_Ptr, _Convert_size<size_type>(_Traits::length(_Ptr)));

  00048	e8 00 00 00 00	 call	 ?assign@?$basic_string@DU?$char_traits@D@std@@V?$allocator@D@2@@std@@QAEAAV12@QBDI@Z ; std::basic_string<char,std::char_traits<char>,std::allocator<char> >::assign
  0004d	5b		 pop	 ebx
  0004e	5e		 pop	 esi
; File E:\Metin2_server\SolWayneSF v6\ClientVS22\source\UserInterface\PythonShop.cpp

; 44   : }

  0004f	5d		 pop	 ebp
  00050	c2 08 00	 ret	 8
?SetTabName@CPythonShop@@QAEXEPBD@Z ENDP		; CPythonShop::SetTabName
_TEXT	ENDS
; Function compile flags: /Ogtp
; File E:\Metin2_server\SolWayneSF v6\ClientVS22\source\UserInterface\PythonShop.cpp
;	COMDAT ?SetTabCoinType@CPythonShop@@QAEXEE@Z
_TEXT	SEGMENT
_tabIdx$ = 8						; size = 1
_coinType$ = 12						; size = 1
?SetTabCoinType@CPythonShop@@QAEXEE@Z PROC		; CPythonShop::SetTabCoinType, COMDAT
; _this$ = ecx

; 17   : {

  00000	55		 push	 ebp
  00001	8b ec		 mov	 ebp, esp

; 18   : 	if (tabIdx >= m_bTabCount)

  00003	8a 45 08	 mov	 al, BYTE PTR _tabIdx$[ebp]
  00006	56		 push	 esi
  00007	8b f1		 mov	 esi, ecx
  00009	0f b6 d0	 movzx	 edx, al
  0000c	3a 46 10	 cmp	 al, BYTE PTR [esi+16]
  0000f	72 15		 jb	 SHORT $LN2@SetTabCoin

; 19   : 	{	
; 20   : 		TraceError("Out of Index. tabIdx(%d) must be less than %d.", tabIdx, SHOP_TAB_COUNT_MAX);

  00011	6a 03		 push	 3
  00013	52		 push	 edx
  00014	68 00 00 00 00	 push	 OFFSET ??_C@_0CP@FJEENICJ@Out?5of?5Index?4?5tabIdx?$CI?$CFd?$CJ?5must?5b@
  00019	e8 00 00 00 00	 call	 ?TraceError@@YAXPBDZZ	; TraceError
  0001e	83 c4 0c	 add	 esp, 12			; 0000000cH
  00021	5e		 pop	 esi

; 24   : }

  00022	5d		 pop	 ebp
  00023	c2 08 00	 ret	 8
$LN2@SetTabCoin:

; 21   : 		return;
; 22   : 	}
; 23   : 	m_aShoptabs[tabIdx].coinType = coinType;

  00026	8a 45 0c	 mov	 al, BYTE PTR _coinType$[ebp]
  00029	69 ca cc 0e 00
	00		 imul	 ecx, edx, 3788
  0002f	88 44 31 14	 mov	 BYTE PTR [ecx+esi+20], al
  00033	5e		 pop	 esi

; 24   : }

  00034	5d		 pop	 ebp
  00035	c2 08 00	 ret	 8
?SetTabCoinType@CPythonShop@@QAEXEE@Z ENDP		; CPythonShop::SetTabCoinType
_TEXT	ENDS
; Function compile flags: /Ogtp
; File E:\Metin2_server\SolWayneSF v6\ClientVS22\source\UserInterface\PythonShop.cpp
;	COMDAT ?SetItemData@CPythonShop@@QAEXKABUpacket_shop_item@@@Z
_TEXT	SEGMENT
_dwIndex$ = 8						; size = 4
_c_rShopItemData$ = 12					; size = 4
?SetItemData@CPythonShop@@QAEXKABUpacket_shop_item@@@Z PROC ; CPythonShop::SetItemData, COMDAT
; _this$ = ecx

; 58   : {

  00000	55		 push	 ebp
  00001	8b ec		 mov	 ebp, esp
  00003	56		 push	 esi

; 59   : 	BYTE tabIdx = dwIndex / SHOP_HOST_ITEM_MAX_NUM;
; 60   : 	DWORD dwSlotPos = dwIndex % SHOP_HOST_ITEM_MAX_NUM;

  00004	8b 75 08	 mov	 esi, DWORD PTR _dwIndex$[ebp]
  00007	b8 cd cc cc cc	 mov	 eax, -858993459		; cccccccdH

; 61   : 	
; 62   : 	SetItemData(tabIdx, dwSlotPos, c_rShopItemData);

  0000c	ff 75 0c	 push	 DWORD PTR _c_rShopItemData$[ebp]
  0000f	f7 e6		 mul	 esi
  00011	c1 ea 06	 shr	 edx, 6
  00014	8d 04 92	 lea	 eax, DWORD PTR [edx+edx*4]
  00017	c1 e0 04	 shl	 eax, 4
  0001a	2b f0		 sub	 esi, eax
  0001c	56		 push	 esi
  0001d	52		 push	 edx
  0001e	e8 00 00 00 00	 call	 ?SetItemData@CPythonShop@@QAEXEKABUpacket_shop_item@@@Z ; CPythonShop::SetItemData
  00023	5e		 pop	 esi

; 63   : }

  00024	5d		 pop	 ebp
  00025	c2 08 00	 ret	 8
?SetItemData@CPythonShop@@QAEXKABUpacket_shop_item@@@Z ENDP ; CPythonShop::SetItemData
_TEXT	ENDS
; Function compile flags: /Ogtp
; File E:\Metin2_server\SolWayneSF v6\ClientVS22\source\UserInterface\PythonShop.cpp
;	COMDAT ?Clear@CPythonShop@@QAEXXZ
_TEXT	SEGMENT
?Clear@CPythonShop@@QAEXXZ PROC				; CPythonShop::Clear, COMDAT
; _this$ = ecx

; 191  : {

  00000	56		 push	 esi
  00001	8b f1		 mov	 esi, ecx
  00003	57		 push	 edi

; 192  : 	m_isShoping = FALSE;

  00004	c7 46 04 00 00
	00 00		 mov	 DWORD PTR [esi+4], 0

; 193  : 	m_isPrivateShop = FALSE;

  0000b	c7 46 08 00 00
	00 00		 mov	 DWORD PTR [esi+8], 0

; 194  : 	m_isMainPlayerPrivateShop = FALSE;

  00012	c7 46 0c 00 00
	00 00		 mov	 DWORD PTR [esi+12], 0

; 195  : 	ClearPrivateShopStock();

  00019	e8 00 00 00 00	 call	 ?ClearPrivateShopStock@CPythonShop@@QAEXXZ ; CPythonShop::ClearPrivateShopStock

; 196  : 	m_bTabCount = 1;

  0001e	c6 46 10 01	 mov	 BYTE PTR [esi+16], 1
  00022	bf 03 00 00 00	 mov	 edi, 3
  00027	83 c6 30	 add	 esi, 48			; 00000030H
  0002a	66 0f 1f 44 00
	00		 npad	 6
$LL4@Clear:

; 197  : 
; 198  : 	for (int i = 0; i < SHOP_TAB_COUNT_MAX; i++)
; 199  : 		memset (m_aShoptabs[i].items, 0, sizeof(TShopItemData) * SHOP_HOST_ITEM_MAX_NUM);

  00030	68 b0 0e 00 00	 push	 3760			; 00000eb0H
  00035	6a 00		 push	 0
  00037	56		 push	 esi
  00038	e8 00 00 00 00	 call	 _memset
  0003d	83 c4 0c	 add	 esp, 12			; 0000000cH
  00040	81 c6 cc 0e 00
	00		 add	 esi, 3788		; 00000eccH
  00046	83 ef 01	 sub	 edi, 1
  00049	75 e5		 jne	 SHORT $LL4@Clear

; 200  : }

  0004b	5f		 pop	 edi
  0004c	5e		 pop	 esi
  0004d	c3		 ret	 0
?Clear@CPythonShop@@QAEXXZ ENDP				; CPythonShop::Clear
_TEXT	ENDS
; Function compile flags: /Ogtp
; File E:\Metin2_server\SolWayneSF v6\ClientVS22\source\UserInterface\PythonShop.cpp
;	COMDAT ?IsOpen@CPythonShop@@QAEHXZ
_TEXT	SEGMENT
?IsOpen@CPythonShop@@QAEHXZ PROC			; CPythonShop::IsOpen, COMDAT
; _this$ = ecx

; 177  : 	return m_isShoping;

  00000	8b 41 04	 mov	 eax, DWORD PTR [ecx+4]

; 178  : }

  00003	c3		 ret	 0
?IsOpen@CPythonShop@@QAEHXZ ENDP			; CPythonShop::IsOpen
_TEXT	ENDS
; Function compile flags: /Ogtp
; File E:\Metin2_server\SolWayneSF v6\ClientVS22\source\UserInterface\PythonShop.h
;	COMDAT ?GetTabCount@CPythonShop@@QAEEXZ
_TEXT	SEGMENT
?GetTabCount@CPythonShop@@QAEEXZ PROC			; CPythonShop::GetTabCount, COMDAT
; _this$ = ecx

; 35   : 		BYTE GetTabCount() { return m_bTabCount; }

  00000	8a 41 10	 mov	 al, BYTE PTR [ecx+16]
  00003	c3		 ret	 0
?GetTabCount@CPythonShop@@QAEEXZ ENDP			; CPythonShop::GetTabCount
_TEXT	ENDS
; Function compile flags: /Ogtp
; File E:\Metin2_server\SolWayneSF v6\ClientVS22\source\UserInterface\PythonShop.h
; File C:\Program Files\Microsoft Visual Studio\2022\Community\VC\Tools\MSVC\14.34.31933\include\xstring
; File E:\Metin2_server\SolWayneSF v6\ClientVS22\source\UserInterface\PythonShop.h
;	COMDAT ??0ShopTab@CPythonShop@@QAE@XZ
_TEXT	SEGMENT
??0ShopTab@CPythonShop@@QAE@XZ PROC			; CPythonShop::ShopTab::ShopTab, COMDAT
; _this$ = ecx

; 68   : 			ShopTab()

  00000	0f 57 c0	 xorps	 xmm0, xmm0

; 71   : 			}

  00003	8b c1		 mov	 eax, ecx
; File C:\Program Files\Microsoft Visual Studio\2022\Community\VC\Tools\MSVC\14.34.31933\include\xstring

; 2339 :         _CONSTEXPR20 _Bxty() noexcept : _Buf() {} // user-provided, for fancy pointers

  00005	0f 11 41 04	 movups	 XMMWORD PTR [ecx+4], xmm0

; 4995 :         _My_data._Mysize = 0;

  00009	c7 41 14 00 00
	00 00		 mov	 DWORD PTR [ecx+20], 0

; 4996 :         _My_data._Myres  = _BUF_SIZE - 1;

  00010	c7 41 18 0f 00
	00 00		 mov	 DWORD PTR [ecx+24], 15	; 0000000fH

; 4997 :         _My_data._Activate_SSO_buffer();
; 4998 : 
; 4999 :         // the _Traits::assign is last so the codegen doesn't think the char write can alias this
; 5000 :         _Traits::assign(_My_data._Bx._Buf[0], _Elem());

  00017	c6 41 04 00	 mov	 BYTE PTR [ecx+4], 0
; File E:\Metin2_server\SolWayneSF v6\ClientVS22\source\UserInterface\PythonShop.h

; 70   : 				coinType = SHOP_COIN_TYPE_GOLD;

  0001b	c6 01 00	 mov	 BYTE PTR [ecx], 0

; 71   : 			}

  0001e	c3		 ret	 0
??0ShopTab@CPythonShop@@QAE@XZ ENDP			; CPythonShop::ShopTab::ShopTab
_TEXT	ENDS
; Function compile flags: /Ogtp
; File E:\Metin2_server\SolWayneSF v6\ClientVS22\source\UserInterface\PythonShop.cpp
;	COMDAT ?GetTabCoinType@CPythonShop@@QAEEE@Z
_TEXT	SEGMENT
_tabIdx$ = 8						; size = 1
?GetTabCoinType@CPythonShop@@QAEEE@Z PROC		; CPythonShop::GetTabCoinType, COMDAT
; _this$ = ecx

; 27   : {

  00000	55		 push	 ebp
  00001	8b ec		 mov	 ebp, esp

; 28   : 	if (tabIdx >= m_bTabCount)

  00003	8a 45 08	 mov	 al, BYTE PTR _tabIdx$[ebp]
  00006	0f b6 d0	 movzx	 edx, al
  00009	3a 41 10	 cmp	 al, BYTE PTR [ecx+16]
  0000c	72 16		 jb	 SHORT $LN2@GetTabCoin

; 29   : 	{
; 30   : 		TraceError("Out of Index. tabIdx(%d) must be less than %d.", tabIdx, SHOP_TAB_COUNT_MAX);

  0000e	6a 03		 push	 3
  00010	52		 push	 edx
  00011	68 00 00 00 00	 push	 OFFSET ??_C@_0CP@FJEENICJ@Out?5of?5Index?4?5tabIdx?$CI?$CFd?$CJ?5must?5b@
  00016	e8 00 00 00 00	 call	 ?TraceError@@YAXPBDZZ	; TraceError
  0001b	83 c4 0c	 add	 esp, 12			; 0000000cH

; 31   : 		return 0xff;

  0001e	0c ff		 or	 al, 255			; 000000ffH

; 34   : }

  00020	5d		 pop	 ebp
  00021	c2 04 00	 ret	 4
$LN2@GetTabCoin:

; 32   : 	}
; 33   : 	return m_aShoptabs[tabIdx].coinType;

  00024	69 c2 cc 0e 00
	00		 imul	 eax, edx, 3788
  0002a	8a 44 08 14	 mov	 al, BYTE PTR [eax+ecx+20]

; 34   : }

  0002e	5d		 pop	 ebp
  0002f	c2 04 00	 ret	 4
?GetTabCoinType@CPythonShop@@QAEEE@Z ENDP		; CPythonShop::GetTabCoinType
_TEXT	ENDS
; Function compile flags: /Ogtp
; File E:\Metin2_server\SolWayneSF v6\ClientVS22\source\UserInterface\PythonShop.cpp
; File C:\Program Files\Microsoft Visual Studio\2022\Community\VC\Tools\MSVC\14.34.31933\include\xstring
; File E:\Metin2_server\SolWayneSF v6\ClientVS22\source\UserInterface\PythonShop.cpp
;	COMDAT ?GetTabName@CPythonShop@@QAEPBDE@Z
_TEXT	SEGMENT
_tabIdx$ = 8						; size = 1
?GetTabName@CPythonShop@@QAEPBDE@Z PROC			; CPythonShop::GetTabName, COMDAT
; _this$ = ecx

; 47   : {

  00000	55		 push	 ebp
  00001	8b ec		 mov	 ebp, esp

; 48   : 	if (tabIdx >= m_bTabCount)

  00003	8a 45 08	 mov	 al, BYTE PTR _tabIdx$[ebp]
  00006	0f b6 d0	 movzx	 edx, al
  00009	3a 41 10	 cmp	 al, BYTE PTR [ecx+16]
  0000c	72 16		 jb	 SHORT $LN2@GetTabName

; 49   : 	{
; 50   : 		TraceError("Out of Index. tabIdx(%d) must be less than %d.", tabIdx, SHOP_TAB_COUNT_MAX);

  0000e	6a 03		 push	 3
  00010	52		 push	 edx
  00011	68 00 00 00 00	 push	 OFFSET ??_C@_0CP@FJEENICJ@Out?5of?5Index?4?5tabIdx?$CI?$CFd?$CJ?5must?5b@
  00016	e8 00 00 00 00	 call	 ?TraceError@@YAXPBDZZ	; TraceError
  0001b	83 c4 0c	 add	 esp, 12			; 0000000cH

; 51   : 		return NULL;

  0001e	33 c0		 xor	 eax, eax

; 55   : }

  00020	5d		 pop	 ebp
  00021	c2 04 00	 ret	 4
$LN2@GetTabName:

; 52   : 	}
; 53   : 
; 54   : 	return m_aShoptabs[tabIdx].name.c_str();

  00024	69 c2 cc 0e 00
	00		 imul	 eax, edx, 3788
; File C:\Program Files\Microsoft Visual Studio\2022\Community\VC\Tools\MSVC\14.34.31933\include\xstring

; 4256 :         return _Mypair._Myval2._Myptr();

  0002a	83 c0 18	 add	 eax, 24			; 00000018H
  0002d	03 c1		 add	 eax, ecx

; 2301 :         return _BUF_SIZE <= _Myres;

  0002f	83 78 14 10	 cmp	 DWORD PTR [eax+20], 16	; 00000010H

; 2293 :         if (_Large_string_engaged()) {

  00033	72 02		 jb	 SHORT $LN1@GetTabName

; 2294 :             _Result = _Unfancy(_Bx._Ptr);

  00035	8b 00		 mov	 eax, DWORD PTR [eax]
$LN1@GetTabName:
; File E:\Metin2_server\SolWayneSF v6\ClientVS22\source\UserInterface\PythonShop.cpp

; 55   : }

  00037	5d		 pop	 ebp
  00038	c2 04 00	 ret	 4
?GetTabName@CPythonShop@@QAEPBDE@Z ENDP			; CPythonShop::GetTabName
_TEXT	ENDS
; Function compile flags: /Ogtp
; File E:\Metin2_server\SolWayneSF v6\ClientVS22\source\UserInterface\PythonShop.cpp
;	COMDAT ?GetItemData@CPythonShop@@QAEHKPAPBUpacket_shop_item@@@Z
_TEXT	SEGMENT
_dwIndex$ = 8						; size = 4
_c_ppItemData$ = 12					; size = 4
?GetItemData@CPythonShop@@QAEHKPAPBUpacket_shop_item@@@Z PROC ; CPythonShop::GetItemData, COMDAT
; _this$ = ecx

; 66   : {

  00000	55		 push	 ebp
  00001	8b ec		 mov	 ebp, esp
  00003	56		 push	 esi

; 67   : 	BYTE tabIdx = dwIndex / SHOP_HOST_ITEM_MAX_NUM;
; 68   : 	DWORD dwSlotPos = dwIndex % SHOP_HOST_ITEM_MAX_NUM;

  00004	8b 75 08	 mov	 esi, DWORD PTR _dwIndex$[ebp]
  00007	b8 cd cc cc cc	 mov	 eax, -858993459		; cccccccdH

; 69   : 
; 70   : 	return GetItemData(tabIdx, dwSlotPos, c_ppItemData);

  0000c	ff 75 0c	 push	 DWORD PTR _c_ppItemData$[ebp]
  0000f	f7 e6		 mul	 esi
  00011	c1 ea 06	 shr	 edx, 6
  00014	8d 04 92	 lea	 eax, DWORD PTR [edx+edx*4]
  00017	c1 e0 04	 shl	 eax, 4
  0001a	2b f0		 sub	 esi, eax
  0001c	56		 push	 esi
  0001d	52		 push	 edx
  0001e	e8 00 00 00 00	 call	 ?GetItemData@CPythonShop@@QAEHEKPAPBUpacket_shop_item@@@Z ; CPythonShop::GetItemData
  00023	5e		 pop	 esi

; 71   : }

  00024	5d		 pop	 ebp
  00025	c2 08 00	 ret	 8
?GetItemData@CPythonShop@@QAEHKPAPBUpacket_shop_item@@@Z ENDP ; CPythonShop::GetItemData
_TEXT	ENDS
; Function compile flags: /Ogtp
; File E:\Metin2_server\SolWayneSF v6\ClientVS22\source\UserInterface\PythonShop.cpp
;	COMDAT ?GetItemData@CPythonShop@@QAEHEKPAPBUpacket_shop_item@@@Z
_TEXT	SEGMENT
_tabIdx$ = 8						; size = 1
_dwSlotPos$ = 12					; size = 4
_c_ppItemData$ = 16					; size = 4
?GetItemData@CPythonShop@@QAEHEKPAPBUpacket_shop_item@@@Z PROC ; CPythonShop::GetItemData, COMDAT
; _this$ = ecx

; 85   : {

  00000	55		 push	 ebp
  00001	8b ec		 mov	 ebp, esp

; 86   : 	if (tabIdx >= SHOP_TAB_COUNT_MAX || dwSlotPos >= SHOP_HOST_ITEM_MAX_NUM)

  00003	8a 45 08	 mov	 al, BYTE PTR _tabIdx$[ebp]
  00006	8b 55 0c	 mov	 edx, DWORD PTR _dwSlotPos$[ebp]
  00009	56		 push	 esi
  0000a	8b f1		 mov	 esi, ecx
  0000c	3c 03		 cmp	 al, 3
  0000e	73 27		 jae	 SHORT $LN3@GetItemDat
  00010	83 fa 50	 cmp	 edx, 80			; 00000050H
  00013	73 22		 jae	 SHORT $LN3@GetItemDat

; 90   : 	}
; 91   : 
; 92   : 	*c_ppItemData = &m_aShoptabs[tabIdx].items[dwSlotPos];

  00015	0f b6 c0	 movzx	 eax, al
  00018	69 c8 cc 0e 00
	00		 imul	 ecx, eax, 3788
  0001e	6b c2 2f	 imul	 eax, edx, 47
  00021	03 ce		 add	 ecx, esi
  00023	83 c0 30	 add	 eax, 48			; 00000030H
  00026	03 c8		 add	 ecx, eax
  00028	8b 45 10	 mov	 eax, DWORD PTR _c_ppItemData$[ebp]
  0002b	5e		 pop	 esi
  0002c	89 08		 mov	 DWORD PTR [eax], ecx

; 93   : 
; 94   : 	return TRUE;

  0002e	b8 01 00 00 00	 mov	 eax, 1

; 95   : }

  00033	5d		 pop	 ebp
  00034	c2 0c 00	 ret	 12			; 0000000cH
$LN3@GetItemDat:

; 87   : 	{
; 88   : 		TraceError("Out of Index. tabIdx(%d) must be less than %d. dwSlotPos(%d) must be less than %d", tabIdx, SHOP_TAB_COUNT_MAX, dwSlotPos, SHOP_HOST_ITEM_MAX_NUM);

  00037	6a 50		 push	 80			; 00000050H
  00039	52		 push	 edx
  0003a	6a 03		 push	 3
  0003c	0f b6 c0	 movzx	 eax, al
  0003f	50		 push	 eax
  00040	68 00 00 00 00	 push	 OFFSET ??_C@_0FC@PFANBFHB@Out?5of?5Index?4?5tabIdx?$CI?$CFd?$CJ?5must?5b@
  00045	e8 00 00 00 00	 call	 ?TraceError@@YAXPBDZZ	; TraceError
  0004a	83 c4 14	 add	 esp, 20			; 00000014H

; 89   : 		return FALSE;

  0004d	33 c0		 xor	 eax, eax
  0004f	5e		 pop	 esi

; 95   : }

  00050	5d		 pop	 ebp
  00051	c2 0c 00	 ret	 12			; 0000000cH
?GetItemData@CPythonShop@@QAEHEKPAPBUpacket_shop_item@@@Z ENDP ; CPythonShop::GetItemData
_TEXT	ENDS
; Function compile flags: /Ogtp
; File E:\Metin2_server\SolWayneSF v6\ClientVS22\source\UserInterface\PythonShop.cpp
; File C:\Program Files\Microsoft Visual Studio\2022\Community\VC\Tools\MSVC\14.34.31933\include\xtree
; File E:\Metin2_server\SolWayneSF v6\ClientVS22\source\UserInterface\PythonShop.cpp
; File C:\Program Files\Microsoft Visual Studio\2022\Community\VC\Tools\MSVC\14.34.31933\include\xtree
; File E:\Metin2_server\SolWayneSF v6\ClientVS22\source\UserInterface\PythonShop.cpp
;	COMDAT ?ClearPrivateShopStock@CPythonShop@@QAEXXZ
_TEXT	SEGMENT
?ClearPrivateShopStock@CPythonShop@@QAEXXZ PROC		; CPythonShop::ClearPrivateShopStock, COMDAT
; _this$ = ecx

; 106  : {

  00000	56		 push	 esi
; File C:\Program Files\Microsoft Visual Studio\2022\Community\VC\Tools\MSVC\14.34.31933\include\xtree

; 1356 :         auto _Head = _Scary->_Myhead;

  00001	8b b1 78 2c 00
	00		 mov	 esi, DWORD PTR [ecx+11384]
; File E:\Metin2_server\SolWayneSF v6\ClientVS22\source\UserInterface\PythonShop.cpp

; 106  : {

  00007	57		 push	 edi

; 107  : 	m_PrivateShopItemStock.clear();

  00008	8d b9 78 2c 00
	00		 lea	 edi, DWORD PTR [ecx+11384]
; File C:\Program Files\Microsoft Visual Studio\2022\Community\VC\Tools\MSVC\14.34.31933\include\xtree

; 1357 :         _Scary->_Erase_tree(_Getal(), _Head->_Parent);

  0000e	8b cf		 mov	 ecx, edi
  00010	ff 76 04	 push	 DWORD PTR [esi+4]
  00013	57		 push	 edi
  00014	e8 00 00 00 00	 call	 ??$_Erase_tree@V?$allocator@U?$_Tree_node@U?$pair@$$CBUSItemPos@@USShopItemTable@@@std@@PAX@std@@@std@@@?$_Tree_val@U?$_Tree_simple_types@U?$pair@$$CBUSItemPos@@USShopItemTable@@@std@@@std@@@std@@QAEXAAV?$allocator@U?$_Tree_node@U?$pair@$$CBUSItemPos@@USShopItemTable@@@std@@PAX@std@@@1@PAU?$_Tree_node@U?$pair@$$CBUSItemPos@@USShopItemTable@@@std@@PAX@1@@Z ; std::_Tree_val<std::_Tree_simple_types<std::pair<SItemPos const ,SShopItemTable> > >::_Erase_tree<std::allocator<std::_Tree_node<std::pair<SItemPos const ,SShopItemTable>,void *> > >

; 1358 :         _Head->_Parent  = _Head;

  00019	89 76 04	 mov	 DWORD PTR [esi+4], esi

; 1359 :         _Head->_Left    = _Head;

  0001c	89 36		 mov	 DWORD PTR [esi], esi

; 1360 :         _Head->_Right   = _Head;

  0001e	89 76 08	 mov	 DWORD PTR [esi+8], esi

; 1361 :         _Scary->_Mysize = 0;

  00021	c7 47 04 00 00
	00 00		 mov	 DWORD PTR [edi+4], 0
  00028	5f		 pop	 edi
  00029	5e		 pop	 esi
; File E:\Metin2_server\SolWayneSF v6\ClientVS22\source\UserInterface\PythonShop.cpp

; 108  : }

  0002a	c3		 ret	 0
?ClearPrivateShopStock@CPythonShop@@QAEXXZ ENDP		; CPythonShop::ClearPrivateShopStock
_TEXT	ENDS
; Function compile flags: /Ogtp
; File E:\Metin2_server\SolWayneSF v6\ClientVS22\source\UserInterface\PythonShop.cpp
; File C:\Program Files\Microsoft Visual Studio\2022\Community\VC\Tools\MSVC\14.34.31933\include\utility
; File C:\Program Files\Microsoft Visual Studio\2022\Community\VC\Tools\MSVC\14.34.31933\include\xtree
; File E:\Metin2_server\SolWayneSF v6\ClientVS22\source\UserInterface\PythonShop.cpp
; File C:\Program Files\Microsoft Visual Studio\2022\Community\VC\Tools\MSVC\14.34.31933\include\xtree
; File E:\Metin2_server\SolWayneSF v6\ClientVS22\source\UserInterface\PythonShop.cpp
; File C:\Program Files\Microsoft Visual Studio\2022\Community\VC\Tools\MSVC\14.34.31933\include\xtree
; File E:\Metin2_server\SolWayneSF v6\ClientVS22\source\UserInterface\PythonShop.cpp
; File C:\Program Files\Microsoft Visual Studio\2022\Community\VC\Tools\MSVC\14.34.31933\include\xtree
; File E:\Metin2_server\SolWayneSF v6\ClientVS22\source\UserInterface\PythonShop.cpp
; File C:\Program Files\Microsoft Visual Studio\2022\Community\VC\Tools\MSVC\14.34.31933\include\utility
; File C:\Program Files\Microsoft Visual Studio\2022\Community\VC\Tools\MSVC\14.34.31933\include\xtree
; File E:\Metin2_server\SolWayneSF v6\ClientVS22\source\UserInterface\PythonShop.cpp
; File C:\Program Files\Microsoft Visual Studio\2022\Community\VC\Tools\MSVC\14.34.31933\include\utility
; File C:\Program Files\Microsoft Visual Studio\2022\Community\VC\Tools\MSVC\14.34.31933\include\xtree
; File E:\Metin2_server\SolWayneSF v6\ClientVS22\source\UserInterface\GameType.h
; File C:\Program Files\Microsoft Visual Studio\2022\Community\VC\Tools\MSVC\14.34.31933\include\xtree
; File C:\Program Files\Microsoft Visual Studio\2022\Community\VC\Tools\MSVC\14.34.31933\include\xmemory
; File C:\Program Files\Microsoft Visual Studio\2022\Community\VC\Tools\MSVC\14.34.31933\include\xtree
; File C:\Program Files\Microsoft Visual Studio\2022\Community\VC\Tools\MSVC\14.34.31933\include\xmemory
; File C:\Program Files\Microsoft Visual Studio\2022\Community\VC\Tools\MSVC\14.34.31933\include\utility
; File C:\Program Files\Microsoft Visual Studio\2022\Community\VC\Tools\MSVC\14.34.31933\include\xmemory
; File C:\Program Files\Microsoft Visual Studio\2022\Community\VC\Tools\MSVC\14.34.31933\include\utility
; File C:\Program Files\Microsoft Visual Studio\2022\Community\VC\Tools\MSVC\14.34.31933\include\xtree
; File E:\Metin2_server\SolWayneSF v6\ClientVS22\source\UserInterface\PythonShop.cpp
; File C:\Program Files\Microsoft Visual Studio\2022\Community\VC\Tools\MSVC\14.34.31933\include\xtree
; File E:\Metin2_server\SolWayneSF v6\ClientVS22\source\UserInterface\PythonShop.cpp
;	COMDAT ?AddPrivateShopItemStock@CPythonShop@@QAEXUSItemPos@@E_J@Z
_TEXT	SEGMENT
_SellingItem$ = -72					; size = 17
$T2 = -52						; size = 20
__Loc$3 = -44						; size = 12
$T4 = -32						; size = 12
$T5 = -28						; size = 8
$T6 = -20						; size = 2
$T7 = -17						; size = 1
__$EHRec$ = -12						; size = 12
_ItemPos$ = 8						; size = 3
_dwDisplayPos$ = 12					; size = 1
_dwPrice$ = 16						; size = 8
?AddPrivateShopItemStock@CPythonShop@@QAEXUSItemPos@@E_J@Z PROC ; CPythonShop::AddPrivateShopItemStock, COMDAT
; _this$ = ecx

; 110  : {

  00000	53		 push	 ebx
  00001	8b dc		 mov	 ebx, esp
  00003	83 ec 08	 sub	 esp, 8
  00006	83 e4 f8	 and	 esp, -8			; fffffff8H
  00009	83 c4 04	 add	 esp, 4
  0000c	55		 push	 ebp
  0000d	8b 6b 04	 mov	 ebp, DWORD PTR [ebx+4]
  00010	89 6c 24 04	 mov	 DWORD PTR [esp+4], ebp
  00014	8b ec		 mov	 ebp, esp
  00016	6a ff		 push	 -1
  00018	68 00 00 00 00	 push	 __ehhandler$?AddPrivateShopItemStock@CPythonShop@@QAEXUSItemPos@@E_J@Z
  0001d	64 a1 00 00 00
	00		 mov	 eax, DWORD PTR fs:0
  00023	50		 push	 eax
  00024	53		 push	 ebx
  00025	83 ec 38	 sub	 esp, 56			; 00000038H
  00028	56		 push	 esi
  00029	57		 push	 edi
  0002a	a1 00 00 00 00	 mov	 eax, DWORD PTR ___security_cookie
  0002f	33 c5		 xor	 eax, ebp
  00031	50		 push	 eax
  00032	8d 45 f4	 lea	 eax, DWORD PTR __$EHRec$[ebp]
  00035	64 a3 00 00 00
	00		 mov	 DWORD PTR fs:0, eax
  0003b	8b f1		 mov	 esi, ecx

; 111  : 	DelPrivateShopItemStock(ItemPos);

  0003d	66 8b 43 08	 mov	 ax, WORD PTR _ItemPos$[ebx]
  00041	51		 push	 ecx
  00042	8b d4		 mov	 edx, esp
  00044	66 89 02	 mov	 WORD PTR [edx], ax
  00047	8a 43 0a	 mov	 al, BYTE PTR _ItemPos$[ebx+2]
  0004a	88 42 02	 mov	 BYTE PTR [edx+2], al
  0004d	e8 00 00 00 00	 call	 ?DelPrivateShopItemStock@CPythonShop@@QAEXUSItemPos@@@Z ; CPythonShop::DelPrivateShopItemStock

; 116  : 	SellingItem.pos = ItemPos;

  00052	66 8b 43 09	 mov	 ax, WORD PTR _ItemPos$[ebx+1]

; 118  : 	SellingItem.display_pos = dwDisplayPos;
; 119  : 	m_PrivateShopItemStock.insert(std::make_pair(ItemPos, SellingItem));

  00056	8d be 78 2c 00
	00		 lea	 edi, DWORD PTR [esi+11384]
  0005c	66 8b 53 08	 mov	 dx, WORD PTR _ItemPos$[ebx]
  00060	8b 4b 14	 mov	 ecx, DWORD PTR _dwPrice$[ebx+4]
  00063	88 65 bf	 mov	 BYTE PTR _SellingItem$[ebp+7], ah
  00066	8b 43 10	 mov	 eax, DWORD PTR _dwPrice$[ebx]
  00069	89 45 c0	 mov	 DWORD PTR _SellingItem$[ebp+8], eax
; File C:\Program Files\Microsoft Visual Studio\2022\Community\VC\Tools\MSVC\14.34.31933\include\utility

; 172  :         : first(_STD forward<_Other1>(_Val1)), second(_STD forward<_Other2>(_Val2)) {

  0006c	8a 43 0a	 mov	 al, BYTE PTR _ItemPos$[ebx+2]
  0006f	88 45 ef	 mov	 BYTE PTR $T7[ebp], al
  00072	88 45 ce	 mov	 BYTE PTR $T2[ebp+2], al
  00075	8a 43 0c	 mov	 al, BYTE PTR _dwDisplayPos$[ebx]
  00078	88 45 df	 mov	 BYTE PTR $T2[ebp+19], al
; File C:\Program Files\Microsoft Visual Studio\2022\Community\VC\Tools\MSVC\14.34.31933\include\xtree

; 1001 :             _Loc                = _Find_lower_bound(_Keyval);

  0007b	8d 45 cc	 lea	 eax, DWORD PTR $T2[ebp]
; File E:\Metin2_server\SolWayneSF v6\ClientVS22\source\UserInterface\PythonShop.cpp

; 117  : 	SellingItem.price = dwPrice;

  0007e	89 4d c4	 mov	 DWORD PTR _SellingItem$[ebp+12], ecx
; File C:\Program Files\Microsoft Visual Studio\2022\Community\VC\Tools\MSVC\14.34.31933\include\xtree

; 1001 :             _Loc                = _Find_lower_bound(_Keyval);

  00081	8b cf		 mov	 ecx, edi
; File E:\Metin2_server\SolWayneSF v6\ClientVS22\source\UserInterface\PythonShop.cpp

; 116  : 	SellingItem.pos = ItemPos;

  00083	66 89 55 bd	 mov	 WORD PTR _SellingItem$[ebp+5], dx
; File C:\Program Files\Microsoft Visual Studio\2022\Community\VC\Tools\MSVC\14.34.31933\include\xtree

; 1001 :             _Loc                = _Find_lower_bound(_Keyval);

  00087	50		 push	 eax
; File E:\Metin2_server\SolWayneSF v6\ClientVS22\source\UserInterface\PythonShop.cpp

; 114  : 	SellingItem.vnum = 0;

  00088	c7 45 b8 00 00
	00 00		 mov	 DWORD PTR _SellingItem$[ebp], 0
; File C:\Program Files\Microsoft Visual Studio\2022\Community\VC\Tools\MSVC\14.34.31933\include\xtree

; 1001 :             _Loc                = _Find_lower_bound(_Keyval);

  0008f	8d 45 e0	 lea	 eax, DWORD PTR $T4[ebp]
; File E:\Metin2_server\SolWayneSF v6\ClientVS22\source\UserInterface\PythonShop.cpp

; 115  : 	SellingItem.count = 0;

  00092	c6 45 bc 00	 mov	 BYTE PTR _SellingItem$[ebp+4], 0
; File C:\Program Files\Microsoft Visual Studio\2022\Community\VC\Tools\MSVC\14.34.31933\include\utility

; 172  :         : first(_STD forward<_Other1>(_Val1)), second(_STD forward<_Other2>(_Val2)) {

  00096	0f 10 45 b8	 movups	 xmm0, XMMWORD PTR _SellingItem$[ebp]
; File C:\Program Files\Microsoft Visual Studio\2022\Community\VC\Tools\MSVC\14.34.31933\include\xtree

; 1001 :             _Loc                = _Find_lower_bound(_Keyval);

  0009a	50		 push	 eax
; File E:\Metin2_server\SolWayneSF v6\ClientVS22\source\UserInterface\PythonShop.cpp

; 116  : 	SellingItem.pos = ItemPos;

  0009b	66 89 55 ec	 mov	 WORD PTR $T6[ebp], dx
; File C:\Program Files\Microsoft Visual Studio\2022\Community\VC\Tools\MSVC\14.34.31933\include\utility

; 172  :         : first(_STD forward<_Other1>(_Val1)), second(_STD forward<_Other2>(_Val2)) {

  0009f	66 89 55 cc	 mov	 WORD PTR $T2[ebp], dx
  000a3	0f 11 45 cf	 movups	 XMMWORD PTR $T2[ebp+3], xmm0
; File C:\Program Files\Microsoft Visual Studio\2022\Community\VC\Tools\MSVC\14.34.31933\include\xtree

; 1001 :             _Loc                = _Find_lower_bound(_Keyval);

  000a7	e8 00 00 00 00	 call	 ??$_Find_lower_bound@USItemPos@@@?$_Tree@V?$_Tmap_traits@USItemPos@@USShopItemTable@@U?$less@USItemPos@@@std@@V?$allocator@U?$pair@$$CBUSItemPos@@USShopItemTable@@@std@@@4@$0A@@std@@@std@@IBE?AU?$_Tree_find_result@PAU?$_Tree_node@U?$pair@$$CBUSItemPos@@USShopItemTable@@@std@@PAX@std@@@1@ABUSItemPos@@@Z ; std::_Tree<std::_Tmap_traits<SItemPos,SShopItemTable,std::less<SItemPos>,std::allocator<std::pair<SItemPos const ,SShopItemTable> >,0> >::_Find_lower_bound<SItemPos>
  000ac	8b 50 08	 mov	 edx, DWORD PTR [eax+8]
  000af	f3 0f 7e 00	 movq	 xmm0, QWORD PTR [eax]
  000b3	66 0f d6 45 d4	 movq	 QWORD PTR __Loc$3[ebp], xmm0

; 1605 :         return !_Bound->_Isnil && !_DEBUG_LT_PRED(_Getcomp(), _Keyval, _Traits::_Kfn(_Bound->_Myval));

  000b8	80 7a 0d 00	 cmp	 BYTE PTR [edx+13], 0
  000bc	75 15		 jne	 SHORT $LN122@AddPrivate
; File E:\Metin2_server\SolWayneSF v6\ClientVS22\source\UserInterface\GameType.h

; 270  : 		return (window_type < rhs.window_type) || ((window_type == rhs.window_type) && (cell < rhs.cell));

  000be	66 8b 45 ec	 mov	 ax, WORD PTR $T6[ebp]
  000c2	3a 42 0e	 cmp	 al, BYTE PTR [edx+14]
  000c5	72 0c		 jb	 SHORT $LN122@AddPrivate
  000c7	75 68		 jne	 SHORT $LN109@AddPrivate
  000c9	66 8b 43 09	 mov	 ax, WORD PTR _ItemPos$[ebx+1]
  000cd	66 3b 42 0f	 cmp	 ax, WORD PTR [edx+15]
  000d1	73 5e		 jae	 SHORT $LN109@AddPrivate
$LN122@AddPrivate:
; File C:\Program Files\Microsoft Visual Studio\2022\Community\VC\Tools\MSVC\14.34.31933\include\xtree

; 1629 :         if (max_size() == _Get_scary()->_Mysize) {

  000d3	81 7f 04 c7 71
	1c 07		 cmp	 DWORD PTR [edi+4], 119304647 ; 071c71c7H
  000da	74 6b		 je	 SHORT $LN127@AddPrivate

; 1007 :             _Inserted = _Tree_temp_node<_Alnode>(_Getal(), _Scary->_Myhead, _STD forward<_Valtys>(_Vals)...)._Release();

  000dc	8b 37		 mov	 esi, DWORD PTR [edi]
; File C:\Program Files\Microsoft Visual Studio\2022\Community\VC\Tools\MSVC\14.34.31933\include\xmemory

; 1005 :     _CONSTEXPR20 explicit _Alloc_construct_ptr(_Alloc& _Al_) : _Al(_Al_), _Ptr(nullptr) {}

  000de	89 7d e4	 mov	 DWORD PTR $T5[ebp], edi
; File C:\Program Files\Microsoft Visual Studio\2022\Community\VC\Tools\MSVC\14.34.31933\include\xtree

; 785  :     explicit _Tree_temp_node_alloc(_Alnode& _Al_) : _Alloc_construct_ptr<_Alnode>(_Al_) {

  000e1	c7 45 fc 00 00
	00 00		 mov	 DWORD PTR __$EHRec$[ebp+8], 0
; File C:\Program Files\Microsoft Visual Studio\2022\Community\VC\Tools\MSVC\14.34.31933\include\xmemory

; 77   :         return ::operator new(_Bytes);

  000e8	6a 24		 push	 36			; 00000024H

; 1012 :         _Ptr = nullptr; // if allocate throws, prevents double-free

  000ea	c7 45 e8 00 00
	00 00		 mov	 DWORD PTR $T5[ebp+4], 0

; 77   :         return ::operator new(_Bytes);

  000f1	e8 00 00 00 00	 call	 ??2@YAPAXI@Z		; operator new
; File C:\Program Files\Microsoft Visual Studio\2022\Community\VC\Tools\MSVC\14.34.31933\include\utility

; 200  :         : first(_STD forward<_Other1>(_Right.first)), second(_STD forward<_Other2>(_Right.second)) {}

  000f6	66 8b 4d ec	 mov	 cx, WORD PTR $T6[ebp]
; File C:\Program Files\Microsoft Visual Studio\2022\Community\VC\Tools\MSVC\14.34.31933\include\xmemory

; 77   :         return ::operator new(_Bytes);

  000fa	83 c4 04	 add	 esp, 4
; File C:\Program Files\Microsoft Visual Studio\2022\Community\VC\Tools\MSVC\14.34.31933\include\utility

; 200  :         : first(_STD forward<_Other1>(_Right.first)), second(_STD forward<_Other2>(_Right.second)) {}

  000fd	0f 10 45 b8	 movups	 xmm0, XMMWORD PTR _SellingItem$[ebp]
  00101	66 89 48 0e	 mov	 WORD PTR [eax+14], cx
  00105	8a 4d ef	 mov	 cl, BYTE PTR $T7[ebp]
  00108	88 48 10	 mov	 BYTE PTR [eax+16], cl
  0010b	8a 4b 0c	 mov	 cl, BYTE PTR _dwDisplayPos$[ebx]
  0010e	0f 11 40 11	 movups	 XMMWORD PTR [eax+17], xmm0
  00112	88 48 21	 mov	 BYTE PTR [eax+33], cl
; File C:\Program Files\Microsoft Visual Studio\2022\Community\VC\Tools\MSVC\14.34.31933\include\xtree

; 1026 :         return {_Scary->_Insert_node(_Loc._Location, _Inserted), true};

  00115	8b cf		 mov	 ecx, edi
  00117	50		 push	 eax
  00118	ff 75 d8	 push	 DWORD PTR __Loc$3[ebp+4]

; 808  :         _Construct_in_place(this->_Ptr->_Left, _Myhead);

  0011b	89 30		 mov	 DWORD PTR [eax], esi

; 1026 :         return {_Scary->_Insert_node(_Loc._Location, _Inserted), true};

  0011d	ff 75 d4	 push	 DWORD PTR __Loc$3[ebp]

; 809  :         _Construct_in_place(this->_Ptr->_Parent, _Myhead);

  00120	89 70 04	 mov	 DWORD PTR [eax+4], esi

; 810  :         _Construct_in_place(this->_Ptr->_Right, _Myhead);

  00123	89 70 08	 mov	 DWORD PTR [eax+8], esi

; 811  :         this->_Ptr->_Color = _Red;

  00126	66 c7 40 0c 00
	00		 mov	 WORD PTR [eax+12], 0

; 1026 :         return {_Scary->_Insert_node(_Loc._Location, _Inserted), true};

  0012c	e8 00 00 00 00	 call	 ?_Insert_node@?$_Tree_val@U?$_Tree_simple_types@U?$pair@$$CBUSItemPos@@USShopItemTable@@@std@@@std@@@std@@QAEPAU?$_Tree_node@U?$pair@$$CBUSItemPos@@USShopItemTable@@@std@@PAX@2@U?$_Tree_id@PAU?$_Tree_node@U?$pair@$$CBUSItemPos@@USShopItemTable@@@std@@PAX@std@@@2@QAU32@@Z ; std::_Tree_val<std::_Tree_simple_types<std::pair<SItemPos const ,SShopItemTable> > >::_Insert_node
$LN109@AddPrivate:
; File E:\Metin2_server\SolWayneSF v6\ClientVS22\source\UserInterface\PythonShop.cpp

; 120  : }

  00131	8b 4d f4	 mov	 ecx, DWORD PTR __$EHRec$[ebp]
  00134	64 89 0d 00 00
	00 00		 mov	 DWORD PTR fs:0, ecx
  0013b	59		 pop	 ecx
  0013c	5f		 pop	 edi
  0013d	5e		 pop	 esi
  0013e	8b e5		 mov	 esp, ebp
  00140	5d		 pop	 ebp
  00141	8b e3		 mov	 esp, ebx
  00143	5b		 pop	 ebx
  00144	c2 10 00	 ret	 16			; 00000010H
$LN127@AddPrivate:
; File C:\Program Files\Microsoft Visual Studio\2022\Community\VC\Tools\MSVC\14.34.31933\include\xtree

; 1630 :             _Throw_tree_length_error();

  00147	e8 00 00 00 00	 call	 ?_Throw_tree_length_error@std@@YAXXZ ; std::_Throw_tree_length_error
$LN125@AddPrivate:
  0014c	cc		 int	 3
_TEXT	ENDS
;	COMDAT text$x
text$x	SEGMENT
__unwindfunclet$?AddPrivateShopItemStock@CPythonShop@@QAEXUSItemPos@@E_J@Z$2:
  00000	8d 4d e4	 lea	 ecx, DWORD PTR $T5[ebp]
  00003	e9 00 00 00 00	 jmp	 ??1?$_Alloc_construct_ptr@V?$allocator@U?$_Tree_node@U?$pair@$$CBUSItemPos@@USShopItemTable@@@std@@PAX@std@@@std@@@std@@QAE@XZ ; std::_Alloc_construct_ptr<std::allocator<std::_Tree_node<std::pair<SItemPos const ,SShopItemTable>,void *> > >::~_Alloc_construct_ptr<std::allocator<std::_Tree_node<std::pair<SItemPos const ,SShopItemTable>,void *> > >
  00008	cc		 int	 3
  00009	cc		 int	 3
  0000a	cc		 int	 3
  0000b	cc		 int	 3
  0000c	cc		 int	 3
__ehhandler$?AddPrivateShopItemStock@CPythonShop@@QAEXUSItemPos@@E_J@Z:
  0000d	90		 npad	 1
  0000e	90		 npad	 1
  0000f	8b 54 24 08	 mov	 edx, DWORD PTR [esp+8]
  00013	8d 42 0c	 lea	 eax, DWORD PTR [edx+12]
  00016	8b 4a b8	 mov	 ecx, DWORD PTR [edx-72]
  00019	33 c8		 xor	 ecx, eax
  0001b	e8 00 00 00 00	 call	 @__security_check_cookie@4
  00020	b8 00 00 00 00	 mov	 eax, OFFSET __ehfuncinfo$?AddPrivateShopItemStock@CPythonShop@@QAEXUSItemPos@@E_J@Z
  00025	e9 00 00 00 00	 jmp	 ___CxxFrameHandler3
text$x	ENDS
?AddPrivateShopItemStock@CPythonShop@@QAEXUSItemPos@@E_J@Z ENDP ; CPythonShop::AddPrivateShopItemStock
; Function compile flags: /Ogtp
; File E:\Metin2_server\SolWayneSF v6\ClientVS22\source\UserInterface\GameType.h
;	COMDAT ??0SShopItemTable@@QAE@XZ
_TEXT	SEGMENT
??0SShopItemTable@@QAE@XZ PROC				; SShopItemTable::SShopItemTable, COMDAT
; _this$ = ecx

; 202  : 		cell = WORD_MAX;

  00000	b8 ff ff 00 00	 mov	 eax, 65535		; 0000ffffH
  00005	c6 41 05 01	 mov	 BYTE PTR [ecx+5], 1
  00009	66 89 41 06	 mov	 WORD PTR [ecx+6], ax
  0000d	8b c1		 mov	 eax, ecx
  0000f	c3		 ret	 0
??0SShopItemTable@@QAE@XZ ENDP				; SShopItemTable::SShopItemTable
_TEXT	ENDS
; Function compile flags: /Ogtp
; File E:\Metin2_server\SolWayneSF v6\ClientVS22\source\UserInterface\PythonShop.cpp
; File C:\Program Files\Microsoft Visual Studio\2022\Community\VC\Tools\MSVC\14.34.31933\include\xtree
; File E:\Metin2_server\SolWayneSF v6\ClientVS22\source\UserInterface\GameType.h
; File C:\Program Files\Microsoft Visual Studio\2022\Community\VC\Tools\MSVC\14.34.31933\include\xtree
; File E:\Metin2_server\SolWayneSF v6\ClientVS22\source\UserInterface\PythonShop.cpp
;	COMDAT ?DelPrivateShopItemStock@CPythonShop@@QAEXUSItemPos@@@Z
_TEXT	SEGMENT
__Loc$1 = -12						; size = 12
_ItemPos$ = 8						; size = 3
?DelPrivateShopItemStock@CPythonShop@@QAEXUSItemPos@@@Z PROC ; CPythonShop::DelPrivateShopItemStock, COMDAT
; _this$ = ecx

; 122  : {

  00000	55		 push	 ebp
  00001	8b ec		 mov	 ebp, esp
  00003	83 ec 10	 sub	 esp, 16			; 00000010H
  00006	56		 push	 esi
; File C:\Program Files\Microsoft Visual Studio\2022\Community\VC\Tools\MSVC\14.34.31933\include\xtree

; 1367 :         const _Tree_find_result<_Nodeptr> _Loc = _Find_lower_bound(_Keyval);

  00007	8d 45 08	 lea	 eax, DWORD PTR _ItemPos$[ebp]
  0000a	50		 push	 eax

; 1136 :         return iterator(_Scary->_Myhead, _Scary);

  0000b	8d b1 78 2c 00
	00		 lea	 esi, DWORD PTR [ecx+11384]

; 1367 :         const _Tree_find_result<_Nodeptr> _Loc = _Find_lower_bound(_Keyval);

  00011	8d 45 f4	 lea	 eax, DWORD PTR __Loc$1[ebp]
  00014	8b ce		 mov	 ecx, esi
  00016	50		 push	 eax
  00017	e8 00 00 00 00	 call	 ??$_Find_lower_bound@USItemPos@@@?$_Tree@V?$_Tmap_traits@USItemPos@@USShopItemTable@@U?$less@USItemPos@@@std@@V?$allocator@U?$pair@$$CBUSItemPos@@USShopItemTable@@@std@@@4@$0A@@std@@@std@@IBE?AU?$_Tree_find_result@PAU?$_Tree_node@U?$pair@$$CBUSItemPos@@USShopItemTable@@@std@@PAX@std@@@1@ABUSItemPos@@@Z ; std::_Tree<std::_Tmap_traits<SItemPos,SShopItemTable,std::less<SItemPos>,std::allocator<std::pair<SItemPos const ,SShopItemTable> >,0> >::_Find_lower_bound<SItemPos>

; 1605 :         return !_Bound->_Isnil && !_DEBUG_LT_PRED(_Getcomp(), _Keyval, _Traits::_Kfn(_Bound->_Myval));

  0001c	8b 55 fc	 mov	 edx, DWORD PTR __Loc$1[ebp+8]
  0001f	80 7a 0d 00	 cmp	 BYTE PTR [edx+13], 0
  00023	75 23		 jne	 SHORT $LN1@DelPrivate
; File E:\Metin2_server\SolWayneSF v6\ClientVS22\source\UserInterface\GameType.h

; 270  : 		return (window_type < rhs.window_type) || ((window_type == rhs.window_type) && (cell < rhs.cell));

  00025	8a 42 0e	 mov	 al, BYTE PTR [edx+14]
  00028	38 45 08	 cmp	 BYTE PTR _ItemPos$[ebp], al
  0002b	72 1b		 jb	 SHORT $LN1@DelPrivate
  0002d	75 0a		 jne	 SHORT $LN36@DelPrivate
  0002f	66 8b 45 09	 mov	 ax, WORD PTR _ItemPos$[ebp+1]
  00033	66 3b 42 0f	 cmp	 ax, WORD PTR [edx+15]
  00037	72 0f		 jb	 SHORT $LN1@DelPrivate
$LN36@DelPrivate:
; File C:\Program Files\Microsoft Visual Studio\2022\Community\VC\Tools\MSVC\14.34.31933\include\xtree

; 233  :         return this->_Ptr == _Right._Ptr;

  00039	39 16		 cmp	 DWORD PTR [esi], edx
; File E:\Metin2_server\SolWayneSF v6\ClientVS22\source\UserInterface\PythonShop.cpp

; 123  : 	if (m_PrivateShopItemStock.end() == m_PrivateShopItemStock.find(ItemPos))

  0003b	74 0b		 je	 SHORT $LN1@DelPrivate

; 124  : 		return;
; 125  : 
; 126  : 	m_PrivateShopItemStock.erase(ItemPos);

  0003d	8d 45 08	 lea	 eax, DWORD PTR _ItemPos$[ebp]
  00040	8b ce		 mov	 ecx, esi
  00042	50		 push	 eax
  00043	e8 00 00 00 00	 call	 ?erase@?$_Tree@V?$_Tmap_traits@USItemPos@@USShopItemTable@@U?$less@USItemPos@@@std@@V?$allocator@U?$pair@$$CBUSItemPos@@USShopItemTable@@@std@@@4@$0A@@std@@@std@@QAEIABUSItemPos@@@Z ; std::_Tree<std::_Tmap_traits<SItemPos,SShopItemTable,std::less<SItemPos>,std::allocator<std::pair<SItemPos const ,SShopItemTable> >,0> >::erase
$LN1@DelPrivate:

; 127  : }

  00048	5e		 pop	 esi
  00049	8b e5		 mov	 esp, ebp
  0004b	5d		 pop	 ebp
  0004c	c2 04 00	 ret	 4
?DelPrivateShopItemStock@CPythonShop@@QAEXUSItemPos@@@Z ENDP ; CPythonShop::DelPrivateShopItemStock
_TEXT	ENDS
; Function compile flags: /Ogtp
; File E:\Metin2_server\SolWayneSF v6\ClientVS22\source\UserInterface\PythonShop.cpp
; File C:\Program Files\Microsoft Visual Studio\2022\Community\VC\Tools\MSVC\14.34.31933\include\xtree
; File E:\Metin2_server\SolWayneSF v6\ClientVS22\source\UserInterface\PythonShop.cpp
; File C:\Program Files\Microsoft Visual Studio\2022\Community\VC\Tools\MSVC\14.34.31933\include\xtree
; File E:\Metin2_server\SolWayneSF v6\ClientVS22\source\UserInterface\GameType.h
; File C:\Program Files\Microsoft Visual Studio\2022\Community\VC\Tools\MSVC\14.34.31933\include\xtree
; File E:\Metin2_server\SolWayneSF v6\ClientVS22\source\UserInterface\PythonShop.cpp
;	COMDAT ?GetPrivateShopItemPrice@CPythonShop@@QAE_JUSItemPos@@@Z
_TEXT	SEGMENT
__Loc$1 = -12						; size = 12
_ItemPos$ = 8						; size = 3
?GetPrivateShopItemPrice@CPythonShop@@QAE_JUSItemPos@@@Z PROC ; CPythonShop::GetPrivateShopItemPrice, COMDAT
; _this$ = ecx

; 129  : {

  00000	55		 push	 ebp
  00001	8b ec		 mov	 ebp, esp
  00003	83 ec 0c	 sub	 esp, 12			; 0000000cH
  00006	56		 push	 esi
; File C:\Program Files\Microsoft Visual Studio\2022\Community\VC\Tools\MSVC\14.34.31933\include\xtree

; 1367 :         const _Tree_find_result<_Nodeptr> _Loc = _Find_lower_bound(_Keyval);

  00007	8d 45 08	 lea	 eax, DWORD PTR _ItemPos$[ebp]
  0000a	50		 push	 eax
; File E:\Metin2_server\SolWayneSF v6\ClientVS22\source\UserInterface\PythonShop.cpp

; 130  : 	TPrivateShopItemStock::iterator itor = m_PrivateShopItemStock.find(ItemPos);

  0000b	8d b1 78 2c 00
	00		 lea	 esi, DWORD PTR [ecx+11384]
; File C:\Program Files\Microsoft Visual Studio\2022\Community\VC\Tools\MSVC\14.34.31933\include\xtree

; 1367 :         const _Tree_find_result<_Nodeptr> _Loc = _Find_lower_bound(_Keyval);

  00011	8d 45 f4	 lea	 eax, DWORD PTR __Loc$1[ebp]
  00014	8b ce		 mov	 ecx, esi
  00016	50		 push	 eax
  00017	e8 00 00 00 00	 call	 ??$_Find_lower_bound@USItemPos@@@?$_Tree@V?$_Tmap_traits@USItemPos@@USShopItemTable@@U?$less@USItemPos@@@std@@V?$allocator@U?$pair@$$CBUSItemPos@@USShopItemTable@@@std@@@4@$0A@@std@@@std@@IBE?AU?$_Tree_find_result@PAU?$_Tree_node@U?$pair@$$CBUSItemPos@@USShopItemTable@@@std@@PAX@std@@@1@ABUSItemPos@@@Z ; std::_Tree<std::_Tmap_traits<SItemPos,SShopItemTable,std::less<SItemPos>,std::allocator<std::pair<SItemPos const ,SShopItemTable> >,0> >::_Find_lower_bound<SItemPos>

; 1605 :         return !_Bound->_Isnil && !_DEBUG_LT_PRED(_Getcomp(), _Keyval, _Traits::_Kfn(_Bound->_Myval));

  0001c	8b 55 fc	 mov	 edx, DWORD PTR __Loc$1[ebp+8]
  0001f	80 7a 0d 00	 cmp	 BYTE PTR [edx+13], 0
  00023	75 25		 jne	 SHORT $LN42@GetPrivate
; File E:\Metin2_server\SolWayneSF v6\ClientVS22\source\UserInterface\GameType.h

; 270  : 		return (window_type < rhs.window_type) || ((window_type == rhs.window_type) && (cell < rhs.cell));

  00025	8a 42 0e	 mov	 al, BYTE PTR [edx+14]
  00028	38 45 08	 cmp	 BYTE PTR _ItemPos$[ebp], al
  0002b	72 1d		 jb	 SHORT $LN42@GetPrivate
  0002d	75 0a		 jne	 SHORT $LN43@GetPrivate
  0002f	66 8b 45 09	 mov	 ax, WORD PTR _ItemPos$[ebp+1]
  00033	66 3b 42 0f	 cmp	 ax, WORD PTR [edx+15]
  00037	72 11		 jb	 SHORT $LN42@GetPrivate
$LN43@GetPrivate:
; File C:\Program Files\Microsoft Visual Studio\2022\Community\VC\Tools\MSVC\14.34.31933\include\xtree

; 38   :     _Tree_unchecked_const_iterator(_Nodeptr _Pnode, const _Mytree* _Plist) noexcept : _Ptr(_Pnode) {

  00039	39 16		 cmp	 DWORD PTR [esi], edx
; File E:\Metin2_server\SolWayneSF v6\ClientVS22\source\UserInterface\PythonShop.cpp

; 132  : 	if (m_PrivateShopItemStock.end() == itor)

  0003b	74 0d		 je	 SHORT $LN42@GetPrivate

; 134  : 
; 135  : 	TShopItemTable & rShopItemTable = itor->second;
; 136  : 	return rShopItemTable.price;

  0003d	8b 42 19	 mov	 eax, DWORD PTR [edx+25]
  00040	8b 52 1d	 mov	 edx, DWORD PTR [edx+29]
  00043	5e		 pop	 esi

; 137  : }

  00044	8b e5		 mov	 esp, ebp
  00046	5d		 pop	 ebp
  00047	c2 04 00	 ret	 4
$LN42@GetPrivate:

; 133  : 		return 0;

  0004a	33 c0		 xor	 eax, eax
  0004c	33 d2		 xor	 edx, edx
  0004e	5e		 pop	 esi

; 137  : }

  0004f	8b e5		 mov	 esp, ebp
  00051	5d		 pop	 ebp
  00052	c2 04 00	 ret	 4
?GetPrivateShopItemPrice@CPythonShop@@QAE_JUSItemPos@@@Z ENDP ; CPythonShop::GetPrivateShopItemPrice
_TEXT	ENDS
; Function compile flags: /Ogtp
; File E:\Metin2_server\SolWayneSF v6\ClientVS22\source\UserInterface\PythonShop.cpp
;	COMDAT ??RItemStockSortFunc@@QAE_NAAUSShopItemTable@@0@Z
_TEXT	SEGMENT
_rkLeft$ = 8						; size = 4
_rkRight$ = 12						; size = 4
??RItemStockSortFunc@@QAE_NAAUSShopItemTable@@0@Z PROC	; ItemStockSortFunc::operator(), COMDAT
; _this$dead$ = ecx

; 141  : 	{

  00000	55		 push	 ebp
  00001	8b ec		 mov	 ebp, esp

; 142  : 		return rkLeft.display_pos < rkRight.display_pos;

  00003	8b 45 08	 mov	 eax, DWORD PTR _rkLeft$[ebp]
  00006	8a 48 10	 mov	 cl, BYTE PTR [eax+16]
  00009	8b 45 0c	 mov	 eax, DWORD PTR _rkRight$[ebp]
  0000c	3a 48 10	 cmp	 cl, BYTE PTR [eax+16]
  0000f	0f 92 c0	 setb	 al

; 143  : 	}

  00012	5d		 pop	 ebp
  00013	c2 08 00	 ret	 8
??RItemStockSortFunc@@QAE_NAAUSShopItemTable@@0@Z ENDP	; ItemStockSortFunc::operator()
_TEXT	ENDS
; Function compile flags: /Ogtp
; File E:\Metin2_server\SolWayneSF v6\ClientVS22\source\UserInterface\PythonShop.cpp
; File C:\Program Files\Microsoft Visual Studio\2022\Community\VC\Tools\MSVC\14.34.31933\include\vector
; File E:\Metin2_server\SolWayneSF v6\ClientVS22\source\UserInterface\PythonShop.cpp
; File C:\Program Files\Microsoft Visual Studio\2022\Community\VC\Tools\MSVC\14.34.31933\include\vector
; File C:\Program Files\Microsoft Visual Studio\2022\Community\VC\Tools\MSVC\14.34.31933\include\xtree
; File E:\Metin2_server\SolWayneSF v6\ClientVS22\source\UserInterface\PythonShop.cpp
; File C:\Program Files\Microsoft Visual Studio\2022\Community\VC\Tools\MSVC\14.34.31933\include\vector
; File C:\Program Files\Microsoft Visual Studio\2022\Community\VC\Tools\MSVC\14.34.31933\include\xutility
; File C:\Program Files\Microsoft Visual Studio\2022\Community\VC\Tools\MSVC\14.34.31933\include\vector
; File C:\Program Files\Microsoft Visual Studio\2022\Community\VC\Tools\MSVC\14.34.31933\include\xtree
; File E:\Metin2_server\SolWayneSF v6\ClientVS22\source\UserInterface\PythonShop.cpp
; File C:\Program Files\Microsoft Visual Studio\2022\Community\VC\Tools\MSVC\14.34.31933\include\algorithm
; File E:\Metin2_server\SolWayneSF v6\ClientVS22\source\UserInterface\PythonShop.cpp
; File C:\Program Files\Microsoft Visual Studio\2022\Community\VC\Tools\MSVC\14.34.31933\include\algorithm
; File E:\Metin2_server\SolWayneSF v6\ClientVS22\source\UserInterface\PythonShop.cpp
; File C:\Program Files\Microsoft Visual Studio\2022\Community\VC\Tools\MSVC\14.34.31933\include\vector
; File C:\Program Files\Microsoft Visual Studio\2022\Community\VC\Tools\MSVC\14.34.31933\include\xmemory
; File E:\Metin2_server\SolWayneSF v6\ClientVS22\source\UserInterface\PythonShop.cpp
; File C:\Program Files\Microsoft Visual Studio\2022\Community\VC\Tools\MSVC\14.34.31933\include\vector
; File C:\Program Files\Microsoft Visual Studio\2022\Community\VC\Tools\MSVC\14.34.31933\include\xmemory
; File E:\Metin2_server\SolWayneSF v6\ClientVS22\source\UserInterface\PythonShop.cpp
;	COMDAT ?BuildPrivateShop@CPythonShop@@QAEXPBD@Z
_TEXT	SEGMENT
_ItemStock$ = -28					; size = 12
_itor$ = -16						; size = 4
__$EHRec$ = -12						; size = 12
$T2 = 8							; size = 1
_c_szName$ = 8						; size = 4
?BuildPrivateShop@CPythonShop@@QAEXPBD@Z PROC		; CPythonShop::BuildPrivateShop, COMDAT
; _this$ = ecx

; 146  : {

  00000	55		 push	 ebp
  00001	8b ec		 mov	 ebp, esp
  00003	6a ff		 push	 -1
  00005	68 00 00 00 00	 push	 __ehhandler$?BuildPrivateShop@CPythonShop@@QAEXPBD@Z
  0000a	64 a1 00 00 00
	00		 mov	 eax, DWORD PTR fs:0
  00010	50		 push	 eax
  00011	83 ec 10	 sub	 esp, 16			; 00000010H
  00014	56		 push	 esi
  00015	57		 push	 edi
  00016	a1 00 00 00 00	 mov	 eax, DWORD PTR ___security_cookie
  0001b	33 c5		 xor	 eax, ebp
  0001d	50		 push	 eax
  0001e	8d 45 f4	 lea	 eax, DWORD PTR __$EHRec$[ebp]
  00021	64 a3 00 00 00
	00		 mov	 DWORD PTR fs:0, eax
  00027	8b f9		 mov	 edi, ecx
; File C:\Program Files\Microsoft Visual Studio\2022\Community\VC\Tools\MSVC\14.34.31933\include\vector

; 390  :     _CONSTEXPR20 _Vector_val() noexcept : _Myfirst(), _Mylast(), _Myend() {}

  00029	33 f6		 xor	 esi, esi
  0002b	c7 45 e4 00 00
	00 00		 mov	 DWORD PTR _ItemStock$[ebp], 0
  00032	89 75 e8	 mov	 DWORD PTR _ItemStock$[ebp+4], esi
  00035	89 75 ec	 mov	 DWORD PTR _ItemStock$[ebp+8], esi
; File E:\Metin2_server\SolWayneSF v6\ClientVS22\source\UserInterface\PythonShop.cpp

; 147  : 	std::vector<TShopItemTable> ItemStock;

  00038	89 75 fc	 mov	 DWORD PTR __$EHRec$[ebp+8], esi

; 148  : 	ItemStock.reserve(m_PrivateShopItemStock.size());

  0003b	8b 87 7c 2c 00
	00		 mov	 eax, DWORD PTR [edi+11388]
; File C:\Program Files\Microsoft Visual Studio\2022\Community\VC\Tools\MSVC\14.34.31933\include\vector

; 1743 :         if (_Newcapacity > capacity()) { // something to do (reserve() never shrinks)

  00041	85 c0		 test	 eax, eax
  00043	74 17		 je	 SHORT $LN88@BuildPriva

; 1744 :             if (_Newcapacity > max_size()) {

  00045	3d 0f 0f 0f 0f	 cmp	 eax, 252645135		; 0f0f0f0fH
  0004a	0f 87 d9 00 00
	00		 ja	 $LN108@BuildPriva

; 1746 :             }
; 1747 : 
; 1748 :             _Reallocate_exactly(_Newcapacity);

  00050	50		 push	 eax
  00051	8d 4d e4	 lea	 ecx, DWORD PTR _ItemStock$[ebp]
  00054	e8 00 00 00 00	 call	 ?_Reallocate_exactly@?$vector@USShopItemTable@@V?$allocator@USShopItemTable@@@std@@@std@@AAEXI@Z ; std::vector<SShopItemTable,std::allocator<SShopItemTable> >::_Reallocate_exactly
  00059	8b 75 e8	 mov	 esi, DWORD PTR _ItemStock$[ebp+4]
$LN88@BuildPriva:
; File C:\Program Files\Microsoft Visual Studio\2022\Community\VC\Tools\MSVC\14.34.31933\include\xtree

; 1126 :         return iterator(_Scary->_Myhead->_Left, _Scary);

  0005c	8b 8f 78 2c 00
	00		 mov	 ecx, DWORD PTR [edi+11384]

; 38   :     _Tree_unchecked_const_iterator(_Nodeptr _Pnode, const _Mytree* _Plist) noexcept : _Ptr(_Pnode) {

  00062	8b 01		 mov	 eax, DWORD PTR [ecx]
  00064	89 45 f0	 mov	 DWORD PTR _itor$[ebp], eax
  00067	3b c1		 cmp	 eax, ecx
; File E:\Metin2_server\SolWayneSF v6\ClientVS22\source\UserInterface\PythonShop.cpp

; 151  : 	for (; itor != m_PrivateShopItemStock.end(); ++itor)

  00069	74 41		 je	 SHORT $LN3@BuildPriva
  0006b	0f 1f 44 00 00	 npad	 5
$LL20@BuildPriva:

; 152  : 	{
; 153  : 		ItemStock.push_back(itor->second);

  00070	83 c0 11	 add	 eax, 17			; 00000011H
; File C:\Program Files\Microsoft Visual Studio\2022\Community\VC\Tools\MSVC\14.34.31933\include\vector

; 844  :         if (_Mylast != _My_data._Myend) {

  00073	3b 75 ec	 cmp	 esi, DWORD PTR _ItemStock$[ebp+8]
  00076	74 14		 je	 SHORT $LN30@BuildPriva
; File C:\Program Files\Microsoft Visual Studio\2022\Community\VC\Tools\MSVC\14.34.31933\include\xutility

; 231  :         ::new (_Voidify_iter(_STD addressof(_Obj))) _Ty(_STD forward<_Types>(_Args)...);

  00078	0f 10 00	 movups	 xmm0, XMMWORD PTR [eax]
  0007b	0f 11 06	 movups	 XMMWORD PTR [esi], xmm0
  0007e	8a 40 10	 mov	 al, BYTE PTR [eax+16]
  00081	88 46 10	 mov	 BYTE PTR [esi+16], al
; File C:\Program Files\Microsoft Visual Studio\2022\Community\VC\Tools\MSVC\14.34.31933\include\vector

; 869  :         ++_Mylast;

  00084	83 c6 11	 add	 esi, 17			; 00000011H
  00087	89 75 e8	 mov	 DWORD PTR _ItemStock$[ebp+4], esi

; 845  :             return _Emplace_back_with_unused_capacity(_STD forward<_Valty>(_Val)...);

  0008a	eb 0d		 jmp	 SHORT $LN2@BuildPriva
$LN30@BuildPriva:

; 846  :         }
; 847  : 
; 848  :         return *_Emplace_reallocate(_Mylast, _STD forward<_Valty>(_Val)...);

  0008c	50		 push	 eax
  0008d	56		 push	 esi
  0008e	8d 4d e4	 lea	 ecx, DWORD PTR _ItemStock$[ebp]
  00091	e8 00 00 00 00	 call	 ??$_Emplace_reallocate@ABUSShopItemTable@@@?$vector@USShopItemTable@@V?$allocator@USShopItemTable@@@std@@@std@@AAEPAUSShopItemTable@@QAU2@ABU2@@Z ; std::vector<SShopItemTable,std::allocator<SShopItemTable> >::_Emplace_reallocate<SShopItemTable const &>
  00096	8b 75 e8	 mov	 esi, DWORD PTR _ItemStock$[ebp+4]
$LN2@BuildPriva:
; File C:\Program Files\Microsoft Visual Studio\2022\Community\VC\Tools\MSVC\14.34.31933\include\xtree

; 199  :         _Mybase::operator++();

  00099	8d 4d f0	 lea	 ecx, DWORD PTR _itor$[ebp]
  0009c	e8 00 00 00 00	 call	 ??E?$_Tree_unchecked_const_iterator@V?$_Tree_val@U?$_Tree_simple_types@U?$pair@$$CBUSItemPos@@USShopItemTable@@@std@@@std@@@std@@U_Iterator_base0@2@@std@@QAEAAV01@XZ ; std::_Tree_unchecked_const_iterator<std::_Tree_val<std::_Tree_simple_types<std::pair<SItemPos const ,SShopItemTable> > >,std::_Iterator_base0>::operator++

; 233  :         return this->_Ptr == _Right._Ptr;

  000a1	8b 45 f0	 mov	 eax, DWORD PTR _itor$[ebp]
  000a4	3b 87 78 2c 00
	00		 cmp	 eax, DWORD PTR [edi+11384]
; File E:\Metin2_server\SolWayneSF v6\ClientVS22\source\UserInterface\PythonShop.cpp

; 151  : 	for (; itor != m_PrivateShopItemStock.end(); ++itor)

  000aa	75 c4		 jne	 SHORT $LL20@BuildPriva
$LN3@BuildPriva:
; File C:\Program Files\Microsoft Visual Studio\2022\Community\VC\Tools\MSVC\14.34.31933\include\algorithm

; 7669 :     _Sort_unchecked(_UFirst, _ULast, _ULast - _UFirst, _Pass_fn(_Pred));

  000ac	8b 4d e4	 mov	 ecx, DWORD PTR _ItemStock$[ebp]
  000af	8b c6		 mov	 eax, esi
  000b1	ff 75 08	 push	 DWORD PTR $T2[ebp]
  000b4	2b c1		 sub	 eax, ecx
  000b6	8b d6		 mov	 edx, esi
  000b8	69 c0 f1 f0 f0
	f0		 imul	 eax, eax, -252645135
  000be	50		 push	 eax
  000bf	e8 00 00 00 00	 call	 ??$_Sort_unchecked@PAUSShopItemTable@@UItemStockSortFunc@@@std@@YAXPAUSShopItemTable@@0HUItemStockSortFunc@@@Z ; std::_Sort_unchecked<SShopItemTable *,ItemStockSortFunc>
; File E:\Metin2_server\SolWayneSF v6\ClientVS22\source\UserInterface\PythonShop.cpp

; 158  : 	CPythonNetworkStream::Instance().SendBuildPrivateShopPacket(c_szName, ItemStock);

  000c4	8b 0d 00 00 00
	00		 mov	 ecx, DWORD PTR ?ms_singleton@?$CSingleton@VCPythonNetworkStream@@@@0PAVCPythonNetworkStream@@A ; CSingleton<CPythonNetworkStream>::ms_singleton
  000ca	8d 45 e4	 lea	 eax, DWORD PTR _ItemStock$[ebp]
; File C:\Program Files\Microsoft Visual Studio\2022\Community\VC\Tools\MSVC\14.34.31933\include\algorithm

; 7669 :     _Sort_unchecked(_UFirst, _ULast, _ULast - _UFirst, _Pass_fn(_Pred));

  000cd	83 c4 08	 add	 esp, 8
; File E:\Metin2_server\SolWayneSF v6\ClientVS22\source\UserInterface\PythonShop.cpp

; 158  : 	CPythonNetworkStream::Instance().SendBuildPrivateShopPacket(c_szName, ItemStock);

  000d0	50		 push	 eax
  000d1	ff 75 08	 push	 DWORD PTR _c_szName$[ebp]
  000d4	e8 00 00 00 00	 call	 ?SendBuildPrivateShopPacket@CPythonNetworkStream@@QAE_NPBDABV?$vector@USShopItemTable@@V?$allocator@USShopItemTable@@@std@@@std@@@Z ; CPythonNetworkStream::SendBuildPrivateShopPacket
; File C:\Program Files\Microsoft Visual Studio\2022\Community\VC\Tools\MSVC\14.34.31933\include\vector

; 2107 :         if (_Myfirst) { // destroy and deallocate old array

  000d9	8b 55 e4	 mov	 edx, DWORD PTR _ItemStock$[ebp]
  000dc	85 d2		 test	 edx, edx
  000de	74 36		 je	 SHORT $LN63@BuildPriva

; 2108 :             _Destroy_range(_Myfirst, _Mylast, _Al);
; 2109 :             _ASAN_VECTOR_REMOVE;
; 2110 :             _Al.deallocate(_Myfirst, static_cast<size_type>(_Myend - _Myfirst));

  000e0	8b 45 ec	 mov	 eax, DWORD PTR _ItemStock$[ebp+8]
  000e3	2b c2		 sub	 eax, edx
  000e5	69 c0 f1 f0 f0
	f0		 imul	 eax, eax, -252645135
; File C:\Program Files\Microsoft Visual Studio\2022\Community\VC\Tools\MSVC\14.34.31933\include\xmemory

; 830  :         _Deallocate<_New_alignof<_Ty>>(_Ptr, sizeof(_Ty) * _Count);

  000eb	8b c8		 mov	 ecx, eax
  000ed	c1 e1 04	 shl	 ecx, 4
  000f0	03 c8		 add	 ecx, eax
  000f2	8b c2		 mov	 eax, edx

; 251  :         if (_Bytes >= _Big_allocation_threshold) { // boost the alignment of big allocations to help autovectorization

  000f4	81 f9 00 10 00
	00		 cmp	 ecx, 4096		; 00001000H
  000fa	72 10		 jb	 SHORT $LN75@BuildPriva

; 150  :     const uintptr_t _Ptr_container   = _Ptr_user[-1];

  000fc	8b 50 fc	 mov	 edx, DWORD PTR [eax-4]
  000ff	83 c1 23	 add	 ecx, 35			; 00000023H
  00102	2b c2		 sub	 eax, edx

; 164  :     _STL_VERIFY(_Back_shift >= _Min_back_shift && _Back_shift <= _Non_user_size, "invalid argument");

  00104	83 c0 fc	 add	 eax, -4			; fffffffcH
  00107	83 f8 1f	 cmp	 eax, 31			; 0000001fH
  0010a	77 22		 ja	 SHORT $LN109@BuildPriva
$LN75@BuildPriva:

; 255  :         ::operator delete(_Ptr, _Bytes);

  0010c	51		 push	 ecx
  0010d	52		 push	 edx
  0010e	e8 00 00 00 00	 call	 ??3@YAXPAXI@Z		; operator delete
  00113	83 c4 08	 add	 esp, 8
$LN63@BuildPriva:
; File E:\Metin2_server\SolWayneSF v6\ClientVS22\source\UserInterface\PythonShop.cpp

; 159  : }

  00116	8b 4d f4	 mov	 ecx, DWORD PTR __$EHRec$[ebp]
  00119	64 89 0d 00 00
	00 00		 mov	 DWORD PTR fs:0, ecx
  00120	59		 pop	 ecx
  00121	5f		 pop	 edi
  00122	5e		 pop	 esi
  00123	8b e5		 mov	 esp, ebp
  00125	5d		 pop	 ebp
  00126	c2 04 00	 ret	 4
$LN108@BuildPriva:
; File C:\Program Files\Microsoft Visual Studio\2022\Community\VC\Tools\MSVC\14.34.31933\include\vector

; 1745 :                 _Xlength();

  00129	e8 00 00 00 00	 call	 ?_Xlength@?$vector@USShopItemTable@@V?$allocator@USShopItemTable@@@std@@@std@@CAXXZ ; std::vector<SShopItemTable,std::allocator<SShopItemTable> >::_Xlength
$LN109@BuildPriva:
; File C:\Program Files\Microsoft Visual Studio\2022\Community\VC\Tools\MSVC\14.34.31933\include\xmemory

; 164  :     _STL_VERIFY(_Back_shift >= _Min_back_shift && _Back_shift <= _Non_user_size, "invalid argument");

  0012e	e8 00 00 00 00	 call	 __invalid_parameter_noinfo_noreturn
$LN106@BuildPriva:
  00133	cc		 int	 3
_TEXT	ENDS
;	COMDAT text$x
text$x	SEGMENT
__unwindfunclet$?BuildPrivateShop@CPythonShop@@QAEXPBD@Z$0:
  00000	8d 4d e4	 lea	 ecx, DWORD PTR _ItemStock$[ebp]
  00003	e9 00 00 00 00	 jmp	 ??1?$vector@USShopItemTable@@V?$allocator@USShopItemTable@@@std@@@std@@QAE@XZ ; std::vector<SShopItemTable,std::allocator<SShopItemTable> >::~vector<SShopItemTable,std::allocator<SShopItemTable> >
  00008	cc		 int	 3
  00009	cc		 int	 3
  0000a	cc		 int	 3
  0000b	cc		 int	 3
  0000c	cc		 int	 3
__ehhandler$?BuildPrivateShop@CPythonShop@@QAEXPBD@Z:
  0000d	90		 npad	 1
  0000e	90		 npad	 1
  0000f	8b 54 24 08	 mov	 edx, DWORD PTR [esp+8]
  00013	8d 42 0c	 lea	 eax, DWORD PTR [edx+12]
  00016	8b 4a e4	 mov	 ecx, DWORD PTR [edx-28]
  00019	33 c8		 xor	 ecx, eax
  0001b	e8 00 00 00 00	 call	 @__security_check_cookie@4
  00020	b8 00 00 00 00	 mov	 eax, OFFSET __ehfuncinfo$?BuildPrivateShop@CPythonShop@@QAEXPBD@Z
  00025	e9 00 00 00 00	 jmp	 ___CxxFrameHandler3
text$x	ENDS
?BuildPrivateShop@CPythonShop@@QAEXPBD@Z ENDP		; CPythonShop::BuildPrivateShop
; Function compile flags: /Ogtp
; File E:\Metin2_server\SolWayneSF v6\ClientVS22\source\UserInterface\PythonShop.cpp
;	COMDAT ?Open@CPythonShop@@QAEXHH@Z
_TEXT	SEGMENT
_isPrivateShop$ = 8					; size = 4
_isMainPrivateShop$ = 12				; size = 4
?Open@CPythonShop@@QAEXHH@Z PROC			; CPythonShop::Open, COMDAT
; _this$ = ecx

; 162  : {

  00000	55		 push	 ebp
  00001	8b ec		 mov	 ebp, esp

; 163  : 	m_isShoping = TRUE;
; 164  : 	m_isPrivateShop = isPrivateShop;

  00003	8b 45 08	 mov	 eax, DWORD PTR _isPrivateShop$[ebp]
  00006	89 41 08	 mov	 DWORD PTR [ecx+8], eax

; 165  : 	m_isMainPlayerPrivateShop = isMainPrivateShop;

  00009	8b 45 0c	 mov	 eax, DWORD PTR _isMainPrivateShop$[ebp]
  0000c	c7 41 04 01 00
	00 00		 mov	 DWORD PTR [ecx+4], 1
  00013	89 41 0c	 mov	 DWORD PTR [ecx+12], eax

; 166  : }

  00016	5d		 pop	 ebp
  00017	c2 08 00	 ret	 8
?Open@CPythonShop@@QAEXHH@Z ENDP			; CPythonShop::Open
_TEXT	ENDS
; Function compile flags: /Ogtp
; File E:\Metin2_server\SolWayneSF v6\ClientVS22\source\UserInterface\PythonShop.cpp
;	COMDAT ?Close@CPythonShop@@QAEXXZ
_TEXT	SEGMENT
?Close@CPythonShop@@QAEXXZ PROC				; CPythonShop::Close, COMDAT
; _this$ = ecx

; 170  : 	m_isShoping = FALSE;

  00000	c7 41 04 00 00
	00 00		 mov	 DWORD PTR [ecx+4], 0

; 171  : 	m_isPrivateShop = FALSE;

  00007	c7 41 08 00 00
	00 00		 mov	 DWORD PTR [ecx+8], 0

; 172  : 	m_isMainPlayerPrivateShop = FALSE;

  0000e	c7 41 0c 00 00
	00 00		 mov	 DWORD PTR [ecx+12], 0

; 173  : }

  00015	c3		 ret	 0
?Close@CPythonShop@@QAEXXZ ENDP				; CPythonShop::Close
_TEXT	ENDS
; Function compile flags: /Ogtp
; File E:\Metin2_server\SolWayneSF v6\ClientVS22\source\UserInterface\PythonShop.cpp
;	COMDAT ?IsPrivateShop@CPythonShop@@QAEHXZ
_TEXT	SEGMENT
?IsPrivateShop@CPythonShop@@QAEHXZ PROC			; CPythonShop::IsPrivateShop, COMDAT
; _this$ = ecx

; 182  : 	return m_isPrivateShop;

  00000	8b 41 08	 mov	 eax, DWORD PTR [ecx+8]

; 183  : }

  00003	c3		 ret	 0
?IsPrivateShop@CPythonShop@@QAEHXZ ENDP			; CPythonShop::IsPrivateShop
_TEXT	ENDS
; Function compile flags: /Ogtp
; File E:\Metin2_server\SolWayneSF v6\ClientVS22\source\UserInterface\PythonShop.cpp
;	COMDAT ?IsMainPlayerPrivateShop@CPythonShop@@QAEHXZ
_TEXT	SEGMENT
?IsMainPlayerPrivateShop@CPythonShop@@QAEHXZ PROC	; CPythonShop::IsMainPlayerPrivateShop, COMDAT
; _this$ = ecx

; 187  : 	return m_isMainPlayerPrivateShop;

  00000	8b 41 0c	 mov	 eax, DWORD PTR [ecx+12]

; 188  : }

  00003	c3		 ret	 0
?IsMainPlayerPrivateShop@CPythonShop@@QAEHXZ ENDP	; CPythonShop::IsMainPlayerPrivateShop
_TEXT	ENDS
; Function compile flags: /Ogtp
;	COMDAT ??_GCPythonShop@@UAEPAXI@Z
_TEXT	SEGMENT
___flags$ = 8						; size = 4
??_GCPythonShop@@UAEPAXI@Z PROC				; CPythonShop::`scalar deleting destructor', COMDAT
; _this$ = ecx
  00000	55		 push	 ebp
  00001	8b ec		 mov	 ebp, esp
  00003	56		 push	 esi
  00004	8b f1		 mov	 esi, ecx
  00006	e8 00 00 00 00	 call	 ??1CPythonShop@@UAE@XZ	; CPythonShop::~CPythonShop
  0000b	f6 45 08 01	 test	 BYTE PTR ___flags$[ebp], 1
  0000f	74 0e		 je	 SHORT $LN4@scalar
  00011	68 80 2c 00 00	 push	 11392			; 00002c80H
  00016	56		 push	 esi
  00017	e8 00 00 00 00	 call	 ??3@YAXPAXI@Z		; operator delete
  0001c	83 c4 08	 add	 esp, 8
$LN4@scalar:
  0001f	8b c6		 mov	 eax, esi
  00021	5e		 pop	 esi
  00022	5d		 pop	 ebp
  00023	c2 04 00	 ret	 4
??_GCPythonShop@@UAEPAXI@Z ENDP				; CPythonShop::`scalar deleting destructor'
_TEXT	ENDS
; Function compile flags: /Ogtp
; File C:\Program Files\Microsoft Visual Studio\2022\Community\VC\Tools\MSVC\14.34.31933\include\xstring
; File C:\Program Files\Microsoft Visual Studio\2022\Community\VC\Tools\MSVC\14.34.31933\include\xmemory
; File C:\Program Files\Microsoft Visual Studio\2022\Community\VC\Tools\MSVC\14.34.31933\include\xstring
; File C:\Program Files\Microsoft Visual Studio\2022\Community\VC\Tools\MSVC\14.34.31933\include\xmemory
; File C:\Program Files\Microsoft Visual Studio\2022\Community\VC\Tools\MSVC\14.34.31933\include\xstring
; File C:\Program Files\Microsoft Visual Studio\2022\Community\VC\Tools\MSVC\14.34.31933\include\xmemory
;	COMDAT ??1ShopTab@CPythonShop@@QAE@XZ
_TEXT	SEGMENT
??1ShopTab@CPythonShop@@QAE@XZ PROC			; CPythonShop::ShopTab::~ShopTab, COMDAT
; _this$ = ecx
; File C:\Program Files\Microsoft Visual Studio\2022\Community\VC\Tools\MSVC\14.34.31933\include\xstring

; 2301 :         return _BUF_SIZE <= _Myres;

  00000	56		 push	 esi
  00001	8b f1		 mov	 esi, ecx
  00003	8b 4e 18	 mov	 ecx, DWORD PTR [esi+24]
  00006	83 f9 10	 cmp	 ecx, 16			; 00000010H

; 5008 :         if (_My_data._Large_string_engaged()) {

  00009	72 28		 jb	 SHORT $LN15@ShopTab
; File C:\Program Files\Microsoft Visual Studio\2022\Community\VC\Tools\MSVC\14.34.31933\include\xmemory

; 830  :         _Deallocate<_New_alignof<_Ty>>(_Ptr, sizeof(_Ty) * _Count);

  0000b	8b 46 04	 mov	 eax, DWORD PTR [esi+4]
; File C:\Program Files\Microsoft Visual Studio\2022\Community\VC\Tools\MSVC\14.34.31933\include\xstring

; 5013 :             _Al.deallocate(_Ptr, _My_data._Myres + 1);

  0000e	41		 inc	 ecx
; File C:\Program Files\Microsoft Visual Studio\2022\Community\VC\Tools\MSVC\14.34.31933\include\xmemory

; 251  :         if (_Bytes >= _Big_allocation_threshold) { // boost the alignment of big allocations to help autovectorization

  0000f	81 f9 00 10 00
	00		 cmp	 ecx, 4096		; 00001000H
  00015	72 12		 jb	 SHORT $LN27@ShopTab

; 150  :     const uintptr_t _Ptr_container   = _Ptr_user[-1];

  00017	8b 50 fc	 mov	 edx, DWORD PTR [eax-4]
  0001a	83 c1 23	 add	 ecx, 35			; 00000023H

; 151  : 
; 152  :     // If the following asserts, it likely means that we are performing
; 153  :     // an aligned delete on memory coming from an unaligned allocation.
; 154  :     _STL_ASSERT(_Ptr_user[-2] == _Big_allocation_sentinel, "invalid argument");
; 155  : 
; 156  :     // Extra paranoia on aligned allocation/deallocation; ensure _Ptr_container is
; 157  :     // in range [_Min_back_shift, _Non_user_size]
; 158  : #ifdef _DEBUG
; 159  :     constexpr uintptr_t _Min_back_shift = 2 * sizeof(void*);
; 160  : #else // ^^^ _DEBUG ^^^ // vvv !_DEBUG vvv
; 161  :     constexpr uintptr_t _Min_back_shift = sizeof(void*);
; 162  : #endif // _DEBUG
; 163  :     const uintptr_t _Back_shift = reinterpret_cast<uintptr_t>(_Ptr) - _Ptr_container;

  0001d	2b c2		 sub	 eax, edx

; 164  :     _STL_VERIFY(_Back_shift >= _Min_back_shift && _Back_shift <= _Non_user_size, "invalid argument");

  0001f	83 c0 fc	 add	 eax, -4			; fffffffcH
  00022	83 f8 1f	 cmp	 eax, 31			; 0000001fH
  00025	77 20		 ja	 SHORT $LN24@ShopTab

; 165  :     _Ptr = reinterpret_cast<void*>(_Ptr_container);

  00027	8b c2		 mov	 eax, edx
$LN27@ShopTab:

; 255  :         ::operator delete(_Ptr, _Bytes);

  00029	51		 push	 ecx
  0002a	50		 push	 eax
  0002b	e8 00 00 00 00	 call	 ??3@YAXPAXI@Z		; operator delete
  00030	83 c4 08	 add	 esp, 8
$LN15@ShopTab:
; File C:\Program Files\Microsoft Visual Studio\2022\Community\VC\Tools\MSVC\14.34.31933\include\xstring

; 5016 :         _My_data._Mysize = 0;

  00033	c7 46 14 00 00
	00 00		 mov	 DWORD PTR [esi+20], 0

; 5017 :         _My_data._Myres  = _BUF_SIZE - 1;

  0003a	c7 46 18 0f 00
	00 00		 mov	 DWORD PTR [esi+24], 15	; 0000000fH

; 5018 :         // the _Traits::assign is last so the codegen doesn't think the char write can alias this
; 5019 :         _Traits::assign(_My_data._Bx._Buf[0], _Elem());

  00041	c6 46 04 00	 mov	 BYTE PTR [esi+4], 0
  00045	5e		 pop	 esi
  00046	c3		 ret	 0
$LN24@ShopTab:
; File C:\Program Files\Microsoft Visual Studio\2022\Community\VC\Tools\MSVC\14.34.31933\include\xmemory

; 164  :     _STL_VERIFY(_Back_shift >= _Min_back_shift && _Back_shift <= _Non_user_size, "invalid argument");

  00047	e8 00 00 00 00	 call	 __invalid_parameter_noinfo_noreturn
$LN33@ShopTab:
  0004c	cc		 int	 3
??1ShopTab@CPythonShop@@QAE@XZ ENDP			; CPythonShop::ShopTab::~ShopTab
_TEXT	ENDS
; Function compile flags: /Ogtp
; File C:\Program Files\Microsoft Visual Studio\2022\Community\VC\Tools\MSVC\14.34.31933\include\xtree
; File C:\Program Files\Microsoft Visual Studio\2022\Community\VC\Tools\MSVC\14.34.31933\include\xmemory
;	COMDAT ??1?$map@USItemPos@@USShopItemTable@@U?$less@USItemPos@@@std@@V?$allocator@U?$pair@$$CBUSItemPos@@USShopItemTable@@@std@@@4@@std@@QAE@XZ
_TEXT	SEGMENT
??1?$map@USItemPos@@USShopItemTable@@U?$less@USItemPos@@@std@@V?$allocator@U?$pair@$$CBUSItemPos@@USShopItemTable@@@std@@@4@@std@@QAE@XZ PROC ; std::map<SItemPos,SShopItemTable,std::less<SItemPos>,std::allocator<std::pair<SItemPos const ,SShopItemTable> > >::~map<SItemPos,SShopItemTable,std::less<SItemPos>,std::allocator<std::pair<SItemPos const ,SShopItemTable> > >, COMDAT
; _this$ = ecx
; File C:\Program Files\Microsoft Visual Studio\2022\Community\VC\Tools\MSVC\14.34.31933\include\xtree

; 754  :         _Erase_tree(_Al, _Myhead->_Parent);

  00000	56		 push	 esi
  00001	8b f1		 mov	 esi, ecx
  00003	8b 06		 mov	 eax, DWORD PTR [esi]
  00005	ff 70 04	 push	 DWORD PTR [eax+4]
  00008	56		 push	 esi
  00009	e8 00 00 00 00	 call	 ??$_Erase_tree@V?$allocator@U?$_Tree_node@U?$pair@$$CBUSItemPos@@USShopItemTable@@@std@@PAX@std@@@std@@@?$_Tree_val@U?$_Tree_simple_types@U?$pair@$$CBUSItemPos@@USShopItemTable@@@std@@@std@@@std@@QAEXAAV?$allocator@U?$_Tree_node@U?$pair@$$CBUSItemPos@@USShopItemTable@@@std@@PAX@std@@@1@PAU?$_Tree_node@U?$pair@$$CBUSItemPos@@USShopItemTable@@@std@@PAX@1@@Z ; std::_Tree_val<std::_Tree_simple_types<std::pair<SItemPos const ,SShopItemTable> > >::_Erase_tree<std::allocator<std::_Tree_node<std::pair<SItemPos const ,SShopItemTable>,void *> > >
; File C:\Program Files\Microsoft Visual Studio\2022\Community\VC\Tools\MSVC\14.34.31933\include\xmemory

; 255  :         ::operator delete(_Ptr, _Bytes);

  0000e	6a 24		 push	 36			; 00000024H
  00010	ff 36		 push	 DWORD PTR [esi]
  00012	e8 00 00 00 00	 call	 ??3@YAXPAXI@Z		; operator delete
  00017	83 c4 08	 add	 esp, 8
  0001a	5e		 pop	 esi
  0001b	c3		 ret	 0
??1?$map@USItemPos@@USShopItemTable@@U?$less@USItemPos@@@std@@V?$allocator@U?$pair@$$CBUSItemPos@@USShopItemTable@@@std@@@4@@std@@QAE@XZ ENDP ; std::map<SItemPos,SShopItemTable,std::less<SItemPos>,std::allocator<std::pair<SItemPos const ,SShopItemTable> > >::~map<SItemPos,SShopItemTable,std::less<SItemPos>,std::allocator<std::pair<SItemPos const ,SShopItemTable> > >
_TEXT	ENDS
; Function compile flags: /Ogtp
; File E:\Metin2_server\SolWayneSF v6\ClientVS22\source\UserInterface\PythonShop.cpp
;	COMDAT ?shopOpen@@YAPAU_object@@PAU1@0@Z
_TEXT	SEGMENT
_isPrivateShop$ = -8					; size = 4
_isMainPrivateShop$ = -4				; size = 4
_poSelf$ = 8						; size = 4
_poArgs$ = 12						; size = 4
?shopOpen@@YAPAU_object@@PAU1@0@Z PROC			; shopOpen, COMDAT

; 212  : {

  00000	55		 push	 ebp
  00001	8b ec		 mov	 ebp, esp
  00003	83 ec 08	 sub	 esp, 8

; 213  : 	int isPrivateShop = false;
; 214  : 	PyTuple_GetInteger(poArgs, 0, &isPrivateShop);

  00006	8d 45 f8	 lea	 eax, DWORD PTR _isPrivateShop$[ebp]
  00009	c7 45 f8 00 00
	00 00		 mov	 DWORD PTR _isPrivateShop$[ebp], 0
  00010	50		 push	 eax
  00011	6a 00		 push	 0
  00013	ff 75 0c	 push	 DWORD PTR _poArgs$[ebp]
  00016	e8 00 00 00 00	 call	 ?PyTuple_GetInteger@@YA_NPAU_object@@HPAH@Z ; PyTuple_GetInteger

; 215  : 	int isMainPrivateShop = false;
; 216  : 	PyTuple_GetInteger(poArgs, 1, &isMainPrivateShop);

  0001b	8d 45 fc	 lea	 eax, DWORD PTR _isMainPrivateShop$[ebp]
  0001e	c7 45 fc 00 00
	00 00		 mov	 DWORD PTR _isMainPrivateShop$[ebp], 0
  00025	50		 push	 eax
  00026	6a 01		 push	 1
  00028	ff 75 0c	 push	 DWORD PTR _poArgs$[ebp]
  0002b	e8 00 00 00 00	 call	 ?PyTuple_GetInteger@@YA_NPAU_object@@HPAH@Z ; PyTuple_GetInteger

; 217  : 
; 218  : 	CPythonShop& rkShop=CPythonShop::Instance();
; 219  : 	rkShop.Open(isPrivateShop, isMainPrivateShop);

  00030	8b 0d 00 00 00
	00		 mov	 ecx, DWORD PTR ?ms_singleton@?$CSingleton@VCPythonShop@@@@0PAVCPythonShop@@A ; CSingleton<CPythonShop>::ms_singleton
  00036	83 c4 18	 add	 esp, 24			; 00000018H
  00039	ff 75 fc	 push	 DWORD PTR _isMainPrivateShop$[ebp]
  0003c	ff 75 f8	 push	 DWORD PTR _isPrivateShop$[ebp]
  0003f	e8 00 00 00 00	 call	 ?Open@CPythonShop@@QAEXHH@Z ; CPythonShop::Open

; 220  : 	return Py_BuildNone();

  00044	e8 00 00 00 00	 call	 ?Py_BuildNone@@YAPAU_object@@XZ ; Py_BuildNone

; 221  : }

  00049	8b e5		 mov	 esp, ebp
  0004b	5d		 pop	 ebp
  0004c	c3		 ret	 0
?shopOpen@@YAPAU_object@@PAU1@0@Z ENDP			; shopOpen
_TEXT	ENDS
; Function compile flags: /Ogtp
; File E:\Metin2_server\SolWayneSF v6\ClientVS22\source\UserInterface\PythonShop.cpp
;	COMDAT ?shopClose@@YAPAU_object@@PAU1@0@Z
_TEXT	SEGMENT
_poSelf$ = 8						; size = 4
_poArgs$ = 12						; size = 4
?shopClose@@YAPAU_object@@PAU1@0@Z PROC			; shopClose, COMDAT

; 225  : 	CPythonShop& rkShop=CPythonShop::Instance();
; 226  : 	rkShop.Close();

  00000	8b 0d 00 00 00
	00		 mov	 ecx, DWORD PTR ?ms_singleton@?$CSingleton@VCPythonShop@@@@0PAVCPythonShop@@A ; CSingleton<CPythonShop>::ms_singleton
  00006	e8 00 00 00 00	 call	 ?Close@CPythonShop@@QAEXXZ ; CPythonShop::Close

; 227  : 	return Py_BuildNone();

  0000b	e9 00 00 00 00	 jmp	 ?Py_BuildNone@@YAPAU_object@@XZ ; Py_BuildNone
?shopClose@@YAPAU_object@@PAU1@0@Z ENDP			; shopClose
_TEXT	ENDS
; Function compile flags: /Ogtp
; File E:\Metin2_server\SolWayneSF v6\ClientVS22\source\UserInterface\PythonShop.cpp
;	COMDAT ?shopIsOpen@@YAPAU_object@@PAU1@0@Z
_TEXT	SEGMENT
_poSelf$ = 8						; size = 4
_poArgs$ = 12						; size = 4
?shopIsOpen@@YAPAU_object@@PAU1@0@Z PROC		; shopIsOpen, COMDAT

; 232  : 	CPythonShop& rkShop=CPythonShop::Instance();
; 233  : 	return Py_BuildValue("i", rkShop.IsOpen());

  00000	8b 0d 00 00 00
	00		 mov	 ecx, DWORD PTR ?ms_singleton@?$CSingleton@VCPythonShop@@@@0PAVCPythonShop@@A ; CSingleton<CPythonShop>::ms_singleton
  00006	e8 00 00 00 00	 call	 ?IsOpen@CPythonShop@@QAEHXZ ; CPythonShop::IsOpen
  0000b	50		 push	 eax
  0000c	68 00 00 00 00	 push	 OFFSET ??_C@_01KBJDNOO@i@
  00011	ff 15 00 00 00
	00		 call	 DWORD PTR __imp__Py_BuildValue
  00017	83 c4 08	 add	 esp, 8

; 234  : }

  0001a	c3		 ret	 0
?shopIsOpen@@YAPAU_object@@PAU1@0@Z ENDP		; shopIsOpen
_TEXT	ENDS
; Function compile flags: /Ogtp
; File E:\Metin2_server\SolWayneSF v6\ClientVS22\source\UserInterface\PythonShop.cpp
;	COMDAT ?shopIsPrviateShop@@YAPAU_object@@PAU1@0@Z
_TEXT	SEGMENT
_poSelf$ = 8						; size = 4
_poArgs$ = 12						; size = 4
?shopIsPrviateShop@@YAPAU_object@@PAU1@0@Z PROC		; shopIsPrviateShop, COMDAT

; 238  : 	CPythonShop& rkShop=CPythonShop::Instance();
; 239  : 	return Py_BuildValue("i", rkShop.IsPrivateShop());

  00000	8b 0d 00 00 00
	00		 mov	 ecx, DWORD PTR ?ms_singleton@?$CSingleton@VCPythonShop@@@@0PAVCPythonShop@@A ; CSingleton<CPythonShop>::ms_singleton
  00006	e8 00 00 00 00	 call	 ?IsPrivateShop@CPythonShop@@QAEHXZ ; CPythonShop::IsPrivateShop
  0000b	50		 push	 eax
  0000c	68 00 00 00 00	 push	 OFFSET ??_C@_01KBJDNOO@i@
  00011	ff 15 00 00 00
	00		 call	 DWORD PTR __imp__Py_BuildValue
  00017	83 c4 08	 add	 esp, 8

; 240  : }

  0001a	c3		 ret	 0
?shopIsPrviateShop@@YAPAU_object@@PAU1@0@Z ENDP		; shopIsPrviateShop
_TEXT	ENDS
; Function compile flags: /Ogtp
; File E:\Metin2_server\SolWayneSF v6\ClientVS22\source\UserInterface\PythonShop.cpp
;	COMDAT ?shopIsMainPlayerPrivateShop@@YAPAU_object@@PAU1@0@Z
_TEXT	SEGMENT
_poSelf$ = 8						; size = 4
_poArgs$ = 12						; size = 4
?shopIsMainPlayerPrivateShop@@YAPAU_object@@PAU1@0@Z PROC ; shopIsMainPlayerPrivateShop, COMDAT

; 244  : 	CPythonShop& rkShop=CPythonShop::Instance();
; 245  : 	return Py_BuildValue("i", rkShop.IsMainPlayerPrivateShop());

  00000	8b 0d 00 00 00
	00		 mov	 ecx, DWORD PTR ?ms_singleton@?$CSingleton@VCPythonShop@@@@0PAVCPythonShop@@A ; CSingleton<CPythonShop>::ms_singleton
  00006	e8 00 00 00 00	 call	 ?IsMainPlayerPrivateShop@CPythonShop@@QAEHXZ ; CPythonShop::IsMainPlayerPrivateShop
  0000b	50		 push	 eax
  0000c	68 00 00 00 00	 push	 OFFSET ??_C@_01KBJDNOO@i@
  00011	ff 15 00 00 00
	00		 call	 DWORD PTR __imp__Py_BuildValue
  00017	83 c4 08	 add	 esp, 8

; 246  : }

  0001a	c3		 ret	 0
?shopIsMainPlayerPrivateShop@@YAPAU_object@@PAU1@0@Z ENDP ; shopIsMainPlayerPrivateShop
_TEXT	ENDS
; Function compile flags: /Ogtp
; File E:\Metin2_server\SolWayneSF v6\ClientVS22\source\UserInterface\PythonShop.cpp
;	COMDAT ?shopGetItemID@@YAPAU_object@@PAU1@0@Z
_TEXT	SEGMENT
_c_pItemData$ = -8					; size = 4
_nPos$ = -4						; size = 4
_poSelf$ = 8						; size = 4
_poArgs$ = 12						; size = 4
?shopGetItemID@@YAPAU_object@@PAU1@0@Z PROC		; shopGetItemID, COMDAT

; 249  : {

  00000	55		 push	 ebp
  00001	8b ec		 mov	 ebp, esp
  00003	83 ec 08	 sub	 esp, 8

; 250  : 	int nPos;
; 251  : 	if (!PyTuple_GetInteger(poArgs, 0, &nPos))

  00006	8d 45 fc	 lea	 eax, DWORD PTR _nPos$[ebp]
  00009	50		 push	 eax
  0000a	6a 00		 push	 0
  0000c	ff 75 0c	 push	 DWORD PTR _poArgs$[ebp]
  0000f	e8 00 00 00 00	 call	 ?PyTuple_GetInteger@@YA_NPAU_object@@HPAH@Z ; PyTuple_GetInteger
  00014	83 c4 0c	 add	 esp, 12			; 0000000cH
  00017	84 c0		 test	 al, al
  00019	75 0e		 jne	 SHORT $LN2@shopGetIte

; 252  : 		return Py_BuildException();

  0001b	6a 00		 push	 0
  0001d	e8 00 00 00 00	 call	 ?Py_BuildException@@YAPAU_object@@PBDZZ ; Py_BuildException
  00022	83 c4 04	 add	 esp, 4

; 259  : }

  00025	8b e5		 mov	 esp, ebp
  00027	5d		 pop	 ebp
  00028	c3		 ret	 0
$LN2@shopGetIte:

; 253  : 
; 254  : 	const TShopItemData * c_pItemData;
; 255  : 	if (CPythonShop::Instance().GetItemData(nPos, &c_pItemData))

  00029	8b 0d 00 00 00
	00		 mov	 ecx, DWORD PTR ?ms_singleton@?$CSingleton@VCPythonShop@@@@0PAVCPythonShop@@A ; CSingleton<CPythonShop>::ms_singleton
  0002f	8d 45 f8	 lea	 eax, DWORD PTR _c_pItemData$[ebp]
  00032	50		 push	 eax
  00033	ff 75 fc	 push	 DWORD PTR _nPos$[ebp]
  00036	e8 00 00 00 00	 call	 ?GetItemData@CPythonShop@@QAEHKPAPBUpacket_shop_item@@@Z ; CPythonShop::GetItemData
  0003b	85 c0		 test	 eax, eax
  0003d	74 17		 je	 SHORT $LN3@shopGetIte

; 256  : 		return Py_BuildValue("i", c_pItemData->vnum);

  0003f	8b 45 f8	 mov	 eax, DWORD PTR _c_pItemData$[ebp]
  00042	ff 30		 push	 DWORD PTR [eax]

; 259  : }

  00044	68 00 00 00 00	 push	 OFFSET ??_C@_01KBJDNOO@i@
  00049	ff 15 00 00 00
	00		 call	 DWORD PTR __imp__Py_BuildValue
  0004f	83 c4 08	 add	 esp, 8
  00052	8b e5		 mov	 esp, ebp
  00054	5d		 pop	 ebp
  00055	c3		 ret	 0
$LN3@shopGetIte:

; 257  : 
; 258  : 	return Py_BuildValue("i", 0);

  00056	6a 00		 push	 0

; 259  : }

  00058	68 00 00 00 00	 push	 OFFSET ??_C@_01KBJDNOO@i@
  0005d	ff 15 00 00 00
	00		 call	 DWORD PTR __imp__Py_BuildValue
  00063	83 c4 08	 add	 esp, 8
  00066	8b e5		 mov	 esp, ebp
  00068	5d		 pop	 ebp
  00069	c3		 ret	 0
?shopGetItemID@@YAPAU_object@@PAU1@0@Z ENDP		; shopGetItemID
_TEXT	ENDS
; Function compile flags: /Ogtp
; File E:\Metin2_server\SolWayneSF v6\ClientVS22\source\UserInterface\PythonShop.cpp
;	COMDAT ?shopGetItemCount@@YAPAU_object@@PAU1@0@Z
_TEXT	SEGMENT
_c_pItemData$ = -8					; size = 4
_iIndex$ = -4						; size = 4
_poSelf$ = 8						; size = 4
_poArgs$ = 12						; size = 4
?shopGetItemCount@@YAPAU_object@@PAU1@0@Z PROC		; shopGetItemCount, COMDAT

; 262  : {

  00000	55		 push	 ebp
  00001	8b ec		 mov	 ebp, esp
  00003	83 ec 08	 sub	 esp, 8

; 263  : 	int iIndex;
; 264  : 	if (!PyTuple_GetInteger(poArgs, 0, &iIndex))

  00006	8d 45 fc	 lea	 eax, DWORD PTR _iIndex$[ebp]
  00009	50		 push	 eax
  0000a	6a 00		 push	 0
  0000c	ff 75 0c	 push	 DWORD PTR _poArgs$[ebp]
  0000f	e8 00 00 00 00	 call	 ?PyTuple_GetInteger@@YA_NPAU_object@@HPAH@Z ; PyTuple_GetInteger
  00014	83 c4 0c	 add	 esp, 12			; 0000000cH
  00017	84 c0		 test	 al, al
  00019	75 0e		 jne	 SHORT $LN2@shopGetIte

; 265  : 		return Py_BuildException();

  0001b	6a 00		 push	 0
  0001d	e8 00 00 00 00	 call	 ?Py_BuildException@@YAPAU_object@@PBDZZ ; Py_BuildException
  00022	83 c4 04	 add	 esp, 4

; 272  : }

  00025	8b e5		 mov	 esp, ebp
  00027	5d		 pop	 ebp
  00028	c3		 ret	 0
$LN2@shopGetIte:

; 266  : 
; 267  : 	const TShopItemData * c_pItemData;
; 268  : 	if (CPythonShop::Instance().GetItemData(iIndex, &c_pItemData))

  00029	8b 0d 00 00 00
	00		 mov	 ecx, DWORD PTR ?ms_singleton@?$CSingleton@VCPythonShop@@@@0PAVCPythonShop@@A ; CSingleton<CPythonShop>::ms_singleton
  0002f	8d 45 f8	 lea	 eax, DWORD PTR _c_pItemData$[ebp]
  00032	50		 push	 eax
  00033	ff 75 fc	 push	 DWORD PTR _iIndex$[ebp]
  00036	e8 00 00 00 00	 call	 ?GetItemData@CPythonShop@@QAEHKPAPBUpacket_shop_item@@@Z ; CPythonShop::GetItemData
  0003b	85 c0		 test	 eax, eax
  0003d	74 1a		 je	 SHORT $LN3@shopGetIte

; 269  : 		return Py_BuildValue("i", c_pItemData->count);

  0003f	8b 45 f8	 mov	 eax, DWORD PTR _c_pItemData$[ebp]
  00042	0f b6 40 0c	 movzx	 eax, BYTE PTR [eax+12]
  00046	50		 push	 eax

; 272  : }

  00047	68 00 00 00 00	 push	 OFFSET ??_C@_01KBJDNOO@i@
  0004c	ff 15 00 00 00
	00		 call	 DWORD PTR __imp__Py_BuildValue
  00052	83 c4 08	 add	 esp, 8
  00055	8b e5		 mov	 esp, ebp
  00057	5d		 pop	 ebp
  00058	c3		 ret	 0
$LN3@shopGetIte:

; 270  : 
; 271  : 	return Py_BuildValue("i", 0);

  00059	6a 00		 push	 0

; 272  : }

  0005b	68 00 00 00 00	 push	 OFFSET ??_C@_01KBJDNOO@i@
  00060	ff 15 00 00 00
	00		 call	 DWORD PTR __imp__Py_BuildValue
  00066	83 c4 08	 add	 esp, 8
  00069	8b e5		 mov	 esp, ebp
  0006b	5d		 pop	 ebp
  0006c	c3		 ret	 0
?shopGetItemCount@@YAPAU_object@@PAU1@0@Z ENDP		; shopGetItemCount
_TEXT	ENDS
; Function compile flags: /Ogtp
; File E:\Metin2_server\SolWayneSF v6\ClientVS22\source\UserInterface\PythonShop.cpp
;	COMDAT ?shopGetItemPrice@@YAPAU_object@@PAU1@0@Z
_TEXT	SEGMENT
_c_pItemData$ = -8					; size = 4
_iIndex$ = -4						; size = 4
_poSelf$ = 8						; size = 4
_poArgs$ = 12						; size = 4
?shopGetItemPrice@@YAPAU_object@@PAU1@0@Z PROC		; shopGetItemPrice, COMDAT

; 275  : {

  00000	55		 push	 ebp
  00001	8b ec		 mov	 ebp, esp
  00003	83 ec 08	 sub	 esp, 8

; 276  : 	int iIndex;
; 277  : 	if (!PyTuple_GetInteger(poArgs, 0, &iIndex))

  00006	8d 45 fc	 lea	 eax, DWORD PTR _iIndex$[ebp]
  00009	50		 push	 eax
  0000a	6a 00		 push	 0
  0000c	ff 75 0c	 push	 DWORD PTR _poArgs$[ebp]
  0000f	e8 00 00 00 00	 call	 ?PyTuple_GetInteger@@YA_NPAU_object@@HPAH@Z ; PyTuple_GetInteger
  00014	83 c4 0c	 add	 esp, 12			; 0000000cH
  00017	84 c0		 test	 al, al
  00019	75 0e		 jne	 SHORT $LN2@shopGetIte

; 278  : 		return Py_BuildException();

  0001b	6a 00		 push	 0
  0001d	e8 00 00 00 00	 call	 ?Py_BuildException@@YAPAU_object@@PBDZZ ; Py_BuildException
  00022	83 c4 04	 add	 esp, 4

; 285  : }

  00025	8b e5		 mov	 esp, ebp
  00027	5d		 pop	 ebp
  00028	c3		 ret	 0
$LN2@shopGetIte:

; 279  : 
; 280  : 	const TShopItemData * c_pItemData;
; 281  : 	if (CPythonShop::Instance().GetItemData(iIndex, &c_pItemData))

  00029	8b 0d 00 00 00
	00		 mov	 ecx, DWORD PTR ?ms_singleton@?$CSingleton@VCPythonShop@@@@0PAVCPythonShop@@A ; CSingleton<CPythonShop>::ms_singleton
  0002f	8d 45 f8	 lea	 eax, DWORD PTR _c_pItemData$[ebp]
  00032	50		 push	 eax
  00033	ff 75 fc	 push	 DWORD PTR _iIndex$[ebp]
  00036	e8 00 00 00 00	 call	 ?GetItemData@CPythonShop@@QAEHKPAPBUpacket_shop_item@@@Z ; CPythonShop::GetItemData
  0003b	85 c0		 test	 eax, eax
  0003d	74 1b		 je	 SHORT $LN3@shopGetIte

; 282  : 		return Py_BuildValue("L", c_pItemData->price);	

  0003f	8b 45 f8	 mov	 eax, DWORD PTR _c_pItemData$[ebp]
  00042	ff 70 08	 push	 DWORD PTR [eax+8]
  00045	ff 70 04	 push	 DWORD PTR [eax+4]
  00048	68 00 00 00 00	 push	 OFFSET ??_C@_01OCOKONAJ@L@
  0004d	ff 15 00 00 00
	00		 call	 DWORD PTR __imp__Py_BuildValue
  00053	83 c4 0c	 add	 esp, 12			; 0000000cH

; 285  : }

  00056	8b e5		 mov	 esp, ebp
  00058	5d		 pop	 ebp
  00059	c3		 ret	 0
$LN3@shopGetIte:

; 283  : 
; 284  : 	return Py_BuildValue("i", 0);

  0005a	6a 00		 push	 0
  0005c	68 00 00 00 00	 push	 OFFSET ??_C@_01KBJDNOO@i@
  00061	ff 15 00 00 00
	00		 call	 DWORD PTR __imp__Py_BuildValue
  00067	83 c4 08	 add	 esp, 8

; 285  : }

  0006a	8b e5		 mov	 esp, ebp
  0006c	5d		 pop	 ebp
  0006d	c3		 ret	 0
?shopGetItemPrice@@YAPAU_object@@PAU1@0@Z ENDP		; shopGetItemPrice
_TEXT	ENDS
; Function compile flags: /Ogtp
; File E:\Metin2_server\SolWayneSF v6\ClientVS22\source\UserInterface\PythonShop.cpp
;	COMDAT ?shopGetItemMetinSocket@@YAPAU_object@@PAU1@0@Z
_TEXT	SEGMENT
_c_pItemData$ = -12					; size = 4
_iMetinSocketIndex$ = -8				; size = 4
_iIndex$ = -4						; size = 4
_poSelf$ = 8						; size = 4
_poArgs$ = 12						; size = 4
?shopGetItemMetinSocket@@YAPAU_object@@PAU1@0@Z PROC	; shopGetItemMetinSocket, COMDAT

; 288  : {

  00000	55		 push	 ebp
  00001	8b ec		 mov	 ebp, esp
  00003	83 ec 0c	 sub	 esp, 12			; 0000000cH

; 289  : 	int iIndex;
; 290  : 	if (!PyTuple_GetInteger(poArgs, 0, &iIndex))

  00006	8d 45 fc	 lea	 eax, DWORD PTR _iIndex$[ebp]
  00009	50		 push	 eax
  0000a	6a 00		 push	 0
  0000c	ff 75 0c	 push	 DWORD PTR _poArgs$[ebp]
  0000f	e8 00 00 00 00	 call	 ?PyTuple_GetInteger@@YA_NPAU_object@@HPAH@Z ; PyTuple_GetInteger
  00014	83 c4 0c	 add	 esp, 12			; 0000000cH
  00017	84 c0		 test	 al, al
  00019	75 0e		 jne	 SHORT $LN2@shopGetIte
$LN7@shopGetIte:

; 301  : }

  0001b	6a 00		 push	 0
  0001d	e8 00 00 00 00	 call	 ?Py_BuildException@@YAPAU_object@@PBDZZ ; Py_BuildException
  00022	83 c4 04	 add	 esp, 4
  00025	8b e5		 mov	 esp, ebp
  00027	5d		 pop	 ebp
  00028	c3		 ret	 0
$LN2@shopGetIte:

; 291  : 		return Py_BuildException();
; 292  : 	int iMetinSocketIndex;
; 293  : 	if (!PyTuple_GetInteger(poArgs, 1, &iMetinSocketIndex))

  00029	8d 45 f8	 lea	 eax, DWORD PTR _iMetinSocketIndex$[ebp]
  0002c	50		 push	 eax
  0002d	6a 01		 push	 1
  0002f	ff 75 0c	 push	 DWORD PTR _poArgs$[ebp]
  00032	e8 00 00 00 00	 call	 ?PyTuple_GetInteger@@YA_NPAU_object@@HPAH@Z ; PyTuple_GetInteger
  00037	83 c4 0c	 add	 esp, 12			; 0000000cH
  0003a	84 c0		 test	 al, al
  0003c	74 dd		 je	 SHORT $LN7@shopGetIte

; 294  : 		return Py_BuildException();
; 295  : 
; 296  : 	const TShopItemData * c_pItemData;
; 297  : 	if (CPythonShop::Instance().GetItemData(iIndex, &c_pItemData))

  0003e	8b 0d 00 00 00
	00		 mov	 ecx, DWORD PTR ?ms_singleton@?$CSingleton@VCPythonShop@@@@0PAVCPythonShop@@A ; CSingleton<CPythonShop>::ms_singleton
  00044	8d 45 f4	 lea	 eax, DWORD PTR _c_pItemData$[ebp]
  00047	50		 push	 eax
  00048	ff 75 fc	 push	 DWORD PTR _iIndex$[ebp]
  0004b	e8 00 00 00 00	 call	 ?GetItemData@CPythonShop@@QAEHKPAPBUpacket_shop_item@@@Z ; CPythonShop::GetItemData
  00050	85 c0		 test	 eax, eax
  00052	74 1c		 je	 SHORT $LN4@shopGetIte

; 298  : 		return Py_BuildValue("i", c_pItemData->alSockets[iMetinSocketIndex]);

  00054	8b 4d f8	 mov	 ecx, DWORD PTR _iMetinSocketIndex$[ebp]
  00057	8b 45 f4	 mov	 eax, DWORD PTR _c_pItemData$[ebp]
  0005a	ff 74 88 0e	 push	 DWORD PTR [eax+ecx*4+14]

; 301  : }

  0005e	68 00 00 00 00	 push	 OFFSET ??_C@_01KBJDNOO@i@
  00063	ff 15 00 00 00
	00		 call	 DWORD PTR __imp__Py_BuildValue
  00069	83 c4 08	 add	 esp, 8
  0006c	8b e5		 mov	 esp, ebp
  0006e	5d		 pop	 ebp
  0006f	c3		 ret	 0
$LN4@shopGetIte:

; 299  : 
; 300  : 	return Py_BuildValue("i", 0);

  00070	6a 00		 push	 0

; 301  : }

  00072	68 00 00 00 00	 push	 OFFSET ??_C@_01KBJDNOO@i@
  00077	ff 15 00 00 00
	00		 call	 DWORD PTR __imp__Py_BuildValue
  0007d	83 c4 08	 add	 esp, 8
  00080	8b e5		 mov	 esp, ebp
  00082	5d		 pop	 ebp
  00083	c3		 ret	 0
?shopGetItemMetinSocket@@YAPAU_object@@PAU1@0@Z ENDP	; shopGetItemMetinSocket
_TEXT	ENDS
; Function compile flags: /Ogtp
; File E:\Metin2_server\SolWayneSF v6\ClientVS22\source\UserInterface\PythonShop.cpp
;	COMDAT ?shopGetItemAttribute@@YAPAU_object@@PAU1@0@Z
_TEXT	SEGMENT
_c_pItemData$1 = -12					; size = 4
_iIndex$ = -8						; size = 4
_iAttrSlotIndex$ = -4					; size = 4
_poSelf$ = 8						; size = 4
_poArgs$ = 12						; size = 4
?shopGetItemAttribute@@YAPAU_object@@PAU1@0@Z PROC	; shopGetItemAttribute, COMDAT

; 304  : {

  00000	55		 push	 ebp
  00001	8b ec		 mov	 ebp, esp
  00003	83 ec 0c	 sub	 esp, 12			; 0000000cH

; 305  : 	int iIndex;
; 306  : 	if (!PyTuple_GetInteger(poArgs, 0, &iIndex))

  00006	8d 45 f8	 lea	 eax, DWORD PTR _iIndex$[ebp]
  00009	50		 push	 eax
  0000a	6a 00		 push	 0
  0000c	ff 75 0c	 push	 DWORD PTR _poArgs$[ebp]
  0000f	e8 00 00 00 00	 call	 ?PyTuple_GetInteger@@YA_NPAU_object@@HPAH@Z ; PyTuple_GetInteger
  00014	83 c4 0c	 add	 esp, 12			; 0000000cH
  00017	84 c0		 test	 al, al
  00019	75 0e		 jne	 SHORT $LN2@shopGetIte
$LN8@shopGetIte:

; 320  : }

  0001b	6a 00		 push	 0
  0001d	e8 00 00 00 00	 call	 ?Py_BuildException@@YAPAU_object@@PBDZZ ; Py_BuildException
  00022	83 c4 04	 add	 esp, 4
  00025	8b e5		 mov	 esp, ebp
  00027	5d		 pop	 ebp
  00028	c3		 ret	 0
$LN2@shopGetIte:

; 307  : 		return Py_BuildException();
; 308  : 	int iAttrSlotIndex;
; 309  : 	if (!PyTuple_GetInteger(poArgs, 1, &iAttrSlotIndex))

  00029	8d 45 fc	 lea	 eax, DWORD PTR _iAttrSlotIndex$[ebp]
  0002c	50		 push	 eax
  0002d	6a 01		 push	 1
  0002f	ff 75 0c	 push	 DWORD PTR _poArgs$[ebp]
  00032	e8 00 00 00 00	 call	 ?PyTuple_GetInteger@@YA_NPAU_object@@HPAH@Z ; PyTuple_GetInteger
  00037	83 c4 0c	 add	 esp, 12			; 0000000cH
  0003a	84 c0		 test	 al, al
  0003c	74 dd		 je	 SHORT $LN8@shopGetIte

; 310  : 		return Py_BuildException();
; 311  : 
; 312  : 	if (iAttrSlotIndex >= 0 && iAttrSlotIndex < ITEM_ATTRIBUTE_SLOT_MAX_NUM)

  0003e	83 7d fc 06	 cmp	 DWORD PTR _iAttrSlotIndex$[ebp], 6
  00042	77 40		 ja	 SHORT $LN5@shopGetIte

; 313  : 	{
; 314  : 		const TShopItemData * c_pItemData;
; 315  : 		if (CPythonShop::Instance().GetItemData(iIndex, &c_pItemData))

  00044	8b 0d 00 00 00
	00		 mov	 ecx, DWORD PTR ?ms_singleton@?$CSingleton@VCPythonShop@@@@0PAVCPythonShop@@A ; CSingleton<CPythonShop>::ms_singleton
  0004a	8d 45 f4	 lea	 eax, DWORD PTR _c_pItemData$1[ebp]
  0004d	50		 push	 eax
  0004e	ff 75 f8	 push	 DWORD PTR _iIndex$[ebp]
  00051	e8 00 00 00 00	 call	 ?GetItemData@CPythonShop@@QAEHKPAPBUpacket_shop_item@@@Z ; CPythonShop::GetItemData
  00056	85 c0		 test	 eax, eax
  00058	74 2a		 je	 SHORT $LN5@shopGetIte

; 316  : 			return Py_BuildValue("ii", c_pItemData->aAttr[iAttrSlotIndex].bType, c_pItemData->aAttr[iAttrSlotIndex].sValue);

  0005a	8b 55 fc	 mov	 edx, DWORD PTR _iAttrSlotIndex$[ebp]
  0005d	8b 4d f4	 mov	 ecx, DWORD PTR _c_pItemData$1[ebp]
  00060	8d 04 51	 lea	 eax, DWORD PTR [ecx+edx*2]
  00063	0f bf 44 02 1b	 movsx	 eax, WORD PTR [edx+eax+27]
  00068	50		 push	 eax
  00069	8d 04 51	 lea	 eax, DWORD PTR [ecx+edx*2]
  0006c	0f b6 44 02 1a	 movzx	 eax, BYTE PTR [edx+eax+26]
  00071	50		 push	 eax

; 320  : }

  00072	68 00 00 00 00	 push	 OFFSET ??_C@_02PDIHAGKM@ii@
  00077	ff 15 00 00 00
	00		 call	 DWORD PTR __imp__Py_BuildValue
  0007d	83 c4 0c	 add	 esp, 12			; 0000000cH
  00080	8b e5		 mov	 esp, ebp
  00082	5d		 pop	 ebp
  00083	c3		 ret	 0
$LN5@shopGetIte:

; 317  : 	}
; 318  : 
; 319  : 	return Py_BuildValue("ii", 0, 0);

  00084	6a 00		 push	 0
  00086	6a 00		 push	 0

; 320  : }

  00088	68 00 00 00 00	 push	 OFFSET ??_C@_02PDIHAGKM@ii@
  0008d	ff 15 00 00 00
	00		 call	 DWORD PTR __imp__Py_BuildValue
  00093	83 c4 0c	 add	 esp, 12			; 0000000cH
  00096	8b e5		 mov	 esp, ebp
  00098	5d		 pop	 ebp
  00099	c3		 ret	 0
?shopGetItemAttribute@@YAPAU_object@@PAU1@0@Z ENDP	; shopGetItemAttribute
_TEXT	ENDS
; Function compile flags: /Ogtp
; File E:\Metin2_server\SolWayneSF v6\ClientVS22\source\UserInterface\PythonShop.cpp
;	COMDAT ?shopClearPrivateShopStock@@YAPAU_object@@PAU1@0@Z
_TEXT	SEGMENT
_poSelf$ = 8						; size = 4
_poArgs$ = 12						; size = 4
?shopClearPrivateShopStock@@YAPAU_object@@PAU1@0@Z PROC	; shopClearPrivateShopStock, COMDAT

; 324  : 	CPythonShop::Instance().ClearPrivateShopStock();

  00000	8b 0d 00 00 00
	00		 mov	 ecx, DWORD PTR ?ms_singleton@?$CSingleton@VCPythonShop@@@@0PAVCPythonShop@@A ; CSingleton<CPythonShop>::ms_singleton
  00006	e8 00 00 00 00	 call	 ?ClearPrivateShopStock@CPythonShop@@QAEXXZ ; CPythonShop::ClearPrivateShopStock

; 325  : 	return Py_BuildNone();

  0000b	e9 00 00 00 00	 jmp	 ?Py_BuildNone@@YAPAU_object@@XZ ; Py_BuildNone
?shopClearPrivateShopStock@@YAPAU_object@@PAU1@0@Z ENDP	; shopClearPrivateShopStock
_TEXT	ENDS
; Function compile flags: /Ogtp
; File E:\Metin2_server\SolWayneSF v6\ClientVS22\source\UserInterface\PythonShop.cpp
; File E:\Metin2_server\SolWayneSF v6\ClientVS22\source\UserInterface\GameType.h
; File E:\Metin2_server\SolWayneSF v6\ClientVS22\source\UserInterface\PythonShop.cpp
; File E:\Metin2_server\SolWayneSF v6\ClientVS22\source\UserInterface\GameType.h
; File E:\Metin2_server\SolWayneSF v6\ClientVS22\source\UserInterface\PythonShop.cpp
; File E:\Metin2_server\SolWayneSF v6\ClientVS22\source\UserInterface\GameType.h
; File E:\Metin2_server\SolWayneSF v6\ClientVS22\source\UserInterface\PythonShop.cpp
; File E:\Metin2_server\SolWayneSF v6\ClientVS22\source\UserInterface\GameType.h
; File E:\Metin2_server\SolWayneSF v6\ClientVS22\source\UserInterface\PythonShop.cpp
;	COMDAT ?shopAddPrivateShopItemStock@@YAPAU_object@@PAU1@0@Z
_TEXT	SEGMENT
_bItemWindowType$ = -21					; size = 1
_wItemSlotIndex$ = -20					; size = 2
$T1 = -15						; size = 3
_iDisplaySlotIndex$ = -12				; size = 4
_iPrice$ = -8						; size = 8
_poSelf$ = 8						; size = 4
_poArgs$ = 12						; size = 4
?shopAddPrivateShopItemStock@@YAPAU_object@@PAU1@0@Z PROC ; shopAddPrivateShopItemStock, COMDAT

; 328  : {

  00000	55		 push	 ebp
  00001	8b ec		 mov	 ebp, esp
  00003	83 e4 f8	 and	 esp, -8			; fffffff8H
  00006	83 ec 1c	 sub	 esp, 28			; 0000001cH

; 329  : 	BYTE bItemWindowType;
; 330  : 	if (!PyTuple_GetInteger(poArgs, 0, &bItemWindowType))

  00009	8d 44 24 07	 lea	 eax, DWORD PTR _bItemWindowType$[esp+28]
  0000d	56		 push	 esi
  0000e	8b 75 0c	 mov	 esi, DWORD PTR _poArgs$[ebp]
  00011	50		 push	 eax
  00012	6a 00		 push	 0
  00014	56		 push	 esi
  00015	e8 00 00 00 00	 call	 ?PyTuple_GetInteger@@YA_NPAU_object@@HPAE@Z ; PyTuple_GetInteger
  0001a	83 c4 0c	 add	 esp, 12			; 0000000cH
  0001d	84 c0		 test	 al, al
  0001f	75 0f		 jne	 SHORT $LN2@shopAddPri
$LN9@shopAddPri:

; 344  : }

  00021	6a 00		 push	 0
  00023	e8 00 00 00 00	 call	 ?Py_BuildException@@YAPAU_object@@PBDZZ ; Py_BuildException
  00028	83 c4 04	 add	 esp, 4
  0002b	5e		 pop	 esi
  0002c	8b e5		 mov	 esp, ebp
  0002e	5d		 pop	 ebp
  0002f	c3		 ret	 0
$LN2@shopAddPri:

; 331  : 		return Py_BuildException();
; 332  : 	WORD wItemSlotIndex;
; 333  : 	if (!PyTuple_GetInteger(poArgs, 1, &wItemSlotIndex))

  00030	8d 44 24 0c	 lea	 eax, DWORD PTR _wItemSlotIndex$[esp+32]
  00034	50		 push	 eax
  00035	6a 01		 push	 1
  00037	56		 push	 esi
  00038	e8 00 00 00 00	 call	 ?PyTuple_GetInteger@@YA_NPAU_object@@HPAG@Z ; PyTuple_GetInteger
  0003d	83 c4 0c	 add	 esp, 12			; 0000000cH
  00040	84 c0		 test	 al, al
  00042	74 dd		 je	 SHORT $LN9@shopAddPri

; 334  : 		return Py_BuildException();
; 335  : 	int iDisplaySlotIndex;
; 336  : 	if (!PyTuple_GetInteger(poArgs, 2, &iDisplaySlotIndex))

  00044	8d 44 24 14	 lea	 eax, DWORD PTR _iDisplaySlotIndex$[esp+32]
  00048	50		 push	 eax
  00049	6a 02		 push	 2
  0004b	56		 push	 esi
  0004c	e8 00 00 00 00	 call	 ?PyTuple_GetInteger@@YA_NPAU_object@@HPAH@Z ; PyTuple_GetInteger
  00051	83 c4 0c	 add	 esp, 12			; 0000000cH
  00054	84 c0		 test	 al, al
  00056	74 c9		 je	 SHORT $LN9@shopAddPri

; 337  : 		return Py_BuildException();
; 338  : 	long long iPrice;
; 339  : 	if (!PyTuple_GetLongLong(poArgs, 3, &iPrice))

  00058	8d 44 24 18	 lea	 eax, DWORD PTR _iPrice$[esp+32]
  0005c	50		 push	 eax
  0005d	6a 03		 push	 3
  0005f	56		 push	 esi
  00060	e8 00 00 00 00	 call	 ?PyTuple_GetLongLong@@YA_NPAU_object@@HPA_J@Z ; PyTuple_GetLongLong
  00065	83 c4 0c	 add	 esp, 12			; 0000000cH
  00068	84 c0		 test	 al, al
  0006a	74 b5		 je	 SHORT $LN9@shopAddPri

; 342  : 	CPythonShop::Instance().AddPrivateShopItemStock(TItemPos(bItemWindowType, wItemSlotIndex), iDisplaySlotIndex, iPrice);

  0006c	ff 74 24 1c	 push	 DWORD PTR _iPrice$[esp+36]
; File E:\Metin2_server\SolWayneSF v6\ClientVS22\source\UserInterface\GameType.h

; 206  :         window_type = _window_type;

  00070	8a 44 24 0f	 mov	 al, BYTE PTR _bItemWindowType$[esp+36]
; File E:\Metin2_server\SolWayneSF v6\ClientVS22\source\UserInterface\PythonShop.cpp

; 342  : 	CPythonShop::Instance().AddPrivateShopItemStock(TItemPos(bItemWindowType, wItemSlotIndex), iDisplaySlotIndex, iPrice);

  00074	ff 74 24 1c	 push	 DWORD PTR _iPrice$[esp+36]
; File E:\Metin2_server\SolWayneSF v6\ClientVS22\source\UserInterface\GameType.h

; 206  :         window_type = _window_type;

  00078	88 44 24 19	 mov	 BYTE PTR $T1[esp+40], al
; File E:\Metin2_server\SolWayneSF v6\ClientVS22\source\UserInterface\PythonShop.cpp

; 342  : 	CPythonShop::Instance().AddPrivateShopItemStock(TItemPos(bItemWindowType, wItemSlotIndex), iDisplaySlotIndex, iPrice);

  0007c	ff 74 24 1c	 push	 DWORD PTR _iDisplaySlotIndex$[esp+40]
; File E:\Metin2_server\SolWayneSF v6\ClientVS22\source\UserInterface\GameType.h

; 207  :         cell = _cell;

  00080	0f b7 44 24 18	 movzx	 eax, WORD PTR _wItemSlotIndex$[esp+44]
; File E:\Metin2_server\SolWayneSF v6\ClientVS22\source\UserInterface\PythonShop.cpp

; 342  : 	CPythonShop::Instance().AddPrivateShopItemStock(TItemPos(bItemWindowType, wItemSlotIndex), iDisplaySlotIndex, iPrice);

  00085	51		 push	 ecx
  00086	8b cc		 mov	 ecx, esp
; File E:\Metin2_server\SolWayneSF v6\ClientVS22\source\UserInterface\GameType.h

; 207  :         cell = _cell;

  00088	66 89 44 24 22	 mov	 WORD PTR $T1[esp+49], ax
; File E:\Metin2_server\SolWayneSF v6\ClientVS22\source\UserInterface\PythonShop.cpp

; 342  : 	CPythonShop::Instance().AddPrivateShopItemStock(TItemPos(bItemWindowType, wItemSlotIndex), iDisplaySlotIndex, iPrice);

  0008d	0f b7 44 24 21	 movzx	 eax, WORD PTR $T1[esp+48]
  00092	66 89 01	 mov	 WORD PTR [ecx], ax
  00095	8a 44 24 23	 mov	 al, BYTE PTR $T1[esp+50]
  00099	88 41 02	 mov	 BYTE PTR [ecx+2], al
  0009c	8b 0d 00 00 00
	00		 mov	 ecx, DWORD PTR ?ms_singleton@?$CSingleton@VCPythonShop@@@@0PAVCPythonShop@@A ; CSingleton<CPythonShop>::ms_singleton
  000a2	e8 00 00 00 00	 call	 ?AddPrivateShopItemStock@CPythonShop@@QAEXUSItemPos@@E_J@Z ; CPythonShop::AddPrivateShopItemStock

; 343  : 	return Py_BuildNone();

  000a7	e8 00 00 00 00	 call	 ?Py_BuildNone@@YAPAU_object@@XZ ; Py_BuildNone

; 344  : }

  000ac	5e		 pop	 esi
  000ad	8b e5		 mov	 esp, ebp
  000af	5d		 pop	 ebp
  000b0	c3		 ret	 0
?shopAddPrivateShopItemStock@@YAPAU_object@@PAU1@0@Z ENDP ; shopAddPrivateShopItemStock
_TEXT	ENDS
; Function compile flags: /Ogtp
; File E:\Metin2_server\SolWayneSF v6\ClientVS22\source\UserInterface\PythonShop.cpp
; File E:\Metin2_server\SolWayneSF v6\ClientVS22\source\UserInterface\GameType.h
; File E:\Metin2_server\SolWayneSF v6\ClientVS22\source\UserInterface\PythonShop.cpp
; File E:\Metin2_server\SolWayneSF v6\ClientVS22\source\UserInterface\GameType.h
; File E:\Metin2_server\SolWayneSF v6\ClientVS22\source\UserInterface\PythonShop.cpp
;	COMDAT ?shopDelPrivateShopItemStock@@YAPAU_object@@PAU1@0@Z
_TEXT	SEGMENT
$T1 = -11						; size = 3
_wItemSlotIndex$ = -8					; size = 2
_bItemWindowType$ = -1					; size = 1
_poSelf$ = 8						; size = 4
_poArgs$ = 12						; size = 4
?shopDelPrivateShopItemStock@@YAPAU_object@@PAU1@0@Z PROC ; shopDelPrivateShopItemStock, COMDAT

; 346  : {

  00000	55		 push	 ebp
  00001	8b ec		 mov	 ebp, esp
  00003	83 ec 0c	 sub	 esp, 12			; 0000000cH

; 347  : 	BYTE bItemWindowType;
; 348  : 	if (!PyTuple_GetInteger(poArgs, 0, &bItemWindowType))

  00006	8d 45 ff	 lea	 eax, DWORD PTR _bItemWindowType$[ebp]
  00009	50		 push	 eax
  0000a	6a 00		 push	 0
  0000c	ff 75 0c	 push	 DWORD PTR _poArgs$[ebp]
  0000f	e8 00 00 00 00	 call	 ?PyTuple_GetInteger@@YA_NPAU_object@@HPAE@Z ; PyTuple_GetInteger
  00014	83 c4 0c	 add	 esp, 12			; 0000000cH
  00017	84 c0		 test	 al, al
  00019	75 0e		 jne	 SHORT $LN2@shopDelPri
$LN7@shopDelPri:

; 356  : }

  0001b	6a 00		 push	 0
  0001d	e8 00 00 00 00	 call	 ?Py_BuildException@@YAPAU_object@@PBDZZ ; Py_BuildException
  00022	83 c4 04	 add	 esp, 4
  00025	8b e5		 mov	 esp, ebp
  00027	5d		 pop	 ebp
  00028	c3		 ret	 0
$LN2@shopDelPri:

; 349  : 		return Py_BuildException();
; 350  : 	WORD wItemSlotIndex;
; 351  : 	if (!PyTuple_GetInteger(poArgs, 1, &wItemSlotIndex))

  00029	8d 45 f8	 lea	 eax, DWORD PTR _wItemSlotIndex$[ebp]
  0002c	50		 push	 eax
  0002d	6a 01		 push	 1
  0002f	ff 75 0c	 push	 DWORD PTR _poArgs$[ebp]
  00032	e8 00 00 00 00	 call	 ?PyTuple_GetInteger@@YA_NPAU_object@@HPAG@Z ; PyTuple_GetInteger
  00037	83 c4 0c	 add	 esp, 12			; 0000000cH
  0003a	84 c0		 test	 al, al
  0003c	74 dd		 je	 SHORT $LN7@shopDelPri
; File E:\Metin2_server\SolWayneSF v6\ClientVS22\source\UserInterface\GameType.h

; 206  :         window_type = _window_type;

  0003e	8a 45 ff	 mov	 al, BYTE PTR _bItemWindowType$[ebp]
  00041	88 45 f5	 mov	 BYTE PTR $T1[ebp], al

; 207  :         cell = _cell;

  00044	0f b7 45 f8	 movzx	 eax, WORD PTR _wItemSlotIndex$[ebp]
; File E:\Metin2_server\SolWayneSF v6\ClientVS22\source\UserInterface\PythonShop.cpp

; 354  : 	CPythonShop::Instance().DelPrivateShopItemStock(TItemPos(bItemWindowType, wItemSlotIndex));

  00048	51		 push	 ecx
  00049	8b cc		 mov	 ecx, esp
; File E:\Metin2_server\SolWayneSF v6\ClientVS22\source\UserInterface\GameType.h

; 207  :         cell = _cell;

  0004b	66 89 45 f6	 mov	 WORD PTR $T1[ebp+1], ax
; File E:\Metin2_server\SolWayneSF v6\ClientVS22\source\UserInterface\PythonShop.cpp

; 354  : 	CPythonShop::Instance().DelPrivateShopItemStock(TItemPos(bItemWindowType, wItemSlotIndex));

  0004f	0f b7 45 f5	 movzx	 eax, WORD PTR $T1[ebp]
  00053	66 89 01	 mov	 WORD PTR [ecx], ax
  00056	8a 45 f7	 mov	 al, BYTE PTR $T1[ebp+2]
  00059	88 41 02	 mov	 BYTE PTR [ecx+2], al
  0005c	8b 0d 00 00 00
	00		 mov	 ecx, DWORD PTR ?ms_singleton@?$CSingleton@VCPythonShop@@@@0PAVCPythonShop@@A ; CSingleton<CPythonShop>::ms_singleton
  00062	e8 00 00 00 00	 call	 ?DelPrivateShopItemStock@CPythonShop@@QAEXUSItemPos@@@Z ; CPythonShop::DelPrivateShopItemStock

; 355  : 	return Py_BuildNone();

  00067	e8 00 00 00 00	 call	 ?Py_BuildNone@@YAPAU_object@@XZ ; Py_BuildNone

; 356  : }

  0006c	8b e5		 mov	 esp, ebp
  0006e	5d		 pop	 ebp
  0006f	c3		 ret	 0
?shopDelPrivateShopItemStock@@YAPAU_object@@PAU1@0@Z ENDP ; shopDelPrivateShopItemStock
_TEXT	ENDS
; Function compile flags: /Ogtp
; File E:\Metin2_server\SolWayneSF v6\ClientVS22\source\UserInterface\PythonShop.cpp
; File E:\Metin2_server\SolWayneSF v6\ClientVS22\source\UserInterface\GameType.h
; File E:\Metin2_server\SolWayneSF v6\ClientVS22\source\UserInterface\PythonShop.cpp
; File E:\Metin2_server\SolWayneSF v6\ClientVS22\source\UserInterface\GameType.h
; File E:\Metin2_server\SolWayneSF v6\ClientVS22\source\UserInterface\PythonShop.cpp
;	COMDAT ?shopGetPrivateShopItemPrice@@YAPAU_object@@PAU1@0@Z
_TEXT	SEGMENT
$T1 = -11						; size = 3
_wItemSlotIndex$ = -8					; size = 2
_bItemWindowType$ = -1					; size = 1
_poSelf$ = 8						; size = 4
_poArgs$ = 12						; size = 4
?shopGetPrivateShopItemPrice@@YAPAU_object@@PAU1@0@Z PROC ; shopGetPrivateShopItemPrice, COMDAT

; 358  : {

  00000	55		 push	 ebp
  00001	8b ec		 mov	 ebp, esp
  00003	83 ec 0c	 sub	 esp, 12			; 0000000cH

; 359  : 	BYTE bItemWindowType;
; 360  : 	if (!PyTuple_GetInteger(poArgs, 0, &bItemWindowType))

  00006	8d 45 ff	 lea	 eax, DWORD PTR _bItemWindowType$[ebp]
  00009	50		 push	 eax
  0000a	6a 00		 push	 0
  0000c	ff 75 0c	 push	 DWORD PTR _poArgs$[ebp]
  0000f	e8 00 00 00 00	 call	 ?PyTuple_GetInteger@@YA_NPAU_object@@HPAE@Z ; PyTuple_GetInteger
  00014	83 c4 0c	 add	 esp, 12			; 0000000cH
  00017	84 c0		 test	 al, al
  00019	75 0e		 jne	 SHORT $LN2@shopGetPri
$LN7@shopGetPri:

; 368  : }

  0001b	6a 00		 push	 0
  0001d	e8 00 00 00 00	 call	 ?Py_BuildException@@YAPAU_object@@PBDZZ ; Py_BuildException
  00022	83 c4 04	 add	 esp, 4
  00025	8b e5		 mov	 esp, ebp
  00027	5d		 pop	 ebp
  00028	c3		 ret	 0
$LN2@shopGetPri:

; 361  : 		return Py_BuildException();
; 362  : 	WORD wItemSlotIndex;
; 363  : 	if (!PyTuple_GetInteger(poArgs, 1, &wItemSlotIndex))

  00029	8d 45 f8	 lea	 eax, DWORD PTR _wItemSlotIndex$[ebp]
  0002c	50		 push	 eax
  0002d	6a 01		 push	 1
  0002f	ff 75 0c	 push	 DWORD PTR _poArgs$[ebp]
  00032	e8 00 00 00 00	 call	 ?PyTuple_GetInteger@@YA_NPAU_object@@HPAG@Z ; PyTuple_GetInteger
  00037	83 c4 0c	 add	 esp, 12			; 0000000cH
  0003a	84 c0		 test	 al, al
  0003c	74 dd		 je	 SHORT $LN7@shopGetPri
; File E:\Metin2_server\SolWayneSF v6\ClientVS22\source\UserInterface\GameType.h

; 206  :         window_type = _window_type;

  0003e	8a 45 ff	 mov	 al, BYTE PTR _bItemWindowType$[ebp]
  00041	88 45 f5	 mov	 BYTE PTR $T1[ebp], al

; 207  :         cell = _cell;

  00044	0f b7 45 f8	 movzx	 eax, WORD PTR _wItemSlotIndex$[ebp]
; File E:\Metin2_server\SolWayneSF v6\ClientVS22\source\UserInterface\PythonShop.cpp

; 366  : 	long long iValue = CPythonShop::Instance().GetPrivateShopItemPrice(TItemPos(bItemWindowType, wItemSlotIndex));

  00048	51		 push	 ecx
  00049	8b cc		 mov	 ecx, esp
; File E:\Metin2_server\SolWayneSF v6\ClientVS22\source\UserInterface\GameType.h

; 207  :         cell = _cell;

  0004b	66 89 45 f6	 mov	 WORD PTR $T1[ebp+1], ax
; File E:\Metin2_server\SolWayneSF v6\ClientVS22\source\UserInterface\PythonShop.cpp

; 366  : 	long long iValue = CPythonShop::Instance().GetPrivateShopItemPrice(TItemPos(bItemWindowType, wItemSlotIndex));

  0004f	0f b7 45 f5	 movzx	 eax, WORD PTR $T1[ebp]
  00053	66 89 01	 mov	 WORD PTR [ecx], ax
  00056	8a 45 f7	 mov	 al, BYTE PTR $T1[ebp+2]
  00059	88 41 02	 mov	 BYTE PTR [ecx+2], al
  0005c	8b 0d 00 00 00
	00		 mov	 ecx, DWORD PTR ?ms_singleton@?$CSingleton@VCPythonShop@@@@0PAVCPythonShop@@A ; CSingleton<CPythonShop>::ms_singleton
  00062	e8 00 00 00 00	 call	 ?GetPrivateShopItemPrice@CPythonShop@@QAE_JUSItemPos@@@Z ; CPythonShop::GetPrivateShopItemPrice

; 367  : 	return Py_BuildValue("L", iValue);

  00067	52		 push	 edx
  00068	50		 push	 eax
  00069	68 00 00 00 00	 push	 OFFSET ??_C@_01OCOKONAJ@L@
  0006e	ff 15 00 00 00
	00		 call	 DWORD PTR __imp__Py_BuildValue
  00074	83 c4 0c	 add	 esp, 12			; 0000000cH

; 368  : }

  00077	8b e5		 mov	 esp, ebp
  00079	5d		 pop	 ebp
  0007a	c3		 ret	 0
?shopGetPrivateShopItemPrice@@YAPAU_object@@PAU1@0@Z ENDP ; shopGetPrivateShopItemPrice
_TEXT	ENDS
; Function compile flags: /Ogtp
; File E:\Metin2_server\SolWayneSF v6\ClientVS22\source\UserInterface\PythonShop.cpp
;	COMDAT ?shopBuildPrivateShop@@YAPAU_object@@PAU1@0@Z
_TEXT	SEGMENT
_szName$ = -4						; size = 4
_poSelf$ = 8						; size = 4
_poArgs$ = 12						; size = 4
?shopBuildPrivateShop@@YAPAU_object@@PAU1@0@Z PROC	; shopBuildPrivateShop, COMDAT

; 370  : {

  00000	55		 push	 ebp
  00001	8b ec		 mov	 ebp, esp
  00003	51		 push	 ecx

; 371  : 	char * szName;
; 372  : 	if (!PyTuple_GetString(poArgs, 0, &szName))

  00004	8d 45 fc	 lea	 eax, DWORD PTR _szName$[ebp]
  00007	50		 push	 eax
  00008	6a 00		 push	 0
  0000a	ff 75 0c	 push	 DWORD PTR _poArgs$[ebp]
  0000d	e8 00 00 00 00	 call	 ?PyTuple_GetString@@YA_NPAU_object@@HPAPAD@Z ; PyTuple_GetString
  00012	83 c4 0c	 add	 esp, 12			; 0000000cH
  00015	84 c0		 test	 al, al
  00017	75 0e		 jne	 SHORT $LN2@shopBuildP

; 373  : 		return Py_BuildException();

  00019	6a 00		 push	 0
  0001b	e8 00 00 00 00	 call	 ?Py_BuildException@@YAPAU_object@@PBDZZ ; Py_BuildException
  00020	83 c4 04	 add	 esp, 4

; 377  : }

  00023	8b e5		 mov	 esp, ebp
  00025	5d		 pop	 ebp
  00026	c3		 ret	 0
$LN2@shopBuildP:

; 374  : 
; 375  : 	CPythonShop::Instance().BuildPrivateShop(szName);

  00027	ff 75 fc	 push	 DWORD PTR _szName$[ebp]
  0002a	8b 0d 00 00 00
	00		 mov	 ecx, DWORD PTR ?ms_singleton@?$CSingleton@VCPythonShop@@@@0PAVCPythonShop@@A ; CSingleton<CPythonShop>::ms_singleton
  00030	e8 00 00 00 00	 call	 ?BuildPrivateShop@CPythonShop@@QAEXPBD@Z ; CPythonShop::BuildPrivateShop

; 376  : 	return Py_BuildNone();

  00035	e8 00 00 00 00	 call	 ?Py_BuildNone@@YAPAU_object@@XZ ; Py_BuildNone

; 377  : }

  0003a	8b e5		 mov	 esp, ebp
  0003c	5d		 pop	 ebp
  0003d	c3		 ret	 0
?shopBuildPrivateShop@@YAPAU_object@@PAU1@0@Z ENDP	; shopBuildPrivateShop
_TEXT	ENDS
; Function compile flags: /Ogtp
; File E:\Metin2_server\SolWayneSF v6\ClientVS22\source\UserInterface\PythonShop.cpp
;	COMDAT ?shopGetTabCount@@YAPAU_object@@PAU1@0@Z
_TEXT	SEGMENT
_poSelf$ = 8						; size = 4
_poArgs$ = 12						; size = 4
?shopGetTabCount@@YAPAU_object@@PAU1@0@Z PROC		; shopGetTabCount, COMDAT

; 381  : 	return Py_BuildValue("i", CPythonShop::instance().GetTabCount());

  00000	a1 00 00 00 00	 mov	 eax, DWORD PTR ?ms_singleton@?$CSingleton@VCPythonShop@@@@0PAVCPythonShop@@A ; CSingleton<CPythonShop>::ms_singleton
  00005	0f b6 40 10	 movzx	 eax, BYTE PTR [eax+16]
  00009	50		 push	 eax
  0000a	68 00 00 00 00	 push	 OFFSET ??_C@_01KBJDNOO@i@
  0000f	ff 15 00 00 00
	00		 call	 DWORD PTR __imp__Py_BuildValue
  00015	83 c4 08	 add	 esp, 8

; 382  : }

  00018	c3		 ret	 0
?shopGetTabCount@@YAPAU_object@@PAU1@0@Z ENDP		; shopGetTabCount
_TEXT	ENDS
; Function compile flags: /Ogtp
; File E:\Metin2_server\SolWayneSF v6\ClientVS22\source\UserInterface\PythonShop.cpp
;	COMDAT ?shopGetTabName@@YAPAU_object@@PAU1@0@Z
_TEXT	SEGMENT
_bTabIdx$ = -4						; size = 1
_poSelf$ = 8						; size = 4
_poArgs$ = 12						; size = 4
?shopGetTabName@@YAPAU_object@@PAU1@0@Z PROC		; shopGetTabName, COMDAT

; 385  : {

  00000	55		 push	 ebp
  00001	8b ec		 mov	 ebp, esp
  00003	51		 push	 ecx

; 386  : 	BYTE bTabIdx;
; 387  : 	if (!PyTuple_GetInteger(poArgs, 0, &bTabIdx))

  00004	8d 45 fc	 lea	 eax, DWORD PTR _bTabIdx$[ebp]
  00007	50		 push	 eax
  00008	6a 00		 push	 0
  0000a	ff 75 0c	 push	 DWORD PTR _poArgs$[ebp]
  0000d	e8 00 00 00 00	 call	 ?PyTuple_GetInteger@@YA_NPAU_object@@HPAE@Z ; PyTuple_GetInteger
  00012	83 c4 0c	 add	 esp, 12			; 0000000cH
  00015	84 c0		 test	 al, al
  00017	75 0e		 jne	 SHORT $LN2@shopGetTab

; 388  : 		return Py_BuildException();

  00019	6a 00		 push	 0
  0001b	e8 00 00 00 00	 call	 ?Py_BuildException@@YAPAU_object@@PBDZZ ; Py_BuildException
  00020	83 c4 04	 add	 esp, 4

; 391  : }

  00023	8b e5		 mov	 esp, ebp
  00025	5d		 pop	 ebp
  00026	c3		 ret	 0
$LN2@shopGetTab:

; 389  : 
; 390  : 	return Py_BuildValue("s", CPythonShop::instance().GetTabName(bTabIdx));

  00027	ff 75 fc	 push	 DWORD PTR _bTabIdx$[ebp]
  0002a	8b 0d 00 00 00
	00		 mov	 ecx, DWORD PTR ?ms_singleton@?$CSingleton@VCPythonShop@@@@0PAVCPythonShop@@A ; CSingleton<CPythonShop>::ms_singleton
  00030	e8 00 00 00 00	 call	 ?GetTabName@CPythonShop@@QAEPBDE@Z ; CPythonShop::GetTabName
  00035	50		 push	 eax
  00036	68 00 00 00 00	 push	 OFFSET ??_C@_01LKDEMHDF@s@
  0003b	ff 15 00 00 00
	00		 call	 DWORD PTR __imp__Py_BuildValue
  00041	83 c4 08	 add	 esp, 8

; 391  : }

  00044	8b e5		 mov	 esp, ebp
  00046	5d		 pop	 ebp
  00047	c3		 ret	 0
?shopGetTabName@@YAPAU_object@@PAU1@0@Z ENDP		; shopGetTabName
_TEXT	ENDS
; Function compile flags: /Ogtp
; File E:\Metin2_server\SolWayneSF v6\ClientVS22\source\UserInterface\PythonShop.cpp
;	COMDAT ?shopGetTabCoinType@@YAPAU_object@@PAU1@0@Z
_TEXT	SEGMENT
_bTabIdx$ = -4						; size = 1
_poSelf$ = 8						; size = 4
_poArgs$ = 12						; size = 4
?shopGetTabCoinType@@YAPAU_object@@PAU1@0@Z PROC	; shopGetTabCoinType, COMDAT

; 394  : {

  00000	55		 push	 ebp
  00001	8b ec		 mov	 ebp, esp
  00003	51		 push	 ecx

; 395  : 	BYTE bTabIdx;
; 396  : 	if (!PyTuple_GetInteger(poArgs, 0, &bTabIdx))

  00004	8d 45 fc	 lea	 eax, DWORD PTR _bTabIdx$[ebp]
  00007	50		 push	 eax
  00008	6a 00		 push	 0
  0000a	ff 75 0c	 push	 DWORD PTR _poArgs$[ebp]
  0000d	e8 00 00 00 00	 call	 ?PyTuple_GetInteger@@YA_NPAU_object@@HPAE@Z ; PyTuple_GetInteger
  00012	83 c4 0c	 add	 esp, 12			; 0000000cH
  00015	84 c0		 test	 al, al
  00017	75 0e		 jne	 SHORT $LN2@shopGetTab

; 397  : 		return Py_BuildException();

  00019	6a 00		 push	 0
  0001b	e8 00 00 00 00	 call	 ?Py_BuildException@@YAPAU_object@@PBDZZ ; Py_BuildException
  00020	83 c4 04	 add	 esp, 4

; 400  : }

  00023	8b e5		 mov	 esp, ebp
  00025	5d		 pop	 ebp
  00026	c3		 ret	 0
$LN2@shopGetTab:

; 398  : 
; 399  : 	return Py_BuildValue("i", CPythonShop::instance().GetTabCoinType(bTabIdx));

  00027	ff 75 fc	 push	 DWORD PTR _bTabIdx$[ebp]
  0002a	8b 0d 00 00 00
	00		 mov	 ecx, DWORD PTR ?ms_singleton@?$CSingleton@VCPythonShop@@@@0PAVCPythonShop@@A ; CSingleton<CPythonShop>::ms_singleton
  00030	e8 00 00 00 00	 call	 ?GetTabCoinType@CPythonShop@@QAEEE@Z ; CPythonShop::GetTabCoinType
  00035	0f b6 c0	 movzx	 eax, al
  00038	50		 push	 eax
  00039	68 00 00 00 00	 push	 OFFSET ??_C@_01KBJDNOO@i@
  0003e	ff 15 00 00 00
	00		 call	 DWORD PTR __imp__Py_BuildValue
  00044	83 c4 08	 add	 esp, 8

; 400  : }

  00047	8b e5		 mov	 esp, ebp
  00049	5d		 pop	 ebp
  0004a	c3		 ret	 0
?shopGetTabCoinType@@YAPAU_object@@PAU1@0@Z ENDP	; shopGetTabCoinType
_TEXT	ENDS
; Function compile flags: /Ogtp
; File E:\Metin2_server\SolWayneSF v6\ClientVS22\source\UserInterface\PythonShop.cpp
;	COMDAT ?initshop@@YAXXZ
_TEXT	SEGMENT
?initshop@@YAXXZ PROC					; initshop, COMDAT

; 403  : {

  00000	56		 push	 esi
  00001	57		 push	 edi

; 404  : 	static PyMethodDef s_methods[] =
; 405  : 	{
; 406  : 		// Shop
; 407  : 		{ "Open",						shopOpen,						METH_VARARGS },
; 408  : 		{ "Close",						shopClose,						METH_VARARGS },
; 409  : 		{ "IsOpen",						shopIsOpen,						METH_VARARGS },
; 410  : 		{ "IsPrivateShop",				shopIsPrviateShop,				METH_VARARGS },
; 411  : 		{ "IsMainPlayerPrivateShop",	shopIsMainPlayerPrivateShop,	METH_VARARGS },
; 412  : 		{ "GetItemID",					shopGetItemID,					METH_VARARGS },
; 413  : 		{ "GetItemCount",				shopGetItemCount,				METH_VARARGS },
; 414  : 		{ "GetItemPrice",				shopGetItemPrice,				METH_VARARGS },
; 415  : 		{ "GetItemMetinSocket",			shopGetItemMetinSocket,			METH_VARARGS },
; 416  : 		{ "GetItemAttribute",			shopGetItemAttribute,			METH_VARARGS },
; 417  : 		{ "GetTabCount",				shopGetTabCount,				METH_VARARGS },
; 418  : 		{ "GetTabName",					shopGetTabName,					METH_VARARGS },
; 419  : 		{ "GetTabCoinType",				shopGetTabCoinType,				METH_VARARGS },
; 420  : 
; 421  : 		// Private Shop
; 422  : 		{ "ClearPrivateShopStock",		shopClearPrivateShopStock,		METH_VARARGS },
; 423  : 		{ "AddPrivateShopItemStock",	shopAddPrivateShopItemStock,	METH_VARARGS },
; 424  : 		{ "DelPrivateShopItemStock",	shopDelPrivateShopItemStock,	METH_VARARGS },
; 425  : 		{ "GetPrivateShopItemPrice",	shopGetPrivateShopItemPrice,	METH_VARARGS },
; 426  : 		{ "BuildPrivateShop",			shopBuildPrivateShop,			METH_VARARGS },
; 427  : 		{ NULL,							NULL,							NULL },
; 428  : 	};
; 429  : 	PyObject * poModule = Py_InitModule("shop", s_methods);

  00002	68 f5 03 00 00	 push	 1013			; 000003f5H
  00007	6a 00		 push	 0
  00009	6a 00		 push	 0
  0000b	68 00 00 00 00	 push	 OFFSET ?s_methods@?1??initshop@@YAXXZ@4PAUPyMethodDef@@A
  00010	68 00 00 00 00	 push	 OFFSET ??_C@_04BFIJLIPK@shop@
  00015	ff 15 00 00 00
	00		 call	 DWORD PTR __imp__Py_InitModule4

; 430  : 
; 431  : 	PyModule_AddIntConstant(poModule, "SHOP_SLOT_COUNT", SHOP_HOST_ITEM_MAX_NUM);

  0001b	8b 35 00 00 00
	00		 mov	 esi, DWORD PTR __imp__PyModule_AddIntConstant
  00021	8b f8		 mov	 edi, eax
  00023	6a 50		 push	 80			; 00000050H
  00025	68 00 00 00 00	 push	 OFFSET ??_C@_0BA@MMIAEKCC@SHOP_SLOT_COUNT@
  0002a	57		 push	 edi
  0002b	ff d6		 call	 esi

; 432  : 	PyModule_AddIntConstant(poModule, "SHOP_COIN_TYPE_GOLD", SHOP_COIN_TYPE_GOLD);

  0002d	6a 00		 push	 0
  0002f	68 00 00 00 00	 push	 OFFSET ??_C@_0BE@FOBHCAAH@SHOP_COIN_TYPE_GOLD@
  00034	57		 push	 edi
  00035	ff d6		 call	 esi

; 433  : 	PyModule_AddIntConstant(poModule, "SHOP_COIN_TYPE_SECONDARY_COIN", SHOP_COIN_TYPE_SECONDARY_COIN);

  00037	6a 01		 push	 1
  00039	68 00 00 00 00	 push	 OFFSET ??_C@_0BO@GEPHLMDC@SHOP_COIN_TYPE_SECONDARY_COIN@
  0003e	57		 push	 edi
  0003f	ff d6		 call	 esi
  00041	83 c4 38	 add	 esp, 56			; 00000038H
  00044	5f		 pop	 edi
  00045	5e		 pop	 esi

; 434  : }

  00046	c3		 ret	 0
?initshop@@YAXXZ ENDP					; initshop
_TEXT	ENDS
; Function compile flags: /Ogtp
; File C:\Program Files\Microsoft Visual Studio\2022\Community\VC\Tools\MSVC\14.34.31933\include\vector
;	COMDAT ?end@?$vector@USShopItemTable@@V?$allocator@USShopItemTable@@@std@@@std@@QAE?AV?$_Vector_iterator@V?$_Vector_val@U?$_Simple_types@USShopItemTable@@@std@@@std@@@2@XZ
_TEXT	SEGMENT
___$ReturnUdt$ = 8					; size = 4
?end@?$vector@USShopItemTable@@V?$allocator@USShopItemTable@@@std@@@std@@QAE?AV?$_Vector_iterator@V?$_Vector_val@U?$_Simple_types@USShopItemTable@@@std@@@std@@@2@XZ PROC ; std::vector<SShopItemTable,std::allocator<SShopItemTable> >::end, COMDAT
; _this$ = ecx

; 1867 :     _NODISCARD _CONSTEXPR20 iterator end() noexcept {

  00000	55		 push	 ebp
  00001	8b ec		 mov	 ebp, esp

; 41   :     _CONSTEXPR20 _Vector_const_iterator(_Tptr _Parg, const _Container_base* _Pvector) noexcept : _Ptr(_Parg) {

  00003	8b 45 08	 mov	 eax, DWORD PTR ___$ReturnUdt$[ebp]
  00006	8b 49 04	 mov	 ecx, DWORD PTR [ecx+4]
  00009	89 08		 mov	 DWORD PTR [eax], ecx

; 1868 :         auto& _My_data = _Mypair._Myval2;
; 1869 :         return iterator(_My_data._Mylast, _STD addressof(_My_data));
; 1870 :     }

  0000b	5d		 pop	 ebp
  0000c	c2 04 00	 ret	 4
?end@?$vector@USShopItemTable@@V?$allocator@USShopItemTable@@@std@@@std@@QAE?AV?$_Vector_iterator@V?$_Vector_val@U?$_Simple_types@USShopItemTable@@@std@@@std@@@2@XZ ENDP ; std::vector<SShopItemTable,std::allocator<SShopItemTable> >::end
_TEXT	ENDS
; Function compile flags: /Ogtp
; File C:\Program Files\Microsoft Visual Studio\2022\Community\VC\Tools\MSVC\14.34.31933\include\vector
;	COMDAT ??0?$_Vector_iterator@V?$_Vector_val@U?$_Simple_types@USShopItemTable@@@std@@@std@@@std@@QAE@PAUSShopItemTable@@PBU_Container_base0@1@@Z
_TEXT	SEGMENT
___param0$ = 8						; size = 4
___param1$dead$ = 12					; size = 4
??0?$_Vector_iterator@V?$_Vector_val@U?$_Simple_types@USShopItemTable@@@std@@@std@@@std@@QAE@PAUSShopItemTable@@PBU_Container_base0@1@@Z PROC ; std::_Vector_iterator<std::_Vector_val<std::_Simple_types<SShopItemTable> > >::_Vector_iterator<std::_Vector_val<std::_Simple_types<SShopItemTable> > >, COMDAT
; _this$ = ecx
  00000	55		 push	 ebp
  00001	8b ec		 mov	 ebp, esp

; 41   :     _CONSTEXPR20 _Vector_const_iterator(_Tptr _Parg, const _Container_base* _Pvector) noexcept : _Ptr(_Parg) {

  00003	8b 45 08	 mov	 eax, DWORD PTR ___param0$[ebp]
  00006	89 01		 mov	 DWORD PTR [ecx], eax
  00008	8b c1		 mov	 eax, ecx
  0000a	5d		 pop	 ebp
  0000b	c2 08 00	 ret	 8
??0?$_Vector_iterator@V?$_Vector_val@U?$_Simple_types@USShopItemTable@@@std@@@std@@@std@@QAE@PAUSShopItemTable@@PBU_Container_base0@1@@Z ENDP ; std::_Vector_iterator<std::_Vector_val<std::_Simple_types<SShopItemTable> > >::_Vector_iterator<std::_Vector_val<std::_Simple_types<SShopItemTable> > >
_TEXT	ENDS
; Function compile flags: /Ogtp
; File C:\Program Files\Microsoft Visual Studio\2022\Community\VC\Tools\MSVC\14.34.31933\include\vector
;	COMDAT ?begin@?$vector@USShopItemTable@@V?$allocator@USShopItemTable@@@std@@@std@@QAE?AV?$_Vector_iterator@V?$_Vector_val@U?$_Simple_types@USShopItemTable@@@std@@@std@@@2@XZ
_TEXT	SEGMENT
___$ReturnUdt$ = 8					; size = 4
?begin@?$vector@USShopItemTable@@V?$allocator@USShopItemTable@@@std@@@std@@QAE?AV?$_Vector_iterator@V?$_Vector_val@U?$_Simple_types@USShopItemTable@@@std@@@std@@@2@XZ PROC ; std::vector<SShopItemTable,std::allocator<SShopItemTable> >::begin, COMDAT
; _this$ = ecx

; 1857 :     _NODISCARD _CONSTEXPR20 iterator begin() noexcept {

  00000	55		 push	 ebp
  00001	8b ec		 mov	 ebp, esp

; 41   :     _CONSTEXPR20 _Vector_const_iterator(_Tptr _Parg, const _Container_base* _Pvector) noexcept : _Ptr(_Parg) {

  00003	8b 45 08	 mov	 eax, DWORD PTR ___$ReturnUdt$[ebp]
  00006	8b 09		 mov	 ecx, DWORD PTR [ecx]
  00008	89 08		 mov	 DWORD PTR [eax], ecx

; 1858 :         auto& _My_data = _Mypair._Myval2;
; 1859 :         return iterator(_My_data._Myfirst, _STD addressof(_My_data));
; 1860 :     }

  0000a	5d		 pop	 ebp
  0000b	c2 04 00	 ret	 4
?begin@?$vector@USShopItemTable@@V?$allocator@USShopItemTable@@@std@@@std@@QAE?AV?$_Vector_iterator@V?$_Vector_val@U?$_Simple_types@USShopItemTable@@@std@@@std@@@2@XZ ENDP ; std::vector<SShopItemTable,std::allocator<SShopItemTable> >::begin
_TEXT	ENDS
; Function compile flags: /Ogtp
; File C:\Program Files\Microsoft Visual Studio\2022\Community\VC\Tools\MSVC\14.34.31933\include\vector
;	COMDAT ?reserve@?$vector@USShopItemTable@@V?$allocator@USShopItemTable@@@std@@@std@@QAEXI@Z
_TEXT	SEGMENT
__Newcapacity$ = 8					; size = 4
?reserve@?$vector@USShopItemTable@@V?$allocator@USShopItemTable@@@std@@@std@@QAEXI@Z PROC ; std::vector<SShopItemTable,std::allocator<SShopItemTable> >::reserve, COMDAT
; _this$ = ecx

; 1741 :     _CONSTEXPR20 void reserve(_CRT_GUARDOVERFLOW const size_type _Newcapacity) {

  00000	55		 push	 ebp
  00001	8b ec		 mov	 ebp, esp

; 1942 :         return static_cast<size_type>(_My_data._Myend - _My_data._Myfirst);

  00003	8b 41 08	 mov	 eax, DWORD PTR [ecx+8]
  00006	2b 01		 sub	 eax, DWORD PTR [ecx]

; 1742 :         // increase capacity to _Newcapacity (without geometric growth), provide strong guarantee
; 1743 :         if (_Newcapacity > capacity()) { // something to do (reserve() never shrinks)

  00008	8b 55 08	 mov	 edx, DWORD PTR __Newcapacity$[ebp]

; 1942 :         return static_cast<size_type>(_My_data._Myend - _My_data._Myfirst);

  0000b	69 c0 f1 f0 f0
	f0		 imul	 eax, eax, -252645135

; 1742 :         // increase capacity to _Newcapacity (without geometric growth), provide strong guarantee
; 1743 :         if (_Newcapacity > capacity()) { // something to do (reserve() never shrinks)

  00011	3b d0		 cmp	 edx, eax
  00013	76 11		 jbe	 SHORT $LN2@reserve

; 1744 :             if (_Newcapacity > max_size()) {

  00015	81 fa 0f 0f 0f
	0f		 cmp	 edx, 252645135		; 0f0f0f0fH
  0001b	77 0d		 ja	 SHORT $LN10@reserve

; 1746 :             }
; 1747 : 
; 1748 :             _Reallocate_exactly(_Newcapacity);

  0001d	89 55 08	 mov	 DWORD PTR __Newcapacity$[ebp], edx

; 1749 :         }
; 1750 :     }

  00020	5d		 pop	 ebp

; 1746 :             }
; 1747 : 
; 1748 :             _Reallocate_exactly(_Newcapacity);

  00021	e9 00 00 00 00	 jmp	 ?_Reallocate_exactly@?$vector@USShopItemTable@@V?$allocator@USShopItemTable@@@std@@@std@@AAEXI@Z ; std::vector<SShopItemTable,std::allocator<SShopItemTable> >::_Reallocate_exactly
$LN2@reserve:

; 1749 :         }
; 1750 :     }

  00026	5d		 pop	 ebp
  00027	c2 04 00	 ret	 4
$LN10@reserve:

; 1745 :                 _Xlength();

  0002a	e8 00 00 00 00	 call	 ?_Xlength@?$vector@USShopItemTable@@V?$allocator@USShopItemTable@@@std@@@std@@CAXXZ ; std::vector<SShopItemTable,std::allocator<SShopItemTable> >::_Xlength
$LN8@reserve:
  0002f	cc		 int	 3
?reserve@?$vector@USShopItemTable@@V?$allocator@USShopItemTable@@@std@@@std@@QAEXI@Z ENDP ; std::vector<SShopItemTable,std::allocator<SShopItemTable> >::reserve
_TEXT	ENDS
; Function compile flags: /Ogtp
; File C:\Program Files\Microsoft Visual Studio\2022\Community\VC\Tools\MSVC\14.34.31933\include\vector
; File C:\Program Files\Microsoft Visual Studio\2022\Community\VC\Tools\MSVC\14.34.31933\include\xutility
; File C:\Program Files\Microsoft Visual Studio\2022\Community\VC\Tools\MSVC\14.34.31933\include\vector
;	COMDAT ?push_back@?$vector@USShopItemTable@@V?$allocator@USShopItemTable@@@std@@@std@@QAEXABUSShopItemTable@@@Z
_TEXT	SEGMENT
__Val$ = 8						; size = 4
?push_back@?$vector@USShopItemTable@@V?$allocator@USShopItemTable@@@std@@@std@@QAEXABUSShopItemTable@@@Z PROC ; std::vector<SShopItemTable,std::allocator<SShopItemTable> >::push_back, COMDAT
; _this$ = ecx

; 935  :     _CONSTEXPR20 void push_back(const _Ty& _Val) { // insert element at end, provide strong guarantee

  00000	55		 push	 ebp
  00001	8b ec		 mov	 ebp, esp

; 844  :         if (_Mylast != _My_data._Myend) {

  00003	8b 51 04	 mov	 edx, DWORD PTR [ecx+4]
  00006	3b 51 08	 cmp	 edx, DWORD PTR [ecx+8]
  00009	74 17		 je	 SHORT $LN4@push_back
; File C:\Program Files\Microsoft Visual Studio\2022\Community\VC\Tools\MSVC\14.34.31933\include\xutility

; 231  :         ::new (_Voidify_iter(_STD addressof(_Obj))) _Ty(_STD forward<_Types>(_Args)...);

  0000b	8b 45 08	 mov	 eax, DWORD PTR __Val$[ebp]
  0000e	0f 10 00	 movups	 xmm0, XMMWORD PTR [eax]
  00011	0f 11 02	 movups	 XMMWORD PTR [edx], xmm0
  00014	8a 40 10	 mov	 al, BYTE PTR [eax+16]
  00017	88 42 10	 mov	 BYTE PTR [edx+16], al
; File C:\Program Files\Microsoft Visual Studio\2022\Community\VC\Tools\MSVC\14.34.31933\include\vector

; 869  :         ++_Mylast;

  0001a	83 41 04 11	 add	 DWORD PTR [ecx+4], 17	; 00000011H

; 936  :         _Emplace_one_at_back(_Val);
; 937  :     }

  0001e	5d		 pop	 ebp
  0001f	c2 04 00	 ret	 4
$LN4@push_back:

; 848  :         return *_Emplace_reallocate(_Mylast, _STD forward<_Valty>(_Val)...);

  00022	ff 75 08	 push	 DWORD PTR __Val$[ebp]
  00025	52		 push	 edx
  00026	e8 00 00 00 00	 call	 ??$_Emplace_reallocate@ABUSShopItemTable@@@?$vector@USShopItemTable@@V?$allocator@USShopItemTable@@@std@@@std@@AAEPAUSShopItemTable@@QAU2@ABU2@@Z ; std::vector<SShopItemTable,std::allocator<SShopItemTable> >::_Emplace_reallocate<SShopItemTable const &>

; 936  :         _Emplace_one_at_back(_Val);
; 937  :     }

  0002b	5d		 pop	 ebp
  0002c	c2 04 00	 ret	 4
?push_back@?$vector@USShopItemTable@@V?$allocator@USShopItemTable@@@std@@@std@@QAEXABUSShopItemTable@@@Z ENDP ; std::vector<SShopItemTable,std::allocator<SShopItemTable> >::push_back
_TEXT	ENDS
; Function compile flags: /Ogtp
; File C:\Program Files\Microsoft Visual Studio\2022\Community\VC\Tools\MSVC\14.34.31933\include\vector
; File C:\Program Files\Microsoft Visual Studio\2022\Community\VC\Tools\MSVC\14.34.31933\include\xmemory
; File C:\Program Files\Microsoft Visual Studio\2022\Community\VC\Tools\MSVC\14.34.31933\include\vector
; File C:\Program Files\Microsoft Visual Studio\2022\Community\VC\Tools\MSVC\14.34.31933\include\xmemory
; File C:\Program Files\Microsoft Visual Studio\2022\Community\VC\Tools\MSVC\14.34.31933\include\vector
; File C:\Program Files\Microsoft Visual Studio\2022\Community\VC\Tools\MSVC\14.34.31933\include\xmemory
; File C:\Program Files\Microsoft Visual Studio\2022\Community\VC\Tools\MSVC\14.34.31933\include\vector
;	COMDAT ??1?$vector@USShopItemTable@@V?$allocator@USShopItemTable@@@std@@@std@@QAE@XZ
_TEXT	SEGMENT
??1?$vector@USShopItemTable@@V?$allocator@USShopItemTable@@@std@@@std@@QAE@XZ PROC ; std::vector<SShopItemTable,std::allocator<SShopItemTable> >::~vector<SShopItemTable,std::allocator<SShopItemTable> >, COMDAT
; _this$ = ecx

; 829  :     _CONSTEXPR20 ~vector() noexcept {

  00000	56		 push	 esi
  00001	8b f1		 mov	 esi, ecx

; 2107 :         if (_Myfirst) { // destroy and deallocate old array

  00003	8b 16		 mov	 edx, DWORD PTR [esi]
  00005	85 d2		 test	 edx, edx
  00007	74 4c		 je	 SHORT $LN4@vector

; 2108 :             _Destroy_range(_Myfirst, _Mylast, _Al);
; 2109 :             _ASAN_VECTOR_REMOVE;
; 2110 :             _Al.deallocate(_Myfirst, static_cast<size_type>(_Myend - _Myfirst));

  00009	8b 46 08	 mov	 eax, DWORD PTR [esi+8]
  0000c	2b c2		 sub	 eax, edx
  0000e	69 c0 f1 f0 f0
	f0		 imul	 eax, eax, -252645135
; File C:\Program Files\Microsoft Visual Studio\2022\Community\VC\Tools\MSVC\14.34.31933\include\xmemory

; 830  :         _Deallocate<_New_alignof<_Ty>>(_Ptr, sizeof(_Ty) * _Count);

  00014	8b c8		 mov	 ecx, eax
  00016	c1 e1 04	 shl	 ecx, 4
  00019	03 c8		 add	 ecx, eax

; 251  :         if (_Bytes >= _Big_allocation_threshold) { // boost the alignment of big allocations to help autovectorization

  0001b	81 f9 00 10 00
	00		 cmp	 ecx, 4096		; 00001000H
  00021	72 14		 jb	 SHORT $LN22@vector

; 147  :     _Bytes += _Non_user_size;

  00023	57		 push	 edi

; 148  : 
; 149  :     const uintptr_t* const _Ptr_user = static_cast<uintptr_t*>(_Ptr);
; 150  :     const uintptr_t _Ptr_container   = _Ptr_user[-1];

  00024	8b 7a fc	 mov	 edi, DWORD PTR [edx-4]
  00027	83 c1 23	 add	 ecx, 35			; 00000023H

; 151  : 
; 152  :     // If the following asserts, it likely means that we are performing
; 153  :     // an aligned delete on memory coming from an unaligned allocation.
; 154  :     _STL_ASSERT(_Ptr_user[-2] == _Big_allocation_sentinel, "invalid argument");
; 155  : 
; 156  :     // Extra paranoia on aligned allocation/deallocation; ensure _Ptr_container is
; 157  :     // in range [_Min_back_shift, _Non_user_size]
; 158  : #ifdef _DEBUG
; 159  :     constexpr uintptr_t _Min_back_shift = 2 * sizeof(void*);
; 160  : #else // ^^^ _DEBUG ^^^ // vvv !_DEBUG vvv
; 161  :     constexpr uintptr_t _Min_back_shift = sizeof(void*);
; 162  : #endif // _DEBUG
; 163  :     const uintptr_t _Back_shift = reinterpret_cast<uintptr_t>(_Ptr) - _Ptr_container;

  0002a	2b d7		 sub	 edx, edi

; 164  :     _STL_VERIFY(_Back_shift >= _Min_back_shift && _Back_shift <= _Non_user_size, "invalid argument");

  0002c	8d 42 fc	 lea	 eax, DWORD PTR [edx-4]
  0002f	83 f8 1f	 cmp	 eax, 31			; 0000001fH
  00032	77 23		 ja	 SHORT $LN19@vector

; 165  :     _Ptr = reinterpret_cast<void*>(_Ptr_container);

  00034	8b d7		 mov	 edx, edi
  00036	5f		 pop	 edi
$LN22@vector:

; 255  :         ::operator delete(_Ptr, _Bytes);

  00037	51		 push	 ecx
  00038	52		 push	 edx
  00039	e8 00 00 00 00	 call	 ??3@YAXPAXI@Z		; operator delete
; File C:\Program Files\Microsoft Visual Studio\2022\Community\VC\Tools\MSVC\14.34.31933\include\vector

; 2112 :             _Myfirst = nullptr;

  0003e	c7 06 00 00 00
	00		 mov	 DWORD PTR [esi], 0
; File C:\Program Files\Microsoft Visual Studio\2022\Community\VC\Tools\MSVC\14.34.31933\include\xmemory

; 255  :         ::operator delete(_Ptr, _Bytes);

  00044	83 c4 08	 add	 esp, 8
; File C:\Program Files\Microsoft Visual Studio\2022\Community\VC\Tools\MSVC\14.34.31933\include\vector

; 2113 :             _Mylast  = nullptr;

  00047	c7 46 04 00 00
	00 00		 mov	 DWORD PTR [esi+4], 0

; 2114 :             _Myend   = nullptr;

  0004e	c7 46 08 00 00
	00 00		 mov	 DWORD PTR [esi+8], 0
$LN4@vector:
  00055	5e		 pop	 esi

; 835  :     }

  00056	c3		 ret	 0
$LN19@vector:
; File C:\Program Files\Microsoft Visual Studio\2022\Community\VC\Tools\MSVC\14.34.31933\include\xmemory

; 164  :     _STL_VERIFY(_Back_shift >= _Min_back_shift && _Back_shift <= _Non_user_size, "invalid argument");

  00057	e8 00 00 00 00	 call	 __invalid_parameter_noinfo_noreturn
$LN27@vector:
  0005c	cc		 int	 3
??1?$vector@USShopItemTable@@V?$allocator@USShopItemTable@@@std@@@std@@QAE@XZ ENDP ; std::vector<SShopItemTable,std::allocator<SShopItemTable> >::~vector<SShopItemTable,std::allocator<SShopItemTable> >
_TEXT	ENDS
; Function compile flags: /Ogtp
; File C:\Program Files\Microsoft Visual Studio\2022\Community\VC\Tools\MSVC\14.34.31933\include\vector
;	COMDAT ??0?$vector@USShopItemTable@@V?$allocator@USShopItemTable@@@std@@@std@@QAE@XZ
_TEXT	SEGMENT
??0?$vector@USShopItemTable@@V?$allocator@USShopItemTable@@@std@@@std@@QAE@XZ PROC ; std::vector<SShopItemTable,std::allocator<SShopItemTable> >::vector<SShopItemTable,std::allocator<SShopItemTable> >, COMDAT
; _this$ = ecx

; 390  :     _CONSTEXPR20 _Vector_val() noexcept : _Myfirst(), _Mylast(), _Myend() {}

  00000	c7 01 00 00 00
	00		 mov	 DWORD PTR [ecx], 0

; 674  :         _Mypair._Myval2._Alloc_proxy(_GET_PROXY_ALLOCATOR(_Alty, _Getal()));
; 675  :     }

  00006	8b c1		 mov	 eax, ecx

; 390  :     _CONSTEXPR20 _Vector_val() noexcept : _Myfirst(), _Mylast(), _Myend() {}

  00008	c7 41 04 00 00
	00 00		 mov	 DWORD PTR [ecx+4], 0
  0000f	c7 41 08 00 00
	00 00		 mov	 DWORD PTR [ecx+8], 0

; 674  :         _Mypair._Myval2._Alloc_proxy(_GET_PROXY_ALLOCATOR(_Alty, _Getal()));
; 675  :     }

  00016	c3		 ret	 0
??0?$vector@USShopItemTable@@V?$allocator@USShopItemTable@@@std@@@std@@QAE@XZ ENDP ; std::vector<SShopItemTable,std::allocator<SShopItemTable> >::vector<SShopItemTable,std::allocator<SShopItemTable> >
_TEXT	ENDS
; Function compile flags: /Ogtp
; File C:\Program Files\Microsoft Visual Studio\2022\Community\VC\Tools\MSVC\14.34.31933\include\xtree
;	COMDAT ??E?$_Tree_iterator@V?$_Tree_val@U?$_Tree_simple_types@U?$pair@$$CBUSItemPos@@USShopItemTable@@@std@@@std@@@std@@@std@@QAEAAV01@XZ
_TEXT	SEGMENT
??E?$_Tree_iterator@V?$_Tree_val@U?$_Tree_simple_types@U?$pair@$$CBUSItemPos@@USShopItemTable@@@std@@@std@@@std@@@std@@QAEAAV01@XZ PROC ; std::_Tree_iterator<std::_Tree_val<std::_Tree_simple_types<std::pair<SItemPos const ,SShopItemTable> > > >::operator++, COMDAT
; _this$ = ecx

; 282  :     _Tree_iterator& operator++() noexcept {

  00000	56		 push	 esi
  00001	8b f1		 mov	 esi, ecx

; 199  :         _Mybase::operator++();

  00003	e8 00 00 00 00	 call	 ??E?$_Tree_unchecked_const_iterator@V?$_Tree_val@U?$_Tree_simple_types@U?$pair@$$CBUSItemPos@@USShopItemTable@@@std@@@std@@@std@@U_Iterator_base0@2@@std@@QAEAAV01@XZ ; std::_Tree_unchecked_const_iterator<std::_Tree_val<std::_Tree_simple_types<std::pair<SItemPos const ,SShopItemTable> > >,std::_Iterator_base0>::operator++

; 283  :         _Mybase::operator++();
; 284  :         return *this;

  00008	8b c6		 mov	 eax, esi
  0000a	5e		 pop	 esi

; 285  :     }

  0000b	c3		 ret	 0
??E?$_Tree_iterator@V?$_Tree_val@U?$_Tree_simple_types@U?$pair@$$CBUSItemPos@@USShopItemTable@@@std@@@std@@@std@@@std@@QAEAAV01@XZ ENDP ; std::_Tree_iterator<std::_Tree_val<std::_Tree_simple_types<std::pair<SItemPos const ,SShopItemTable> > > >::operator++
_TEXT	ENDS
; Function compile flags: /Ogtp
; File C:\Program Files\Microsoft Visual Studio\2022\Community\VC\Tools\MSVC\14.34.31933\include\xtree
;	COMDAT ??C?$_Tree_iterator@V?$_Tree_val@U?$_Tree_simple_types@U?$pair@$$CBUSItemPos@@USShopItemTable@@@std@@@std@@@std@@@std@@QBEPAU?$pair@$$CBUSItemPos@@USShopItemTable@@@1@XZ
_TEXT	SEGMENT
??C?$_Tree_iterator@V?$_Tree_val@U?$_Tree_simple_types@U?$pair@$$CBUSItemPos@@USShopItemTable@@@std@@@std@@@std@@@std@@QBEPAU?$pair@$$CBUSItemPos@@USShopItemTable@@@1@XZ PROC ; std::_Tree_iterator<std::_Tree_val<std::_Tree_simple_types<std::pair<SItemPos const ,SShopItemTable> > > >::operator->, COMDAT
; _this$ = ecx

; 186  :         return this->_Ptr->_Myval;

  00000	8b 01		 mov	 eax, DWORD PTR [ecx]
  00002	83 c0 0e	 add	 eax, 14			; 0000000eH

; 279  :         return pointer_traits<pointer>::pointer_to(**this);
; 280  :     }

  00005	c3		 ret	 0
??C?$_Tree_iterator@V?$_Tree_val@U?$_Tree_simple_types@U?$pair@$$CBUSItemPos@@USShopItemTable@@@std@@@std@@@std@@@std@@QBEPAU?$pair@$$CBUSItemPos@@USShopItemTable@@@1@XZ ENDP ; std::_Tree_iterator<std::_Tree_val<std::_Tree_simple_types<std::pair<SItemPos const ,SShopItemTable> > > >::operator->
_TEXT	ENDS
; Function compile flags: /Ogtp
; File C:\Program Files\Microsoft Visual Studio\2022\Community\VC\Tools\MSVC\14.34.31933\include\xtree
;	COMDAT ??8?$_Tree_const_iterator@V?$_Tree_val@U?$_Tree_simple_types@U?$pair@$$CBUSItemPos@@USShopItemTable@@@std@@@std@@@std@@@std@@QBE_NABV01@@Z
_TEXT	SEGMENT
__Right$ = 8						; size = 4
??8?$_Tree_const_iterator@V?$_Tree_val@U?$_Tree_simple_types@U?$pair@$$CBUSItemPos@@USShopItemTable@@@std@@@std@@@std@@@std@@QBE_NABV01@@Z PROC ; std::_Tree_const_iterator<std::_Tree_val<std::_Tree_simple_types<std::pair<SItemPos const ,SShopItemTable> > > >::operator==, COMDAT
; _this$ = ecx

; 228  :     _NODISCARD bool operator==(const _Tree_const_iterator& _Right) const noexcept {

  00000	55		 push	 ebp
  00001	8b ec		 mov	 ebp, esp

; 229  : #if _ITERATOR_DEBUG_LEVEL == 2
; 230  :         _STL_VERIFY(this->_Getcont() == _Right._Getcont(), "map/set iterators incompatible");
; 231  : #endif // _ITERATOR_DEBUG_LEVEL == 2
; 232  : 
; 233  :         return this->_Ptr == _Right._Ptr;

  00003	8b 45 08	 mov	 eax, DWORD PTR __Right$[ebp]
  00006	8b 09		 mov	 ecx, DWORD PTR [ecx]
  00008	3b 08		 cmp	 ecx, DWORD PTR [eax]
  0000a	0f 94 c0	 sete	 al

; 234  :     }

  0000d	5d		 pop	 ebp
  0000e	c2 04 00	 ret	 4
??8?$_Tree_const_iterator@V?$_Tree_val@U?$_Tree_simple_types@U?$pair@$$CBUSItemPos@@USShopItemTable@@@std@@@std@@@std@@@std@@QBE_NABV01@@Z ENDP ; std::_Tree_const_iterator<std::_Tree_val<std::_Tree_simple_types<std::pair<SItemPos const ,SShopItemTable> > > >::operator==
_TEXT	ENDS
; Function compile flags: /Ogtp
; File C:\Program Files\Microsoft Visual Studio\2022\Community\VC\Tools\MSVC\14.34.31933\include\map
; File C:\Program Files\Microsoft Visual Studio\2022\Community\VC\Tools\MSVC\14.34.31933\include\xmemory
; File C:\Program Files\Microsoft Visual Studio\2022\Community\VC\Tools\MSVC\14.34.31933\include\map
; File C:\Program Files\Microsoft Visual Studio\2022\Community\VC\Tools\MSVC\14.34.31933\include\xtree
; File C:\Program Files\Microsoft Visual Studio\2022\Community\VC\Tools\MSVC\14.34.31933\include\xmemory
; File C:\Program Files\Microsoft Visual Studio\2022\Community\VC\Tools\MSVC\14.34.31933\include\xtree
; File C:\Program Files\Microsoft Visual Studio\2022\Community\VC\Tools\MSVC\14.34.31933\include\map
;	COMDAT ??0?$map@USItemPos@@USShopItemTable@@U?$less@USItemPos@@@std@@V?$allocator@U?$pair@$$CBUSItemPos@@USShopItemTable@@@std@@@4@@std@@QAE@XZ
_TEXT	SEGMENT
_this$ = -4						; size = 4
??0?$map@USItemPos@@USShopItemTable@@U?$less@USItemPos@@@std@@V?$allocator@U?$pair@$$CBUSItemPos@@USShopItemTable@@@std@@@4@@std@@QAE@XZ PROC ; std::map<SItemPos,SShopItemTable,std::less<SItemPos>,std::allocator<std::pair<SItemPos const ,SShopItemTable> > >::map<SItemPos,SShopItemTable,std::less<SItemPos>,std::allocator<std::pair<SItemPos const ,SShopItemTable> > >, COMDAT
; _this$ = ecx

; 105  :     map() : _Mybase(key_compare()) {}

  00000	55		 push	 ebp
  00001	8b ec		 mov	 ebp, esp
  00003	51		 push	 ecx
  00004	56		 push	 esi
  00005	8b f1		 mov	 esi, ecx
; File C:\Program Files\Microsoft Visual Studio\2022\Community\VC\Tools\MSVC\14.34.31933\include\xmemory

; 77   :         return ::operator new(_Bytes);

  00007	6a 24		 push	 36			; 00000024H
; File C:\Program Files\Microsoft Visual Studio\2022\Community\VC\Tools\MSVC\14.34.31933\include\map

; 105  :     map() : _Mybase(key_compare()) {}

  00009	89 75 fc	 mov	 DWORD PTR _this$[ebp], esi
; File C:\Program Files\Microsoft Visual Studio\2022\Community\VC\Tools\MSVC\14.34.31933\include\xtree

; 437  :     _Tree_val() noexcept : _Myhead(), _Mysize(0) {}

  0000c	c7 06 00 00 00
	00		 mov	 DWORD PTR [esi], 0
  00012	c7 46 04 00 00
	00 00		 mov	 DWORD PTR [esi+4], 0
; File C:\Program Files\Microsoft Visual Studio\2022\Community\VC\Tools\MSVC\14.34.31933\include\xmemory

; 77   :         return ::operator new(_Bytes);

  00019	e8 00 00 00 00	 call	 ??2@YAPAXI@Z		; operator new
  0001e	83 c4 04	 add	 esp, 4
; File C:\Program Files\Microsoft Visual Studio\2022\Community\VC\Tools\MSVC\14.34.31933\include\xtree

; 347  :         _Construct_in_place(_Pnode->_Left, _Pnode);

  00021	89 00		 mov	 DWORD PTR [eax], eax

; 348  :         _Construct_in_place(_Pnode->_Parent, _Pnode);

  00023	89 40 04	 mov	 DWORD PTR [eax+4], eax

; 349  :         _Construct_in_place(_Pnode->_Right, _Pnode);

  00026	89 40 08	 mov	 DWORD PTR [eax+8], eax

; 350  :         _Pnode->_Color = _Black;

  00029	66 c7 40 0c 01
	01		 mov	 WORD PTR [eax+12], 257	; 00000101H

; 1941 :         _Scary->_Myhead = _Node::_Buyheadnode(_Getal());

  0002f	89 06		 mov	 DWORD PTR [esi], eax
; File C:\Program Files\Microsoft Visual Studio\2022\Community\VC\Tools\MSVC\14.34.31933\include\map

; 105  :     map() : _Mybase(key_compare()) {}

  00031	8b c6		 mov	 eax, esi
  00033	5e		 pop	 esi
  00034	8b e5		 mov	 esp, ebp
  00036	5d		 pop	 ebp
  00037	c3		 ret	 0
??0?$map@USItemPos@@USShopItemTable@@U?$less@USItemPos@@@std@@V?$allocator@U?$pair@$$CBUSItemPos@@USShopItemTable@@@std@@@4@@std@@QAE@XZ ENDP ; std::map<SItemPos,SShopItemTable,std::less<SItemPos>,std::allocator<std::pair<SItemPos const ,SShopItemTable> > >::map<SItemPos,SShopItemTable,std::less<SItemPos>,std::allocator<std::pair<SItemPos const ,SShopItemTable> > >
_TEXT	ENDS
; Function compile flags: /Ogtp
; File C:\Program Files\Microsoft Visual Studio\2022\Community\VC\Tools\MSVC\14.34.31933\include\xtree
; File E:\Metin2_server\SolWayneSF v6\ClientVS22\source\UserInterface\GameType.h
; File C:\Program Files\Microsoft Visual Studio\2022\Community\VC\Tools\MSVC\14.34.31933\include\xtree
;	COMDAT ?find@?$_Tree@V?$_Tmap_traits@USItemPos@@USShopItemTable@@U?$less@USItemPos@@@std@@V?$allocator@U?$pair@$$CBUSItemPos@@USShopItemTable@@@std@@@4@$0A@@std@@@std@@QAE?AV?$_Tree_iterator@V?$_Tree_val@U?$_Tree_simple_types@U?$pair@$$CBUSItemPos@@USShopItemTable@@@std@@@std@@@std@@@2@ABUSItemPos@@@Z
_TEXT	SEGMENT
__Loc$1 = -12						; size = 12
___$ReturnUdt$ = 8					; size = 4
__Keyval$ = 12						; size = 4
?find@?$_Tree@V?$_Tmap_traits@USItemPos@@USShopItemTable@@U?$less@USItemPos@@@std@@V?$allocator@U?$pair@$$CBUSItemPos@@USShopItemTable@@@std@@@4@$0A@@std@@@std@@QAE?AV?$_Tree_iterator@V?$_Tree_val@U?$_Tree_simple_types@U?$pair@$$CBUSItemPos@@USShopItemTable@@@std@@@std@@@std@@@2@ABUSItemPos@@@Z PROC ; std::_Tree<std::_Tmap_traits<SItemPos,SShopItemTable,std::less<SItemPos>,std::allocator<std::pair<SItemPos const ,SShopItemTable> >,0> >::find, COMDAT
; _this$ = ecx

; 1376 :     _NODISCARD iterator find(const key_type& _Keyval) {

  00000	55		 push	 ebp
  00001	8b ec		 mov	 ebp, esp
  00003	83 ec 0c	 sub	 esp, 12			; 0000000cH
  00006	56		 push	 esi

; 1367 :         const _Tree_find_result<_Nodeptr> _Loc = _Find_lower_bound(_Keyval);

  00007	8b 75 0c	 mov	 esi, DWORD PTR __Keyval$[ebp]
  0000a	8d 45 f4	 lea	 eax, DWORD PTR __Loc$1[ebp]

; 1376 :     _NODISCARD iterator find(const key_type& _Keyval) {

  0000d	57		 push	 edi

; 1367 :         const _Tree_find_result<_Nodeptr> _Loc = _Find_lower_bound(_Keyval);

  0000e	56		 push	 esi
  0000f	50		 push	 eax

; 1376 :     _NODISCARD iterator find(const key_type& _Keyval) {

  00010	8b f9		 mov	 edi, ecx

; 1367 :         const _Tree_find_result<_Nodeptr> _Loc = _Find_lower_bound(_Keyval);

  00012	e8 00 00 00 00	 call	 ??$_Find_lower_bound@USItemPos@@@?$_Tree@V?$_Tmap_traits@USItemPos@@USShopItemTable@@U?$less@USItemPos@@@std@@V?$allocator@U?$pair@$$CBUSItemPos@@USShopItemTable@@@std@@@4@$0A@@std@@@std@@IBE?AU?$_Tree_find_result@PAU?$_Tree_node@U?$pair@$$CBUSItemPos@@USShopItemTable@@@std@@PAX@std@@@1@ABUSItemPos@@@Z ; std::_Tree<std::_Tmap_traits<SItemPos,SShopItemTable,std::less<SItemPos>,std::allocator<std::pair<SItemPos const ,SShopItemTable> >,0> >::_Find_lower_bound<SItemPos>

; 1605 :         return !_Bound->_Isnil && !_DEBUG_LT_PRED(_Getcomp(), _Keyval, _Traits::_Kfn(_Bound->_Myval));

  00017	8b 55 fc	 mov	 edx, DWORD PTR __Loc$1[ebp+8]
  0001a	80 7a 0d 00	 cmp	 BYTE PTR [edx+13], 0
  0001e	75 20		 jne	 SHORT $LN4@find
; File E:\Metin2_server\SolWayneSF v6\ClientVS22\source\UserInterface\GameType.h

; 270  : 		return (window_type < rhs.window_type) || ((window_type == rhs.window_type) && (cell < rhs.cell));

  00020	8a 06		 mov	 al, BYTE PTR [esi]
  00022	3a 42 0e	 cmp	 al, BYTE PTR [edx+14]
  00025	72 19		 jb	 SHORT $LN4@find
  00027	75 0a		 jne	 SHORT $LN23@find
  00029	66 8b 46 01	 mov	 ax, WORD PTR [esi+1]
  0002d	66 3b 42 0f	 cmp	 ax, WORD PTR [edx+15]
  00031	72 0d		 jb	 SHORT $LN4@find
$LN23@find:
; File C:\Program Files\Microsoft Visual Studio\2022\Community\VC\Tools\MSVC\14.34.31933\include\xtree

; 38   :     _Tree_unchecked_const_iterator(_Nodeptr _Pnode, const _Mytree* _Plist) noexcept : _Ptr(_Pnode) {

  00033	8b 45 08	 mov	 eax, DWORD PTR ___$ReturnUdt$[ebp]
  00036	5f		 pop	 edi

; 1377 :         return iterator(_Find(_Keyval), _Get_scary());
; 1378 :     }

  00037	5e		 pop	 esi

; 38   :     _Tree_unchecked_const_iterator(_Nodeptr _Pnode, const _Mytree* _Plist) noexcept : _Ptr(_Pnode) {

  00038	89 10		 mov	 DWORD PTR [eax], edx

; 1377 :         return iterator(_Find(_Keyval), _Get_scary());
; 1378 :     }

  0003a	8b e5		 mov	 esp, ebp
  0003c	5d		 pop	 ebp
  0003d	c2 08 00	 ret	 8
$LN4@find:

; 38   :     _Tree_unchecked_const_iterator(_Nodeptr _Pnode, const _Mytree* _Plist) noexcept : _Ptr(_Pnode) {

  00040	8b 45 08	 mov	 eax, DWORD PTR ___$ReturnUdt$[ebp]

; 1372 :         return _Get_scary()->_Myhead;

  00043	8b 0f		 mov	 ecx, DWORD PTR [edi]
  00045	5f		 pop	 edi

; 1377 :         return iterator(_Find(_Keyval), _Get_scary());
; 1378 :     }

  00046	5e		 pop	 esi

; 38   :     _Tree_unchecked_const_iterator(_Nodeptr _Pnode, const _Mytree* _Plist) noexcept : _Ptr(_Pnode) {

  00047	89 08		 mov	 DWORD PTR [eax], ecx

; 1377 :         return iterator(_Find(_Keyval), _Get_scary());
; 1378 :     }

  00049	8b e5		 mov	 esp, ebp
  0004b	5d		 pop	 ebp
  0004c	c2 08 00	 ret	 8
?find@?$_Tree@V?$_Tmap_traits@USItemPos@@USShopItemTable@@U?$less@USItemPos@@@std@@V?$allocator@U?$pair@$$CBUSItemPos@@USShopItemTable@@@std@@@4@$0A@@std@@@std@@QAE?AV?$_Tree_iterator@V?$_Tree_val@U?$_Tree_simple_types@U?$pair@$$CBUSItemPos@@USShopItemTable@@@std@@@std@@@std@@@2@ABUSItemPos@@@Z ENDP ; std::_Tree<std::_Tmap_traits<SItemPos,SShopItemTable,std::less<SItemPos>,std::allocator<std::pair<SItemPos const ,SShopItemTable> >,0> >::find
_TEXT	ENDS
; Function compile flags: /Ogtp
; File C:\Program Files\Microsoft Visual Studio\2022\Community\VC\Tools\MSVC\14.34.31933\include\xtree
;	COMDAT ?clear@?$_Tree@V?$_Tmap_traits@USItemPos@@USShopItemTable@@U?$less@USItemPos@@@std@@V?$allocator@U?$pair@$$CBUSItemPos@@USShopItemTable@@@std@@@4@$0A@@std@@@std@@QAEXXZ
_TEXT	SEGMENT
?clear@?$_Tree@V?$_Tmap_traits@USItemPos@@USShopItemTable@@U?$less@USItemPos@@@std@@V?$allocator@U?$pair@$$CBUSItemPos@@USShopItemTable@@@std@@@4@$0A@@std@@@std@@QAEXXZ PROC ; std::_Tree<std::_Tmap_traits<SItemPos,SShopItemTable,std::less<SItemPos>,std::allocator<std::pair<SItemPos const ,SShopItemTable> >,0> >::clear, COMDAT
; _this$ = ecx

; 1353 :     void clear() noexcept {

  00000	56		 push	 esi
  00001	57		 push	 edi
  00002	8b f9		 mov	 edi, ecx

; 1354 :         const auto _Scary = _Get_scary();
; 1355 :         _Scary->_Orphan_ptr(nullptr);
; 1356 :         auto _Head = _Scary->_Myhead;

  00004	8b 37		 mov	 esi, DWORD PTR [edi]

; 1357 :         _Scary->_Erase_tree(_Getal(), _Head->_Parent);

  00006	ff 76 04	 push	 DWORD PTR [esi+4]
  00009	57		 push	 edi
  0000a	e8 00 00 00 00	 call	 ??$_Erase_tree@V?$allocator@U?$_Tree_node@U?$pair@$$CBUSItemPos@@USShopItemTable@@@std@@PAX@std@@@std@@@?$_Tree_val@U?$_Tree_simple_types@U?$pair@$$CBUSItemPos@@USShopItemTable@@@std@@@std@@@std@@QAEXAAV?$allocator@U?$_Tree_node@U?$pair@$$CBUSItemPos@@USShopItemTable@@@std@@PAX@std@@@1@PAU?$_Tree_node@U?$pair@$$CBUSItemPos@@USShopItemTable@@@std@@PAX@1@@Z ; std::_Tree_val<std::_Tree_simple_types<std::pair<SItemPos const ,SShopItemTable> > >::_Erase_tree<std::allocator<std::_Tree_node<std::pair<SItemPos const ,SShopItemTable>,void *> > >

; 1358 :         _Head->_Parent  = _Head;

  0000f	89 76 04	 mov	 DWORD PTR [esi+4], esi

; 1359 :         _Head->_Left    = _Head;

  00012	89 36		 mov	 DWORD PTR [esi], esi

; 1360 :         _Head->_Right   = _Head;

  00014	89 76 08	 mov	 DWORD PTR [esi+8], esi

; 1361 :         _Scary->_Mysize = 0;

  00017	c7 47 04 00 00
	00 00		 mov	 DWORD PTR [edi+4], 0
  0001e	5f		 pop	 edi
  0001f	5e		 pop	 esi

; 1362 :     }

  00020	c3		 ret	 0
?clear@?$_Tree@V?$_Tmap_traits@USItemPos@@USShopItemTable@@U?$less@USItemPos@@@std@@V?$allocator@U?$pair@$$CBUSItemPos@@USShopItemTable@@@std@@@4@$0A@@std@@@std@@QAEXXZ ENDP ; std::_Tree<std::_Tmap_traits<SItemPos,SShopItemTable,std::less<SItemPos>,std::allocator<std::pair<SItemPos const ,SShopItemTable> >,0> >::clear
_TEXT	ENDS
; Function compile flags: /Ogtp
; File C:\Program Files\Microsoft Visual Studio\2022\Community\VC\Tools\MSVC\14.34.31933\include\xtree
; File E:\Metin2_server\SolWayneSF v6\ClientVS22\source\UserInterface\GameType.h
; File C:\Program Files\Microsoft Visual Studio\2022\Community\VC\Tools\MSVC\14.34.31933\include\xtree
; File E:\Metin2_server\SolWayneSF v6\ClientVS22\source\UserInterface\GameType.h
; File C:\Program Files\Microsoft Visual Studio\2022\Community\VC\Tools\MSVC\14.34.31933\include\xtree
; File E:\Metin2_server\SolWayneSF v6\ClientVS22\source\UserInterface\GameType.h
; File C:\Program Files\Microsoft Visual Studio\2022\Community\VC\Tools\MSVC\14.34.31933\include\xtree
; File E:\Metin2_server\SolWayneSF v6\ClientVS22\source\UserInterface\GameType.h
; File C:\Program Files\Microsoft Visual Studio\2022\Community\VC\Tools\MSVC\14.34.31933\include\xtree
; File C:\Program Files\Microsoft Visual Studio\2022\Community\VC\Tools\MSVC\14.34.31933\include\xutility
; File C:\Program Files\Microsoft Visual Studio\2022\Community\VC\Tools\MSVC\14.34.31933\include\xtree
; File C:\Program Files\Microsoft Visual Studio\2022\Community\VC\Tools\MSVC\14.34.31933\include\xutility
; File C:\Program Files\Microsoft Visual Studio\2022\Community\VC\Tools\MSVC\14.34.31933\include\xtree
; File C:\Program Files\Microsoft Visual Studio\2022\Community\VC\Tools\MSVC\14.34.31933\include\xutility
; File C:\Program Files\Microsoft Visual Studio\2022\Community\VC\Tools\MSVC\14.34.31933\include\xtree
; File C:\Program Files\Microsoft Visual Studio\2022\Community\VC\Tools\MSVC\14.34.31933\include\xutility
; File C:\Program Files\Microsoft Visual Studio\2022\Community\VC\Tools\MSVC\14.34.31933\include\xtree
; File C:\Program Files\Microsoft Visual Studio\2022\Community\VC\Tools\MSVC\14.34.31933\include\xmemory
; File C:\Program Files\Microsoft Visual Studio\2022\Community\VC\Tools\MSVC\14.34.31933\include\xtree
; File C:\Program Files\Microsoft Visual Studio\2022\Community\VC\Tools\MSVC\14.34.31933\include\xmemory
; File C:\Program Files\Microsoft Visual Studio\2022\Community\VC\Tools\MSVC\14.34.31933\include\xtree
;	COMDAT ?erase@?$_Tree@V?$_Tmap_traits@USItemPos@@USShopItemTable@@U?$less@USItemPos@@@std@@V?$allocator@U?$pair@$$CBUSItemPos@@USShopItemTable@@@std@@@4@$0A@@std@@@std@@QAEIABUSItemPos@@@Z
_TEXT	SEGMENT
$T1 = -20						; size = 4
__Off$1$ = -20						; size = 4
__First$1$ = -16					; size = 4
__First$ = -16						; size = 4
__Head$1$ = -12						; size = 4
_this$1$ = -8						; size = 4
tv844 = -4						; size = 4
__Keyval$ = 8						; size = 4
?erase@?$_Tree@V?$_Tmap_traits@USItemPos@@USShopItemTable@@U?$less@USItemPos@@@std@@V?$allocator@U?$pair@$$CBUSItemPos@@USShopItemTable@@@std@@@4@$0A@@std@@@std@@QAEIABUSItemPos@@@Z PROC ; std::_Tree<std::_Tmap_traits<SItemPos,SShopItemTable,std::less<SItemPos>,std::allocator<std::pair<SItemPos const ,SShopItemTable> >,0> >::erase, COMDAT
; _this$ = ecx

; 1341 :     size_type erase(const key_type& _Keyval) noexcept(noexcept(_Eqrange(_Keyval))) /* strengthened */ {

  00000	55		 push	 ebp
  00001	8b ec		 mov	 ebp, esp
  00003	83 e4 f8	 and	 esp, -8			; fffffff8H
  00006	83 ec 14	 sub	 esp, 20			; 00000014H
  00009	8b c1		 mov	 eax, ecx
  0000b	89 44 24 0c	 mov	 DWORD PTR _this$1$[esp+20], eax
  0000f	53		 push	 ebx

; 1698 :         while (!_Pnode->_Isnil) {

  00010	8b 5d 08	 mov	 ebx, DWORD PTR __Keyval$[ebp]
  00013	8b 00		 mov	 eax, DWORD PTR [eax]

; 1341 :     size_type erase(const key_type& _Keyval) noexcept(noexcept(_Eqrange(_Keyval))) /* strengthened */ {

  00015	56		 push	 esi
  00016	57		 push	 edi

; 1695 :         _Nodeptr _Lonode  = _Scary->_Myhead; // end() if search fails

  00017	8b f8		 mov	 edi, eax
  00019	89 44 24 14	 mov	 DWORD PTR __Head$1$[esp+32], eax
  0001d	8b 48 04	 mov	 ecx, DWORD PTR [eax+4]

; 1696 :         _Nodeptr _Hinode  = _Scary->_Myhead; // end() if search fails

  00020	8b f0		 mov	 esi, eax
  00022	8b d1		 mov	 edx, ecx
  00024	89 4c 24 1c	 mov	 DWORD PTR tv844[esp+32], ecx

; 1698 :         while (!_Pnode->_Isnil) {

  00028	8d 43 01	 lea	 eax, DWORD PTR [ebx+1]
  0002b	89 7c 24 10	 mov	 DWORD PTR __First$1$[esp+32], edi
  0002f	89 44 24 0c	 mov	 DWORD PTR $T1[esp+32], eax
  00033	80 7a 0d 00	 cmp	 BYTE PTR [edx+13], 0
  00037	75 5c		 jne	 SHORT $LN162@erase
; File E:\Metin2_server\SolWayneSF v6\ClientVS22\source\UserInterface\GameType.h

; 270  : 		return (window_type < rhs.window_type) || ((window_type == rhs.window_type) && (cell < rhs.cell));

  00039	8a 1b		 mov	 bl, BYTE PTR [ebx]
; File C:\Program Files\Microsoft Visual Studio\2022\Community\VC\Tools\MSVC\14.34.31933\include\xtree

; 1698 :         while (!_Pnode->_Isnil) {

  0003b	eb 07		 jmp	 SHORT $LN4@erase
  0003d	0f 1f 00	 npad	 3
$LL169@erase:
  00040	8b 44 24 0c	 mov	 eax, DWORD PTR $T1[esp+32]
$LN4@erase:
; File E:\Metin2_server\SolWayneSF v6\ClientVS22\source\UserInterface\GameType.h

; 270  : 		return (window_type < rhs.window_type) || ((window_type == rhs.window_type) && (cell < rhs.cell));

  00044	8a 4a 0e	 mov	 cl, BYTE PTR [edx+14]
  00047	3a cb		 cmp	 cl, bl
  00049	72 38		 jb	 SHORT $LN166@erase
  0004b	75 15		 jne	 SHORT $LN8@erase
  0004d	8b 7c 24 0c	 mov	 edi, DWORD PTR $T1[esp+32]
