; Listing generated by Microsoft (R) Optimizing Compiler Version 19.34.31937.0 

	TITLE	e:\metin2_server\solwaynesf v6\clientvs22\vs_files\userinterface\distribute\pythonplayer.obj
	.686P
	.XMM
	include listing.inc
	.model	flat

INCLUDELIB OLDNAMES

PUBLIC	??_C@_0P@KCGJBOBB@RefreshStamina@		; `string'
PUBLIC	??_C@_0BL@KCKDPCFN@BINARY_Guild_ExitGuildArea@	; `string'
PUBLIC	??_C@_0BM@OMJPBBKE@BINARY_Guild_EnterGuildArea@	; `string'
PUBLIC	??_C@_0DC@LHJHEHHP@CPythonPlayer?3?3GetStatus?5?9?5Get?5@ ; `string'
PUBLIC	??_C@_0DC@HBNJHHEJ@CPythonPlayer?3?3SetStatus?5?9?5Set?5@ ; `string'
PUBLIC	??_C@_0GC@FMCMFPCN@CPythonPlayer?3?3SetItemData?$CIwind@ ; `string'
PUBLIC	??_C@_0P@PDEFNCOA@OnChangePKMode@		; `string'
PUBLIC	??_C@_0FF@PCELILMJ@Failed?5to?5find?5ItemData?5?9?5CPyth@ ; `string'
PUBLIC	??_C@_0BC@GAEKBOHM@BINARY_ActEmotion@		; `string'
PUBLIC	??_C@_0ED@OIFHNIC@CPythonPlayer?3?3SetSkillCoolTime@ ; `string'
PUBLIC	??_C@_0DK@OJMDGNKA@CPythonPlayer?3?3SetSkillLevel?$CISl@ ; `string'
PUBLIC	??_C@_0ED@MHHIIPAM@CPythonPlayer?3?3EndSkillCoolTime@ ; `string'
PUBLIC	??_C@_0FC@CAEKCLMF@CPythonPlayer?3?3SetSkillCoolTime@ ; `string'
PUBLIC	??_C@_0EA@BNHLOMGN@CPythonPlayer?3?3ActivavteSkill?$CId@ ; `string'
PUBLIC	??_C@_0FC@JLHDIAGN@CPythonPlayer?3?3EndSkillCoolTime@ ; `string'
PUBLIC	??_C@_0EC@BHLLACII@CPythonPlayer?3?3DeactivavteSkill@ ; `string'
PUBLIC	??_C@_0BC@GDFCJBCP@ActivateSkillSlot@		; `string'
PUBLIC	??_C@_0DP@MLLABPNJ@CPythonPlayer?3?3SendClickItemPac@ ; `string'
PUBLIC	??_C@_0BE@HIMJCBBG@DeactivateSkillSlot@		; `string'
PUBLIC	??_C@_0P@CGBLDLHF@OnCannotMining@		; `string'
PUBLIC	??_C@_0BB@DNNBDACF@OnCannotPickItem@		; `string'
PUBLIC	??_C@_0BC@FKINMGLI@OnCannotShotError@		; `string'
PUBLIC	??_C@_0M@HCIEKIGP@NEED_TARGET@			; `string'
PUBLIC	??_C@_0FC@JHEGNFED@?5CPythonPlayer?3?3LinkPartyMember@ ; `string'
PUBLIC	??_C@_08HOHDPHII@?1kiss?5?$CFs@			; `string'
PUBLIC	??_C@_0GK@FIFNELKC@?5CPythonPlayer?3?3UpdatePartyMemb@ ; `string'
PUBLIC	??_C@_0EK@OICEDEOK@?5CPythonPlayer?3?3UnlinkPartyMemb@ ; `string'
PUBLIC	??_C@_0HF@NJGIGGLI@?5CPythonPlayer?3?3UpdatePartyMemb@ ; `string'
PUBLIC	??_C@_0HG@LLGBHOIA@?5CPythonPlayer?3?3UpdatePartyMemb@ ; `string'
PUBLIC	??_C@_0BH@PIKHDMAM@BINARY_CheckGameButton@	; `string'
PUBLIC	??_C@_0O@EHNHNBIB@RefreshMobile@		; `string'
PUBLIC	??_R2CPythonPlayer@@8				; CPythonPlayer::`RTTI Base Class Array'
PUBLIC	??_R2?$CSingleton@VCPythonPlayer@@@@8		; CSingleton<CPythonPlayer>::`RTTI Base Class Array'
PUBLIC	??_R2?$TAbstractSingleton@VIAbstractPlayer@@@@8	; TAbstractSingleton<IAbstractPlayer>::`RTTI Base Class Array'
PUBLIC	??_R2IAbstractPlayer@@8				; IAbstractPlayer::`RTTI Base Class Array'
PUBLIC	??_R13?0A@EA@?$TAbstractSingleton@VIAbstractPlayer@@@@8 ; TAbstractSingleton<IAbstractPlayer>::`RTTI Base Class Descriptor at (4,-1,0,64)'
PUBLIC	??_R1A@?0A@EA@CPythonPlayer@@8			; CPythonPlayer::`RTTI Base Class Descriptor at (0,-1,0,64)'
PUBLIC	??_R13?0A@EA@IAbstractPlayer@@8			; IAbstractPlayer::`RTTI Base Class Descriptor at (4,-1,0,64)'
PUBLIC	??_R1A@?0A@EA@?$CSingleton@VCPythonPlayer@@@@8	; CSingleton<CPythonPlayer>::`RTTI Base Class Descriptor at (0,-1,0,64)'
PUBLIC	??_R1A@?0A@EA@?$TAbstractSingleton@VIAbstractPlayer@@@@8 ; TAbstractSingleton<IAbstractPlayer>::`RTTI Base Class Descriptor at (0,-1,0,64)'
PUBLIC	??_R1A@?0A@EA@IAbstractPlayer@@8		; IAbstractPlayer::`RTTI Base Class Descriptor at (0,-1,0,64)'
PUBLIC	??_R3?$CSingleton@VCPythonPlayer@@@@8		; CSingleton<CPythonPlayer>::`RTTI Class Hierarchy Descriptor'
PUBLIC	??_R3CPythonPlayer@@8				; CPythonPlayer::`RTTI Class Hierarchy Descriptor'
PUBLIC	??_R0?AV?$CSingleton@VCPythonPlayer@@@@@8	; CSingleton<CPythonPlayer> `RTTI Type Descriptor'
PUBLIC	??_R0?AVCPythonPlayer@@@8			; CPythonPlayer `RTTI Type Descriptor'
PUBLIC	??_R3?$TAbstractSingleton@VIAbstractPlayer@@@@8	; TAbstractSingleton<IAbstractPlayer>::`RTTI Class Hierarchy Descriptor'
PUBLIC	??_R3IAbstractPlayer@@8				; IAbstractPlayer::`RTTI Class Hierarchy Descriptor'
PUBLIC	??_R0?AV?$TAbstractSingleton@VIAbstractPlayer@@@@@8 ; TAbstractSingleton<IAbstractPlayer> `RTTI Type Descriptor'
PUBLIC	??_R0?AVIAbstractPlayer@@@8			; IAbstractPlayer `RTTI Type Descriptor'
PUBLIC	??_R4?$CSingleton@VCPythonPlayer@@@@6B@		; CSingleton<CPythonPlayer>::`RTTI Complete Object Locator'
PUBLIC	??_R4CPythonPlayer@@6BIAbstractPlayer@@@	; CPythonPlayer::`RTTI Complete Object Locator'
PUBLIC	??_R4CPythonPlayer@@6B?$CSingleton@VCPythonPlayer@@@@@ ; CPythonPlayer::`RTTI Complete Object Locator'
PUBLIC	??_R4?$TAbstractSingleton@VIAbstractPlayer@@@@6B@ ; TAbstractSingleton<IAbstractPlayer>::`RTTI Complete Object Locator'
PUBLIC	??_R4IAbstractPlayer@@6B@			; IAbstractPlayer::`RTTI Complete Object Locator'
PUBLIC	??_7?$TAbstractSingleton@VIAbstractPlayer@@@@6B@ ; TAbstractSingleton<IAbstractPlayer>::`vftable'
PUBLIC	??_7?$CSingleton@VCPythonPlayer@@@@6B@		; CSingleton<CPythonPlayer>::`vftable'
PUBLIC	??_7CPythonPlayer@@6BIAbstractPlayer@@@		; CPythonPlayer::`vftable'
PUBLIC	??_7CPythonPlayer@@6B?$CSingleton@VCPythonPlayer@@@@@ ; CPythonPlayer::`vftable'
PUBLIC	??_7IAbstractPlayer@@6B@			; IAbstractPlayer::`vftable'
;	COMDAT ?s_dwNextTCPTime@?1??__SendClickActorPacket@CPythonPlayer@@IAEXAAVCInstanceBase@@@Z@4KA
_BSS	SEGMENT
?s_dwNextTCPTime@?1??__SendClickActorPacket@CPythonPlayer@@IAEXAAVCInstanceBase@@@Z@4KA DD 01H DUP (?) ; `CPythonPlayer::__SendClickActorPacket'::`2'::s_dwNextTCPTime
_BSS	ENDS
;	COMDAT ??_7IAbstractPlayer@@6B@
CONST	SEGMENT
??_7IAbstractPlayer@@6B@ DD FLAT:??_R4IAbstractPlayer@@6B@ ; IAbstractPlayer::`vftable'
	DD	FLAT:??_EIAbstractPlayer@@UAEPAXI@Z
	DD	FLAT:__purecall
	DD	FLAT:__purecall
	DD	FLAT:__purecall
	DD	FLAT:__purecall
	DD	FLAT:__purecall
	DD	FLAT:__purecall
	DD	FLAT:__purecall
	DD	FLAT:__purecall
	DD	FLAT:__purecall
	DD	FLAT:__purecall
	DD	FLAT:__purecall
	DD	FLAT:__purecall
	DD	FLAT:__purecall
	DD	FLAT:__purecall
	DD	FLAT:__purecall
	DD	FLAT:__purecall
	DD	FLAT:__purecall
	DD	FLAT:__purecall
	DD	FLAT:__purecall
	DD	FLAT:__purecall
	DD	FLAT:__purecall
	DD	FLAT:__purecall
	DD	FLAT:__purecall
	DD	FLAT:__purecall
	DD	FLAT:__purecall
	DD	FLAT:__purecall
	DD	FLAT:__purecall
	DD	FLAT:__purecall
	DD	FLAT:__purecall
	DD	FLAT:__purecall
	DD	FLAT:__purecall
	DD	FLAT:__purecall
	DD	FLAT:__purecall
	DD	FLAT:__purecall
CONST	ENDS
;	COMDAT ??_7CPythonPlayer@@6B?$CSingleton@VCPythonPlayer@@@@@
CONST	SEGMENT
??_7CPythonPlayer@@6B?$CSingleton@VCPythonPlayer@@@@@ DD FLAT:??_R4CPythonPlayer@@6B?$CSingleton@VCPythonPlayer@@@@@ ; CPythonPlayer::`vftable'
	DD	FLAT:??_ECPythonPlayer@@UAEPAXI@Z
CONST	ENDS
;	COMDAT ??_7CPythonPlayer@@6BIAbstractPlayer@@@
CONST	SEGMENT
??_7CPythonPlayer@@6BIAbstractPlayer@@@ DD FLAT:??_R4CPythonPlayer@@6BIAbstractPlayer@@@ ; CPythonPlayer::`vftable'
	DD	FLAT:??_ECPythonPlayer@@W3AEPAXI@Z
	DD	FLAT:?GetMainCharacterIndex@CPythonPlayer@@UAEKXZ
	DD	FLAT:?SetMainCharacterIndex@CPythonPlayer@@UAEXH@Z
	DD	FLAT:?IsMainCharacterIndex@CPythonPlayer@@UAE_NK@Z
	DD	FLAT:?GetStatus@CPythonPlayer@@UAE_JK@Z
	DD	FLAT:?GetName@CPythonPlayer@@UAEPBDXZ
	DD	FLAT:?SetRace@CPythonPlayer@@UAEXK@Z
	DD	FLAT:?StartStaminaConsume@CPythonPlayer@@UAEXKK@Z
	DD	FLAT:?StopStaminaConsume@CPythonPlayer@@UAEXK@Z
	DD	FLAT:?IsPartyMemberByVID@CPythonPlayer@@UAE_NK@Z
	DD	FLAT:?PartyMemberVIDToPID@CPythonPlayer@@UAE_NKPAK@Z
	DD	FLAT:?IsSamePartyMember@CPythonPlayer@@UAE_NKK@Z
	DD	FLAT:?SetItemData@CPythonPlayer@@UAEXUSItemPos@@ABUpacket_item@@@Z
	DD	FLAT:?SetItemCount@CPythonPlayer@@UAEXUSItemPos@@E@Z
	DD	FLAT:?SetItemMetinSocket@CPythonPlayer@@UAEXUSItemPos@@KK@Z
	DD	FLAT:?SetItemAttribute@CPythonPlayer@@UAEXUSItemPos@@KEF@Z
	DD	FLAT:?GetItemIndex@CPythonPlayer@@UAEKUSItemPos@@@Z
	DD	FLAT:?GetItemFlags@CPythonPlayer@@UAEKUSItemPos@@@Z
	DD	FLAT:?GetItemCount@CPythonPlayer@@UAEKUSItemPos@@@Z
	DD	FLAT:?IsEquipItemInSlot@CPythonPlayer@@UAE_NUSItemPos@@@Z
	DD	FLAT:?AddQuickSlot@CPythonPlayer@@UAEXHDD@Z
	DD	FLAT:?DeleteQuickSlot@CPythonPlayer@@UAEXH@Z
	DD	FLAT:?MoveQuickSlot@CPythonPlayer@@UAEXHH@Z
	DD	FLAT:?SetWeaponPower@CPythonPlayer@@UAEXKKKKK@Z
	DD	FLAT:?SetTarget@CPythonPlayer@@UAEXKH@Z
	DD	FLAT:?NotifyCharacterUpdate@CPythonPlayer@@UAEXK@Z
	DD	FLAT:?NotifyCharacterDead@CPythonPlayer@@UAEXK@Z
	DD	FLAT:?NotifyDeletingCharacterInstance@CPythonPlayer@@UAEXK@Z
	DD	FLAT:?NotifyChangePKMode@CPythonPlayer@@UAEXXZ
	DD	FLAT:?SetObserverMode@CPythonPlayer@@UAEX_N@Z
	DD	FLAT:?SetMobileFlag@CPythonPlayer@@UAEXH@Z
	DD	FLAT:?SetComboSkillFlag@CPythonPlayer@@UAEXH@Z
	DD	FLAT:?StartEmotionProcess@CPythonPlayer@@UAEXXZ
	DD	FLAT:?EndEmotionProcess@CPythonPlayer@@UAEXXZ
	DD	FLAT:?NEW_GetMainActorPtr@CPythonPlayer@@UAEPAVCInstanceBase@@XZ
CONST	ENDS
;	COMDAT ??_7?$CSingleton@VCPythonPlayer@@@@6B@
CONST	SEGMENT
??_7?$CSingleton@VCPythonPlayer@@@@6B@ DD FLAT:??_R4?$CSingleton@VCPythonPlayer@@@@6B@ ; CSingleton<CPythonPlayer>::`vftable'
	DD	FLAT:??_E?$CSingleton@VCPythonPlayer@@@@UAEPAXI@Z
CONST	ENDS
;	COMDAT ??_7?$TAbstractSingleton@VIAbstractPlayer@@@@6B@
CONST	SEGMENT
??_7?$TAbstractSingleton@VIAbstractPlayer@@@@6B@ DD FLAT:??_R4?$TAbstractSingleton@VIAbstractPlayer@@@@6B@ ; TAbstractSingleton<IAbstractPlayer>::`vftable'
	DD	FLAT:??_E?$TAbstractSingleton@VIAbstractPlayer@@@@UAEPAXI@Z
CONST	ENDS
;	COMDAT ??_R4IAbstractPlayer@@6B@
rdata$r	SEGMENT
??_R4IAbstractPlayer@@6B@ DD 00H			; IAbstractPlayer::`RTTI Complete Object Locator'
	DD	00H
	DD	00H
	DD	FLAT:??_R0?AVIAbstractPlayer@@@8
	DD	FLAT:??_R3IAbstractPlayer@@8
rdata$r	ENDS
;	COMDAT ??_R4?$TAbstractSingleton@VIAbstractPlayer@@@@6B@
rdata$r	SEGMENT
??_R4?$TAbstractSingleton@VIAbstractPlayer@@@@6B@ DD 00H ; TAbstractSingleton<IAbstractPlayer>::`RTTI Complete Object Locator'
	DD	00H
	DD	00H
	DD	FLAT:??_R0?AV?$TAbstractSingleton@VIAbstractPlayer@@@@@8
	DD	FLAT:??_R3?$TAbstractSingleton@VIAbstractPlayer@@@@8
rdata$r	ENDS
;	COMDAT ??_R4CPythonPlayer@@6B?$CSingleton@VCPythonPlayer@@@@@
rdata$r	SEGMENT
??_R4CPythonPlayer@@6B?$CSingleton@VCPythonPlayer@@@@@ DD 00H ; CPythonPlayer::`RTTI Complete Object Locator'
	DD	00H
	DD	00H
	DD	FLAT:??_R0?AVCPythonPlayer@@@8
	DD	FLAT:??_R3CPythonPlayer@@8
rdata$r	ENDS
;	COMDAT ??_R4CPythonPlayer@@6BIAbstractPlayer@@@
rdata$r	SEGMENT
??_R4CPythonPlayer@@6BIAbstractPlayer@@@ DD 00H		; CPythonPlayer::`RTTI Complete Object Locator'
	DD	04H
	DD	00H
	DD	FLAT:??_R0?AVCPythonPlayer@@@8
	DD	FLAT:??_R3CPythonPlayer@@8
rdata$r	ENDS
;	COMDAT ??_R4?$CSingleton@VCPythonPlayer@@@@6B@
rdata$r	SEGMENT
??_R4?$CSingleton@VCPythonPlayer@@@@6B@ DD 00H		; CSingleton<CPythonPlayer>::`RTTI Complete Object Locator'
	DD	00H
	DD	00H
	DD	FLAT:??_R0?AV?$CSingleton@VCPythonPlayer@@@@@8
	DD	FLAT:??_R3?$CSingleton@VCPythonPlayer@@@@8
rdata$r	ENDS
;	COMDAT ??_R0?AVIAbstractPlayer@@@8
data$rs	SEGMENT
??_R0?AVIAbstractPlayer@@@8 DD FLAT:??_7type_info@@6B@	; IAbstractPlayer `RTTI Type Descriptor'
	DD	00H
	DB	'.?AVIAbstractPlayer@@', 00H
data$rs	ENDS
;	COMDAT ??_R0?AV?$TAbstractSingleton@VIAbstractPlayer@@@@@8
data$rs	SEGMENT
??_R0?AV?$TAbstractSingleton@VIAbstractPlayer@@@@@8 DD FLAT:??_7type_info@@6B@ ; TAbstractSingleton<IAbstractPlayer> `RTTI Type Descriptor'
	DD	00H
	DB	'.?AV?$TAbstractSingleton@VIAbstractPlayer@@@@', 00H
data$rs	ENDS
;	COMDAT ??_R3IAbstractPlayer@@8
rdata$r	SEGMENT
??_R3IAbstractPlayer@@8 DD 00H				; IAbstractPlayer::`RTTI Class Hierarchy Descriptor'
	DD	00H
	DD	02H
	DD	FLAT:??_R2IAbstractPlayer@@8
rdata$r	ENDS
;	COMDAT ??_R3?$TAbstractSingleton@VIAbstractPlayer@@@@8
rdata$r	SEGMENT
??_R3?$TAbstractSingleton@VIAbstractPlayer@@@@8 DD 00H	; TAbstractSingleton<IAbstractPlayer>::`RTTI Class Hierarchy Descriptor'
	DD	00H
	DD	01H
	DD	FLAT:??_R2?$TAbstractSingleton@VIAbstractPlayer@@@@8
rdata$r	ENDS
;	COMDAT ??_R0?AVCPythonPlayer@@@8
data$rs	SEGMENT
??_R0?AVCPythonPlayer@@@8 DD FLAT:??_7type_info@@6B@	; CPythonPlayer `RTTI Type Descriptor'
	DD	00H
	DB	'.?AVCPythonPlayer@@', 00H
data$rs	ENDS
;	COMDAT ??_R0?AV?$CSingleton@VCPythonPlayer@@@@@8
data$rs	SEGMENT
??_R0?AV?$CSingleton@VCPythonPlayer@@@@@8 DD FLAT:??_7type_info@@6B@ ; CSingleton<CPythonPlayer> `RTTI Type Descriptor'
	DD	00H
	DB	'.?AV?$CSingleton@VCPythonPlayer@@@@', 00H
data$rs	ENDS
;	COMDAT ??_R3CPythonPlayer@@8
rdata$r	SEGMENT
??_R3CPythonPlayer@@8 DD 00H				; CPythonPlayer::`RTTI Class Hierarchy Descriptor'
	DD	01H
	DD	04H
	DD	FLAT:??_R2CPythonPlayer@@8
rdata$r	ENDS
;	COMDAT ??_R3?$CSingleton@VCPythonPlayer@@@@8
rdata$r	SEGMENT
??_R3?$CSingleton@VCPythonPlayer@@@@8 DD 00H		; CSingleton<CPythonPlayer>::`RTTI Class Hierarchy Descriptor'
	DD	00H
	DD	01H
	DD	FLAT:??_R2?$CSingleton@VCPythonPlayer@@@@8
rdata$r	ENDS
;	COMDAT ??_R1A@?0A@EA@IAbstractPlayer@@8
rdata$r	SEGMENT
??_R1A@?0A@EA@IAbstractPlayer@@8 DD FLAT:??_R0?AVIAbstractPlayer@@@8 ; IAbstractPlayer::`RTTI Base Class Descriptor at (0,-1,0,64)'
	DD	01H
	DD	00H
	DD	0ffffffffH
	DD	00H
	DD	040H
	DD	FLAT:??_R3IAbstractPlayer@@8
rdata$r	ENDS
;	COMDAT ??_R1A@?0A@EA@?$TAbstractSingleton@VIAbstractPlayer@@@@8
rdata$r	SEGMENT
??_R1A@?0A@EA@?$TAbstractSingleton@VIAbstractPlayer@@@@8 DD FLAT:??_R0?AV?$TAbstractSingleton@VIAbstractPlayer@@@@@8 ; TAbstractSingleton<IAbstractPlayer>::`RTTI Base Class Descriptor at (0,-1,0,64)'
	DD	00H
	DD	00H
	DD	0ffffffffH
	DD	00H
	DD	040H
	DD	FLAT:??_R3?$TAbstractSingleton@VIAbstractPlayer@@@@8
rdata$r	ENDS
;	COMDAT ??_R1A@?0A@EA@?$CSingleton@VCPythonPlayer@@@@8
rdata$r	SEGMENT
??_R1A@?0A@EA@?$CSingleton@VCPythonPlayer@@@@8 DD FLAT:??_R0?AV?$CSingleton@VCPythonPlayer@@@@@8 ; CSingleton<CPythonPlayer>::`RTTI Base Class Descriptor at (0,-1,0,64)'
	DD	00H
	DD	00H
	DD	0ffffffffH
	DD	00H
	DD	040H
	DD	FLAT:??_R3?$CSingleton@VCPythonPlayer@@@@8
rdata$r	ENDS
;	COMDAT ??_R13?0A@EA@IAbstractPlayer@@8
rdata$r	SEGMENT
??_R13?0A@EA@IAbstractPlayer@@8 DD FLAT:??_R0?AVIAbstractPlayer@@@8 ; IAbstractPlayer::`RTTI Base Class Descriptor at (4,-1,0,64)'
	DD	01H
	DD	04H
	DD	0ffffffffH
	DD	00H
	DD	040H
	DD	FLAT:??_R3IAbstractPlayer@@8
rdata$r	ENDS
;	COMDAT ??_R1A@?0A@EA@CPythonPlayer@@8
rdata$r	SEGMENT
??_R1A@?0A@EA@CPythonPlayer@@8 DD FLAT:??_R0?AVCPythonPlayer@@@8 ; CPythonPlayer::`RTTI Base Class Descriptor at (0,-1,0,64)'
	DD	03H
	DD	00H
	DD	0ffffffffH
	DD	00H
	DD	040H
	DD	FLAT:??_R3CPythonPlayer@@8
rdata$r	ENDS
;	COMDAT ??_R13?0A@EA@?$TAbstractSingleton@VIAbstractPlayer@@@@8
rdata$r	SEGMENT
??_R13?0A@EA@?$TAbstractSingleton@VIAbstractPlayer@@@@8 DD FLAT:??_R0?AV?$TAbstractSingleton@VIAbstractPlayer@@@@@8 ; TAbstractSingleton<IAbstractPlayer>::`RTTI Base Class Descriptor at (4,-1,0,64)'
	DD	00H
	DD	04H
	DD	0ffffffffH
	DD	00H
	DD	040H
	DD	FLAT:??_R3?$TAbstractSingleton@VIAbstractPlayer@@@@8
rdata$r	ENDS
;	COMDAT ??_R2IAbstractPlayer@@8
rdata$r	SEGMENT
??_R2IAbstractPlayer@@8 DD FLAT:??_R1A@?0A@EA@IAbstractPlayer@@8 ; IAbstractPlayer::`RTTI Base Class Array'
	DD	FLAT:??_R1A@?0A@EA@?$TAbstractSingleton@VIAbstractPlayer@@@@8
rdata$r	ENDS
;	COMDAT ??_R2?$TAbstractSingleton@VIAbstractPlayer@@@@8
rdata$r	SEGMENT
??_R2?$TAbstractSingleton@VIAbstractPlayer@@@@8 DD FLAT:??_R1A@?0A@EA@?$TAbstractSingleton@VIAbstractPlayer@@@@8 ; TAbstractSingleton<IAbstractPlayer>::`RTTI Base Class Array'
rdata$r	ENDS
;	COMDAT ??_R2?$CSingleton@VCPythonPlayer@@@@8
rdata$r	SEGMENT
??_R2?$CSingleton@VCPythonPlayer@@@@8 DD FLAT:??_R1A@?0A@EA@?$CSingleton@VCPythonPlayer@@@@8 ; CSingleton<CPythonPlayer>::`RTTI Base Class Array'
rdata$r	ENDS
;	COMDAT ??_R2CPythonPlayer@@8
rdata$r	SEGMENT
??_R2CPythonPlayer@@8 DD FLAT:??_R1A@?0A@EA@CPythonPlayer@@8 ; CPythonPlayer::`RTTI Base Class Array'
	DD	FLAT:??_R1A@?0A@EA@?$CSingleton@VCPythonPlayer@@@@8
	DD	FLAT:??_R13?0A@EA@IAbstractPlayer@@8
	DD	FLAT:??_R13?0A@EA@?$TAbstractSingleton@VIAbstractPlayer@@@@8
rdata$r	ENDS
;	COMDAT ??_C@_0O@EHNHNBIB@RefreshMobile@
CONST	SEGMENT
??_C@_0O@EHNHNBIB@RefreshMobile@ DB 'RefreshMobile', 00H ; `string'
CONST	ENDS
;	COMDAT ??_C@_0BH@PIKHDMAM@BINARY_CheckGameButton@
CONST	SEGMENT
??_C@_0BH@PIKHDMAM@BINARY_CheckGameButton@ DB 'BINARY_CheckGameButton', 00H ; `string'
CONST	ENDS
;	COMDAT ??_C@_0HG@LLGBHOIA@?5CPythonPlayer?3?3UpdatePartyMemb@
CONST	SEGMENT
??_C@_0HG@LLGBHOIA@?5CPythonPlayer?3?3UpdatePartyMemb@ DB ' CPythonPlayer'
	DB	'::UpdatePartyMemberAffect(dwPID=%d, byAffectSlotIndex=%d, sAf'
	DB	'fectNumber=%d) - Strange affect slot index', 00H ; `string'
CONST	ENDS
;	COMDAT ??_C@_0HF@NJGIGGLI@?5CPythonPlayer?3?3UpdatePartyMemb@
CONST	SEGMENT
??_C@_0HF@NJGIGGLI@?5CPythonPlayer?3?3UpdatePartyMemb@ DB ' CPythonPlayer'
	DB	'::UpdatePartyMemberAffect(dwPID=%d, byAffectSlotIndex=%d, sAf'
	DB	'fectNumber=%d) - Failed to find character', 00H ; `string'
CONST	ENDS
;	COMDAT ??_C@_0EK@OICEDEOK@?5CPythonPlayer?3?3UnlinkPartyMemb@
CONST	SEGMENT
??_C@_0EK@OICEDEOK@?5CPythonPlayer?3?3UnlinkPartyMemb@ DB ' CPythonPlayer'
	DB	'::UnlinkPartyMember(dwPID=%d) - Failed to find party member', 00H ; `string'
CONST	ENDS
;	COMDAT ??_C@_0GK@FIFNELKC@?5CPythonPlayer?3?3UpdatePartyMemb@
CONST	SEGMENT
??_C@_0GK@FIFNELKC@?5CPythonPlayer?3?3UpdatePartyMemb@ DB ' CPythonPlayer'
	DB	'::UpdatePartyMemberInfo(dwPID=%d, byState=%d, byHPPercentage='
	DB	'%d) - Failed to find character', 00H	; `string'
CONST	ENDS
;	COMDAT ??_C@_08HOHDPHII@?1kiss?5?$CFs@
CONST	SEGMENT
??_C@_08HOHDPHII@?1kiss?5?$CFs@ DB '/kiss %s', 00H	; `string'
CONST	ENDS
;	COMDAT ??_C@_0FC@JHEGNFED@?5CPythonPlayer?3?3LinkPartyMember@
CONST	SEGMENT
??_C@_0FC@JHEGNFED@?5CPythonPlayer?3?3LinkPartyMember@ DB ' CPythonPlayer'
	DB	'::LinkPartyMember(dwPID=%d, dwVID=%d) - Failed to find party '
	DB	'member', 00H				; `string'
CONST	ENDS
;	COMDAT ??_C@_0M@HCIEKIGP@NEED_TARGET@
CONST	SEGMENT
??_C@_0M@HCIEKIGP@NEED_TARGET@ DB 'NEED_TARGET', 00H	; `string'
CONST	ENDS
;	COMDAT ??_C@_0BC@FKINMGLI@OnCannotShotError@
CONST	SEGMENT
??_C@_0BC@FKINMGLI@OnCannotShotError@ DB 'OnCannotShotError', 00H ; `string'
CONST	ENDS
;	COMDAT ??_C@_0BB@DNNBDACF@OnCannotPickItem@
CONST	SEGMENT
??_C@_0BB@DNNBDACF@OnCannotPickItem@ DB 'OnCannotPickItem', 00H ; `string'
CONST	ENDS
;	COMDAT ??_C@_0P@CGBLDLHF@OnCannotMining@
CONST	SEGMENT
??_C@_0P@CGBLDLHF@OnCannotMining@ DB 'OnCannotMining', 00H ; `string'
CONST	ENDS
;	COMDAT ??_C@_0BE@HIMJCBBG@DeactivateSkillSlot@
CONST	SEGMENT
??_C@_0BE@HIMJCBBG@DeactivateSkillSlot@ DB 'DeactivateSkillSlot', 00H ; `string'
CONST	ENDS
;	COMDAT ??_C@_0DP@MLLABPNJ@CPythonPlayer?3?3SendClickItemPac@
CONST	SEGMENT
??_C@_0DP@MLLABPNJ@CPythonPlayer?3?3SendClickItemPac@ DB 'CPythonPlayer::'
	DB	'SendClickItemPacket(dwIID=%d) : Non-exist item.', 00H ; `string'
CONST	ENDS
;	COMDAT ??_C@_0BC@GDFCJBCP@ActivateSkillSlot@
CONST	SEGMENT
??_C@_0BC@GDFCJBCP@ActivateSkillSlot@ DB 'ActivateSkillSlot', 00H ; `string'
CONST	ENDS
;	COMDAT ??_C@_0EC@BHLLACII@CPythonPlayer?3?3DeactivavteSkill@
CONST	SEGMENT
??_C@_0EC@BHLLACII@CPythonPlayer?3?3DeactivavteSkill@ DB 'CPythonPlayer::'
	DB	'DeactivavteSkill(dwSlotIndex=%d/%d) - OUT OF RANGE', 00H ; `string'
CONST	ENDS
;	COMDAT ??_C@_0FC@JLHDIAGN@CPythonPlayer?3?3EndSkillCoolTime@
CONST	SEGMENT
??_C@_0FC@JLHDIAGN@CPythonPlayer?3?3EndSkillCoolTime@ DB 'CPythonPlayer::'
	DB	'EndSkillCoolTime(dwSkillIndex=%d) - dwSlotIndex=%d/%d OUT OF '
	DB	'RANGE', 00H					; `string'
CONST	ENDS
;	COMDAT ??_C@_0EA@BNHLOMGN@CPythonPlayer?3?3ActivavteSkill?$CId@
CONST	SEGMENT
??_C@_0EA@BNHLOMGN@CPythonPlayer?3?3ActivavteSkill?$CId@ DB 'CPythonPlaye'
	DB	'r::ActivavteSkill(dwSlotIndex=%d/%d) - OUT OF RANGE', 00H ; `string'
CONST	ENDS
;	COMDAT ??_C@_0FC@CAEKCLMF@CPythonPlayer?3?3SetSkillCoolTime@
CONST	SEGMENT
??_C@_0FC@CAEKCLMF@CPythonPlayer?3?3SetSkillCoolTime@ DB 'CPythonPlayer::'
	DB	'SetSkillCoolTime(dwSkillIndex=%d) - dwSlotIndex=%d/%d OUT OF '
	DB	'RANGE', 00H					; `string'
CONST	ENDS
;	COMDAT ??_C@_0ED@MHHIIPAM@CPythonPlayer?3?3EndSkillCoolTime@
CONST	SEGMENT
??_C@_0ED@MHHIIPAM@CPythonPlayer?3?3EndSkillCoolTime@ DB 'CPythonPlayer::'
	DB	'EndSkillCoolTime(dwSkillIndex=%d) - FIND SLOT ERROR', 00H ; `string'
CONST	ENDS
;	COMDAT ??_C@_0DK@OJMDGNKA@CPythonPlayer?3?3SetSkillLevel?$CISl@
CONST	SEGMENT
??_C@_0DK@OJMDGNKA@CPythonPlayer?3?3SetSkillLevel?$CISl@ DB 'CPythonPlaye'
	DB	'r::SetSkillLevel(SlotIndex=%d, SkillLevel=%d)', 00H ; `string'
CONST	ENDS
;	COMDAT ??_C@_0ED@OIFHNIC@CPythonPlayer?3?3SetSkillCoolTime@
CONST	SEGMENT
??_C@_0ED@OIFHNIC@CPythonPlayer?3?3SetSkillCoolTime@ DB 'CPythonPlayer::S'
	DB	'etSkillCoolTime(dwSkillIndex=%d) - FIND SLOT ERROR', 00H ; `string'
CONST	ENDS
;	COMDAT ??_C@_0BC@GAEKBOHM@BINARY_ActEmotion@
CONST	SEGMENT
??_C@_0BC@GAEKBOHM@BINARY_ActEmotion@ DB 'BINARY_ActEmotion', 00H ; `string'
CONST	ENDS
;	COMDAT ??_C@_0FF@PCELILMJ@Failed?5to?5find?5ItemData?5?9?5CPyth@
CONST	SEGMENT
??_C@_0FF@PCELILMJ@Failed?5to?5find?5ItemData?5?9?5CPyth@ DB 'Failed to f'
	DB	'ind ItemData - CPythonPlayer::IsEquipItem(window_type=%d, iSl'
	DB	'otindex=%d)', 0aH, 00H			; `string'
CONST	ENDS
;	COMDAT ??_C@_0P@PDEFNCOA@OnChangePKMode@
CONST	SEGMENT
??_C@_0P@PDEFNCOA@OnChangePKMode@ DB 'OnChangePKMode', 00H ; `string'
CONST	ENDS
;	COMDAT ??_C@_0GC@FMCMFPCN@CPythonPlayer?3?3SetItemData?$CIwind@
CONST	SEGMENT
??_C@_0GC@FMCMFPCN@CPythonPlayer?3?3SetItemData?$CIwind@ DB 'CPythonPlaye'
	DB	'r::SetItemData(window_type : %d, dwSlotIndex=%d, itemIndex=%d'
	DB	') - Failed to item data', 0aH, 00H		; `string'
CONST	ENDS
;	COMDAT ??_C@_0DC@HBNJHHEJ@CPythonPlayer?3?3SetStatus?5?9?5Set?5@
CONST	SEGMENT
??_C@_0DC@HBNJHHEJ@CPythonPlayer?3?3SetStatus?5?9?5Set?5@ DB 'CPythonPlay'
	DB	'er::SetStatus - Set Status Type Error', 0aH, 00H ; `string'
CONST	ENDS
;	COMDAT ??_C@_0DC@LHJHEHHP@CPythonPlayer?3?3GetStatus?5?9?5Get?5@
CONST	SEGMENT
??_C@_0DC@LHJHEHHP@CPythonPlayer?3?3GetStatus?5?9?5Get?5@ DB 'CPythonPlay'
	DB	'er::GetStatus - Get Status Type Error', 0aH, 00H ; `string'
CONST	ENDS
;	COMDAT ??_C@_0BM@OMJPBBKE@BINARY_Guild_EnterGuildArea@
CONST	SEGMENT
??_C@_0BM@OMJPBBKE@BINARY_Guild_EnterGuildArea@ DB 'BINARY_Guild_EnterGui'
	DB	'ldArea', 00H				; `string'
CONST	ENDS
;	COMDAT ??_C@_0BL@KCKDPCFN@BINARY_Guild_ExitGuildArea@
CONST	SEGMENT
??_C@_0BL@KCKDPCFN@BINARY_Guild_ExitGuildArea@ DB 'BINARY_Guild_ExitGuild'
	DB	'Area', 00H					; `string'
CONST	ENDS
;	COMDAT ??_C@_0P@KCGJBOBB@RefreshStamina@
CONST	SEGMENT
??_C@_0P@KCGJBOBB@RefreshStamina@ DB 'RefreshStamina', 00H ; `string'
PUBLIC	?IsValidCell@SItemPos@@QAE_NXZ			; SItemPos::IsValidCell
PUBLIC	?IsBeltInventoryCell@SItemPos@@QAE_NXZ		; SItemPos::IsBeltInventoryCell
PUBLIC	??_ECPythonPlayer@@W3AEPAXI@Z			; [thunk]:CPythonPlayer::`vector deleting destructor'
PUBLIC	??$construct_at@PAU?$_Tree_node@U?$pair@$$CBKUSPartyMemberInfo@CPythonPlayer@@@std@@PAX@std@@AAPAU12@$0A@@std@@YAPAPAU?$_Tree_node@U?$pair@$$CBKUSPartyMemberInfo@CPythonPlayer@@@std@@PAX@0@QAPAU10@AAPAU10@@Z ; std::construct_at<std::_Tree_node<std::pair<unsigned long const ,CPythonPlayer::SPartyMemberInfo>,void *> *,std::_Tree_node<std::pair<unsigned long const ,CPythonPlayer::SPartyMemberInfo>,void *> * &,0>
PUBLIC	??$_Voidify_iter@PAU?$pair@$$CBKUSPartyMemberInfo@CPythonPlayer@@@std@@@std@@YAPAXPAU?$pair@$$CBKUSPartyMemberInfo@CPythonPlayer@@@0@@Z ; std::_Voidify_iter<std::pair<unsigned long const ,CPythonPlayer::SPartyMemberInfo> *>
PUBLIC	??$construct_at@U?$pair@$$CBKUSPartyMemberInfo@CPythonPlayer@@@std@@U?$pair@KUSPartyMemberInfo@CPythonPlayer@@@2@$0A@@std@@YAPAU?$pair@$$CBKUSPartyMemberInfo@CPythonPlayer@@@0@QAU10@$$QAU?$pair@KUSPartyMemberInfo@CPythonPlayer@@@0@@Z ; std::construct_at<std::pair<unsigned long const ,CPythonPlayer::SPartyMemberInfo>,std::pair<unsigned long,CPythonPlayer::SPartyMemberInfo>,0>
PUBLIC	??$?0KUSPartyMemberInfo@CPythonPlayer@@$0A@@?$pair@$$CBKUSPartyMemberInfo@CPythonPlayer@@@std@@QAE@$$QAU?$pair@KUSPartyMemberInfo@CPythonPlayer@@@1@@Z ; std::pair<unsigned long const ,CPythonPlayer::SPartyMemberInfo>::pair<unsigned long const ,CPythonPlayer::SPartyMemberInfo><unsigned long,CPythonPlayer::SPartyMemberInfo,0>
PUBLIC	??$?0V?$tuple@ABK@std@@V?$tuple@$$V@1@$0A@$$Z$S@?$pair@$$CBKK@std@@QAE@AAV?$tuple@ABK@1@AAV?$tuple@$$V@1@U?$integer_sequence@I$0A@@1@U?$integer_sequence@I$S@1@@Z ; std::pair<unsigned long const ,unsigned long>::pair<unsigned long const ,unsigned long><std::tuple<unsigned long const &>,std::tuple<>,0>
PUBLIC	??$forward@PAU?$_Tree_node@U?$pair@$$CBKUSPartyMemberInfo@CPythonPlayer@@@std@@PAX@std@@@std@@YA$$QAPAU?$_Tree_node@U?$pair@$$CBKUSPartyMemberInfo@CPythonPlayer@@@std@@PAX@0@AAPAU10@@Z ; std::forward<std::_Tree_node<std::pair<unsigned long const ,CPythonPlayer::SPartyMemberInfo>,void *> *>
PUBLIC	??$_Construct_in_place@PAU?$_Tree_node@U?$pair@$$CBKUSPartyMemberInfo@CPythonPlayer@@@std@@PAX@std@@AAPAU12@@std@@YAXAAPAU?$_Tree_node@U?$pair@$$CBKUSPartyMemberInfo@CPythonPlayer@@@std@@PAX@0@0@Z ; std::_Construct_in_place<std::_Tree_node<std::pair<unsigned long const ,CPythonPlayer::SPartyMemberInfo>,void *> *,std::_Tree_node<std::pair<unsigned long const ,CPythonPlayer::SPartyMemberInfo>,void *> * &>
PUBLIC	??$construct@U?$pair@$$CBKUSPartyMemberInfo@CPythonPlayer@@@std@@U?$pair@KUSPartyMemberInfo@CPythonPlayer@@@2@@?$_Default_allocator_traits@V?$allocator@U?$_Tree_node@U?$pair@$$CBKUSPartyMemberInfo@CPythonPlayer@@@std@@PAX@std@@@std@@@std@@SAXAAV?$allocator@U?$_Tree_node@U?$pair@$$CBKUSPartyMemberInfo@CPythonPlayer@@@std@@PAX@std@@@1@QAU?$pair@$$CBKUSPartyMemberInfo@CPythonPlayer@@@1@$$QAU?$pair@KUSPartyMemberInfo@CPythonPlayer@@@1@@Z ; std::_Default_allocator_traits<std::allocator<std::_Tree_node<std::pair<unsigned long const ,CPythonPlayer::SPartyMemberInfo>,void *> > >::construct<std::pair<unsigned long const ,CPythonPlayer::SPartyMemberInfo>,std::pair<unsigned long,CPythonPlayer::SPartyMemberInfo> >
PUBLIC	??0?$_Alloc_construct_ptr@V?$allocator@U?$_Tree_node@U?$pair@$$CBKUSPartyMemberInfo@CPythonPlayer@@@std@@PAX@std@@@std@@@std@@QAE@AAV?$allocator@U?$_Tree_node@U?$pair@$$CBKUSPartyMemberInfo@CPythonPlayer@@@std@@PAX@std@@@1@@Z ; std::_Alloc_construct_ptr<std::allocator<std::_Tree_node<std::pair<unsigned long const ,CPythonPlayer::SPartyMemberInfo>,void *> > >::_Alloc_construct_ptr<std::allocator<std::_Tree_node<std::pair<unsigned long const ,CPythonPlayer::SPartyMemberInfo>,void *> > >
PUBLIC	?_Allocate@?$_Alloc_construct_ptr@V?$allocator@U?$_Tree_node@U?$pair@$$CBKUSPartyMemberInfo@CPythonPlayer@@@std@@PAX@std@@@std@@@std@@QAEXXZ ; std::_Alloc_construct_ptr<std::allocator<std::_Tree_node<std::pair<unsigned long const ,CPythonPlayer::SPartyMemberInfo>,void *> > >::_Allocate
PUBLIC	??0?$_Tree_temp_node_alloc@V?$allocator@U?$_Tree_node@U?$pair@$$CBKUSPartyMemberInfo@CPythonPlayer@@@std@@PAX@std@@@std@@@std@@QAE@AAV?$allocator@U?$_Tree_node@U?$pair@$$CBKUSPartyMemberInfo@CPythonPlayer@@@std@@PAX@std@@@1@@Z ; std::_Tree_temp_node_alloc<std::allocator<std::_Tree_node<std::pair<unsigned long const ,CPythonPlayer::SPartyMemberInfo>,void *> > >::_Tree_temp_node_alloc<std::allocator<std::_Tree_node<std::pair<unsigned long const ,CPythonPlayer::SPartyMemberInfo>,void *> > >
PUBLIC	??$exchange@PAU?$_Tree_node@U?$pair@$$CBKUSPartyMemberInfo@CPythonPlayer@@@std@@PAX@std@@$$T@std@@YAPAU?$_Tree_node@U?$pair@$$CBKUSPartyMemberInfo@CPythonPlayer@@@std@@PAX@0@AAPAU10@$$QA$$T@Z ; std::exchange<std::_Tree_node<std::pair<unsigned long const ,CPythonPlayer::SPartyMemberInfo>,void *> *,std::nullptr_t>
PUBLIC	??$?0ABK$$Z$$V@?$pair@$$CBKK@std@@QAE@Upiecewise_construct_t@1@V?$tuple@ABK@1@V?$tuple@$$V@1@@Z ; std::pair<unsigned long const ,unsigned long>::pair<unsigned long const ,unsigned long><unsigned long const &>
PUBLIC	??$construct_at@U?$pair@$$CBKK@std@@ABUpiecewise_construct_t@2@V?$tuple@ABK@2@V?$tuple@$$V@2@$0A@@std@@YAPAU?$pair@$$CBKK@0@QAU10@ABUpiecewise_construct_t@0@$$QAV?$tuple@ABK@0@$$QAV?$tuple@$$V@0@@Z ; std::construct_at<std::pair<unsigned long const ,unsigned long>,std::piecewise_construct_t const &,std::tuple<unsigned long const &>,std::tuple<>,0>
PUBLIC	??$forward@V?$_Tree_iterator@V?$_Tree_val@U?$_Tree_simple_types@U?$pair@$$CBKUSPartyMemberInfo@CPythonPlayer@@@std@@@std@@@std@@@std@@@std@@YA$$QAV?$_Tree_iterator@V?$_Tree_val@U?$_Tree_simple_types@U?$pair@$$CBKUSPartyMemberInfo@CPythonPlayer@@@std@@@std@@@std@@@0@AAV10@@Z ; std::forward<std::_Tree_iterator<std::_Tree_val<std::_Tree_simple_types<std::pair<unsigned long const ,CPythonPlayer::SPartyMemberInfo> > > > >
PUBLIC	??$?0PAU?$_Tree_node@U?$pair@$$CBKUSPartyMemberInfo@CPythonPlayer@@@std@@PAX@std@@_N$0A@@?$pair@PAU?$_Tree_node@U?$pair@$$CBKUSPartyMemberInfo@CPythonPlayer@@@std@@PAX@std@@_N@std@@QAE@$$QAPAU?$_Tree_node@U?$pair@$$CBKUSPartyMemberInfo@CPythonPlayer@@@std@@PAX@1@$$QA_N@Z ; std::pair<std::_Tree_node<std::pair<unsigned long const ,CPythonPlayer::SPartyMemberInfo>,void *> *,bool>::pair<std::_Tree_node<std::pair<unsigned long const ,CPythonPlayer::SPartyMemberInfo>,void *> *,bool><std::_Tree_node<std::pair<unsigned long const ,CPythonPlayer::SPartyMemberInfo>,void *> *,bool,0>
PUBLIC	??$?0AAPAU?$_Tree_node@U?$pair@$$CBKUSPartyMemberInfo@CPythonPlayer@@@std@@PAX@std@@_N$0A@@?$pair@PAU?$_Tree_node@U?$pair@$$CBKUSPartyMemberInfo@CPythonPlayer@@@std@@PAX@std@@_N@std@@QAE@AAPAU?$_Tree_node@U?$pair@$$CBKUSPartyMemberInfo@CPythonPlayer@@@std@@PAX@1@$$QA_N@Z ; std::pair<std::_Tree_node<std::pair<unsigned long const ,CPythonPlayer::SPartyMemberInfo>,void *> *,bool>::pair<std::_Tree_node<std::pair<unsigned long const ,CPythonPlayer::SPartyMemberInfo>,void *> *,bool><std::_Tree_node<std::pair<unsigned long const ,CPythonPlayer::SPartyMemberInfo>,void *> * &,bool,0>
PUBLIC	??$?0U?$pair@KUSPartyMemberInfo@CPythonPlayer@@@std@@@?$_Tree_temp_node@V?$allocator@U?$_Tree_node@U?$pair@$$CBKUSPartyMemberInfo@CPythonPlayer@@@std@@PAX@std@@@std@@@std@@QAE@AAV?$allocator@U?$_Tree_node@U?$pair@$$CBKUSPartyMemberInfo@CPythonPlayer@@@std@@PAX@std@@@1@PAU?$_Tree_node@U?$pair@$$CBKUSPartyMemberInfo@CPythonPlayer@@@std@@PAX@1@$$QAU?$pair@KUSPartyMemberInfo@CPythonPlayer@@@1@@Z ; std::_Tree_temp_node<std::allocator<std::_Tree_node<std::pair<unsigned long const ,CPythonPlayer::SPartyMemberInfo>,void *> > >::_Tree_temp_node<std::allocator<std::_Tree_node<std::pair<unsigned long const ,CPythonPlayer::SPartyMemberInfo>,void *> > ><std::pair<unsigned long,CPythonPlayer::SPartyMemberInfo> >
PUBLIC	?_Get_first@?$_Compressed_pair@V?$allocator@U?$_Tree_node@U?$pair@$$CBKUSPartyMemberInfo@CPythonPlayer@@@std@@PAX@std@@@std@@V?$_Tree_val@U?$_Tree_simple_types@U?$pair@$$CBKUSPartyMemberInfo@CPythonPlayer@@@std@@@std@@@2@$00@std@@QBEABV?$allocator@U?$_Tree_node@U?$pair@$$CBKUSPartyMemberInfo@CPythonPlayer@@@std@@PAX@std@@@2@XZ ; std::_Compressed_pair<std::allocator<std::_Tree_node<std::pair<unsigned long const ,CPythonPlayer::SPartyMemberInfo>,void *> >,std::_Tree_val<std::_Tree_simple_types<std::pair<unsigned long const ,CPythonPlayer::SPartyMemberInfo> > >,1>::_Get_first
PUBLIC	?max_size@?$_Default_allocator_traits@V?$allocator@U?$_Tree_node@U?$pair@$$CBKUSPartyMemberInfo@CPythonPlayer@@@std@@PAX@std@@@std@@@std@@SAIABV?$allocator@U?$_Tree_node@U?$pair@$$CBKUSPartyMemberInfo@CPythonPlayer@@@std@@PAX@std@@@2@@Z ; std::_Default_allocator_traits<std::allocator<std::_Tree_node<std::pair<unsigned long const ,CPythonPlayer::SPartyMemberInfo>,void *> > >::max_size
PUBLIC	?_Getal@?$_Tree@V?$_Tmap_traits@KUSPartyMemberInfo@CPythonPlayer@@U?$less@K@std@@V?$allocator@U?$pair@$$CBKUSPartyMemberInfo@CPythonPlayer@@@std@@@4@$0A@@std@@@std@@IBEABV?$allocator@U?$_Tree_node@U?$pair@$$CBKUSPartyMemberInfo@CPythonPlayer@@@std@@PAX@std@@@2@XZ ; std::_Tree<std::_Tmap_traits<unsigned long,CPythonPlayer::SPartyMemberInfo,std::less<unsigned long>,std::allocator<std::pair<unsigned long const ,CPythonPlayer::SPartyMemberInfo> >,0> >::_Getal
PUBLIC	?max_size@?$_Tree@V?$_Tmap_traits@KUSPartyMemberInfo@CPythonPlayer@@U?$less@K@std@@V?$allocator@U?$pair@$$CBKUSPartyMemberInfo@CPythonPlayer@@@std@@@4@$0A@@std@@@std@@QBEIXZ ; std::_Tree<std::_Tmap_traits<unsigned long,CPythonPlayer::SPartyMemberInfo,std::less<unsigned long>,std::allocator<std::pair<unsigned long const ,CPythonPlayer::SPartyMemberInfo> >,0> >::max_size
PUBLIC	??1?$_Alloc_construct_ptr@V?$allocator@U?$_Tree_node@U?$pair@$$CBKUSPartyMemberInfo@CPythonPlayer@@@std@@PAX@std@@@std@@@std@@QAE@XZ ; std::_Alloc_construct_ptr<std::allocator<std::_Tree_node<std::pair<unsigned long const ,CPythonPlayer::SPartyMemberInfo>,void *> > >::~_Alloc_construct_ptr<std::allocator<std::_Tree_node<std::pair<unsigned long const ,CPythonPlayer::SPartyMemberInfo>,void *> > >
PUBLIC	??1?$_Tree_temp_node_alloc@V?$allocator@U?$_Tree_node@U?$pair@$$CBKUSPartyMemberInfo@CPythonPlayer@@@std@@PAX@std@@@std@@@std@@QAE@XZ ; std::_Tree_temp_node_alloc<std::allocator<std::_Tree_node<std::pair<unsigned long const ,CPythonPlayer::SPartyMemberInfo>,void *> > >::~_Tree_temp_node_alloc<std::allocator<std::_Tree_node<std::pair<unsigned long const ,CPythonPlayer::SPartyMemberInfo>,void *> > >
PUBLIC	?_Check_grow_by_1@?$_Tree@V?$_Tmap_traits@KUSPartyMemberInfo@CPythonPlayer@@U?$less@K@std@@V?$allocator@U?$pair@$$CBKUSPartyMemberInfo@CPythonPlayer@@@std@@@4@$0A@@std@@@std@@IAEXXZ ; std::_Tree<std::_Tmap_traits<unsigned long,CPythonPlayer::SPartyMemberInfo,std::less<unsigned long>,std::allocator<std::pair<unsigned long const ,CPythonPlayer::SPartyMemberInfo> >,0> >::_Check_grow_by_1
PUBLIC	?_Insert_node@?$_Tree_val@U?$_Tree_simple_types@U?$pair@$$CBKUSPartyMemberInfo@CPythonPlayer@@@std@@@std@@@std@@QAEPAU?$_Tree_node@U?$pair@$$CBKUSPartyMemberInfo@CPythonPlayer@@@std@@PAX@2@U?$_Tree_id@PAU?$_Tree_node@U?$pair@$$CBKUSPartyMemberInfo@CPythonPlayer@@@std@@PAX@std@@@2@QAU32@@Z ; std::_Tree_val<std::_Tree_simple_types<std::pair<unsigned long const ,CPythonPlayer::SPartyMemberInfo> > >::_Insert_node
PUBLIC	?_Release@?$_Alloc_construct_ptr@V?$allocator@U?$_Tree_node@U?$pair@$$CBKUSPartyMemberInfo@CPythonPlayer@@@std@@PAX@std@@@std@@@std@@QAEPAU?$_Tree_node@U?$pair@$$CBKUSPartyMemberInfo@CPythonPlayer@@@std@@PAX@2@XZ ; std::_Alloc_construct_ptr<std::allocator<std::_Tree_node<std::pair<unsigned long const ,CPythonPlayer::SPartyMemberInfo>,void *> > >::_Release
PUBLIC	??1?$_Tree_temp_node@V?$allocator@U?$_Tree_node@U?$pair@$$CBKUSPartyMemberInfo@CPythonPlayer@@@std@@PAX@std@@@std@@@std@@QAE@XZ ; std::_Tree_temp_node<std::allocator<std::_Tree_node<std::pair<unsigned long const ,CPythonPlayer::SPartyMemberInfo>,void *> > >::~_Tree_temp_node<std::allocator<std::_Tree_node<std::pair<unsigned long const ,CPythonPlayer::SPartyMemberInfo>,void *> > >
PUBLIC	?_Extract@?$_In_place_key_extract_map@KU?$pair@KUSPartyMemberInfo@CPythonPlayer@@@std@@@std@@SAABKABU?$pair@KUSPartyMemberInfo@CPythonPlayer@@@2@@Z ; std::_In_place_key_extract_map<unsigned long,std::pair<unsigned long,CPythonPlayer::SPartyMemberInfo> >::_Extract
PUBLIC	??_G?$pair@$$CBKUSPartyMemberInfo@CPythonPlayer@@@std@@QAEPAXI@Z ; std::pair<unsigned long const ,CPythonPlayer::SPartyMemberInfo>::`scalar deleting destructor'
PUBLIC	??1?$pair@$$CBKUSPartyMemberInfo@CPythonPlayer@@@std@@QAE@XZ ; std::pair<unsigned long const ,CPythonPlayer::SPartyMemberInfo>::~pair<unsigned long const ,CPythonPlayer::SPartyMemberInfo>
PUBLIC	??$destroy_at@U?$pair@$$CBKUSPartyMemberInfo@CPythonPlayer@@@std@@@std@@YAXQAU?$pair@$$CBKUSPartyMemberInfo@CPythonPlayer@@@0@@Z ; std::destroy_at<std::pair<unsigned long const ,CPythonPlayer::SPartyMemberInfo> >
PUBLIC	??$_Voidify_iter@PAPAU?$_Tree_node@U?$pair@$$CBKUSPartyMemberInfo@CPythonPlayer@@@std@@PAX@std@@@std@@YAPAXPAPAU?$_Tree_node@U?$pair@$$CBKUSPartyMemberInfo@CPythonPlayer@@@std@@PAX@0@@Z ; std::_Voidify_iter<std::_Tree_node<std::pair<unsigned long const ,CPythonPlayer::SPartyMemberInfo>,void *> * *>
PUBLIC	??$construct_at@PAU?$_Tree_node@U?$pair@$$CBKUSPartyMemberInfo@CPythonPlayer@@@std@@PAX@std@@ABQAU12@$0A@@std@@YAPAPAU?$_Tree_node@U?$pair@$$CBKUSPartyMemberInfo@CPythonPlayer@@@std@@PAX@0@QAPAU10@ABQAU10@@Z ; std::construct_at<std::_Tree_node<std::pair<unsigned long const ,CPythonPlayer::SPartyMemberInfo>,void *> *,std::_Tree_node<std::pair<unsigned long const ,CPythonPlayer::SPartyMemberInfo>,void *> * const &,0>
PUBLIC	??$forward@ABQAU?$_Tree_node@U?$pair@$$CBKUSPartyMemberInfo@CPythonPlayer@@@std@@PAX@std@@@std@@YAABQAU?$_Tree_node@U?$pair@$$CBKUSPartyMemberInfo@CPythonPlayer@@@std@@PAX@0@ABQAU10@@Z ; std::forward<std::_Tree_node<std::pair<unsigned long const ,CPythonPlayer::SPartyMemberInfo>,void *> * const &>
PUBLIC	??$addressof@PAU?$_Tree_node@U?$pair@$$CBKUSPartyMemberInfo@CPythonPlayer@@@std@@PAX@std@@@std@@YAPAPAU?$_Tree_node@U?$pair@$$CBKUSPartyMemberInfo@CPythonPlayer@@@std@@PAX@0@AAPAU10@@Z ; std::addressof<std::_Tree_node<std::pair<unsigned long const ,CPythonPlayer::SPartyMemberInfo>,void *> *>
PUBLIC	??$construct@U?$pair@$$CBKK@std@@ABUpiecewise_construct_t@2@V?$tuple@ABK@2@V?$tuple@$$V@2@@?$_Default_allocator_traits@V?$allocator@U?$_Tree_node@U?$pair@$$CBKK@std@@PAX@std@@@std@@@std@@SAXAAV?$allocator@U?$_Tree_node@U?$pair@$$CBKK@std@@PAX@std@@@1@QAU?$pair@$$CBKK@1@ABUpiecewise_construct_t@1@$$QAV?$tuple@ABK@1@$$QAV?$tuple@$$V@1@@Z ; std::_Default_allocator_traits<std::allocator<std::_Tree_node<std::pair<unsigned long const ,unsigned long>,void *> > >::construct<std::pair<unsigned long const ,unsigned long>,std::piecewise_construct_t const &,std::tuple<unsigned long const &>,std::tuple<> >
PUBLIC	??$_Destroy_in_place@PAU?$_Tree_node@U?$pair@$$CBKUSPartyMemberInfo@CPythonPlayer@@@std@@PAX@std@@@std@@YAXAAPAU?$_Tree_node@U?$pair@$$CBKUSPartyMemberInfo@CPythonPlayer@@@std@@PAX@0@@Z ; std::_Destroy_in_place<std::_Tree_node<std::pair<unsigned long const ,CPythonPlayer::SPartyMemberInfo>,void *> *>
PUBLIC	??$forward@AAPAU?$_Tree_node@U?$pair@$$CBKUSPartyMemberInfo@CPythonPlayer@@@std@@PAX@std@@@std@@YAAAPAU?$_Tree_node@U?$pair@$$CBKUSPartyMemberInfo@CPythonPlayer@@@std@@PAX@0@AAPAU10@@Z ; std::forward<std::_Tree_node<std::pair<unsigned long const ,CPythonPlayer::SPartyMemberInfo>,void *> * &>
PUBLIC	??$?0V?$_Tree_iterator@V?$_Tree_val@U?$_Tree_simple_types@U?$pair@$$CBKUSPartyMemberInfo@CPythonPlayer@@@std@@@std@@@std@@@std@@AB_N$0A@@?$pair@V?$_Tree_iterator@V?$_Tree_val@U?$_Tree_simple_types@U?$pair@$$CBKUSPartyMemberInfo@CPythonPlayer@@@std@@@std@@@std@@@std@@_N@std@@QAE@$$QAV?$_Tree_iterator@V?$_Tree_val@U?$_Tree_simple_types@U?$pair@$$CBKUSPartyMemberInfo@CPythonPlayer@@@std@@@std@@@std@@@1@AB_N@Z ; std::pair<std::_Tree_iterator<std::_Tree_val<std::_Tree_simple_types<std::pair<unsigned long const ,CPythonPlayer::SPartyMemberInfo> > > >,bool>::pair<std::_Tree_iterator<std::_Tree_val<std::_Tree_simple_types<std::pair<unsigned long const ,CPythonPlayer::SPartyMemberInfo> > > >,bool><std::_Tree_iterator<std::_Tree_val<std::_Tree_simple_types<std::pair<unsigned long const ,CPythonPlayer::SPartyMemberInfo> > > >,bool const &,0>
PUBLIC	??$_Emplace@U?$pair@KUSPartyMemberInfo@CPythonPlayer@@@std@@@?$_Tree@V?$_Tmap_traits@KUSPartyMemberInfo@CPythonPlayer@@U?$less@K@std@@V?$allocator@U?$pair@$$CBKUSPartyMemberInfo@CPythonPlayer@@@std@@@4@$0A@@std@@@std@@IAE?AU?$pair@PAU?$_Tree_node@U?$pair@$$CBKUSPartyMemberInfo@CPythonPlayer@@@std@@PAX@std@@_N@1@$$QAU?$pair@KUSPartyMemberInfo@CPythonPlayer@@@1@@Z ; std::_Tree<std::_Tmap_traits<unsigned long,CPythonPlayer::SPartyMemberInfo,std::less<unsigned long>,std::allocator<std::pair<unsigned long const ,CPythonPlayer::SPartyMemberInfo> >,0> >::_Emplace<std::pair<unsigned long,CPythonPlayer::SPartyMemberInfo> >
PUBLIC	?deallocate@?$allocator@U?$_Tree_node@U?$pair@$$CBKUSPartyMemberInfo@CPythonPlayer@@@std@@PAX@std@@@std@@QAEXQAU?$_Tree_node@U?$pair@$$CBKUSPartyMemberInfo@CPythonPlayer@@@std@@PAX@2@I@Z ; std::allocator<std::_Tree_node<std::pair<unsigned long const ,CPythonPlayer::SPartyMemberInfo>,void *> >::deallocate
PUBLIC	??0?$allocator@U?$_Tree_node@U?$pair@$$CBKUSPartyMemberInfo@CPythonPlayer@@@std@@PAX@std@@@std@@QAE@XZ ; std::allocator<std::_Tree_node<std::pair<unsigned long const ,CPythonPlayer::SPartyMemberInfo>,void *> >::allocator<std::_Tree_node<std::pair<unsigned long const ,CPythonPlayer::SPartyMemberInfo>,void *> >
PUBLIC	?deallocate@?$_Default_allocator_traits@V?$allocator@U?$_Tree_node@U?$pair@$$CBKUSPartyMemberInfo@CPythonPlayer@@@std@@PAX@std@@@std@@@std@@SAXAAV?$allocator@U?$_Tree_node@U?$pair@$$CBKUSPartyMemberInfo@CPythonPlayer@@@std@@PAX@std@@@2@QAU?$_Tree_node@U?$pair@$$CBKUSPartyMemberInfo@CPythonPlayer@@@std@@PAX@2@I@Z ; std::_Default_allocator_traits<std::allocator<std::_Tree_node<std::pair<unsigned long const ,CPythonPlayer::SPartyMemberInfo>,void *> > >::deallocate
PUBLIC	??0?$_Tree_val@U?$_Tree_simple_types@U?$pair@$$CBKUSPartyMemberInfo@CPythonPlayer@@@std@@@std@@@std@@QAE@XZ ; std::_Tree_val<std::_Tree_simple_types<std::pair<unsigned long const ,CPythonPlayer::SPartyMemberInfo> > >::_Tree_val<std::_Tree_simple_types<std::pair<unsigned long const ,CPythonPlayer::SPartyMemberInfo> > >
PUBLIC	??$_Get_size_of_n@$0EE@@std@@YAII@Z		; std::_Get_size_of_n<68>
PUBLIC	??$addressof@$$CBV?$_Tree_val@U?$_Tree_simple_types@U?$pair@$$CBKUSPartyMemberInfo@CPythonPlayer@@@std@@@std@@@std@@@std@@YAPBV?$_Tree_val@U?$_Tree_simple_types@U?$pair@$$CBKUSPartyMemberInfo@CPythonPlayer@@@std@@@std@@@0@ABV10@@Z ; std::addressof<std::_Tree_val<std::_Tree_simple_types<std::pair<unsigned long const ,CPythonPlayer::SPartyMemberInfo> > > const >
PUBLIC	??$destroy@U?$pair@$$CBKUSPartyMemberInfo@CPythonPlayer@@@std@@@?$_Default_allocator_traits@V?$allocator@U?$_Tree_node@U?$pair@$$CBKUSPartyMemberInfo@CPythonPlayer@@@std@@PAX@std@@@std@@@std@@SAXAAV?$allocator@U?$_Tree_node@U?$pair@$$CBKUSPartyMemberInfo@CPythonPlayer@@@std@@PAX@std@@@1@QAU?$pair@$$CBKUSPartyMemberInfo@CPythonPlayer@@@1@@Z ; std::_Default_allocator_traits<std::allocator<std::_Tree_node<std::pair<unsigned long const ,CPythonPlayer::SPartyMemberInfo>,void *> > >::destroy<std::pair<unsigned long const ,CPythonPlayer::SPartyMemberInfo> >
PUBLIC	??$_Construct_in_place@PAU?$_Tree_node@U?$pair@$$CBKUSPartyMemberInfo@CPythonPlayer@@@std@@PAX@std@@ABQAU12@@std@@YAXAAPAU?$_Tree_node@U?$pair@$$CBKUSPartyMemberInfo@CPythonPlayer@@@std@@PAX@0@ABQAU10@@Z ; std::_Construct_in_place<std::_Tree_node<std::pair<unsigned long const ,CPythonPlayer::SPartyMemberInfo>,void *> *,std::_Tree_node<std::pair<unsigned long const ,CPythonPlayer::SPartyMemberInfo>,void *> * const &>
PUBLIC	??$_Adl_verify_range@V?$_Tree_unchecked_const_iterator@V?$_Tree_val@U?$_Tree_simple_types@U?$pair@$$CBKUSPartyMemberInfo@CPythonPlayer@@@std@@@std@@@std@@U_Iterator_base0@2@@std@@V12@@std@@YAXABV?$_Tree_unchecked_const_iterator@V?$_Tree_val@U?$_Tree_simple_types@U?$pair@$$CBKUSPartyMemberInfo@CPythonPlayer@@@std@@@std@@@std@@U_Iterator_base0@2@@0@0@Z ; std::_Adl_verify_range<std::_Tree_unchecked_const_iterator<std::_Tree_val<std::_Tree_simple_types<std::pair<unsigned long const ,CPythonPlayer::SPartyMemberInfo> > >,std::_Iterator_base0>,std::_Tree_unchecked_const_iterator<std::_Tree_val<std::_Tree_simple_types<std::pair<unsigned long const ,CPythonPlayer::SPartyMemberInfo> > >,std::_Iterator_base0> >
PUBLIC	??$?0ABQAU?$_Tree_node@U?$pair@$$CBKK@std@@PAX@std@@_N$0A@@?$pair@PAU?$_Tree_node@U?$pair@$$CBKK@std@@PAX@std@@_N@std@@QAE@ABQAU?$_Tree_node@U?$pair@$$CBKK@std@@PAX@1@$$QA_N@Z ; std::pair<std::_Tree_node<std::pair<unsigned long const ,unsigned long>,void *> *,bool>::pair<std::_Tree_node<std::pair<unsigned long const ,unsigned long>,void *> *,bool><std::_Tree_node<std::pair<unsigned long const ,unsigned long>,void *> * const &,bool,0>
PUBLIC	??$?0ABUpiecewise_construct_t@std@@V?$tuple@ABK@1@V?$tuple@$$V@1@@?$_Tree_temp_node@V?$allocator@U?$_Tree_node@U?$pair@$$CBKK@std@@PAX@std@@@std@@@std@@QAE@AAV?$allocator@U?$_Tree_node@U?$pair@$$CBKK@std@@PAX@std@@@1@PAU?$_Tree_node@U?$pair@$$CBKK@std@@PAX@1@ABUpiecewise_construct_t@1@$$QAV?$tuple@ABK@1@$$QAV?$tuple@$$V@1@@Z ; std::_Tree_temp_node<std::allocator<std::_Tree_node<std::pair<unsigned long const ,unsigned long>,void *> > >::_Tree_temp_node<std::allocator<std::_Tree_node<std::pair<unsigned long const ,unsigned long>,void *> > ><std::piecewise_construct_t const &,std::tuple<unsigned long const &>,std::tuple<> >
PUBLIC	??$_Freenode0@V?$allocator@U?$_Tree_node@U?$pair@$$CBKUSPartyMemberInfo@CPythonPlayer@@@std@@PAX@std@@@std@@@?$_Tree_node@U?$pair@$$CBKUSPartyMemberInfo@CPythonPlayer@@@std@@PAX@std@@SAXAAV?$allocator@U?$_Tree_node@U?$pair@$$CBKUSPartyMemberInfo@CPythonPlayer@@@std@@PAX@std@@@1@PAU01@@Z ; std::_Tree_node<std::pair<unsigned long const ,CPythonPlayer::SPartyMemberInfo>,void *>::_Freenode0<std::allocator<std::_Tree_node<std::pair<unsigned long const ,CPythonPlayer::SPartyMemberInfo>,void *> > >
PUBLIC	??$exchange@PAU?$_Tree_node@U?$pair@$$CBKUSPartyMemberInfo@CPythonPlayer@@@std@@PAX@std@@AAPAU12@@std@@YAPAU?$_Tree_node@U?$pair@$$CBKUSPartyMemberInfo@CPythonPlayer@@@std@@PAX@0@AAPAU10@0@Z ; std::exchange<std::_Tree_node<std::pair<unsigned long const ,CPythonPlayer::SPartyMemberInfo>,void *> *,std::_Tree_node<std::pair<unsigned long const ,CPythonPlayer::SPartyMemberInfo>,void *> * &>
PUBLIC	??$_Lower_bound_duplicate@K@?$_Tree@V?$_Tmap_traits@KUSPartyMemberInfo@CPythonPlayer@@U?$less@K@std@@V?$allocator@U?$pair@$$CBKUSPartyMemberInfo@CPythonPlayer@@@std@@@4@$0A@@std@@@std@@IBE_NQAU?$_Tree_node@U?$pair@$$CBKUSPartyMemberInfo@CPythonPlayer@@@std@@PAX@1@ABK@Z ; std::_Tree<std::_Tmap_traits<unsigned long,CPythonPlayer::SPartyMemberInfo,std::less<unsigned long>,std::allocator<std::pair<unsigned long const ,CPythonPlayer::SPartyMemberInfo> >,0> >::_Lower_bound_duplicate<unsigned long>
PUBLIC	??$_Find_lower_bound@K@?$_Tree@V?$_Tmap_traits@KUSPartyMemberInfo@CPythonPlayer@@U?$less@K@std@@V?$allocator@U?$pair@$$CBKUSPartyMemberInfo@CPythonPlayer@@@std@@@4@$0A@@std@@@std@@IBE?AU?$_Tree_find_result@PAU?$_Tree_node@U?$pair@$$CBKUSPartyMemberInfo@CPythonPlayer@@@std@@PAX@std@@@1@ABK@Z ; std::_Tree<std::_Tmap_traits<unsigned long,CPythonPlayer::SPartyMemberInfo,std::less<unsigned long>,std::allocator<std::pair<unsigned long const ,CPythonPlayer::SPartyMemberInfo> >,0> >::_Find_lower_bound<unsigned long>
PUBLIC	??$?0HH$0A@@?$pair@HH@std@@QAE@$$QAH0@Z		; std::pair<int,int>::pair<int,int><int,int,0>
PUBLIC	??$?0AAPAU?$_Tree_node@U?$pair@$$CBKUSPartyMemberInfo@CPythonPlayer@@@std@@PAX@std@@AAPAU01@$0A@@?$pair@PAU?$_Tree_node@U?$pair@$$CBKUSPartyMemberInfo@CPythonPlayer@@@std@@PAX@std@@PAU12@@std@@QAE@AAPAU?$_Tree_node@U?$pair@$$CBKUSPartyMemberInfo@CPythonPlayer@@@std@@PAX@1@0@Z ; std::pair<std::_Tree_node<std::pair<unsigned long const ,CPythonPlayer::SPartyMemberInfo>,void *> *,std::_Tree_node<std::pair<unsigned long const ,CPythonPlayer::SPartyMemberInfo>,void *> *>::pair<std::_Tree_node<std::pair<unsigned long const ,CPythonPlayer::SPartyMemberInfo>,void *> *,std::_Tree_node<std::pair<unsigned long const ,CPythonPlayer::SPartyMemberInfo>,void *> *><std::_Tree_node<std::pair<unsigned long const ,CPythonPlayer::SPartyMemberInfo>,void *> * &,std::_Tree_node<std::pair<unsigned long const ,CPythonPlayer::SPartyMemberInfo>,void *> * &,0>
PUBLIC	??$_Kfn@$$CBKUSPartyMemberInfo@CPythonPlayer@@@?$_Tmap_traits@KUSPartyMemberInfo@CPythonPlayer@@U?$less@K@std@@V?$allocator@U?$pair@$$CBKUSPartyMemberInfo@CPythonPlayer@@@std@@@4@$0A@@std@@SAABKABU?$pair@$$CBKUSPartyMemberInfo@CPythonPlayer@@@1@@Z ; std::_Tmap_traits<unsigned long,CPythonPlayer::SPartyMemberInfo,std::less<unsigned long>,std::allocator<std::pair<unsigned long const ,CPythonPlayer::SPartyMemberInfo> >,0>::_Kfn<unsigned long const ,CPythonPlayer::SPartyMemberInfo>
PUBLIC	??$emplace@U?$pair@KUSPartyMemberInfo@CPythonPlayer@@@std@@@?$_Tree@V?$_Tmap_traits@KUSPartyMemberInfo@CPythonPlayer@@U?$less@K@std@@V?$allocator@U?$pair@$$CBKUSPartyMemberInfo@CPythonPlayer@@@std@@@4@$0A@@std@@@std@@QAE?AU?$pair@V?$_Tree_iterator@V?$_Tree_val@U?$_Tree_simple_types@U?$pair@$$CBKUSPartyMemberInfo@CPythonPlayer@@@std@@@std@@@std@@@std@@_N@1@$$QAU?$pair@KUSPartyMemberInfo@CPythonPlayer@@@1@@Z ; std::_Tree<std::_Tmap_traits<unsigned long,CPythonPlayer::SPartyMemberInfo,std::less<unsigned long>,std::allocator<std::pair<unsigned long const ,CPythonPlayer::SPartyMemberInfo> >,0> >::emplace<std::pair<unsigned long,CPythonPlayer::SPartyMemberInfo> >
PUBLIC	??$forward@U?$pair@KUSPartyMemberInfo@CPythonPlayer@@@std@@@std@@YA$$QAU?$pair@KUSPartyMemberInfo@CPythonPlayer@@@0@AAU10@@Z ; std::forward<std::pair<unsigned long,CPythonPlayer::SPartyMemberInfo> >
PUBLIC	??0SPartyMemberInfo@CPythonPlayer@@QAE@$$QAU01@@Z ; CPythonPlayer::SPartyMemberInfo::SPartyMemberInfo
PUBLIC	??$?0AAKUSPartyMemberInfo@CPythonPlayer@@$0A@@?$pair@KUSPartyMemberInfo@CPythonPlayer@@@std@@QAE@AAK$$QAUSPartyMemberInfo@CPythonPlayer@@@Z ; std::pair<unsigned long,CPythonPlayer::SPartyMemberInfo>::pair<unsigned long,CPythonPlayer::SPartyMemberInfo><unsigned long &,CPythonPlayer::SPartyMemberInfo,0>
PUBLIC	??$forward@USPartyMemberInfo@CPythonPlayer@@@std@@YA$$QAUSPartyMemberInfo@CPythonPlayer@@AAU12@@Z ; std::forward<CPythonPlayer::SPartyMemberInfo>
PUBLIC	??$move@AAUSQuickSlot@@@std@@YA$$QAUSQuickSlot@@AAU1@@Z ; std::move<SQuickSlot &>
PUBLIC	??$?0$$V@?$_Compressed_pair@V?$allocator@U?$_Tree_node@U?$pair@$$CBKUSPartyMemberInfo@CPythonPlayer@@@std@@PAX@std@@@std@@V?$_Tree_val@U?$_Tree_simple_types@U?$pair@$$CBKUSPartyMemberInfo@CPythonPlayer@@@std@@@std@@@2@$00@std@@QAE@U_Zero_then_variadic_args_t@1@@Z ; std::_Compressed_pair<std::allocator<std::_Tree_node<std::pair<unsigned long const ,CPythonPlayer::SPartyMemberInfo>,void *> >,std::_Tree_val<std::_Tree_simple_types<std::pair<unsigned long const ,CPythonPlayer::SPartyMemberInfo> > >,1>::_Compressed_pair<std::allocator<std::_Tree_node<std::pair<unsigned long const ,CPythonPlayer::SPartyMemberInfo>,void *> >,std::_Tree_val<std::_Tree_simple_types<std::pair<unsigned long const ,CPythonPlayer::SPartyMemberInfo> > >,1><>
PUBLIC	?_Get_first@?$_Compressed_pair@U?$less@K@std@@V?$_Compressed_pair@V?$allocator@U?$_Tree_node@U?$pair@$$CBKUSPartyMemberInfo@CPythonPlayer@@@std@@PAX@std@@@std@@V?$_Tree_val@U?$_Tree_simple_types@U?$pair@$$CBKUSPartyMemberInfo@CPythonPlayer@@@std@@@std@@@2@$00@2@$00@std@@QBEABU?$less@K@2@XZ ; std::_Compressed_pair<std::less<unsigned long>,std::_Compressed_pair<std::allocator<std::_Tree_node<std::pair<unsigned long const ,CPythonPlayer::SPartyMemberInfo>,void *> >,std::_Tree_val<std::_Tree_simple_types<std::pair<unsigned long const ,CPythonPlayer::SPartyMemberInfo> > >,1>,1>::_Get_first
PUBLIC	?allocate@?$allocator@U?$_Tree_node@U?$pair@$$CBKUSPartyMemberInfo@CPythonPlayer@@@std@@PAX@std@@@std@@QAEPAU?$_Tree_node@U?$pair@$$CBKUSPartyMemberInfo@CPythonPlayer@@@std@@PAX@2@I@Z ; std::allocator<std::_Tree_node<std::pair<unsigned long const ,CPythonPlayer::SPartyMemberInfo>,void *> >::allocate
PUBLIC	?_Getcomp@?$_Tree@V?$_Tmap_traits@KUSPartyMemberInfo@CPythonPlayer@@U?$less@K@std@@V?$allocator@U?$pair@$$CBKUSPartyMemberInfo@CPythonPlayer@@@std@@@4@$0A@@std@@@std@@IBEABU?$less@K@2@XZ ; std::_Tree<std::_Tmap_traits<unsigned long,CPythonPlayer::SPartyMemberInfo,std::less<unsigned long>,std::allocator<std::pair<unsigned long const ,CPythonPlayer::SPartyMemberInfo> >,0> >::_Getcomp
PUBLIC	?_Get_scary@?$_Tree@V?$_Tmap_traits@KUSPartyMemberInfo@CPythonPlayer@@U?$less@K@std@@V?$allocator@U?$pair@$$CBKUSPartyMemberInfo@CPythonPlayer@@@std@@@4@$0A@@std@@@std@@IBEPBV?$_Tree_val@U?$_Tree_simple_types@U?$pair@$$CBKUSPartyMemberInfo@CPythonPlayer@@@std@@@std@@@2@XZ ; std::_Tree<std::_Tmap_traits<unsigned long,CPythonPlayer::SPartyMemberInfo,std::less<unsigned long>,std::allocator<std::pair<unsigned long const ,CPythonPlayer::SPartyMemberInfo> >,0> >::_Get_scary
PUBLIC	??$_Freenode@V?$allocator@U?$_Tree_node@U?$pair@$$CBKUSPartyMemberInfo@CPythonPlayer@@@std@@PAX@std@@@std@@@?$_Tree_node@U?$pair@$$CBKUSPartyMemberInfo@CPythonPlayer@@@std@@PAX@std@@SAXAAV?$allocator@U?$_Tree_node@U?$pair@$$CBKUSPartyMemberInfo@CPythonPlayer@@@std@@PAX@std@@@1@PAU01@@Z ; std::_Tree_node<std::pair<unsigned long const ,CPythonPlayer::SPartyMemberInfo>,void *>::_Freenode<std::allocator<std::_Tree_node<std::pair<unsigned long const ,CPythonPlayer::SPartyMemberInfo>,void *> > >
PUBLIC	??$_Buyheadnode@V?$allocator@U?$_Tree_node@U?$pair@$$CBKUSPartyMemberInfo@CPythonPlayer@@@std@@PAX@std@@@std@@@?$_Tree_node@U?$pair@$$CBKUSPartyMemberInfo@CPythonPlayer@@@std@@PAX@std@@SAPAU01@AAV?$allocator@U?$_Tree_node@U?$pair@$$CBKUSPartyMemberInfo@CPythonPlayer@@@std@@PAX@std@@@1@@Z ; std::_Tree_node<std::pair<unsigned long const ,CPythonPlayer::SPartyMemberInfo>,void *>::_Buyheadnode<std::allocator<std::_Tree_node<std::pair<unsigned long const ,CPythonPlayer::SPartyMemberInfo>,void *> > >
PUBLIC	??$?0ABU?$less@K@std@@U_Zero_then_variadic_args_t@1@@?$_Compressed_pair@U?$less@K@std@@V?$_Compressed_pair@V?$allocator@U?$_Tree_node@U?$pair@$$CBKUSPartyMemberInfo@CPythonPlayer@@@std@@PAX@std@@@std@@V?$_Tree_val@U?$_Tree_simple_types@U?$pair@$$CBKUSPartyMemberInfo@CPythonPlayer@@@std@@@std@@@2@$00@2@$00@std@@QAE@U_One_then_variadic_args_t@1@ABU?$less@K@1@$$QAU_Zero_then_variadic_args_t@1@@Z ; std::_Compressed_pair<std::less<unsigned long>,std::_Compressed_pair<std::allocator<std::_Tree_node<std::pair<unsigned long const ,CPythonPlayer::SPartyMemberInfo>,void *> >,std::_Tree_val<std::_Tree_simple_types<std::pair<unsigned long const ,CPythonPlayer::SPartyMemberInfo> > >,1>,1>::_Compressed_pair<std::less<unsigned long>,std::_Compressed_pair<std::allocator<std::_Tree_node<std::pair<unsigned long const ,CPythonPlayer::SPartyMemberInfo>,void *> >,std::_Tree_val<std::_Tree_simple_types<std::pair<unsigned long const ,CPythonPlayer::SPartyMemberInfo> > >,1>,1><std::less<unsigned long> const &,std::_Zero_then_variadic_args_t>
PUBLIC	??$_Get_unwrapped@AAV?$_Tree_unchecked_const_iterator@V?$_Tree_val@U?$_Tree_simple_types@U?$pair@$$CBKUSPartyMemberInfo@CPythonPlayer@@@std@@@std@@@std@@U_Iterator_base0@2@@std@@@std@@YA?A_TAAV?$_Tree_unchecked_const_iterator@V?$_Tree_val@U?$_Tree_simple_types@U?$pair@$$CBKUSPartyMemberInfo@CPythonPlayer@@@std@@@std@@@std@@U_Iterator_base0@2@@0@@Z ; std::_Get_unwrapped<std::_Tree_unchecked_const_iterator<std::_Tree_val<std::_Tree_simple_types<std::pair<unsigned long const ,CPythonPlayer::SPartyMemberInfo> > >,std::_Iterator_base0> &>
PUBLIC	??$distance@V?$_Tree_unchecked_const_iterator@V?$_Tree_val@U?$_Tree_simple_types@U?$pair@$$CBKUSPartyMemberInfo@CPythonPlayer@@@std@@@std@@@std@@U_Iterator_base0@2@@std@@@std@@YAHV?$_Tree_unchecked_const_iterator@V?$_Tree_val@U?$_Tree_simple_types@U?$pair@$$CBKUSPartyMemberInfo@CPythonPlayer@@@std@@@std@@@std@@U_Iterator_base0@2@@0@0@Z ; std::distance<std::_Tree_unchecked_const_iterator<std::_Tree_val<std::_Tree_simple_types<std::pair<unsigned long const ,CPythonPlayer::SPartyMemberInfo> > >,std::_Iterator_base0> >
PUBLIC	??$addressof@V?$_Tree_val@U?$_Tree_simple_types@U?$pair@$$CBKUSPartyMemberInfo@CPythonPlayer@@@std@@@std@@@std@@@std@@YAPAV?$_Tree_val@U?$_Tree_simple_types@U?$pair@$$CBKUSPartyMemberInfo@CPythonPlayer@@@std@@@std@@@0@AAV10@@Z ; std::addressof<std::_Tree_val<std::_Tree_simple_types<std::pair<unsigned long const ,CPythonPlayer::SPartyMemberInfo> > > >
PUBLIC	??$addressof@U?$pair@$$CBKUSPartyMemberInfo@CPythonPlayer@@@std@@@std@@YAPAU?$pair@$$CBKUSPartyMemberInfo@CPythonPlayer@@@0@AAU10@@Z ; std::addressof<std::pair<unsigned long const ,CPythonPlayer::SPartyMemberInfo> >
PUBLIC	??$_Try_emplace@ABK$$V@?$map@KKU?$less@K@std@@V?$allocator@U?$pair@$$CBKK@std@@@2@@std@@AAE?AU?$pair@PAU?$_Tree_node@U?$pair@$$CBKK@std@@PAX@std@@_N@1@ABK@Z ; std::map<unsigned long,unsigned long,std::less<unsigned long>,std::allocator<std::pair<unsigned long const ,unsigned long> > >::_Try_emplace<unsigned long const &>
PUBLIC	??$_Erase_head@V?$allocator@U?$_Tree_node@U?$pair@$$CBKUSPartyMemberInfo@CPythonPlayer@@@std@@PAX@std@@@std@@@?$_Tree_val@U?$_Tree_simple_types@U?$pair@$$CBKUSPartyMemberInfo@CPythonPlayer@@@std@@@std@@@std@@QAEXAAV?$allocator@U?$_Tree_node@U?$pair@$$CBKUSPartyMemberInfo@CPythonPlayer@@@std@@PAX@std@@@1@@Z ; std::_Tree_val<std::_Tree_simple_types<std::pair<unsigned long const ,CPythonPlayer::SPartyMemberInfo> > >::_Erase_head<std::allocator<std::_Tree_node<std::pair<unsigned long const ,CPythonPlayer::SPartyMemberInfo>,void *> > >
PUBLIC	??$_Erase_tree@V?$allocator@U?$_Tree_node@U?$pair@$$CBKUSPartyMemberInfo@CPythonPlayer@@@std@@PAX@std@@@std@@@?$_Tree_val@U?$_Tree_simple_types@U?$pair@$$CBKUSPartyMemberInfo@CPythonPlayer@@@std@@@std@@@std@@QAEXAAV?$allocator@U?$_Tree_node@U?$pair@$$CBKUSPartyMemberInfo@CPythonPlayer@@@std@@PAX@std@@@1@PAU?$_Tree_node@U?$pair@$$CBKUSPartyMemberInfo@CPythonPlayer@@@std@@PAX@1@@Z ; std::_Tree_val<std::_Tree_simple_types<std::pair<unsigned long const ,CPythonPlayer::SPartyMemberInfo> > >::_Erase_tree<std::allocator<std::_Tree_node<std::pair<unsigned long const ,CPythonPlayer::SPartyMemberInfo>,void *> > >
PUBLIC	??$_Find@K@?$_Tree@V?$_Tmap_traits@KUSPartyMemberInfo@CPythonPlayer@@U?$less@K@std@@V?$allocator@U?$pair@$$CBKUSPartyMemberInfo@CPythonPlayer@@@std@@@4@$0A@@std@@@std@@ABEPAU?$_Tree_node@U?$pair@$$CBKUSPartyMemberInfo@CPythonPlayer@@@std@@PAX@1@ABK@Z ; std::_Tree<std::_Tmap_traits<unsigned long,CPythonPlayer::SPartyMemberInfo,std::less<unsigned long>,std::allocator<std::pair<unsigned long const ,CPythonPlayer::SPartyMemberInfo> >,0> >::_Find<unsigned long>
PUBLIC	??$make_pair@HH@std@@YA?AU?$pair@HH@0@$$QAH0@Z	; std::make_pair<int,int>
PUBLIC	??$_Eqrange@K@?$_Tree@V?$_Tmap_traits@KUSPartyMemberInfo@CPythonPlayer@@U?$less@K@std@@V?$allocator@U?$pair@$$CBKUSPartyMemberInfo@CPythonPlayer@@@std@@@4@$0A@@std@@@std@@IBE?AU?$pair@PAU?$_Tree_node@U?$pair@$$CBKUSPartyMemberInfo@CPythonPlayer@@@std@@PAX@std@@PAU12@@1@ABK@Z ; std::_Tree<std::_Tmap_traits<unsigned long,CPythonPlayer::SPartyMemberInfo,std::less<unsigned long>,std::allocator<std::pair<unsigned long const ,CPythonPlayer::SPartyMemberInfo> >,0> >::_Eqrange<unsigned long>
PUBLIC	??$insert@U?$pair@KUSPartyMemberInfo@CPythonPlayer@@@std@@$0A@@?$map@KUSPartyMemberInfo@CPythonPlayer@@U?$less@K@std@@V?$allocator@U?$pair@$$CBKUSPartyMemberInfo@CPythonPlayer@@@std@@@4@@std@@QAE?AU?$pair@V?$_Tree_iterator@V?$_Tree_val@U?$_Tree_simple_types@U?$pair@$$CBKUSPartyMemberInfo@CPythonPlayer@@@std@@@std@@@std@@@std@@_N@1@$$QAU?$pair@KUSPartyMemberInfo@CPythonPlayer@@@1@@Z ; std::map<unsigned long,CPythonPlayer::SPartyMemberInfo,std::less<unsigned long>,std::allocator<std::pair<unsigned long const ,CPythonPlayer::SPartyMemberInfo> > >::insert<std::pair<unsigned long,CPythonPlayer::SPartyMemberInfo>,0>
PUBLIC	??$make_pair@AAKUSPartyMemberInfo@CPythonPlayer@@@std@@YA?AU?$pair@KUSPartyMemberInfo@CPythonPlayer@@@0@AAK$$QAUSPartyMemberInfo@CPythonPlayer@@@Z ; std::make_pair<unsigned long &,CPythonPlayer::SPartyMemberInfo>
PUBLIC	??$swap@USQuickSlot@@$0A@@std@@YAXAAUSQuickSlot@@0@Z ; std::swap<SQuickSlot,0>
PUBLIC	?_Max@?$_Tree_val@U?$_Tree_simple_types@U?$pair@$$CBKUSPartyMemberInfo@CPythonPlayer@@@std@@@std@@@std@@SAPAU?$_Tree_node@U?$pair@$$CBKUSPartyMemberInfo@CPythonPlayer@@@std@@PAX@2@PAU32@@Z ; std::_Tree_val<std::_Tree_simple_types<std::pair<unsigned long const ,CPythonPlayer::SPartyMemberInfo> > >::_Max
PUBLIC	?_Lrotate@?$_Tree_val@U?$_Tree_simple_types@U?$pair@$$CBKUSPartyMemberInfo@CPythonPlayer@@@std@@@std@@@std@@QAEXPAU?$_Tree_node@U?$pair@$$CBKUSPartyMemberInfo@CPythonPlayer@@@std@@PAX@2@@Z ; std::_Tree_val<std::_Tree_simple_types<std::pair<unsigned long const ,CPythonPlayer::SPartyMemberInfo> > >::_Lrotate
PUBLIC	?_Rrotate@?$_Tree_val@U?$_Tree_simple_types@U?$pair@$$CBKUSPartyMemberInfo@CPythonPlayer@@@std@@@std@@@std@@QAEXPAU?$_Tree_node@U?$pair@$$CBKUSPartyMemberInfo@CPythonPlayer@@@std@@PAX@2@@Z ; std::_Tree_val<std::_Tree_simple_types<std::pair<unsigned long const ,CPythonPlayer::SPartyMemberInfo> > >::_Rrotate
PUBLIC	?_Extract@?$_Tree_val@U?$_Tree_simple_types@U?$pair@$$CBKUSPartyMemberInfo@CPythonPlayer@@@std@@@std@@@std@@QAEPAU?$_Tree_node@U?$pair@$$CBKUSPartyMemberInfo@CPythonPlayer@@@std@@PAX@2@V?$_Tree_unchecked_const_iterator@V?$_Tree_val@U?$_Tree_simple_types@U?$pair@$$CBKUSPartyMemberInfo@CPythonPlayer@@@std@@@std@@@std@@U_Iterator_base0@2@@2@@Z ; std::_Tree_val<std::_Tree_simple_types<std::pair<unsigned long const ,CPythonPlayer::SPartyMemberInfo> > >::_Extract
PUBLIC	??0?$_Tree_unchecked_iterator@V?$_Tree_val@U?$_Tree_simple_types@U?$pair@$$CBKUSPartyMemberInfo@CPythonPlayer@@@std@@@std@@@std@@@std@@QAE@PAU?$_Tree_node@U?$pair@$$CBKUSPartyMemberInfo@CPythonPlayer@@@std@@PAX@1@PBV?$_Tree_val@U?$_Tree_simple_types@U?$pair@$$CBKUSPartyMemberInfo@CPythonPlayer@@@std@@@std@@@1@@Z ; std::_Tree_unchecked_iterator<std::_Tree_val<std::_Tree_simple_types<std::pair<unsigned long const ,CPythonPlayer::SPartyMemberInfo> > > >::_Tree_unchecked_iterator<std::_Tree_val<std::_Tree_simple_types<std::pair<unsigned long const ,CPythonPlayer::SPartyMemberInfo> > > >
PUBLIC	?_Unchecked_begin@?$_Tree@V?$_Tmap_traits@KUSPartyMemberInfo@CPythonPlayer@@U?$less@K@std@@V?$allocator@U?$pair@$$CBKUSPartyMemberInfo@CPythonPlayer@@@std@@@4@$0A@@std@@@std@@QAE?AV?$_Tree_unchecked_iterator@V?$_Tree_val@U?$_Tree_simple_types@U?$pair@$$CBKUSPartyMemberInfo@CPythonPlayer@@@std@@@std@@@std@@@2@XZ ; std::_Tree<std::_Tmap_traits<unsigned long,CPythonPlayer::SPartyMemberInfo,std::less<unsigned long>,std::allocator<std::pair<unsigned long const ,CPythonPlayer::SPartyMemberInfo> >,0> >::_Unchecked_begin
PUBLIC	?_Erase_unchecked@?$_Tree@V?$_Tmap_traits@KUSPartyMemberInfo@CPythonPlayer@@U?$less@K@std@@V?$allocator@U?$pair@$$CBKUSPartyMemberInfo@CPythonPlayer@@@std@@@4@$0A@@std@@@std@@AAEPAU?$_Tree_node@U?$pair@$$CBKUSPartyMemberInfo@CPythonPlayer@@@std@@PAX@2@V?$_Tree_unchecked_const_iterator@V?$_Tree_val@U?$_Tree_simple_types@U?$pair@$$CBKUSPartyMemberInfo@CPythonPlayer@@@std@@@std@@@std@@U_Iterator_base0@2@@2@@Z ; std::_Tree<std::_Tmap_traits<unsigned long,CPythonPlayer::SPartyMemberInfo,std::less<unsigned long>,std::allocator<std::pair<unsigned long const ,CPythonPlayer::SPartyMemberInfo> >,0> >::_Erase_unchecked
PUBLIC	?_Min@?$_Tree_val@U?$_Tree_simple_types@U?$pair@$$CBKUSPartyMemberInfo@CPythonPlayer@@@std@@@std@@@std@@SAPAU?$_Tree_node@U?$pair@$$CBKUSPartyMemberInfo@CPythonPlayer@@@std@@PAX@2@PAU32@@Z ; std::_Tree_val<std::_Tree_simple_types<std::pair<unsigned long const ,CPythonPlayer::SPartyMemberInfo> > >::_Min
PUBLIC	??E?$_Tree_unchecked_const_iterator@V?$_Tree_val@U?$_Tree_simple_types@U?$pair@$$CBKUSPartyMemberInfo@CPythonPlayer@@@std@@@std@@@std@@U_Iterator_base0@2@@std@@QAE?AV01@H@Z ; std::_Tree_unchecked_const_iterator<std::_Tree_val<std::_Tree_simple_types<std::pair<unsigned long const ,CPythonPlayer::SPartyMemberInfo> > >,std::_Iterator_base0>::operator++
PUBLIC	??8?$_Tree_unchecked_const_iterator@V?$_Tree_val@U?$_Tree_simple_types@U?$pair@$$CBKUSPartyMemberInfo@CPythonPlayer@@@std@@@std@@@std@@U_Iterator_base0@2@@std@@QBE_NABV01@@Z ; std::_Tree_unchecked_const_iterator<std::_Tree_val<std::_Tree_simple_types<std::pair<unsigned long const ,CPythonPlayer::SPartyMemberInfo> > >,std::_Iterator_base0>::operator==
PUBLIC	?_Erase_unchecked@?$_Tree@V?$_Tmap_traits@KUSPartyMemberInfo@CPythonPlayer@@U?$less@K@std@@V?$allocator@U?$pair@$$CBKUSPartyMemberInfo@CPythonPlayer@@@std@@@4@$0A@@std@@@std@@AAEPAU?$_Tree_node@U?$pair@$$CBKUSPartyMemberInfo@CPythonPlayer@@@std@@PAX@2@V?$_Tree_unchecked_const_iterator@V?$_Tree_val@U?$_Tree_simple_types@U?$pair@$$CBKUSPartyMemberInfo@CPythonPlayer@@@std@@@std@@@std@@U_Iterator_base0@2@@2@0@Z ; std::_Tree<std::_Tmap_traits<unsigned long,CPythonPlayer::SPartyMemberInfo,std::less<unsigned long>,std::allocator<std::pair<unsigned long const ,CPythonPlayer::SPartyMemberInfo> >,0> >::_Erase_unchecked
PUBLIC	?_Alloc_sentinel_and_proxy@?$_Tree@V?$_Tmap_traits@KUSPartyMemberInfo@CPythonPlayer@@U?$less@K@std@@V?$allocator@U?$pair@$$CBKUSPartyMemberInfo@CPythonPlayer@@@std@@@4@$0A@@std@@@std@@IAEXXZ ; std::_Tree<std::_Tmap_traits<unsigned long,CPythonPlayer::SPartyMemberInfo,std::less<unsigned long>,std::allocator<std::pair<unsigned long const ,CPythonPlayer::SPartyMemberInfo> >,0> >::_Alloc_sentinel_and_proxy
PUBLIC	?_Get_first@?$_Compressed_pair@V?$allocator@U?$_Tree_node@U?$pair@$$CBKUSPartyMemberInfo@CPythonPlayer@@@std@@PAX@std@@@std@@V?$_Tree_val@U?$_Tree_simple_types@U?$pair@$$CBKUSPartyMemberInfo@CPythonPlayer@@@std@@@std@@@2@$00@std@@QAEAAV?$allocator@U?$_Tree_node@U?$pair@$$CBKUSPartyMemberInfo@CPythonPlayer@@@std@@PAX@std@@@2@XZ ; std::_Compressed_pair<std::allocator<std::_Tree_node<std::pair<unsigned long const ,CPythonPlayer::SPartyMemberInfo>,void *> >,std::_Tree_val<std::_Tree_simple_types<std::pair<unsigned long const ,CPythonPlayer::SPartyMemberInfo> > >,1>::_Get_first
PUBLIC	??E?$_Tree_unchecked_const_iterator@V?$_Tree_val@U?$_Tree_simple_types@U?$pair@$$CBKUSPartyMemberInfo@CPythonPlayer@@@std@@@std@@@std@@U_Iterator_base0@2@@std@@QAEAAV01@XZ ; std::_Tree_unchecked_const_iterator<std::_Tree_val<std::_Tree_simple_types<std::pair<unsigned long const ,CPythonPlayer::SPartyMemberInfo> > >,std::_Iterator_base0>::operator++
PUBLIC	??D?$_Tree_const_iterator@V?$_Tree_val@U?$_Tree_simple_types@U?$pair@$$CBKUSPartyMemberInfo@CPythonPlayer@@@std@@@std@@@std@@@std@@QBEABU?$pair@$$CBKUSPartyMemberInfo@CPythonPlayer@@@1@XZ ; std::_Tree_const_iterator<std::_Tree_val<std::_Tree_simple_types<std::pair<unsigned long const ,CPythonPlayer::SPartyMemberInfo> > > >::operator*
PUBLIC	??0?$_Tree@V?$_Tmap_traits@KUSPartyMemberInfo@CPythonPlayer@@U?$less@K@std@@V?$allocator@U?$pair@$$CBKUSPartyMemberInfo@CPythonPlayer@@@std@@@4@$0A@@std@@@std@@QAE@ABU?$less@K@1@@Z ; std::_Tree<std::_Tmap_traits<unsigned long,CPythonPlayer::SPartyMemberInfo,std::less<unsigned long>,std::allocator<std::pair<unsigned long const ,CPythonPlayer::SPartyMemberInfo> >,0> >::_Tree<std::_Tmap_traits<unsigned long,CPythonPlayer::SPartyMemberInfo,std::less<unsigned long>,std::allocator<std::pair<unsigned long const ,CPythonPlayer::SPartyMemberInfo> >,0> >
PUBLIC	?_Erase@?$_Tree@V?$_Tmap_traits@KUSPartyMemberInfo@CPythonPlayer@@U?$less@K@std@@V?$allocator@U?$pair@$$CBKUSPartyMemberInfo@CPythonPlayer@@@std@@@4@$0A@@std@@@std@@AAEIU?$pair@PAU?$_Tree_node@U?$pair@$$CBKUSPartyMemberInfo@CPythonPlayer@@@std@@PAX@std@@PAU12@@2@@Z ; std::_Tree<std::_Tmap_traits<unsigned long,CPythonPlayer::SPartyMemberInfo,std::less<unsigned long>,std::allocator<std::pair<unsigned long const ,CPythonPlayer::SPartyMemberInfo> >,0> >::_Erase
PUBLIC	?_Getal@?$_Tree@V?$_Tmap_traits@KUSPartyMemberInfo@CPythonPlayer@@U?$less@K@std@@V?$allocator@U?$pair@$$CBKUSPartyMemberInfo@CPythonPlayer@@@std@@@4@$0A@@std@@@std@@IAEAAV?$allocator@U?$_Tree_node@U?$pair@$$CBKUSPartyMemberInfo@CPythonPlayer@@@std@@PAX@std@@@2@XZ ; std::_Tree<std::_Tmap_traits<unsigned long,CPythonPlayer::SPartyMemberInfo,std::less<unsigned long>,std::allocator<std::pair<unsigned long const ,CPythonPlayer::SPartyMemberInfo> >,0> >::_Getal
PUBLIC	?_Get_scary@?$_Tree@V?$_Tmap_traits@KUSPartyMemberInfo@CPythonPlayer@@U?$less@K@std@@V?$allocator@U?$pair@$$CBKUSPartyMemberInfo@CPythonPlayer@@@std@@@4@$0A@@std@@@std@@IAEPAV?$_Tree_val@U?$_Tree_simple_types@U?$pair@$$CBKUSPartyMemberInfo@CPythonPlayer@@@std@@@std@@@2@XZ ; std::_Tree<std::_Tmap_traits<unsigned long,CPythonPlayer::SPartyMemberInfo,std::less<unsigned long>,std::allocator<std::pair<unsigned long const ,CPythonPlayer::SPartyMemberInfo> >,0> >::_Get_scary
PUBLIC	?_Orphan_ptr@?$_Tree_val@U?$_Tree_simple_types@U?$pair@$$CBKUSPartyMemberInfo@CPythonPlayer@@@std@@@std@@@std@@QAEXQAU?$_Tree_node@U?$pair@$$CBKUSPartyMemberInfo@CPythonPlayer@@@std@@PAX@2@@Z ; std::_Tree_val<std::_Tree_simple_types<std::pair<unsigned long const ,CPythonPlayer::SPartyMemberInfo> > >::_Orphan_ptr
PUBLIC	??0?$_Tree_unchecked_const_iterator@V?$_Tree_val@U?$_Tree_simple_types@U?$pair@$$CBKUSPartyMemberInfo@CPythonPlayer@@@std@@@std@@@std@@U_Iterator_base0@2@@std@@QAE@PAU?$_Tree_node@U?$pair@$$CBKUSPartyMemberInfo@CPythonPlayer@@@std@@PAX@1@PBV?$_Tree_val@U?$_Tree_simple_types@U?$pair@$$CBKUSPartyMemberInfo@CPythonPlayer@@@std@@@std@@@1@@Z ; std::_Tree_unchecked_const_iterator<std::_Tree_val<std::_Tree_simple_types<std::pair<unsigned long const ,CPythonPlayer::SPartyMemberInfo> > >,std::_Iterator_base0>::_Tree_unchecked_const_iterator<std::_Tree_val<std::_Tree_simple_types<std::pair<unsigned long const ,CPythonPlayer::SPartyMemberInfo> > >,std::_Iterator_base0>
PUBLIC	??E?$_Tree_const_iterator@V?$_Tree_val@U?$_Tree_simple_types@U?$pair@$$CBKUSPartyMemberInfo@CPythonPlayer@@@std@@@std@@@std@@@std@@QAEAAV01@XZ ; std::_Tree_const_iterator<std::_Tree_val<std::_Tree_simple_types<std::pair<unsigned long const ,CPythonPlayer::SPartyMemberInfo> > > >::operator++
PUBLIC	??D?$_Tree_iterator@V?$_Tree_val@U?$_Tree_simple_types@U?$pair@$$CBKUSPartyMemberInfo@CPythonPlayer@@@std@@@std@@@std@@@std@@QBEAAU?$pair@$$CBKUSPartyMemberInfo@CPythonPlayer@@@1@XZ ; std::_Tree_iterator<std::_Tree_val<std::_Tree_simple_types<std::pair<unsigned long const ,CPythonPlayer::SPartyMemberInfo> > > >::operator*
PUBLIC	?pointer_to@?$pointer_traits@PAU?$pair@$$CBKUSPartyMemberInfo@CPythonPlayer@@@std@@@std@@SAPAU?$pair@$$CBKUSPartyMemberInfo@CPythonPlayer@@@2@AAU32@@Z ; std::pointer_traits<std::pair<unsigned long const ,CPythonPlayer::SPartyMemberInfo> *>::pointer_to
PUBLIC	??0?$_Tree_const_iterator@V?$_Tree_val@U?$_Tree_simple_types@U?$pair@$$CBKUSPartyMemberInfo@CPythonPlayer@@@std@@@std@@@std@@@std@@QAE@PAU?$_Tree_node@U?$pair@$$CBKUSPartyMemberInfo@CPythonPlayer@@@std@@PAX@1@PBV?$_Tree_val@U?$_Tree_simple_types@U?$pair@$$CBKUSPartyMemberInfo@CPythonPlayer@@@std@@@std@@@1@@Z ; std::_Tree_const_iterator<std::_Tree_val<std::_Tree_simple_types<std::pair<unsigned long const ,CPythonPlayer::SPartyMemberInfo> > > >::_Tree_const_iterator<std::_Tree_val<std::_Tree_simple_types<std::pair<unsigned long const ,CPythonPlayer::SPartyMemberInfo> > > >
PUBLIC	??_G?$TAbstractSingleton@VIAbstractPlayer@@@@UAEPAXI@Z ; TAbstractSingleton<IAbstractPlayer>::`scalar deleting destructor'
PUBLIC	??_G?$CSingleton@VCPythonPlayer@@@@UAEPAXI@Z	; CSingleton<CPythonPlayer>::`scalar deleting destructor'
PUBLIC	??0?$_Tree_iterator@V?$_Tree_val@U?$_Tree_simple_types@U?$pair@$$CBKUSPartyMemberInfo@CPythonPlayer@@@std@@@std@@@std@@@std@@QAE@PAU?$_Tree_node@U?$pair@$$CBKUSPartyMemberInfo@CPythonPlayer@@@std@@PAX@1@PBV?$_Tree_val@U?$_Tree_simple_types@U?$pair@$$CBKUSPartyMemberInfo@CPythonPlayer@@@std@@@std@@@1@@Z ; std::_Tree_iterator<std::_Tree_val<std::_Tree_simple_types<std::pair<unsigned long const ,CPythonPlayer::SPartyMemberInfo> > > >::_Tree_iterator<std::_Tree_val<std::_Tree_simple_types<std::pair<unsigned long const ,CPythonPlayer::SPartyMemberInfo> > > >
PUBLIC	??A?$map@KKU?$less@K@std@@V?$allocator@U?$pair@$$CBKK@std@@@2@@std@@QAEAAKABK@Z ; std::map<unsigned long,unsigned long,std::less<unsigned long>,std::allocator<std::pair<unsigned long const ,unsigned long> > >::operator[]
PUBLIC	??0?$TAbstractSingleton@VIAbstractPlayer@@@@QAE@XZ ; TAbstractSingleton<IAbstractPlayer>::TAbstractSingleton<IAbstractPlayer>
PUBLIC	??1?$TAbstractSingleton@VIAbstractPlayer@@@@UAE@XZ ; TAbstractSingleton<IAbstractPlayer>::~TAbstractSingleton<IAbstractPlayer>
PUBLIC	??0?$CSingleton@VCPythonPlayer@@@@QAE@XZ	; CSingleton<CPythonPlayer>::CSingleton<CPythonPlayer>
PUBLIC	??1?$CSingleton@VCPythonPlayer@@@@UAE@XZ	; CSingleton<CPythonPlayer>::~CSingleton<CPythonPlayer>
PUBLIC	??1?$_Tree@V?$_Tmap_traits@KUSPartyMemberInfo@CPythonPlayer@@U?$less@K@std@@V?$allocator@U?$pair@$$CBKUSPartyMemberInfo@CPythonPlayer@@@std@@@4@$0A@@std@@@std@@QAE@XZ ; std::_Tree<std::_Tmap_traits<unsigned long,CPythonPlayer::SPartyMemberInfo,std::less<unsigned long>,std::allocator<std::pair<unsigned long const ,CPythonPlayer::SPartyMemberInfo> >,0> >::~_Tree<std::_Tmap_traits<unsigned long,CPythonPlayer::SPartyMemberInfo,std::less<unsigned long>,std::allocator<std::pair<unsigned long const ,CPythonPlayer::SPartyMemberInfo> >,0> >
PUBLIC	?begin@?$_Tree@V?$_Tmap_traits@KUSPartyMemberInfo@CPythonPlayer@@U?$less@K@std@@V?$allocator@U?$pair@$$CBKUSPartyMemberInfo@CPythonPlayer@@@std@@@4@$0A@@std@@@std@@QAE?AV?$_Tree_iterator@V?$_Tree_val@U?$_Tree_simple_types@U?$pair@$$CBKUSPartyMemberInfo@CPythonPlayer@@@std@@@std@@@std@@@2@XZ ; std::_Tree<std::_Tmap_traits<unsigned long,CPythonPlayer::SPartyMemberInfo,std::less<unsigned long>,std::allocator<std::pair<unsigned long const ,CPythonPlayer::SPartyMemberInfo> >,0> >::begin
PUBLIC	?end@?$_Tree@V?$_Tmap_traits@KUSPartyMemberInfo@CPythonPlayer@@U?$less@K@std@@V?$allocator@U?$pair@$$CBKUSPartyMemberInfo@CPythonPlayer@@@std@@@4@$0A@@std@@@std@@QAE?AV?$_Tree_iterator@V?$_Tree_val@U?$_Tree_simple_types@U?$pair@$$CBKUSPartyMemberInfo@CPythonPlayer@@@std@@@std@@@std@@@2@XZ ; std::_Tree<std::_Tmap_traits<unsigned long,CPythonPlayer::SPartyMemberInfo,std::less<unsigned long>,std::allocator<std::pair<unsigned long const ,CPythonPlayer::SPartyMemberInfo> >,0> >::end
PUBLIC	?erase@?$_Tree@V?$_Tmap_traits@KUSPartyMemberInfo@CPythonPlayer@@U?$less@K@std@@V?$allocator@U?$pair@$$CBKUSPartyMemberInfo@CPythonPlayer@@@std@@@4@$0A@@std@@@std@@QAEIABK@Z ; std::_Tree<std::_Tmap_traits<unsigned long,CPythonPlayer::SPartyMemberInfo,std::less<unsigned long>,std::allocator<std::pair<unsigned long const ,CPythonPlayer::SPartyMemberInfo> >,0> >::erase
PUBLIC	?clear@?$_Tree@V?$_Tmap_traits@KUSPartyMemberInfo@CPythonPlayer@@U?$less@K@std@@V?$allocator@U?$pair@$$CBKUSPartyMemberInfo@CPythonPlayer@@@std@@@4@$0A@@std@@@std@@QAEXXZ ; std::_Tree<std::_Tmap_traits<unsigned long,CPythonPlayer::SPartyMemberInfo,std::less<unsigned long>,std::allocator<std::pair<unsigned long const ,CPythonPlayer::SPartyMemberInfo> >,0> >::clear
PUBLIC	?find@?$_Tree@V?$_Tmap_traits@KUSPartyMemberInfo@CPythonPlayer@@U?$less@K@std@@V?$allocator@U?$pair@$$CBKUSPartyMemberInfo@CPythonPlayer@@@std@@@4@$0A@@std@@@std@@QAE?AV?$_Tree_iterator@V?$_Tree_val@U?$_Tree_simple_types@U?$pair@$$CBKUSPartyMemberInfo@CPythonPlayer@@@std@@@std@@@std@@@2@ABK@Z ; std::_Tree<std::_Tmap_traits<unsigned long,CPythonPlayer::SPartyMemberInfo,std::less<unsigned long>,std::allocator<std::pair<unsigned long const ,CPythonPlayer::SPartyMemberInfo> >,0> >::find
PUBLIC	??0?$map@KUSPartyMemberInfo@CPythonPlayer@@U?$less@K@std@@V?$allocator@U?$pair@$$CBKUSPartyMemberInfo@CPythonPlayer@@@std@@@4@@std@@QAE@XZ ; std::map<unsigned long,CPythonPlayer::SPartyMemberInfo,std::less<unsigned long>,std::allocator<std::pair<unsigned long const ,CPythonPlayer::SPartyMemberInfo> > >::map<unsigned long,CPythonPlayer::SPartyMemberInfo,std::less<unsigned long>,std::allocator<std::pair<unsigned long const ,CPythonPlayer::SPartyMemberInfo> > >
PUBLIC	??8?$_Tree_const_iterator@V?$_Tree_val@U?$_Tree_simple_types@U?$pair@$$CBKUSPartyMemberInfo@CPythonPlayer@@@std@@@std@@@std@@@std@@QBE_NABV01@@Z ; std::_Tree_const_iterator<std::_Tree_val<std::_Tree_simple_types<std::pair<unsigned long const ,CPythonPlayer::SPartyMemberInfo> > > >::operator==
PUBLIC	??C?$_Tree_iterator@V?$_Tree_val@U?$_Tree_simple_types@U?$pair@$$CBKUSPartyMemberInfo@CPythonPlayer@@@std@@@std@@@std@@@std@@QBEPAU?$pair@$$CBKUSPartyMemberInfo@CPythonPlayer@@@1@XZ ; std::_Tree_iterator<std::_Tree_val<std::_Tree_simple_types<std::pair<unsigned long const ,CPythonPlayer::SPartyMemberInfo> > > >::operator->
PUBLIC	??E?$_Tree_iterator@V?$_Tree_val@U?$_Tree_simple_types@U?$pair@$$CBKUSPartyMemberInfo@CPythonPlayer@@@std@@@std@@@std@@@std@@QAEAAV01@XZ ; std::_Tree_iterator<std::_Tree_val<std::_Tree_simple_types<std::pair<unsigned long const ,CPythonPlayer::SPartyMemberInfo> > > >::operator++
PUBLIC	??1?$map@KUSPartyMemberInfo@CPythonPlayer@@U?$less@K@std@@V?$allocator@U?$pair@$$CBKUSPartyMemberInfo@CPythonPlayer@@@std@@@4@@std@@QAE@XZ ; std::map<unsigned long,CPythonPlayer::SPartyMemberInfo,std::less<unsigned long>,std::allocator<std::pair<unsigned long const ,CPythonPlayer::SPartyMemberInfo> > >::~map<unsigned long,CPythonPlayer::SPartyMemberInfo,std::less<unsigned long>,std::allocator<std::pair<unsigned long const ,CPythonPlayer::SPartyMemberInfo> > >
PUBLIC	??_GCPythonPlayer@@UAEPAXI@Z			; CPythonPlayer::`scalar deleting destructor'
PUBLIC	?ClearSkillDict@CPythonPlayer@@QAEXXZ		; CPythonPlayer::ClearSkillDict
PUBLIC	?SetGameWindow@CPythonPlayer@@QAEXPAU_object@@@Z ; CPythonPlayer::SetGameWindow
PUBLIC	?HasMobilePhoneNumber@CPythonPlayer@@QAEHXZ	; CPythonPlayer::HasMobilePhoneNumber
PUBLIC	?SetMobileFlag@CPythonPlayer@@UAEXH@Z		; CPythonPlayer::SetMobileFlag
PUBLIC	?GetPKMode@CPythonPlayer@@QAEKXZ		; CPythonPlayer::GetPKMode
PUBLIC	?StopStaminaConsume@CPythonPlayer@@UAEXK@Z	; CPythonPlayer::StopStaminaConsume
PUBLIC	?StartStaminaConsume@CPythonPlayer@@UAEXKK@Z	; CPythonPlayer::StartStaminaConsume
PUBLIC	?__ToggleLevelLimit@CPythonPlayer@@QAEHXZ	; CPythonPlayer::__ToggleLevelLimit
PUBLIC	?__ToggleCoolTime@CPythonPlayer@@QAEHXZ		; CPythonPlayer::__ToggleCoolTime
PUBLIC	?SetObserverMode@CPythonPlayer@@UAEX_N@Z	; CPythonPlayer::SetObserverMode
PUBLIC	?IsOpenPrivateShop@CPythonPlayer@@QAE_NXZ	; CPythonPlayer::IsOpenPrivateShop
PUBLIC	?IsCantFightInstance@CPythonPlayer@@QAE_NK@Z	; CPythonPlayer::IsCantFightInstance
PUBLIC	?IsRevengeInstance@CPythonPlayer@@QAE_NK@Z	; CPythonPlayer::IsRevengeInstance
PUBLIC	?IsChallengeInstance@CPythonPlayer@@QAE_NK@Z	; CPythonPlayer::IsChallengeInstance
PUBLIC	?IsSamePartyMember@CPythonPlayer@@UAE_NKK@Z	; CPythonPlayer::IsSamePartyMember
PUBLIC	?PartyMemberVIDToPID@CPythonPlayer@@UAE_NKPAK@Z	; CPythonPlayer::PartyMemberVIDToPID
PUBLIC	?IsPartyMemberByName@CPythonPlayer@@QAE_NPBD@Z	; CPythonPlayer::IsPartyMemberByName
PUBLIC	?IsPartyMemberByVID@CPythonPlayer@@UAE_NK@Z	; CPythonPlayer::IsPartyMemberByVID
PUBLIC	?RemovePartyMember@CPythonPlayer@@QAEXK@Z	; CPythonPlayer::RemovePartyMember
PUBLIC	??1?$pair@KUSPartyMemberInfo@CPythonPlayer@@@std@@QAE@XZ ; std::pair<unsigned long,CPythonPlayer::SPartyMemberInfo>::~pair<unsigned long,CPythonPlayer::SPartyMemberInfo>
PUBLIC	??1SPartyMemberInfo@CPythonPlayer@@QAE@XZ	; CPythonPlayer::SPartyMemberInfo::~SPartyMemberInfo
PUBLIC	?ExitParty@CPythonPlayer@@QAEXXZ		; CPythonPlayer::ExitParty
PUBLIC	?AlarmHaveToGo@CPythonPlayer@@QAEXXZ		; CPythonPlayer::AlarmHaveToGo
PUBLIC	?__IsProcessingEmotion@CPythonPlayer@@IAEHXZ	; CPythonPlayer::__IsProcessingEmotion
PUBLIC	?EndEmotionProcess@CPythonPlayer@@UAEXXZ	; CPythonPlayer::EndEmotionProcess
PUBLIC	?StartEmotionProcess@CPythonPlayer@@UAEXXZ	; CPythonPlayer::StartEmotionProcess
PUBLIC	?ActEmotion@CPythonPlayer@@QAEXK@Z		; CPythonPlayer::ActEmotion
PUBLIC	?__SendClickActorPacket@CPythonPlayer@@IAEXAAVCInstanceBase@@@Z ; CPythonPlayer::__SendClickActorPacket
PUBLIC	?SendClickItemPacket@CPythonPlayer@@QAEXK@Z	; CPythonPlayer::SendClickItemPacket
PUBLIC	?GetPlayTime@CPythonPlayer@@QAEKXZ		; CPythonPlayer::GetPlayTime
PUBLIC	?SetPlayTime@CPythonPlayer@@QAEXK@Z		; CPythonPlayer::SetPlayTime
PUBLIC	?IsSkillActive@CPythonPlayer@@QAEHK@Z		; CPythonPlayer::IsSkillActive
PUBLIC	?IsSkillCoolTime@CPythonPlayer@@QAEHK@Z		; CPythonPlayer::IsSkillCoolTime
PUBLIC	?__DeactivateSkillSlot@CPythonPlayer@@IAEXK@Z	; CPythonPlayer::__DeactivateSkillSlot
PUBLIC	?__ActivateSkillSlot@CPythonPlayer@@IAEXK@Z	; CPythonPlayer::__ActivateSkillSlot
PUBLIC	?GetSkillElapsedCoolTime@CPythonPlayer@@QAEMK@Z	; CPythonPlayer::GetSkillElapsedCoolTime
PUBLIC	?GetSkillCoolTime@CPythonPlayer@@QAEMK@Z	; CPythonPlayer::GetSkillCoolTime
PUBLIC	?GetSkillNextEfficientPercentage@CPythonPlayer@@QAEMK@Z ; CPythonPlayer::GetSkillNextEfficientPercentage
PUBLIC	?GetSkillCurrentEfficientPercentage@CPythonPlayer@@QAEMK@Z ; CPythonPlayer::GetSkillCurrentEfficientPercentage
PUBLIC	?GetSkillLevel@CPythonPlayer@@QAEHK@Z		; CPythonPlayer::GetSkillLevel
PUBLIC	?GetSkillGrade@CPythonPlayer@@QAEHK@Z		; CPythonPlayer::GetSkillGrade
PUBLIC	?GetSkillIndex@CPythonPlayer@@QAEHK@Z		; CPythonPlayer::GetSkillIndex
PUBLIC	?IsEquipItemInSlot@CPythonPlayer@@UAE_NUSItemPos@@@Z ; CPythonPlayer::IsEquipItemInSlot
PUBLIC	?IsEquipmentSlot@CPythonPlayer@@QAE_NUSItemPos@@@Z ; CPythonPlayer::IsEquipmentSlot
PUBLIC	?IsBeltInventorySlot@CPythonPlayer@@QAE_NUSItemPos@@@Z ; CPythonPlayer::IsBeltInventorySlot
PUBLIC	?MoveQuickSlot@CPythonPlayer@@UAEXHH@Z		; CPythonPlayer::MoveQuickSlot
PUBLIC	?DeleteQuickSlot@CPythonPlayer@@UAEXH@Z		; CPythonPlayer::DeleteQuickSlot
PUBLIC	?AddQuickSlot@CPythonPlayer@@UAEXHDD@Z		; CPythonPlayer::AddQuickSlot
PUBLIC	?RequestUseLocalQuickSlot@CPythonPlayer@@QAEXK@Z ; CPythonPlayer::RequestUseLocalQuickSlot
PUBLIC	?RequestDeleteGlobalQuickSlot@CPythonPlayer@@QAEXK@Z ; CPythonPlayer::RequestDeleteGlobalQuickSlot
PUBLIC	?RequestAddToEmptyLocalQuickSlot@CPythonPlayer@@QAEXKK@Z ; CPythonPlayer::RequestAddToEmptyLocalQuickSlot
PUBLIC	?RequestAddLocalQuickSlot@CPythonPlayer@@QAEXKKK@Z ; CPythonPlayer::RequestAddLocalQuickSlot
PUBLIC	?RequestMoveGlobalQuickSlotToLocalQuickSlot@CPythonPlayer@@QAEXKK@Z ; CPythonPlayer::RequestMoveGlobalQuickSlotToLocalQuickSlot
PUBLIC	?IsItem@CPythonPlayer@@QAEDUSItemPos@@@Z	; CPythonPlayer::IsItem
PUBLIC	?RemoveQuickSlotByValue@CPythonPlayer@@QAEXHH@Z	; CPythonPlayer::RemoveQuickSlotByValue
PUBLIC	?__RefGlobalQuickSlot@CPythonPlayer@@IAEAAUSQuickSlot@@H@Z ; CPythonPlayer::__RefGlobalQuickSlot
PUBLIC	?__RefLocalQuickSlot@CPythonPlayer@@IAEAAUSQuickSlot@@H@Z ; CPythonPlayer::__RefLocalQuickSlot
PUBLIC	?GetLocalQuickSlotData@CPythonPlayer@@QAEXKPAK0@Z ; CPythonPlayer::GetLocalQuickSlotData
PUBLIC	?GetGlobalQuickSlotData@CPythonPlayer@@QAEXKPAK0@Z ; CPythonPlayer::GetGlobalQuickSlotData
PUBLIC	?LocalQuickSlotIndexToGlobalQuickSlotIndex@CPythonPlayer@@QAEKK@Z ; CPythonPlayer::LocalQuickSlotIndexToGlobalQuickSlotIndex
PUBLIC	?SetQuickPage@CPythonPlayer@@QAEXH@Z		; CPythonPlayer::SetQuickPage
PUBLIC	?GetQuickPage@CPythonPlayer@@QAEHXZ		; CPythonPlayer::GetQuickPage
PUBLIC	?SetItemAttribute@CPythonPlayer@@UAEXUSItemPos@@KEF@Z ; CPythonPlayer::SetItemAttribute
PUBLIC	?SetItemMetinSocket@CPythonPlayer@@UAEXUSItemPos@@KK@Z ; CPythonPlayer::SetItemMetinSocket
PUBLIC	?SetItemCount@CPythonPlayer@@UAEXUSItemPos@@E@Z	; CPythonPlayer::SetItemCount
PUBLIC	?GetItemAttribute@CPythonPlayer@@QAEXUSItemPos@@KPAEPAF@Z ; CPythonPlayer::GetItemAttribute
PUBLIC	?GetItemMetinSocket@CPythonPlayer@@QAEKUSItemPos@@K@Z ; CPythonPlayer::GetItemMetinSocket
PUBLIC	?GetItemCountByVnum@CPythonPlayer@@QAEKK@Z	; CPythonPlayer::GetItemCountByVnum
PUBLIC	?GetItemCount@CPythonPlayer@@UAEKUSItemPos@@@Z	; CPythonPlayer::GetItemCount
PUBLIC	?GetItemFlags@CPythonPlayer@@UAEKUSItemPos@@@Z	; CPythonPlayer::GetItemFlags
PUBLIC	?GetItemIndex@CPythonPlayer@@UAEKUSItemPos@@@Z	; CPythonPlayer::GetItemIndex
PUBLIC	?SetItemData@CPythonPlayer@@UAEXUSItemPos@@ABUpacket_item@@@Z ; CPythonPlayer::SetItemData
PUBLIC	?GetItemData@CPythonPlayer@@QBEPBUpacket_item@@USItemPos@@@Z ; CPythonPlayer::GetItemData
PUBLIC	?MoveItemData@CPythonPlayer@@QAEXUSItemPos@@0@Z	; CPythonPlayer::MoveItemData
PUBLIC	?NotifyChangePKMode@CPythonPlayer@@UAEXXZ	; CPythonPlayer::NotifyChangePKMode
PUBLIC	?NotifyCharacterUpdate@CPythonPlayer@@UAEXK@Z	; CPythonPlayer::NotifyCharacterUpdate
PUBLIC	?NotifyCharacterDead@CPythonPlayer@@UAEXK@Z	; CPythonPlayer::NotifyCharacterDead
PUBLIC	?NotifyDeletingCharacterInstance@CPythonPlayer@@UAEXK@Z ; CPythonPlayer::NotifyDeletingCharacterInstance
PUBLIC	?GetName@CPythonPlayer@@UAEPBDXZ		; CPythonPlayer::GetName
PUBLIC	?GetStatus@CPythonPlayer@@UAE_JK@Z		; CPythonPlayer::GetStatus
PUBLIC	?__UpdateBattleStatus@CPythonPlayer@@IAEXXZ	; CPythonPlayer::__UpdateBattleStatus
PUBLIC	?__GetEvadeRate@CPythonPlayer@@IAEKXZ		; CPythonPlayer::__GetEvadeRate
PUBLIC	?__GetHitRate@CPythonPlayer@@IAEKXZ		; CPythonPlayer::__GetHitRate
PUBLIC	?__GetTotalAtk@CPythonPlayer@@IAEKKK@Z		; CPythonPlayer::__GetTotalAtk
PUBLIC	?__GetWeaponAtk@CPythonPlayer@@IAEKK@Z		; CPythonPlayer::__GetWeaponAtk
PUBLIC	?__GetStatAtk@CPythonPlayer@@IAEKXZ		; CPythonPlayer::__GetStatAtk
PUBLIC	?__GetLevelAtk@CPythonPlayer@@IAEKXZ		; CPythonPlayer::__GetLevelAtk
PUBLIC	?__GetRaceStat@CPythonPlayer@@IAEKXZ		; CPythonPlayer::__GetRaceStat
PUBLIC	?GetRace@CPythonPlayer@@QAEKXZ			; CPythonPlayer::GetRace
PUBLIC	?SetRace@CPythonPlayer@@UAEXK@Z			; CPythonPlayer::SetRace
PUBLIC	?SetWeaponPower@CPythonPlayer@@UAEXKKKKK@Z	; CPythonPlayer::SetWeaponPower
PUBLIC	?IsMainCharacterIndex@CPythonPlayer@@UAE_NK@Z	; CPythonPlayer::IsMainCharacterIndex
PUBLIC	?GetMainCharacterIndex@CPythonPlayer@@UAEKXZ	; CPythonPlayer::GetMainCharacterIndex
PUBLIC	?SetMainCharacterIndex@CPythonPlayer@@UAEXH@Z	; CPythonPlayer::SetMainCharacterIndex
PUBLIC	?__Update_NotifyGuildAreaEvent@CPythonPlayer@@IAEXXZ ; CPythonPlayer::__Update_NotifyGuildAreaEvent
PUBLIC	?__Update_AutoAttack@CPythonPlayer@@IAEXXZ	; CPythonPlayer::__Update_AutoAttack
PUBLIC	?__IsUsingChargeSkill@CPythonPlayer@@IAE_NXZ	; CPythonPlayer::__IsUsingChargeSkill
PUBLIC	?NEW_GetMainActorPtr@CPythonPlayer@@UAEPAVCInstanceBase@@XZ ; CPythonPlayer::NEW_GetMainActorPtr
PUBLIC	?NEW_FindActorPtr@CPythonPlayer@@QAEPAVCInstanceBase@@K@Z ; CPythonPlayer::NEW_FindActorPtr
PUBLIC	?NEW_ShowEffect@CPythonPlayer@@IAEXHUD3DXVECTOR3@@@Z ; CPythonPlayer::NEW_ShowEffect
PUBLIC	?RegisterEffect@CPythonPlayer@@QAE_NKPBD_N@Z	; CPythonPlayer::RegisterEffect
PUBLIC	?__GetPickedGroundPos@CPythonPlayer@@IAE_NPAUD3DXVECTOR3@@@Z ; CPythonPlayer::__GetPickedGroundPos
PUBLIC	?__GetPickedItemID@CPythonPlayer@@IAE_NPAK@Z	; CPythonPlayer::__GetPickedItemID
PUBLIC	?__GetPickedActorID@CPythonPlayer@@IAE_NPAK@Z	; CPythonPlayer::__GetPickedActorID
PUBLIC	?__GetPickedActorPtr@CPythonPlayer@@IAE_NPAPAVCInstanceBase@@@Z ; CPythonPlayer::__GetPickedActorPtr
PUBLIC	?AffectIndexToSkillIndex@CPythonPlayer@@QAE_NKPAK@Z ; CPythonPlayer::AffectIndexToSkillIndex
PUBLIC	?GetPoint@SPlayerStatus@CPythonPlayer@@QAE_JI@Z	; CPythonPlayer::SPlayerStatus::GetPoint
PUBLIC	?SetPoint@SPlayerStatus@CPythonPlayer@@QAEXI_J@Z ; CPythonPlayer::SPlayerStatus::SetPoint
PUBLIC	??0SAutoPotionInfo@CPythonPlayer@@QAE@XZ	; CPythonPlayer::SAutoPotionInfo::SAutoPotionInfo
PUBLIC	??0SPartyMemberInfo@CPythonPlayer@@QAE@KPBD@Z	; CPythonPlayer::SPartyMemberInfo::SPartyMemberInfo
PUBLIC	??_GIAbstractPlayer@@UAEPAXI@Z			; IAbstractPlayer::`scalar deleting destructor'
PUBLIC	??1IAbstractPlayer@@UAE@XZ			; IAbstractPlayer::~IAbstractPlayer
PUBLIC	??0IAbstractPlayer@@QAE@XZ			; IAbstractPlayer::IAbstractPlayer
PUBLIC	?Clear@CPythonPlayer@@QAEXXZ			; CPythonPlayer::Clear
PUBLIC	?SetName@CPythonPlayer@@QAEXPBD@Z		; CPythonPlayer::SetName
PUBLIC	?RememberChallengeInstance@CPythonPlayer@@QAEXK@Z ; CPythonPlayer::RememberChallengeInstance
PUBLIC	?RememberCantFightInstance@CPythonPlayer@@QAEXK@Z ; CPythonPlayer::RememberCantFightInstance
PUBLIC	?RememberRevengeInstance@CPythonPlayer@@QAEXK@Z	; CPythonPlayer::RememberRevengeInstance
PUBLIC	?ForgetInstance@CPythonPlayer@@QAEXK@Z		; CPythonPlayer::ForgetInstance
PUBLIC	?SetStatus@CPythonPlayer@@QAEXK_J@Z		; CPythonPlayer::SetStatus
PUBLIC	?NotifyDeadMainCharacter@CPythonPlayer@@QAEXXZ	; CPythonPlayer::NotifyDeadMainCharacter
PUBLIC	?GetSkillSlotIndex@CPythonPlayer@@QAE_NKPAK@Z	; CPythonPlayer::GetSkillSlotIndex
PUBLIC	?SetSkillLevel@CPythonPlayer@@QAEXKK@Z		; CPythonPlayer::SetSkillLevel
PUBLIC	?SetSkill@CPythonPlayer@@QAEXKK@Z		; CPythonPlayer::SetSkill
PUBLIC	?SetSkillLevel_@CPythonPlayer@@QAEXKKK@Z	; CPythonPlayer::SetSkillLevel_
PUBLIC	?AppendPartyMember@CPythonPlayer@@QAEXKPBD@Z	; CPythonPlayer::AppendPartyMember
PUBLIC	?UpdatePartyMemberInfo@CPythonPlayer@@QAEXKEE@Z	; CPythonPlayer::UpdatePartyMemberInfo
PUBLIC	?UpdatePartyMemberAffect@CPythonPlayer@@QAEXKEF@Z ; CPythonPlayer::UpdatePartyMemberAffect
PUBLIC	?PartyMemberPIDToVID@CPythonPlayer@@QAE_NKPAK@Z	; CPythonPlayer::PartyMemberPIDToVID
PUBLIC	?LinkPartyMember@CPythonPlayer@@QAEXKK@Z	; CPythonPlayer::LinkPartyMember
PUBLIC	?UnlinkPartyMember@CPythonPlayer@@QAEXK@Z	; CPythonPlayer::UnlinkPartyMember
PUBLIC	?SetDungeonDestinationPosition@CPythonPlayer@@QAEXHH@Z ; CPythonPlayer::SetDungeonDestinationPosition
PUBLIC	?ClosePrivateShop@CPythonPlayer@@QAEXXZ		; CPythonPlayer::ClosePrivateShop
PUBLIC	?OpenPrivateShop@CPythonPlayer@@QAEXXZ		; CPythonPlayer::OpenPrivateShop
PUBLIC	?NEW_ClearSkillData@CPythonPlayer@@QAEX_N@Z	; CPythonPlayer::NEW_ClearSkillData
PUBLIC	?GetGuildID@CPythonPlayer@@QAEKXZ		; CPythonPlayer::GetGuildID
PUBLIC	?GetPartyMemberPtr@CPythonPlayer@@QAE_NKPAPAUSPartyMemberInfo@1@@Z ; CPythonPlayer::GetPartyMemberPtr
PUBLIC	??0CPythonPlayer@@QAE@XZ			; CPythonPlayer::CPythonPlayer
PUBLIC	??1CPythonPlayer@@UAE@XZ			; CPythonPlayer::~CPythonPlayer
PUBLIC	?NEW_GetMainActorPosition@CPythonPlayer@@QAEXPAUD3DXVECTOR3@@@Z ; CPythonPlayer::NEW_GetMainActorPosition
PUBLIC	?Update@CPythonPlayer@@QAEXXZ			; CPythonPlayer::Update
PUBLIC	?IsObserverMode@CPythonPlayer@@QAE_NXZ		; CPythonPlayer::IsObserverMode
EXTRN	??_EIAbstractPlayer@@UAEPAXI@Z:PROC		; IAbstractPlayer::`vector deleting destructor'
EXTRN	??_E?$TAbstractSingleton@VIAbstractPlayer@@@@UAEPAXI@Z:PROC ; TAbstractSingleton<IAbstractPlayer>::`vector deleting destructor'
EXTRN	??_ECPythonPlayer@@UAEPAXI@Z:PROC		; CPythonPlayer::`vector deleting destructor'
EXTRN	??_E?$CSingleton@VCPythonPlayer@@@@UAEPAXI@Z:PROC ; CSingleton<CPythonPlayer>::`vector deleting destructor'
;	COMDAT ?s_kQuickSlot@?4??__RefGlobalQuickSlot@CPythonPlayer@@IAEAAUSQuickSlot@@H@Z@4U3@A
_BSS	SEGMENT
?s_kQuickSlot@?4??__RefGlobalQuickSlot@CPythonPlayer@@IAEAAUSQuickSlot@@H@Z@4U3@A DW 01H DUP (?) ; `CPythonPlayer::__RefGlobalQuickSlot'::`5'::s_kQuickSlot
_BSS	ENDS
;	COMDAT xdata$x
xdata$x	SEGMENT
__ehfuncinfo$??0CPythonPlayer@@QAE@XZ DD 019930522H
	DD	09H
	DD	FLAT:__unwindtable$??0CPythonPlayer@@QAE@XZ
	DD	2 DUP(00H)
	DD	2 DUP(00H)
	DD	00H
	DD	01H
	ORG $+4
__unwindtable$??0CPythonPlayer@@QAE@XZ DD 0ffffffffH
	DD	FLAT:__unwindfunclet$??0CPythonPlayer@@QAE@XZ$0
	DD	00H
	DD	FLAT:__unwindfunclet$??0CPythonPlayer@@QAE@XZ$1
	DD	01H
	DD	FLAT:__unwindfunclet$??0CPythonPlayer@@QAE@XZ$2
	DD	02H
	DD	FLAT:__unwindfunclet$??0CPythonPlayer@@QAE@XZ$3
	DD	03H
	DD	FLAT:__unwindfunclet$??0CPythonPlayer@@QAE@XZ$4
	DD	04H
	DD	FLAT:__unwindfunclet$??0CPythonPlayer@@QAE@XZ$5
	DD	05H
	DD	FLAT:__unwindfunclet$??0CPythonPlayer@@QAE@XZ$6
	DD	06H
	DD	FLAT:__unwindfunclet$??0CPythonPlayer@@QAE@XZ$7
	DD	07H
	DD	FLAT:__unwindfunclet$??0CPythonPlayer@@QAE@XZ$8
xdata$x	ENDS
;	COMDAT xdata$x
xdata$x	SEGMENT
__ehfuncinfo$?AppendPartyMember@CPythonPlayer@@QAEXKPBD@Z DD 019930522H
	DD	02H
	DD	FLAT:__unwindtable$?AppendPartyMember@CPythonPlayer@@QAEXKPBD@Z
	DD	2 DUP(00H)
	DD	2 DUP(00H)
	DD	00H
	DD	01H
__unwindtable$?AppendPartyMember@CPythonPlayer@@QAEXKPBD@Z DD 0ffffffffH
	DD	FLAT:__unwindfunclet$?AppendPartyMember@CPythonPlayer@@QAEXKPBD@Z$0
	DD	00H
	DD	FLAT:__unwindfunclet$?AppendPartyMember@CPythonPlayer@@QAEXKPBD@Z$1
xdata$x	ENDS
;	COMDAT xdata$x
xdata$x	SEGMENT
__ehfuncinfo$??A?$map@KKU?$less@K@std@@V?$allocator@U?$pair@$$CBKK@std@@@2@@std@@QAEAAKABK@Z DD 019930522H
	DD	01H
	DD	FLAT:__unwindtable$??A?$map@KKU?$less@K@std@@V?$allocator@U?$pair@$$CBKK@std@@@2@@std@@QAEAAKABK@Z
	DD	2 DUP(00H)
	DD	2 DUP(00H)
	DD	00H
	DD	01H
__unwindtable$??A?$map@KKU?$less@K@std@@V?$allocator@U?$pair@$$CBKK@std@@@2@@std@@QAEAAKABK@Z DD 0ffffffffH
	DD	FLAT:__unwindfunclet$??A?$map@KKU?$less@K@std@@V?$allocator@U?$pair@$$CBKK@std@@@2@@std@@QAEAAKABK@Z$2
xdata$x	ENDS
;	COMDAT xdata$x
xdata$x	SEGMENT
__ehfuncinfo$??$_Try_emplace@ABK$$V@?$map@KKU?$less@K@std@@V?$allocator@U?$pair@$$CBKK@std@@@2@@std@@AAE?AU?$pair@PAU?$_Tree_node@U?$pair@$$CBKK@std@@PAX@std@@_N@1@ABK@Z DD 019930522H
	DD	01H
	DD	FLAT:__unwindtable$??$_Try_emplace@ABK$$V@?$map@KKU?$less@K@std@@V?$allocator@U?$pair@$$CBKK@std@@@2@@std@@AAE?AU?$pair@PAU?$_Tree_node@U?$pair@$$CBKK@std@@PAX@std@@_N@1@ABK@Z
	DD	2 DUP(00H)
	DD	2 DUP(00H)
	DD	00H
	DD	01H
__unwindtable$??$_Try_emplace@ABK$$V@?$map@KKU?$less@K@std@@V?$allocator@U?$pair@$$CBKK@std@@@2@@std@@AAE?AU?$pair@PAU?$_Tree_node@U?$pair@$$CBKK@std@@PAX@std@@_N@1@ABK@Z DD 0ffffffffH
	DD	FLAT:__unwindfunclet$??$_Try_emplace@ABK$$V@?$map@KKU?$less@K@std@@V?$allocator@U?$pair@$$CBKK@std@@@2@@std@@AAE?AU?$pair@PAU?$_Tree_node@U?$pair@$$CBKK@std@@PAX@std@@_N@1@ABK@Z$2
xdata$x	ENDS
;	COMDAT xdata$x
xdata$x	SEGMENT
__ehfuncinfo$??$emplace@U?$pair@KUSPartyMemberInfo@CPythonPlayer@@@std@@@?$_Tree@V?$_Tmap_traits@KUSPartyMemberInfo@CPythonPlayer@@U?$less@K@std@@V?$allocator@U?$pair@$$CBKUSPartyMemberInfo@CPythonPlayer@@@std@@@4@$0A@@std@@@std@@QAE?AU?$pair@V?$_Tree_iterator@V?$_Tree_val@U?$_Tree_simple_types@U?$pair@$$CBKUSPartyMemberInfo@CPythonPlayer@@@std@@@std@@@std@@@std@@_N@1@$$QAU?$pair@KUSPartyMemberInfo@CPythonPlayer@@@1@@Z DD 019930522H
	DD	01H
	DD	FLAT:__unwindtable$??$emplace@U?$pair@KUSPartyMemberInfo@CPythonPlayer@@@std@@@?$_Tree@V?$_Tmap_traits@KUSPartyMemberInfo@CPythonPlayer@@U?$less@K@std@@V?$allocator@U?$pair@$$CBKUSPartyMemberInfo@CPythonPlayer@@@std@@@4@$0A@@std@@@std@@QAE?AU?$pair@V?$_Tree_iterator@V?$_Tree_val@U?$_Tree_simple_types@U?$pair@$$CBKUSPartyMemberInfo@CPythonPlayer@@@std@@@std@@@std@@@std@@_N@1@$$QAU?$pair@KUSPartyMemberInfo@CPythonPlayer@@@1@@Z
	DD	2 DUP(00H)
	DD	2 DUP(00H)
	DD	00H
	DD	01H
__unwindtable$??$emplace@U?$pair@KUSPartyMemberInfo@CPythonPlayer@@@std@@@?$_Tree@V?$_Tmap_traits@KUSPartyMemberInfo@CPythonPlayer@@U?$less@K@std@@V?$allocator@U?$pair@$$CBKUSPartyMemberInfo@CPythonPlayer@@@std@@@4@$0A@@std@@@std@@QAE?AU?$pair@V?$_Tree_iterator@V?$_Tree_val@U?$_Tree_simple_types@U?$pair@$$CBKUSPartyMemberInfo@CPythonPlayer@@@std@@@std@@@std@@@std@@_N@1@$$QAU?$pair@KUSPartyMemberInfo@CPythonPlayer@@@1@@Z DD 0ffffffffH
	DD	FLAT:__unwindfunclet$??$emplace@U?$pair@KUSPartyMemberInfo@CPythonPlayer@@@std@@@?$_Tree@V?$_Tmap_traits@KUSPartyMemberInfo@CPythonPlayer@@U?$less@K@std@@V?$allocator@U?$pair@$$CBKUSPartyMemberInfo@CPythonPlayer@@@std@@@4@$0A@@std@@@std@@QAE?AU?$pair@V?$_Tree_iterator@V?$_Tree_val@U?$_Tree_simple_types@U?$pair@$$CBKUSPartyMemberInfo@CPythonPlayer@@@std@@@std@@@std@@@std@@_N@1@$$QAU?$pair@KUSPartyMemberInfo@CPythonPlayer@@@1@@Z$2
xdata$x	ENDS
;	COMDAT xdata$x
xdata$x	SEGMENT
__ehfuncinfo$??$?0ABUpiecewise_construct_t@std@@V?$tuple@ABK@1@V?$tuple@$$V@1@@?$_Tree_temp_node@V?$allocator@U?$_Tree_node@U?$pair@$$CBKK@std@@PAX@std@@@std@@@std@@QAE@AAV?$allocator@U?$_Tree_node@U?$pair@$$CBKK@std@@PAX@std@@@1@PAU?$_Tree_node@U?$pair@$$CBKK@std@@PAX@1@ABUpiecewise_construct_t@1@$$QAV?$tuple@ABK@1@$$QAV?$tuple@$$V@1@@Z DD 019930522H
	DD	01H
	DD	FLAT:__unwindtable$??$?0ABUpiecewise_construct_t@std@@V?$tuple@ABK@1@V?$tuple@$$V@1@@?$_Tree_temp_node@V?$allocator@U?$_Tree_node@U?$pair@$$CBKK@std@@PAX@std@@@std@@@std@@QAE@AAV?$allocator@U?$_Tree_node@U?$pair@$$CBKK@std@@PAX@std@@@1@PAU?$_Tree_node@U?$pair@$$CBKK@std@@PAX@1@ABUpiecewise_construct_t@1@$$QAV?$tuple@ABK@1@$$QAV?$tuple@$$V@1@@Z
	DD	2 DUP(00H)
	DD	2 DUP(00H)
	DD	00H
	DD	01H
__unwindtable$??$?0ABUpiecewise_construct_t@std@@V?$tuple@ABK@1@V?$tuple@$$V@1@@?$_Tree_temp_node@V?$allocator@U?$_Tree_node@U?$pair@$$CBKK@std@@PAX@std@@@std@@@std@@QAE@AAV?$allocator@U?$_Tree_node@U?$pair@$$CBKK@std@@PAX@std@@@1@PAU?$_Tree_node@U?$pair@$$CBKK@std@@PAX@1@ABUpiecewise_construct_t@1@$$QAV?$tuple@ABK@1@$$QAV?$tuple@$$V@1@@Z DD 0ffffffffH
	DD	FLAT:__unwindfunclet$??$?0ABUpiecewise_construct_t@std@@V?$tuple@ABK@1@V?$tuple@$$V@1@@?$_Tree_temp_node@V?$allocator@U?$_Tree_node@U?$pair@$$CBKK@std@@PAX@std@@@std@@@std@@QAE@AAV?$allocator@U?$_Tree_node@U?$pair@$$CBKK@std@@PAX@std@@@1@PAU?$_Tree_node@U?$pair@$$CBKK@std@@PAX@1@ABUpiecewise_construct_t@1@$$QAV?$tuple@ABK@1@$$QAV?$tuple@$$V@1@@Z$1
xdata$x	ENDS
;	COMDAT xdata$x
xdata$x	SEGMENT
__ehfuncinfo$??$_Emplace@U?$pair@KUSPartyMemberInfo@CPythonPlayer@@@std@@@?$_Tree@V?$_Tmap_traits@KUSPartyMemberInfo@CPythonPlayer@@U?$less@K@std@@V?$allocator@U?$pair@$$CBKUSPartyMemberInfo@CPythonPlayer@@@std@@@4@$0A@@std@@@std@@IAE?AU?$pair@PAU?$_Tree_node@U?$pair@$$CBKUSPartyMemberInfo@CPythonPlayer@@@std@@PAX@std@@_N@1@$$QAU?$pair@KUSPartyMemberInfo@CPythonPlayer@@@1@@Z DD 019930522H
	DD	01H
	DD	FLAT:__unwindtable$??$_Emplace@U?$pair@KUSPartyMemberInfo@CPythonPlayer@@@std@@@?$_Tree@V?$_Tmap_traits@KUSPartyMemberInfo@CPythonPlayer@@U?$less@K@std@@V?$allocator@U?$pair@$$CBKUSPartyMemberInfo@CPythonPlayer@@@std@@@4@$0A@@std@@@std@@IAE?AU?$pair@PAU?$_Tree_node@U?$pair@$$CBKUSPartyMemberInfo@CPythonPlayer@@@std@@PAX@std@@_N@1@$$QAU?$pair@KUSPartyMemberInfo@CPythonPlayer@@@1@@Z
	DD	2 DUP(00H)
	DD	2 DUP(00H)
	DD	00H
	DD	01H
__unwindtable$??$_Emplace@U?$pair@KUSPartyMemberInfo@CPythonPlayer@@@std@@@?$_Tree@V?$_Tmap_traits@KUSPartyMemberInfo@CPythonPlayer@@U?$less@K@std@@V?$allocator@U?$pair@$$CBKUSPartyMemberInfo@CPythonPlayer@@@std@@@4@$0A@@std@@@std@@IAE?AU?$pair@PAU?$_Tree_node@U?$pair@$$CBKUSPartyMemberInfo@CPythonPlayer@@@std@@PAX@std@@_N@1@$$QAU?$pair@KUSPartyMemberInfo@CPythonPlayer@@@1@@Z DD 0ffffffffH
	DD	FLAT:__unwindfunclet$??$_Emplace@U?$pair@KUSPartyMemberInfo@CPythonPlayer@@@std@@@?$_Tree@V?$_Tmap_traits@KUSPartyMemberInfo@CPythonPlayer@@U?$less@K@std@@V?$allocator@U?$pair@$$CBKUSPartyMemberInfo@CPythonPlayer@@@std@@@4@$0A@@std@@@std@@IAE?AU?$pair@PAU?$_Tree_node@U?$pair@$$CBKUSPartyMemberInfo@CPythonPlayer@@@std@@PAX@std@@_N@1@$$QAU?$pair@KUSPartyMemberInfo@CPythonPlayer@@@1@@Z$2
xdata$x	ENDS
;	COMDAT xdata$x
xdata$x	SEGMENT
__ehfuncinfo$??$?0U?$pair@KUSPartyMemberInfo@CPythonPlayer@@@std@@@?$_Tree_temp_node@V?$allocator@U?$_Tree_node@U?$pair@$$CBKUSPartyMemberInfo@CPythonPlayer@@@std@@PAX@std@@@std@@@std@@QAE@AAV?$allocator@U?$_Tree_node@U?$pair@$$CBKUSPartyMemberInfo@CPythonPlayer@@@std@@PAX@std@@@1@PAU?$_Tree_node@U?$pair@$$CBKUSPartyMemberInfo@CPythonPlayer@@@std@@PAX@1@$$QAU?$pair@KUSPartyMemberInfo@CPythonPlayer@@@1@@Z DD 019930522H
	DD	01H
	DD	FLAT:__unwindtable$??$?0U?$pair@KUSPartyMemberInfo@CPythonPlayer@@@std@@@?$_Tree_temp_node@V?$allocator@U?$_Tree_node@U?$pair@$$CBKUSPartyMemberInfo@CPythonPlayer@@@std@@PAX@std@@@std@@@std@@QAE@AAV?$allocator@U?$_Tree_node@U?$pair@$$CBKUSPartyMemberInfo@CPythonPlayer@@@std@@PAX@std@@@1@PAU?$_Tree_node@U?$pair@$$CBKUSPartyMemberInfo@CPythonPlayer@@@std@@PAX@1@$$QAU?$pair@KUSPartyMemberInfo@CPythonPlayer@@@1@@Z
	DD	2 DUP(00H)
	DD	2 DUP(00H)
	DD	00H
	DD	01H
__unwindtable$??$?0U?$pair@KUSPartyMemberInfo@CPythonPlayer@@@std@@@?$_Tree_temp_node@V?$allocator@U?$_Tree_node@U?$pair@$$CBKUSPartyMemberInfo@CPythonPlayer@@@std@@PAX@std@@@std@@@std@@QAE@AAV?$allocator@U?$_Tree_node@U?$pair@$$CBKUSPartyMemberInfo@CPythonPlayer@@@std@@PAX@std@@@1@PAU?$_Tree_node@U?$pair@$$CBKUSPartyMemberInfo@CPythonPlayer@@@std@@PAX@1@$$QAU?$pair@KUSPartyMemberInfo@CPythonPlayer@@@1@@Z DD 0ffffffffH
	DD	FLAT:__unwindfunclet$??$?0U?$pair@KUSPartyMemberInfo@CPythonPlayer@@@std@@@?$_Tree_temp_node@V?$allocator@U?$_Tree_node@U?$pair@$$CBKUSPartyMemberInfo@CPythonPlayer@@@std@@PAX@std@@@std@@@std@@QAE@AAV?$allocator@U?$_Tree_node@U?$pair@$$CBKUSPartyMemberInfo@CPythonPlayer@@@std@@PAX@std@@@1@PAU?$_Tree_node@U?$pair@$$CBKUSPartyMemberInfo@CPythonPlayer@@@std@@PAX@1@$$QAU?$pair@KUSPartyMemberInfo@CPythonPlayer@@@1@@Z$1
xdata$x	ENDS
;	COMDAT xdata$x
xdata$x	SEGMENT
__ehfuncinfo$??0?$_Tree_temp_node_alloc@V?$allocator@U?$_Tree_node@U?$pair@$$CBKUSPartyMemberInfo@CPythonPlayer@@@std@@PAX@std@@@std@@@std@@QAE@AAV?$allocator@U?$_Tree_node@U?$pair@$$CBKUSPartyMemberInfo@CPythonPlayer@@@std@@PAX@std@@@1@@Z DD 019930522H
	DD	01H
	DD	FLAT:__unwindtable$??0?$_Tree_temp_node_alloc@V?$allocator@U?$_Tree_node@U?$pair@$$CBKUSPartyMemberInfo@CPythonPlayer@@@std@@PAX@std@@@std@@@std@@QAE@AAV?$allocator@U?$_Tree_node@U?$pair@$$CBKUSPartyMemberInfo@CPythonPlayer@@@std@@PAX@std@@@1@@Z
	DD	2 DUP(00H)
	DD	2 DUP(00H)
	DD	00H
	DD	01H
__unwindtable$??0?$_Tree_temp_node_alloc@V?$allocator@U?$_Tree_node@U?$pair@$$CBKUSPartyMemberInfo@CPythonPlayer@@@std@@PAX@std@@@std@@@std@@QAE@AAV?$allocator@U?$_Tree_node@U?$pair@$$CBKUSPartyMemberInfo@CPythonPlayer@@@std@@PAX@std@@@1@@Z DD 0ffffffffH
	DD	FLAT:__unwindfunclet$??0?$_Tree_temp_node_alloc@V?$allocator@U?$_Tree_node@U?$pair@$$CBKUSPartyMemberInfo@CPythonPlayer@@@std@@PAX@std@@@std@@@std@@QAE@AAV?$allocator@U?$_Tree_node@U?$pair@$$CBKUSPartyMemberInfo@CPythonPlayer@@@std@@PAX@std@@@1@@Z$0
; Function compile flags: /Ogtp
; File E:\Metin2_server\SolWayneSF v6\ClientVS22\source\UserInterface\PythonPlayer.cpp
;	COMDAT ?IsObserverMode@CPythonPlayer@@QAE_NXZ
_TEXT	SEGMENT
?IsObserverMode@CPythonPlayer@@QAE_NXZ PROC		; CPythonPlayer::IsObserverMode, COMDAT
; _this$ = ecx

; 1506 : 	return m_isObserverMode;

  00000	8a 81 55 2e 01
	00		 mov	 al, BYTE PTR [ecx+77397]

; 1507 : }

  00006	c3		 ret	 0
?IsObserverMode@CPythonPlayer@@QAE_NXZ ENDP		; CPythonPlayer::IsObserverMode
_TEXT	ENDS
; Function compile flags: /Ogtp
; File E:\Metin2_server\SolWayneSF v6\ClientVS22\source\UserInterface\PythonPlayer.cpp
;	COMDAT ?Update@CPythonPlayer@@QAEXXZ
_TEXT	SEGMENT
_fElapsedTime$1 = -16					; size = 4
_PixelPosition$2 = -12					; size = 12
?Update@CPythonPlayer@@QAEXXZ PROC			; CPythonPlayer::Update, COMDAT
; _this$ = ecx

; 141  : {

  00000	55		 push	 ebp
  00001	8b ec		 mov	 ebp, esp
  00003	83 e4 f8	 and	 esp, -8			; fffffff8H
  00006	83 ec 14	 sub	 esp, 20			; 00000014H
  00009	56		 push	 esi
  0000a	8b f1		 mov	 esi, ecx

; 142  : 	NEW_RefreshMouseWalkingDirection();

  0000c	e8 00 00 00 00	 call	 ?NEW_RefreshMouseWalkingDirection@CPythonPlayer@@IAEXXZ ; CPythonPlayer::NEW_RefreshMouseWalkingDirection

; 143  : 
; 144  : 	CPythonPlayerEventHandler& rkPlayerEventHandler=CPythonPlayerEventHandler::GetSingleton();

  00011	e8 00 00 00 00	 call	 ?GetSingleton@CPythonPlayerEventHandler@@SAAAV1@XZ ; CPythonPlayerEventHandler::GetSingleton

; 145  : 	rkPlayerEventHandler.FlushVictimList();

  00016	8b c8		 mov	 ecx, eax
  00018	e8 00 00 00 00	 call	 ?FlushVictimList@CPythonPlayerEventHandler@@QAEXXZ ; CPythonPlayerEventHandler::FlushVictimList

; 146  : 
; 147  : 	if (m_isDestPosition)

  0001d	83 be 24 2e 01
	00 00		 cmp	 DWORD PTR [esi+77348], 0
  00024	74 75		 je	 SHORT $LN6@Update

; 148  : 	{
; 149  : 		CInstanceBase * pInstance = NEW_GetMainActorPtr();

  00026	8b 46 04	 mov	 eax, DWORD PTR [esi+4]
  00029	8d 4e 04	 lea	 ecx, DWORD PTR [esi+4]
  0002c	ff 90 88 00 00
	00		 call	 DWORD PTR [eax+136]

; 150  : 		if (pInstance)

  00032	85 c0		 test	 eax, eax
  00034	74 65		 je	 SHORT $LN6@Update

; 151  : 		{
; 152  : 			TPixelPosition PixelPosition;
; 153  : 			pInstance->NEW_GetPixelPosition(&PixelPosition);

  00036	8d 4c 24 0c	 lea	 ecx, DWORD PTR _PixelPosition$2[esp+24]
  0003a	51		 push	 ecx
  0003b	8b c8		 mov	 ecx, eax
  0003d	e8 00 00 00 00	 call	 ?NEW_GetPixelPosition@CInstanceBase@@QAEXPAUD3DXVECTOR3@@@Z ; CInstanceBase::NEW_GetPixelPosition

; 154  : 
; 155  : 			if (abs(int(PixelPosition.x) - m_ixDestPos) + abs(int(PixelPosition.y) - m_iyDestPos) < 10000)

  00042	f3 0f 2c 44 24
	10		 cvttss2si eax, DWORD PTR _PixelPosition$2[esp+28]
  00048	2b 86 2c 2e 01
	00		 sub	 eax, DWORD PTR [esi+77356]
  0004e	99		 cdq
  0004f	8b c8		 mov	 ecx, eax
  00051	f3 0f 2c 44 24
	0c		 cvttss2si eax, DWORD PTR _PixelPosition$2[esp+24]
  00057	33 ca		 xor	 ecx, edx
  00059	2b ca		 sub	 ecx, edx
  0005b	2b 86 28 2e 01
	00		 sub	 eax, DWORD PTR [esi+77352]
  00061	99		 cdq
  00062	33 c2		 xor	 eax, edx
  00064	2b c2		 sub	 eax, edx
  00066	03 c8		 add	 ecx, eax
  00068	81 f9 10 27 00
	00		 cmp	 ecx, 10000		; 00002710H
  0006e	7d 0c		 jge	 SHORT $LN4@Update

; 156  : 			{
; 157  : 				m_isDestPosition = FALSE;

  00070	c7 86 24 2e 01
	00 00 00 00 00	 mov	 DWORD PTR [esi+77348], 0

; 158  : 			}

  0007a	eb 1f		 jmp	 SHORT $LN6@Update
$LN4@Update:

; 159  : 			else
; 160  : 			{
; 161  : 				if (CTimer::Instance().GetCurrentMillisecond() - m_iLastAlarmTime > 20000)

  0007c	8b 0d 00 00 00
	00		 mov	 ecx, DWORD PTR ?ms_singleton@?$CSingleton@VCTimer@@@@0PAVCTimer@@A ; CSingleton<CTimer>::ms_singleton
  00082	e8 00 00 00 00	 call	 ?GetCurrentMillisecond@CTimer@@QAEKXZ ; CTimer::GetCurrentMillisecond
  00087	2b 86 30 2e 01
	00		 sub	 eax, DWORD PTR [esi+77360]
  0008d	3d 20 4e 00 00	 cmp	 eax, 20000		; 00004e20H
  00092	76 07		 jbe	 SHORT $LN6@Update

; 162  : 				{
; 163  : 					AlarmHaveToGo();

  00094	8b ce		 mov	 ecx, esi
  00096	e8 00 00 00 00	 call	 ?AlarmHaveToGo@CPythonPlayer@@QAEXXZ ; CPythonPlayer::AlarmHaveToGo
$LN6@Update:

; 164  : 				}
; 165  : 			}
; 166  : 		}
; 167  : 	}
; 168  : 
; 169  : 	if (m_isConsumingStamina)

  0009b	83 be 58 2e 01
	00 00		 cmp	 DWORD PTR [esi+77400], 0
  000a2	74 61		 je	 SHORT $LN7@Update

; 170  : 	{
; 171  : 		float fElapsedTime = CTimer::Instance().GetElapsedSecond();

  000a4	8b 0d 00 00 00
	00		 mov	 ecx, DWORD PTR ?ms_singleton@?$CSingleton@VCTimer@@@@0PAVCTimer@@A ; CSingleton<CTimer>::ms_singleton
  000aa	e8 00 00 00 00	 call	 ?GetElapsedSecond@CTimer@@QAEMXZ ; CTimer::GetElapsedSecond

; 172  : 		m_fCurrentStamina -= (fElapsedTime * m_fConsumeStaminaPerSec);

  000af	f3 0f 10 86 5c
	2e 01 00	 movss	 xmm0, DWORD PTR [esi+77404]
  000b7	d9 5c 24 08	 fstp	 DWORD PTR _fElapsedTime$1[esp+24]
  000bb	f3 0f 10 4c 24
	08		 movss	 xmm1, DWORD PTR _fElapsedTime$1[esp+24]
  000c1	f3 0f 59 8e 60
	2e 01 00	 mulss	 xmm1, DWORD PTR [esi+77408]
  000c9	f3 0f 5c c1	 subss	 xmm0, xmm1
  000cd	f3 0f 11 86 5c
	2e 01 00	 movss	 DWORD PTR [esi+77404], xmm0

; 173  : 
; 174  : 		SetStatus(POINT_STAMINA, DWORD(m_fCurrentStamina));

  000d5	e8 00 00 00 00	 call	 __ftol3
  000da	6a 00		 push	 0
  000dc	50		 push	 eax
  000dd	6a 09		 push	 9
  000df	8b ce		 mov	 ecx, esi
  000e1	e8 00 00 00 00	 call	 ?SetStatus@CPythonPlayer@@QAEXK_J@Z ; CPythonPlayer::SetStatus

; 175  : 
; 176  : 		PyCallClassMemberFunc(m_ppyGameWindow, "RefreshStamina", Py_BuildValue("()"));

  000e6	68 00 00 00 00	 push	 OFFSET ??_C@_02HCKGKOFO@?$CI?$CJ@
  000eb	ff 15 00 00 00
	00		 call	 DWORD PTR __imp__Py_BuildValue
  000f1	83 c4 04	 add	 esp, 4
  000f4	50		 push	 eax
  000f5	68 00 00 00 00	 push	 OFFSET ??_C@_0P@KCGJBOBB@RefreshStamina@
  000fa	ff 76 08	 push	 DWORD PTR [esi+8]
  000fd	e8 00 00 00 00	 call	 ?PyCallClassMemberFunc@@YA_NPAU_object@@PBD0@Z ; PyCallClassMemberFunc
  00102	83 c4 0c	 add	 esp, 12			; 0000000cH
$LN7@Update:

; 177  : 	}
; 178  : 
; 179  : 	__Update_AutoAttack();

  00105	8b ce		 mov	 ecx, esi
  00107	e8 00 00 00 00	 call	 ?__Update_AutoAttack@CPythonPlayer@@IAEXXZ ; CPythonPlayer::__Update_AutoAttack

; 180  : 	__Update_NotifyGuildAreaEvent();

  0010c	8b ce		 mov	 ecx, esi
  0010e	e8 00 00 00 00	 call	 ?__Update_NotifyGuildAreaEvent@CPythonPlayer@@IAEXXZ ; CPythonPlayer::__Update_NotifyGuildAreaEvent

; 181  : }

  00113	5e		 pop	 esi
  00114	8b e5		 mov	 esp, ebp
  00116	5d		 pop	 ebp
  00117	c3		 ret	 0
?Update@CPythonPlayer@@QAEXXZ ENDP			; CPythonPlayer::Update
_TEXT	ENDS
; Function compile flags: /Ogtp
; File E:\Metin2_server\SolWayneSF v6\ClientVS22\source\UserInterface\PythonPlayer.cpp
;	COMDAT ?NEW_GetMainActorPosition@CPythonPlayer@@QAEXPAUD3DXVECTOR3@@@Z
_TEXT	SEGMENT
_pkPPosActor$ = 8					; size = 4
?NEW_GetMainActorPosition@CPythonPlayer@@QAEXPAUD3DXVECTOR3@@@Z PROC ; CPythonPlayer::NEW_GetMainActorPosition, COMDAT
; _this$dead$ = ecx

; 88   : {

  00000	55		 push	 ebp
  00001	8b ec		 mov	 ebp, esp

; 89   : 	TPixelPosition kPPosMainActor;
; 90   : 
; 91   : 	IAbstractPlayer& rkPlayer=IAbstractPlayer::GetSingleton();

  00003	8b 0d 00 00 00
	00		 mov	 ecx, DWORD PTR ?ms_singleton@?$TAbstractSingleton@VIAbstractPlayer@@@@0PAVIAbstractPlayer@@A ; TAbstractSingleton<IAbstractPlayer>::ms_singleton

; 92   : 	CInstanceBase * pInstance = rkPlayer.NEW_GetMainActorPtr();

  00009	8b 01		 mov	 eax, DWORD PTR [ecx]
  0000b	ff 90 88 00 00
	00		 call	 DWORD PTR [eax+136]

; 93   : 	if (pInstance)

  00011	85 c0		 test	 eax, eax
  00013	74 08		 je	 SHORT $LN2@NEW_GetMai

; 94   : 	{
; 95   : 		pInstance->NEW_GetPixelPosition(pkPPosActor);

  00015	8b c8		 mov	 ecx, eax

; 100  : 	}
; 101  : }

  00017	5d		 pop	 ebp

; 94   : 	{
; 95   : 		pInstance->NEW_GetPixelPosition(pkPPosActor);

  00018	e9 00 00 00 00	 jmp	 ?NEW_GetPixelPosition@CInstanceBase@@QAEXPAUD3DXVECTOR3@@@Z ; CInstanceBase::NEW_GetPixelPosition
$LN2@NEW_GetMai:

; 96   : 	}
; 97   : 	else
; 98   : 	{
; 99   : 		CPythonApplication::Instance().GetCenterPosition(pkPPosActor);

  0001d	8b 0d 00 00 00
	00		 mov	 ecx, DWORD PTR ?ms_pInstance@CPythonApplication@@1PAV1@A ; CPythonApplication::ms_pInstance

; 100  : 	}
; 101  : }

  00023	5d		 pop	 ebp

; 96   : 	}
; 97   : 	else
; 98   : 	{
; 99   : 		CPythonApplication::Instance().GetCenterPosition(pkPPosActor);

  00024	e9 00 00 00 00	 jmp	 ?GetCenterPosition@CPythonApplication@@QAEXPAUD3DXVECTOR3@@@Z ; CPythonApplication::GetCenterPosition
?NEW_GetMainActorPosition@CPythonPlayer@@QAEXPAUD3DXVECTOR3@@@Z ENDP ; CPythonPlayer::NEW_GetMainActorPosition
_TEXT	ENDS
; Function compile flags: /Ogtp
; File E:\Metin2_server\SolWayneSF v6\ClientVS22\source\UserInterface\PythonPlayer.cpp
; File C:\Program Files\Microsoft Visual Studio\2022\Community\VC\Tools\MSVC\14.34.31933\include\xtree
; File E:\Metin2_server\SolWayneSF v6\ClientVS22\source\UserInterface\PythonPlayer.cpp
; File C:\Program Files\Microsoft Visual Studio\2022\Community\VC\Tools\MSVC\14.34.31933\include\xtree
; File C:\Program Files\Microsoft Visual Studio\2022\Community\VC\Tools\MSVC\14.34.31933\include\xmemory
; File C:\Program Files\Microsoft Visual Studio\2022\Community\VC\Tools\MSVC\14.34.31933\include\xtree
; File E:\Metin2_server\SolWayneSF v6\ClientVS22\source\UserInterface\PythonPlayer.cpp
; File C:\Program Files\Microsoft Visual Studio\2022\Community\VC\Tools\MSVC\14.34.31933\include\xmemory
; File C:\Program Files\Microsoft Visual Studio\2022\Community\VC\Tools\MSVC\14.34.31933\include\xtree
; File C:\Program Files\Microsoft Visual Studio\2022\Community\VC\Tools\MSVC\14.34.31933\include\xmemory
; File C:\Program Files\Microsoft Visual Studio\2022\Community\VC\Tools\MSVC\14.34.31933\include\xtree
; File E:\Metin2_server\SolWayneSF v6\ClientVS22\source\UserInterface\PythonPlayer.cpp
; File C:\Program Files\Microsoft Visual Studio\2022\Community\VC\Tools\MSVC\14.34.31933\include\xmemory
; File C:\Program Files\Microsoft Visual Studio\2022\Community\VC\Tools\MSVC\14.34.31933\include\xtree
; File C:\Program Files\Microsoft Visual Studio\2022\Community\VC\Tools\MSVC\14.34.31933\include\xmemory
; File C:\Program Files\Microsoft Visual Studio\2022\Community\VC\Tools\MSVC\14.34.31933\include\xtree
; File E:\Metin2_server\SolWayneSF v6\ClientVS22\source\UserInterface\PythonPlayer.cpp
; File C:\Program Files\Microsoft Visual Studio\2022\Community\VC\Tools\MSVC\14.34.31933\include\xmemory
; File C:\Program Files\Microsoft Visual Studio\2022\Community\VC\Tools\MSVC\14.34.31933\include\xtree
; File C:\Program Files\Microsoft Visual Studio\2022\Community\VC\Tools\MSVC\14.34.31933\include\xmemory
; File C:\Program Files\Microsoft Visual Studio\2022\Community\VC\Tools\MSVC\14.34.31933\include\xtree
; File E:\Metin2_server\SolWayneSF v6\ClientVS22\source\UserInterface\PythonPlayer.cpp
; File C:\Program Files\Microsoft Visual Studio\2022\Community\VC\Tools\MSVC\14.34.31933\include\xmemory
; File C:\Program Files\Microsoft Visual Studio\2022\Community\VC\Tools\MSVC\14.34.31933\include\xtree
; File C:\Program Files\Microsoft Visual Studio\2022\Community\VC\Tools\MSVC\14.34.31933\include\xmemory
; File C:\Program Files\Microsoft Visual Studio\2022\Community\VC\Tools\MSVC\14.34.31933\include\xstring
; File C:\Program Files\Microsoft Visual Studio\2022\Community\VC\Tools\MSVC\14.34.31933\include\xmemory
; File C:\Program Files\Microsoft Visual Studio\2022\Community\VC\Tools\MSVC\14.34.31933\include\xstring
; File C:\Program Files\Microsoft Visual Studio\2022\Community\VC\Tools\MSVC\14.34.31933\include\xmemory
; File C:\Program Files\Microsoft Visual Studio\2022\Community\VC\Tools\MSVC\14.34.31933\include\xstring
; File C:\Program Files\Microsoft Visual Studio\2022\Community\VC\Tools\MSVC\14.34.31933\include\xmemory
; File E:\Metin2_server\SolWayneSF v6\ClientVS22\source\UserInterface\PythonPlayer.cpp
; File C:\Program Files\Microsoft Visual Studio\2022\Community\VC\Tools\MSVC\14.34.31933\include\xstring
; File C:\Program Files\Microsoft Visual Studio\2022\Community\VC\Tools\MSVC\14.34.31933\include\xtree
; File C:\Program Files\Microsoft Visual Studio\2022\Community\VC\Tools\MSVC\14.34.31933\include\xstring
; File C:\Program Files\Microsoft Visual Studio\2022\Community\VC\Tools\MSVC\14.34.31933\include\xtree
; File C:\Program Files\Microsoft Visual Studio\2022\Community\VC\Tools\MSVC\14.34.31933\include\xmemory
; File E:\Metin2_server\SolWayneSF v6\ClientVS22\source\UserInterface\AbstractSingleton.h
; File E:\Metin2_server\SolWayneSF v6\ClientVS22\source\eterBase\Singleton.h
; File E:\Metin2_server\SolWayneSF v6\ClientVS22\source\UserInterface\AbstractSingleton.h
; File E:\Metin2_server\SolWayneSF v6\ClientVS22\source\eterBase\Singleton.h
; File E:\Metin2_server\SolWayneSF v6\ClientVS22\source\UserInterface\PythonPlayer.cpp
; File C:\Program Files\Microsoft Visual Studio\2022\Community\VC\Tools\MSVC\14.34.31933\include\xmemory
; File E:\Metin2_server\SolWayneSF v6\ClientVS22\source\UserInterface\PythonPlayer.cpp
;	COMDAT ??1CPythonPlayer@@UAE@XZ
_TEXT	SEGMENT
??1CPythonPlayer@@UAE@XZ PROC				; CPythonPlayer::~CPythonPlayer, COMDAT
; _this$ = ecx

; 1730 : {

  00000	56		 push	 esi
  00001	57		 push	 edi
  00002	8b f9		 mov	 edi, ecx

; 1731 : }

  00004	8d b7 cc 2e 01
	00		 lea	 esi, DWORD PTR [edi+77516]
; File C:\Program Files\Microsoft Visual Studio\2022\Community\VC\Tools\MSVC\14.34.31933\include\xtree

; 754  :         _Erase_tree(_Al, _Myhead->_Parent);

  0000a	8b ce		 mov	 ecx, esi
; File E:\Metin2_server\SolWayneSF v6\ClientVS22\source\UserInterface\PythonPlayer.cpp

; 1730 : {

  0000c	c7 07 00 00 00
	00		 mov	 DWORD PTR [edi], OFFSET ??_7CPythonPlayer@@6B?$CSingleton@VCPythonPlayer@@@@@
  00012	c7 47 04 00 00
	00 00		 mov	 DWORD PTR [edi+4], OFFSET ??_7CPythonPlayer@@6BIAbstractPlayer@@@
; File C:\Program Files\Microsoft Visual Studio\2022\Community\VC\Tools\MSVC\14.34.31933\include\xtree

; 754  :         _Erase_tree(_Al, _Myhead->_Parent);

  00019	8b 06		 mov	 eax, DWORD PTR [esi]
  0001b	ff 70 04	 push	 DWORD PTR [eax+4]
  0001e	56		 push	 esi
  0001f	e8 00 00 00 00	 call	 ??$_Erase_tree@V?$allocator@U?$_Tree_node@U?$pair@$$CBKK@std@@PAX@std@@@std@@@?$_Tree_val@U?$_Tree_simple_types@U?$pair@$$CBKK@std@@@std@@@std@@QAEXAAV?$allocator@U?$_Tree_node@U?$pair@$$CBKK@std@@PAX@std@@@1@PAU?$_Tree_node@U?$pair@$$CBKK@std@@PAX@1@@Z ; std::_Tree_val<std::_Tree_simple_types<std::pair<unsigned long const ,unsigned long> > >::_Erase_tree<std::allocator<std::_Tree_node<std::pair<unsigned long const ,unsigned long>,void *> > >
; File C:\Program Files\Microsoft Visual Studio\2022\Community\VC\Tools\MSVC\14.34.31933\include\xmemory

; 255  :         ::operator delete(_Ptr, _Bytes);

  00024	6a 18		 push	 24			; 00000018H
  00026	ff 36		 push	 DWORD PTR [esi]
  00028	e8 00 00 00 00	 call	 ??3@YAXPAXI@Z		; operator delete
; File C:\Program Files\Microsoft Visual Studio\2022\Community\VC\Tools\MSVC\14.34.31933\include\xtree

; 754  :         _Erase_tree(_Al, _Myhead->_Parent);

  0002d	8b 87 4c 2e 01
	00		 mov	 eax, DWORD PTR [edi+77388]
; File E:\Metin2_server\SolWayneSF v6\ClientVS22\source\UserInterface\PythonPlayer.cpp

; 1731 : }

  00033	8d b7 4c 2e 01
	00		 lea	 esi, DWORD PTR [edi+77388]
; File C:\Program Files\Microsoft Visual Studio\2022\Community\VC\Tools\MSVC\14.34.31933\include\xmemory

; 255  :         ::operator delete(_Ptr, _Bytes);

  00039	83 c4 08	 add	 esp, 8
; File C:\Program Files\Microsoft Visual Studio\2022\Community\VC\Tools\MSVC\14.34.31933\include\xtree

; 754  :         _Erase_tree(_Al, _Myhead->_Parent);

  0003c	8b ce		 mov	 ecx, esi
  0003e	ff 70 04	 push	 DWORD PTR [eax+4]
  00041	56		 push	 esi
  00042	e8 00 00 00 00	 call	 ??$_Erase_tree@V?$allocator@U?$_Tree_node@KPAX@std@@@std@@@?$_Tree_val@U?$_Tree_simple_types@K@std@@@std@@QAEXAAV?$allocator@U?$_Tree_node@KPAX@std@@@1@PAU?$_Tree_node@KPAX@1@@Z ; std::_Tree_val<std::_Tree_simple_types<unsigned long> >::_Erase_tree<std::allocator<std::_Tree_node<unsigned long,void *> > >
; File C:\Program Files\Microsoft Visual Studio\2022\Community\VC\Tools\MSVC\14.34.31933\include\xmemory

; 255  :         ::operator delete(_Ptr, _Bytes);

  00047	6a 14		 push	 20			; 00000014H
  00049	ff 36		 push	 DWORD PTR [esi]
  0004b	e8 00 00 00 00	 call	 ??3@YAXPAXI@Z		; operator delete
; File C:\Program Files\Microsoft Visual Studio\2022\Community\VC\Tools\MSVC\14.34.31933\include\xtree

; 754  :         _Erase_tree(_Al, _Myhead->_Parent);

  00050	8b 87 44 2e 01
	00		 mov	 eax, DWORD PTR [edi+77380]
; File E:\Metin2_server\SolWayneSF v6\ClientVS22\source\UserInterface\PythonPlayer.cpp

; 1731 : }

  00056	8d b7 44 2e 01
	00		 lea	 esi, DWORD PTR [edi+77380]
; File C:\Program Files\Microsoft Visual Studio\2022\Community\VC\Tools\MSVC\14.34.31933\include\xmemory

; 255  :         ::operator delete(_Ptr, _Bytes);

  0005c	83 c4 08	 add	 esp, 8
; File C:\Program Files\Microsoft Visual Studio\2022\Community\VC\Tools\MSVC\14.34.31933\include\xtree

; 754  :         _Erase_tree(_Al, _Myhead->_Parent);

  0005f	8b ce		 mov	 ecx, esi
  00061	ff 70 04	 push	 DWORD PTR [eax+4]
  00064	56		 push	 esi
  00065	e8 00 00 00 00	 call	 ??$_Erase_tree@V?$allocator@U?$_Tree_node@KPAX@std@@@std@@@?$_Tree_val@U?$_Tree_simple_types@K@std@@@std@@QAEXAAV?$allocator@U?$_Tree_node@KPAX@std@@@1@PAU?$_Tree_node@KPAX@1@@Z ; std::_Tree_val<std::_Tree_simple_types<unsigned long> >::_Erase_tree<std::allocator<std::_Tree_node<unsigned long,void *> > >
; File C:\Program Files\Microsoft Visual Studio\2022\Community\VC\Tools\MSVC\14.34.31933\include\xmemory

; 255  :         ::operator delete(_Ptr, _Bytes);

  0006a	6a 14		 push	 20			; 00000014H
  0006c	ff 36		 push	 DWORD PTR [esi]
  0006e	e8 00 00 00 00	 call	 ??3@YAXPAXI@Z		; operator delete
; File C:\Program Files\Microsoft Visual Studio\2022\Community\VC\Tools\MSVC\14.34.31933\include\xtree

; 754  :         _Erase_tree(_Al, _Myhead->_Parent);

  00073	8b 87 3c 2e 01
	00		 mov	 eax, DWORD PTR [edi+77372]
; File E:\Metin2_server\SolWayneSF v6\ClientVS22\source\UserInterface\PythonPlayer.cpp

; 1731 : }

  00079	8d b7 3c 2e 01
	00		 lea	 esi, DWORD PTR [edi+77372]
; File C:\Program Files\Microsoft Visual Studio\2022\Community\VC\Tools\MSVC\14.34.31933\include\xmemory

; 255  :         ::operator delete(_Ptr, _Bytes);

  0007f	83 c4 08	 add	 esp, 8
; File C:\Program Files\Microsoft Visual Studio\2022\Community\VC\Tools\MSVC\14.34.31933\include\xtree

; 754  :         _Erase_tree(_Al, _Myhead->_Parent);

  00082	8b ce		 mov	 ecx, esi
  00084	ff 70 04	 push	 DWORD PTR [eax+4]
  00087	56		 push	 esi
  00088	e8 00 00 00 00	 call	 ??$_Erase_tree@V?$allocator@U?$_Tree_node@KPAX@std@@@std@@@?$_Tree_val@U?$_Tree_simple_types@K@std@@@std@@QAEXAAV?$allocator@U?$_Tree_node@KPAX@std@@@1@PAU?$_Tree_node@KPAX@1@@Z ; std::_Tree_val<std::_Tree_simple_types<unsigned long> >::_Erase_tree<std::allocator<std::_Tree_node<unsigned long,void *> > >
; File C:\Program Files\Microsoft Visual Studio\2022\Community\VC\Tools\MSVC\14.34.31933\include\xmemory

; 255  :         ::operator delete(_Ptr, _Bytes);

  0008d	6a 14		 push	 20			; 00000014H
  0008f	ff 36		 push	 DWORD PTR [esi]
  00091	e8 00 00 00 00	 call	 ??3@YAXPAXI@Z		; operator delete
; File C:\Program Files\Microsoft Visual Studio\2022\Community\VC\Tools\MSVC\14.34.31933\include\xtree

; 754  :         _Erase_tree(_Al, _Myhead->_Parent);

  00096	8b 87 34 2e 01
	00		 mov	 eax, DWORD PTR [edi+77364]
; File E:\Metin2_server\SolWayneSF v6\ClientVS22\source\UserInterface\PythonPlayer.cpp

; 1731 : }

  0009c	8d b7 34 2e 01
	00		 lea	 esi, DWORD PTR [edi+77364]
; File C:\Program Files\Microsoft Visual Studio\2022\Community\VC\Tools\MSVC\14.34.31933\include\xmemory

; 255  :         ::operator delete(_Ptr, _Bytes);

  000a2	83 c4 08	 add	 esp, 8
; File C:\Program Files\Microsoft Visual Studio\2022\Community\VC\Tools\MSVC\14.34.31933\include\xtree

; 754  :         _Erase_tree(_Al, _Myhead->_Parent);

  000a5	8b ce		 mov	 ecx, esi
  000a7	ff 70 04	 push	 DWORD PTR [eax+4]
  000aa	56		 push	 esi
  000ab	e8 00 00 00 00	 call	 ??$_Erase_tree@V?$allocator@U?$_Tree_node@U?$pair@$$CBKUSPartyMemberInfo@CPythonPlayer@@@std@@PAX@std@@@std@@@?$_Tree_val@U?$_Tree_simple_types@U?$pair@$$CBKUSPartyMemberInfo@CPythonPlayer@@@std@@@std@@@std@@QAEXAAV?$allocator@U?$_Tree_node@U?$pair@$$CBKUSPartyMemberInfo@CPythonPlayer@@@std@@PAX@std@@@1@PAU?$_Tree_node@U?$pair@$$CBKUSPartyMemberInfo@CPythonPlayer@@@std@@PAX@1@@Z ; std::_Tree_val<std::_Tree_simple_types<std::pair<unsigned long const ,CPythonPlayer::SPartyMemberInfo> > >::_Erase_tree<std::allocator<std::_Tree_node<std::pair<unsigned long const ,CPythonPlayer::SPartyMemberInfo>,void *> > >
; File C:\Program Files\Microsoft Visual Studio\2022\Community\VC\Tools\MSVC\14.34.31933\include\xmemory

; 255  :         ::operator delete(_Ptr, _Bytes);

  000b0	6a 44		 push	 68			; 00000044H
  000b2	ff 36		 push	 DWORD PTR [esi]
  000b4	e8 00 00 00 00	 call	 ??3@YAXPAXI@Z		; operator delete
; File C:\Program Files\Microsoft Visual Studio\2022\Community\VC\Tools\MSVC\14.34.31933\include\xstring

; 2301 :         return _BUF_SIZE <= _Myres;

  000b9	8b 4f 28	 mov	 ecx, DWORD PTR [edi+40]
; File C:\Program Files\Microsoft Visual Studio\2022\Community\VC\Tools\MSVC\14.34.31933\include\xmemory

; 255  :         ::operator delete(_Ptr, _Bytes);

  000bc	83 c4 08	 add	 esp, 8
; File C:\Program Files\Microsoft Visual Studio\2022\Community\VC\Tools\MSVC\14.34.31933\include\xstring

; 2301 :         return _BUF_SIZE <= _Myres;

  000bf	83 f9 10	 cmp	 ecx, 16			; 00000010H

; 5008 :         if (_My_data._Large_string_engaged()) {

  000c2	72 28		 jb	 SHORT $LN281@CPythonPla
; File C:\Program Files\Microsoft Visual Studio\2022\Community\VC\Tools\MSVC\14.34.31933\include\xmemory

; 830  :         _Deallocate<_New_alignof<_Ty>>(_Ptr, sizeof(_Ty) * _Count);

  000c4	8b 47 14	 mov	 eax, DWORD PTR [edi+20]
; File C:\Program Files\Microsoft Visual Studio\2022\Community\VC\Tools\MSVC\14.34.31933\include\xstring

; 5013 :             _Al.deallocate(_Ptr, _My_data._Myres + 1);

  000c7	41		 inc	 ecx
; File C:\Program Files\Microsoft Visual Studio\2022\Community\VC\Tools\MSVC\14.34.31933\include\xmemory

; 251  :         if (_Bytes >= _Big_allocation_threshold) { // boost the alignment of big allocations to help autovectorization

  000c8	81 f9 00 10 00
	00		 cmp	 ecx, 4096		; 00001000H
  000ce	72 12		 jb	 SHORT $LN293@CPythonPla

; 150  :     const uintptr_t _Ptr_container   = _Ptr_user[-1];

  000d0	8b 50 fc	 mov	 edx, DWORD PTR [eax-4]
  000d3	83 c1 23	 add	 ecx, 35			; 00000023H

; 151  : 
; 152  :     // If the following asserts, it likely means that we are performing
; 153  :     // an aligned delete on memory coming from an unaligned allocation.
; 154  :     _STL_ASSERT(_Ptr_user[-2] == _Big_allocation_sentinel, "invalid argument");
; 155  : 
; 156  :     // Extra paranoia on aligned allocation/deallocation; ensure _Ptr_container is
; 157  :     // in range [_Min_back_shift, _Non_user_size]
; 158  : #ifdef _DEBUG
; 159  :     constexpr uintptr_t _Min_back_shift = 2 * sizeof(void*);
; 160  : #else // ^^^ _DEBUG ^^^ // vvv !_DEBUG vvv
; 161  :     constexpr uintptr_t _Min_back_shift = sizeof(void*);
; 162  : #endif // _DEBUG
; 163  :     const uintptr_t _Back_shift = reinterpret_cast<uintptr_t>(_Ptr) - _Ptr_container;

  000d6	2b c2		 sub	 eax, edx

; 164  :     _STL_VERIFY(_Back_shift >= _Min_back_shift && _Back_shift <= _Non_user_size, "invalid argument");

  000d8	83 c0 fc	 add	 eax, -4			; fffffffcH
  000db	83 f8 1f	 cmp	 eax, 31			; 0000001fH
  000de	77 5e		 ja	 SHORT $LN290@CPythonPla

; 165  :     _Ptr = reinterpret_cast<void*>(_Ptr_container);

  000e0	8b c2		 mov	 eax, edx
$LN293@CPythonPla:

; 255  :         ::operator delete(_Ptr, _Bytes);

  000e2	51		 push	 ecx
  000e3	50		 push	 eax
  000e4	e8 00 00 00 00	 call	 ??3@YAXPAXI@Z		; operator delete
  000e9	83 c4 08	 add	 esp, 8
$LN281@CPythonPla:
; File E:\Metin2_server\SolWayneSF v6\ClientVS22\source\UserInterface\PythonPlayer.cpp

; 1731 : }

  000ec	8d 77 0c	 lea	 esi, DWORD PTR [edi+12]
; File C:\Program Files\Microsoft Visual Studio\2022\Community\VC\Tools\MSVC\14.34.31933\include\xstring

; 5016 :         _My_data._Mysize = 0;

  000ef	c7 47 24 00 00
	00 00		 mov	 DWORD PTR [edi+36], 0

; 5017 :         _My_data._Myres  = _BUF_SIZE - 1;

  000f6	c7 47 28 0f 00
	00 00		 mov	 DWORD PTR [edi+40], 15	; 0000000fH
; File C:\Program Files\Microsoft Visual Studio\2022\Community\VC\Tools\MSVC\14.34.31933\include\xtree

; 754  :         _Erase_tree(_Al, _Myhead->_Parent);

  000fd	8b ce		 mov	 ecx, esi
; File C:\Program Files\Microsoft Visual Studio\2022\Community\VC\Tools\MSVC\14.34.31933\include\xstring

; 5019 :         _Traits::assign(_My_data._Bx._Buf[0], _Elem());

  000ff	c6 47 14 00	 mov	 BYTE PTR [edi+20], 0
; File C:\Program Files\Microsoft Visual Studio\2022\Community\VC\Tools\MSVC\14.34.31933\include\xtree

; 754  :         _Erase_tree(_Al, _Myhead->_Parent);

  00103	8b 06		 mov	 eax, DWORD PTR [esi]
  00105	ff 70 04	 push	 DWORD PTR [eax+4]
  00108	56		 push	 esi
  00109	e8 00 00 00 00	 call	 ??$_Erase_tree@V?$allocator@U?$_Tree_node@U?$pair@$$CBKK@std@@PAX@std@@@std@@@?$_Tree_val@U?$_Tree_simple_types@U?$pair@$$CBKK@std@@@std@@@std@@QAEXAAV?$allocator@U?$_Tree_node@U?$pair@$$CBKK@std@@PAX@std@@@1@PAU?$_Tree_node@U?$pair@$$CBKK@std@@PAX@1@@Z ; std::_Tree_val<std::_Tree_simple_types<std::pair<unsigned long const ,unsigned long> > >::_Erase_tree<std::allocator<std::_Tree_node<std::pair<unsigned long const ,unsigned long>,void *> > >
; File C:\Program Files\Microsoft Visual Studio\2022\Community\VC\Tools\MSVC\14.34.31933\include\xmemory

; 255  :         ::operator delete(_Ptr, _Bytes);

  0010e	6a 18		 push	 24			; 00000018H
  00110	ff 36		 push	 DWORD PTR [esi]
  00112	e8 00 00 00 00	 call	 ??3@YAXPAXI@Z		; operator delete
  00117	83 c4 08	 add	 esp, 8
; File E:\Metin2_server\SolWayneSF v6\ClientVS22\source\UserInterface\AbstractSingleton.h

; 17   : 	{ 

  0011a	c7 47 04 00 00
	00 00		 mov	 DWORD PTR [edi+4], OFFSET ??_7?$TAbstractSingleton@VIAbstractPlayer@@@@6B@
; File E:\Metin2_server\SolWayneSF v6\ClientVS22\source\eterBase\Singleton.h

; 19   : 	{ 

  00121	c7 07 00 00 00
	00		 mov	 DWORD PTR [edi], OFFSET ??_7?$CSingleton@VCPythonPlayer@@@@6B@
; File E:\Metin2_server\SolWayneSF v6\ClientVS22\source\UserInterface\AbstractSingleton.h

; 19   : 		ms_singleton = 0; 

  00127	c7 05 00 00 00
	00 00 00 00 00	 mov	 DWORD PTR ?ms_singleton@?$TAbstractSingleton@VIAbstractPlayer@@@@0PAVIAbstractPlayer@@A, 0 ; TAbstractSingleton<IAbstractPlayer>::ms_singleton
; File E:\Metin2_server\SolWayneSF v6\ClientVS22\source\eterBase\Singleton.h

; 21   : 		ms_singleton = 0; 

  00131	c7 05 00 00 00
	00 00 00 00 00	 mov	 DWORD PTR ?ms_singleton@?$CSingleton@VCPythonPlayer@@@@0PAVCPythonPlayer@@A, 0 ; CSingleton<CPythonPlayer>::ms_singleton
  0013b	5f		 pop	 edi
  0013c	5e		 pop	 esi
; File E:\Metin2_server\SolWayneSF v6\ClientVS22\source\UserInterface\PythonPlayer.cpp

; 1731 : }

  0013d	c3		 ret	 0
$LN290@CPythonPla:
; File C:\Program Files\Microsoft Visual Studio\2022\Community\VC\Tools\MSVC\14.34.31933\include\xmemory

; 164  :     _STL_VERIFY(_Back_shift >= _Min_back_shift && _Back_shift <= _Non_user_size, "invalid argument");

  0013e	e8 00 00 00 00	 call	 __invalid_parameter_noinfo_noreturn
$LN358@CPythonPla:
  00143	cc		 int	 3
??1CPythonPlayer@@UAE@XZ ENDP				; CPythonPlayer::~CPythonPlayer
_TEXT	ENDS
; Function compile flags: /Ogtp
; File E:\Metin2_server\SolWayneSF v6\ClientVS22\source\UserInterface\PythonPlayer.cpp
; File E:\Metin2_server\SolWayneSF v6\ClientVS22\source\eterBase\Singleton.h
; File E:\Metin2_server\SolWayneSF v6\ClientVS22\source\UserInterface\PythonPlayer.cpp
; File E:\Metin2_server\SolWayneSF v6\ClientVS22\source\UserInterface\AbstractSingleton.h
; File E:\Metin2_server\SolWayneSF v6\ClientVS22\source\UserInterface\AbstractPlayer.h
; File E:\Metin2_server\SolWayneSF v6\ClientVS22\source\UserInterface\PythonPlayer.cpp
; File C:\Program Files\Microsoft Visual Studio\2022\Community\VC\Tools\MSVC\14.34.31933\include\xmemory
; File C:\Program Files\Microsoft Visual Studio\2022\Community\VC\Tools\MSVC\14.34.31933\include\xtree
; File C:\Program Files\Microsoft Visual Studio\2022\Community\VC\Tools\MSVC\14.34.31933\include\xmemory
; File C:\Program Files\Microsoft Visual Studio\2022\Community\VC\Tools\MSVC\14.34.31933\include\xtree
; File E:\Metin2_server\SolWayneSF v6\ClientVS22\source\UserInterface\PythonPlayer.cpp
; File C:\Program Files\Microsoft Visual Studio\2022\Community\VC\Tools\MSVC\14.34.31933\include\xstring
; File E:\Metin2_server\SolWayneSF v6\ClientVS22\source\UserInterface\PythonPlayer.cpp
; File C:\Program Files\Microsoft Visual Studio\2022\Community\VC\Tools\MSVC\14.34.31933\include\xmemory
; File C:\Program Files\Microsoft Visual Studio\2022\Community\VC\Tools\MSVC\14.34.31933\include\xtree
; File C:\Program Files\Microsoft Visual Studio\2022\Community\VC\Tools\MSVC\14.34.31933\include\xmemory
; File C:\Program Files\Microsoft Visual Studio\2022\Community\VC\Tools\MSVC\14.34.31933\include\xtree
; File E:\Metin2_server\SolWayneSF v6\ClientVS22\source\UserInterface\PythonPlayer.cpp
; File C:\Program Files\Microsoft Visual Studio\2022\Community\VC\Tools\MSVC\14.34.31933\include\xmemory
; File C:\Program Files\Microsoft Visual Studio\2022\Community\VC\Tools\MSVC\14.34.31933\include\xtree
; File C:\Program Files\Microsoft Visual Studio\2022\Community\VC\Tools\MSVC\14.34.31933\include\xmemory
; File C:\Program Files\Microsoft Visual Studio\2022\Community\VC\Tools\MSVC\14.34.31933\include\xtree
; File E:\Metin2_server\SolWayneSF v6\ClientVS22\source\UserInterface\PythonPlayer.cpp
; File C:\Program Files\Microsoft Visual Studio\2022\Community\VC\Tools\MSVC\14.34.31933\include\xmemory
; File C:\Program Files\Microsoft Visual Studio\2022\Community\VC\Tools\MSVC\14.34.31933\include\xtree
; File C:\Program Files\Microsoft Visual Studio\2022\Community\VC\Tools\MSVC\14.34.31933\include\xmemory
; File C:\Program Files\Microsoft Visual Studio\2022\Community\VC\Tools\MSVC\14.34.31933\include\xtree
; File E:\Metin2_server\SolWayneSF v6\ClientVS22\source\UserInterface\PythonPlayer.cpp
; File C:\Program Files\Microsoft Visual Studio\2022\Community\VC\Tools\MSVC\14.34.31933\include\xmemory
; File C:\Program Files\Microsoft Visual Studio\2022\Community\VC\Tools\MSVC\14.34.31933\include\xtree
; File C:\Program Files\Microsoft Visual Studio\2022\Community\VC\Tools\MSVC\14.34.31933\include\xmemory
; File C:\Program Files\Microsoft Visual Studio\2022\Community\VC\Tools\MSVC\14.34.31933\include\xtree
; File E:\Metin2_server\SolWayneSF v6\ClientVS22\source\UserInterface\PythonPlayer.cpp
; File C:\Program Files\Microsoft Visual Studio\2022\Community\VC\Tools\MSVC\14.34.31933\include\xtree
; File E:\Metin2_server\SolWayneSF v6\ClientVS22\source\UserInterface\PythonPlayer.h
; File E:\Metin2_server\SolWayneSF v6\ClientVS22\source\UserInterface\PythonPlayer.cpp
; File C:\Program Files\Microsoft Visual Studio\2022\Community\VC\Tools\MSVC\14.34.31933\include\xmemory
; File C:\Program Files\Microsoft Visual Studio\2022\Community\VC\Tools\MSVC\14.34.31933\include\xtree
; File C:\Program Files\Microsoft Visual Studio\2022\Community\VC\Tools\MSVC\14.34.31933\include\xmemory
; File C:\Program Files\Microsoft Visual Studio\2022\Community\VC\Tools\MSVC\14.34.31933\include\xtree
; File E:\Metin2_server\SolWayneSF v6\ClientVS22\source\UserInterface\PythonPlayer.cpp
; File C:\Program Files\Microsoft Visual Studio\2022\Community\VC\Tools\MSVC\14.34.31933\include\map
; File C:\Program Files\Microsoft Visual Studio\2022\Community\VC\Tools\MSVC\14.34.31933\include\utility
; File C:\Program Files\Microsoft Visual Studio\2022\Community\VC\Tools\MSVC\14.34.31933\include\map
; File C:\Program Files\Microsoft Visual Studio\2022\Community\VC\Tools\MSVC\14.34.31933\include\utility
; File C:\Program Files\Microsoft Visual Studio\2022\Community\VC\Tools\MSVC\14.34.31933\include\map
; File C:\Program Files\Microsoft Visual Studio\2022\Community\VC\Tools\MSVC\14.34.31933\include\utility
; File C:\Program Files\Microsoft Visual Studio\2022\Community\VC\Tools\MSVC\14.34.31933\include\map
; File C:\Program Files\Microsoft Visual Studio\2022\Community\VC\Tools\MSVC\14.34.31933\include\utility
; File C:\Program Files\Microsoft Visual Studio\2022\Community\VC\Tools\MSVC\14.34.31933\include\map
; File C:\Program Files\Microsoft Visual Studio\2022\Community\VC\Tools\MSVC\14.34.31933\include\utility
; File C:\Program Files\Microsoft Visual Studio\2022\Community\VC\Tools\MSVC\14.34.31933\include\map
; File C:\Program Files\Microsoft Visual Studio\2022\Community\VC\Tools\MSVC\14.34.31933\include\utility
; File C:\Program Files\Microsoft Visual Studio\2022\Community\VC\Tools\MSVC\14.34.31933\include\map
; File C:\Program Files\Microsoft Visual Studio\2022\Community\VC\Tools\MSVC\14.34.31933\include\utility
; File C:\Program Files\Microsoft Visual Studio\2022\Community\VC\Tools\MSVC\14.34.31933\include\map
; File C:\Program Files\Microsoft Visual Studio\2022\Community\VC\Tools\MSVC\14.34.31933\include\utility
; File C:\Program Files\Microsoft Visual Studio\2022\Community\VC\Tools\MSVC\14.34.31933\include\map
; File C:\Program Files\Microsoft Visual Studio\2022\Community\VC\Tools\MSVC\14.34.31933\include\utility
; File C:\Program Files\Microsoft Visual Studio\2022\Community\VC\Tools\MSVC\14.34.31933\include\map
; File C:\Program Files\Microsoft Visual Studio\2022\Community\VC\Tools\MSVC\14.34.31933\include\utility
; File C:\Program Files\Microsoft Visual Studio\2022\Community\VC\Tools\MSVC\14.34.31933\include\map
; File C:\Program Files\Microsoft Visual Studio\2022\Community\VC\Tools\MSVC\14.34.31933\include\utility
; File C:\Program Files\Microsoft Visual Studio\2022\Community\VC\Tools\MSVC\14.34.31933\include\map
; File C:\Program Files\Microsoft Visual Studio\2022\Community\VC\Tools\MSVC\14.34.31933\include\utility
; File C:\Program Files\Microsoft Visual Studio\2022\Community\VC\Tools\MSVC\14.34.31933\include\map
; File C:\Program Files\Microsoft Visual Studio\2022\Community\VC\Tools\MSVC\14.34.31933\include\utility
; File C:\Program Files\Microsoft Visual Studio\2022\Community\VC\Tools\MSVC\14.34.31933\include\map
; File C:\Program Files\Microsoft Visual Studio\2022\Community\VC\Tools\MSVC\14.34.31933\include\utility
; File C:\Program Files\Microsoft Visual Studio\2022\Community\VC\Tools\MSVC\14.34.31933\include\map
; File C:\Program Files\Microsoft Visual Studio\2022\Community\VC\Tools\MSVC\14.34.31933\include\utility
; File C:\Program Files\Microsoft Visual Studio\2022\Community\VC\Tools\MSVC\14.34.31933\include\map
; File C:\Program Files\Microsoft Visual Studio\2022\Community\VC\Tools\MSVC\14.34.31933\include\utility
; File C:\Program Files\Microsoft Visual Studio\2022\Community\VC\Tools\MSVC\14.34.31933\include\map
; File C:\Program Files\Microsoft Visual Studio\2022\Community\VC\Tools\MSVC\14.34.31933\include\utility
; File C:\Program Files\Microsoft Visual Studio\2022\Community\VC\Tools\MSVC\14.34.31933\include\map
; File C:\Program Files\Microsoft Visual Studio\2022\Community\VC\Tools\MSVC\14.34.31933\include\utility
; File C:\Program Files\Microsoft Visual Studio\2022\Community\VC\Tools\MSVC\14.34.31933\include\map
; File C:\Program Files\Microsoft Visual Studio\2022\Community\VC\Tools\MSVC\14.34.31933\include\utility
; File C:\Program Files\Microsoft Visual Studio\2022\Community\VC\Tools\MSVC\14.34.31933\include\map
; File C:\Program Files\Microsoft Visual Studio\2022\Community\VC\Tools\MSVC\14.34.31933\include\utility
; File C:\Program Files\Microsoft Visual Studio\2022\Community\VC\Tools\MSVC\14.34.31933\include\map
; File C:\Program Files\Microsoft Visual Studio\2022\Community\VC\Tools\MSVC\14.34.31933\include\utility
; File C:\Program Files\Microsoft Visual Studio\2022\Community\VC\Tools\MSVC\14.34.31933\include\map
; File C:\Program Files\Microsoft Visual Studio\2022\Community\VC\Tools\MSVC\14.34.31933\include\utility
; File C:\Program Files\Microsoft Visual Studio\2022\Community\VC\Tools\MSVC\14.34.31933\include\map
; File E:\Metin2_server\SolWayneSF v6\ClientVS22\source\UserInterface\PythonPlayer.cpp
; File C:\Program Files\Microsoft Visual Studio\2022\Community\VC\Tools\MSVC\14.34.31933\include\utility
; File E:\Metin2_server\SolWayneSF v6\ClientVS22\source\UserInterface\PythonPlayer.cpp
; File C:\Program Files\Microsoft Visual Studio\2022\Community\VC\Tools\MSVC\14.34.31933\include\utility
; File E:\Metin2_server\SolWayneSF v6\ClientVS22\source\UserInterface\PythonPlayer.cpp
; File C:\Program Files\Microsoft Visual Studio\2022\Community\VC\Tools\MSVC\14.34.31933\include\utility
; File E:\Metin2_server\SolWayneSF v6\ClientVS22\source\UserInterface\PythonPlayer.cpp
; File C:\Program Files\Microsoft Visual Studio\2022\Community\VC\Tools\MSVC\14.34.31933\include\utility
; File E:\Metin2_server\SolWayneSF v6\ClientVS22\source\UserInterface\PythonPlayer.cpp
; File C:\Program Files\Microsoft Visual Studio\2022\Community\VC\Tools\MSVC\14.34.31933\include\utility
; File E:\Metin2_server\SolWayneSF v6\ClientVS22\source\UserInterface\PythonPlayer.cpp
; File C:\Program Files\Microsoft Visual Studio\2022\Community\VC\Tools\MSVC\14.34.31933\include\utility
; File E:\Metin2_server\SolWayneSF v6\ClientVS22\source\UserInterface\PythonPlayer.cpp
; File C:\Program Files\Microsoft Visual Studio\2022\Community\VC\Tools\MSVC\14.34.31933\include\utility
; File E:\Metin2_server\SolWayneSF v6\ClientVS22\source\UserInterface\PythonPlayer.cpp
; File C:\Program Files\Microsoft Visual Studio\2022\Community\VC\Tools\MSVC\14.34.31933\include\utility
; File E:\Metin2_server\SolWayneSF v6\ClientVS22\source\UserInterface\PythonPlayer.cpp
; File C:\Program Files\Microsoft Visual Studio\2022\Community\VC\Tools\MSVC\14.34.31933\include\utility
; File E:\Metin2_server\SolWayneSF v6\ClientVS22\source\UserInterface\PythonPlayer.cpp
; File C:\Program Files\Microsoft Visual Studio\2022\Community\VC\Tools\MSVC\14.34.31933\include\utility
; File E:\Metin2_server\SolWayneSF v6\ClientVS22\source\UserInterface\PythonPlayer.cpp
; File C:\Program Files\Microsoft Visual Studio\2022\Community\VC\Tools\MSVC\14.34.31933\include\utility
; File E:\Metin2_server\SolWayneSF v6\ClientVS22\source\UserInterface\PythonPlayer.cpp
; File C:\Program Files\Microsoft Visual Studio\2022\Community\VC\Tools\MSVC\14.34.31933\include\utility
; File E:\Metin2_server\SolWayneSF v6\ClientVS22\source\UserInterface\PythonPlayer.cpp
;	COMDAT ??0CPythonPlayer@@QAE@XZ
_TEXT	SEGMENT
$T2 = -32						; size = 8
$T3 = -32						; size = 8
$T4 = -32						; size = 8
$T5 = -32						; size = 8
$T6 = -32						; size = 8
$T7 = -32						; size = 8
$T8 = -32						; size = 8
$T9 = -32						; size = 8
$T10 = -32						; size = 8
$T11 = -32						; size = 8
$T12 = -32						; size = 8
$T13 = -32						; size = 8
$T14 = -32						; size = 8
$T15 = -32						; size = 8
$T16 = -32						; size = 8
$T17 = -32						; size = 8
$T18 = -32						; size = 8
$T19 = -24						; size = 8
$T20 = -24						; size = 8
$T21 = -24						; size = 8
$T22 = -24						; size = 8
$T23 = -24						; size = 8
$T24 = -24						; size = 8
$T25 = -24						; size = 8
$T26 = -24						; size = 8
$T27 = -24						; size = 8
$T28 = -24						; size = 8
$T29 = -24						; size = 8
$T30 = -24						; size = 8
$T31 = -24						; size = 8
$T32 = -24						; size = 8
$T33 = -24						; size = 8
$T34 = -24						; size = 8
$T35 = -24						; size = 8
_this$ = -20						; size = 4
_this$ = -20						; size = 4
_this$ = -20						; size = 4
_this$ = -20						; size = 4
_this$ = -20						; size = 4
_this$ = -20						; size = 4
_this$ = -16						; size = 4
__$EHRec$ = -12						; size = 12
??0CPythonPlayer@@QAE@XZ PROC				; CPythonPlayer::CPythonPlayer, COMDAT
; _this$ = ecx

; 1686 : {

  00000	55		 push	 ebp
  00001	8b ec		 mov	 ebp, esp
  00003	6a ff		 push	 -1
  00005	68 00 00 00 00	 push	 __ehhandler$??0CPythonPlayer@@QAE@XZ
  0000a	64 a1 00 00 00
	00		 mov	 eax, DWORD PTR fs:0
  00010	50		 push	 eax
  00011	83 ec 14	 sub	 esp, 20			; 00000014H
  00014	56		 push	 esi
  00015	57		 push	 edi
  00016	a1 00 00 00 00	 mov	 eax, DWORD PTR ___security_cookie
  0001b	33 c5		 xor	 eax, ebp
  0001d	50		 push	 eax
  0001e	8d 45 f4	 lea	 eax, DWORD PTR __$EHRec$[ebp]
  00021	64 a3 00 00 00
	00		 mov	 DWORD PTR fs:0, eax
  00027	8b f9		 mov	 edi, ecx
  00029	89 7d f0	 mov	 DWORD PTR _this$[ebp], edi
; File E:\Metin2_server\SolWayneSF v6\ClientVS22\source\eterBase\Singleton.h

; 15   : 		ms_singleton = (T*) ((int) this + offset);

  0002c	89 3d 00 00 00
	00		 mov	 DWORD PTR ?ms_singleton@?$CSingleton@VCPythonPlayer@@@@0PAVCPythonPlayer@@A, edi ; CSingleton<CPythonPlayer>::ms_singleton
; File E:\Metin2_server\SolWayneSF v6\ClientVS22\source\UserInterface\PythonPlayer.cpp

; 1686 : {

  00032	8d 47 04	 lea	 eax, DWORD PTR [edi+4]
  00035	c7 45 fc 00 00
	00 00		 mov	 DWORD PTR __$EHRec$[ebp+8], 0
; File E:\Metin2_server\SolWayneSF v6\ClientVS22\source\UserInterface\AbstractSingleton.h

; 13   : 		ms_singleton = (T*) ((int) this + offset);

  0003c	a3 00 00 00 00	 mov	 DWORD PTR ?ms_singleton@?$TAbstractSingleton@VIAbstractPlayer@@@@0PAVIAbstractPlayer@@A, eax ; TAbstractSingleton<IAbstractPlayer>::ms_singleton
; File E:\Metin2_server\SolWayneSF v6\ClientVS22\source\UserInterface\AbstractPlayer.h

; 10   : 		IAbstractPlayer() {}

  00041	c7 00 00 00 00
	00		 mov	 DWORD PTR [eax], OFFSET ??_7IAbstractPlayer@@6B@
; File E:\Metin2_server\SolWayneSF v6\ClientVS22\source\UserInterface\PythonPlayer.cpp

; 1686 : {

  00047	c6 45 fc 01	 mov	 BYTE PTR __$EHRec$[ebp+8], 1
  0004b	8d 77 0c	 lea	 esi, DWORD PTR [edi+12]
  0004e	c7 07 00 00 00
	00		 mov	 DWORD PTR [edi], OFFSET ??_7CPythonPlayer@@6B?$CSingleton@VCPythonPlayer@@@@@
  00054	c7 00 00 00 00
	00		 mov	 DWORD PTR [eax], OFFSET ??_7CPythonPlayer@@6BIAbstractPlayer@@@
  0005a	89 75 ec	 mov	 DWORD PTR _this$[ebp], esi
; File C:\Program Files\Microsoft Visual Studio\2022\Community\VC\Tools\MSVC\14.34.31933\include\xmemory

; 77   :         return ::operator new(_Bytes);

  0005d	6a 18		 push	 24			; 00000018H
; File C:\Program Files\Microsoft Visual Studio\2022\Community\VC\Tools\MSVC\14.34.31933\include\xtree

; 437  :     _Tree_val() noexcept : _Myhead(), _Mysize(0) {}

  0005f	c7 06 00 00 00
	00		 mov	 DWORD PTR [esi], 0
  00065	c7 46 04 00 00
	00 00		 mov	 DWORD PTR [esi+4], 0
; File C:\Program Files\Microsoft Visual Studio\2022\Community\VC\Tools\MSVC\14.34.31933\include\xmemory

; 77   :         return ::operator new(_Bytes);

  0006c	e8 00 00 00 00	 call	 ??2@YAPAXI@Z		; operator new
; File C:\Program Files\Microsoft Visual Studio\2022\Community\VC\Tools\MSVC\14.34.31933\include\xtree

; 347  :         _Construct_in_place(_Pnode->_Left, _Pnode);

  00071	89 00		 mov	 DWORD PTR [eax], eax

; 348  :         _Construct_in_place(_Pnode->_Parent, _Pnode);

  00073	89 40 04	 mov	 DWORD PTR [eax+4], eax

; 349  :         _Construct_in_place(_Pnode->_Right, _Pnode);

  00076	89 40 08	 mov	 DWORD PTR [eax+8], eax

; 350  :         _Pnode->_Color = _Black;

  00079	66 c7 40 0c 01
	01		 mov	 WORD PTR [eax+12], 257	; 00000101H

; 1941 :         _Scary->_Myhead = _Node::_Buyheadnode(_Getal());

  0007f	89 06		 mov	 DWORD PTR [esi], eax
; File E:\Metin2_server\SolWayneSF v6\ClientVS22\source\UserInterface\PythonPlayer.cpp

; 1686 : {

  00081	0f 57 c0	 xorps	 xmm0, xmm0
; File C:\Program Files\Microsoft Visual Studio\2022\Community\VC\Tools\MSVC\14.34.31933\include\xstring

; 2339 :         _CONSTEXPR20 _Bxty() noexcept : _Buf() {} // user-provided, for fancy pointers

  00084	0f 11 47 14	 movups	 XMMWORD PTR [edi+20], xmm0

; 4995 :         _My_data._Mysize = 0;

  00088	c7 47 24 00 00
	00 00		 mov	 DWORD PTR [edi+36], 0

; 4996 :         _My_data._Myres  = _BUF_SIZE - 1;

  0008f	c7 47 28 0f 00
	00 00		 mov	 DWORD PTR [edi+40], 15	; 0000000fH

; 4997 :         _My_data._Activate_SSO_buffer();
; 4998 : 
; 4999 :         // the _Traits::assign is last so the codegen doesn't think the char write can alias this
; 5000 :         _Traits::assign(_My_data._Bx._Buf[0], _Elem());

  00096	c6 47 14 00	 mov	 BYTE PTR [edi+20], 0
; File E:\Metin2_server\SolWayneSF v6\ClientVS22\source\UserInterface\PythonPlayer.cpp

; 1686 : {

  0009a	c6 45 fc 03	 mov	 BYTE PTR __$EHRec$[ebp+8], 3
  0009e	8d b7 34 2e 01
	00		 lea	 esi, DWORD PTR [edi+77364]
  000a4	89 75 ec	 mov	 DWORD PTR _this$[ebp], esi
; File C:\Program Files\Microsoft Visual Studio\2022\Community\VC\Tools\MSVC\14.34.31933\include\xmemory

; 77   :         return ::operator new(_Bytes);

  000a7	6a 44		 push	 68			; 00000044H
; File C:\Program Files\Microsoft Visual Studio\2022\Community\VC\Tools\MSVC\14.34.31933\include\xtree

; 437  :     _Tree_val() noexcept : _Myhead(), _Mysize(0) {}

  000a9	c7 06 00 00 00
	00		 mov	 DWORD PTR [esi], 0
  000af	c7 46 04 00 00
	00 00		 mov	 DWORD PTR [esi+4], 0
; File C:\Program Files\Microsoft Visual Studio\2022\Community\VC\Tools\MSVC\14.34.31933\include\xmemory

; 77   :         return ::operator new(_Bytes);

  000b6	e8 00 00 00 00	 call	 ??2@YAPAXI@Z		; operator new
; File C:\Program Files\Microsoft Visual Studio\2022\Community\VC\Tools\MSVC\14.34.31933\include\xtree

; 347  :         _Construct_in_place(_Pnode->_Left, _Pnode);

  000bb	89 00		 mov	 DWORD PTR [eax], eax

; 348  :         _Construct_in_place(_Pnode->_Parent, _Pnode);

  000bd	89 40 04	 mov	 DWORD PTR [eax+4], eax

; 349  :         _Construct_in_place(_Pnode->_Right, _Pnode);

  000c0	89 40 08	 mov	 DWORD PTR [eax+8], eax

; 350  :         _Pnode->_Color = _Black;

  000c3	66 c7 40 0c 01
	01		 mov	 WORD PTR [eax+12], 257	; 00000101H

; 1941 :         _Scary->_Myhead = _Node::_Buyheadnode(_Getal());

  000c9	89 06		 mov	 DWORD PTR [esi], eax
; File E:\Metin2_server\SolWayneSF v6\ClientVS22\source\UserInterface\PythonPlayer.cpp

; 1686 : {

  000cb	c6 45 fc 04	 mov	 BYTE PTR __$EHRec$[ebp+8], 4
  000cf	8d b7 3c 2e 01
	00		 lea	 esi, DWORD PTR [edi+77372]
  000d5	89 75 ec	 mov	 DWORD PTR _this$[ebp], esi
; File C:\Program Files\Microsoft Visual Studio\2022\Community\VC\Tools\MSVC\14.34.31933\include\xmemory

; 77   :         return ::operator new(_Bytes);

  000d8	6a 14		 push	 20			; 00000014H
; File C:\Program Files\Microsoft Visual Studio\2022\Community\VC\Tools\MSVC\14.34.31933\include\xtree

; 437  :     _Tree_val() noexcept : _Myhead(), _Mysize(0) {}

  000da	c7 06 00 00 00
	00		 mov	 DWORD PTR [esi], 0
  000e0	c7 46 04 00 00
	00 00		 mov	 DWORD PTR [esi+4], 0
; File C:\Program Files\Microsoft Visual Studio\2022\Community\VC\Tools\MSVC\14.34.31933\include\xmemory

; 77   :         return ::operator new(_Bytes);

  000e7	e8 00 00 00 00	 call	 ??2@YAPAXI@Z		; operator new
; File C:\Program Files\Microsoft Visual Studio\2022\Community\VC\Tools\MSVC\14.34.31933\include\xtree

; 347  :         _Construct_in_place(_Pnode->_Left, _Pnode);

  000ec	89 00		 mov	 DWORD PTR [eax], eax

; 348  :         _Construct_in_place(_Pnode->_Parent, _Pnode);

  000ee	89 40 04	 mov	 DWORD PTR [eax+4], eax

; 349  :         _Construct_in_place(_Pnode->_Right, _Pnode);

  000f1	89 40 08	 mov	 DWORD PTR [eax+8], eax

; 350  :         _Pnode->_Color = _Black;

  000f4	66 c7 40 0c 01
	01		 mov	 WORD PTR [eax+12], 257	; 00000101H

; 1941 :         _Scary->_Myhead = _Node::_Buyheadnode(_Getal());

  000fa	89 06		 mov	 DWORD PTR [esi], eax
; File E:\Metin2_server\SolWayneSF v6\ClientVS22\source\UserInterface\PythonPlayer.cpp

; 1686 : {

  000fc	c6 45 fc 05	 mov	 BYTE PTR __$EHRec$[ebp+8], 5
  00100	8d b7 44 2e 01
	00		 lea	 esi, DWORD PTR [edi+77380]
  00106	89 75 ec	 mov	 DWORD PTR _this$[ebp], esi
; File C:\Program Files\Microsoft Visual Studio\2022\Community\VC\Tools\MSVC\14.34.31933\include\xmemory

; 77   :         return ::operator new(_Bytes);

  00109	6a 14		 push	 20			; 00000014H
; File C:\Program Files\Microsoft Visual Studio\2022\Community\VC\Tools\MSVC\14.34.31933\include\xtree

; 437  :     _Tree_val() noexcept : _Myhead(), _Mysize(0) {}

  0010b	c7 06 00 00 00
	00		 mov	 DWORD PTR [esi], 0
  00111	c7 46 04 00 00
	00 00		 mov	 DWORD PTR [esi+4], 0
; File C:\Program Files\Microsoft Visual Studio\2022\Community\VC\Tools\MSVC\14.34.31933\include\xmemory

; 77   :         return ::operator new(_Bytes);

  00118	e8 00 00 00 00	 call	 ??2@YAPAXI@Z		; operator new
; File C:\Program Files\Microsoft Visual Studio\2022\Community\VC\Tools\MSVC\14.34.31933\include\xtree

; 347  :         _Construct_in_place(_Pnode->_Left, _Pnode);

  0011d	89 00		 mov	 DWORD PTR [eax], eax

; 348  :         _Construct_in_place(_Pnode->_Parent, _Pnode);

  0011f	89 40 04	 mov	 DWORD PTR [eax+4], eax

; 349  :         _Construct_in_place(_Pnode->_Right, _Pnode);

  00122	89 40 08	 mov	 DWORD PTR [eax+8], eax

; 350  :         _Pnode->_Color = _Black;

  00125	66 c7 40 0c 01
	01		 mov	 WORD PTR [eax+12], 257	; 00000101H

; 1941 :         _Scary->_Myhead = _Node::_Buyheadnode(_Getal());

  0012b	89 06		 mov	 DWORD PTR [esi], eax
; File E:\Metin2_server\SolWayneSF v6\ClientVS22\source\UserInterface\PythonPlayer.cpp

; 1686 : {

  0012d	c6 45 fc 06	 mov	 BYTE PTR __$EHRec$[ebp+8], 6
  00131	8d b7 4c 2e 01
	00		 lea	 esi, DWORD PTR [edi+77388]
  00137	89 75 ec	 mov	 DWORD PTR _this$[ebp], esi
; File C:\Program Files\Microsoft Visual Studio\2022\Community\VC\Tools\MSVC\14.34.31933\include\xmemory

; 77   :         return ::operator new(_Bytes);

  0013a	6a 14		 push	 20			; 00000014H
; File C:\Program Files\Microsoft Visual Studio\2022\Community\VC\Tools\MSVC\14.34.31933\include\xtree

; 437  :     _Tree_val() noexcept : _Myhead(), _Mysize(0) {}

  0013c	c7 06 00 00 00
	00		 mov	 DWORD PTR [esi], 0
  00142	c7 46 04 00 00
	00 00		 mov	 DWORD PTR [esi+4], 0
; File C:\Program Files\Microsoft Visual Studio\2022\Community\VC\Tools\MSVC\14.34.31933\include\xmemory

; 77   :         return ::operator new(_Bytes);

  00149	e8 00 00 00 00	 call	 ??2@YAPAXI@Z		; operator new
  0014e	83 c4 14	 add	 esp, 20			; 00000014H
; File C:\Program Files\Microsoft Visual Studio\2022\Community\VC\Tools\MSVC\14.34.31933\include\xtree

; 347  :         _Construct_in_place(_Pnode->_Left, _Pnode);

  00151	89 00		 mov	 DWORD PTR [eax], eax

; 348  :         _Construct_in_place(_Pnode->_Parent, _Pnode);

  00153	89 40 04	 mov	 DWORD PTR [eax+4], eax

; 349  :         _Construct_in_place(_Pnode->_Right, _Pnode);

  00156	89 40 08	 mov	 DWORD PTR [eax+8], eax

; 350  :         _Pnode->_Color = _Black;

  00159	66 c7 40 0c 01
	01		 mov	 WORD PTR [eax+12], 257	; 00000101H

; 1941 :         _Scary->_Myhead = _Node::_Buyheadnode(_Getal());

  0015f	89 06		 mov	 DWORD PTR [esi], eax
; File E:\Metin2_server\SolWayneSF v6\ClientVS22\source\UserInterface\PythonPlayer.cpp

; 1686 : {

  00161	c6 45 fc 07	 mov	 BYTE PTR __$EHRec$[ebp+8], 7
  00165	8d 87 a8 2e 01
	00		 lea	 eax, DWORD PTR [edi+77480]
; File C:\Program Files\Microsoft Visual Studio\2022\Community\VC\Tools\MSVC\14.34.31933\include\xtree

; 346  :         const auto _Pnode = _Al.allocate(1);

  0016b	b9 02 00 00 00	 mov	 ecx, 2
$LL1756@CPythonPla:
; File E:\Metin2_server\SolWayneSF v6\ClientVS22\source\UserInterface\PythonPlayer.h

; 170  : 			SAutoPotionInfo() : bActivated(false), totalAmount(0), currentAmount(0) {}

  00170	c6 00 00	 mov	 BYTE PTR [eax], 0
  00173	8d 40 10	 lea	 eax, DWORD PTR [eax+16]
  00176	c7 40 f4 00 00
	00 00		 mov	 DWORD PTR [eax-12], 0
  0017d	c7 40 f8 00 00
	00 00		 mov	 DWORD PTR [eax-8], 0
  00184	83 e9 01	 sub	 ecx, 1
  00187	75 e7		 jne	 SHORT $LL1756@CPythonPla
; File E:\Metin2_server\SolWayneSF v6\ClientVS22\source\UserInterface\PythonPlayer.cpp

; 1686 : {

  00189	8d b7 cc 2e 01
	00		 lea	 esi, DWORD PTR [edi+77516]
  0018f	89 75 ec	 mov	 DWORD PTR _this$[ebp], esi
; File C:\Program Files\Microsoft Visual Studio\2022\Community\VC\Tools\MSVC\14.34.31933\include\xmemory

; 77   :         return ::operator new(_Bytes);

  00192	6a 18		 push	 24			; 00000018H
; File C:\Program Files\Microsoft Visual Studio\2022\Community\VC\Tools\MSVC\14.34.31933\include\xtree

; 437  :     _Tree_val() noexcept : _Myhead(), _Mysize(0) {}

  00194	89 0e		 mov	 DWORD PTR [esi], ecx
  00196	89 4e 04	 mov	 DWORD PTR [esi+4], ecx
; File C:\Program Files\Microsoft Visual Studio\2022\Community\VC\Tools\MSVC\14.34.31933\include\xmemory

; 77   :         return ::operator new(_Bytes);

  00199	e8 00 00 00 00	 call	 ??2@YAPAXI@Z		; operator new
  0019e	83 c4 04	 add	 esp, 4
; File C:\Program Files\Microsoft Visual Studio\2022\Community\VC\Tools\MSVC\14.34.31933\include\xtree

; 347  :         _Construct_in_place(_Pnode->_Left, _Pnode);

  001a1	89 00		 mov	 DWORD PTR [eax], eax

; 348  :         _Construct_in_place(_Pnode->_Parent, _Pnode);

  001a3	89 40 04	 mov	 DWORD PTR [eax+4], eax

; 349  :         _Construct_in_place(_Pnode->_Right, _Pnode);

  001a6	89 40 08	 mov	 DWORD PTR [eax+8], eax

; 350  :         _Pnode->_Color = _Black;

  001a9	66 c7 40 0c 01
	01		 mov	 WORD PTR [eax+12], 257	; 00000101H

; 1941 :         _Scary->_Myhead = _Node::_Buyheadnode(_Getal());

  001af	89 06		 mov	 DWORD PTR [esi], eax
; File E:\Metin2_server\SolWayneSF v6\ClientVS22\source\UserInterface\PythonPlayer.cpp

; 1686 : {

  001b1	c6 45 fc 08	 mov	 BYTE PTR __$EHRec$[ebp+8], 8

; 1687 : 	SetMovableGroundDistance(40.0f);

  001b5	8b cf		 mov	 ecx, edi
  001b7	f3 0f 10 0d 00
	00 00 00	 movss	 xmm1, DWORD PTR __real@42200000
  001bf	e8 00 00 00 00	 call	 ?SetMovableGroundDistance@CPythonPlayer@@QAEXM@Z ; CPythonPlayer::SetMovableGroundDistance
; File C:\Program Files\Microsoft Visual Studio\2022\Community\VC\Tools\MSVC\14.34.31933\include\map

; 185  :         return this->emplace(_STD forward<_Valty>(_Val));

  001c4	8d 45 e8	 lea	 eax, DWORD PTR $T35[ebp]
; File C:\Program Files\Microsoft Visual Studio\2022\Community\VC\Tools\MSVC\14.34.31933\include\utility

; 172  :         : first(_STD forward<_Other1>(_Val1)), second(_STD forward<_Other2>(_Val2)) {

  001c7	c7 45 e8 0e 00
	00 00		 mov	 DWORD PTR $T35[ebp], 14	; 0000000eH
; File C:\Program Files\Microsoft Visual Studio\2022\Community\VC\Tools\MSVC\14.34.31933\include\map

; 185  :         return this->emplace(_STD forward<_Valty>(_Val));

  001ce	50		 push	 eax
  001cf	8d 45 e0	 lea	 eax, DWORD PTR $T18[ebp]
; File C:\Program Files\Microsoft Visual Studio\2022\Community\VC\Tools\MSVC\14.34.31933\include\utility

; 172  :         : first(_STD forward<_Other1>(_Val1)), second(_STD forward<_Other2>(_Val2)) {

  001d2	c7 45 ec 03 00
	00 00		 mov	 DWORD PTR $T35[ebp+4], 3
; File C:\Program Files\Microsoft Visual Studio\2022\Community\VC\Tools\MSVC\14.34.31933\include\map

; 185  :         return this->emplace(_STD forward<_Valty>(_Val));

  001d9	50		 push	 eax
  001da	8b ce		 mov	 ecx, esi
  001dc	e8 00 00 00 00	 call	 ??$emplace@U?$pair@HH@std@@@?$_Tree@V?$_Tmap_traits@KKU?$less@K@std@@V?$allocator@U?$pair@$$CBKK@std@@@2@$0A@@std@@@std@@QAE?AU?$pair@V?$_Tree_iterator@V?$_Tree_val@U?$_Tree_simple_types@U?$pair@$$CBKK@std@@@std@@@std@@@std@@_N@1@$$QAU?$pair@HH@1@@Z ; std::_Tree<std::_Tmap_traits<unsigned long,unsigned long,std::less<unsigned long>,std::allocator<std::pair<unsigned long const ,unsigned long> >,0> >::emplace<std::pair<int,int> >
  001e1	8d 45 e8	 lea	 eax, DWORD PTR $T34[ebp]
; File C:\Program Files\Microsoft Visual Studio\2022\Community\VC\Tools\MSVC\14.34.31933\include\utility

; 172  :         : first(_STD forward<_Other1>(_Val1)), second(_STD forward<_Other2>(_Val2)) {

  001e4	c7 45 e8 0f 00
	00 00		 mov	 DWORD PTR $T34[ebp], 15	; 0000000fH
; File C:\Program Files\Microsoft Visual Studio\2022\Community\VC\Tools\MSVC\14.34.31933\include\map

; 185  :         return this->emplace(_STD forward<_Valty>(_Val));

  001eb	50		 push	 eax
  001ec	8d 45 e0	 lea	 eax, DWORD PTR $T17[ebp]
; File C:\Program Files\Microsoft Visual Studio\2022\Community\VC\Tools\MSVC\14.34.31933\include\utility

; 172  :         : first(_STD forward<_Other1>(_Val1)), second(_STD forward<_Other2>(_Val2)) {

  001ef	c7 45 ec 04 00
	00 00		 mov	 DWORD PTR $T34[ebp+4], 4
; File C:\Program Files\Microsoft Visual Studio\2022\Community\VC\Tools\MSVC\14.34.31933\include\map

; 185  :         return this->emplace(_STD forward<_Valty>(_Val));

  001f6	50		 push	 eax
  001f7	8b ce		 mov	 ecx, esi
  001f9	e8 00 00 00 00	 call	 ??$emplace@U?$pair@HH@std@@@?$_Tree@V?$_Tmap_traits@KKU?$less@K@std@@V?$allocator@U?$pair@$$CBKK@std@@@2@$0A@@std@@@std@@QAE?AU?$pair@V?$_Tree_iterator@V?$_Tree_val@U?$_Tree_simple_types@U?$pair@$$CBKK@std@@@std@@@std@@@std@@_N@1@$$QAU?$pair@HH@1@@Z ; std::_Tree<std::_Tmap_traits<unsigned long,unsigned long,std::less<unsigned long>,std::allocator<std::pair<unsigned long const ,unsigned long> >,0> >::emplace<std::pair<int,int> >
  001fe	8d 45 e8	 lea	 eax, DWORD PTR $T33[ebp]
; File C:\Program Files\Microsoft Visual Studio\2022\Community\VC\Tools\MSVC\14.34.31933\include\utility

; 172  :         : first(_STD forward<_Other1>(_Val1)), second(_STD forward<_Other2>(_Val2)) {

  00201	c7 45 e8 10 00
	00 00		 mov	 DWORD PTR $T33[ebp], 16	; 00000010H
; File C:\Program Files\Microsoft Visual Studio\2022\Community\VC\Tools\MSVC\14.34.31933\include\map

; 185  :         return this->emplace(_STD forward<_Valty>(_Val));

  00208	50		 push	 eax
  00209	8d 45 e0	 lea	 eax, DWORD PTR $T16[ebp]
; File C:\Program Files\Microsoft Visual Studio\2022\Community\VC\Tools\MSVC\14.34.31933\include\utility

; 172  :         : first(_STD forward<_Other1>(_Val1)), second(_STD forward<_Other2>(_Val2)) {

  0020c	c7 45 ec 13 00
	00 00		 mov	 DWORD PTR $T33[ebp+4], 19 ; 00000013H
; File C:\Program Files\Microsoft Visual Studio\2022\Community\VC\Tools\MSVC\14.34.31933\include\map

; 185  :         return this->emplace(_STD forward<_Valty>(_Val));

  00213	50		 push	 eax
  00214	8b ce		 mov	 ecx, esi
  00216	e8 00 00 00 00	 call	 ??$emplace@U?$pair@HH@std@@@?$_Tree@V?$_Tmap_traits@KKU?$less@K@std@@V?$allocator@U?$pair@$$CBKK@std@@@2@$0A@@std@@@std@@QAE?AU?$pair@V?$_Tree_iterator@V?$_Tree_val@U?$_Tree_simple_types@U?$pair@$$CBKK@std@@@std@@@std@@@std@@_N@1@$$QAU?$pair@HH@1@@Z ; std::_Tree<std::_Tmap_traits<unsigned long,unsigned long,std::less<unsigned long>,std::allocator<std::pair<unsigned long const ,unsigned long> >,0> >::emplace<std::pair<int,int> >
  0021b	8d 45 e8	 lea	 eax, DWORD PTR $T32[ebp]
; File C:\Program Files\Microsoft Visual Studio\2022\Community\VC\Tools\MSVC\14.34.31933\include\utility

; 172  :         : first(_STD forward<_Other1>(_Val1)), second(_STD forward<_Other2>(_Val2)) {

  0021e	c7 45 e8 11 00
	00 00		 mov	 DWORD PTR $T32[ebp], 17	; 00000011H
; File C:\Program Files\Microsoft Visual Studio\2022\Community\VC\Tools\MSVC\14.34.31933\include\map

; 185  :         return this->emplace(_STD forward<_Valty>(_Val));

  00225	50		 push	 eax
  00226	8d 45 e0	 lea	 eax, DWORD PTR $T15[ebp]
; File C:\Program Files\Microsoft Visual Studio\2022\Community\VC\Tools\MSVC\14.34.31933\include\utility

; 172  :         : first(_STD forward<_Other1>(_Val1)), second(_STD forward<_Other2>(_Val2)) {

  00229	c7 45 ec 31 00
	00 00		 mov	 DWORD PTR $T32[ebp+4], 49 ; 00000031H
; File C:\Program Files\Microsoft Visual Studio\2022\Community\VC\Tools\MSVC\14.34.31933\include\map

; 185  :         return this->emplace(_STD forward<_Valty>(_Val));

  00230	50		 push	 eax
  00231	8b ce		 mov	 ecx, esi
  00233	e8 00 00 00 00	 call	 ??$emplace@U?$pair@HH@std@@@?$_Tree@V?$_Tmap_traits@KKU?$less@K@std@@V?$allocator@U?$pair@$$CBKK@std@@@2@$0A@@std@@@std@@QAE?AU?$pair@V?$_Tree_iterator@V?$_Tree_val@U?$_Tree_simple_types@U?$pair@$$CBKK@std@@@std@@@std@@@std@@_N@1@$$QAU?$pair@HH@1@@Z ; std::_Tree<std::_Tmap_traits<unsigned long,unsigned long,std::less<unsigned long>,std::allocator<std::pair<unsigned long const ,unsigned long> >,0> >::emplace<std::pair<int,int> >
  00238	8d 45 e8	 lea	 eax, DWORD PTR $T31[ebp]
; File C:\Program Files\Microsoft Visual Studio\2022\Community\VC\Tools\MSVC\14.34.31933\include\utility

; 172  :         : first(_STD forward<_Other1>(_Val1)), second(_STD forward<_Other2>(_Val2)) {

  0023b	c7 45 e8 12 00
	00 00		 mov	 DWORD PTR $T31[ebp], 18	; 00000012H
; File C:\Program Files\Microsoft Visual Studio\2022\Community\VC\Tools\MSVC\14.34.31933\include\map

; 185  :         return this->emplace(_STD forward<_Valty>(_Val));

  00242	50		 push	 eax
  00243	8d 45 e0	 lea	 eax, DWORD PTR $T14[ebp]
; File C:\Program Files\Microsoft Visual Studio\2022\Community\VC\Tools\MSVC\14.34.31933\include\utility

; 172  :         : first(_STD forward<_Other1>(_Val1)), second(_STD forward<_Other2>(_Val2)) {

  00246	c7 45 ec 22 00
	00 00		 mov	 DWORD PTR $T31[ebp+4], 34 ; 00000022H
; File C:\Program Files\Microsoft Visual Studio\2022\Community\VC\Tools\MSVC\14.34.31933\include\map

; 185  :         return this->emplace(_STD forward<_Valty>(_Val));

  0024d	50		 push	 eax
  0024e	8b ce		 mov	 ecx, esi
  00250	e8 00 00 00 00	 call	 ??$emplace@U?$pair@HH@std@@@?$_Tree@V?$_Tmap_traits@KKU?$less@K@std@@V?$allocator@U?$pair@$$CBKK@std@@@2@$0A@@std@@@std@@QAE?AU?$pair@V?$_Tree_iterator@V?$_Tree_val@U?$_Tree_simple_types@U?$pair@$$CBKK@std@@@std@@@std@@@std@@_N@1@$$QAU?$pair@HH@1@@Z ; std::_Tree<std::_Tmap_traits<unsigned long,unsigned long,std::less<unsigned long>,std::allocator<std::pair<unsigned long const ,unsigned long> >,0> >::emplace<std::pair<int,int> >
  00255	8d 45 e8	 lea	 eax, DWORD PTR $T30[ebp]
; File C:\Program Files\Microsoft Visual Studio\2022\Community\VC\Tools\MSVC\14.34.31933\include\utility

; 172  :         : first(_STD forward<_Other1>(_Val1)), second(_STD forward<_Other2>(_Val2)) {

  00258	c7 45 e8 14 00
	00 00		 mov	 DWORD PTR $T30[ebp], 20	; 00000014H
; File C:\Program Files\Microsoft Visual Studio\2022\Community\VC\Tools\MSVC\14.34.31933\include\map

; 185  :         return this->emplace(_STD forward<_Valty>(_Val));

  0025f	50		 push	 eax
  00260	8d 45 e0	 lea	 eax, DWORD PTR $T13[ebp]
; File C:\Program Files\Microsoft Visual Studio\2022\Community\VC\Tools\MSVC\14.34.31933\include\utility

; 172  :         : first(_STD forward<_Other1>(_Val1)), second(_STD forward<_Other2>(_Val2)) {

  00263	c7 45 ec 40 00
	00 00		 mov	 DWORD PTR $T30[ebp+4], 64 ; 00000040H
; File C:\Program Files\Microsoft Visual Studio\2022\Community\VC\Tools\MSVC\14.34.31933\include\map

; 185  :         return this->emplace(_STD forward<_Valty>(_Val));

  0026a	50		 push	 eax
  0026b	8b ce		 mov	 ecx, esi
  0026d	e8 00 00 00 00	 call	 ??$emplace@U?$pair@HH@std@@@?$_Tree@V?$_Tmap_traits@KKU?$less@K@std@@V?$allocator@U?$pair@$$CBKK@std@@@2@$0A@@std@@@std@@QAE?AU?$pair@V?$_Tree_iterator@V?$_Tree_val@U?$_Tree_simple_types@U?$pair@$$CBKK@std@@@std@@@std@@@std@@_N@1@$$QAU?$pair@HH@1@@Z ; std::_Tree<std::_Tmap_traits<unsigned long,unsigned long,std::less<unsigned long>,std::allocator<std::pair<unsigned long const ,unsigned long> >,0> >::emplace<std::pair<int,int> >
  00272	8d 45 e8	 lea	 eax, DWORD PTR $T29[ebp]
; File C:\Program Files\Microsoft Visual Studio\2022\Community\VC\Tools\MSVC\14.34.31933\include\utility

; 172  :         : first(_STD forward<_Other1>(_Val1)), second(_STD forward<_Other2>(_Val2)) {

  00275	c7 45 e8 15 00
	00 00		 mov	 DWORD PTR $T29[ebp], 21	; 00000015H
; File C:\Program Files\Microsoft Visual Studio\2022\Community\VC\Tools\MSVC\14.34.31933\include\map

; 185  :         return this->emplace(_STD forward<_Valty>(_Val));

  0027c	50		 push	 eax
  0027d	8d 45 e0	 lea	 eax, DWORD PTR $T12[ebp]
; File C:\Program Files\Microsoft Visual Studio\2022\Community\VC\Tools\MSVC\14.34.31933\include\utility

; 172  :         : first(_STD forward<_Other1>(_Val1)), second(_STD forward<_Other2>(_Val2)) {

  00280	c7 45 ec 41 00
	00 00		 mov	 DWORD PTR $T29[ebp+4], 65 ; 00000041H
; File C:\Program Files\Microsoft Visual Studio\2022\Community\VC\Tools\MSVC\14.34.31933\include\map

; 185  :         return this->emplace(_STD forward<_Valty>(_Val));

  00287	50		 push	 eax
  00288	8b ce		 mov	 ecx, esi
  0028a	e8 00 00 00 00	 call	 ??$emplace@U?$pair@HH@std@@@?$_Tree@V?$_Tmap_traits@KKU?$less@K@std@@V?$allocator@U?$pair@$$CBKK@std@@@2@$0A@@std@@@std@@QAE?AU?$pair@V?$_Tree_iterator@V?$_Tree_val@U?$_Tree_simple_types@U?$pair@$$CBKK@std@@@std@@@std@@@std@@_N@1@$$QAU?$pair@HH@1@@Z ; std::_Tree<std::_Tmap_traits<unsigned long,unsigned long,std::less<unsigned long>,std::allocator<std::pair<unsigned long const ,unsigned long> >,0> >::emplace<std::pair<int,int> >
  0028f	8d 45 e8	 lea	 eax, DWORD PTR $T28[ebp]
; File C:\Program Files\Microsoft Visual Studio\2022\Community\VC\Tools\MSVC\14.34.31933\include\utility

; 172  :         : first(_STD forward<_Other1>(_Val1)), second(_STD forward<_Other2>(_Val2)) {

  00292	c7 45 e8 16 00
	00 00		 mov	 DWORD PTR $T28[ebp], 22	; 00000016H
; File C:\Program Files\Microsoft Visual Studio\2022\Community\VC\Tools\MSVC\14.34.31933\include\map

; 185  :         return this->emplace(_STD forward<_Valty>(_Val));

  00299	50		 push	 eax
  0029a	8d 45 e0	 lea	 eax, DWORD PTR $T11[ebp]
; File C:\Program Files\Microsoft Visual Studio\2022\Community\VC\Tools\MSVC\14.34.31933\include\utility

; 172  :         : first(_STD forward<_Other1>(_Val1)), second(_STD forward<_Other2>(_Val2)) {

  0029d	c7 45 ec 5e 00
	00 00		 mov	 DWORD PTR $T28[ebp+4], 94 ; 0000005eH
; File C:\Program Files\Microsoft Visual Studio\2022\Community\VC\Tools\MSVC\14.34.31933\include\map

; 185  :         return this->emplace(_STD forward<_Valty>(_Val));

  002a4	50		 push	 eax
  002a5	8b ce		 mov	 ecx, esi
  002a7	e8 00 00 00 00	 call	 ??$emplace@U?$pair@HH@std@@@?$_Tree@V?$_Tmap_traits@KKU?$less@K@std@@V?$allocator@U?$pair@$$CBKK@std@@@2@$0A@@std@@@std@@QAE?AU?$pair@V?$_Tree_iterator@V?$_Tree_val@U?$_Tree_simple_types@U?$pair@$$CBKK@std@@@std@@@std@@@std@@_N@1@$$QAU?$pair@HH@1@@Z ; std::_Tree<std::_Tmap_traits<unsigned long,unsigned long,std::less<unsigned long>,std::allocator<std::pair<unsigned long const ,unsigned long> >,0> >::emplace<std::pair<int,int> >
  002ac	8d 45 e8	 lea	 eax, DWORD PTR $T27[ebp]
; File C:\Program Files\Microsoft Visual Studio\2022\Community\VC\Tools\MSVC\14.34.31933\include\utility

; 172  :         : first(_STD forward<_Other1>(_Val1)), second(_STD forward<_Other2>(_Val2)) {

  002af	c7 45 e8 17 00
	00 00		 mov	 DWORD PTR $T27[ebp], 23	; 00000017H
; File C:\Program Files\Microsoft Visual Studio\2022\Community\VC\Tools\MSVC\14.34.31933\include\map

; 185  :         return this->emplace(_STD forward<_Valty>(_Val));

  002b6	50		 push	 eax
  002b7	8d 45 e0	 lea	 eax, DWORD PTR $T10[ebp]
; File C:\Program Files\Microsoft Visual Studio\2022\Community\VC\Tools\MSVC\14.34.31933\include\utility

; 172  :         : first(_STD forward<_Other1>(_Val1)), second(_STD forward<_Other2>(_Val2)) {

  002ba	c7 45 ec 5f 00
	00 00		 mov	 DWORD PTR $T27[ebp+4], 95 ; 0000005fH
; File C:\Program Files\Microsoft Visual Studio\2022\Community\VC\Tools\MSVC\14.34.31933\include\map

; 185  :         return this->emplace(_STD forward<_Valty>(_Val));

  002c1	50		 push	 eax
  002c2	8b ce		 mov	 ecx, esi
  002c4	e8 00 00 00 00	 call	 ??$emplace@U?$pair@HH@std@@@?$_Tree@V?$_Tmap_traits@KKU?$less@K@std@@V?$allocator@U?$pair@$$CBKK@std@@@2@$0A@@std@@@std@@QAE?AU?$pair@V?$_Tree_iterator@V?$_Tree_val@U?$_Tree_simple_types@U?$pair@$$CBKK@std@@@std@@@std@@@std@@_N@1@$$QAU?$pair@HH@1@@Z ; std::_Tree<std::_Tmap_traits<unsigned long,unsigned long,std::less<unsigned long>,std::allocator<std::pair<unsigned long const ,unsigned long> >,0> >::emplace<std::pair<int,int> >
  002c9	8d 45 e8	 lea	 eax, DWORD PTR $T26[ebp]
; File C:\Program Files\Microsoft Visual Studio\2022\Community\VC\Tools\MSVC\14.34.31933\include\utility

; 172  :         : first(_STD forward<_Other1>(_Val1)), second(_STD forward<_Other2>(_Val2)) {

  002cc	c7 45 e8 18 00
	00 00		 mov	 DWORD PTR $T26[ebp], 24	; 00000018H
; File C:\Program Files\Microsoft Visual Studio\2022\Community\VC\Tools\MSVC\14.34.31933\include\map

; 185  :         return this->emplace(_STD forward<_Valty>(_Val));

  002d3	50		 push	 eax
  002d4	8d 45 e0	 lea	 eax, DWORD PTR $T9[ebp]
; File C:\Program Files\Microsoft Visual Studio\2022\Community\VC\Tools\MSVC\14.34.31933\include\utility

; 172  :         : first(_STD forward<_Other1>(_Val1)), second(_STD forward<_Other2>(_Val2)) {

  002d7	c7 45 ec 6e 00
	00 00		 mov	 DWORD PTR $T26[ebp+4], 110 ; 0000006eH
; File C:\Program Files\Microsoft Visual Studio\2022\Community\VC\Tools\MSVC\14.34.31933\include\map

; 185  :         return this->emplace(_STD forward<_Valty>(_Val));

  002de	50		 push	 eax
  002df	8b ce		 mov	 ecx, esi
  002e1	e8 00 00 00 00	 call	 ??$emplace@U?$pair@HH@std@@@?$_Tree@V?$_Tmap_traits@KKU?$less@K@std@@V?$allocator@U?$pair@$$CBKK@std@@@2@$0A@@std@@@std@@QAE?AU?$pair@V?$_Tree_iterator@V?$_Tree_val@U?$_Tree_simple_types@U?$pair@$$CBKK@std@@@std@@@std@@@std@@_N@1@$$QAU?$pair@HH@1@@Z ; std::_Tree<std::_Tmap_traits<unsigned long,unsigned long,std::less<unsigned long>,std::allocator<std::pair<unsigned long const ,unsigned long> >,0> >::emplace<std::pair<int,int> >
  002e6	8d 45 e8	 lea	 eax, DWORD PTR $T25[ebp]
; File C:\Program Files\Microsoft Visual Studio\2022\Community\VC\Tools\MSVC\14.34.31933\include\utility

; 172  :         : first(_STD forward<_Other1>(_Val1)), second(_STD forward<_Other2>(_Val2)) {

  002e9	c7 45 e8 1d 00
	00 00		 mov	 DWORD PTR $T25[ebp], 29	; 0000001dH
; File C:\Program Files\Microsoft Visual Studio\2022\Community\VC\Tools\MSVC\14.34.31933\include\map

; 185  :         return this->emplace(_STD forward<_Valty>(_Val));

  002f0	50		 push	 eax
  002f1	8d 45 e0	 lea	 eax, DWORD PTR $T8[ebp]
; File C:\Program Files\Microsoft Visual Studio\2022\Community\VC\Tools\MSVC\14.34.31933\include\utility

; 172  :         : first(_STD forward<_Other1>(_Val1)), second(_STD forward<_Other2>(_Val2)) {

  002f4	c7 45 ec 60 00
	00 00		 mov	 DWORD PTR $T25[ebp+4], 96 ; 00000060H
; File C:\Program Files\Microsoft Visual Studio\2022\Community\VC\Tools\MSVC\14.34.31933\include\map

; 185  :         return this->emplace(_STD forward<_Valty>(_Val));

  002fb	50		 push	 eax
  002fc	8b ce		 mov	 ecx, esi
  002fe	e8 00 00 00 00	 call	 ??$emplace@U?$pair@HH@std@@@?$_Tree@V?$_Tmap_traits@KKU?$less@K@std@@V?$allocator@U?$pair@$$CBKK@std@@@2@$0A@@std@@@std@@QAE?AU?$pair@V?$_Tree_iterator@V?$_Tree_val@U?$_Tree_simple_types@U?$pair@$$CBKK@std@@@std@@@std@@@std@@_N@1@$$QAU?$pair@HH@1@@Z ; std::_Tree<std::_Tmap_traits<unsigned long,unsigned long,std::less<unsigned long>,std::allocator<std::pair<unsigned long const ,unsigned long> >,0> >::emplace<std::pair<int,int> >
; File E:\Metin2_server\SolWayneSF v6\ClientVS22\source\UserInterface\PythonPlayer.cpp

; 1701 : 	m_kMap_dwAffectIndexToSkillIndex.insert(std::make_pair(int(CInstanceBase::AFFECT_JEUNGRYEOK), 111));

  00303	8d 45 e8	 lea	 eax, DWORD PTR $T24[ebp]
; File C:\Program Files\Microsoft Visual Studio\2022\Community\VC\Tools\MSVC\14.34.31933\include\utility

; 172  :         : first(_STD forward<_Other1>(_Val1)), second(_STD forward<_Other2>(_Val2)) {

  00306	c7 45 e8 1e 00
	00 00		 mov	 DWORD PTR $T24[ebp], 30	; 0000001eH
; File E:\Metin2_server\SolWayneSF v6\ClientVS22\source\UserInterface\PythonPlayer.cpp

; 1701 : 	m_kMap_dwAffectIndexToSkillIndex.insert(std::make_pair(int(CInstanceBase::AFFECT_JEUNGRYEOK), 111));

  0030d	50		 push	 eax
  0030e	8d 45 e0	 lea	 eax, DWORD PTR $T7[ebp]
; File C:\Program Files\Microsoft Visual Studio\2022\Community\VC\Tools\MSVC\14.34.31933\include\utility

; 172  :         : first(_STD forward<_Other1>(_Val1)), second(_STD forward<_Other2>(_Val2)) {

  00311	c7 45 ec 6f 00
	00 00		 mov	 DWORD PTR $T24[ebp+4], 111 ; 0000006fH
; File E:\Metin2_server\SolWayneSF v6\ClientVS22\source\UserInterface\PythonPlayer.cpp

; 1701 : 	m_kMap_dwAffectIndexToSkillIndex.insert(std::make_pair(int(CInstanceBase::AFFECT_JEUNGRYEOK), 111));

  00318	50		 push	 eax
  00319	8b ce		 mov	 ecx, esi
  0031b	e8 00 00 00 00	 call	 ??$insert@U?$pair@HH@std@@$0A@@?$map@KKU?$less@K@std@@V?$allocator@U?$pair@$$CBKK@std@@@2@@std@@QAE?AU?$pair@V?$_Tree_iterator@V?$_Tree_val@U?$_Tree_simple_types@U?$pair@$$CBKK@std@@@std@@@std@@@std@@_N@1@$$QAU?$pair@HH@1@@Z ; std::map<unsigned long,unsigned long,std::less<unsigned long>,std::allocator<std::pair<unsigned long const ,unsigned long> > >::insert<std::pair<int,int>,0>

; 1702 : 	m_kMap_dwAffectIndexToSkillIndex.insert(std::make_pair(int(CInstanceBase::AFFECT_PABEOP), 66));

  00320	8d 45 e8	 lea	 eax, DWORD PTR $T23[ebp]
; File C:\Program Files\Microsoft Visual Studio\2022\Community\VC\Tools\MSVC\14.34.31933\include\utility

; 172  :         : first(_STD forward<_Other1>(_Val1)), second(_STD forward<_Other2>(_Val2)) {

  00323	c7 45 e8 20 00
	00 00		 mov	 DWORD PTR $T23[ebp], 32	; 00000020H
; File E:\Metin2_server\SolWayneSF v6\ClientVS22\source\UserInterface\PythonPlayer.cpp

; 1702 : 	m_kMap_dwAffectIndexToSkillIndex.insert(std::make_pair(int(CInstanceBase::AFFECT_PABEOP), 66));

  0032a	50		 push	 eax
  0032b	8d 45 e0	 lea	 eax, DWORD PTR $T6[ebp]
; File C:\Program Files\Microsoft Visual Studio\2022\Community\VC\Tools\MSVC\14.34.31933\include\utility

; 172  :         : first(_STD forward<_Other1>(_Val1)), second(_STD forward<_Other2>(_Val2)) {

  0032e	c7 45 ec 42 00
	00 00		 mov	 DWORD PTR $T23[ebp+4], 66 ; 00000042H
; File E:\Metin2_server\SolWayneSF v6\ClientVS22\source\UserInterface\PythonPlayer.cpp

; 1702 : 	m_kMap_dwAffectIndexToSkillIndex.insert(std::make_pair(int(CInstanceBase::AFFECT_PABEOP), 66));

  00335	50		 push	 eax
  00336	8b ce		 mov	 ecx, esi
  00338	e8 00 00 00 00	 call	 ??$insert@U?$pair@HH@std@@$0A@@?$map@KKU?$less@K@std@@V?$allocator@U?$pair@$$CBKK@std@@@2@@std@@QAE?AU?$pair@V?$_Tree_iterator@V?$_Tree_val@U?$_Tree_simple_types@U?$pair@$$CBKK@std@@@std@@@std@@@std@@_N@1@$$QAU?$pair@HH@1@@Z ; std::map<unsigned long,unsigned long,std::less<unsigned long>,std::allocator<std::pair<unsigned long const ,unsigned long> > >::insert<std::pair<int,int>,0>

; 1703 : 	m_kMap_dwAffectIndexToSkillIndex.insert(std::make_pair(int(CInstanceBase::AFFECT_FALLEN_CHEONGEUN), 19));

  0033d	8d 45 e8	 lea	 eax, DWORD PTR $T22[ebp]
; File C:\Program Files\Microsoft Visual Studio\2022\Community\VC\Tools\MSVC\14.34.31933\include\utility

; 172  :         : first(_STD forward<_Other1>(_Val1)), second(_STD forward<_Other2>(_Val2)) {

  00340	c7 45 e8 21 00
	00 00		 mov	 DWORD PTR $T22[ebp], 33	; 00000021H
; File E:\Metin2_server\SolWayneSF v6\ClientVS22\source\UserInterface\PythonPlayer.cpp

; 1703 : 	m_kMap_dwAffectIndexToSkillIndex.insert(std::make_pair(int(CInstanceBase::AFFECT_FALLEN_CHEONGEUN), 19));

  00347	50		 push	 eax
  00348	8d 45 e0	 lea	 eax, DWORD PTR $T5[ebp]
; File C:\Program Files\Microsoft Visual Studio\2022\Community\VC\Tools\MSVC\14.34.31933\include\utility

; 172  :         : first(_STD forward<_Other1>(_Val1)), second(_STD forward<_Other2>(_Val2)) {

  0034b	c7 45 ec 13 00
	00 00		 mov	 DWORD PTR $T22[ebp+4], 19 ; 00000013H
; File E:\Metin2_server\SolWayneSF v6\ClientVS22\source\UserInterface\PythonPlayer.cpp

; 1703 : 	m_kMap_dwAffectIndexToSkillIndex.insert(std::make_pair(int(CInstanceBase::AFFECT_FALLEN_CHEONGEUN), 19));

  00352	50		 push	 eax
  00353	8b ce		 mov	 ecx, esi
  00355	e8 00 00 00 00	 call	 ??$insert@U?$pair@HH@std@@$0A@@?$map@KKU?$less@K@std@@V?$allocator@U?$pair@$$CBKK@std@@@2@@std@@QAE?AU?$pair@V?$_Tree_iterator@V?$_Tree_val@U?$_Tree_simple_types@U?$pair@$$CBKK@std@@@std@@@std@@@std@@_N@1@$$QAU?$pair@HH@1@@Z ; std::map<unsigned long,unsigned long,std::less<unsigned long>,std::allocator<std::pair<unsigned long const ,unsigned long> > >::insert<std::pair<int,int>,0>

; 1705 : 	m_kMap_dwAffectIndexToSkillIndex.insert(std::make_pair(int(CInstanceBase::AFFECT_GWIGEOM), 63));

  0035a	8d 45 e8	 lea	 eax, DWORD PTR $T21[ebp]
; File C:\Program Files\Microsoft Visual Studio\2022\Community\VC\Tools\MSVC\14.34.31933\include\utility

; 172  :         : first(_STD forward<_Other1>(_Val1)), second(_STD forward<_Other2>(_Val2)) {

  0035d	c7 45 e8 13 00
	00 00		 mov	 DWORD PTR $T21[ebp], 19	; 00000013H
; File E:\Metin2_server\SolWayneSF v6\ClientVS22\source\UserInterface\PythonPlayer.cpp

; 1705 : 	m_kMap_dwAffectIndexToSkillIndex.insert(std::make_pair(int(CInstanceBase::AFFECT_GWIGEOM), 63));

  00364	50		 push	 eax
  00365	8d 45 e0	 lea	 eax, DWORD PTR $T4[ebp]
; File C:\Program Files\Microsoft Visual Studio\2022\Community\VC\Tools\MSVC\14.34.31933\include\utility

; 172  :         : first(_STD forward<_Other1>(_Val1)), second(_STD forward<_Other2>(_Val2)) {

  00368	c7 45 ec 3f 00
	00 00		 mov	 DWORD PTR $T21[ebp+4], 63 ; 0000003fH
; File E:\Metin2_server\SolWayneSF v6\ClientVS22\source\UserInterface\PythonPlayer.cpp

; 1705 : 	m_kMap_dwAffectIndexToSkillIndex.insert(std::make_pair(int(CInstanceBase::AFFECT_GWIGEOM), 63));

  0036f	50		 push	 eax
  00370	8b ce		 mov	 ecx, esi
  00372	e8 00 00 00 00	 call	 ??$insert@U?$pair@HH@std@@$0A@@?$map@KKU?$less@K@std@@V?$allocator@U?$pair@$$CBKK@std@@@2@@std@@QAE?AU?$pair@V?$_Tree_iterator@V?$_Tree_val@U?$_Tree_simple_types@U?$pair@$$CBKK@std@@@std@@@std@@@std@@_N@1@$$QAU?$pair@HH@1@@Z ; std::map<unsigned long,unsigned long,std::less<unsigned long>,std::allocator<std::pair<unsigned long const ,unsigned long> > >::insert<std::pair<int,int>,0>

; 1706 : 	m_kMap_dwAffectIndexToSkillIndex.insert(std::make_pair(int(CInstanceBase::AFFECT_MUYEONG), 78));

  00377	8d 45 e8	 lea	 eax, DWORD PTR $T20[ebp]
; File C:\Program Files\Microsoft Visual Studio\2022\Community\VC\Tools\MSVC\14.34.31933\include\utility

; 172  :         : first(_STD forward<_Other1>(_Val1)), second(_STD forward<_Other2>(_Val2)) {

  0037a	c7 45 e8 1a 00
	00 00		 mov	 DWORD PTR $T20[ebp], 26	; 0000001aH
; File E:\Metin2_server\SolWayneSF v6\ClientVS22\source\UserInterface\PythonPlayer.cpp

; 1706 : 	m_kMap_dwAffectIndexToSkillIndex.insert(std::make_pair(int(CInstanceBase::AFFECT_MUYEONG), 78));

  00381	50		 push	 eax
  00382	8d 45 e0	 lea	 eax, DWORD PTR $T3[ebp]
; File C:\Program Files\Microsoft Visual Studio\2022\Community\VC\Tools\MSVC\14.34.31933\include\utility

; 172  :         : first(_STD forward<_Other1>(_Val1)), second(_STD forward<_Other2>(_Val2)) {

  00385	c7 45 ec 4e 00
	00 00		 mov	 DWORD PTR $T20[ebp+4], 78 ; 0000004eH
; File E:\Metin2_server\SolWayneSF v6\ClientVS22\source\UserInterface\PythonPlayer.cpp

; 1706 : 	m_kMap_dwAffectIndexToSkillIndex.insert(std::make_pair(int(CInstanceBase::AFFECT_MUYEONG), 78));

  0038c	50		 push	 eax
  0038d	8b ce		 mov	 ecx, esi
  0038f	e8 00 00 00 00	 call	 ??$insert@U?$pair@HH@std@@$0A@@?$map@KKU?$less@K@std@@V?$allocator@U?$pair@$$CBKK@std@@@2@@std@@QAE?AU?$pair@V?$_Tree_iterator@V?$_Tree_val@U?$_Tree_simple_types@U?$pair@$$CBKK@std@@@std@@@std@@@std@@_N@1@$$QAU?$pair@HH@1@@Z ; std::map<unsigned long,unsigned long,std::less<unsigned long>,std::allocator<std::pair<unsigned long const ,unsigned long> > >::insert<std::pair<int,int>,0>

; 1707 : 	m_kMap_dwAffectIndexToSkillIndex.insert(std::make_pair(int(CInstanceBase::AFFECT_HEUKSIN), 79));

  00394	8d 45 e8	 lea	 eax, DWORD PTR $T19[ebp]
; File C:\Program Files\Microsoft Visual Studio\2022\Community\VC\Tools\MSVC\14.34.31933\include\utility

; 172  :         : first(_STD forward<_Other1>(_Val1)), second(_STD forward<_Other2>(_Val2)) {

  00397	c7 45 e8 19 00
	00 00		 mov	 DWORD PTR $T19[ebp], 25	; 00000019H
; File E:\Metin2_server\SolWayneSF v6\ClientVS22\source\UserInterface\PythonPlayer.cpp

; 1707 : 	m_kMap_dwAffectIndexToSkillIndex.insert(std::make_pair(int(CInstanceBase::AFFECT_HEUKSIN), 79));

  0039e	50		 push	 eax
  0039f	8d 45 e0	 lea	 eax, DWORD PTR $T2[ebp]
; File C:\Program Files\Microsoft Visual Studio\2022\Community\VC\Tools\MSVC\14.34.31933\include\utility

; 172  :         : first(_STD forward<_Other1>(_Val1)), second(_STD forward<_Other2>(_Val2)) {

  003a2	c7 45 ec 4f 00
	00 00		 mov	 DWORD PTR $T19[ebp+4], 79 ; 0000004fH
; File E:\Metin2_server\SolWayneSF v6\ClientVS22\source\UserInterface\PythonPlayer.cpp

; 1707 : 	m_kMap_dwAffectIndexToSkillIndex.insert(std::make_pair(int(CInstanceBase::AFFECT_HEUKSIN), 79));

  003a9	50		 push	 eax
  003aa	8b ce		 mov	 ecx, esi
  003ac	e8 00 00 00 00	 call	 ??$insert@U?$pair@HH@std@@$0A@@?$map@KKU?$less@K@std@@V?$allocator@U?$pair@$$CBKK@std@@@2@@std@@QAE?AU?$pair@V?$_Tree_iterator@V?$_Tree_val@U?$_Tree_simple_types@U?$pair@$$CBKK@std@@@std@@@std@@@std@@_N@1@$$QAU?$pair@HH@1@@Z ; std::map<unsigned long,unsigned long,std::less<unsigned long>,std::allocator<std::pair<unsigned long const ,unsigned long> > >::insert<std::pair<int,int>,0>

; 1708 : 
; 1709 : 	m_ppyGameWindow = NULL;

  003b1	c7 47 08 00 00
	00 00		 mov	 DWORD PTR [edi+8], 0

; 1710 : 
; 1711 : 	m_sysIsCoolTime = TRUE;

  003b8	c7 87 6c 2e 01
	00 01 00 00 00	 mov	 DWORD PTR [edi+77420], 1

; 1712 : 	m_sysIsLevelLimit = TRUE;

  003c2	c7 87 70 2e 01
	00 01 00 00 00	 mov	 DWORD PTR [edi+77424], 1

; 1713 : 	m_dwPlayTime = 0;

  003cc	c7 87 a4 2e 01
	00 00 00 00 00	 mov	 DWORD PTR [edi+77476], 0

; 1714 : 
; 1715 : 	m_aeMBFButton[MBT_LEFT]=CPythonPlayer::MBF_SMART;

  003d6	c7 87 90 2e 01
	00 00 00 00 00	 mov	 DWORD PTR [edi+77456], 0

; 1716 : 	m_aeMBFButton[MBT_RIGHT]=CPythonPlayer::MBF_CAMERA;

  003e0	c7 87 94 2e 01
	00 02 00 00 00	 mov	 DWORD PTR [edi+77460], 2

; 1717 : 	m_aeMBFButton[MBT_MIDDLE]=CPythonPlayer::MBF_CAMERA;

  003ea	c7 87 98 2e 01
	00 02 00 00 00	 mov	 DWORD PTR [edi+77464], 2

; 1718 : 
; 1719 : 	memset(m_adwEffect, 0, sizeof(m_adwEffect));

  003f4	c7 87 84 2e 01
	00 00 00 00 00	 mov	 DWORD PTR [edi+77444], 0

; 1720 : 
; 1721 : 	m_isDestPosition = FALSE;

  003fe	c7 87 24 2e 01
	00 00 00 00 00	 mov	 DWORD PTR [edi+77348], 0

; 1722 : 	m_ixDestPos = 0;
; 1723 : 	m_iyDestPos = 0;
; 1724 : 	m_iLastAlarmTime = 0;
; 1725 : 
; 1726 : 	Clear();

  00408	8b cf		 mov	 ecx, edi
  0040a	c7 87 28 2e 01
	00 00 00 00 00	 mov	 DWORD PTR [edi+77352], 0
  00414	c7 87 2c 2e 01
	00 00 00 00 00	 mov	 DWORD PTR [edi+77356], 0
  0041e	c7 87 30 2e 01
	00 00 00 00 00	 mov	 DWORD PTR [edi+77360], 0
  00428	e8 00 00 00 00	 call	 ?Clear@CPythonPlayer@@QAEXXZ ; CPythonPlayer::Clear

; 1727 : }

  0042d	8b c7		 mov	 eax, edi
  0042f	8b 4d f4	 mov	 ecx, DWORD PTR __$EHRec$[ebp]
  00432	64 89 0d 00 00
	00 00		 mov	 DWORD PTR fs:0, ecx
  00439	59		 pop	 ecx
  0043a	5f		 pop	 edi
  0043b	5e		 pop	 esi
  0043c	8b e5		 mov	 esp, ebp
  0043e	5d		 pop	 ebp
  0043f	c3		 ret	 0
_TEXT	ENDS
;	COMDAT text$x
text$x	SEGMENT
__unwindfunclet$??0CPythonPlayer@@QAE@XZ$0:
  00000	8b 4d f0	 mov	 ecx, DWORD PTR _this$[ebp]
  00003	e9 00 00 00 00	 jmp	 ??1?$CSingleton@VCPythonPlayer@@@@UAE@XZ ; CSingleton<CPythonPlayer>::~CSingleton<CPythonPlayer>
__unwindfunclet$??0CPythonPlayer@@QAE@XZ$1:
  00008	8b 4d f0	 mov	 ecx, DWORD PTR _this$[ebp]
  0000b	83 c1 04	 add	 ecx, 4
  0000e	e9 00 00 00 00	 jmp	 ??1IAbstractPlayer@@UAE@XZ ; IAbstractPlayer::~IAbstractPlayer
__unwindfunclet$??0CPythonPlayer@@QAE@XZ$2:
  00013	8b 4d f0	 mov	 ecx, DWORD PTR _this$[ebp]
  00016	83 c1 0c	 add	 ecx, 12			; 0000000cH
  00019	e9 00 00 00 00	 jmp	 ??1?$map@KKU?$less@K@std@@V?$allocator@U?$pair@$$CBKK@std@@@2@@std@@QAE@XZ
__unwindfunclet$??0CPythonPlayer@@QAE@XZ$3:
  0001e	8b 4d f0	 mov	 ecx, DWORD PTR _this$[ebp]
  00021	83 c1 14	 add	 ecx, 20			; 00000014H
  00024	e9 00 00 00 00	 jmp	 ??1?$basic_string@DU?$char_traits@D@std@@V?$allocator@D@2@@std@@QAE@XZ ; std::basic_string<char,std::char_traits<char>,std::allocator<char> >::~basic_string<char,std::char_traits<char>,std::allocator<char> >
__unwindfunclet$??0CPythonPlayer@@QAE@XZ$4:
  00029	8b 4d f0	 mov	 ecx, DWORD PTR _this$[ebp]
  0002c	81 c1 34 2e 01
	00		 add	 ecx, 77364		; 00012e34H
  00032	e9 00 00 00 00	 jmp	 ??1?$map@KUSPartyMemberInfo@CPythonPlayer@@U?$less@K@std@@V?$allocator@U?$pair@$$CBKUSPartyMemberInfo@CPythonPlayer@@@std@@@4@@std@@QAE@XZ
__unwindfunclet$??0CPythonPlayer@@QAE@XZ$5:
  00037	8b 4d f0	 mov	 ecx, DWORD PTR _this$[ebp]
  0003a	81 c1 3c 2e 01
	00		 add	 ecx, 77372		; 00012e3cH
  00040	e9 00 00 00 00	 jmp	 ??1?$set@KU?$less@K@std@@V?$allocator@K@2@@std@@QAE@XZ
__unwindfunclet$??0CPythonPlayer@@QAE@XZ$6:
  00045	8b 4d f0	 mov	 ecx, DWORD PTR _this$[ebp]
  00048	81 c1 44 2e 01
	00		 add	 ecx, 77380		; 00012e44H
  0004e	e9 00 00 00 00	 jmp	 ??1?$set@KU?$less@K@std@@V?$allocator@K@2@@std@@QAE@XZ
__unwindfunclet$??0CPythonPlayer@@QAE@XZ$7:
  00053	8b 4d f0	 mov	 ecx, DWORD PTR _this$[ebp]
  00056	81 c1 4c 2e 01
	00		 add	 ecx, 77388		; 00012e4cH
  0005c	e9 00 00 00 00	 jmp	 ??1?$set@KU?$less@K@std@@V?$allocator@K@2@@std@@QAE@XZ
__unwindfunclet$??0CPythonPlayer@@QAE@XZ$8:
  00061	8b 4d f0	 mov	 ecx, DWORD PTR _this$[ebp]
  00064	81 c1 cc 2e 01
	00		 add	 ecx, 77516		; 00012eccH
  0006a	e9 00 00 00 00	 jmp	 ??1?$map@KKU?$less@K@std@@V?$allocator@U?$pair@$$CBKK@std@@@2@@std@@QAE@XZ
  0006f	cc		 int	 3
  00070	cc		 int	 3
  00071	cc		 int	 3
  00072	cc		 int	 3
  00073	cc		 int	 3
__ehhandler$??0CPythonPlayer@@QAE@XZ:
  00074	90		 npad	 1
  00075	90		 npad	 1
  00076	8b 54 24 08	 mov	 edx, DWORD PTR [esp+8]
  0007a	8d 42 0c	 lea	 eax, DWORD PTR [edx+12]
  0007d	8b 4a e0	 mov	 ecx, DWORD PTR [edx-32]
  00080	33 c8		 xor	 ecx, eax
  00082	e8 00 00 00 00	 call	 @__security_check_cookie@4
  00087	b8 00 00 00 00	 mov	 eax, OFFSET __ehfuncinfo$??0CPythonPlayer@@QAE@XZ
  0008c	e9 00 00 00 00	 jmp	 ___CxxFrameHandler3
text$x	ENDS
??0CPythonPlayer@@QAE@XZ ENDP				; CPythonPlayer::CPythonPlayer
; Function compile flags: /Ogtp
; File E:\Metin2_server\SolWayneSF v6\ClientVS22\source\UserInterface\PythonPlayer.cpp
; File C:\Program Files\Microsoft Visual Studio\2022\Community\VC\Tools\MSVC\14.34.31933\include\xtree
; File E:\Metin2_server\SolWayneSF v6\ClientVS22\source\UserInterface\PythonPlayer.cpp
; File C:\Program Files\Microsoft Visual Studio\2022\Community\VC\Tools\MSVC\14.34.31933\include\xtree
; File C:\Program Files\Microsoft Visual Studio\2022\Community\VC\Tools\MSVC\14.34.31933\include\xstddef
; File C:\Program Files\Microsoft Visual Studio\2022\Community\VC\Tools\MSVC\14.34.31933\include\xtree
; File E:\Metin2_server\SolWayneSF v6\ClientVS22\source\UserInterface\PythonPlayer.cpp
;	COMDAT ?GetPartyMemberPtr@CPythonPlayer@@QAE_NKPAPAUSPartyMemberInfo@1@@Z
_TEXT	SEGMENT
__Loc$1 = -12						; size = 12
_dwPID$ = 8						; size = 4
_ppPartyMemberInfo$ = 12				; size = 4
?GetPartyMemberPtr@CPythonPlayer@@QAE_NKPAPAUSPartyMemberInfo@1@@Z PROC ; CPythonPlayer::GetPartyMemberPtr, COMDAT
; _this$ = ecx

; 1405 : {

  00000	55		 push	 ebp
  00001	8b ec		 mov	 ebp, esp
  00003	83 ec 0c	 sub	 esp, 12			; 0000000cH
  00006	56		 push	 esi
; File C:\Program Files\Microsoft Visual Studio\2022\Community\VC\Tools\MSVC\14.34.31933\include\xtree

; 1367 :         const _Tree_find_result<_Nodeptr> _Loc = _Find_lower_bound(_Keyval);

  00007	8d 45 08	 lea	 eax, DWORD PTR _dwPID$[ebp]
  0000a	50		 push	 eax
; File E:\Metin2_server\SolWayneSF v6\ClientVS22\source\UserInterface\PythonPlayer.cpp

; 1406 : 	std::map<DWORD, TPartyMemberInfo>::iterator itor = m_PartyMemberMap.find(dwPID);

  0000b	8d b1 34 2e 01
	00		 lea	 esi, DWORD PTR [ecx+77364]
; File C:\Program Files\Microsoft Visual Studio\2022\Community\VC\Tools\MSVC\14.34.31933\include\xtree

; 1367 :         const _Tree_find_result<_Nodeptr> _Loc = _Find_lower_bound(_Keyval);

  00011	8d 45 f4	 lea	 eax, DWORD PTR __Loc$1[ebp]
  00014	8b ce		 mov	 ecx, esi
  00016	50		 push	 eax
  00017	e8 00 00 00 00	 call	 ??$_Find_lower_bound@K@?$_Tree@V?$_Tmap_traits@KUSPartyMemberInfo@CPythonPlayer@@U?$less@K@std@@V?$allocator@U?$pair@$$CBKUSPartyMemberInfo@CPythonPlayer@@@std@@@4@$0A@@std@@@std@@IBE?AU?$_Tree_find_result@PAU?$_Tree_node@U?$pair@$$CBKUSPartyMemberInfo@CPythonPlayer@@@std@@PAX@std@@@1@ABK@Z ; std::_Tree<std::_Tmap_traits<unsigned long,CPythonPlayer::SPartyMemberInfo,std::less<unsigned long>,std::allocator<std::pair<unsigned long const ,CPythonPlayer::SPartyMemberInfo> >,0> >::_Find_lower_bound<unsigned long>

; 1605 :         return !_Bound->_Isnil && !_DEBUG_LT_PRED(_Getcomp(), _Keyval, _Traits::_Kfn(_Bound->_Myval));

  0001c	8b 4d fc	 mov	 ecx, DWORD PTR __Loc$1[ebp+8]
  0001f	80 79 0d 00	 cmp	 BYTE PTR [ecx+13], 0
  00023	75 1d		 jne	 SHORT $LN37@GetPartyMe
; File C:\Program Files\Microsoft Visual Studio\2022\Community\VC\Tools\MSVC\14.34.31933\include\xstddef

; 143  :         return _Left < _Right;

  00025	8b 45 08	 mov	 eax, DWORD PTR _dwPID$[ebp]
  00028	3b 41 10	 cmp	 eax, DWORD PTR [ecx+16]
; File C:\Program Files\Microsoft Visual Studio\2022\Community\VC\Tools\MSVC\14.34.31933\include\xtree

; 1605 :         return !_Bound->_Isnil && !_DEBUG_LT_PRED(_Getcomp(), _Keyval, _Traits::_Kfn(_Bound->_Myval));

  0002b	72 15		 jb	 SHORT $LN37@GetPartyMe

; 233  :         return this->_Ptr == _Right._Ptr;

  0002d	39 0e		 cmp	 DWORD PTR [esi], ecx
; File E:\Metin2_server\SolWayneSF v6\ClientVS22\source\UserInterface\PythonPlayer.cpp

; 1408 : 	if (m_PartyMemberMap.end() == itor)

  0002f	74 11		 je	 SHORT $LN37@GetPartyMe

; 1410 : 
; 1411 : 	*ppPartyMemberInfo = &(itor->second);

  00031	8b 45 0c	 mov	 eax, DWORD PTR _ppPartyMemberInfo$[ebp]
  00034	83 c1 14	 add	 ecx, 20			; 00000014H
  00037	5e		 pop	 esi
  00038	89 08		 mov	 DWORD PTR [eax], ecx

; 1412 : 
; 1413 : 	return true;

  0003a	b0 01		 mov	 al, 1

; 1414 : }

  0003c	8b e5		 mov	 esp, ebp
  0003e	5d		 pop	 ebp
  0003f	c2 08 00	 ret	 8
$LN37@GetPartyMe:

; 1409 : 		return false;

  00042	32 c0		 xor	 al, al
  00044	5e		 pop	 esi

; 1414 : }

  00045	8b e5		 mov	 esp, ebp
  00047	5d		 pop	 ebp
  00048	c2 08 00	 ret	 8
?GetPartyMemberPtr@CPythonPlayer@@QAE_NKPAPAUSPartyMemberInfo@1@@Z ENDP ; CPythonPlayer::GetPartyMemberPtr
_TEXT	ENDS
; Function compile flags: /Ogtp
; File E:\Metin2_server\SolWayneSF v6\ClientVS22\source\UserInterface\PythonPlayer.cpp
;	COMDAT ?GetGuildID@CPythonPlayer@@QAEKXZ
_TEXT	SEGMENT
?GetGuildID@CPythonPlayer@@QAEKXZ PROC			; CPythonPlayer::GetGuildID, COMDAT
; _this$ = ecx

; 300  : 	CInstanceBase* pkInstMain=NEW_GetMainActorPtr();

  00000	8b 41 04	 mov	 eax, DWORD PTR [ecx+4]
  00003	83 c1 04	 add	 ecx, 4
  00006	ff 90 88 00 00
	00		 call	 DWORD PTR [eax+136]

; 301  : 	if (!pkInstMain)

  0000c	85 c0		 test	 eax, eax
  0000e	75 04		 jne	 SHORT $LN2@GetGuildID

; 302  : 		return 0xffffffff;

  00010	83 c8 ff	 or	 eax, -1

; 305  : }

  00013	c3		 ret	 0
$LN2@GetGuildID:

; 303  : 
; 304  : 	return pkInstMain->GetGuildID();

  00014	8b c8		 mov	 ecx, eax
  00016	e9 00 00 00 00	 jmp	 ?GetGuildID@CInstanceBase@@QAEKXZ ; CInstanceBase::GetGuildID
?GetGuildID@CPythonPlayer@@QAEKXZ ENDP			; CPythonPlayer::GetGuildID
_TEXT	ENDS
; Function compile flags: /Ogtp
; File E:\Metin2_server\SolWayneSF v6\ClientVS22\source\UserInterface\PythonPlayer.cpp
; File C:\Program Files\Microsoft Visual Studio\2022\Community\VC\Tools\MSVC\14.34.31933\include\xtree
; File E:\Metin2_server\SolWayneSF v6\ClientVS22\source\UserInterface\PythonPlayer.cpp
; File C:\Program Files\Microsoft Visual Studio\2022\Community\VC\Tools\MSVC\14.34.31933\include\xtree
; File E:\Metin2_server\SolWayneSF v6\ClientVS22\source\UserInterface\PythonPlayer.cpp
; File C:\Program Files\Microsoft Visual Studio\2022\Community\VC\Tools\MSVC\14.34.31933\include\xtree
; File C:\Program Files\Microsoft Visual Studio\2022\Community\VC\Tools\MSVC\14.34.31933\include\xmemory
; File E:\Metin2_server\SolWayneSF v6\ClientVS22\source\UserInterface\PythonPlayer.cpp
; File C:\Program Files\Microsoft Visual Studio\2022\Community\VC\Tools\MSVC\14.34.31933\include\xmemory
; File E:\Metin2_server\SolWayneSF v6\ClientVS22\source\UserInterface\PythonPlayer.cpp
; File C:\Program Files\Microsoft Visual Studio\2022\Community\VC\Tools\MSVC\14.34.31933\include\xtree
; File E:\Metin2_server\SolWayneSF v6\ClientVS22\source\UserInterface\PythonPlayer.cpp
;	COMDAT ?NEW_ClearSkillData@CPythonPlayer@@QAEX_N@Z
_TEXT	SEGMENT
__Successor$1 = -4					; size = 4
_it$ = -4						; size = 4
_bAll$ = 8						; size = 1
?NEW_ClearSkillData@CPythonPlayer@@QAEX_N@Z PROC	; CPythonPlayer::NEW_ClearSkillData, COMDAT
; _this$ = ecx

; 1566 : {

  00000	55		 push	 ebp
  00001	8b ec		 mov	 ebp, esp
  00003	51		 push	 ecx
  00004	53		 push	 ebx
  00005	56		 push	 esi
  00006	57		 push	 edi
  00007	8b f9		 mov	 edi, ecx
; File C:\Program Files\Microsoft Visual Studio\2022\Community\VC\Tools\MSVC\14.34.31933\include\xtree

; 1126 :         return iterator(_Scary->_Myhead->_Left, _Scary);

  00009	8b 47 0c	 mov	 eax, DWORD PTR [edi+12]

; 38   :     _Tree_unchecked_const_iterator(_Nodeptr _Pnode, const _Mytree* _Plist) noexcept : _Ptr(_Pnode) {

  0000c	8b 30		 mov	 esi, DWORD PTR [eax]
; File E:\Metin2_server\SolWayneSF v6\ClientVS22\source\UserInterface\PythonPlayer.cpp

; 1569 : 	for (it = m_skillSlotDict.begin(); it != m_skillSlotDict.end();)

  0000e	89 75 fc	 mov	 DWORD PTR _it$[ebp], esi
; File C:\Program Files\Microsoft Visual Studio\2022\Community\VC\Tools\MSVC\14.34.31933\include\xtree

; 38   :     _Tree_unchecked_const_iterator(_Nodeptr _Pnode, const _Mytree* _Plist) noexcept : _Ptr(_Pnode) {

  00011	3b f0		 cmp	 esi, eax
; File E:\Metin2_server\SolWayneSF v6\ClientVS22\source\UserInterface\PythonPlayer.cpp

; 1569 : 	for (it = m_skillSlotDict.begin(); it != m_skillSlotDict.end();)

  00013	74 4b		 je	 SHORT $LN3@NEW_ClearS
$LL2@NEW_ClearS:

; 1570 : 	{
; 1571 : 		if (bAll || __GetSkillType(it->first) == CPythonSkill::SKILL_TYPE_ACTIVE)

  00015	80 7d 08 00	 cmp	 BYTE PTR _bAll$[ebp], 0
  00019	75 1b		 jne	 SHORT $LN127@NEW_ClearS
  0001b	ff 76 10	 push	 DWORD PTR [esi+16]
  0001e	8b cf		 mov	 ecx, edi
  00020	e8 00 00 00 00	 call	 ?__GetSkillType@CPythonPlayer@@IAEEK@Z ; CPythonPlayer::__GetSkillType
  00025	3c 01		 cmp	 al, 1
  00027	74 0d		 je	 SHORT $LN127@NEW_ClearS
; File C:\Program Files\Microsoft Visual Studio\2022\Community\VC\Tools\MSVC\14.34.31933\include\xtree

; 199  :         _Mybase::operator++();

  00029	8d 4d fc	 lea	 ecx, DWORD PTR _it$[ebp]
  0002c	e8 00 00 00 00	 call	 ??E?$_Tree_unchecked_const_iterator@V?$_Tree_val@U?$_Tree_simple_types@U?$pair@$$CBKK@std@@@std@@@std@@U_Iterator_base0@2@@std@@QAEAAV01@XZ ; std::_Tree_unchecked_const_iterator<std::_Tree_val<std::_Tree_simple_types<std::pair<unsigned long const ,unsigned long> > >,std::_Iterator_base0>::operator++
  00031	8b 75 fc	 mov	 esi, DWORD PTR _it$[ebp]
  00034	eb 25		 jmp	 SHORT $LN100@NEW_ClearS
$LN127@NEW_ClearS:

; 1286 :         ++_Successor; // save successor iterator for return

  00036	8d 4d fc	 lea	 ecx, DWORD PTR __Successor$1[ebp]
  00039	89 75 fc	 mov	 DWORD PTR __Successor$1[ebp], esi
  0003c	e8 00 00 00 00	 call	 ??E?$_Tree_unchecked_const_iterator@V?$_Tree_val@U?$_Tree_simple_types@U?$pair@$$CBKK@std@@@std@@@std@@U_Iterator_base0@2@@std@@QAEAAV01@XZ ; std::_Tree_unchecked_const_iterator<std::_Tree_val<std::_Tree_simple_types<std::pair<unsigned long const ,unsigned long> > >,std::_Iterator_base0>::operator++

; 1287 :         _Nodeptr _Erasednode = _Scary->_Extract(_Where); // node to erase

  00041	56		 push	 esi
  00042	8d 4f 0c	 lea	 ecx, DWORD PTR [edi+12]
  00045	e8 00 00 00 00	 call	 ?_Extract@?$_Tree_val@U?$_Tree_simple_types@U?$pair@$$CBKK@std@@@std@@@std@@QAEPAU?$_Tree_node@U?$pair@$$CBKK@std@@PAX@2@V?$_Tree_unchecked_const_iterator@V?$_Tree_val@U?$_Tree_simple_types@U?$pair@$$CBKK@std@@@std@@@std@@U_Iterator_base0@2@@2@@Z ; std::_Tree_val<std::_Tree_simple_types<std::pair<unsigned long const ,unsigned long> > >::_Extract
; File C:\Program Files\Microsoft Visual Studio\2022\Community\VC\Tools\MSVC\14.34.31933\include\xmemory

; 255  :         ::operator delete(_Ptr, _Bytes);

  0004a	6a 18		 push	 24			; 00000018H
  0004c	50		 push	 eax
  0004d	e8 00 00 00 00	 call	 ??3@YAXPAXI@Z		; operator delete
; File E:\Metin2_server\SolWayneSF v6\ClientVS22\source\UserInterface\PythonPlayer.cpp

; 1572 : 			it = m_skillSlotDict.erase(it);

  00052	8b 75 fc	 mov	 esi, DWORD PTR __Successor$1[ebp]
; File C:\Program Files\Microsoft Visual Studio\2022\Community\VC\Tools\MSVC\14.34.31933\include\xmemory

; 255  :         ::operator delete(_Ptr, _Bytes);

  00055	83 c4 08	 add	 esp, 8
; File E:\Metin2_server\SolWayneSF v6\ClientVS22\source\UserInterface\PythonPlayer.cpp

; 1572 : 			it = m_skillSlotDict.erase(it);

  00058	89 75 fc	 mov	 DWORD PTR _it$[ebp], esi
$LN100@NEW_ClearS:
; File C:\Program Files\Microsoft Visual Studio\2022\Community\VC\Tools\MSVC\14.34.31933\include\xtree

; 233  :         return this->_Ptr == _Right._Ptr;

  0005b	3b 77 0c	 cmp	 esi, DWORD PTR [edi+12]
; File E:\Metin2_server\SolWayneSF v6\ClientVS22\source\UserInterface\PythonPlayer.cpp

; 1569 : 	for (it = m_skillSlotDict.begin(); it != m_skillSlotDict.end();)

  0005e	75 b5		 jne	 SHORT $LL2@NEW_ClearS
$LN3@NEW_ClearS:

; 1573 : 		else
; 1574 : 			++it;
; 1575 : 	}
; 1576 : 
; 1577 : 	for (int i = 0; i < SKILL_MAX_NUM; ++i)

  00060	68 d8 27 00 00	 push	 10200			; 000027d8H
  00065	8d 87 14 fe 00
	00		 lea	 eax, DWORD PTR [edi+65044]
  0006b	6a 00		 push	 0
  0006d	50		 push	 eax
  0006e	e8 00 00 00 00	 call	 _memset
  00073	83 c4 0c	 add	 esp, 12			; 0000000cH

; 1578 : 	{
; 1579 : 		ZeroMemory(&m_playerStatus.aSkill[i], sizeof(TSkillInstance));
; 1580 : 	}
; 1581 : 
; 1582 : 	for (int j = 0; j < SKILL_MAX_NUM; ++j)

  00076	8d 87 24 fe 00
	00		 lea	 eax, DWORD PTR [edi+65060]
  0007c	b9 ff 00 00 00	 mov	 ecx, 255		; 000000ffH
$LL10@NEW_ClearS:

; 1583 : 	{
; 1584 : 		// 2004.09.30.myevan.  [+]   
; 1585 : 		m_playerStatus.aSkill[j].iGrade = 0;

  00081	c7 40 f8 00 00
	00 00		 mov	 DWORD PTR [eax-8], 0
  00088	8d 40 28	 lea	 eax, DWORD PTR [eax+40]

; 1586 : 		m_playerStatus.aSkill[j].fcurEfficientPercentage=0.0f;

  0008b	c7 40 d8 00 00
	00 00		 mov	 DWORD PTR [eax-40], 0

; 1587 : 		m_playerStatus.aSkill[j].fnextEfficientPercentage=0.05f;

  00092	c7 40 dc cd cc
	4c 3d		 mov	 DWORD PTR [eax-36], 1028443341 ; 3d4ccccdH
  00099	83 e9 01	 sub	 ecx, 1
  0009c	75 e3		 jne	 SHORT $LL10@NEW_ClearS

; 1588 : 	}
; 1589 : 
; 1590 : 	if (m_ppyGameWindow)

  0009e	39 4f 08	 cmp	 DWORD PTR [edi+8], ecx
  000a1	74 16		 je	 SHORT $LN14@NEW_ClearS

; 1591 : 		PyCallClassMemberFunc(m_ppyGameWindow, "BINARY_CheckGameButton", Py_BuildNone());

  000a3	e8 00 00 00 00	 call	 ?Py_BuildNone@@YAPAU_object@@XZ ; Py_BuildNone
  000a8	50		 push	 eax
  000a9	68 00 00 00 00	 push	 OFFSET ??_C@_0BH@PIKHDMAM@BINARY_CheckGameButton@
  000ae	ff 77 08	 push	 DWORD PTR [edi+8]
  000b1	e8 00 00 00 00	 call	 ?PyCallClassMemberFunc@@YA_NPAU_object@@PBD0@Z ; PyCallClassMemberFunc
  000b6	83 c4 0c	 add	 esp, 12			; 0000000cH
$LN14@NEW_ClearS:

; 1592 : }

  000b9	5f		 pop	 edi
  000ba	5e		 pop	 esi
  000bb	5b		 pop	 ebx
  000bc	8b e5		 mov	 esp, ebp
  000be	5d		 pop	 ebp
  000bf	c2 04 00	 ret	 4
?NEW_ClearSkillData@CPythonPlayer@@QAEX_N@Z ENDP	; CPythonPlayer::NEW_ClearSkillData
_TEXT	ENDS
; Function compile flags: /Ogtp
; File E:\Metin2_server\SolWayneSF v6\ClientVS22\source\UserInterface\PythonPlayer.cpp
;	COMDAT ?OpenPrivateShop@CPythonPlayer@@QAEXXZ
_TEXT	SEGMENT
?OpenPrivateShop@CPythonPlayer@@QAEXXZ PROC		; CPythonPlayer::OpenPrivateShop, COMDAT
; _this$ = ecx

; 1487 : 	m_isOpenPrivateShop = TRUE;

  00000	c6 81 54 2e 01
	00 01		 mov	 BYTE PTR [ecx+77396], 1

; 1488 : }

  00007	c3		 ret	 0
?OpenPrivateShop@CPythonPlayer@@QAEXXZ ENDP		; CPythonPlayer::OpenPrivateShop
_TEXT	ENDS
; Function compile flags: /Ogtp
; File E:\Metin2_server\SolWayneSF v6\ClientVS22\source\UserInterface\PythonPlayer.cpp
;	COMDAT ?ClosePrivateShop@CPythonPlayer@@QAEXXZ
_TEXT	SEGMENT
?ClosePrivateShop@CPythonPlayer@@QAEXXZ PROC		; CPythonPlayer::ClosePrivateShop, COMDAT
; _this$ = ecx

; 1491 : 	m_isOpenPrivateShop = FALSE;

  00000	c6 81 54 2e 01
	00 00		 mov	 BYTE PTR [ecx+77396], 0

; 1492 : }

  00007	c3		 ret	 0
?ClosePrivateShop@CPythonPlayer@@QAEXXZ ENDP		; CPythonPlayer::ClosePrivateShop
_TEXT	ENDS
; Function compile flags: /Ogtp
; File E:\Metin2_server\SolWayneSF v6\ClientVS22\source\UserInterface\PythonPlayer.cpp
;	COMDAT ?SetDungeonDestinationPosition@CPythonPlayer@@QAEXHH@Z
_TEXT	SEGMENT
_ix$ = 8						; size = 4
_iy$ = 12						; size = 4
?SetDungeonDestinationPosition@CPythonPlayer@@QAEXHH@Z PROC ; CPythonPlayer::SetDungeonDestinationPosition, COMDAT
; _this$ = ecx

; 1252 : {

  00000	55		 push	 ebp
  00001	8b ec		 mov	 ebp, esp

; 1253 : 	m_isDestPosition = TRUE;
; 1254 : 	m_ixDestPos = ix;

  00003	8b 45 08	 mov	 eax, DWORD PTR _ix$[ebp]
  00006	89 81 28 2e 01
	00		 mov	 DWORD PTR [ecx+77352], eax

; 1255 : 	m_iyDestPos = iy;

  0000c	8b 45 0c	 mov	 eax, DWORD PTR _iy$[ebp]
  0000f	c7 81 24 2e 01
	00 01 00 00 00	 mov	 DWORD PTR [ecx+77348], 1
  00019	89 81 2c 2e 01
	00		 mov	 DWORD PTR [ecx+77356], eax

; 1256 : 
; 1257 : 	AlarmHaveToGo();

  0001f	e8 00 00 00 00	 call	 ?AlarmHaveToGo@CPythonPlayer@@QAEXXZ ; CPythonPlayer::AlarmHaveToGo

; 1258 : }

  00024	5d		 pop	 ebp
  00025	c2 08 00	 ret	 8
?SetDungeonDestinationPosition@CPythonPlayer@@QAEXHH@Z ENDP ; CPythonPlayer::SetDungeonDestinationPosition
_TEXT	ENDS
; Function compile flags: /Ogtp
; File E:\Metin2_server\SolWayneSF v6\ClientVS22\source\UserInterface\PythonPlayer.cpp
;	COMDAT ?UnlinkPartyMember@CPythonPlayer@@QAEXK@Z
_TEXT	SEGMENT
_pPartyMemberInfo$ = -4					; size = 4
_dwPID$ = 8						; size = 4
?UnlinkPartyMember@CPythonPlayer@@QAEXK@Z PROC		; CPythonPlayer::UnlinkPartyMember, COMDAT
; _this$ = ecx

; 1317 : {

  00000	55		 push	 ebp
  00001	8b ec		 mov	 ebp, esp
  00003	51		 push	 ecx

; 1318 : 	TPartyMemberInfo * pPartyMemberInfo;
; 1319 : 	if (!GetPartyMemberPtr(dwPID, &pPartyMemberInfo))

  00004	8d 45 fc	 lea	 eax, DWORD PTR _pPartyMemberInfo$[ebp]
  00007	50		 push	 eax
  00008	ff 75 08	 push	 DWORD PTR _dwPID$[ebp]
  0000b	e8 00 00 00 00	 call	 ?GetPartyMemberPtr@CPythonPlayer@@QAE_NKPAPAUSPartyMemberInfo@1@@Z ; CPythonPlayer::GetPartyMemberPtr
  00010	84 c0		 test	 al, al
  00012	75 16		 jne	 SHORT $LN2@UnlinkPart

; 1320 : 	{
; 1321 : 		TraceError(" CPythonPlayer::UnlinkPartyMember(dwPID=%d) - Failed to find party member", dwPID);

  00014	ff 75 08	 push	 DWORD PTR _dwPID$[ebp]
  00017	68 00 00 00 00	 push	 OFFSET ??_C@_0EK@OICEDEOK@?5CPythonPlayer?3?3UnlinkPartyMemb@
  0001c	e8 00 00 00 00	 call	 ?TraceError@@YAXPBDZZ	; TraceError
  00021	83 c4 08	 add	 esp, 8

; 1326 : }

  00024	8b e5		 mov	 esp, ebp
  00026	5d		 pop	 ebp
  00027	c2 04 00	 ret	 4
$LN2@UnlinkPart:

; 1322 : 		return;
; 1323 : 	}
; 1324 : 
; 1325 : 	pPartyMemberInfo->dwVID = 0;

  0002a	8b 45 fc	 mov	 eax, DWORD PTR _pPartyMemberInfo$[ebp]
  0002d	c7 00 00 00 00
	00		 mov	 DWORD PTR [eax], 0

; 1326 : }

  00033	8b e5		 mov	 esp, ebp
  00035	5d		 pop	 ebp
  00036	c2 04 00	 ret	 4
?UnlinkPartyMember@CPythonPlayer@@QAEXK@Z ENDP		; CPythonPlayer::UnlinkPartyMember
_TEXT	ENDS
; Function compile flags: /Ogtp
; File E:\Metin2_server\SolWayneSF v6\ClientVS22\source\UserInterface\PythonPlayer.cpp
;	COMDAT ?LinkPartyMember@CPythonPlayer@@QAEXKK@Z
_TEXT	SEGMENT
_pPartyMemberInfo$ = -4					; size = 4
_dwPID$ = 8						; size = 4
_dwVID$ = 12						; size = 4
?LinkPartyMember@CPythonPlayer@@QAEXKK@Z PROC		; CPythonPlayer::LinkPartyMember, COMDAT
; _this$ = ecx

; 1301 : {

  00000	55		 push	 ebp
  00001	8b ec		 mov	 ebp, esp
  00003	51		 push	 ecx

; 1302 : 	TPartyMemberInfo * pPartyMemberInfo;
; 1303 : 	if (!GetPartyMemberPtr(dwPID, &pPartyMemberInfo))

  00004	8d 45 fc	 lea	 eax, DWORD PTR _pPartyMemberInfo$[ebp]
  00007	50		 push	 eax
  00008	ff 75 08	 push	 DWORD PTR _dwPID$[ebp]
  0000b	e8 00 00 00 00	 call	 ?GetPartyMemberPtr@CPythonPlayer@@QAE_NKPAPAUSPartyMemberInfo@1@@Z ; CPythonPlayer::GetPartyMemberPtr
  00010	84 c0		 test	 al, al
  00012	75 19		 jne	 SHORT $LN2@LinkPartyM

; 1304 : 	{
; 1305 : 		TraceError(" CPythonPlayer::LinkPartyMember(dwPID=%d, dwVID=%d) - Failed to find party member", dwPID, dwVID);

  00014	ff 75 0c	 push	 DWORD PTR _dwVID$[ebp]
  00017	ff 75 08	 push	 DWORD PTR _dwPID$[ebp]
  0001a	68 00 00 00 00	 push	 OFFSET ??_C@_0FC@JHEGNFED@?5CPythonPlayer?3?3LinkPartyMember@
  0001f	e8 00 00 00 00	 call	 ?TraceError@@YAXPBDZZ	; TraceError
  00024	83 c4 0c	 add	 esp, 12			; 0000000cH

; 1314 : }

  00027	8b e5		 mov	 esp, ebp
  00029	5d		 pop	 ebp
  0002a	c2 08 00	 ret	 8
$LN2@LinkPartyM:

; 1306 : 		return;
; 1307 : 	}
; 1308 : 
; 1309 : 	pPartyMemberInfo->dwVID = dwVID;

  0002d	8b 45 fc	 mov	 eax, DWORD PTR _pPartyMemberInfo$[ebp]
  00030	8b 4d 0c	 mov	 ecx, DWORD PTR _dwVID$[ebp]

; 1310 : 
; 1311 : 	CInstanceBase * pInstance = NEW_FindActorPtr(dwVID);

  00033	51		 push	 ecx
  00034	89 08		 mov	 DWORD PTR [eax], ecx
  00036	e8 00 00 00 00	 call	 ?NEW_FindActorPtr@CPythonPlayer@@QAEPAVCInstanceBase@@K@Z ; CPythonPlayer::NEW_FindActorPtr

; 1312 : 	if (pInstance)

  0003b	85 c0		 test	 eax, eax
  0003d	74 07		 je	 SHORT $LN3@LinkPartyM

; 1313 : 		pInstance->RefreshTextTail();

  0003f	8b c8		 mov	 ecx, eax
  00041	e8 00 00 00 00	 call	 ?RefreshTextTail@CInstanceBase@@QAEXXZ ; CInstanceBase::RefreshTextTail
$LN3@LinkPartyM:

; 1314 : }

  00046	8b e5		 mov	 esp, ebp
  00048	5d		 pop	 ebp
  00049	c2 08 00	 ret	 8
?LinkPartyMember@CPythonPlayer@@QAEXKK@Z ENDP		; CPythonPlayer::LinkPartyMember
_TEXT	ENDS
; Function compile flags: /Ogtp
; File E:\Metin2_server\SolWayneSF v6\ClientVS22\source\UserInterface\PythonPlayer.cpp
; File C:\Program Files\Microsoft Visual Studio\2022\Community\VC\Tools\MSVC\14.34.31933\include\xtree
; File E:\Metin2_server\SolWayneSF v6\ClientVS22\source\UserInterface\PythonPlayer.cpp
; File C:\Program Files\Microsoft Visual Studio\2022\Community\VC\Tools\MSVC\14.34.31933\include\xtree
; File C:\Program Files\Microsoft Visual Studio\2022\Community\VC\Tools\MSVC\14.34.31933\include\xstddef
; File C:\Program Files\Microsoft Visual Studio\2022\Community\VC\Tools\MSVC\14.34.31933\include\xtree
; File E:\Metin2_server\SolWayneSF v6\ClientVS22\source\UserInterface\PythonPlayer.cpp
;	COMDAT ?PartyMemberPIDToVID@CPythonPlayer@@QAE_NKPAK@Z
_TEXT	SEGMENT
__Loc$1 = -12						; size = 12
_dwPID$ = 8						; size = 4
_pdwVID$ = 12						; size = 4
?PartyMemberPIDToVID@CPythonPlayer@@QAE_NKPAK@Z PROC	; CPythonPlayer::PartyMemberPIDToVID, COMDAT
; _this$ = ecx

; 1417 : {

  00000	55		 push	 ebp
  00001	8b ec		 mov	 ebp, esp
  00003	83 ec 0c	 sub	 esp, 12			; 0000000cH
  00006	56		 push	 esi
; File C:\Program Files\Microsoft Visual Studio\2022\Community\VC\Tools\MSVC\14.34.31933\include\xtree

; 1367 :         const _Tree_find_result<_Nodeptr> _Loc = _Find_lower_bound(_Keyval);

  00007	8d 45 08	 lea	 eax, DWORD PTR _dwPID$[ebp]
  0000a	50		 push	 eax
; File E:\Metin2_server\SolWayneSF v6\ClientVS22\source\UserInterface\PythonPlayer.cpp

; 1418 : 	std::map<DWORD, TPartyMemberInfo>::iterator itor = m_PartyMemberMap.find(dwPID);

  0000b	8d b1 34 2e 01
	00		 lea	 esi, DWORD PTR [ecx+77364]
; File C:\Program Files\Microsoft Visual Studio\2022\Community\VC\Tools\MSVC\14.34.31933\include\xtree

; 1367 :         const _Tree_find_result<_Nodeptr> _Loc = _Find_lower_bound(_Keyval);

  00011	8d 45 f4	 lea	 eax, DWORD PTR __Loc$1[ebp]
  00014	8b ce		 mov	 ecx, esi
  00016	50		 push	 eax
  00017	e8 00 00 00 00	 call	 ??$_Find_lower_bound@K@?$_Tree@V?$_Tmap_traits@KUSPartyMemberInfo@CPythonPlayer@@U?$less@K@std@@V?$allocator@U?$pair@$$CBKUSPartyMemberInfo@CPythonPlayer@@@std@@@4@$0A@@std@@@std@@IBE?AU?$_Tree_find_result@PAU?$_Tree_node@U?$pair@$$CBKUSPartyMemberInfo@CPythonPlayer@@@std@@PAX@std@@@1@ABK@Z ; std::_Tree<std::_Tmap_traits<unsigned long,CPythonPlayer::SPartyMemberInfo,std::less<unsigned long>,std::allocator<std::pair<unsigned long const ,CPythonPlayer::SPartyMemberInfo> >,0> >::_Find_lower_bound<unsigned long>

; 1605 :         return !_Bound->_Isnil && !_DEBUG_LT_PRED(_Getcomp(), _Keyval, _Traits::_Kfn(_Bound->_Myval));

  0001c	8b 4d fc	 mov	 ecx, DWORD PTR __Loc$1[ebp+8]
  0001f	80 79 0d 00	 cmp	 BYTE PTR [ecx+13], 0
  00023	75 1d		 jne	 SHORT $LN37@PartyMembe
; File C:\Program Files\Microsoft Visual Studio\2022\Community\VC\Tools\MSVC\14.34.31933\include\xstddef

; 143  :         return _Left < _Right;

  00025	8b 45 08	 mov	 eax, DWORD PTR _dwPID$[ebp]
  00028	3b 41 10	 cmp	 eax, DWORD PTR [ecx+16]
; File C:\Program Files\Microsoft Visual Studio\2022\Community\VC\Tools\MSVC\14.34.31933\include\xtree

; 1605 :         return !_Bound->_Isnil && !_DEBUG_LT_PRED(_Getcomp(), _Keyval, _Traits::_Kfn(_Bound->_Myval));

  0002b	72 15		 jb	 SHORT $LN37@PartyMembe

; 233  :         return this->_Ptr == _Right._Ptr;

  0002d	39 0e		 cmp	 DWORD PTR [esi], ecx
; File E:\Metin2_server\SolWayneSF v6\ClientVS22\source\UserInterface\PythonPlayer.cpp

; 1420 : 	if (m_PartyMemberMap.end() == itor)

  0002f	74 11		 je	 SHORT $LN37@PartyMembe

; 1422 : 
; 1423 : 	const TPartyMemberInfo & c_rPartyMemberInfo = itor->second;
; 1424 : 	*pdwVID = c_rPartyMemberInfo.dwVID;

  00031	8b 45 0c	 mov	 eax, DWORD PTR _pdwVID$[ebp]
  00034	8b 49 14	 mov	 ecx, DWORD PTR [ecx+20]
  00037	5e		 pop	 esi
  00038	89 08		 mov	 DWORD PTR [eax], ecx

; 1425 : 
; 1426 : 	return true;

  0003a	b0 01		 mov	 al, 1

; 1427 : }

  0003c	8b e5		 mov	 esp, ebp
  0003e	5d		 pop	 ebp
  0003f	c2 08 00	 ret	 8
$LN37@PartyMembe:

; 1421 : 		return false;

  00042	32 c0		 xor	 al, al
  00044	5e		 pop	 esi

; 1427 : }

  00045	8b e5		 mov	 esp, ebp
  00047	5d		 pop	 ebp
  00048	c2 08 00	 ret	 8
?PartyMemberPIDToVID@CPythonPlayer@@QAE_NKPAK@Z ENDP	; CPythonPlayer::PartyMemberPIDToVID
_TEXT	ENDS
; Function compile flags: /Ogtp
; File E:\Metin2_server\SolWayneSF v6\ClientVS22\source\UserInterface\PythonPlayer.cpp
;	COMDAT ?UpdatePartyMemberAffect@CPythonPlayer@@QAEXKEF@Z
_TEXT	SEGMENT
_dwPID$ = 8						; size = 4
_pPartyMemberInfo$ = 12					; size = 4
_byAffectSlotIndex$ = 12				; size = 1
_sAffectNumber$ = 16					; size = 2
?UpdatePartyMemberAffect@CPythonPlayer@@QAEXKEF@Z PROC	; CPythonPlayer::UpdatePartyMemberAffect, COMDAT
; _this$ = ecx

; 1342 : {

  00000	55		 push	 ebp
  00001	8b ec		 mov	 ebp, esp

; 1343 : 	if (byAffectSlotIndex >= PARTY_AFFECT_SLOT_MAX_NUM)

  00003	80 7d 0c 07	 cmp	 BYTE PTR _byAffectSlotIndex$[ebp], 7
  00007	56		 push	 esi
  00008	0f b6 75 0c	 movzx	 esi, BYTE PTR _byAffectSlotIndex$[ebp]
  0000c	72 1b		 jb	 SHORT $LN2@UpdatePart

; 1344 : 	{
; 1345 : 		TraceError(" CPythonPlayer::UpdatePartyMemberAffect(dwPID=%d, byAffectSlotIndex=%d, sAffectNumber=%d) - Strange affect slot index", dwPID, byAffectSlotIndex, sAffectNumber);

  0000e	0f bf 45 10	 movsx	 eax, WORD PTR _sAffectNumber$[ebp]
  00012	50		 push	 eax
  00013	56		 push	 esi
  00014	ff 75 08	 push	 DWORD PTR _dwPID$[ebp]
  00017	68 00 00 00 00	 push	 OFFSET ??_C@_0HG@LLGBHOIA@?5CPythonPlayer?3?3UpdatePartyMemb@
  0001c	e8 00 00 00 00	 call	 ?TraceError@@YAXPBDZZ	; TraceError
  00021	83 c4 10	 add	 esp, 16			; 00000010H
  00024	5e		 pop	 esi

; 1357 : }

  00025	5d		 pop	 ebp
  00026	c2 0c 00	 ret	 12			; 0000000cH
$LN2@UpdatePart:

; 1346 : 		return;
; 1347 : 	}
; 1348 : 
; 1349 : 	TPartyMemberInfo * pPartyMemberInfo;
; 1350 : 	if (!GetPartyMemberPtr(dwPID, &pPartyMemberInfo))

  00029	8d 45 0c	 lea	 eax, DWORD PTR _pPartyMemberInfo$[ebp]
  0002c	50		 push	 eax
  0002d	ff 75 08	 push	 DWORD PTR _dwPID$[ebp]
  00030	e8 00 00 00 00	 call	 ?GetPartyMemberPtr@CPythonPlayer@@QAE_NKPAPAUSPartyMemberInfo@1@@Z ; CPythonPlayer::GetPartyMemberPtr
  00035	84 c0		 test	 al, al
  00037	75 1b		 jne	 SHORT $LN3@UpdatePart

; 1351 : 	{
; 1352 : 		TraceError(" CPythonPlayer::UpdatePartyMemberAffect(dwPID=%d, byAffectSlotIndex=%d, sAffectNumber=%d) - Failed to find character", dwPID, byAffectSlotIndex, sAffectNumber);

  00039	0f bf 45 10	 movsx	 eax, WORD PTR _sAffectNumber$[ebp]
  0003d	50		 push	 eax
  0003e	56		 push	 esi
  0003f	ff 75 08	 push	 DWORD PTR _dwPID$[ebp]
  00042	68 00 00 00 00	 push	 OFFSET ??_C@_0HF@NJGIGGLI@?5CPythonPlayer?3?3UpdatePartyMemb@
  00047	e8 00 00 00 00	 call	 ?TraceError@@YAXPBDZZ	; TraceError
  0004c	83 c4 10	 add	 esp, 16			; 00000010H
  0004f	5e		 pop	 esi

; 1357 : }

  00050	5d		 pop	 ebp
  00051	c2 0c 00	 ret	 12			; 0000000cH
$LN3@UpdatePart:

; 1353 : 		return;
; 1354 : 	}
; 1355 : 
; 1356 : 	pPartyMemberInfo->sAffects[byAffectSlotIndex] = sAffectNumber;

  00054	8b 45 0c	 mov	 eax, DWORD PTR _pPartyMemberInfo$[ebp]
  00057	66 8b 4d 10	 mov	 cx, WORD PTR _sAffectNumber$[ebp]
  0005b	66 89 4c 70 22	 mov	 WORD PTR [eax+esi*2+34], cx
  00060	5e		 pop	 esi

; 1357 : }

  00061	5d		 pop	 ebp
  00062	c2 0c 00	 ret	 12			; 0000000cH
?UpdatePartyMemberAffect@CPythonPlayer@@QAEXKEF@Z ENDP	; CPythonPlayer::UpdatePartyMemberAffect
_TEXT	ENDS
; Function compile flags: /Ogtp
; File E:\Metin2_server\SolWayneSF v6\ClientVS22\source\UserInterface\PythonPlayer.cpp
;	COMDAT ?UpdatePartyMemberInfo@CPythonPlayer@@QAEXKEE@Z
_TEXT	SEGMENT
_pPartyMemberInfo$ = -4					; size = 4
_dwPID$ = 8						; size = 4
_byState$ = 12						; size = 1
_byHPPercentage$ = 16					; size = 1
?UpdatePartyMemberInfo@CPythonPlayer@@QAEXKEE@Z PROC	; CPythonPlayer::UpdatePartyMemberInfo, COMDAT
; _this$ = ecx

; 1329 : {

  00000	55		 push	 ebp
  00001	8b ec		 mov	 ebp, esp
  00003	51		 push	 ecx

; 1330 : 	TPartyMemberInfo * pPartyMemberInfo;
; 1331 : 	if (!GetPartyMemberPtr(dwPID, &pPartyMemberInfo))

  00004	8d 45 fc	 lea	 eax, DWORD PTR _pPartyMemberInfo$[ebp]
  00007	50		 push	 eax
  00008	ff 75 08	 push	 DWORD PTR _dwPID$[ebp]
  0000b	e8 00 00 00 00	 call	 ?GetPartyMemberPtr@CPythonPlayer@@QAE_NKPAPAUSPartyMemberInfo@1@@Z ; CPythonPlayer::GetPartyMemberPtr
  00010	84 c0		 test	 al, al
  00012	75 20		 jne	 SHORT $LN2@UpdatePart

; 1332 : 	{
; 1333 : 		TraceError(" CPythonPlayer::UpdatePartyMemberInfo(dwPID=%d, byState=%d, byHPPercentage=%d) - Failed to find character", dwPID, byState, byHPPercentage);

  00014	0f b6 45 10	 movzx	 eax, BYTE PTR _byHPPercentage$[ebp]
  00018	50		 push	 eax
  00019	0f b6 45 0c	 movzx	 eax, BYTE PTR _byState$[ebp]
  0001d	50		 push	 eax
  0001e	ff 75 08	 push	 DWORD PTR _dwPID$[ebp]
  00021	68 00 00 00 00	 push	 OFFSET ??_C@_0GK@FIFNELKC@?5CPythonPlayer?3?3UpdatePartyMemb@
  00026	e8 00 00 00 00	 call	 ?TraceError@@YAXPBDZZ	; TraceError
  0002b	83 c4 10	 add	 esp, 16			; 00000010H

; 1339 : }

  0002e	8b e5		 mov	 esp, ebp
  00030	5d		 pop	 ebp
  00031	c2 0c 00	 ret	 12			; 0000000cH
$LN2@UpdatePart:

; 1334 : 		return;
; 1335 : 	}
; 1336 : 
; 1337 : 	pPartyMemberInfo->byState = byState;

  00034	8b 4d fc	 mov	 ecx, DWORD PTR _pPartyMemberInfo$[ebp]
  00037	8a 45 0c	 mov	 al, BYTE PTR _byState$[ebp]
  0003a	88 41 20	 mov	 BYTE PTR [ecx+32], al

; 1338 : 	pPartyMemberInfo->byHPPercentage = byHPPercentage;

  0003d	8a 45 10	 mov	 al, BYTE PTR _byHPPercentage$[ebp]
  00040	88 41 21	 mov	 BYTE PTR [ecx+33], al

; 1339 : }

  00043	8b e5		 mov	 esp, ebp
  00045	5d		 pop	 ebp
  00046	c2 0c 00	 ret	 12			; 0000000cH
?UpdatePartyMemberInfo@CPythonPlayer@@QAEXKEE@Z ENDP	; CPythonPlayer::UpdatePartyMemberInfo
_TEXT	ENDS
; Function compile flags: /Ogtp
; File E:\Metin2_server\SolWayneSF v6\ClientVS22\source\UserInterface\PythonPlayer.cpp
; File E:\Metin2_server\SolWayneSF v6\ClientVS22\source\UserInterface\PythonPlayer.h
; File C:\Program Files\Microsoft Visual Studio\2022\Community\VC\Tools\MSVC\14.34.31933\include\xstring
; File E:\Metin2_server\SolWayneSF v6\ClientVS22\source\UserInterface\PythonPlayer.cpp
; File E:\Metin2_server\SolWayneSF v6\ClientVS22\source\UserInterface\PythonPlayer.h
; File C:\Program Files\Microsoft Visual Studio\2022\Community\VC\Tools\MSVC\14.34.31933\include\xstring
; File C:\Program Files\Microsoft Visual Studio\2022\Community\VC\Tools\MSVC\14.34.31933\include\utility
; File E:\Metin2_server\SolWayneSF v6\ClientVS22\source\UserInterface\PythonPlayer.cpp
; File C:\Program Files\Microsoft Visual Studio\2022\Community\VC\Tools\MSVC\14.34.31933\include\utility
; File C:\Program Files\Microsoft Visual Studio\2022\Community\VC\Tools\MSVC\14.34.31933\include\map
; File E:\Metin2_server\SolWayneSF v6\ClientVS22\source\UserInterface\PythonPlayer.cpp
; File C:\Program Files\Microsoft Visual Studio\2022\Community\VC\Tools\MSVC\14.34.31933\include\map
; File C:\Program Files\Microsoft Visual Studio\2022\Community\VC\Tools\MSVC\14.34.31933\include\xstring
; File C:\Program Files\Microsoft Visual Studio\2022\Community\VC\Tools\MSVC\14.34.31933\include\xmemory
; File C:\Program Files\Microsoft Visual Studio\2022\Community\VC\Tools\MSVC\14.34.31933\include\xstring
; File C:\Program Files\Microsoft Visual Studio\2022\Community\VC\Tools\MSVC\14.34.31933\include\xmemory
; File C:\Program Files\Microsoft Visual Studio\2022\Community\VC\Tools\MSVC\14.34.31933\include\xstring
; File C:\Program Files\Microsoft Visual Studio\2022\Community\VC\Tools\MSVC\14.34.31933\include\xmemory
; File C:\Program Files\Microsoft Visual Studio\2022\Community\VC\Tools\MSVC\14.34.31933\include\xstring
; File C:\Program Files\Microsoft Visual Studio\2022\Community\VC\Tools\MSVC\14.34.31933\include\xmemory
; File E:\Metin2_server\SolWayneSF v6\ClientVS22\source\UserInterface\PythonPlayer.cpp
; File C:\Program Files\Microsoft Visual Studio\2022\Community\VC\Tools\MSVC\14.34.31933\include\xmemory
; File E:\Metin2_server\SolWayneSF v6\ClientVS22\source\UserInterface\PythonPlayer.cpp
;	COMDAT ?AppendPartyMember@CPythonPlayer@@QAEXKPBD@Z
_TEXT	SEGMENT
$T2 = -132						; size = 8
tv684 = -124						; size = 4
tv84 = -124						; size = 4
$T3 = -120						; size = 52
$T4 = -68						; size = 48
__$ArrayPad$ = -20					; size = 4
__$EHRec$ = -12						; size = 12
_dwPID$ = 8						; size = 4
_c_szName$ = 12						; size = 4
?AppendPartyMember@CPythonPlayer@@QAEXKPBD@Z PROC	; CPythonPlayer::AppendPartyMember, COMDAT
; _this$ = ecx

; 1292 : {

  00000	53		 push	 ebx
  00001	8b dc		 mov	 ebx, esp
  00003	83 ec 08	 sub	 esp, 8
  00006	83 e4 f8	 and	 esp, -8			; fffffff8H
  00009	83 c4 04	 add	 esp, 4
  0000c	55		 push	 ebp
  0000d	8b 6b 04	 mov	 ebp, DWORD PTR [ebx+4]
  00010	89 6c 24 04	 mov	 DWORD PTR [esp+4], ebp
  00014	8b ec		 mov	 ebp, esp
  00016	6a ff		 push	 -1
  00018	68 00 00 00 00	 push	 __ehhandler$?AppendPartyMember@CPythonPlayer@@QAEXKPBD@Z
  0001d	64 a1 00 00 00
	00		 mov	 eax, DWORD PTR fs:0
  00023	50		 push	 eax
  00024	53		 push	 ebx
  00025	83 ec 78	 sub	 esp, 120		; 00000078H
  00028	a1 00 00 00 00	 mov	 eax, DWORD PTR ___security_cookie
  0002d	33 c5		 xor	 eax, ebp
  0002f	89 45 ec	 mov	 DWORD PTR __$ArrayPad$[ebp], eax
  00032	56		 push	 esi
  00033	57		 push	 edi
  00034	50		 push	 eax
  00035	8d 45 f4	 lea	 eax, DWORD PTR __$EHRec$[ebp]
  00038	64 a3 00 00 00
	00		 mov	 DWORD PTR fs:0, eax
  0003e	8b 73 0c	 mov	 esi, DWORD PTR _c_szName$[ebx]

; 1293 : 	m_PartyMemberMap.insert(std::make_pair(dwPID, TPartyMemberInfo(dwPID, c_szName)));

  00041	8d 81 34 2e 01
	00		 lea	 eax, DWORD PTR [ecx+77364]
; File E:\Metin2_server\SolWayneSF v6\ClientVS22\source\UserInterface\PythonPlayer.h

; 133  : 			SPartyMemberInfo(DWORD _dwPID, const char * c_szName) : dwPID(_dwPID), strName(c_szName), dwVID(0) {}

  00047	8b 7b 08	 mov	 edi, DWORD PTR _dwPID$[ebx]
; File C:\Program Files\Microsoft Visual Studio\2022\Community\VC\Tools\MSVC\14.34.31933\include\xstring

; 415  :             return __builtin_strlen(_First);

  0004a	8b ce		 mov	 ecx, esi
  0004c	0f 57 c0	 xorps	 xmm0, xmm0
; File E:\Metin2_server\SolWayneSF v6\ClientVS22\source\UserInterface\PythonPlayer.cpp

; 1293 : 	m_PartyMemberMap.insert(std::make_pair(dwPID, TPartyMemberInfo(dwPID, c_szName)));

  0004f	89 45 84	 mov	 DWORD PTR tv684[ebp], eax
; File E:\Metin2_server\SolWayneSF v6\ClientVS22\source\UserInterface\PythonPlayer.h

; 133  : 			SPartyMemberInfo(DWORD _dwPID, const char * c_szName) : dwPID(_dwPID), strName(c_szName), dwVID(0) {}

  00052	c7 45 bc 00 00
	00 00		 mov	 DWORD PTR $T4[ebp], 0
  00059	89 7d c0	 mov	 DWORD PTR $T4[ebp+4], edi
; File C:\Program Files\Microsoft Visual Studio\2022\Community\VC\Tools\MSVC\14.34.31933\include\xstring

; 2339 :         _CONSTEXPR20 _Bxty() noexcept : _Buf() {} // user-provided, for fancy pointers

  0005c	0f 11 45 c4	 movups	 XMMWORD PTR $T4[ebp+8], xmm0

; 2348 :     size_type _Mysize = 0; // current length of string

  00060	c7 45 d4 00 00
	00 00		 mov	 DWORD PTR $T4[ebp+24], 0

; 415  :             return __builtin_strlen(_First);

  00067	8d 51 01	 lea	 edx, DWORD PTR [ecx+1]

; 2349 :     size_type _Myres  = 0; // current storage reserved for string

  0006a	c7 45 d8 00 00
	00 00		 mov	 DWORD PTR $T4[ebp+28], 0
$LL196@AppendPart:

; 415  :             return __builtin_strlen(_First);

  00071	8a 01		 mov	 al, BYTE PTR [ecx]
  00073	41		 inc	 ecx
  00074	84 c0		 test	 al, al
  00076	75 f9		 jne	 SHORT $LL196@AppendPart
  00078	2b ca		 sub	 ecx, edx

; 2674 :         _Construct<_Construct_strategy::_From_ptr>(_Ptr, _Convert_size<size_type>(_Traits::length(_Ptr)));

  0007a	51		 push	 ecx
  0007b	56		 push	 esi
  0007c	8d 4d c4	 lea	 ecx, DWORD PTR $T4[ebp+8]
  0007f	e8 00 00 00 00	 call	 ??$_Construct@$00PBD@?$basic_string@DU?$char_traits@D@std@@V?$allocator@D@2@@std@@AAEXQBDI@Z ; std::basic_string<char,std::char_traits<char>,std::allocator<char> >::_Construct<1,char const *>
; File C:\Program Files\Microsoft Visual Studio\2022\Community\VC\Tools\MSVC\14.34.31933\include\utility

; 172  :         : first(_STD forward<_Other1>(_Val1)), second(_STD forward<_Other2>(_Val2)) {

  00084	8d 45 bc	 lea	 eax, DWORD PTR $T4[ebp]
; File E:\Metin2_server\SolWayneSF v6\ClientVS22\source\UserInterface\PythonPlayer.cpp

; 1293 : 	m_PartyMemberMap.insert(std::make_pair(dwPID, TPartyMemberInfo(dwPID, c_szName)));

  00087	c7 45 fc 00 00
	00 00		 mov	 DWORD PTR __$EHRec$[ebp+8], 0
; File C:\Program Files\Microsoft Visual Studio\2022\Community\VC\Tools\MSVC\14.34.31933\include\utility

; 172  :         : first(_STD forward<_Other1>(_Val1)), second(_STD forward<_Other2>(_Val2)) {

  0008e	50		 push	 eax
  0008f	8d 4d 8c	 lea	 ecx, DWORD PTR $T3[ebp+4]
  00092	89 7d 88	 mov	 DWORD PTR $T3[ebp], edi
  00095	e8 00 00 00 00	 call	 ??0SPartyMemberInfo@CPythonPlayer@@QAE@$$QAU01@@Z
; File C:\Program Files\Microsoft Visual Studio\2022\Community\VC\Tools\MSVC\14.34.31933\include\map

; 185  :         return this->emplace(_STD forward<_Valty>(_Val));

  0009a	8b 4d 84	 mov	 ecx, DWORD PTR tv684[ebp]
  0009d	8d 45 88	 lea	 eax, DWORD PTR $T3[ebp]
  000a0	50		 push	 eax
  000a1	8d 85 7c ff ff
	ff		 lea	 eax, DWORD PTR $T2[ebp]
; File E:\Metin2_server\SolWayneSF v6\ClientVS22\source\UserInterface\PythonPlayer.cpp

; 1293 : 	m_PartyMemberMap.insert(std::make_pair(dwPID, TPartyMemberInfo(dwPID, c_szName)));

  000a7	c6 45 fc 01	 mov	 BYTE PTR __$EHRec$[ebp+8], 1
; File C:\Program Files\Microsoft Visual Studio\2022\Community\VC\Tools\MSVC\14.34.31933\include\map

; 185  :         return this->emplace(_STD forward<_Valty>(_Val));

  000ab	50		 push	 eax
  000ac	e8 00 00 00 00	 call	 ??$emplace@U?$pair@KUSPartyMemberInfo@CPythonPlayer@@@std@@@?$_Tree@V?$_Tmap_traits@KUSPartyMemberInfo@CPythonPlayer@@U?$less@K@std@@V?$allocator@U?$pair@$$CBKUSPartyMemberInfo@CPythonPlayer@@@std@@@4@$0A@@std@@@std@@QAE?AU?$pair@V?$_Tree_iterator@V?$_Tree_val@U?$_Tree_simple_types@U?$pair@$$CBKUSPartyMemberInfo@CPythonPlayer@@@std@@@std@@@std@@@std@@_N@1@$$QAU?$pair@KUSPartyMemberInfo@CPythonPlayer@@@1@@Z ; std::_Tree<std::_Tmap_traits<unsigned long,CPythonPlayer::SPartyMemberInfo,std::less<unsigned long>,std::allocator<std::pair<unsigned long const ,CPythonPlayer::SPartyMemberInfo> >,0> >::emplace<std::pair<unsigned long,CPythonPlayer::SPartyMemberInfo> >
; File C:\Program Files\Microsoft Visual Studio\2022\Community\VC\Tools\MSVC\14.34.31933\include\xstring

; 2301 :         return _BUF_SIZE <= _Myres;

  000b1	8b 4d a8	 mov	 ecx, DWORD PTR $T3[ebp+32]
  000b4	83 f9 10	 cmp	 ecx, 16			; 00000010H

; 5008 :         if (_My_data._Large_string_engaged()) {

  000b7	72 28		 jb	 SHORT $LN143@AppendPart
; File C:\Program Files\Microsoft Visual Studio\2022\Community\VC\Tools\MSVC\14.34.31933\include\xmemory

; 830  :         _Deallocate<_New_alignof<_Ty>>(_Ptr, sizeof(_Ty) * _Count);

  000b9	8b 55 94	 mov	 edx, DWORD PTR $T3[ebp+12]
; File C:\Program Files\Microsoft Visual Studio\2022\Community\VC\Tools\MSVC\14.34.31933\include\xstring

; 5013 :             _Al.deallocate(_Ptr, _My_data._Myres + 1);

  000bc	41		 inc	 ecx
; File C:\Program Files\Microsoft Visual Studio\2022\Community\VC\Tools\MSVC\14.34.31933\include\xmemory

; 830  :         _Deallocate<_New_alignof<_Ty>>(_Ptr, sizeof(_Ty) * _Count);

  000bd	8b c2		 mov	 eax, edx

; 251  :         if (_Bytes >= _Big_allocation_threshold) { // boost the alignment of big allocations to help autovectorization

  000bf	81 f9 00 10 00
	00		 cmp	 ecx, 4096		; 00001000H
  000c5	72 10		 jb	 SHORT $LN155@AppendPart

; 150  :     const uintptr_t _Ptr_container   = _Ptr_user[-1];

  000c7	8b 50 fc	 mov	 edx, DWORD PTR [eax-4]
  000ca	83 c1 23	 add	 ecx, 35			; 00000023H
  000cd	2b c2		 sub	 eax, edx

; 164  :     _STL_VERIFY(_Back_shift >= _Min_back_shift && _Back_shift <= _Non_user_size, "invalid argument");

  000cf	83 c0 fc	 add	 eax, -4			; fffffffcH
  000d2	83 f8 1f	 cmp	 eax, 31			; 0000001fH
  000d5	77 74		 ja	 SHORT $LN187@AppendPart
$LN155@AppendPart:

; 255  :         ::operator delete(_Ptr, _Bytes);

  000d7	51		 push	 ecx
  000d8	52		 push	 edx
  000d9	e8 00 00 00 00	 call	 ??3@YAXPAXI@Z		; operator delete
  000de	83 c4 08	 add	 esp, 8
$LN143@AppendPart:
; File C:\Program Files\Microsoft Visual Studio\2022\Community\VC\Tools\MSVC\14.34.31933\include\xstring

; 2301 :         return _BUF_SIZE <= _Myres;

  000e1	8b 4d d8	 mov	 ecx, DWORD PTR $T4[ebp+28]
  000e4	83 f9 10	 cmp	 ecx, 16			; 00000010H

; 5008 :         if (_My_data._Large_string_engaged()) {

  000e7	72 28		 jb	 SHORT $LN178@AppendPart
; File C:\Program Files\Microsoft Visual Studio\2022\Community\VC\Tools\MSVC\14.34.31933\include\xmemory

; 830  :         _Deallocate<_New_alignof<_Ty>>(_Ptr, sizeof(_Ty) * _Count);

  000e9	8b 55 c4	 mov	 edx, DWORD PTR $T4[ebp+8]
; File C:\Program Files\Microsoft Visual Studio\2022\Community\VC\Tools\MSVC\14.34.31933\include\xstring

; 5013 :             _Al.deallocate(_Ptr, _My_data._Myres + 1);

  000ec	41		 inc	 ecx
; File C:\Program Files\Microsoft Visual Studio\2022\Community\VC\Tools\MSVC\14.34.31933\include\xmemory

; 830  :         _Deallocate<_New_alignof<_Ty>>(_Ptr, sizeof(_Ty) * _Count);

  000ed	8b c2		 mov	 eax, edx

; 251  :         if (_Bytes >= _Big_allocation_threshold) { // boost the alignment of big allocations to help autovectorization

  000ef	81 f9 00 10 00
	00		 cmp	 ecx, 4096		; 00001000H
  000f5	72 10		 jb	 SHORT $LN190@AppendPart

; 150  :     const uintptr_t _Ptr_container   = _Ptr_user[-1];

  000f7	8b 50 fc	 mov	 edx, DWORD PTR [eax-4]
  000fa	83 c1 23	 add	 ecx, 35			; 00000023H
  000fd	2b c2		 sub	 eax, edx

; 164  :     _STL_VERIFY(_Back_shift >= _Min_back_shift && _Back_shift <= _Non_user_size, "invalid argument");

  000ff	83 c0 fc	 add	 eax, -4			; fffffffcH
  00102	83 f8 1f	 cmp	 eax, 31			; 0000001fH
  00105	77 44		 ja	 SHORT $LN187@AppendPart
$LN190@AppendPart:

; 255  :         ::operator delete(_Ptr, _Bytes);

  00107	51		 push	 ecx
  00108	52		 push	 edx
  00109	e8 00 00 00 00	 call	 ??3@YAXPAXI@Z		; operator delete
  0010e	83 c4 08	 add	 esp, 8
$LN178@AppendPart:
; File E:\Metin2_server\SolWayneSF v6\ClientVS22\source\UserInterface\PythonPlayer.cpp

; 1295 : 	if (strlen(c_szName) == 0) // offline

  00111	8d 4e 01	 lea	 ecx, DWORD PTR [esi+1]
$LL197@AppendPart:
  00114	8a 06		 mov	 al, BYTE PTR [esi]
  00116	46		 inc	 esi
  00117	84 c0		 test	 al, al
  00119	75 f9		 jne	 SHORT $LL197@AppendPart
  0011b	2b f1		 sub	 esi, ecx
  0011d	75 0c		 jne	 SHORT $LN2@AppendPart

; 1296 : 		CPythonMiniMap::Instance().RemovePartyPositionInfo(dwPID);

  0011f	8b 0d 00 00 00
	00		 mov	 ecx, DWORD PTR ?ms_singleton@?$CSingleton@VCPythonMiniMap@@@@0PAVCPythonMiniMap@@A ; CSingleton<CPythonMiniMap>::ms_singleton
  00125	57		 push	 edi
  00126	e8 00 00 00 00	 call	 ?RemovePartyPositionInfo@CPythonMiniMap@@QAEXK@Z ; CPythonMiniMap::RemovePartyPositionInfo
$LN2@AppendPart:

; 1298 : }

  0012b	8b 4d f4	 mov	 ecx, DWORD PTR __$EHRec$[ebp]
  0012e	64 89 0d 00 00
	00 00		 mov	 DWORD PTR fs:0, ecx
  00135	59		 pop	 ecx
  00136	5f		 pop	 edi
  00137	5e		 pop	 esi
  00138	8b 4d ec	 mov	 ecx, DWORD PTR __$ArrayPad$[ebp]
  0013b	33 cd		 xor	 ecx, ebp
  0013d	e8 00 00 00 00	 call	 @__security_check_cookie@4
  00142	8b e5		 mov	 esp, ebp
  00144	5d		 pop	 ebp
  00145	8b e3		 mov	 esp, ebx
  00147	5b		 pop	 ebx
  00148	c2 08 00	 ret	 8
$LN187@AppendPart:
; File C:\Program Files\Microsoft Visual Studio\2022\Community\VC\Tools\MSVC\14.34.31933\include\xmemory

; 164  :     _STL_VERIFY(_Back_shift >= _Min_back_shift && _Back_shift <= _Non_user_size, "invalid argument");

  0014b	e8 00 00 00 00	 call	 __invalid_parameter_noinfo_noreturn
$LN199@AppendPart:
  00150	cc		 int	 3
_TEXT	ENDS
;	COMDAT text$x
text$x	SEGMENT
__unwindfunclet$?AppendPartyMember@CPythonPlayer@@QAEXKPBD@Z$0:
  00000	8d 4d bc	 lea	 ecx, DWORD PTR $T4[ebp]
  00003	e9 00 00 00 00	 jmp	 ??1SPartyMemberInfo@CPythonPlayer@@QAE@XZ
__unwindfunclet$?AppendPartyMember@CPythonPlayer@@QAEXKPBD@Z$1:
  00008	8d 4d 88	 lea	 ecx, DWORD PTR $T3[ebp]
  0000b	e9 00 00 00 00	 jmp	 ??1?$pair@KUSPartyMemberInfo@CPythonPlayer@@@std@@QAE@XZ
  00010	cc		 int	 3
  00011	cc		 int	 3
  00012	cc		 int	 3
  00013	cc		 int	 3
  00014	cc		 int	 3
__ehhandler$?AppendPartyMember@CPythonPlayer@@QAEXKPBD@Z:
  00015	90		 npad	 1
  00016	90		 npad	 1
  00017	8b 54 24 08	 mov	 edx, DWORD PTR [esp+8]
  0001b	8d 42 0c	 lea	 eax, DWORD PTR [edx+12]
  0001e	8b 8a 78 ff ff
	ff		 mov	 ecx, DWORD PTR [edx-136]
  00024	33 c8		 xor	 ecx, eax
  00026	e8 00 00 00 00	 call	 @__security_check_cookie@4
  0002b	8b 4a f8	 mov	 ecx, DWORD PTR [edx-8]
  0002e	33 c8		 xor	 ecx, eax
  00030	e8 00 00 00 00	 call	 @__security_check_cookie@4
  00035	b8 00 00 00 00	 mov	 eax, OFFSET __ehfuncinfo$?AppendPartyMember@CPythonPlayer@@QAEXKPBD@Z
  0003a	e9 00 00 00 00	 jmp	 ___CxxFrameHandler3
text$x	ENDS
?AppendPartyMember@CPythonPlayer@@QAEXKPBD@Z ENDP	; CPythonPlayer::AppendPartyMember
; Function compile flags: /Ogtp
; File E:\Metin2_server\SolWayneSF v6\ClientVS22\source\UserInterface\PythonPlayer.cpp
;	COMDAT ?SetSkillLevel_@CPythonPlayer@@QAEXKKK@Z
_TEXT	SEGMENT
_dwSlotIndex$ = -4					; size = 4
_dwSkillIndex$ = 8					; size = 4
_dwSkillGrade$ = 12					; size = 4
_dwSkillLevel$ = 16					; size = 4
?SetSkillLevel_@CPythonPlayer@@QAEXKKK@Z PROC		; CPythonPlayer::SetSkillLevel_, COMDAT
; _this$ = ecx

; 994  : {

  00000	55		 push	 ebp
  00001	8b ec		 mov	 ebp, esp
  00003	51		 push	 ecx
  00004	56		 push	 esi

; 995  : 	DWORD dwSlotIndex;
; 996  : 	if (!GetSkillSlotIndex(dwSkillIndex, &dwSlotIndex))

  00005	8d 45 fc	 lea	 eax, DWORD PTR _dwSlotIndex$[ebp]
  00008	8b f1		 mov	 esi, ecx
  0000a	50		 push	 eax
  0000b	ff 75 08	 push	 DWORD PTR _dwSkillIndex$[ebp]
  0000e	e8 00 00 00 00	 call	 ?GetSkillSlotIndex@CPythonPlayer@@QAE_NKPAK@Z ; CPythonPlayer::GetSkillSlotIndex
  00013	84 c0		 test	 al, al
  00015	0f 84 d3 00 00
	00		 je	 $LN1@SetSkillLe

; 997  : 		return;
; 998  : 
; 999  : 	if (dwSlotIndex >= SKILL_MAX_NUM)

  0001b	8b 55 fc	 mov	 edx, DWORD PTR _dwSlotIndex$[ebp]
  0001e	81 fa ff 00 00
	00		 cmp	 edx, 255		; 000000ffH
  00024	0f 83 c4 00 00
	00		 jae	 $LN1@SetSkillLe

; 1000 : 		return;
; 1001 : 
; 1002 : 	switch (dwSkillGrade)

  0002a	53		 push	 ebx
  0002b	8b 5d 0c	 mov	 ebx, DWORD PTR _dwSkillGrade$[ebp]
  0002e	57		 push	 edi
  0002f	8b 7d 10	 mov	 edi, DWORD PTR _dwSkillLevel$[ebp]
  00032	83 fb 04	 cmp	 ebx, 4
  00035	77 3d		 ja	 SHORT $LN2@SetSkillLe
  00037	ff 24 9d 00 00
	00 00		 jmp	 DWORD PTR $LN13@SetSkillLe[ebx*4]
$LN6@SetSkillLe:

; 1003 : 	{
; 1004 : 		case 0:
; 1005 : 			m_playerStatus.aSkill[dwSlotIndex].iGrade = dwSkillGrade;

  0003e	8d 04 92	 lea	 eax, DWORD PTR [edx+edx*4]
  00041	89 9c c6 1c fe
	00 00		 mov	 DWORD PTR [esi+eax*8+65052], ebx

; 1006 : 			m_playerStatus.aSkill[dwSlotIndex].iLevel = dwSkillLevel;

  00048	89 bc c6 20 fe
	00 00		 mov	 DWORD PTR [esi+eax*8+65056], edi

; 1007 : 			break;

  0004f	eb 23		 jmp	 SHORT $LN2@SetSkillLe
$LN7@SetSkillLe:

; 1008 : 		case 1:
; 1009 : 			m_playerStatus.aSkill[dwSlotIndex].iGrade = dwSkillGrade;
; 1010 : 			m_playerStatus.aSkill[dwSlotIndex].iLevel = dwSkillLevel-20+1;

  00051	8d 47 ed	 lea	 eax, DWORD PTR [edi-19]

; 1011 : 			break;

  00054	eb 0d		 jmp	 SHORT $LN15@SetSkillLe
$LN8@SetSkillLe:

; 1012 : 		case 2:
; 1013 : 			m_playerStatus.aSkill[dwSlotIndex].iGrade = dwSkillGrade;
; 1014 : 			m_playerStatus.aSkill[dwSlotIndex].iLevel = dwSkillLevel-30+1;

  00056	8d 47 e3	 lea	 eax, DWORD PTR [edi-29]

; 1015 : 			break;

  00059	eb 08		 jmp	 SHORT $LN15@SetSkillLe
$LN9@SetSkillLe:

; 1016 : 		case 3:
; 1017 : 			m_playerStatus.aSkill[dwSlotIndex].iGrade = dwSkillGrade;
; 1018 : 			m_playerStatus.aSkill[dwSlotIndex].iLevel = dwSkillLevel-40+1;

  0005b	8d 47 d9	 lea	 eax, DWORD PTR [edi-39]

; 1019 : 			break;

  0005e	eb 03		 jmp	 SHORT $LN15@SetSkillLe
$LN10@SetSkillLe:

; 1020 : #ifdef ENABLE_SKILLS_LEVEL_OVER_P
; 1021 : 		case 4:
; 1022 : 			m_playerStatus.aSkill[dwSlotIndex].iGrade = dwSkillGrade;
; 1023 : 			m_playerStatus.aSkill[dwSlotIndex].iLevel = dwSkillLevel-50+1;

  00060	8d 47 cf	 lea	 eax, DWORD PTR [edi-49]
$LN15@SetSkillLe:

; 1024 : 			break;
; 1025 : #endif
; 1026 : 	}
; 1027 : 	
; 1028 : #ifdef ENABLE_SKILLS_LEVEL_OVER_P
; 1029 : 	const DWORD SKILL_MAX_LEVEL = 50;
; 1030 : #else
; 1031 : 	const DWORD SKILL_MAX_LEVEL = 40;
; 1032 : #endif
; 1033 : 	if (dwSkillLevel > SKILL_MAX_LEVEL)

  00063	8d 0c 92	 lea	 ecx, DWORD PTR [edx+edx*4]
  00066	89 9c ce 1c fe
	00 00		 mov	 DWORD PTR [esi+ecx*8+65052], ebx
  0006d	89 84 ce 20 fe
	00 00		 mov	 DWORD PTR [esi+ecx*8+65056], eax
$LN2@SetSkillLe:
  00074	83 ff 32	 cmp	 edi, 50			; 00000032H
  00077	76 31		 jbe	 SHORT $LN11@SetSkillLe

; 1034 : 	{
; 1035 : 		m_playerStatus.aSkill[dwSlotIndex].fcurEfficientPercentage = 0.0f;
; 1036 : 		m_playerStatus.aSkill[dwSlotIndex].fnextEfficientPercentage = 0.0f;
; 1037 : 		TraceError("CPythonPlayer::SetSkillLevel(SlotIndex=%d, SkillLevel=%d)", dwSlotIndex, dwSkillLevel);

  00079	57		 push	 edi
  0007a	8d 04 92	 lea	 eax, DWORD PTR [edx+edx*4]
  0007d	52		 push	 edx
  0007e	c7 84 c6 24 fe
	00 00 00 00 00
	00		 mov	 DWORD PTR [esi+eax*8+65060], 0
  00089	68 00 00 00 00	 push	 OFFSET ??_C@_0DK@OJMDGNKA@CPythonPlayer?3?3SetSkillLevel?$CISl@
  0008e	c7 84 c6 28 fe
	00 00 00 00 00
	00		 mov	 DWORD PTR [esi+eax*8+65064], 0
  00099	e8 00 00 00 00	 call	 ?TraceError@@YAXPBDZZ	; TraceError
  0009e	83 c4 0c	 add	 esp, 12			; 0000000cH
  000a1	5f		 pop	 edi
  000a2	5b		 pop	 ebx
  000a3	5e		 pop	 esi

; 1043 : 
; 1044 : }

  000a4	8b e5		 mov	 esp, ebp
  000a6	5d		 pop	 ebp
  000a7	c2 0c 00	 ret	 12			; 0000000cH
$LN11@SetSkillLe:

; 1038 : 		return;
; 1039 : 	}
; 1040 : 	
; 1041 : 	m_playerStatus.aSkill[dwSlotIndex].fcurEfficientPercentage	= LocaleService_GetSkillPower(dwSkillLevel)/100.0f;

  000aa	8b cf		 mov	 ecx, edi
  000ac	8d 14 92	 lea	 edx, DWORD PTR [edx+edx*4]
  000af	e8 00 00 00 00	 call	 ?LocaleService_GetSkillPower@@YAHI@Z ; LocaleService_GetSkillPower

; 1042 : 	m_playerStatus.aSkill[dwSlotIndex].fnextEfficientPercentage = LocaleService_GetSkillPower(dwSkillLevel+1)/100.0f;

  000b4	8d 4f 01	 lea	 ecx, DWORD PTR [edi+1]
  000b7	66 0f 6e c0	 movd	 xmm0, eax
  000bb	0f 5b c0	 cvtdq2ps xmm0, xmm0
  000be	f3 0f 5e 05 00
	00 00 00	 divss	 xmm0, DWORD PTR __real@42c80000
  000c6	f3 0f 11 84 d6
	24 fe 00 00	 movss	 DWORD PTR [esi+edx*8+65060], xmm0
  000cf	e8 00 00 00 00	 call	 ?LocaleService_GetSkillPower@@YAHI@Z ; LocaleService_GetSkillPower
  000d4	5f		 pop	 edi
  000d5	5b		 pop	 ebx
  000d6	66 0f 6e c0	 movd	 xmm0, eax
  000da	0f 5b c0	 cvtdq2ps xmm0, xmm0
  000dd	f3 0f 5e 05 00
	00 00 00	 divss	 xmm0, DWORD PTR __real@42c80000
  000e5	f3 0f 11 84 d6
	28 fe 00 00	 movss	 DWORD PTR [esi+edx*8+65064], xmm0
$LN1@SetSkillLe:
  000ee	5e		 pop	 esi

; 1043 : 
; 1044 : }

  000ef	8b e5		 mov	 esp, ebp
  000f1	5d		 pop	 ebp
  000f2	c2 0c 00	 ret	 12			; 0000000cH
  000f5	0f 1f 00	 npad	 3
$LN13@SetSkillLe:
  000f8	00 00 00 00	 DD	 $LN6@SetSkillLe
  000fc	00 00 00 00	 DD	 $LN7@SetSkillLe
  00100	00 00 00 00	 DD	 $LN8@SetSkillLe
  00104	00 00 00 00	 DD	 $LN9@SetSkillLe
  00108	00 00 00 00	 DD	 $LN10@SetSkillLe
?SetSkillLevel_@CPythonPlayer@@QAEXKKK@Z ENDP		; CPythonPlayer::SetSkillLevel_
_TEXT	ENDS
; Function compile flags: /Ogtp
; File E:\Metin2_server\SolWayneSF v6\ClientVS22\source\UserInterface\PythonPlayer.cpp
;	COMDAT ?SetSkill@CPythonPlayer@@QAEXKK@Z
_TEXT	SEGMENT
_dwSlotIndex$ = 8					; size = 4
_dwSkillIndex$ = 12					; size = 4
?SetSkill@CPythonPlayer@@QAEXKK@Z PROC			; CPythonPlayer::SetSkill, COMDAT
; _this$ = ecx

; 922  : {

  00000	55		 push	 ebp
  00001	8b ec		 mov	 ebp, esp
  00003	56		 push	 esi

; 923  : 	if (dwSlotIndex >= SKILL_MAX_NUM)

  00004	8b 75 08	 mov	 esi, DWORD PTR _dwSlotIndex$[ebp]
  00007	81 fe ff 00 00
	00		 cmp	 esi, 255		; 000000ffH
  0000d	73 1b		 jae	 SHORT $LN1@SetSkill

; 924  : 		return;
; 925  : 
; 926  : 	m_playerStatus.aSkill[dwSlotIndex].dwIndex = dwSkillIndex;

  0000f	8b 45 0c	 mov	 eax, DWORD PTR _dwSkillIndex$[ebp]
  00012	8d 14 b6	 lea	 edx, DWORD PTR [esi+esi*4]
  00015	89 84 d1 14 fe
	00 00		 mov	 DWORD PTR [ecx+edx*8+65044], eax

; 927  : 	m_skillSlotDict[dwSkillIndex] = dwSlotIndex;

  0001c	8d 45 0c	 lea	 eax, DWORD PTR _dwSkillIndex$[ebp]
  0001f	50		 push	 eax
  00020	83 c1 0c	 add	 ecx, 12			; 0000000cH
  00023	e8 00 00 00 00	 call	 ??A?$map@KKU?$less@K@std@@V?$allocator@U?$pair@$$CBKK@std@@@2@@std@@QAEAAKABK@Z ; std::map<unsigned long,unsigned long,std::less<unsigned long>,std::allocator<std::pair<unsigned long const ,unsigned long> > >::operator[]
  00028	89 30		 mov	 DWORD PTR [eax], esi
$LN1@SetSkill:

; 928  : }

  0002a	5e		 pop	 esi
  0002b	5d		 pop	 ebp
  0002c	c2 08 00	 ret	 8
?SetSkill@CPythonPlayer@@QAEXKK@Z ENDP			; CPythonPlayer::SetSkill
_TEXT	ENDS
; Function compile flags: /Ogtp
; File E:\Metin2_server\SolWayneSF v6\ClientVS22\source\UserInterface\PythonPlayer.cpp
;	COMDAT ?SetSkillLevel@CPythonPlayer@@QAEXKK@Z
_TEXT	SEGMENT
_dwSlotIndex$ = 8					; size = 4
_dwSkillLevel$ = 12					; size = 4
?SetSkillLevel@CPythonPlayer@@QAEXKK@Z PROC		; CPythonPlayer::SetSkillLevel, COMDAT
; _this$ = ecx

; 984  : {

  00000	55		 push	 ebp
  00001	8b ec		 mov	 ebp, esp

; 985  : 	assert(!"CPythonPlayer::SetSkillLevel -   ");
; 986  : 	if (dwSlotIndex >= SKILL_MAX_NUM)

  00003	8b 45 08	 mov	 eax, DWORD PTR _dwSlotIndex$[ebp]
  00006	3d ff 00 00 00	 cmp	 eax, 255		; 000000ffH
  0000b	73 19		 jae	 SHORT $LN1@SetSkillLe

; 987  : 		return;
; 988  : 
; 989  : 	m_playerStatus.aSkill[dwSlotIndex].iGrade = -1;

  0000d	8d 04 80	 lea	 eax, DWORD PTR [eax+eax*4]
  00010	8d 0c c1	 lea	 ecx, DWORD PTR [ecx+eax*8]

; 990  : 	m_playerStatus.aSkill[dwSlotIndex].iLevel = dwSkillLevel;

  00013	8b 45 0c	 mov	 eax, DWORD PTR _dwSkillLevel$[ebp]
  00016	c7 81 1c fe 00
	00 ff ff ff ff	 mov	 DWORD PTR [ecx+65052], -1
  00020	89 81 20 fe 00
	00		 mov	 DWORD PTR [ecx+65056], eax
$LN1@SetSkillLe:

; 991  : }

  00026	5d		 pop	 ebp
  00027	c2 08 00	 ret	 8
?SetSkillLevel@CPythonPlayer@@QAEXKK@Z ENDP		; CPythonPlayer::SetSkillLevel
_TEXT	ENDS
; Function compile flags: /Ogtp
; File E:\Metin2_server\SolWayneSF v6\ClientVS22\source\UserInterface\PythonPlayer.cpp
; File C:\Program Files\Microsoft Visual Studio\2022\Community\VC\Tools\MSVC\14.34.31933\include\xtree
; File E:\Metin2_server\SolWayneSF v6\ClientVS22\source\UserInterface\PythonPlayer.cpp
; File C:\Program Files\Microsoft Visual Studio\2022\Community\VC\Tools\MSVC\14.34.31933\include\xtree
; File C:\Program Files\Microsoft Visual Studio\2022\Community\VC\Tools\MSVC\14.34.31933\include\xstddef
; File C:\Program Files\Microsoft Visual Studio\2022\Community\VC\Tools\MSVC\14.34.31933\include\xtree
; File E:\Metin2_server\SolWayneSF v6\ClientVS22\source\UserInterface\PythonPlayer.cpp
;	COMDAT ?GetSkillSlotIndex@CPythonPlayer@@QAE_NKPAK@Z
_TEXT	SEGMENT
__Loc$1 = -12						; size = 12
_dwSkillIndex$ = 8					; size = 4
_pdwSlotIndex$ = 12					; size = 4
?GetSkillSlotIndex@CPythonPlayer@@QAE_NKPAK@Z PROC	; CPythonPlayer::GetSkillSlotIndex, COMDAT
; _this$ = ecx

; 939  : {

  00000	55		 push	 ebp
  00001	8b ec		 mov	 ebp, esp
  00003	83 ec 0c	 sub	 esp, 12			; 0000000cH
  00006	56		 push	 esi
; File C:\Program Files\Microsoft Visual Studio\2022\Community\VC\Tools\MSVC\14.34.31933\include\xtree

; 1367 :         const _Tree_find_result<_Nodeptr> _Loc = _Find_lower_bound(_Keyval);

  00007	8d 45 08	 lea	 eax, DWORD PTR _dwSkillIndex$[ebp]
  0000a	50		 push	 eax
; File E:\Metin2_server\SolWayneSF v6\ClientVS22\source\UserInterface\PythonPlayer.cpp

; 940  : 	std::map<DWORD, DWORD>::iterator f=m_skillSlotDict.find(dwSkillIndex);

  0000b	8d 71 0c	 lea	 esi, DWORD PTR [ecx+12]
; File C:\Program Files\Microsoft Visual Studio\2022\Community\VC\Tools\MSVC\14.34.31933\include\xtree

; 1367 :         const _Tree_find_result<_Nodeptr> _Loc = _Find_lower_bound(_Keyval);

  0000e	8d 45 f4	 lea	 eax, DWORD PTR __Loc$1[ebp]
  00011	8b ce		 mov	 ecx, esi
  00013	50		 push	 eax
  00014	e8 00 00 00 00	 call	 ??$_Find_lower_bound@K@?$_Tree@V?$_Tmap_traits@KKU?$less@K@std@@V?$allocator@U?$pair@$$CBKK@std@@@2@$0A@@std@@@std@@IBE?AU?$_Tree_find_result@PAU?$_Tree_node@U?$pair@$$CBKK@std@@PAX@std@@@1@ABK@Z ; std::_Tree<std::_Tmap_traits<unsigned long,unsigned long,std::less<unsigned long>,std::allocator<std::pair<unsigned long const ,unsigned long> >,0> >::_Find_lower_bound<unsigned long>

; 1605 :         return !_Bound->_Isnil && !_DEBUG_LT_PRED(_Getcomp(), _Keyval, _Traits::_Kfn(_Bound->_Myval));

  00019	8b 4d fc	 mov	 ecx, DWORD PTR __Loc$1[ebp+8]
  0001c	80 79 0d 00	 cmp	 BYTE PTR [ecx+13], 0
  00020	75 1d		 jne	 SHORT $LN37@GetSkillSl
; File C:\Program Files\Microsoft Visual Studio\2022\Community\VC\Tools\MSVC\14.34.31933\include\xstddef

; 143  :         return _Left < _Right;

  00022	8b 45 08	 mov	 eax, DWORD PTR _dwSkillIndex$[ebp]
  00025	3b 41 10	 cmp	 eax, DWORD PTR [ecx+16]
; File C:\Program Files\Microsoft Visual Studio\2022\Community\VC\Tools\MSVC\14.34.31933\include\xtree

; 1605 :         return !_Bound->_Isnil && !_DEBUG_LT_PRED(_Getcomp(), _Keyval, _Traits::_Kfn(_Bound->_Myval));

  00028	72 15		 jb	 SHORT $LN37@GetSkillSl

; 233  :         return this->_Ptr == _Right._Ptr;

  0002a	39 0e		 cmp	 DWORD PTR [esi], ecx
; File E:\Metin2_server\SolWayneSF v6\ClientVS22\source\UserInterface\PythonPlayer.cpp

; 941  : 	if (m_skillSlotDict.end()==f)

  0002c	74 11		 je	 SHORT $LN37@GetSkillSl

; 944  : 	}
; 945  : 
; 946  : 	*pdwSlotIndex=f->second;

  0002e	8b 45 0c	 mov	 eax, DWORD PTR _pdwSlotIndex$[ebp]
  00031	8b 49 14	 mov	 ecx, DWORD PTR [ecx+20]
  00034	5e		 pop	 esi
  00035	89 08		 mov	 DWORD PTR [eax], ecx

; 947  : 
; 948  : 	return true;

  00037	b0 01		 mov	 al, 1

; 949  : }

  00039	8b e5		 mov	 esp, ebp
  0003b	5d		 pop	 ebp
  0003c	c2 08 00	 ret	 8
$LN37@GetSkillSl:

; 942  : 	{
; 943  : 		return false;

  0003f	32 c0		 xor	 al, al
  00041	5e		 pop	 esi

; 949  : }

  00042	8b e5		 mov	 esp, ebp
  00044	5d		 pop	 ebp
  00045	c2 08 00	 ret	 8
?GetSkillSlotIndex@CPythonPlayer@@QAE_NKPAK@Z ENDP	; CPythonPlayer::GetSkillSlotIndex
_TEXT	ENDS
; Function compile flags: /Ogtp
; File E:\Metin2_server\SolWayneSF v6\ClientVS22\source\UserInterface\PythonPlayer.cpp
;	COMDAT ?NotifyDeadMainCharacter@CPythonPlayer@@QAEXXZ
_TEXT	SEGMENT
?NotifyDeadMainCharacter@CPythonPlayer@@QAEXXZ PROC	; CPythonPlayer::NotifyDeadMainCharacter, COMDAT
; _this$ = ecx

; 527  : 	__ClearAutoAttackTargetActorID();

  00000	e9 00 00 00 00	 jmp	 ?__ClearAutoAttackTargetActorID@CPythonPlayer@@IAEXXZ ; CPythonPlayer::__ClearAutoAttackTargetActorID
?NotifyDeadMainCharacter@CPythonPlayer@@QAEXXZ ENDP	; CPythonPlayer::NotifyDeadMainCharacter
_TEXT	ENDS
; Function compile flags: /Ogtp
; File E:\Metin2_server\SolWayneSF v6\ClientVS22\source\UserInterface\PythonPlayer.cpp
;	COMDAT ?SetStatus@CPythonPlayer@@QAEXK_J@Z
_TEXT	SEGMENT
_pkPlayer$1$ = 8					; size = 4
_dwType$ = 8						; size = 4
_lValue$ = 12						; size = 8
?SetStatus@CPythonPlayer@@QAEXK_J@Z PROC		; CPythonPlayer::SetStatus, COMDAT
; _this$ = ecx

; 427  : {

  00000	55		 push	 ebp
  00001	8b ec		 mov	 ebp, esp
  00003	53		 push	 ebx
  00004	56		 push	 esi
  00005	8b 75 08	 mov	 esi, DWORD PTR _dwType$[ebp]
  00008	8b d9		 mov	 ebx, ecx
  0000a	57		 push	 edi

; 428  : 	if (dwType >= POINT_MAX_NUM)

  0000b	81 fe ff 00 00
	00		 cmp	 esi, 255		; 000000ffH
  00011	72 14		 jb	 SHORT $LN4@SetStatus

; 429  : 	{
; 430  : 		assert(!" CPythonPlayer::SetStatus - Strange Status Type!");
; 431  : 		Tracef("CPythonPlayer::SetStatus - Set Status Type Error\n");

  00013	68 00 00 00 00	 push	 OFFSET ??_C@_0DC@HBNJHHEJ@CPythonPlayer?3?3SetStatus?5?9?5Set?5@
  00018	e8 00 00 00 00	 call	 ?Tracef@@YAXPBDZZ	; Tracef
  0001d	83 c4 04	 add	 esp, 4

; 464  : 			break;
; 465  : 	}		
; 466  : }

  00020	5f		 pop	 edi
  00021	5e		 pop	 esi
  00022	5b		 pop	 ebx
  00023	5d		 pop	 ebp
  00024	c2 0c 00	 ret	 12			; 0000000cH
$LN4@SetStatus:

; 432  : 		return;
; 433  : 	}
; 434  : 
; 435  : 	if (dwType == POINT_LEVEL)

  00027	8b 7d 0c	 mov	 edi, DWORD PTR _lValue$[ebp]
  0002a	83 fe 01	 cmp	 esi, 1
  0002d	75 29		 jne	 SHORT $LN6@SetStatus

; 436  : 	{
; 437  : 		CInstanceBase* pkPlayer = NEW_GetMainActorPtr();

  0002f	8b 43 04	 mov	 eax, DWORD PTR [ebx+4]
  00032	8d 4b 04	 lea	 ecx, DWORD PTR [ebx+4]
  00035	ff 90 88 00 00
	00		 call	 DWORD PTR [eax+136]
  0003b	89 45 08	 mov	 DWORD PTR _pkPlayer$1$[ebp], eax

; 438  : 
; 439  : 		if (pkPlayer)

  0003e	85 c0		 test	 eax, eax
  00040	74 16		 je	 SHORT $LN6@SetStatus

; 440  : 		{
; 441  : 			pkPlayer->UpdateTextTailLevel(lValue);

  00042	57		 push	 edi
  00043	8b c8		 mov	 ecx, eax
  00045	e8 00 00 00 00	 call	 ?UpdateTextTailLevel@CInstanceBase@@QAEXK@Z ; CInstanceBase::UpdateTextTailLevel

; 442  : 			pkPlayer->SetLevel(lValue);

  0004a	8b 4d 08	 mov	 ecx, DWORD PTR _pkPlayer$1$[ebp]
  0004d	57		 push	 edi
  0004e	e8 00 00 00 00	 call	 ?SetLevel@CInstanceBase@@QAEXK@Z ; CInstanceBase::SetLevel
  00053	8d 46 ff	 lea	 eax, DWORD PTR [esi-1]
  00056	eb 0a		 jmp	 SHORT $LN19@SetStatus
$LN6@SetStatus:

; 443  : 		}
; 444  : 
; 445  : 	}
; 446  : 
; 447  : 	switch (dwType)

  00058	8d 46 ff	 lea	 eax, DWORD PTR [esi-1]
  0005b	3d cb 00 00 00	 cmp	 eax, 203		; 000000cbH
  00060	77 29		 ja	 SHORT $LN17@SetStatus
$LN19@SetStatus:
  00062	0f b6 80 00 00
	00 00		 movzx	 eax, BYTE PTR $LN20@SetStatus[eax]
  00069	ff 24 85 00 00
	00 00		 jmp	 DWORD PTR $LN21@SetStatus[eax*4]
$LN7@SetStatus:

; 448  : 	{
; 449  : 		case POINT_MIN_WEP:
; 450  : 		case POINT_MAX_WEP:
; 451  : 		case POINT_MIN_ATK:
; 452  : 		case POINT_MAX_ATK:
; 453  : 		case POINT_HIT_RATE:
; 454  : 		case POINT_EVADE_RATE:
; 455  : 		case POINT_LEVEL:
; 456  : 		case POINT_ST:
; 457  : 		case POINT_DX:
; 458  : 		case POINT_IQ:
; 459  : 			m_playerStatus.SetPoint(dwType, lValue);

  00070	ff 75 10	 push	 DWORD PTR _lValue$[ebp+4]
  00073	8d 4b 70	 lea	 ecx, DWORD PTR [ebx+112]
  00076	57		 push	 edi
  00077	56		 push	 esi
  00078	e8 00 00 00 00	 call	 ?SetPoint@SPlayerStatus@CPythonPlayer@@QAEXI_J@Z ; CPythonPlayer::SPlayerStatus::SetPoint

; 460  : 			__UpdateBattleStatus();

  0007d	8b cb		 mov	 ecx, ebx
  0007f	e8 00 00 00 00	 call	 ?__UpdateBattleStatus@CPythonPlayer@@IAEXXZ ; CPythonPlayer::__UpdateBattleStatus

; 464  : 			break;
; 465  : 	}		
; 466  : }

  00084	5f		 pop	 edi
  00085	5e		 pop	 esi
  00086	5b		 pop	 ebx
  00087	5d		 pop	 ebp
  00088	c2 0c 00	 ret	 12			; 0000000cH
$LN17@SetStatus:

; 461  : 			break;
; 462  : 		default:
; 463  : 			m_playerStatus.SetPoint(dwType, lValue);

  0008b	ff 75 10	 push	 DWORD PTR _lValue$[ebp+4]
  0008e	8d 4b 70	 lea	 ecx, DWORD PTR [ebx+112]
  00091	57		 push	 edi
  00092	56		 push	 esi
  00093	e8 00 00 00 00	 call	 ?SetPoint@SPlayerStatus@CPythonPlayer@@QAEXI_J@Z ; CPythonPlayer::SPlayerStatus::SetPoint

; 464  : 			break;
; 465  : 	}		
; 466  : }

  00098	5f		 pop	 edi
  00099	5e		 pop	 esi
  0009a	5b		 pop	 ebx
  0009b	5d		 pop	 ebp
  0009c	c2 0c 00	 ret	 12			; 0000000cH
  0009f	90		 npad	 1
$LN21@SetStatus:
  000a0	00 00 00 00	 DD	 $LN7@SetStatus
  000a4	00 00 00 00	 DD	 $LN17@SetStatus
$LN20@SetStatus:
  000a8	00		 DB	 0
  000a9	01		 DB	 1
  000aa	01		 DB	 1
  000ab	01		 DB	 1
  000ac	01		 DB	 1
  000ad	01		 DB	 1
  000ae	01		 DB	 1
  000af	01		 DB	 1
  000b0	01		 DB	 1
  000b1	01		 DB	 1
  000b2	01		 DB	 1
  000b3	00		 DB	 0
  000b4	01		 DB	 1
  000b5	00		 DB	 0
  000b6	00		 DB	 0
  000b7	01		 DB	 1
  000b8	01		 DB	 1
  000b9	00		 DB	 0
  000ba	01		 DB	 1
  000bb	01		 DB	 1
  000bc	01		 DB	 1
  000bd	01		 DB	 1
  000be	01		 DB	 1
  000bf	01		 DB	 1
  000c0	01		 DB	 1
  000c1	01		 DB	 1
  000c2	01		 DB	 1
  000c3	01		 DB	 1
  000c4	00		 DB	 0
  000c5	00		 DB	 0
  000c6	01		 DB	 1
  000c7	01		 DB	 1
  000c8	01		 DB	 1
  000c9	01		 DB	 1
  000ca	01		 DB	 1
  000cb	01		 DB	 1
  000cc	01		 DB	 1
  000cd	01		 DB	 1
  000ce	01		 DB	 1
  000cf	01		 DB	 1
  000d0	01		 DB	 1
  000d1	01		 DB	 1
  000d2	01		 DB	 1
  000d3	01		 DB	 1
  000d4	01		 DB	 1
  000d5	01		 DB	 1
  000d6	01		 DB	 1
  000d7	01		 DB	 1
  000d8	01		 DB	 1
  000d9	01		 DB	 1
  000da	01		 DB	 1
  000db	01		 DB	 1
  000dc	01		 DB	 1
  000dd	01		 DB	 1
  000de	01		 DB	 1
  000df	01		 DB	 1
  000e0	01		 DB	 1
  000e1	01		 DB	 1
  000e2	01		 DB	 1
  000e3	01		 DB	 1
  000e4	01		 DB	 1
  000e5	01		 DB	 1
  000e6	01		 DB	 1
  000e7	01		 DB	 1
  000e8	01		 DB	 1
  000e9	01		 DB	 1
  000ea	01		 DB	 1
  000eb	01		 DB	 1
  000ec	01		 DB	 1
  000ed	01		 DB	 1
  000ee	01		 DB	 1
  000ef	01		 DB	 1
  000f0	01		 DB	 1
  000f1	01		 DB	 1
  000f2	01		 DB	 1
  000f3	01		 DB	 1
  000f4	01		 DB	 1
  000f5	01		 DB	 1
  000f6	01		 DB	 1
  000f7	01		 DB	 1
  000f8	01		 DB	 1
  000f9	01		 DB	 1
  000fa	01		 DB	 1
  000fb	01		 DB	 1
  000fc	01		 DB	 1
  000fd	01		 DB	 1
  000fe	01		 DB	 1
  000ff	01		 DB	 1
  00100	01		 DB	 1
  00101	01		 DB	 1
  00102	01		 DB	 1
  00103	01		 DB	 1
  00104	01		 DB	 1
  00105	01		 DB	 1
  00106	01		 DB	 1
  00107	01		 DB	 1
  00108	01		 DB	 1
  00109	01		 DB	 1
  0010a	01		 DB	 1
  0010b	01		 DB	 1
  0010c	01		 DB	 1
  0010d	01		 DB	 1
  0010e	01		 DB	 1
  0010f	01		 DB	 1
  00110	01		 DB	 1
  00111	01		 DB	 1
  00112	01		 DB	 1
  00113	01		 DB	 1
  00114	01		 DB	 1
  00115	01		 DB	 1
  00116	01		 DB	 1
  00117	01		 DB	 1
  00118	01		 DB	 1
  00119	01		 DB	 1
  0011a	01		 DB	 1
  0011b	01		 DB	 1
  0011c	01		 DB	 1
  0011d	01		 DB	 1
  0011e	01		 DB	 1
  0011f	01		 DB	 1
  00120	01		 DB	 1
  00121	01		 DB	 1
  00122	01		 DB	 1
  00123	01		 DB	 1
  00124	01		 DB	 1
  00125	01		 DB	 1
  00126	01		 DB	 1
  00127	01		 DB	 1
  00128	01		 DB	 1
  00129	01		 DB	 1
  0012a	01		 DB	 1
  0012b	01		 DB	 1
  0012c	01		 DB	 1
  0012d	01		 DB	 1
  0012e	01		 DB	 1
  0012f	01		 DB	 1
  00130	01		 DB	 1
  00131	01		 DB	 1
  00132	01		 DB	 1
  00133	01		 DB	 1
  00134	01		 DB	 1
  00135	01		 DB	 1
  00136	01		 DB	 1
  00137	01		 DB	 1
  00138	01		 DB	 1
  00139	01		 DB	 1
  0013a	01		 DB	 1
  0013b	01		 DB	 1
  0013c	01		 DB	 1
  0013d	01		 DB	 1
  0013e	01		 DB	 1
  0013f	01		 DB	 1
  00140	01		 DB	 1
  00141	01		 DB	 1
  00142	01		 DB	 1
  00143	01		 DB	 1
  00144	01		 DB	 1
  00145	01		 DB	 1
  00146	01		 DB	 1
  00147	01		 DB	 1
  00148	01		 DB	 1
  00149	01		 DB	 1
  0014a	01		 DB	 1
  0014b	01		 DB	 1
  0014c	01		 DB	 1
  0014d	01		 DB	 1
  0014e	01		 DB	 1
  0014f	01		 DB	 1
  00150	01		 DB	 1
  00151	01		 DB	 1
  00152	01		 DB	 1
  00153	01		 DB	 1
  00154	01		 DB	 1
  00155	01		 DB	 1
  00156	01		 DB	 1
  00157	01		 DB	 1
  00158	01		 DB	 1
  00159	01		 DB	 1
  0015a	01		 DB	 1
  0015b	01		 DB	 1
  0015c	01		 DB	 1
  0015d	01		 DB	 1
  0015e	01		 DB	 1
  0015f	01		 DB	 1
  00160	01		 DB	 1
  00161	01		 DB	 1
  00162	01		 DB	 1
  00163	01		 DB	 1
  00164	01		 DB	 1
  00165	01		 DB	 1
  00166	01		 DB	 1
  00167	01		 DB	 1
  00168	01		 DB	 1
  00169	01		 DB	 1
  0016a	01		 DB	 1
  0016b	01		 DB	 1
  0016c	01		 DB	 1
  0016d	01		 DB	 1
  0016e	01		 DB	 1
  0016f	00		 DB	 0
  00170	00		 DB	 0
  00171	01		 DB	 1
  00172	01		 DB	 1
  00173	00		 DB	 0
?SetStatus@CPythonPlayer@@QAEXK_J@Z ENDP		; CPythonPlayer::SetStatus
_TEXT	ENDS
; Function compile flags: /Ogtp
; File E:\Metin2_server\SolWayneSF v6\ClientVS22\source\UserInterface\PythonPlayer.cpp
;	COMDAT ?ForgetInstance@CPythonPlayer@@QAEXK@Z
_TEXT	SEGMENT
_dwVID$ = 8						; size = 4
?ForgetInstance@CPythonPlayer@@QAEXK@Z PROC		; CPythonPlayer::ForgetInstance, COMDAT
; _this$ = ecx

; 1466 : {

  00000	55		 push	 ebp
  00001	8b ec		 mov	 ebp, esp
  00003	56		 push	 esi
  00004	8b f1		 mov	 esi, ecx

; 1467 : 	m_ChallengeInstanceSet.erase(dwVID);

  00006	8d 45 08	 lea	 eax, DWORD PTR _dwVID$[ebp]
  00009	50		 push	 eax
  0000a	8d 8e 3c 2e 01
	00		 lea	 ecx, DWORD PTR [esi+77372]
  00010	e8 00 00 00 00	 call	 ?erase@?$_Tree@V?$_Tset_traits@KU?$less@K@std@@V?$allocator@K@2@$0A@@std@@@std@@QAEIABK@Z ; std::_Tree<std::_Tset_traits<unsigned long,std::less<unsigned long>,std::allocator<unsigned long>,0> >::erase

; 1468 : 	m_RevengeInstanceSet.erase(dwVID);

  00015	8d 45 08	 lea	 eax, DWORD PTR _dwVID$[ebp]
  00018	50		 push	 eax
  00019	8d 8e 44 2e 01
	00		 lea	 ecx, DWORD PTR [esi+77380]
  0001f	e8 00 00 00 00	 call	 ?erase@?$_Tree@V?$_Tset_traits@KU?$less@K@std@@V?$allocator@K@2@$0A@@std@@@std@@QAEIABK@Z ; std::_Tree<std::_Tset_traits<unsigned long,std::less<unsigned long>,std::allocator<unsigned long>,0> >::erase

; 1469 : 	m_CantFightInstanceSet.erase(dwVID);

  00024	8d 45 08	 lea	 eax, DWORD PTR _dwVID$[ebp]
  00027	50		 push	 eax
  00028	8d 8e 4c 2e 01
	00		 lea	 ecx, DWORD PTR [esi+77388]
  0002e	e8 00 00 00 00	 call	 ?erase@?$_Tree@V?$_Tset_traits@KU?$less@K@std@@V?$allocator@K@2@$0A@@std@@@std@@QAEIABK@Z ; std::_Tree<std::_Tset_traits<unsigned long,std::less<unsigned long>,std::allocator<unsigned long>,0> >::erase

; 1470 : }

  00033	5e		 pop	 esi
  00034	5d		 pop	 ebp
  00035	c2 04 00	 ret	 4
?ForgetInstance@CPythonPlayer@@QAEXK@Z ENDP		; CPythonPlayer::ForgetInstance
_TEXT	ENDS
; Function compile flags: /Ogtp
; File E:\Metin2_server\SolWayneSF v6\ClientVS22\source\UserInterface\PythonPlayer.cpp
;	COMDAT ?RememberRevengeInstance@CPythonPlayer@@QAEXK@Z
_TEXT	SEGMENT
$T1 = -12						; size = 8
_dwVID$ = 8						; size = 4
?RememberRevengeInstance@CPythonPlayer@@QAEXK@Z PROC	; CPythonPlayer::RememberRevengeInstance, COMDAT
; _this$ = ecx

; 1457 : {

  00000	55		 push	 ebp
  00001	8b ec		 mov	 ebp, esp
  00003	83 ec 10	 sub	 esp, 16			; 00000010H

; 1458 : 	m_ChallengeInstanceSet.erase(dwVID);

  00006	8d 45 08	 lea	 eax, DWORD PTR _dwVID$[ebp]
  00009	56		 push	 esi
  0000a	8b f1		 mov	 esi, ecx
  0000c	50		 push	 eax
  0000d	8d 8e 3c 2e 01
	00		 lea	 ecx, DWORD PTR [esi+77372]
  00013	e8 00 00 00 00	 call	 ?erase@?$_Tree@V?$_Tset_traits@KU?$less@K@std@@V?$allocator@K@2@$0A@@std@@@std@@QAEIABK@Z ; std::_Tree<std::_Tset_traits<unsigned long,std::less<unsigned long>,std::allocator<unsigned long>,0> >::erase

; 1459 : 	m_RevengeInstanceSet.insert(dwVID);

  00018	8d 45 08	 lea	 eax, DWORD PTR _dwVID$[ebp]
  0001b	50		 push	 eax
  0001c	8d 45 f4	 lea	 eax, DWORD PTR $T1[ebp]
  0001f	50		 push	 eax
  00020	8d 8e 44 2e 01
	00		 lea	 ecx, DWORD PTR [esi+77380]
  00026	e8 00 00 00 00	 call	 ??$insert@$0A@$0A@@?$_Tree@V?$_Tset_traits@KU?$less@K@std@@V?$allocator@K@2@$0A@@std@@@std@@QAE?AU?$pair@V?$_Tree_const_iterator@V?$_Tree_val@U?$_Tree_simple_types@K@std@@@std@@@std@@_N@1@ABK@Z ; std::_Tree<std::_Tset_traits<unsigned long,std::less<unsigned long>,std::allocator<unsigned long>,0> >::insert<0,0>

; 1460 : }

  0002b	5e		 pop	 esi
  0002c	8b e5		 mov	 esp, ebp
  0002e	5d		 pop	 ebp
  0002f	c2 04 00	 ret	 4
?RememberRevengeInstance@CPythonPlayer@@QAEXK@Z ENDP	; CPythonPlayer::RememberRevengeInstance
_TEXT	ENDS
; Function compile flags: /Ogtp
; File E:\Metin2_server\SolWayneSF v6\ClientVS22\source\UserInterface\PythonPlayer.cpp
;	COMDAT ?RememberCantFightInstance@CPythonPlayer@@QAEXK@Z
_TEXT	SEGMENT
$T1 = -12						; size = 8
_dwVID$ = 8						; size = 4
?RememberCantFightInstance@CPythonPlayer@@QAEXK@Z PROC	; CPythonPlayer::RememberCantFightInstance, COMDAT
; _this$ = ecx

; 1462 : {

  00000	55		 push	 ebp
  00001	8b ec		 mov	 ebp, esp
  00003	83 ec 0c	 sub	 esp, 12			; 0000000cH

; 1463 : 	m_CantFightInstanceSet.insert(dwVID);

  00006	8d 45 08	 lea	 eax, DWORD PTR _dwVID$[ebp]
  00009	81 c1 4c 2e 01
	00		 add	 ecx, 77388		; 00012e4cH
  0000f	50		 push	 eax
  00010	8d 45 f4	 lea	 eax, DWORD PTR $T1[ebp]
  00013	50		 push	 eax
  00014	e8 00 00 00 00	 call	 ??$insert@$0A@$0A@@?$_Tree@V?$_Tset_traits@KU?$less@K@std@@V?$allocator@K@2@$0A@@std@@@std@@QAE?AU?$pair@V?$_Tree_const_iterator@V?$_Tree_val@U?$_Tree_simple_types@K@std@@@std@@@std@@_N@1@ABK@Z ; std::_Tree<std::_Tset_traits<unsigned long,std::less<unsigned long>,std::allocator<unsigned long>,0> >::insert<0,0>

; 1464 : }

  00019	8b e5		 mov	 esp, ebp
  0001b	5d		 pop	 ebp
  0001c	c2 04 00	 ret	 4
?RememberCantFightInstance@CPythonPlayer@@QAEXK@Z ENDP	; CPythonPlayer::RememberCantFightInstance
_TEXT	ENDS
; Function compile flags: /Ogtp
; File E:\Metin2_server\SolWayneSF v6\ClientVS22\source\UserInterface\PythonPlayer.cpp
;	COMDAT ?RememberChallengeInstance@CPythonPlayer@@QAEXK@Z
_TEXT	SEGMENT
$T1 = -12						; size = 8
_dwVID$ = 8						; size = 4
?RememberChallengeInstance@CPythonPlayer@@QAEXK@Z PROC	; CPythonPlayer::RememberChallengeInstance, COMDAT
; _this$ = ecx

; 1452 : {

  00000	55		 push	 ebp
  00001	8b ec		 mov	 ebp, esp
  00003	83 ec 10	 sub	 esp, 16			; 00000010H

; 1453 : 	m_RevengeInstanceSet.erase(dwVID);

  00006	8d 45 08	 lea	 eax, DWORD PTR _dwVID$[ebp]
  00009	56		 push	 esi
  0000a	8b f1		 mov	 esi, ecx
  0000c	50		 push	 eax
  0000d	8d 8e 44 2e 01
	00		 lea	 ecx, DWORD PTR [esi+77380]
  00013	e8 00 00 00 00	 call	 ?erase@?$_Tree@V?$_Tset_traits@KU?$less@K@std@@V?$allocator@K@2@$0A@@std@@@std@@QAEIABK@Z ; std::_Tree<std::_Tset_traits<unsigned long,std::less<unsigned long>,std::allocator<unsigned long>,0> >::erase

; 1454 : 	m_ChallengeInstanceSet.insert(dwVID);

  00018	8d 45 08	 lea	 eax, DWORD PTR _dwVID$[ebp]
  0001b	50		 push	 eax
  0001c	8d 45 f4	 lea	 eax, DWORD PTR $T1[ebp]
  0001f	50		 push	 eax
  00020	8d 8e 3c 2e 01
	00		 lea	 ecx, DWORD PTR [esi+77372]
  00026	e8 00 00 00 00	 call	 ??$insert@$0A@$0A@@?$_Tree@V?$_Tset_traits@KU?$less@K@std@@V?$allocator@K@2@$0A@@std@@@std@@QAE?AU?$pair@V?$_Tree_const_iterator@V?$_Tree_val@U?$_Tree_simple_types@K@std@@@std@@@std@@_N@1@ABK@Z ; std::_Tree<std::_Tset_traits<unsigned long,std::less<unsigned long>,std::allocator<unsigned long>,0> >::insert<0,0>

; 1455 : }

  0002b	5e		 pop	 esi
  0002c	8b e5		 mov	 esp, ebp
  0002e	5d		 pop	 ebp
  0002f	c2 04 00	 ret	 4
?RememberChallengeInstance@CPythonPlayer@@QAEXK@Z ENDP	; CPythonPlayer::RememberChallengeInstance
_TEXT	ENDS
; Function compile flags: /Ogtp
; File E:\Metin2_server\SolWayneSF v6\ClientVS22\source\UserInterface\PythonPlayer.cpp
; File C:\Program Files\Microsoft Visual Studio\2022\Community\VC\Tools\MSVC\14.34.31933\include\xstring
; File E:\Metin2_server\SolWayneSF v6\ClientVS22\source\UserInterface\PythonPlayer.cpp
; File C:\Program Files\Microsoft Visual Studio\2022\Community\VC\Tools\MSVC\14.34.31933\include\xstring
; File E:\Metin2_server\SolWayneSF v6\ClientVS22\source\UserInterface\PythonPlayer.cpp
; File C:\Program Files\Microsoft Visual Studio\2022\Community\VC\Tools\MSVC\14.34.31933\include\xstring
; File E:\Metin2_server\SolWayneSF v6\ClientVS22\source\UserInterface\PythonPlayer.cpp
;	COMDAT ?SetName@CPythonPlayer@@QAEXPBD@Z
_TEXT	SEGMENT
_name$ = 8						; size = 4
?SetName@CPythonPlayer@@QAEXPBD@Z PROC			; CPythonPlayer::SetName, COMDAT
; _this$ = ecx

; 486  : {

  00000	55		 push	 ebp
  00001	8b ec		 mov	 ebp, esp
; File C:\Program Files\Microsoft Visual Studio\2022\Community\VC\Tools\MSVC\14.34.31933\include\xstring

; 415  :             return __builtin_strlen(_First);

  00003	8b 55 08	 mov	 edx, DWORD PTR _name$[ebp]
  00006	8b c2		 mov	 eax, edx
; File E:\Metin2_server\SolWayneSF v6\ClientVS22\source\UserInterface\PythonPlayer.cpp

; 486  : {

  00008	56		 push	 esi
  00009	57		 push	 edi
  0000a	8b f1		 mov	 esi, ecx
; File C:\Program Files\Microsoft Visual Studio\2022\Community\VC\Tools\MSVC\14.34.31933\include\xstring

; 415  :             return __builtin_strlen(_First);

  0000c	8d 78 01	 lea	 edi, DWORD PTR [eax+1]
  0000f	90		 npad	 1
$LL9@SetName:
  00010	8a 08		 mov	 cl, BYTE PTR [eax]
  00012	40		 inc	 eax
  00013	84 c9		 test	 cl, cl
  00015	75 f9		 jne	 SHORT $LL9@SetName
  00017	2b c7		 sub	 eax, edi
; File E:\Metin2_server\SolWayneSF v6\ClientVS22\source\UserInterface\PythonPlayer.cpp

; 487  : 	m_stName = name;

  00019	8d 4e 14	 lea	 ecx, DWORD PTR [esi+20]
; File C:\Program Files\Microsoft Visual Studio\2022\Community\VC\Tools\MSVC\14.34.31933\include\xstring

; 3546 :         return assign(_Ptr, _Convert_size<size_type>(_Traits::length(_Ptr)));

  0001c	50		 push	 eax
  0001d	52		 push	 edx
  0001e	e8 00 00 00 00	 call	 ?assign@?$basic_string@DU?$char_traits@D@std@@V?$allocator@D@2@@std@@QAEAAV12@QBDI@Z ; std::basic_string<char,std::char_traits<char>,std::allocator<char> >::assign
  00023	5f		 pop	 edi
  00024	5e		 pop	 esi
; File E:\Metin2_server\SolWayneSF v6\ClientVS22\source\UserInterface\PythonPlayer.cpp

; 488  : }

  00025	5d		 pop	 ebp
  00026	c2 04 00	 ret	 4
?SetName@CPythonPlayer@@QAEXPBD@Z ENDP			; CPythonPlayer::SetName
_TEXT	ENDS
; Function compile flags: /Ogtp
; File E:\Metin2_server\SolWayneSF v6\ClientVS22\source\UserInterface\PythonPlayer.cpp
; File C:\Program Files\Microsoft Visual Studio\2022\Community\VC\Tools\MSVC\14.34.31933\include\xstring
; File E:\Metin2_server\SolWayneSF v6\ClientVS22\source\UserInterface\PythonPlayer.cpp
; File C:\Program Files\Microsoft Visual Studio\2022\Community\VC\Tools\MSVC\14.34.31933\include\xstring
; File E:\Metin2_server\SolWayneSF v6\ClientVS22\source\UserInterface\PythonPlayer.cpp
; File C:\Program Files\Microsoft Visual Studio\2022\Community\VC\Tools\MSVC\14.34.31933\include\xstring
; File E:\Metin2_server\SolWayneSF v6\ClientVS22\source\UserInterface\PythonPlayer.cpp
; File E:\Metin2_server\SolWayneSF v6\ClientVS22\extern\include\d3dx8math.inl
; File E:\Metin2_server\SolWayneSF v6\ClientVS22\source\UserInterface\PythonPlayer.cpp
; File C:\Program Files\Microsoft Visual Studio\2022\Community\VC\Tools\MSVC\14.34.31933\include\xtree
; File E:\Metin2_server\SolWayneSF v6\ClientVS22\source\UserInterface\PythonPlayer.cpp
; File E:\Metin2_server\SolWayneSF v6\ClientVS22\extern\include\d3dx8math.inl
; File E:\Metin2_server\SolWayneSF v6\ClientVS22\source\UserInterface\PythonPlayer.cpp
; File C:\Program Files\Microsoft Visual Studio\2022\Community\VC\Tools\MSVC\14.34.31933\include\xtree
; File E:\Metin2_server\SolWayneSF v6\ClientVS22\source\UserInterface\PythonPlayer.cpp
; File C:\Program Files\Microsoft Visual Studio\2022\Community\VC\Tools\MSVC\14.34.31933\include\xtree
; File E:\Metin2_server\SolWayneSF v6\ClientVS22\source\UserInterface\PythonPlayer.cpp
; File C:\Program Files\Microsoft Visual Studio\2022\Community\VC\Tools\MSVC\14.34.31933\include\xtree
; File E:\Metin2_server\SolWayneSF v6\ClientVS22\source\UserInterface\PythonPlayer.cpp
; File C:\Program Files\Microsoft Visual Studio\2022\Community\VC\Tools\MSVC\14.34.31933\include\xtree
; File E:\Metin2_server\SolWayneSF v6\ClientVS22\source\UserInterface\PythonPlayer.cpp
; File C:\Program Files\Microsoft Visual Studio\2022\Community\VC\Tools\MSVC\14.34.31933\include\xtree
; File E:\Metin2_server\SolWayneSF v6\ClientVS22\source\UserInterface\PythonPlayer.cpp
;	COMDAT ?Clear@CPythonPlayer@@QAEXXZ
_TEXT	SEGMENT
tv492 = -32						; size = 16
$T1 = -16						; size = 12
$T2 = -16						; size = 12
_this$1$ = -4						; size = 4
?Clear@CPythonPlayer@@QAEXXZ PROC			; CPythonPlayer::Clear, COMDAT
; _this$ = ecx

; 1613 : {

  00000	53		 push	 ebx
  00001	8b dc		 mov	 ebx, esp
  00003	83 ec 08	 sub	 esp, 8
  00006	83 e4 f0	 and	 esp, -16		; fffffff0H
  00009	83 c4 04	 add	 esp, 4
  0000c	55		 push	 ebp
  0000d	8b 6b 04	 mov	 ebp, DWORD PTR [ebx+4]
  00010	89 6c 24 04	 mov	 DWORD PTR [esp+4], ebp
  00014	8b ec		 mov	 ebp, esp
  00016	83 ec 28	 sub	 esp, 40			; 00000028H
  00019	56		 push	 esi
  0001a	8b f1		 mov	 esi, ecx
  0001c	57		 push	 edi

; 1614 : 	memset(&m_playerStatus, 0, sizeof(m_playerStatus));

  0001d	68 80 2d 01 00	 push	 77184			; 00012d80H
  00022	6a 00		 push	 0
  00024	8d 46 70	 lea	 eax, DWORD PTR [esi+112]
  00027	89 75 fc	 mov	 DWORD PTR _this$1$[ebp], esi
  0002a	50		 push	 eax
  0002b	e8 00 00 00 00	 call	 _memset
  00030	83 c4 0c	 add	 esp, 12			; 0000000cH

; 1615 : 	NEW_ClearSkillData(true);

  00033	8b ce		 mov	 ecx, esi
  00035	6a 01		 push	 1
  00037	e8 00 00 00 00	 call	 ?NEW_ClearSkillData@CPythonPlayer@@QAEX_N@Z ; CPythonPlayer::NEW_ClearSkillData
; File C:\Program Files\Microsoft Visual Studio\2022\Community\VC\Tools\MSVC\14.34.31933\include\xstring

; 3546 :         return assign(_Ptr, _Convert_size<size_type>(_Traits::length(_Ptr)));

  0003c	6a 00		 push	 0
  0003e	0f 57 c0	 xorps	 xmm0, xmm0
; File E:\Metin2_server\SolWayneSF v6\ClientVS22\source\UserInterface\PythonPlayer.cpp

; 1617 : 	m_bisProcessingEmotion = FALSE;

  00041	c7 86 20 2e 01
	00 00 00 00 00	 mov	 DWORD PTR [esi+77344], 0
; File C:\Program Files\Microsoft Visual Studio\2022\Community\VC\Tools\MSVC\14.34.31933\include\xstring

; 3546 :         return assign(_Ptr, _Convert_size<size_type>(_Traits::length(_Ptr)));

  0004b	68 00 00 00 00	 push	 OFFSET ??_C@_00CNPNBAHC@@
; File E:\Metin2_server\SolWayneSF v6\ClientVS22\source\UserInterface\PythonPlayer.cpp

; 1623 : 	m_stName = "";

  00050	8d 4e 14	 lea	 ecx, DWORD PTR [esi+20]
  00053	c7 46 48 00 00
	00 00		 mov	 DWORD PTR [esi+72], 0
  0005a	0f 29 45 e0	 movaps	 XMMWORD PTR tv492[ebp], xmm0
  0005e	c7 46 4c 00 00
	00 00		 mov	 DWORD PTR [esi+76], 0
; File C:\Program Files\Microsoft Visual Studio\2022\Community\VC\Tools\MSVC\14.34.31933\include\xstring

; 3546 :         return assign(_Ptr, _Convert_size<size_type>(_Traits::length(_Ptr)));

  00065	e8 00 00 00 00	 call	 ?assign@?$basic_string@DU?$char_traits@D@std@@V?$allocator@D@2@@std@@QAEAAV12@QBDI@Z ; std::basic_string<char,std::char_traits<char>,std::allocator<char> >::assign
; File E:\Metin2_server\SolWayneSF v6\ClientVS22\source\UserInterface\PythonPlayer.cpp

; 1633 : 	m_MovingCursorPosition = TPixelPosition(0, 0, 0);

  0006a	0f 28 4d e0	 movaps	 xmm1, XMMWORD PTR tv492[ebp]

; 1665 : 
; 1666 : 	m_PartyMemberMap.clear();

  0006e	8d be 34 2e 01
	00		 lea	 edi, DWORD PTR [esi+77364]
  00074	0f 28 c1	 movaps	 xmm0, xmm1
; File E:\Metin2_server\SolWayneSF v6\ClientVS22\extern\include\d3dx8math.inl

; 182  :     z = fz;

  00077	c7 45 f8 00 00
	00 00		 mov	 DWORD PTR $T2[ebp+8], 0
; File E:\Metin2_server\SolWayneSF v6\ClientVS22\source\UserInterface\PythonPlayer.cpp

; 1633 : 	m_MovingCursorPosition = TPixelPosition(0, 0, 0);

  0007e	8b 45 f8	 mov	 eax, DWORD PTR $T2[ebp+8]
; File C:\Program Files\Microsoft Visual Studio\2022\Community\VC\Tools\MSVC\14.34.31933\include\xtree

; 1357 :         _Scary->_Erase_tree(_Getal(), _Head->_Parent);

  00081	8b cf		 mov	 ecx, edi
; File E:\Metin2_server\SolWayneSF v6\ClientVS22\source\UserInterface\PythonPlayer.cpp

; 1633 : 	m_MovingCursorPosition = TPixelPosition(0, 0, 0);

  00083	0f 14 c1	 unpcklps xmm0, xmm1
  00086	66 0f d6 86 74
	2e 01 00	 movq	 QWORD PTR [esi+77428], xmm0
  0008e	89 86 7c 2e 01
	00		 mov	 DWORD PTR [esi+77436], eax

; 1638 : 	m_kPPosReserved = TPixelPosition(0, 0, 0);

  00094	0f 14 c9	 unpcklps xmm1, xmm1
  00097	66 0f d6 8e 14
	2e 01 00	 movq	 QWORD PTR [esi+77332], xmm1
  0009f	c7 46 2c 00 00
	00 00		 mov	 DWORD PTR [esi+44], 0
  000a6	c7 46 30 00 00
	00 00		 mov	 DWORD PTR [esi+48], 0
  000ad	c7 46 34 00 00
	00 00		 mov	 DWORD PTR [esi+52], 0
  000b4	c7 46 38 00 00
	00 00		 mov	 DWORD PTR [esi+56], 0
  000bb	c7 46 3c 00 00
	00 00		 mov	 DWORD PTR [esi+60], 0
  000c2	c7 46 40 00 00
	00 00		 mov	 DWORD PTR [esi+64], 0
  000c9	c7 46 44 00 00
	00 00		 mov	 DWORD PTR [esi+68], 0
  000d0	c7 86 80 2e 01
	00 00 00 00 00	 mov	 DWORD PTR [esi+77440], 0
  000da	c7 46 54 00 00
	00 00		 mov	 DWORD PTR [esi+84], 0
  000e1	c7 46 58 00 00
	00 00		 mov	 DWORD PTR [esi+88], 0
; File E:\Metin2_server\SolWayneSF v6\ClientVS22\extern\include\d3dx8math.inl

; 182  :     z = fz;

  000e8	c7 45 f8 00 00
	00 00		 mov	 DWORD PTR $T1[ebp+8], 0
; File E:\Metin2_server\SolWayneSF v6\ClientVS22\source\UserInterface\PythonPlayer.cpp

; 1638 : 	m_kPPosReserved = TPixelPosition(0, 0, 0);

  000ef	8b 45 f8	 mov	 eax, DWORD PTR $T1[ebp+8]
  000f2	89 86 1c 2e 01
	00		 mov	 DWORD PTR [esi+77340], eax

; 1639 : 	m_dwVIDReserved = 0;

  000f8	c7 86 f4 2d 01
	00 00 00 00 00	 mov	 DWORD PTR [esi+77300], 0

; 1640 : 	m_dwIIDReserved = 0;

  00102	c7 86 f8 2d 01
	00 00 00 00 00	 mov	 DWORD PTR [esi+77304], 0

; 1641 : 	m_dwSkillSlotIndexReserved = 0;

  0010c	c7 86 00 2e 01
	00 00 00 00 00	 mov	 DWORD PTR [esi+77312], 0

; 1642 : 	m_dwSkillRangeReserved = 0;

  00116	c7 86 04 2e 01
	00 00 00 00 00	 mov	 DWORD PTR [esi+77316], 0

; 1643 : 
; 1644 : 	m_isUp = false;

  00120	c7 46 60 00 00
	00 00		 mov	 DWORD PTR [esi+96], 0

; 1645 : 	m_isDown = false;
; 1646 : 	m_isLeft = false;
; 1647 : 	m_isRight = false;
; 1648 : 	m_isSmtMov = false;

  00127	66 c7 46 67 00
	00		 mov	 WORD PTR [esi+103], 0

; 1649 : 	m_isDirMov = false;
; 1650 : 	m_isDirKey = false;
; 1651 : 	m_isAtkKey = false;

  0012d	66 c7 46 64 00
	00		 mov	 WORD PTR [esi+100], 0

; 1652 : 
; 1653 : 	m_isCmrRot = true;

  00133	c6 46 66 01	 mov	 BYTE PTR [esi+102], 1

; 1654 : 	m_fCmrRotSpd = 20.0f;

  00137	c7 46 6c 00 00
	a0 41		 mov	 DWORD PTR [esi+108], 1101004800 ; 41a00000H

; 1655 : 
; 1656 : 	m_iComboOld = 0;

  0013e	c7 86 f0 2d 01
	00 00 00 00 00	 mov	 DWORD PTR [esi+77296], 0

; 1657 : 
; 1658 : 	m_dwVIDPicked=0;

  00148	c7 86 88 2e 01
	00 00 00 00 00	 mov	 DWORD PTR [esi+77448], 0

; 1659 : 	m_dwIIDPicked=0;

  00152	c7 86 8c 2e 01
	00 00 00 00 00	 mov	 DWORD PTR [esi+77452], 0

; 1660 : 
; 1661 : 	m_dwcurSkillSlotIndex = DWORD(-1);

  0015c	c7 86 fc 2d 01
	00 ff ff ff ff	 mov	 DWORD PTR [esi+77308], -1

; 1662 : 
; 1663 : 	m_dwTargetVID = 0;

  00166	c7 86 9c 2e 01
	00 00 00 00 00	 mov	 DWORD PTR [esi+77468], 0

; 1664 : 	m_dwTargetEndTime = 0;

  00170	c7 86 a0 2e 01
	00 00 00 00 00	 mov	 DWORD PTR [esi+77472], 0
; File C:\Program Files\Microsoft Visual Studio\2022\Community\VC\Tools\MSVC\14.34.31933\include\xtree

; 1356 :         auto _Head = _Scary->_Myhead;

  0017a	8b 37		 mov	 esi, DWORD PTR [edi]

; 1357 :         _Scary->_Erase_tree(_Getal(), _Head->_Parent);

  0017c	ff 76 04	 push	 DWORD PTR [esi+4]
  0017f	57		 push	 edi
  00180	e8 00 00 00 00	 call	 ??$_Erase_tree@V?$allocator@U?$_Tree_node@U?$pair@$$CBKUSPartyMemberInfo@CPythonPlayer@@@std@@PAX@std@@@std@@@?$_Tree_val@U?$_Tree_simple_types@U?$pair@$$CBKUSPartyMemberInfo@CPythonPlayer@@@std@@@std@@@std@@QAEXAAV?$allocator@U?$_Tree_node@U?$pair@$$CBKUSPartyMemberInfo@CPythonPlayer@@@std@@PAX@std@@@1@PAU?$_Tree_node@U?$pair@$$CBKUSPartyMemberInfo@CPythonPlayer@@@std@@PAX@1@@Z ; std::_Tree_val<std::_Tree_simple_types<std::pair<unsigned long const ,CPythonPlayer::SPartyMemberInfo> > >::_Erase_tree<std::allocator<std::_Tree_node<std::pair<unsigned long const ,CPythonPlayer::SPartyMemberInfo>,void *> > >

; 1358 :         _Head->_Parent  = _Head;

  00185	89 76 04	 mov	 DWORD PTR [esi+4], esi

; 1359 :         _Head->_Left    = _Head;

  00188	89 36		 mov	 DWORD PTR [esi], esi

; 1360 :         _Head->_Right   = _Head;

  0018a	89 76 08	 mov	 DWORD PTR [esi+8], esi

; 1361 :         _Scary->_Mysize = 0;

  0018d	c7 47 04 00 00
	00 00		 mov	 DWORD PTR [edi+4], 0
; File E:\Metin2_server\SolWayneSF v6\ClientVS22\source\UserInterface\PythonPlayer.cpp

; 1668 : 	m_ChallengeInstanceSet.clear();

  00194	8b 7d fc	 mov	 edi, DWORD PTR _this$1$[ebp]
  00197	81 c7 3c 2e 01
	00		 add	 edi, 77372		; 00012e3cH
; File C:\Program Files\Microsoft Visual Studio\2022\Community\VC\Tools\MSVC\14.34.31933\include\xtree

; 1357 :         _Scary->_Erase_tree(_Getal(), _Head->_Parent);

  0019d	8b cf		 mov	 ecx, edi
  0019f	8b 37		 mov	 esi, DWORD PTR [edi]
  001a1	ff 76 04	 push	 DWORD PTR [esi+4]
  001a4	57		 push	 edi
  001a5	e8 00 00 00 00	 call	 ??$_Erase_tree@V?$allocator@U?$_Tree_node@KPAX@std@@@std@@@?$_Tree_val@U?$_Tree_simple_types@K@std@@@std@@QAEXAAV?$allocator@U?$_Tree_node@KPAX@std@@@1@PAU?$_Tree_node@KPAX@1@@Z ; std::_Tree_val<std::_Tree_simple_types<unsigned long> >::_Erase_tree<std::allocator<std::_Tree_node<unsigned long,void *> > >

; 1358 :         _Head->_Parent  = _Head;

  001aa	89 76 04	 mov	 DWORD PTR [esi+4], esi

; 1359 :         _Head->_Left    = _Head;

  001ad	89 36		 mov	 DWORD PTR [esi], esi

; 1360 :         _Head->_Right   = _Head;

  001af	89 76 08	 mov	 DWORD PTR [esi+8], esi

; 1361 :         _Scary->_Mysize = 0;

  001b2	c7 47 04 00 00
	00 00		 mov	 DWORD PTR [edi+4], 0
; File E:\Metin2_server\SolWayneSF v6\ClientVS22\source\UserInterface\PythonPlayer.cpp

; 1669 : 	m_RevengeInstanceSet.clear();

  001b9	8b 7d fc	 mov	 edi, DWORD PTR _this$1$[ebp]
; File C:\Program Files\Microsoft Visual Studio\2022\Community\VC\Tools\MSVC\14.34.31933\include\xtree

; 1356 :         auto _Head = _Scary->_Myhead;

  001bc	8b b7 44 2e 01
	00		 mov	 esi, DWORD PTR [edi+77380]
; File E:\Metin2_server\SolWayneSF v6\ClientVS22\source\UserInterface\PythonPlayer.cpp

; 1669 : 	m_RevengeInstanceSet.clear();

  001c2	81 c7 44 2e 01
	00		 add	 edi, 77380		; 00012e44H
; File C:\Program Files\Microsoft Visual Studio\2022\Community\VC\Tools\MSVC\14.34.31933\include\xtree

; 1357 :         _Scary->_Erase_tree(_Getal(), _Head->_Parent);

  001c8	8b cf		 mov	 ecx, edi
  001ca	ff 76 04	 push	 DWORD PTR [esi+4]
  001cd	57		 push	 edi
  001ce	e8 00 00 00 00	 call	 ??$_Erase_tree@V?$allocator@U?$_Tree_node@KPAX@std@@@std@@@?$_Tree_val@U?$_Tree_simple_types@K@std@@@std@@QAEXAAV?$allocator@U?$_Tree_node@KPAX@std@@@1@PAU?$_Tree_node@KPAX@1@@Z ; std::_Tree_val<std::_Tree_simple_types<unsigned long> >::_Erase_tree<std::allocator<std::_Tree_node<unsigned long,void *> > >
; File E:\Metin2_server\SolWayneSF v6\ClientVS22\source\UserInterface\PythonPlayer.cpp

; 1671 : 	m_isOpenPrivateShop = false;

  001d3	8b 45 fc	 mov	 eax, DWORD PTR _this$1$[ebp]

; 1681 : 
; 1682 : 	__ClearAutoAttackTargetActorID();

  001d6	8b c8		 mov	 ecx, eax
; File C:\Program Files\Microsoft Visual Studio\2022\Community\VC\Tools\MSVC\14.34.31933\include\xtree

; 1358 :         _Head->_Parent  = _Head;

  001d8	89 76 04	 mov	 DWORD PTR [esi+4], esi

; 1359 :         _Head->_Left    = _Head;

  001db	89 36		 mov	 DWORD PTR [esi], esi

; 1360 :         _Head->_Right   = _Head;

  001dd	89 76 08	 mov	 DWORD PTR [esi+8], esi

; 1361 :         _Scary->_Mysize = 0;

  001e0	c7 47 04 00 00
	00 00		 mov	 DWORD PTR [edi+4], 0
; File E:\Metin2_server\SolWayneSF v6\ClientVS22\source\UserInterface\PythonPlayer.cpp

; 1671 : 	m_isOpenPrivateShop = false;

  001e7	66 c7 80 54 2e
	01 00 00 00	 mov	 WORD PTR [eax+77396], 0

; 1672 : 	m_isObserverMode = false;
; 1673 : 
; 1674 : 	m_isConsumingStamina = FALSE;

  001f0	c7 80 58 2e 01
	00 00 00 00 00	 mov	 DWORD PTR [eax+77400], 0

; 1675 : 	m_fConsumeStaminaPerSec = 0.0f;

  001fa	c7 80 60 2e 01
	00 00 00 00 00	 mov	 DWORD PTR [eax+77408], 0

; 1676 : 	m_fCurrentStamina = 0.0f;

  00204	c7 80 5c 2e 01
	00 00 00 00 00	 mov	 DWORD PTR [eax+77404], 0

; 1677 : 
; 1678 : 	m_inGuildAreaID = 0xffffffff;

  0020e	c7 80 64 2e 01
	00 ff ff ff ff	 mov	 DWORD PTR [eax+77412], -1

; 1679 : 
; 1680 : 	m_bMobileFlag = FALSE;

  00218	c7 80 68 2e 01
	00 00 00 00 00	 mov	 DWORD PTR [eax+77416], 0

; 1681 : 
; 1682 : 	__ClearAutoAttackTargetActorID();

  00222	e8 00 00 00 00	 call	 ?__ClearAutoAttackTargetActorID@CPythonPlayer@@IAEXXZ ; CPythonPlayer::__ClearAutoAttackTargetActorID

; 1683 : }

  00227	5f		 pop	 edi
  00228	5e		 pop	 esi
  00229	8b e5		 mov	 esp, ebp
  0022b	5d		 pop	 ebp
  0022c	8b e3		 mov	 esp, ebx
  0022e	5b		 pop	 ebx
  0022f	c3		 ret	 0
?Clear@CPythonPlayer@@QAEXXZ ENDP			; CPythonPlayer::Clear
_TEXT	ENDS
; Function compile flags: /Ogtp
; File E:\Metin2_server\SolWayneSF v6\ClientVS22\source\UserInterface\AbstractPlayer.h
; File E:\Metin2_server\SolWayneSF v6\ClientVS22\source\UserInterface\AbstractSingleton.h
; File E:\Metin2_server\SolWayneSF v6\ClientVS22\source\UserInterface\AbstractPlayer.h
;	COMDAT ??0IAbstractPlayer@@QAE@XZ
_TEXT	SEGMENT
??0IAbstractPlayer@@QAE@XZ PROC				; IAbstractPlayer::IAbstractPlayer, COMDAT
; _this$ = ecx
; File E:\Metin2_server\SolWayneSF v6\ClientVS22\source\UserInterface\AbstractSingleton.h

; 13   : 		ms_singleton = (T*) ((int) this + offset);

  00000	89 0d 00 00 00
	00		 mov	 DWORD PTR ?ms_singleton@?$TAbstractSingleton@VIAbstractPlayer@@@@0PAVIAbstractPlayer@@A, ecx ; TAbstractSingleton<IAbstractPlayer>::ms_singleton
; File E:\Metin2_server\SolWayneSF v6\ClientVS22\source\UserInterface\AbstractPlayer.h

; 10   : 		IAbstractPlayer() {}

  00006	8b c1		 mov	 eax, ecx
  00008	c7 01 00 00 00
	00		 mov	 DWORD PTR [ecx], OFFSET ??_7IAbstractPlayer@@6B@
  0000e	c3		 ret	 0
??0IAbstractPlayer@@QAE@XZ ENDP				; IAbstractPlayer::IAbstractPlayer
_TEXT	ENDS
; Function compile flags: /Ogtp
; File E:\Metin2_server\SolWayneSF v6\ClientVS22\source\UserInterface\AbstractPlayer.h
; File E:\Metin2_server\SolWayneSF v6\ClientVS22\source\UserInterface\AbstractSingleton.h
; File E:\Metin2_server\SolWayneSF v6\ClientVS22\source\UserInterface\AbstractPlayer.h
;	COMDAT ??1IAbstractPlayer@@UAE@XZ
_TEXT	SEGMENT
??1IAbstractPlayer@@UAE@XZ PROC				; IAbstractPlayer::~IAbstractPlayer, COMDAT
; _this$ = ecx
; File E:\Metin2_server\SolWayneSF v6\ClientVS22\source\UserInterface\AbstractSingleton.h

; 17   : 	{ 

  00000	c7 01 00 00 00
	00		 mov	 DWORD PTR [ecx], OFFSET ??_7?$TAbstractSingleton@VIAbstractPlayer@@@@6B@

; 18   : 		assert(ms_singleton);
; 19   : 		ms_singleton = 0; 

  00006	c7 05 00 00 00
	00 00 00 00 00	 mov	 DWORD PTR ?ms_singleton@?$TAbstractSingleton@VIAbstractPlayer@@@@0PAVIAbstractPlayer@@A, 0 ; TAbstractSingleton<IAbstractPlayer>::ms_singleton
; File E:\Metin2_server\SolWayneSF v6\ClientVS22\source\UserInterface\AbstractPlayer.h

; 11   : 		virtual ~IAbstractPlayer() {}

  00010	c3		 ret	 0
??1IAbstractPlayer@@UAE@XZ ENDP				; IAbstractPlayer::~IAbstractPlayer
_TEXT	ENDS
; Function compile flags: /Ogtp
; File E:\Metin2_server\SolWayneSF v6\ClientVS22\source\UserInterface\AbstractSingleton.h
;	COMDAT ??_GIAbstractPlayer@@UAEPAXI@Z
_TEXT	SEGMENT
___flags$ = 8						; size = 4
??_GIAbstractPlayer@@UAEPAXI@Z PROC			; IAbstractPlayer::`scalar deleting destructor', COMDAT
; _this$ = ecx
  00000	55		 push	 ebp
  00001	8b ec		 mov	 ebp, esp
  00003	f6 45 08 01	 test	 BYTE PTR ___flags$[ebp], 1

; 17   : 	{ 

  00007	56		 push	 esi
  00008	8b f1		 mov	 esi, ecx

; 18   : 		assert(ms_singleton);
; 19   : 		ms_singleton = 0; 

  0000a	c7 05 00 00 00
	00 00 00 00 00	 mov	 DWORD PTR ?ms_singleton@?$TAbstractSingleton@VIAbstractPlayer@@@@0PAVIAbstractPlayer@@A, 0 ; TAbstractSingleton<IAbstractPlayer>::ms_singleton
  00014	c7 06 00 00 00
	00		 mov	 DWORD PTR [esi], OFFSET ??_7?$TAbstractSingleton@VIAbstractPlayer@@@@6B@
  0001a	74 0b		 je	 SHORT $LN9@scalar
  0001c	6a 04		 push	 4
  0001e	56		 push	 esi
  0001f	e8 00 00 00 00	 call	 ??3@YAXPAXI@Z		; operator delete
  00024	83 c4 08	 add	 esp, 8
$LN9@scalar:
  00027	8b c6		 mov	 eax, esi
  00029	5e		 pop	 esi
  0002a	5d		 pop	 ebp
  0002b	c2 04 00	 ret	 4
??_GIAbstractPlayer@@UAEPAXI@Z ENDP			; IAbstractPlayer::`scalar deleting destructor'
_TEXT	ENDS
; Function compile flags: /Ogtp
; File E:\Metin2_server\SolWayneSF v6\ClientVS22\source\UserInterface\PythonPlayer.h
; File C:\Program Files\Microsoft Visual Studio\2022\Community\VC\Tools\MSVC\14.34.31933\include\xstring
; File E:\Metin2_server\SolWayneSF v6\ClientVS22\source\UserInterface\PythonPlayer.h
; File C:\Program Files\Microsoft Visual Studio\2022\Community\VC\Tools\MSVC\14.34.31933\include\xstring
; File E:\Metin2_server\SolWayneSF v6\ClientVS22\source\UserInterface\PythonPlayer.h
;	COMDAT ??0SPartyMemberInfo@CPythonPlayer@@QAE@KPBD@Z
_TEXT	SEGMENT
_this$ = -4						; size = 4
__dwPID$ = 8						; size = 4
_c_szName$ = 12						; size = 4
??0SPartyMemberInfo@CPythonPlayer@@QAE@KPBD@Z PROC	; CPythonPlayer::SPartyMemberInfo::SPartyMemberInfo, COMDAT
; _this$ = ecx

; 133  : 			SPartyMemberInfo(DWORD _dwPID, const char * c_szName) : dwPID(_dwPID), strName(c_szName), dwVID(0) {}

  00000	55		 push	 ebp
  00001	8b ec		 mov	 ebp, esp
  00003	51		 push	 ecx
  00004	8b 45 08	 mov	 eax, DWORD PTR __dwPID$[ebp]
  00007	0f 57 c0	 xorps	 xmm0, xmm0
  0000a	53		 push	 ebx
  0000b	56		 push	 esi
  0000c	8b f1		 mov	 esi, ecx
  0000e	8d 4e 08	 lea	 ecx, DWORD PTR [esi+8]
  00011	89 75 fc	 mov	 DWORD PTR _this$[ebp], esi
  00014	89 46 04	 mov	 DWORD PTR [esi+4], eax
; File C:\Program Files\Microsoft Visual Studio\2022\Community\VC\Tools\MSVC\14.34.31933\include\xstring

; 415  :             return __builtin_strlen(_First);

  00017	8b 45 0c	 mov	 eax, DWORD PTR _c_szName$[ebp]
; File E:\Metin2_server\SolWayneSF v6\ClientVS22\source\UserInterface\PythonPlayer.h

; 133  : 			SPartyMemberInfo(DWORD _dwPID, const char * c_szName) : dwPID(_dwPID), strName(c_szName), dwVID(0) {}

  0001a	c7 06 00 00 00
	00		 mov	 DWORD PTR [esi], 0
; File C:\Program Files\Microsoft Visual Studio\2022\Community\VC\Tools\MSVC\14.34.31933\include\xstring

; 2339 :         _CONSTEXPR20 _Bxty() noexcept : _Buf() {} // user-provided, for fancy pointers

  00020	0f 11 01	 movups	 XMMWORD PTR [ecx], xmm0

; 2348 :     size_type _Mysize = 0; // current length of string

  00023	c7 41 10 00 00
	00 00		 mov	 DWORD PTR [ecx+16], 0

; 2349 :     size_type _Myres  = 0; // current storage reserved for string

  0002a	c7 41 14 00 00
	00 00		 mov	 DWORD PTR [ecx+20], 0

; 415  :             return __builtin_strlen(_First);

  00031	8d 58 01	 lea	 ebx, DWORD PTR [eax+1]
$LL16@SPartyMemb:
  00034	8a 10		 mov	 dl, BYTE PTR [eax]
  00036	40		 inc	 eax
  00037	84 d2		 test	 dl, dl
  00039	75 f9		 jne	 SHORT $LL16@SPartyMemb
  0003b	2b c3		 sub	 eax, ebx

; 2674 :         _Construct<_Construct_strategy::_From_ptr>(_Ptr, _Convert_size<size_type>(_Traits::length(_Ptr)));

  0003d	50		 push	 eax
  0003e	ff 75 0c	 push	 DWORD PTR _c_szName$[ebp]
  00041	e8 00 00 00 00	 call	 ??$_Construct@$00PBD@?$basic_string@DU?$char_traits@D@std@@V?$allocator@D@2@@std@@AAEXQBDI@Z ; std::basic_string<char,std::char_traits<char>,std::allocator<char> >::_Construct<1,char const *>
; File E:\Metin2_server\SolWayneSF v6\ClientVS22\source\UserInterface\PythonPlayer.h

; 133  : 			SPartyMemberInfo(DWORD _dwPID, const char * c_szName) : dwPID(_dwPID), strName(c_szName), dwVID(0) {}

  00046	8b c6		 mov	 eax, esi
  00048	5e		 pop	 esi
  00049	5b		 pop	 ebx
  0004a	8b e5		 mov	 esp, ebp
  0004c	5d		 pop	 ebp
  0004d	c2 08 00	 ret	 8
??0SPartyMemberInfo@CPythonPlayer@@QAE@KPBD@Z ENDP	; CPythonPlayer::SPartyMemberInfo::SPartyMemberInfo
_TEXT	ENDS
; Function compile flags: /Ogtp
; File E:\Metin2_server\SolWayneSF v6\ClientVS22\source\UserInterface\PythonPlayer.h
;	COMDAT ??0SAutoPotionInfo@CPythonPlayer@@QAE@XZ
_TEXT	SEGMENT
??0SAutoPotionInfo@CPythonPlayer@@QAE@XZ PROC		; CPythonPlayer::SAutoPotionInfo::SAutoPotionInfo, COMDAT
; _this$ = ecx

; 170  : 			SAutoPotionInfo() : bActivated(false), totalAmount(0), currentAmount(0) {}

  00000	c6 01 00	 mov	 BYTE PTR [ecx], 0
  00003	8b c1		 mov	 eax, ecx
  00005	c7 41 04 00 00
	00 00		 mov	 DWORD PTR [ecx+4], 0
  0000c	c7 41 08 00 00
	00 00		 mov	 DWORD PTR [ecx+8], 0
  00013	c3		 ret	 0
??0SAutoPotionInfo@CPythonPlayer@@QAE@XZ ENDP		; CPythonPlayer::SAutoPotionInfo::SAutoPotionInfo
_TEXT	ENDS
; Function compile flags: /Ogtp
; File E:\Metin2_server\SolWayneSF v6\ClientVS22\source\UserInterface\PythonPlayer.cpp
;	COMDAT ?SetPoint@SPlayerStatus@CPythonPlayer@@QAEXI_J@Z
_TEXT	SEGMENT
_ePoint$ = 8						; size = 4
_lPoint$ = 12						; size = 8
?SetPoint@SPlayerStatus@CPythonPlayer@@QAEXI_J@Z PROC	; CPythonPlayer::SPlayerStatus::SetPoint, COMDAT
; _this$ = ecx

; 25   : {

  00000	55		 push	 ebp
  00001	8b ec		 mov	 ebp, esp

; 26   : 	m_alPoint[ePoint]=lPoint ^ POINT_MAGIC_NUMBER;

  00003	8b 45 08	 mov	 eax, DWORD PTR _ePoint$[ebp]
  00006	8b 55 10	 mov	 edx, DWORD PTR _lPoint$[ebp+4]
  00009	56		 push	 esi
  0000a	8b 75 0c	 mov	 esi, DWORD PTR _lPoint$[ebp]
  0000d	81 f6 da c1 3a
	e7		 xor	 esi, -415579686		; e73ac1daH
  00013	83 f2 00	 xor	 edx, 0
  00016	89 b4 c1 80 25
	01 00		 mov	 DWORD PTR [ecx+eax*8+75136], esi
  0001d	89 94 c1 84 25
	01 00		 mov	 DWORD PTR [ecx+eax*8+75140], edx
  00024	5e		 pop	 esi

; 27   : }

  00025	5d		 pop	 ebp
  00026	c2 0c 00	 ret	 12			; 0000000cH
?SetPoint@SPlayerStatus@CPythonPlayer@@QAEXI_J@Z ENDP	; CPythonPlayer::SPlayerStatus::SetPoint
_TEXT	ENDS
; Function compile flags: /Ogtp
; File E:\Metin2_server\SolWayneSF v6\ClientVS22\source\UserInterface\PythonPlayer.cpp
;	COMDAT ?GetPoint@SPlayerStatus@CPythonPlayer@@QAE_JI@Z
_TEXT	SEGMENT
_ePoint$ = 8						; size = 4
?GetPoint@SPlayerStatus@CPythonPlayer@@QAE_JI@Z PROC	; CPythonPlayer::SPlayerStatus::GetPoint, COMDAT
; _this$ = ecx

; 30   : {

  00000	55		 push	 ebp
  00001	8b ec		 mov	 ebp, esp

; 31   : 	return m_alPoint[ePoint] ^ POINT_MAGIC_NUMBER;

  00003	8b 55 08	 mov	 edx, DWORD PTR _ePoint$[ebp]
  00006	8b 84 d1 80 25
	01 00		 mov	 eax, DWORD PTR [ecx+edx*8+75136]
  0000d	8b 94 d1 84 25
	01 00		 mov	 edx, DWORD PTR [ecx+edx*8+75140]
  00014	35 da c1 3a e7	 xor	 eax, -415579686		; e73ac1daH
  00019	83 f2 00	 xor	 edx, 0

; 32   : }

  0001c	5d		 pop	 ebp
  0001d	c2 04 00	 ret	 4
?GetPoint@SPlayerStatus@CPythonPlayer@@QAE_JI@Z ENDP	; CPythonPlayer::SPlayerStatus::GetPoint
_TEXT	ENDS
; Function compile flags: /Ogtp
; File E:\Metin2_server\SolWayneSF v6\ClientVS22\source\UserInterface\PythonPlayer.cpp
; File C:\Program Files\Microsoft Visual Studio\2022\Community\VC\Tools\MSVC\14.34.31933\include\xtree
; File C:\Program Files\Microsoft Visual Studio\2022\Community\VC\Tools\MSVC\14.34.31933\include\xstddef
; File C:\Program Files\Microsoft Visual Studio\2022\Community\VC\Tools\MSVC\14.34.31933\include\xtree
; File E:\Metin2_server\SolWayneSF v6\ClientVS22\source\UserInterface\PythonPlayer.cpp
;	COMDAT ?AffectIndexToSkillIndex@CPythonPlayer@@QAE_NKPAK@Z
_TEXT	SEGMENT
__Loc$1 = -12						; size = 12
_dwAffectIndex$ = 8					; size = 4
_pdwSkillIndex$ = 12					; size = 4
?AffectIndexToSkillIndex@CPythonPlayer@@QAE_NKPAK@Z PROC ; CPythonPlayer::AffectIndexToSkillIndex, COMDAT
; _this$ = ecx

; 35   : {

  00000	55		 push	 ebp
  00001	8b ec		 mov	 ebp, esp
  00003	83 ec 0c	 sub	 esp, 12			; 0000000cH
  00006	56		 push	 esi
; File C:\Program Files\Microsoft Visual Studio\2022\Community\VC\Tools\MSVC\14.34.31933\include\xtree

; 1367 :         const _Tree_find_result<_Nodeptr> _Loc = _Find_lower_bound(_Keyval);

  00007	8d 45 08	 lea	 eax, DWORD PTR _dwAffectIndex$[ebp]
  0000a	50		 push	 eax

; 1136 :         return iterator(_Scary->_Myhead, _Scary);

  0000b	8d b1 cc 2e 01
	00		 lea	 esi, DWORD PTR [ecx+77516]

; 1367 :         const _Tree_find_result<_Nodeptr> _Loc = _Find_lower_bound(_Keyval);

  00011	8d 45 f4	 lea	 eax, DWORD PTR __Loc$1[ebp]
  00014	8b ce		 mov	 ecx, esi
  00016	50		 push	 eax
  00017	e8 00 00 00 00	 call	 ??$_Find_lower_bound@K@?$_Tree@V?$_Tmap_traits@KKU?$less@K@std@@V?$allocator@U?$pair@$$CBKK@std@@@2@$0A@@std@@@std@@IBE?AU?$_Tree_find_result@PAU?$_Tree_node@U?$pair@$$CBKK@std@@PAX@std@@@1@ABK@Z ; std::_Tree<std::_Tmap_traits<unsigned long,unsigned long,std::less<unsigned long>,std::allocator<std::pair<unsigned long const ,unsigned long> >,0> >::_Find_lower_bound<unsigned long>

; 1605 :         return !_Bound->_Isnil && !_DEBUG_LT_PRED(_Getcomp(), _Keyval, _Traits::_Kfn(_Bound->_Myval));

  0001c	8b 55 fc	 mov	 edx, DWORD PTR __Loc$1[ebp+8]
  0001f	80 7a 0d 00	 cmp	 BYTE PTR [edx+13], 0
  00023	75 27		 jne	 SHORT $LN31@AffectInde
; File C:\Program Files\Microsoft Visual Studio\2022\Community\VC\Tools\MSVC\14.34.31933\include\xstddef

; 143  :         return _Left < _Right;

  00025	8b 45 08	 mov	 eax, DWORD PTR _dwAffectIndex$[ebp]
  00028	3b 42 10	 cmp	 eax, DWORD PTR [edx+16]
; File C:\Program Files\Microsoft Visual Studio\2022\Community\VC\Tools\MSVC\14.34.31933\include\xtree

; 1605 :         return !_Bound->_Isnil && !_DEBUG_LT_PRED(_Getcomp(), _Keyval, _Traits::_Kfn(_Bound->_Myval));

  0002b	72 1f		 jb	 SHORT $LN31@AffectInde

; 233  :         return this->_Ptr == _Right._Ptr;

  0002d	39 16		 cmp	 DWORD PTR [esi], edx
; File E:\Metin2_server\SolWayneSF v6\ClientVS22\source\UserInterface\PythonPlayer.cpp

; 36   : 	if (m_kMap_dwAffectIndexToSkillIndex.end() == m_kMap_dwAffectIndexToSkillIndex.find(dwAffectIndex))

  0002f	74 1b		 je	 SHORT $LN31@AffectInde

; 38   : 
; 39   : 	*pdwSkillIndex = m_kMap_dwAffectIndexToSkillIndex[dwAffectIndex];

  00031	8d 45 08	 lea	 eax, DWORD PTR _dwAffectIndex$[ebp]
  00034	8b ce		 mov	 ecx, esi
  00036	50		 push	 eax
  00037	e8 00 00 00 00	 call	 ??A?$map@KKU?$less@K@std@@V?$allocator@U?$pair@$$CBKK@std@@@2@@std@@QAEAAKABK@Z ; std::map<unsigned long,unsigned long,std::less<unsigned long>,std::allocator<std::pair<unsigned long const ,unsigned long> > >::operator[]
  0003c	5e		 pop	 esi
  0003d	8b 08		 mov	 ecx, DWORD PTR [eax]
  0003f	8b 45 0c	 mov	 eax, DWORD PTR _pdwSkillIndex$[ebp]
  00042	89 08		 mov	 DWORD PTR [eax], ecx

; 40   : 	return true;

  00044	b0 01		 mov	 al, 1

; 41   : }

  00046	8b e5		 mov	 esp, ebp
  00048	5d		 pop	 ebp
  00049	c2 08 00	 ret	 8
$LN31@AffectInde:

; 37   : 		return false;

  0004c	32 c0		 xor	 al, al
  0004e	5e		 pop	 esi

; 41   : }

  0004f	8b e5		 mov	 esp, ebp
  00051	5d		 pop	 ebp
  00052	c2 08 00	 ret	 8
?AffectIndexToSkillIndex@CPythonPlayer@@QAE_NKPAK@Z ENDP ; CPythonPlayer::AffectIndexToSkillIndex
_TEXT	ENDS
; Function compile flags: /Ogtp
; File E:\Metin2_server\SolWayneSF v6\ClientVS22\source\UserInterface\PythonPlayer.cpp
;	COMDAT ?__GetPickedActorPtr@CPythonPlayer@@IAE_NPAPAVCInstanceBase@@@Z
_TEXT	SEGMENT
_ppkInstPicked$ = 8					; size = 4
?__GetPickedActorPtr@CPythonPlayer@@IAE_NPAPAVCInstanceBase@@@Z PROC ; CPythonPlayer::__GetPickedActorPtr, COMDAT
; _this$dead$ = ecx

; 51   : {

  00000	55		 push	 ebp
  00001	8b ec		 mov	 ebp, esp

; 52   : 	CPythonCharacterManager& rkChrMgr=CPythonCharacterManager::Instance();
; 53   : 	CInstanceBase* pkInstPicked=rkChrMgr.OLD_GetPickedInstancePtr();

  00003	8b 0d 00 00 00
	00		 mov	 ecx, DWORD PTR ?ms_singleton@?$CSingleton@VCPythonCharacterManager@@@@0PAVCPythonCharacterManager@@A ; CSingleton<CPythonCharacterManager>::ms_singleton
  00009	e8 00 00 00 00	 call	 ?OLD_GetPickedInstancePtr@CPythonCharacterManager@@QAEPAVCInstanceBase@@XZ ; CPythonCharacterManager::OLD_GetPickedInstancePtr
  0000e	8b c8		 mov	 ecx, eax

; 54   : 	if (!pkInstPicked)

  00010	85 c9		 test	 ecx, ecx
  00012	75 06		 jne	 SHORT $LN2@GetPickedA

; 55   : 		return false;

  00014	32 c0		 xor	 al, al

; 59   : }

  00016	5d		 pop	 ebp
  00017	c2 04 00	 ret	 4
$LN2@GetPickedA:

; 56   : 
; 57   : 	*ppkInstPicked=pkInstPicked;

  0001a	8b 45 08	 mov	 eax, DWORD PTR _ppkInstPicked$[ebp]
  0001d	89 08		 mov	 DWORD PTR [eax], ecx

; 58   : 	return true;

  0001f	b0 01		 mov	 al, 1

; 59   : }

  00021	5d		 pop	 ebp
  00022	c2 04 00	 ret	 4
?__GetPickedActorPtr@CPythonPlayer@@IAE_NPAPAVCInstanceBase@@@Z ENDP ; CPythonPlayer::__GetPickedActorPtr
_TEXT	ENDS
; Function compile flags: /Ogtp
; File E:\Metin2_server\SolWayneSF v6\ClientVS22\source\UserInterface\PythonPlayer.cpp
;	COMDAT ?__GetPickedActorID@CPythonPlayer@@IAE_NPAK@Z
_TEXT	SEGMENT
_pdwActorID$ = 8					; size = 4
?__GetPickedActorID@CPythonPlayer@@IAE_NPAK@Z PROC	; CPythonPlayer::__GetPickedActorID, COMDAT
; _this$dead$ = ecx

; 62   : {

  00000	55		 push	 ebp
  00001	8b ec		 mov	 ebp, esp

; 63   : 	CPythonCharacterManager& rkChrMgr=CPythonCharacterManager::Instance();
; 64   : 	return rkChrMgr.OLD_GetPickedInstanceVID(pdwActorID);

  00003	8b 0d 00 00 00
	00		 mov	 ecx, DWORD PTR ?ms_singleton@?$CSingleton@VCPythonCharacterManager@@@@0PAVCPythonCharacterManager@@A ; CSingleton<CPythonCharacterManager>::ms_singleton

; 65   : }

  00009	5d		 pop	 ebp

; 63   : 	CPythonCharacterManager& rkChrMgr=CPythonCharacterManager::Instance();
; 64   : 	return rkChrMgr.OLD_GetPickedInstanceVID(pdwActorID);

  0000a	e9 00 00 00 00	 jmp	 ?OLD_GetPickedInstanceVID@CPythonCharacterManager@@QAE_NPAK@Z ; CPythonCharacterManager::OLD_GetPickedInstanceVID
?__GetPickedActorID@CPythonPlayer@@IAE_NPAK@Z ENDP	; CPythonPlayer::__GetPickedActorID
_TEXT	ENDS
; Function compile flags: /Ogtp
; File E:\Metin2_server\SolWayneSF v6\ClientVS22\source\UserInterface\PythonPlayer.cpp
;	COMDAT ?__GetPickedItemID@CPythonPlayer@@IAE_NPAK@Z
_TEXT	SEGMENT
_pdwItemID$ = 8						; size = 4
?__GetPickedItemID@CPythonPlayer@@IAE_NPAK@Z PROC	; CPythonPlayer::__GetPickedItemID, COMDAT
; _this$dead$ = ecx

; 68   : {

  00000	55		 push	 ebp
  00001	8b ec		 mov	 ebp, esp

; 69   : 	CPythonItem& rkItemMgr=CPythonItem::Instance();
; 70   : 	return rkItemMgr.GetPickedItemID(pdwItemID);

  00003	8b 0d 00 00 00
	00		 mov	 ecx, DWORD PTR ?ms_singleton@?$CSingleton@VCPythonItem@@@@0PAVCPythonItem@@A ; CSingleton<CPythonItem>::ms_singleton

; 71   : }

  00009	5d		 pop	 ebp

; 69   : 	CPythonItem& rkItemMgr=CPythonItem::Instance();
; 70   : 	return rkItemMgr.GetPickedItemID(pdwItemID);

  0000a	e9 00 00 00 00	 jmp	 ?GetPickedItemID@CPythonItem@@QAE_NPAK@Z ; CPythonItem::GetPickedItemID
?__GetPickedItemID@CPythonPlayer@@IAE_NPAK@Z ENDP	; CPythonPlayer::__GetPickedItemID
_TEXT	ENDS
; Function compile flags: /Ogtp
; File E:\Metin2_server\SolWayneSF v6\ClientVS22\source\UserInterface\PythonPlayer.cpp
;	COMDAT ?__GetPickedGroundPos@CPythonPlayer@@IAE_NPAUD3DXVECTOR3@@@Z
_TEXT	SEGMENT
_pkPPosPicked$ = 8					; size = 4
?__GetPickedGroundPos@CPythonPlayer@@IAE_NPAUD3DXVECTOR3@@@Z PROC ; CPythonPlayer::__GetPickedGroundPos, COMDAT
; _this$dead$ = ecx

; 74   : {

  00000	55		 push	 ebp
  00001	8b ec		 mov	 ebp, esp

; 75   : 	CPythonBackground& rkBG=CPythonBackground::Instance();
; 76   : 
; 77   : 	TPixelPosition kPPosPicked;
; 78   : 	if (rkBG.GetPickingPoint(pkPPosPicked))

  00003	8b 0d 00 00 00
	00		 mov	 ecx, DWORD PTR ?ms_singleton@?$CSingleton@VCPythonBackground@@@@0PAVCPythonBackground@@A ; CSingleton<CPythonBackground>::ms_singleton
  00009	56		 push	 esi
  0000a	8b 75 08	 mov	 esi, DWORD PTR _pkPPosPicked$[ebp]
  0000d	56		 push	 esi
  0000e	e8 00 00 00 00	 call	 ?GetPickingPoint@CPythonBackground@@QAE_NPAUD3DXVECTOR3@@@Z ; CPythonBackground::GetPickingPoint
  00013	84 c0		 test	 al, al
  00015	74 18		 je	 SHORT $LN2@GetPickedG

; 79   : 	{
; 80   : 		pkPPosPicked->y=-pkPPosPicked->y;

  00017	f3 0f 10 46 04	 movss	 xmm0, DWORD PTR [esi+4]

; 81   : 		return true;

  0001c	b0 01		 mov	 al, 1
  0001e	0f 57 05 00 00
	00 00		 xorps	 xmm0, DWORD PTR __xmm@80000000800000008000000080000000
  00025	f3 0f 11 46 04	 movss	 DWORD PTR [esi+4], xmm0
  0002a	5e		 pop	 esi

; 85   : }

  0002b	5d		 pop	 ebp
  0002c	c2 04 00	 ret	 4
$LN2@GetPickedG:

; 82   : 	}
; 83   : 
; 84   : 	return false;

  0002f	32 c0		 xor	 al, al
  00031	5e		 pop	 esi

; 85   : }

  00032	5d		 pop	 ebp
  00033	c2 04 00	 ret	 4
?__GetPickedGroundPos@CPythonPlayer@@IAE_NPAUD3DXVECTOR3@@@Z ENDP ; CPythonPlayer::__GetPickedGroundPos
_TEXT	ENDS
; Function compile flags: /Ogtp
; File E:\Metin2_server\SolWayneSF v6\ClientVS22\source\UserInterface\PythonPlayer.cpp
;	COMDAT ?RegisterEffect@CPythonPlayer@@QAE_NKPBD_N@Z
_TEXT	SEGMENT
_dwEID$ = 8						; size = 4
_c_szFileName$ = 12					; size = 4
_isCache$ = 16						; size = 1
?RegisterEffect@CPythonPlayer@@QAE_NKPBD_N@Z PROC	; CPythonPlayer::RegisterEffect, COMDAT
; _this$ = ecx

; 106  : {

  00000	55		 push	 ebp
  00001	8b ec		 mov	 ebp, esp
  00003	8b 45 08	 mov	 eax, DWORD PTR _dwEID$[ebp]

; 107  : 	if (dwEID>=EFFECT_NUM)

  00006	83 f8 01	 cmp	 eax, 1
  00009	72 06		 jb	 SHORT $LN2@RegisterEf

; 108  : 		return false;

  0000b	32 c0		 xor	 al, al

; 113  : }

  0000d	5d		 pop	 ebp
  0000e	c2 0c 00	 ret	 12			; 0000000cH
$LN2@RegisterEf:

; 109  : 
; 110  : 	CEffectManager& rkEftMgr=CEffectManager::Instance();
; 111  : 	rkEftMgr.RegisterEffect2(c_szFileName, &m_adwEffect[dwEID], isCache);

  00011	ff 75 10	 push	 DWORD PTR _isCache$[ebp]
  00014	81 c1 84 2e 01
	00		 add	 ecx, 77444		; 00012e84H
  0001a	8d 04 81	 lea	 eax, DWORD PTR [ecx+eax*4]
  0001d	8b 0d 00 00 00
	00		 mov	 ecx, DWORD PTR ?ms_singleton@?$CSingleton@VCEffectManager@@@@0PAVCEffectManager@@A ; CSingleton<CEffectManager>::ms_singleton
  00023	50		 push	 eax
  00024	ff 75 0c	 push	 DWORD PTR _c_szFileName$[ebp]
  00027	e8 00 00 00 00	 call	 ?RegisterEffect2@CEffectManager@@QAEHPBDPAK_N@Z ; CEffectManager::RegisterEffect2

; 112  : 	return true;

  0002c	b0 01		 mov	 al, 1

; 113  : }

  0002e	5d		 pop	 ebp
  0002f	c2 0c 00	 ret	 12			; 0000000cH
?RegisterEffect@CPythonPlayer@@QAE_NKPBD_N@Z ENDP	; CPythonPlayer::RegisterEffect
_TEXT	ENDS
; Function compile flags: /Ogtp
; File E:\Metin2_server\SolWayneSF v6\ClientVS22\source\UserInterface\PythonPlayer.cpp
; File E:\Metin2_server\SolWayneSF v6\ClientVS22\extern\include\d3dx8math.inl
; File E:\Metin2_server\SolWayneSF v6\ClientVS22\source\UserInterface\PythonPlayer.cpp
; File E:\Metin2_server\SolWayneSF v6\ClientVS22\extern\include\d3dx8math.inl
; File E:\Metin2_server\SolWayneSF v6\ClientVS22\source\UserInterface\PythonPlayer.cpp
; File E:\Metin2_server\SolWayneSF v6\ClientVS22\extern\include\d3dx8math.inl
; File E:\Metin2_server\SolWayneSF v6\ClientVS22\source\UserInterface\PythonPlayer.cpp
; File E:\Metin2_server\SolWayneSF v6\ClientVS22\extern\include\d3dx8math.inl
; File E:\Metin2_server\SolWayneSF v6\ClientVS22\source\UserInterface\PythonPlayer.cpp
;	COMDAT ?NEW_ShowEffect@CPythonPlayer@@IAEXHUD3DXVECTOR3@@@Z
_TEXT	SEGMENT
_kD3DVt3Pos$ = -28					; size = 12
_kD3DVt3Dir$ = -16					; size = 12
__$ArrayPad$ = -4					; size = 4
_dwEID$dead$ = 8					; size = 4
_kPPosDst$ = 12						; size = 12
?NEW_ShowEffect@CPythonPlayer@@IAEXHUD3DXVECTOR3@@@Z PROC ; CPythonPlayer::NEW_ShowEffect, COMDAT
; _this$ = ecx

; 116  : {

  00000	55		 push	 ebp
  00001	8b ec		 mov	 ebp, esp
  00003	83 ec 1c	 sub	 esp, 28			; 0000001cH
  00006	a1 00 00 00 00	 mov	 eax, DWORD PTR ___security_cookie
  0000b	33 c5		 xor	 eax, ebp
  0000d	89 45 fc	 mov	 DWORD PTR __$ArrayPad$[ebp], eax
; File E:\Metin2_server\SolWayneSF v6\ClientVS22\extern\include\d3dx8math.inl

; 180  :     x = fx;

  00010	f3 0f 10 45 0c	 movss	 xmm0, DWORD PTR _kPPosDst$[ebp]
; File E:\Metin2_server\SolWayneSF v6\ClientVS22\source\UserInterface\PythonPlayer.cpp

; 124  : 	rkEftMgr.CreateEffect(m_adwEffect[dwEID], kD3DVt3Pos, kD3DVt3Dir);

  00015	8d 45 f0	 lea	 eax, DWORD PTR _kD3DVt3Dir$[ebp]
; File E:\Metin2_server\SolWayneSF v6\ClientVS22\extern\include\d3dx8math.inl

; 180  :     x = fx;

  00018	f3 0f 11 45 e4	 movss	 DWORD PTR _kD3DVt3Pos$[ebp], xmm0
; File E:\Metin2_server\SolWayneSF v6\ClientVS22\source\UserInterface\PythonPlayer.cpp

; 120  : 	D3DXVECTOR3 kD3DVt3Pos(kPPosDst.x, -kPPosDst.y, kPPosDst.z);

  0001d	f3 0f 10 45 10	 movss	 xmm0, DWORD PTR _kPPosDst$[ebp+4]
  00022	0f 57 05 00 00
	00 00		 xorps	 xmm0, DWORD PTR __xmm@80000000800000008000000080000000

; 124  : 	rkEftMgr.CreateEffect(m_adwEffect[dwEID], kD3DVt3Pos, kD3DVt3Dir);

  00029	50		 push	 eax
  0002a	8d 45 e4	 lea	 eax, DWORD PTR _kD3DVt3Pos$[ebp]
; File E:\Metin2_server\SolWayneSF v6\ClientVS22\extern\include\d3dx8math.inl

; 181  :     y = fy;

  0002d	f3 0f 11 45 e8	 movss	 DWORD PTR _kD3DVt3Pos$[ebp+4], xmm0

; 182  :     z = fz;

  00032	f3 0f 10 45 14	 movss	 xmm0, DWORD PTR _kPPosDst$[ebp+8]
; File E:\Metin2_server\SolWayneSF v6\ClientVS22\source\UserInterface\PythonPlayer.cpp

; 124  : 	rkEftMgr.CreateEffect(m_adwEffect[dwEID], kD3DVt3Pos, kD3DVt3Dir);

  00037	50		 push	 eax
  00038	ff b1 84 2e 01
	00		 push	 DWORD PTR [ecx+77444]
  0003e	8b 0d 00 00 00
	00		 mov	 ecx, DWORD PTR ?ms_singleton@?$CSingleton@VCEffectManager@@@@0PAVCEffectManager@@A ; CSingleton<CEffectManager>::ms_singleton
; File E:\Metin2_server\SolWayneSF v6\ClientVS22\extern\include\d3dx8math.inl

; 182  :     z = fz;

  00044	f3 0f 11 45 ec	 movss	 DWORD PTR _kD3DVt3Pos$[ebp+8], xmm0

; 180  :     x = fx;

  00049	c7 45 f0 00 00
	00 00		 mov	 DWORD PTR _kD3DVt3Dir$[ebp], 0

; 181  :     y = fy;

  00050	c7 45 f4 00 00
	00 00		 mov	 DWORD PTR _kD3DVt3Dir$[ebp+4], 0

; 182  :     z = fz;

  00057	c7 45 f8 00 00
	80 3f		 mov	 DWORD PTR _kD3DVt3Dir$[ebp+8], 1065353216 ; 3f800000H
; File E:\Metin2_server\SolWayneSF v6\ClientVS22\source\UserInterface\PythonPlayer.cpp

; 124  : 	rkEftMgr.CreateEffect(m_adwEffect[dwEID], kD3DVt3Pos, kD3DVt3Dir);

  0005e	e8 00 00 00 00	 call	 ?CreateEffect@CEffectManager@@QAEHKABUD3DXVECTOR3@@0@Z ; CEffectManager::CreateEffect

; 125  : }

  00063	8b 4d fc	 mov	 ecx, DWORD PTR __$ArrayPad$[ebp]
  00066	33 cd		 xor	 ecx, ebp
  00068	e8 00 00 00 00	 call	 @__security_check_cookie@4
  0006d	8b e5		 mov	 esp, ebp
  0006f	5d		 pop	 ebp
  00070	c2 10 00	 ret	 16			; 00000010H
?NEW_ShowEffect@CPythonPlayer@@IAEXHUD3DXVECTOR3@@@Z ENDP ; CPythonPlayer::NEW_ShowEffect
_TEXT	ENDS
; Function compile flags: /Ogtp
; File E:\Metin2_server\SolWayneSF v6\ClientVS22\source\UserInterface\PythonPlayer.cpp
;	COMDAT ?NEW_FindActorPtr@CPythonPlayer@@QAEPAVCInstanceBase@@K@Z
_TEXT	SEGMENT
_dwVID$ = 8						; size = 4
?NEW_FindActorPtr@CPythonPlayer@@QAEPAVCInstanceBase@@K@Z PROC ; CPythonPlayer::NEW_FindActorPtr, COMDAT
; _this$dead$ = ecx

; 128  : {

  00000	55		 push	 ebp
  00001	8b ec		 mov	 ebp, esp

; 129  : 	CPythonCharacterManager& rkChrMgr = CPythonCharacterManager::Instance();
; 130  : 	return rkChrMgr.GetInstancePtr(dwVID);

  00003	8b 0d 00 00 00
	00		 mov	 ecx, DWORD PTR ?ms_singleton@?$CSingleton@VCPythonCharacterManager@@@@0PAVCPythonCharacterManager@@A ; CSingleton<CPythonCharacterManager>::ms_singleton
  00009	8b 41 04	 mov	 eax, DWORD PTR [ecx+4]
  0000c	8d 49 04	 lea	 ecx, DWORD PTR [ecx+4]

; 131  : }

  0000f	5d		 pop	 ebp

; 129  : 	CPythonCharacterManager& rkChrMgr = CPythonCharacterManager::Instance();
; 130  : 	return rkChrMgr.GetInstancePtr(dwVID);

  00010	ff 60 08	 jmp	 DWORD PTR [eax+8]
?NEW_FindActorPtr@CPythonPlayer@@QAEPAVCInstanceBase@@K@Z ENDP ; CPythonPlayer::NEW_FindActorPtr
_TEXT	ENDS
; Function compile flags: /Ogtp
; File E:\Metin2_server\SolWayneSF v6\ClientVS22\source\UserInterface\PythonPlayer.cpp
;	COMDAT ?NEW_GetMainActorPtr@CPythonPlayer@@UAEPAVCInstanceBase@@XZ
_TEXT	SEGMENT
?NEW_GetMainActorPtr@CPythonPlayer@@UAEPAVCInstanceBase@@XZ PROC ; CPythonPlayer::NEW_GetMainActorPtr, COMDAT
; _this$ = ecx

; 135  : 	return NEW_FindActorPtr(m_dwMainCharacterIndex);

  00000	ff 71 28	 push	 DWORD PTR [ecx+40]
  00003	e8 00 00 00 00	 call	 ?NEW_FindActorPtr@CPythonPlayer@@QAEPAVCInstanceBase@@K@Z ; CPythonPlayer::NEW_FindActorPtr

; 136  : }

  00008	c3		 ret	 0
?NEW_GetMainActorPtr@CPythonPlayer@@UAEPAVCInstanceBase@@XZ ENDP ; CPythonPlayer::NEW_GetMainActorPtr
_TEXT	ENDS
; Function compile flags: /Ogtp
; File E:\Metin2_server\SolWayneSF v6\ClientVS22\source\UserInterface\PythonPlayer.cpp
;	COMDAT ?__IsUsingChargeSkill@CPythonPlayer@@IAE_NXZ
_TEXT	SEGMENT
_pSkillData$ = -4					; size = 4
?__IsUsingChargeSkill@CPythonPlayer@@IAE_NXZ PROC	; CPythonPlayer::__IsUsingChargeSkill, COMDAT
; _this$ = ecx

; 184  : {

  00000	55		 push	 ebp
  00001	8b ec		 mov	 ebp, esp
  00003	51		 push	 ecx
  00004	56		 push	 esi
  00005	8b f1		 mov	 esi, ecx

; 185  : 	CInstanceBase * pkInstMain = NEW_GetMainActorPtr();

  00007	8b 46 04	 mov	 eax, DWORD PTR [esi+4]
  0000a	8d 4e 04	 lea	 ecx, DWORD PTR [esi+4]
  0000d	ff 90 88 00 00
	00		 call	 DWORD PTR [eax+136]

; 186  : 	if (!pkInstMain)

  00013	85 c0		 test	 eax, eax
  00015	74 53		 je	 SHORT $LN8@IsUsingCha

; 187  : 		return false;
; 188  : 
; 189  : 	if (__CheckDashAffect(*pkInstMain))

  00017	50		 push	 eax
  00018	e8 00 00 00 00	 call	 ?__CheckDashAffect@CPythonPlayer@@IAE_NAAVCInstanceBase@@@Z ; CPythonPlayer::__CheckDashAffect
  0001d	84 c0		 test	 al, al
  0001f	74 07		 je	 SHORT $LN3@IsUsingCha

; 190  : 		return true;

  00021	b0 01		 mov	 al, 1
  00023	5e		 pop	 esi

; 205  : }

  00024	8b e5		 mov	 esp, ebp
  00026	5d		 pop	 ebp
  00027	c3		 ret	 0
$LN3@IsUsingCha:

; 191  : 
; 192  : 	if (MODE_USE_SKILL != m_eReservedMode)

  00028	83 7e 54 04	 cmp	 DWORD PTR [esi+84], 4
  0002c	75 3c		 jne	 SHORT $LN8@IsUsingCha

; 193  : 		return false;
; 194  : 
; 195  : 	if (m_dwSkillSlotIndexReserved >= SKILL_MAX_NUM)

  0002e	8b 86 00 2e 01
	00		 mov	 eax, DWORD PTR [esi+77312]
  00034	3d ff 00 00 00	 cmp	 eax, 255		; 000000ffH
  00039	73 2f		 jae	 SHORT $LN8@IsUsingCha

; 196  : 		return false;
; 197  : 
; 198  : 	TSkillInstance & rkSkillInst = m_playerStatus.aSkill[m_dwSkillSlotIndexReserved];
; 199  : 
; 200  : 	CPythonSkill::TSkillData * pSkillData;
; 201  : 	if (!CPythonSkill::Instance().GetSkillData(rkSkillInst.dwIndex, &pSkillData))

  0003b	8d 4d fc	 lea	 ecx, DWORD PTR _pSkillData$[ebp]
  0003e	51		 push	 ecx
  0003f	8b 0d 00 00 00
	00		 mov	 ecx, DWORD PTR ?ms_singleton@?$CSingleton@VCPythonSkill@@@@0PAVCPythonSkill@@A ; CSingleton<CPythonSkill>::ms_singleton
  00045	8d 04 80	 lea	 eax, DWORD PTR [eax+eax*4]
  00048	ff b4 c6 14 fe
	00 00		 push	 DWORD PTR [esi+eax*8+65044]
  0004f	e8 00 00 00 00	 call	 ?GetSkillData@CPythonSkill@@QAEHKPAPAUSSkillData@1@@Z ; CPythonSkill::GetSkillData
  00054	85 c0		 test	 eax, eax
  00056	74 12		 je	 SHORT $LN8@IsUsingCha

; 203  : 
; 204  : 	return pSkillData->IsChargeSkill() ? true : false;

  00058	8b 4d fc	 mov	 ecx, DWORD PTR _pSkillData$[ebp]
  0005b	e8 00 00 00 00	 call	 ?IsChargeSkill@SSkillData@CPythonSkill@@QAEHXZ ; CPythonSkill::SSkillData::IsChargeSkill
  00060	85 c0		 test	 eax, eax
  00062	5e		 pop	 esi
  00063	0f 95 c0	 setne	 al

; 205  : }

  00066	8b e5		 mov	 esp, ebp
  00068	5d		 pop	 ebp
  00069	c3		 ret	 0
$LN8@IsUsingCha:

; 202  : 		return false;

  0006a	32 c0		 xor	 al, al
  0006c	5e		 pop	 esi

; 205  : }

  0006d	8b e5		 mov	 esp, ebp
  0006f	5d		 pop	 ebp
  00070	c3		 ret	 0
?__IsUsingChargeSkill@CPythonPlayer@@IAE_NXZ ENDP	; CPythonPlayer::__IsUsingChargeSkill
_TEXT	ENDS
; Function compile flags: /Ogtp
; File E:\Metin2_server\SolWayneSF v6\ClientVS22\source\UserInterface\PythonPlayer.cpp
;	COMDAT ?__Update_AutoAttack@CPythonPlayer@@IAEXXZ
_TEXT	SEGMENT
?__Update_AutoAttack@CPythonPlayer@@IAEXXZ PROC		; CPythonPlayer::__Update_AutoAttack, COMDAT
; _this$ = ecx

; 208  : {

  00000	56		 push	 esi
  00001	8b f1		 mov	 esi, ecx

; 209  : 	if (0 == m_dwAutoAttackTargetVID)

  00003	83 7e 50 00	 cmp	 DWORD PTR [esi+80], 0
  00007	74 71		 je	 SHORT $LN13@Update_Aut

; 210  : 		return;
; 211  : 
; 212  : 	CInstanceBase * pkInstMain = NEW_GetMainActorPtr();

  00009	8b 46 04	 mov	 eax, DWORD PTR [esi+4]
  0000c	8d 4e 04	 lea	 ecx, DWORD PTR [esi+4]
  0000f	57		 push	 edi
  00010	ff 90 88 00 00
	00		 call	 DWORD PTR [eax+136]
  00016	8b f8		 mov	 edi, eax

; 213  : 	if (!pkInstMain)

  00018	85 ff		 test	 edi, edi
  0001a	74 5d		 je	 SHORT $LN18@Update_Aut

; 214  : 		return;
; 215  : 
; 216  : 	//     
; 217  : 	if (__IsUsingChargeSkill())

  0001c	8b ce		 mov	 ecx, esi
  0001e	e8 00 00 00 00	 call	 ?__IsUsingChargeSkill@CPythonPlayer@@IAE_NXZ ; CPythonPlayer::__IsUsingChargeSkill
  00023	84 c0		 test	 al, al
  00025	75 52		 jne	 SHORT $LN18@Update_Aut

; 218  : 		return;
; 219  : 
; 220  : 	CInstanceBase* pkInstVictim=NEW_FindActorPtr(m_dwAutoAttackTargetVID);

  00027	53		 push	 ebx
  00028	ff 76 50	 push	 DWORD PTR [esi+80]
  0002b	e8 00 00 00 00	 call	 ?NEW_FindActorPtr@CPythonPlayer@@QAEPAVCInstanceBase@@K@Z ; CPythonPlayer::NEW_FindActorPtr
  00030	8b d8		 mov	 ebx, eax

; 221  : 	if (!pkInstVictim)

  00032	85 db		 test	 ebx, ebx
  00034	74 46		 je	 SHORT $LN15@Update_Aut

; 222  : 	{
; 223  : 		__ClearAutoAttackTargetActorID();
; 224  : 	}
; 225  : 	else
; 226  : 	{
; 227  : 		if (pkInstVictim->IsDead())

  00036	8b cb		 mov	 ecx, ebx
  00038	e8 00 00 00 00	 call	 ?IsDead@CInstanceBase@@QAEHXZ ; CInstanceBase::IsDead
  0003d	85 c0		 test	 eax, eax
  0003f	75 3b		 jne	 SHORT $LN15@Update_Aut

; 228  : 		{
; 229  : 			__ClearAutoAttackTargetActorID();
; 230  : 		}
; 231  : 		else if (pkInstMain->IsMountingHorse() && !pkInstMain->CanAttackHorseLevel())

  00041	8b cf		 mov	 ecx, edi
  00043	e8 00 00 00 00	 call	 ?IsMountingHorse@CInstanceBase@@QAEHXZ ; CInstanceBase::IsMountingHorse
  00048	85 c0		 test	 eax, eax
  0004a	74 0b		 je	 SHORT $LN9@Update_Aut
  0004c	8b cf		 mov	 ecx, edi
  0004e	e8 00 00 00 00	 call	 ?CanAttackHorseLevel@CInstanceBase@@QAEHXZ ; CInstanceBase::CanAttackHorseLevel
  00053	85 c0		 test	 eax, eax
  00055	74 25		 je	 SHORT $LN15@Update_Aut
$LN9@Update_Aut:

; 234  : 		}
; 235  : 		else if (pkInstMain->IsAttackableInstance(*pkInstVictim))

  00057	53		 push	 ebx
  00058	8b cf		 mov	 ecx, edi
  0005a	e8 00 00 00 00	 call	 ?IsAttackableInstance@CInstanceBase@@QAE_NAAV1@@Z ; CInstanceBase::IsAttackableInstance
  0005f	84 c0		 test	 al, al
  00061	74 15		 je	 SHORT $LN19@Update_Aut

; 236  : 		{
; 237  : 			if (pkInstMain->IsSleep())

  00063	8b cf		 mov	 ecx, edi
  00065	e8 00 00 00 00	 call	 ?IsSleep@CInstanceBase@@QAEHXZ ; CInstanceBase::IsSleep
  0006a	85 c0		 test	 eax, eax
  0006c	75 0a		 jne	 SHORT $LN19@Update_Aut

; 238  : 			{
; 239  : 				//TraceError("SKIP_AUTO_ATTACK_IN_SLEEPING");
; 240  : 			}
; 241  : 			else
; 242  : 			{
; 243  : 				__ReserveClickActor(m_dwAutoAttackTargetVID);

  0006e	ff 76 50	 push	 DWORD PTR [esi+80]
  00071	8b ce		 mov	 ecx, esi
  00073	e8 00 00 00 00	 call	 ?__ReserveClickActor@CPythonPlayer@@IAEXK@Z ; CPythonPlayer::__ReserveClickActor
$LN19@Update_Aut:
  00078	5b		 pop	 ebx
$LN18@Update_Aut:
  00079	5f		 pop	 edi
$LN13@Update_Aut:
  0007a	5e		 pop	 esi

; 244  : 			}
; 245  : 		}
; 246  : 	}
; 247  : }

  0007b	c3		 ret	 0
$LN15@Update_Aut:
  0007c	5b		 pop	 ebx
  0007d	5f		 pop	 edi

; 232  : 		{
; 233  : 			__ClearAutoAttackTargetActorID();

  0007e	8b ce		 mov	 ecx, esi
  00080	5e		 pop	 esi
  00081	e9 00 00 00 00	 jmp	 ?__ClearAutoAttackTargetActorID@CPythonPlayer@@IAEXXZ ; CPythonPlayer::__ClearAutoAttackTargetActorID
?__Update_AutoAttack@CPythonPlayer@@IAEXXZ ENDP		; CPythonPlayer::__Update_AutoAttack
_TEXT	ENDS
; Function compile flags: /Ogtp
; File E:\Metin2_server\SolWayneSF v6\ClientVS22\source\UserInterface\PythonPlayer.cpp
;	COMDAT ?__Update_NotifyGuildAreaEvent@CPythonPlayer@@IAEXXZ
_TEXT	SEGMENT
_kPixelPosition$1 = -12					; size = 12
?__Update_NotifyGuildAreaEvent@CPythonPlayer@@IAEXXZ PROC ; CPythonPlayer::__Update_NotifyGuildAreaEvent, COMDAT
; _this$ = ecx

; 250  : {

  00000	55		 push	 ebp
  00001	8b ec		 mov	 ebp, esp
  00003	83 ec 0c	 sub	 esp, 12			; 0000000cH
  00006	57		 push	 edi
  00007	8b f9		 mov	 edi, ecx

; 251  : 	CInstanceBase * pkInstMain = NEW_GetMainActorPtr();

  00009	8b 47 04	 mov	 eax, DWORD PTR [edi+4]
  0000c	8d 4f 04	 lea	 ecx, DWORD PTR [edi+4]
  0000f	ff 90 88 00 00
	00		 call	 DWORD PTR [eax+136]

; 252  : 	if (pkInstMain)

  00015	85 c0		 test	 eax, eax
  00017	74 70		 je	 SHORT $LN3@Update_Not

; 253  : 	{
; 254  : 		TPixelPosition kPixelPosition;
; 255  : 		pkInstMain->NEW_GetPixelPosition(&kPixelPosition);

  00019	56		 push	 esi
  0001a	8d 4d f4	 lea	 ecx, DWORD PTR _kPixelPosition$1[ebp]
  0001d	51		 push	 ecx
  0001e	8b c8		 mov	 ecx, eax
  00020	e8 00 00 00 00	 call	 ?NEW_GetPixelPosition@CInstanceBase@@QAEXPAUD3DXVECTOR3@@@Z ; CInstanceBase::NEW_GetPixelPosition

; 256  : 
; 257  : 		DWORD dwAreaID = CPythonMiniMap::Instance().GetGuildAreaID(

  00025	f3 0f 10 45 f8	 movss	 xmm0, DWORD PTR _kPixelPosition$1[ebp+4]
  0002a	e8 00 00 00 00	 call	 __ftol3
  0002f	f3 0f 10 45 f4	 movss	 xmm0, DWORD PTR _kPixelPosition$1[ebp]
  00034	50		 push	 eax
  00035	e8 00 00 00 00	 call	 __ftol3
  0003a	8b 0d 00 00 00
	00		 mov	 ecx, DWORD PTR ?ms_singleton@?$CSingleton@VCPythonMiniMap@@@@0PAVCPythonMiniMap@@A ; CSingleton<CPythonMiniMap>::ms_singleton
  00040	50		 push	 eax
  00041	e8 00 00 00 00	 call	 ?GetGuildAreaID@CPythonMiniMap@@QAEKKK@Z ; CPythonMiniMap::GetGuildAreaID
  00046	8b f0		 mov	 esi, eax

; 258  : 			ULONG(kPixelPosition.x), ULONG(kPixelPosition.y));
; 259  : 
; 260  : 		if (dwAreaID != m_inGuildAreaID)

  00048	3b b7 64 2e 01
	00		 cmp	 esi, DWORD PTR [edi+77412]
  0004e	74 38		 je	 SHORT $LN7@Update_Not

; 261  : 		{
; 262  : 			if (0xffffffff != dwAreaID)

  00050	53		 push	 ebx
  00051	83 fe ff	 cmp	 esi, -1
  00054	74 08		 je	 SHORT $LN4@Update_Not

; 263  : 			{
; 264  : 				PyCallClassMemberFunc(m_ppyGameWindow, "BINARY_Guild_EnterGuildArea", Py_BuildValue("(i)", dwAreaID));

  00056	bb 00 00 00 00	 mov	 ebx, OFFSET ??_C@_0BM@OMJPBBKE@BINARY_Guild_EnterGuildArea@
  0005b	56		 push	 esi

; 265  : 			}

  0005c	eb 07		 jmp	 SHORT $LN8@Update_Not
$LN4@Update_Not:

; 266  : 			else
; 267  : 			{
; 268  : 				PyCallClassMemberFunc(m_ppyGameWindow, "BINARY_Guild_ExitGuildArea", Py_BuildValue("(i)", dwAreaID));

  0005e	bb 00 00 00 00	 mov	 ebx, OFFSET ??_C@_0BL@KCKDPCFN@BINARY_Guild_ExitGuildArea@
  00063	6a ff		 push	 -1
$LN8@Update_Not:

; 269  : 			}
; 270  : 
; 271  : 			m_inGuildAreaID = dwAreaID;

  00065	68 00 00 00 00	 push	 OFFSET ??_C@_03LIHNMIHG@?$CIi?$CJ@
  0006a	ff 15 00 00 00
	00		 call	 DWORD PTR __imp__Py_BuildValue
  00070	83 c4 08	 add	 esp, 8
  00073	50		 push	 eax
  00074	8b 47 08	 mov	 eax, DWORD PTR [edi+8]
  00077	53		 push	 ebx
  00078	50		 push	 eax
  00079	e8 00 00 00 00	 call	 ?PyCallClassMemberFunc@@YA_NPAU_object@@PBD0@Z ; PyCallClassMemberFunc
  0007e	83 c4 0c	 add	 esp, 12			; 0000000cH
  00081	89 b7 64 2e 01
	00		 mov	 DWORD PTR [edi+77412], esi
  00087	5b		 pop	 ebx
$LN7@Update_Not:
  00088	5e		 pop	 esi
$LN3@Update_Not:
  00089	5f		 pop	 edi

; 272  : 		}
; 273  : 	}
; 274  : }

  0008a	8b e5		 mov	 esp, ebp
  0008c	5d		 pop	 ebp
  0008d	c3		 ret	 0
?__Update_NotifyGuildAreaEvent@CPythonPlayer@@IAEXXZ ENDP ; CPythonPlayer::__Update_NotifyGuildAreaEvent
_TEXT	ENDS
; Function compile flags: /Ogtp
; File E:\Metin2_server\SolWayneSF v6\ClientVS22\source\UserInterface\PythonPlayer.cpp
;	COMDAT ?SetMainCharacterIndex@CPythonPlayer@@UAEXH@Z
_TEXT	SEGMENT
_iIndex$ = 8						; size = 4
?SetMainCharacterIndex@CPythonPlayer@@UAEXH@Z PROC	; CPythonPlayer::SetMainCharacterIndex, COMDAT
; _this$ = ecx

; 277  : {

  00000	55		 push	 ebp
  00001	8b ec		 mov	 ebp, esp

; 278  : 	m_dwMainCharacterIndex = iIndex;

  00003	8b 45 08	 mov	 eax, DWORD PTR _iIndex$[ebp]
  00006	89 41 28	 mov	 DWORD PTR [ecx+40], eax

; 279  : 
; 280  : 	CInstanceBase* pkInstMain=NEW_GetMainActorPtr();

  00009	8b 01		 mov	 eax, DWORD PTR [ecx]
  0000b	56		 push	 esi
  0000c	ff 90 88 00 00
	00		 call	 DWORD PTR [eax+136]
  00012	8b f0		 mov	 esi, eax

; 281  : 	if (pkInstMain)

  00014	85 f6		 test	 esi, esi
  00016	74 0d		 je	 SHORT $LN2@SetMainCha

; 282  : 	{
; 283  : 		CPythonPlayerEventHandler& rkPlayerEventHandler=CPythonPlayerEventHandler::GetSingleton();

  00018	e8 00 00 00 00	 call	 ?GetSingleton@CPythonPlayerEventHandler@@SAAAV1@XZ ; CPythonPlayerEventHandler::GetSingleton

; 284  : 		pkInstMain->SetEventHandler(&rkPlayerEventHandler);

  0001d	50		 push	 eax
  0001e	8b ce		 mov	 ecx, esi
  00020	e8 00 00 00 00	 call	 ?SetEventHandler@CInstanceBase@@QAEXPAVIEventHandler@CActorInstance@@@Z ; CInstanceBase::SetEventHandler
$LN2@SetMainCha:
  00025	5e		 pop	 esi

; 285  : 	}
; 286  : }

  00026	5d		 pop	 ebp
  00027	c2 04 00	 ret	 4
?SetMainCharacterIndex@CPythonPlayer@@UAEXH@Z ENDP	; CPythonPlayer::SetMainCharacterIndex
_TEXT	ENDS
; Function compile flags: /Ogtp
; File E:\Metin2_server\SolWayneSF v6\ClientVS22\source\UserInterface\PythonPlayer.cpp
;	COMDAT ?GetMainCharacterIndex@CPythonPlayer@@UAEKXZ
_TEXT	SEGMENT
?GetMainCharacterIndex@CPythonPlayer@@UAEKXZ PROC	; CPythonPlayer::GetMainCharacterIndex, COMDAT
; _this$ = ecx

; 290  : 	return m_dwMainCharacterIndex;

  00000	8b 41 28	 mov	 eax, DWORD PTR [ecx+40]

; 291  : }

  00003	c3		 ret	 0
?GetMainCharacterIndex@CPythonPlayer@@UAEKXZ ENDP	; CPythonPlayer::GetMainCharacterIndex
_TEXT	ENDS
; Function compile flags: /Ogtp
; File E:\Metin2_server\SolWayneSF v6\ClientVS22\source\UserInterface\PythonPlayer.cpp
;	COMDAT ?IsMainCharacterIndex@CPythonPlayer@@UAE_NK@Z
_TEXT	SEGMENT
_dwIndex$ = 8						; size = 4
?IsMainCharacterIndex@CPythonPlayer@@UAE_NK@Z PROC	; CPythonPlayer::IsMainCharacterIndex, COMDAT
; _this$ = ecx

; 294  : {

  00000	55		 push	 ebp
  00001	8b ec		 mov	 ebp, esp

; 295  : 	return (m_dwMainCharacterIndex == dwIndex);

  00003	8b 41 28	 mov	 eax, DWORD PTR [ecx+40]
  00006	3b 45 08	 cmp	 eax, DWORD PTR _dwIndex$[ebp]
  00009	0f 94 c0	 sete	 al

; 296  : }

  0000c	5d		 pop	 ebp
  0000d	c2 04 00	 ret	 4
?IsMainCharacterIndex@CPythonPlayer@@UAE_NK@Z ENDP	; CPythonPlayer::IsMainCharacterIndex
_TEXT	ENDS
; Function compile flags: /Ogtp
; File E:\Metin2_server\SolWayneSF v6\ClientVS22\source\UserInterface\PythonPlayer.cpp
;	COMDAT ?SetWeaponPower@CPythonPlayer@@UAEXKKKKK@Z
_TEXT	SEGMENT
_dwMinPower$ = 8					; size = 4
_dwMaxPower$ = 12					; size = 4
_dwMinMagicPower$ = 16					; size = 4
_dwMaxMagicPower$ = 20					; size = 4
_dwAddPower$ = 24					; size = 4
?SetWeaponPower@CPythonPlayer@@UAEXKKKKK@Z PROC		; CPythonPlayer::SetWeaponPower, COMDAT
; _this$ = ecx

; 308  : {

  00000	55		 push	 ebp
  00001	8b ec		 mov	 ebp, esp

; 309  : 	m_dwWeaponMinPower=dwMinPower;

  00003	8b 45 08	 mov	 eax, DWORD PTR _dwMinPower$[ebp]
  00006	89 41 30	 mov	 DWORD PTR [ecx+48], eax

; 310  : 	m_dwWeaponMaxPower=dwMaxPower;

  00009	8b 45 0c	 mov	 eax, DWORD PTR _dwMaxPower$[ebp]
  0000c	89 41 34	 mov	 DWORD PTR [ecx+52], eax

; 311  : 	m_dwWeaponMinMagicPower=dwMinMagicPower;

  0000f	8b 45 10	 mov	 eax, DWORD PTR _dwMinMagicPower$[ebp]
  00012	89 41 38	 mov	 DWORD PTR [ecx+56], eax

; 312  : 	m_dwWeaponMaxMagicPower=dwMaxMagicPower;

  00015	8b 45 14	 mov	 eax, DWORD PTR _dwMaxMagicPower$[ebp]
  00018	89 41 3c	 mov	 DWORD PTR [ecx+60], eax

; 313  : 	m_dwWeaponAddPower=dwAddPower;

  0001b	8b 45 18	 mov	 eax, DWORD PTR _dwAddPower$[ebp]
  0001e	89 41 40	 mov	 DWORD PTR [ecx+64], eax

; 314  : 
; 315  : 	__UpdateBattleStatus();	

  00021	83 c1 fc	 add	 ecx, -4			; fffffffcH
  00024	e8 00 00 00 00	 call	 ?__UpdateBattleStatus@CPythonPlayer@@IAEXXZ ; CPythonPlayer::__UpdateBattleStatus

; 316  : }

  00029	5d		 pop	 ebp
  0002a	c2 14 00	 ret	 20			; 00000014H
?SetWeaponPower@CPythonPlayer@@UAEXKKKKK@Z ENDP		; CPythonPlayer::SetWeaponPower
_TEXT	ENDS
; Function compile flags: /Ogtp
; File E:\Metin2_server\SolWayneSF v6\ClientVS22\source\UserInterface\PythonPlayer.cpp
;	COMDAT ?SetRace@CPythonPlayer@@UAEXK@Z
_TEXT	SEGMENT
_dwRace$ = 8						; size = 4
?SetRace@CPythonPlayer@@UAEXK@Z PROC			; CPythonPlayer::SetRace, COMDAT
; _this$ = ecx

; 319  : {

  00000	55		 push	 ebp
  00001	8b ec		 mov	 ebp, esp

; 320  : 	m_dwRace=dwRace;

  00003	8b 45 08	 mov	 eax, DWORD PTR _dwRace$[ebp]
  00006	89 41 2c	 mov	 DWORD PTR [ecx+44], eax

; 321  : }

  00009	5d		 pop	 ebp
  0000a	c2 04 00	 ret	 4
?SetRace@CPythonPlayer@@UAEXK@Z ENDP			; CPythonPlayer::SetRace
_TEXT	ENDS
; Function compile flags: /Ogtp
; File E:\Metin2_server\SolWayneSF v6\ClientVS22\source\UserInterface\PythonPlayer.cpp
;	COMDAT ?GetRace@CPythonPlayer@@QAEKXZ
_TEXT	SEGMENT
?GetRace@CPythonPlayer@@QAEKXZ PROC			; CPythonPlayer::GetRace, COMDAT
; _this$ = ecx

; 325  : 	return m_dwRace;

  00000	8b 41 30	 mov	 eax, DWORD PTR [ecx+48]

; 326  : }

  00003	c3		 ret	 0
?GetRace@CPythonPlayer@@QAEKXZ ENDP			; CPythonPlayer::GetRace
_TEXT	ENDS
; Function compile flags: /Ogtp
; File E:\Metin2_server\SolWayneSF v6\ClientVS22\source\UserInterface\PythonPlayer.cpp
;	COMDAT ?__GetRaceStat@CPythonPlayer@@IAEKXZ
_TEXT	SEGMENT
?__GetRaceStat@CPythonPlayer@@IAEKXZ PROC		; CPythonPlayer::__GetRaceStat, COMDAT
; _this$ = ecx

; 330  : 	switch (GetRace())

  00000	e8 00 00 00 00	 call	 ?GetRace@CPythonPlayer@@QAEKXZ ; CPythonPlayer::GetRace
  00005	83 f8 07	 cmp	 eax, 7
  00008	77 23		 ja	 SHORT $LN2@GetRaceSta
  0000a	ff 24 85 00 00
	00 00		 jmp	 DWORD PTR $LN13@GetRaceSta[eax*4]
$LN6@GetRaceSta:

; 331  : 	{
; 332  : 		case MAIN_RACE_WARRIOR_M:
; 333  : 		case MAIN_RACE_WARRIOR_W:
; 334  : 			return GetStatus(POINT_ST);
; 335  : 			break;
; 336  : 		case MAIN_RACE_ASSASSIN_M:
; 337  : 		case MAIN_RACE_ASSASSIN_W:
; 338  : 			return GetStatus(POINT_DX);
; 339  : 			break;
; 340  : 		case MAIN_RACE_SURA_M:
; 341  : 		case MAIN_RACE_SURA_W:
; 342  : 			return GetStatus(POINT_ST);
; 343  : 			break;
; 344  : 		case MAIN_RACE_SHAMAN_M:
; 345  : 		case MAIN_RACE_SHAMAN_W:
; 346  : 			return GetStatus(POINT_IQ);
; 347  : 			break;
; 348  : 	}	
; 349  : 	return GetStatus(POINT_ST);
; 350  : }

  00011	8b 41 04	 mov	 eax, DWORD PTR [ecx+4]
  00014	83 c1 04	 add	 ecx, 4
  00017	6a 0e		 push	 14			; 0000000eH
  00019	8b 40 10	 mov	 eax, DWORD PTR [eax+16]
  0001c	ff d0		 call	 eax
  0001e	c3		 ret	 0
$LN10@GetRaceSta:
  0001f	8b 41 04	 mov	 eax, DWORD PTR [ecx+4]
  00022	83 c1 04	 add	 ecx, 4
  00025	6a 0f		 push	 15			; 0000000fH
  00027	8b 40 10	 mov	 eax, DWORD PTR [eax+16]
  0002a	ff d0		 call	 eax
  0002c	c3		 ret	 0
$LN2@GetRaceSta:
  0002d	8b 41 04	 mov	 eax, DWORD PTR [ecx+4]
  00030	83 c1 04	 add	 ecx, 4
  00033	6a 0c		 push	 12			; 0000000cH
  00035	8b 40 10	 mov	 eax, DWORD PTR [eax+16]
  00038	ff d0		 call	 eax
  0003a	c3		 ret	 0
  0003b	90		 npad	 1
$LN13@GetRaceSta:
  0003c	00 00 00 00	 DD	 $LN2@GetRaceSta
  00040	00 00 00 00	 DD	 $LN6@GetRaceSta
  00044	00 00 00 00	 DD	 $LN2@GetRaceSta
  00048	00 00 00 00	 DD	 $LN10@GetRaceSta
  0004c	00 00 00 00	 DD	 $LN2@GetRaceSta
  00050	00 00 00 00	 DD	 $LN6@GetRaceSta
  00054	00 00 00 00	 DD	 $LN2@GetRaceSta
  00058	00 00 00 00	 DD	 $LN10@GetRaceSta
?__GetRaceStat@CPythonPlayer@@IAEKXZ ENDP		; CPythonPlayer::__GetRaceStat
_TEXT	ENDS
; Function compile flags: /Ogtp
; File E:\Metin2_server\SolWayneSF v6\ClientVS22\source\UserInterface\PythonPlayer.cpp
;	COMDAT ?__GetLevelAtk@CPythonPlayer@@IAEKXZ
_TEXT	SEGMENT
?__GetLevelAtk@CPythonPlayer@@IAEKXZ PROC		; CPythonPlayer::__GetLevelAtk, COMDAT
; _this$ = ecx

; 354  : 	return 2*GetStatus(POINT_LEVEL);

  00000	8b 41 04	 mov	 eax, DWORD PTR [ecx+4]
  00003	83 c1 04	 add	 ecx, 4
  00006	6a 01		 push	 1
  00008	8b 40 10	 mov	 eax, DWORD PTR [eax+16]
  0000b	ff d0		 call	 eax
  0000d	03 c0		 add	 eax, eax

; 355  : }

  0000f	c3		 ret	 0
?__GetLevelAtk@CPythonPlayer@@IAEKXZ ENDP		; CPythonPlayer::__GetLevelAtk
_TEXT	ENDS
; Function compile flags: /Ogtp
; File E:\Metin2_server\SolWayneSF v6\ClientVS22\source\UserInterface\PythonPlayer.cpp
;	COMDAT ?__GetStatAtk@CPythonPlayer@@IAEKXZ
_TEXT	SEGMENT
?__GetStatAtk@CPythonPlayer@@IAEKXZ PROC		; CPythonPlayer::__GetStatAtk, COMDAT
; _this$ = ecx

; 358  : {

  00000	53		 push	 ebx
  00001	8b d9		 mov	 ebx, ecx

; 359  : 	return (4*GetStatus(POINT_ST)+2*__GetRaceStat())/3;

  00003	8b 43 04	 mov	 eax, DWORD PTR [ebx+4]
  00006	8d 4b 04	 lea	 ecx, DWORD PTR [ebx+4]
  00009	56		 push	 esi
  0000a	57		 push	 edi
  0000b	6a 0c		 push	 12			; 0000000cH
  0000d	8b 40 10	 mov	 eax, DWORD PTR [eax+16]
  00010	ff d0		 call	 eax
  00012	8b f0		 mov	 esi, eax
  00014	8b fa		 mov	 edi, edx
  00016	0f a4 f7 02	 shld	 edi, esi, 2
  0001a	8b cb		 mov	 ecx, ebx
  0001c	c1 e6 02	 shl	 esi, 2
  0001f	e8 00 00 00 00	 call	 ?__GetRaceStat@CPythonPlayer@@IAEKXZ ; CPythonPlayer::__GetRaceStat
  00024	03 c0		 add	 eax, eax
  00026	33 c9		 xor	 ecx, ecx
  00028	03 c6		 add	 eax, esi
  0002a	6a 00		 push	 0
  0002c	6a 03		 push	 3
  0002e	13 cf		 adc	 ecx, edi
  00030	51		 push	 ecx
  00031	50		 push	 eax
  00032	e8 00 00 00 00	 call	 __alldiv
  00037	5f		 pop	 edi
  00038	5e		 pop	 esi
  00039	5b		 pop	 ebx

; 360  : }

  0003a	c3		 ret	 0
?__GetStatAtk@CPythonPlayer@@IAEKXZ ENDP		; CPythonPlayer::__GetStatAtk
_TEXT	ENDS
; Function compile flags: /Ogtp
; File E:\Metin2_server\SolWayneSF v6\ClientVS22\source\UserInterface\PythonPlayer.cpp
;	COMDAT ?__GetWeaponAtk@CPythonPlayer@@IAEKK@Z
_TEXT	SEGMENT
_dwWeaponPower$ = 8					; size = 4
?__GetWeaponAtk@CPythonPlayer@@IAEKK@Z PROC		; CPythonPlayer::__GetWeaponAtk, COMDAT
; _this$dead$ = ecx

; 363  : {

  00000	55		 push	 ebp
  00001	8b ec		 mov	 ebp, esp

; 364  : 	return 2*dwWeaponPower;

  00003	8b 45 08	 mov	 eax, DWORD PTR _dwWeaponPower$[ebp]
  00006	03 c0		 add	 eax, eax

; 365  : }

  00008	5d		 pop	 ebp
  00009	c2 04 00	 ret	 4
?__GetWeaponAtk@CPythonPlayer@@IAEKK@Z ENDP		; CPythonPlayer::__GetWeaponAtk
_TEXT	ENDS
; Function compile flags: /Ogtp
; File E:\Metin2_server\SolWayneSF v6\ClientVS22\source\UserInterface\PythonPlayer.cpp
;	COMDAT ?__GetTotalAtk@CPythonPlayer@@IAEKKK@Z
_TEXT	SEGMENT
_dwStAtk$1$ = -4					; size = 4
_dwWeaponPower$ = 8					; size = 4
_dwRefineBonus$ = 12					; size = 4
?__GetTotalAtk@CPythonPlayer@@IAEKKK@Z PROC		; CPythonPlayer::__GetTotalAtk, COMDAT
; _this$ = ecx

; 368  : {

  00000	55		 push	 ebp
  00001	8b ec		 mov	 ebp, esp
  00003	51		 push	 ecx
  00004	53		 push	 ebx
  00005	56		 push	 esi
  00006	57		 push	 edi
  00007	8b f9		 mov	 edi, ecx

; 369  : 	DWORD dwLvAtk=__GetLevelAtk();

  00009	e8 00 00 00 00	 call	 ?__GetLevelAtk@CPythonPlayer@@IAEKXZ ; CPythonPlayer::__GetLevelAtk

; 370  : 	DWORD dwStAtk=__GetStatAtk();

  0000e	8b cf		 mov	 ecx, edi
  00010	8b d8		 mov	 ebx, eax
  00012	e8 00 00 00 00	 call	 ?__GetStatAtk@CPythonPlayer@@IAEKXZ ; CPythonPlayer::__GetStatAtk

; 371  : 
; 372  : 	/////
; 373  : 
; 374  : 	DWORD dwWepAtk;
; 375  : 	DWORD dwTotalAtk;	
; 376  : 
; 377  : 	if (LocaleService_IsCHEONMA())

  00017	8b 75 0c	 mov	 esi, DWORD PTR _dwRefineBonus$[ebp]
  0001a	03 75 08	 add	 esi, DWORD PTR _dwWeaponPower$[ebp]
  0001d	89 45 fc	 mov	 DWORD PTR _dwStAtk$1$[ebp], eax
  00020	e8 00 00 00 00	 call	 ?LocaleService_IsCHEONMA@@YA_NXZ ; LocaleService_IsCHEONMA
  00025	56		 push	 esi
  00026	84 c0		 test	 al, al
  00028	74 42		 je	 SHORT $LN2@GetTotalAt

; 378  : 	{
; 379  : 		dwWepAtk = __GetWeaponAtk(dwWeaponPower+dwRefineBonus);
; 380  : 		dwTotalAtk = dwLvAtk+(dwStAtk+dwWepAtk)*(GetStatus(POINT_DX)+210)/300;		

  0002a	8b 57 04	 mov	 edx, DWORD PTR [edi+4]
  0002d	8d 4f 04	 lea	 ecx, DWORD PTR [edi+4]
  00030	8b 52 10	 mov	 edx, DWORD PTR [edx+16]
  00033	e8 00 00 00 00	 call	 ?__GetWeaponAtk@CPythonPlayer@@IAEKK@Z ; CPythonPlayer::__GetWeaponAtk
  00038	8b f0		 mov	 esi, eax
  0003a	03 75 fc	 add	 esi, DWORD PTR _dwStAtk$1$[ebp]
  0003d	6a 0e		 push	 14			; 0000000eH
  0003f	ff d2		 call	 edx
  00041	05 d2 00 00 00	 add	 eax, 210		; 000000d2H
  00046	83 d2 00	 adc	 edx, 0
  00049	52		 push	 edx
  0004a	50		 push	 eax
  0004b	6a 00		 push	 0
  0004d	56		 push	 esi
  0004e	e8 00 00 00 00	 call	 __allmul
  00053	6a 00		 push	 0
  00055	68 2c 01 00 00	 push	 300			; 0000012cH
  0005a	52		 push	 edx
  0005b	50		 push	 eax
  0005c	e8 00 00 00 00	 call	 __alldiv
  00061	5f		 pop	 edi

; 387  : 	}
; 388  : 
; 389  : 	return dwTotalAtk;
; 390  : }

  00062	5e		 pop	 esi
  00063	03 c3		 add	 eax, ebx
  00065	5b		 pop	 ebx
  00066	8b e5		 mov	 esp, ebp
  00068	5d		 pop	 ebp
  00069	c2 08 00	 ret	 8
$LN2@GetTotalAt:

; 381  : 	}
; 382  : 	else
; 383  : 	{
; 384  : 		int hr = __GetHitRate();
; 385  : 		dwWepAtk = __GetWeaponAtk(dwWeaponPower+dwRefineBonus);

  0006c	e8 00 00 00 00	 call	 ?__GetWeaponAtk@CPythonPlayer@@IAEKK@Z ; CPythonPlayer::__GetWeaponAtk
  00071	8b f0		 mov	 esi, eax
  00073	8b cf		 mov	 ecx, edi

; 386  : 		dwTotalAtk = dwLvAtk+(dwStAtk+dwWepAtk)*hr/100;	

  00075	03 75 fc	 add	 esi, DWORD PTR _dwStAtk$1$[ebp]
  00078	e8 00 00 00 00	 call	 ?__GetHitRate@CPythonPlayer@@IAEKXZ ; CPythonPlayer::__GetHitRate
  0007d	0f af f0	 imul	 esi, eax
  00080	b8 1f 85 eb 51	 mov	 eax, 1374389535		; 51eb851fH
  00085	5f		 pop	 edi
  00086	f7 e6		 mul	 esi

; 387  : 	}
; 388  : 
; 389  : 	return dwTotalAtk;
; 390  : }

  00088	5e		 pop	 esi
  00089	c1 ea 05	 shr	 edx, 5
  0008c	8d 04 13	 lea	 eax, DWORD PTR [ebx+edx]
  0008f	5b		 pop	 ebx
  00090	8b e5		 mov	 esp, ebp
  00092	5d		 pop	 ebp
  00093	c2 08 00	 ret	 8
?__GetTotalAtk@CPythonPlayer@@IAEKKK@Z ENDP		; CPythonPlayer::__GetTotalAtk
_TEXT	ENDS
; Function compile flags: /Ogtp
; File E:\Metin2_server\SolWayneSF v6\ClientVS22\source\UserInterface\PythonPlayer.cpp
;	COMDAT ?__GetHitRate@CPythonPlayer@@IAEKXZ
_TEXT	SEGMENT
tv144 = -4						; size = 4
?__GetHitRate@CPythonPlayer@@IAEKXZ PROC		; CPythonPlayer::__GetHitRate, COMDAT
; _this$ = ecx

; 393  : {

  00000	55		 push	 ebp
  00001	8b ec		 mov	 ebp, esp
  00003	51		 push	 ecx
  00004	56		 push	 esi
  00005	8b f1		 mov	 esi, ecx

; 394  : 	int src = 0;
; 395  : 
; 396  : 	if (LocaleService_IsCHEONMA())

  00007	e8 00 00 00 00	 call	 ?LocaleService_IsCHEONMA@@YA_NXZ ; LocaleService_IsCHEONMA
  0000c	8d 4e 04	 lea	 ecx, DWORD PTR [esi+4]
  0000f	8b 31		 mov	 esi, DWORD PTR [ecx]
  00011	89 4d fc	 mov	 DWORD PTR tv144[ebp], ecx
  00014	84 c0		 test	 al, al
  00016	74 09		 je	 SHORT $LN2@GetHitRate

; 397  : 	{
; 398  : 		src = GetStatus(POINT_DX);

  00018	8b 46 10	 mov	 eax, DWORD PTR [esi+16]
  0001b	6a 0e		 push	 14			; 0000000eH
  0001d	ff d0		 call	 eax

; 399  : 	}

  0001f	eb 31		 jmp	 SHORT $LN3@GetHitRate
$LN2@GetHitRate:

; 400  : 	else
; 401  : 	{
; 402  : 		src = (GetStatus(POINT_DX) * 4 + GetStatus(POINT_LEVEL) * 2)/6;

  00021	8b 76 10	 mov	 esi, DWORD PTR [esi+16]
  00024	53		 push	 ebx
  00025	57		 push	 edi
  00026	6a 0e		 push	 14			; 0000000eH
  00028	ff d6		 call	 esi
  0002a	8b 4d fc	 mov	 ecx, DWORD PTR tv144[ebp]
  0002d	8b f8		 mov	 edi, eax
  0002f	6a 01		 push	 1
  00031	8b da		 mov	 ebx, edx
  00033	ff d6		 call	 esi
  00035	0f a4 fb 01	 shld	 ebx, edi, 1
  00039	6a 00		 push	 0
  0003b	03 ff		 add	 edi, edi
  0003d	03 c7		 add	 eax, edi
  0003f	6a 06		 push	 6
  00041	13 d3		 adc	 edx, ebx
  00043	0f a4 c2 01	 shld	 edx, eax, 1
  00047	03 c0		 add	 eax, eax
  00049	52		 push	 edx
  0004a	50		 push	 eax
  0004b	e8 00 00 00 00	 call	 __alldiv
  00050	5f		 pop	 edi
  00051	5b		 pop	 ebx
$LN3@GetHitRate:

; 403  : 	}
; 404  : 
; 405  : 	return 100*(min(90, src)+210)/300;

  00052	b9 5a 00 00 00	 mov	 ecx, 90			; 0000005aH
  00057	3b c1		 cmp	 eax, ecx
  00059	5e		 pop	 esi
  0005a	0f 4f c1	 cmovg	 eax, ecx
  0005d	05 d2 00 00 00	 add	 eax, 210		; 000000d2H
  00062	6b c8 64	 imul	 ecx, eax, 100
  00065	b8 b5 81 4e 1b	 mov	 eax, 458129845		; 1b4e81b5H
  0006a	f7 e9		 imul	 ecx
  0006c	c1 fa 05	 sar	 edx, 5
  0006f	8b c2		 mov	 eax, edx
  00071	c1 e8 1f	 shr	 eax, 31			; 0000001fH
  00074	03 c2		 add	 eax, edx

; 406  : }

  00076	8b e5		 mov	 esp, ebp
  00078	5d		 pop	 ebp
  00079	c3		 ret	 0
?__GetHitRate@CPythonPlayer@@IAEKXZ ENDP		; CPythonPlayer::__GetHitRate
_TEXT	ENDS
; Function compile flags: /Ogtp
; File E:\Metin2_server\SolWayneSF v6\ClientVS22\source\UserInterface\PythonPlayer.cpp
;	COMDAT ?__GetEvadeRate@CPythonPlayer@@IAEKXZ
_TEXT	SEGMENT
tv149 = -4						; size = 4
?__GetEvadeRate@CPythonPlayer@@IAEKXZ PROC		; CPythonPlayer::__GetEvadeRate, COMDAT
; _this$ = ecx

; 409  : {

  00000	55		 push	 ebp
  00001	8b ec		 mov	 ebp, esp
  00003	51		 push	 ecx

; 410  : 	return 30*(2*GetStatus(POINT_DX)+5)/(GetStatus(POINT_DX)+95);

  00004	8b 41 04	 mov	 eax, DWORD PTR [ecx+4]
  00007	53		 push	 ebx
  00008	56		 push	 esi
  00009	57		 push	 edi
  0000a	8b 70 10	 mov	 esi, DWORD PTR [eax+16]
  0000d	8d 79 04	 lea	 edi, DWORD PTR [ecx+4]
  00010	6a 0e		 push	 14			; 0000000eH
  00012	8b cf		 mov	 ecx, edi
  00014	ff d6		 call	 esi
  00016	6a 0e		 push	 14			; 0000000eH
  00018	8b cf		 mov	 ecx, edi
  0001a	89 55 fc	 mov	 DWORD PTR tv149[ebp], edx
  0001d	8b d8		 mov	 ebx, eax
  0001f	ff d6		 call	 esi
  00021	8b 4d fc	 mov	 ecx, DWORD PTR tv149[ebp]
  00024	83 c0 5f	 add	 eax, 95			; 0000005fH
  00027	8b f3		 mov	 esi, ebx
  00029	83 d2 00	 adc	 edx, 0
  0002c	0f a4 f1 04	 shld	 ecx, esi, 4
  00030	52		 push	 edx
  00031	c1 e6 04	 shl	 esi, 4
  00034	2b f3		 sub	 esi, ebx
  00036	50		 push	 eax
  00037	1b 4d fc	 sbb	 ecx, DWORD PTR tv149[ebp]
  0003a	0f a4 f1 02	 shld	 ecx, esi, 2
  0003e	c1 e6 02	 shl	 esi, 2
  00041	81 c6 96 00 00
	00		 add	 esi, 150		; 00000096H
  00047	83 d1 00	 adc	 ecx, 0
  0004a	51		 push	 ecx
  0004b	56		 push	 esi
  0004c	e8 00 00 00 00	 call	 __alldiv
  00051	5f		 pop	 edi
  00052	5e		 pop	 esi
  00053	5b		 pop	 ebx

; 411  : } 

  00054	8b e5		 mov	 esp, ebp
  00056	5d		 pop	 ebp
  00057	c3		 ret	 0
?__GetEvadeRate@CPythonPlayer@@IAEKXZ ENDP		; CPythonPlayer::__GetEvadeRate
_TEXT	ENDS
; Function compile flags: /Ogtp
; File E:\Metin2_server\SolWayneSF v6\ClientVS22\source\UserInterface\PythonPlayer.cpp
;	COMDAT ?__UpdateBattleStatus@CPythonPlayer@@IAEXXZ
_TEXT	SEGMENT
?__UpdateBattleStatus@CPythonPlayer@@IAEXXZ PROC	; CPythonPlayer::__UpdateBattleStatus, COMDAT
; _this$ = ecx

; 414  : {

  00000	55		 push	 ebp
  00001	8b ec		 mov	 ebp, esp
  00003	83 e4 f8	 and	 esp, -8			; fffffff8H
  00006	56		 push	 esi
  00007	57		 push	 edi

; 415  : 	m_playerStatus.SetPoint(POINT_NONE, 0);

  00008	6a 00		 push	 0
  0000a	8b f1		 mov	 esi, ecx
  0000c	6a 00		 push	 0
  0000e	6a 00		 push	 0
  00010	8d 4e 70	 lea	 ecx, DWORD PTR [esi+112]
  00013	e8 00 00 00 00	 call	 ?SetPoint@SPlayerStatus@CPythonPlayer@@QAEXI_J@Z ; CPythonPlayer::SPlayerStatus::SetPoint

; 416  : 	m_playerStatus.SetPoint(POINT_EVADE_RATE, __GetEvadeRate());

  00018	8b ce		 mov	 ecx, esi
  0001a	e8 00 00 00 00	 call	 ?__GetEvadeRate@CPythonPlayer@@IAEKXZ ; CPythonPlayer::__GetEvadeRate
  0001f	6a 00		 push	 0
  00021	50		 push	 eax
  00022	6a 12		 push	 18			; 00000012H
  00024	8d 4e 70	 lea	 ecx, DWORD PTR [esi+112]
  00027	e8 00 00 00 00	 call	 ?SetPoint@SPlayerStatus@CPythonPlayer@@QAEXI_J@Z ; CPythonPlayer::SPlayerStatus::SetPoint

; 417  : 	m_playerStatus.SetPoint(POINT_HIT_RATE, __GetHitRate());

  0002c	8b ce		 mov	 ecx, esi
  0002e	e8 00 00 00 00	 call	 ?__GetHitRate@CPythonPlayer@@IAEKXZ ; CPythonPlayer::__GetHitRate
  00033	6a 00		 push	 0
  00035	50		 push	 eax
  00036	68 cc 00 00 00	 push	 204			; 000000ccH
  0003b	8d 4e 70	 lea	 ecx, DWORD PTR [esi+112]
  0003e	e8 00 00 00 00	 call	 ?SetPoint@SPlayerStatus@CPythonPlayer@@QAEXI_J@Z ; CPythonPlayer::SPlayerStatus::SetPoint

; 418  : 	m_playerStatus.SetPoint(POINT_MIN_WEP, m_dwWeaponMinPower+m_dwWeaponAddPower);

  00043	8b 46 44	 mov	 eax, DWORD PTR [esi+68]
  00046	8d 4e 70	 lea	 ecx, DWORD PTR [esi+112]
  00049	03 46 34	 add	 eax, DWORD PTR [esi+52]
  0004c	6a 00		 push	 0
  0004e	50		 push	 eax
  0004f	68 c8 00 00 00	 push	 200			; 000000c8H
  00054	e8 00 00 00 00	 call	 ?SetPoint@SPlayerStatus@CPythonPlayer@@QAEXI_J@Z ; CPythonPlayer::SPlayerStatus::SetPoint

; 419  : 	m_playerStatus.SetPoint(POINT_MAX_WEP, m_dwWeaponMaxPower+m_dwWeaponAddPower);

  00059	8b 46 38	 mov	 eax, DWORD PTR [esi+56]
  0005c	8d 4e 70	 lea	 ecx, DWORD PTR [esi+112]
  0005f	03 46 44	 add	 eax, DWORD PTR [esi+68]
  00062	6a 00		 push	 0
  00064	50		 push	 eax
  00065	68 c9 00 00 00	 push	 201			; 000000c9H
  0006a	e8 00 00 00 00	 call	 ?SetPoint@SPlayerStatus@CPythonPlayer@@QAEXI_J@Z ; CPythonPlayer::SPlayerStatus::SetPoint

; 420  : 	m_playerStatus.SetPoint(POINT_MIN_MAGIC_WEP, m_dwWeaponMinMagicPower+m_dwWeaponAddPower);

  0006f	8b 46 3c	 mov	 eax, DWORD PTR [esi+60]
  00072	8d 4e 70	 lea	 ecx, DWORD PTR [esi+112]
  00075	03 46 44	 add	 eax, DWORD PTR [esi+68]
  00078	6a 00		 push	 0
  0007a	50		 push	 eax
  0007b	68 ca 00 00 00	 push	 202			; 000000caH
  00080	e8 00 00 00 00	 call	 ?SetPoint@SPlayerStatus@CPythonPlayer@@QAEXI_J@Z ; CPythonPlayer::SPlayerStatus::SetPoint

; 421  : 	m_playerStatus.SetPoint(POINT_MAX_MAGIC_WEP, m_dwWeaponMaxMagicPower+m_dwWeaponAddPower);

  00085	8b 46 40	 mov	 eax, DWORD PTR [esi+64]
  00088	8d 4e 70	 lea	 ecx, DWORD PTR [esi+112]
  0008b	03 46 44	 add	 eax, DWORD PTR [esi+68]
  0008e	6a 00		 push	 0
  00090	50		 push	 eax
  00091	68 cb 00 00 00	 push	 203			; 000000cbH
  00096	e8 00 00 00 00	 call	 ?SetPoint@SPlayerStatus@CPythonPlayer@@QAEXI_J@Z ; CPythonPlayer::SPlayerStatus::SetPoint

; 422  : 	m_playerStatus.SetPoint(POINT_MIN_ATK, __GetTotalAtk(m_dwWeaponMinPower, m_dwWeaponAddPower));

  0009b	ff 76 44	 push	 DWORD PTR [esi+68]
  0009e	8b ce		 mov	 ecx, esi
  000a0	ff 76 34	 push	 DWORD PTR [esi+52]
  000a3	e8 00 00 00 00	 call	 ?__GetTotalAtk@CPythonPlayer@@IAEKKK@Z ; CPythonPlayer::__GetTotalAtk
  000a8	6a 00		 push	 0
  000aa	50		 push	 eax
  000ab	6a 1d		 push	 29			; 0000001dH
  000ad	8d 4e 70	 lea	 ecx, DWORD PTR [esi+112]
  000b0	e8 00 00 00 00	 call	 ?SetPoint@SPlayerStatus@CPythonPlayer@@QAEXI_J@Z ; CPythonPlayer::SPlayerStatus::SetPoint

; 423  : 	m_playerStatus.SetPoint(POINT_MAX_ATK, __GetTotalAtk(m_dwWeaponMaxPower, m_dwWeaponAddPower));	

  000b5	ff 76 44	 push	 DWORD PTR [esi+68]
  000b8	8b ce		 mov	 ecx, esi
  000ba	ff 76 38	 push	 DWORD PTR [esi+56]
  000bd	e8 00 00 00 00	 call	 ?__GetTotalAtk@CPythonPlayer@@IAEKKK@Z ; CPythonPlayer::__GetTotalAtk
  000c2	6a 00		 push	 0
  000c4	50		 push	 eax
  000c5	6a 1e		 push	 30			; 0000001eH
  000c7	8d 4e 70	 lea	 ecx, DWORD PTR [esi+112]
  000ca	e8 00 00 00 00	 call	 ?SetPoint@SPlayerStatus@CPythonPlayer@@QAEXI_J@Z ; CPythonPlayer::SPlayerStatus::SetPoint

; 424  : }

  000cf	5f		 pop	 edi
  000d0	5e		 pop	 esi
  000d1	8b e5		 mov	 esp, ebp
  000d3	5d		 pop	 ebp
  000d4	c3		 ret	 0
?__UpdateBattleStatus@CPythonPlayer@@IAEXXZ ENDP	; CPythonPlayer::__UpdateBattleStatus
_TEXT	ENDS
; Function compile flags: /Ogtp
; File E:\Metin2_server\SolWayneSF v6\ClientVS22\source\UserInterface\PythonPlayer.cpp
;	COMDAT ?GetStatus@CPythonPlayer@@UAE_JK@Z
_TEXT	SEGMENT
_dwType$ = 8						; size = 4
?GetStatus@CPythonPlayer@@UAE_JK@Z PROC			; CPythonPlayer::GetStatus, COMDAT
; _this$ = ecx

; 469  : {

  00000	55		 push	 ebp
  00001	8b ec		 mov	 ebp, esp

; 470  : 	if (dwType >= POINT_MAX_NUM)

  00003	8b 45 08	 mov	 eax, DWORD PTR _dwType$[ebp]
  00006	3d ff 00 00 00	 cmp	 eax, 255		; 000000ffH
  0000b	72 15		 jb	 SHORT $LN2@GetStatus

; 471  : 	{
; 472  : 		assert(!" CPythonPlayer::GetStatus - Strange Status Type!");
; 473  : 		Tracef("CPythonPlayer::GetStatus - Get Status Type Error\n");

  0000d	68 00 00 00 00	 push	 OFFSET ??_C@_0DC@LHJHEHHP@CPythonPlayer?3?3GetStatus?5?9?5Get?5@
  00012	e8 00 00 00 00	 call	 ?Tracef@@YAXPBDZZ	; Tracef
  00017	83 c4 04	 add	 esp, 4

; 474  : 		return 0;

  0001a	33 c0		 xor	 eax, eax
  0001c	33 d2		 xor	 edx, edx

; 478  : }

  0001e	5d		 pop	 ebp
  0001f	c2 04 00	 ret	 4
$LN2@GetStatus:

; 475  : 	}
; 476  : 
; 477  : 	return m_playerStatus.GetPoint(dwType);

  00022	89 45 08	 mov	 DWORD PTR _dwType$[ebp], eax
  00025	83 c1 6c	 add	 ecx, 108		; 0000006cH

; 478  : }

  00028	5d		 pop	 ebp

; 475  : 	}
; 476  : 
; 477  : 	return m_playerStatus.GetPoint(dwType);

  00029	e9 00 00 00 00	 jmp	 ?GetPoint@SPlayerStatus@CPythonPlayer@@QAE_JI@Z ; CPythonPlayer::SPlayerStatus::GetPoint
?GetStatus@CPythonPlayer@@UAE_JK@Z ENDP			; CPythonPlayer::GetStatus
_TEXT	ENDS
; Function compile flags: /Ogtp
; File E:\Metin2_server\SolWayneSF v6\ClientVS22\source\UserInterface\PythonPlayer.cpp
; File C:\Program Files\Microsoft Visual Studio\2022\Community\VC\Tools\MSVC\14.34.31933\include\xstring
; File E:\Metin2_server\SolWayneSF v6\ClientVS22\source\UserInterface\PythonPlayer.cpp
;	COMDAT ?GetName@CPythonPlayer@@UAEPBDXZ
_TEXT	SEGMENT
?GetName@CPythonPlayer@@UAEPBDXZ PROC			; CPythonPlayer::GetName, COMDAT
; _this$ = ecx
; File C:\Program Files\Microsoft Visual Studio\2022\Community\VC\Tools\MSVC\14.34.31933\include\xstring

; 2301 :         return _BUF_SIZE <= _Myres;

  00000	83 79 24 10	 cmp	 DWORD PTR [ecx+36], 16	; 00000010H

; 4256 :         return _Mypair._Myval2._Myptr();

  00004	8d 41 10	 lea	 eax, DWORD PTR [ecx+16]

; 2293 :         if (_Large_string_engaged()) {

  00007	72 02		 jb	 SHORT $LN6@GetName
; File E:\Metin2_server\SolWayneSF v6\ClientVS22\source\UserInterface\PythonPlayer.cpp

; 482  : 	return m_stName.c_str();

  00009	8b 00		 mov	 eax, DWORD PTR [eax]
$LN6@GetName:

; 483  : }

  0000b	c3		 ret	 0
?GetName@CPythonPlayer@@UAEPBDXZ ENDP			; CPythonPlayer::GetName
_TEXT	ENDS
; Function compile flags: /Ogtp
; File E:\Metin2_server\SolWayneSF v6\ClientVS22\source\UserInterface\PythonPlayer.cpp
;	COMDAT ?NotifyDeletingCharacterInstance@CPythonPlayer@@UAEXK@Z
_TEXT	SEGMENT
_dwVID$ = 8						; size = 4
?NotifyDeletingCharacterInstance@CPythonPlayer@@UAEXK@Z PROC ; CPythonPlayer::NotifyDeletingCharacterInstance, COMDAT
; _this$ = ecx

; 491  : {

  00000	55		 push	 ebp
  00001	8b ec		 mov	 ebp, esp

; 492  : 	if (m_dwMainCharacterIndex == dwVID)

  00003	8b 41 28	 mov	 eax, DWORD PTR [ecx+40]
  00006	3b 45 08	 cmp	 eax, DWORD PTR _dwVID$[ebp]
  00009	75 07		 jne	 SHORT $LN2@NotifyDele

; 493  : 		m_dwMainCharacterIndex = 0;

  0000b	c7 41 28 00 00
	00 00		 mov	 DWORD PTR [ecx+40], 0
$LN2@NotifyDele:

; 494  : }

  00012	5d		 pop	 ebp
  00013	c2 04 00	 ret	 4
?NotifyDeletingCharacterInstance@CPythonPlayer@@UAEXK@Z ENDP ; CPythonPlayer::NotifyDeletingCharacterInstance
_TEXT	ENDS
; Function compile flags: /Ogtp
; File E:\Metin2_server\SolWayneSF v6\ClientVS22\source\UserInterface\PythonPlayer.cpp
;	COMDAT ?NotifyCharacterDead@CPythonPlayer@@UAEXK@Z
_TEXT	SEGMENT
_dwVID$ = 8						; size = 4
?NotifyCharacterDead@CPythonPlayer@@UAEXK@Z PROC	; CPythonPlayer::NotifyCharacterDead, COMDAT
; _this$ = ecx

; 497  : {

  00000	55		 push	 ebp
  00001	8b ec		 mov	 ebp, esp

; 498  : 	if (__IsSameTargetVID(dwVID))

  00003	ff 75 08	 push	 DWORD PTR _dwVID$[ebp]
  00006	8b d1		 mov	 edx, ecx
  00008	8d 4a fc	 lea	 ecx, DWORD PTR [edx-4]
  0000b	e8 00 00 00 00	 call	 ?__IsSameTargetVID@CPythonPlayer@@IAE_NK@Z ; CPythonPlayer::__IsSameTargetVID
  00010	84 c0		 test	 al, al
  00012	74 0b		 je	 SHORT $LN2@NotifyChar

; 499  : 	{
; 500  : 		SetTarget(0);

  00014	8b 02		 mov	 eax, DWORD PTR [edx]
  00016	8b ca		 mov	 ecx, edx
  00018	6a 01		 push	 1
  0001a	6a 00		 push	 0
  0001c	ff 50 60	 call	 DWORD PTR [eax+96]
$LN2@NotifyChar:

; 501  : 	}
; 502  : }

  0001f	5d		 pop	 ebp
  00020	c2 04 00	 ret	 4
?NotifyCharacterDead@CPythonPlayer@@UAEXK@Z ENDP	; CPythonPlayer::NotifyCharacterDead
_TEXT	ENDS
; Function compile flags: /Ogtp
; File E:\Metin2_server\SolWayneSF v6\ClientVS22\source\UserInterface\PythonPlayer.cpp
;	COMDAT ?NotifyCharacterUpdate@CPythonPlayer@@UAEXK@Z
_TEXT	SEGMENT
_dwVID$ = 8						; size = 4
?NotifyCharacterUpdate@CPythonPlayer@@UAEXK@Z PROC	; CPythonPlayer::NotifyCharacterUpdate, COMDAT
; _this$ = ecx

; 505  : {

  00000	55		 push	 ebp
  00001	8b ec		 mov	 ebp, esp
  00003	53		 push	 ebx

; 506  : 	if (__IsSameTargetVID(dwVID))

  00004	8b 5d 08	 mov	 ebx, DWORD PTR _dwVID$[ebp]
  00007	57		 push	 edi
  00008	8b f9		 mov	 edi, ecx
  0000a	53		 push	 ebx
  0000b	8d 4f fc	 lea	 ecx, DWORD PTR [edi-4]
  0000e	e8 00 00 00 00	 call	 ?__IsSameTargetVID@CPythonPlayer@@IAE_NK@Z ; CPythonPlayer::__IsSameTargetVID
  00013	84 c0		 test	 al, al
  00015	74 79		 je	 SHORT $LN5@NotifyChar

; 507  : 	{
; 508  : 		CInstanceBase * pMainInstance = NEW_GetMainActorPtr();

  00017	8b 07		 mov	 eax, DWORD PTR [edi]
  00019	8b cf		 mov	 ecx, edi
  0001b	56		 push	 esi
  0001c	ff 90 88 00 00
	00		 call	 DWORD PTR [eax+136]

; 509  : 		CInstanceBase * pTargetInstance = CPythonCharacterManager::Instance().GetInstancePtr(dwVID);

  00022	8b 0d 00 00 00
	00		 mov	 ecx, DWORD PTR ?ms_singleton@?$CSingleton@VCPythonCharacterManager@@@@0PAVCPythonCharacterManager@@A ; CSingleton<CPythonCharacterManager>::ms_singleton
  00028	8b f0		 mov	 esi, eax
  0002a	83 c1 04	 add	 ecx, 4
  0002d	53		 push	 ebx
  0002e	8b 11		 mov	 edx, DWORD PTR [ecx]
  00030	ff 52 08	 call	 DWORD PTR [edx+8]

; 510  : 		if (pMainInstance && pTargetInstance)

  00033	85 f6		 test	 esi, esi
  00035	5e		 pop	 esi
  00036	74 58		 je	 SHORT $LN5@NotifyChar
  00038	85 c0		 test	 eax, eax
  0003a	74 54		 je	 SHORT $LN5@NotifyChar

; 511  : 		{
; 512  : 			if (!pMainInstance->IsTargetableInstance(*pTargetInstance))

  0003c	50		 push	 eax
  0003d	e8 00 00 00 00	 call	 ?IsTargetableInstance@CInstanceBase@@QAE_NAAV1@@Z ; CInstanceBase::IsTargetableInstance
  00042	84 c0		 test	 al, al
  00044	75 2d		 jne	 SHORT $LN4@NotifyChar

; 513  : 			{
; 514  : 				SetTarget(0);

  00046	8b 07		 mov	 eax, DWORD PTR [edi]
  00048	8b cf		 mov	 ecx, edi
  0004a	6a 01		 push	 1
  0004c	6a 00		 push	 0
  0004e	ff 50 60	 call	 DWORD PTR [eax+96]

; 515  : 				PyCallClassMemberFunc(m_ppyGameWindow, "CloseTargetBoard", Py_BuildValue("()"));

  00051	68 00 00 00 00	 push	 OFFSET ??_C@_02HCKGKOFO@?$CI?$CJ@
  00056	ff 15 00 00 00
	00		 call	 DWORD PTR __imp__Py_BuildValue
  0005c	50		 push	 eax
  0005d	68 00 00 00 00	 push	 OFFSET ??_C@_0BB@FNPCBFHE@CloseTargetBoard@
  00062	ff 77 04	 push	 DWORD PTR [edi+4]
  00065	e8 00 00 00 00	 call	 ?PyCallClassMemberFunc@@YA_NPAU_object@@PBD0@Z ; PyCallClassMemberFunc
  0006a	83 c4 10	 add	 esp, 16			; 00000010H
  0006d	5f		 pop	 edi

; 520  : 			}
; 521  : 		}
; 522  : 	}
; 523  : }

  0006e	5b		 pop	 ebx
  0006f	5d		 pop	 ebp
  00070	c2 04 00	 ret	 4
$LN4@NotifyChar:

; 516  : 			}
; 517  : 			else
; 518  : 			{
; 519  : 				PyCallClassMemberFunc(m_ppyGameWindow, "RefreshTargetBoardByVID", Py_BuildValue("(i)", dwVID));

  00073	53		 push	 ebx
  00074	68 00 00 00 00	 push	 OFFSET ??_C@_03LIHNMIHG@?$CIi?$CJ@
  00079	ff 15 00 00 00
	00		 call	 DWORD PTR __imp__Py_BuildValue
  0007f	50		 push	 eax
  00080	68 00 00 00 00	 push	 OFFSET ??_C@_0BI@IJENFIMO@RefreshTargetBoardByVID@
  00085	ff 77 04	 push	 DWORD PTR [edi+4]
  00088	e8 00 00 00 00	 call	 ?PyCallClassMemberFunc@@YA_NPAU_object@@PBD0@Z ; PyCallClassMemberFunc
  0008d	83 c4 14	 add	 esp, 20			; 00000014H
$LN5@NotifyChar:

; 520  : 			}
; 521  : 		}
; 522  : 	}
; 523  : }

  00090	5f		 pop	 edi
  00091	5b		 pop	 ebx
  00092	5d		 pop	 ebp
  00093	c2 04 00	 ret	 4
?NotifyCharacterUpdate@CPythonPlayer@@UAEXK@Z ENDP	; CPythonPlayer::NotifyCharacterUpdate
_TEXT	ENDS
; Function compile flags: /Ogtp
; File E:\Metin2_server\SolWayneSF v6\ClientVS22\source\UserInterface\PythonPlayer.cpp
;	COMDAT ?NotifyChangePKMode@CPythonPlayer@@UAEXXZ
_TEXT	SEGMENT
?NotifyChangePKMode@CPythonPlayer@@UAEXXZ PROC		; CPythonPlayer::NotifyChangePKMode, COMDAT
; _this$ = ecx

; 531  : {

  00000	56		 push	 esi

; 532  : 	PyCallClassMemberFunc(m_ppyGameWindow, "OnChangePKMode", Py_BuildValue("()"));

  00001	68 00 00 00 00	 push	 OFFSET ??_C@_02HCKGKOFO@?$CI?$CJ@
  00006	8b f1		 mov	 esi, ecx
  00008	ff 15 00 00 00
	00		 call	 DWORD PTR __imp__Py_BuildValue
  0000e	50		 push	 eax
  0000f	68 00 00 00 00	 push	 OFFSET ??_C@_0P@PDEFNCOA@OnChangePKMode@
  00014	ff 76 04	 push	 DWORD PTR [esi+4]
  00017	e8 00 00 00 00	 call	 ?PyCallClassMemberFunc@@YA_NPAU_object@@PBD0@Z ; PyCallClassMemberFunc
  0001c	83 c4 10	 add	 esp, 16			; 00000010H
  0001f	5e		 pop	 esi

; 533  : }

  00020	c3		 ret	 0
?NotifyChangePKMode@CPythonPlayer@@UAEXXZ ENDP		; CPythonPlayer::NotifyChangePKMode
_TEXT	ENDS
; Function compile flags: /Ogtp
; File E:\Metin2_server\SolWayneSF v6\ClientVS22\source\UserInterface\PythonPlayer.cpp
; File E:\Metin2_server\SolWayneSF v6\ClientVS22\source\UserInterface\GameType.h
; File E:\Metin2_server\SolWayneSF v6\ClientVS22\source\UserInterface\PythonPlayer.cpp
; File E:\Metin2_server\SolWayneSF v6\ClientVS22\source\UserInterface\GameType.h
; File E:\Metin2_server\SolWayneSF v6\ClientVS22\source\UserInterface\PythonPlayer.cpp
; File E:\Metin2_server\SolWayneSF v6\ClientVS22\source\UserInterface\GameType.h
; File E:\Metin2_server\SolWayneSF v6\ClientVS22\source\UserInterface\PythonPlayer.cpp
;	COMDAT ?MoveItemData@CPythonPlayer@@QAEXUSItemPos@@0@Z
_TEXT	SEGMENT
_dst_item$ = -100					; size = 46
_src_item$ = -52					; size = 46
__$ArrayPad$ = -4					; size = 4
_SrcCell$ = 8						; size = 3
_DstCell$ = 12						; size = 3
?MoveItemData@CPythonPlayer@@QAEXUSItemPos@@0@Z PROC	; CPythonPlayer::MoveItemData, COMDAT
; _this$ = ecx

; 537  : {

  00000	55		 push	 ebp
  00001	8b ec		 mov	 ebp, esp
  00003	83 ec 64	 sub	 esp, 100		; 00000064H
  00006	a1 00 00 00 00	 mov	 eax, DWORD PTR ___security_cookie
  0000b	33 c5		 xor	 eax, ebp
  0000d	89 45 fc	 mov	 DWORD PTR __$ArrayPad$[ebp], eax
; File E:\Metin2_server\SolWayneSF v6\ClientVS22\source\UserInterface\GameType.h

; 221  : 		switch (window_type)

  00010	66 8b 45 08	 mov	 ax, WORD PTR _SrcCell$[ebp]
; File E:\Metin2_server\SolWayneSF v6\ClientVS22\source\UserInterface\PythonPlayer.cpp

; 537  : {

  00014	53		 push	 ebx
  00015	56		 push	 esi
  00016	57		 push	 edi
  00017	8b f9		 mov	 edi, ecx
; File E:\Metin2_server\SolWayneSF v6\ClientVS22\source\UserInterface\GameType.h

; 221  : 		switch (window_type)

  00019	0f b6 c0	 movzx	 eax, al
  0001c	b9 02 01 00 00	 mov	 ecx, 258		; 00000102H
  00021	bb 80 04 00 00	 mov	 ebx, 1152		; 00000480H
  00026	8d 71 de	 lea	 esi, DWORD PTR [ecx-34]
  00029	83 e8 01	 sub	 eax, 1
  0002c	74 20		 je	 SHORT $LN8@MoveItemDa
  0002e	83 e8 01	 sub	 eax, 1
  00031	74 12		 je	 SHORT $LN9@MoveItemDa
  00033	83 e8 03	 sub	 eax, 3
  00036	0f 85 1a 01 00
	00		 jne	 $LN3@MoveItemDa

; 228  : 			break;
; 229  : 		case DRAGON_SOUL_INVENTORY:
; 230  : 			return cell < (DS_INVENTORY_MAX_NUM);

  0003c	66 8b 55 09	 mov	 dx, WORD PTR _SrcCell$[ebp+1]
  00040	66 3b d3	 cmp	 dx, bx
  00043	eb 10		 jmp	 SHORT $LN21@MoveItemDa
$LN9@MoveItemDa:

; 225  : 			break;
; 226  : 		case EQUIPMENT:
; 227  : 			return cell < c_DragonSoul_Equip_End;

  00045	66 8b 55 09	 mov	 dx, WORD PTR _SrcCell$[ebp+1]
  00049	66 3b d6	 cmp	 dx, si
  0004c	eb 07		 jmp	 SHORT $LN21@MoveItemDa
$LN8@MoveItemDa:

; 222  : 		{
; 223  : 		case INVENTORY:
; 224  : 			return cell < c_Inventory_Count;

  0004e	66 8b 55 09	 mov	 dx, WORD PTR _SrcCell$[ebp+1]
  00052	66 3b d1	 cmp	 dx, cx
$LN21@MoveItemDa:
; File E:\Metin2_server\SolWayneSF v6\ClientVS22\source\UserInterface\PythonPlayer.cpp

; 538  : 	if (!SrcCell.IsValidCell() || !DstCell.IsValidCell())

  00055	0f 92 c0	 setb	 al
  00058	84 c0		 test	 al, al
  0005a	0f 84 f6 00 00
	00		 je	 $LN3@MoveItemDa
; File E:\Metin2_server\SolWayneSF v6\ClientVS22\source\UserInterface\GameType.h

; 221  : 		switch (window_type)

  00060	66 8b 45 0c	 mov	 ax, WORD PTR _DstCell$[ebp]
  00064	0f b6 c0	 movzx	 eax, al
  00067	83 e8 01	 sub	 eax, 1
  0006a	74 25		 je	 SHORT $LN16@MoveItemDa
  0006c	83 e8 01	 sub	 eax, 1
  0006f	74 17		 je	 SHORT $LN17@MoveItemDa
  00071	83 e8 03	 sub	 eax, 3
  00074	0f 85 dc 00 00
	00		 jne	 $LN3@MoveItemDa

; 228  : 			break;
; 229  : 		case DRAGON_SOUL_INVENTORY:
; 230  : 			return cell < (DS_INVENTORY_MAX_NUM);

  0007a	66 8b 5d 0d	 mov	 bx, WORD PTR _DstCell$[ebp+1]
  0007e	b8 80 04 00 00	 mov	 eax, 1152		; 00000480H
  00083	66 3b d8	 cmp	 bx, ax
  00086	eb 10		 jmp	 SHORT $LN22@MoveItemDa
$LN17@MoveItemDa:

; 225  : 			break;
; 226  : 		case EQUIPMENT:
; 227  : 			return cell < c_DragonSoul_Equip_End;

  00088	66 8b 5d 0d	 mov	 bx, WORD PTR _DstCell$[ebp+1]
  0008c	66 3b de	 cmp	 bx, si
  0008f	eb 07		 jmp	 SHORT $LN22@MoveItemDa
$LN16@MoveItemDa:

; 222  : 		{
; 223  : 		case INVENTORY:
; 224  : 			return cell < c_Inventory_Count;

  00091	66 8b 5d 0d	 mov	 bx, WORD PTR _DstCell$[ebp+1]
  00095	66 3b d9	 cmp	 bx, cx
$LN22@MoveItemDa:
; File E:\Metin2_server\SolWayneSF v6\ClientVS22\source\UserInterface\PythonPlayer.cpp

; 538  : 	if (!SrcCell.IsValidCell() || !DstCell.IsValidCell())

  00098	0f 92 c0	 setb	 al
  0009b	84 c0		 test	 al, al
  0009d	0f 84 b3 00 00
	00		 je	 $LN3@MoveItemDa

; 539  : 		return;
; 540  : 
; 541  : 	TItemData src_item(*GetItemData(SrcCell));

  000a3	66 8b 45 08	 mov	 ax, WORD PTR _SrcCell$[ebp]
  000a7	51		 push	 ecx
  000a8	8b cc		 mov	 ecx, esp
  000aa	66 89 01	 mov	 WORD PTR [ecx], ax
  000ad	8a c6		 mov	 al, dh
  000af	88 41 02	 mov	 BYTE PTR [ecx+2], al
  000b2	8b cf		 mov	 ecx, edi
  000b4	e8 00 00 00 00	 call	 ?GetItemData@CPythonPlayer@@QBEPBUpacket_item@@USItemPos@@@Z ; CPythonPlayer::GetItemData
  000b9	0f 10 00	 movups	 xmm0, XMMWORD PTR [eax]
  000bc	0f 11 45 cc	 movups	 XMMWORD PTR _src_item$[ebp], xmm0
  000c0	0f 10 40 10	 movups	 xmm0, XMMWORD PTR [eax+16]
  000c4	0f 11 45 dc	 movups	 XMMWORD PTR _src_item$[ebp+16], xmm0
  000c8	f3 0f 7e 40 20	 movq	 xmm0, QWORD PTR [eax+32]
  000cd	66 0f d6 45 ec	 movq	 QWORD PTR _src_item$[ebp+32], xmm0
  000d2	8b 48 28	 mov	 ecx, DWORD PTR [eax+40]
  000d5	89 4d f4	 mov	 DWORD PTR _src_item$[ebp+40], ecx
  000d8	0f b7 40 2c	 movzx	 eax, WORD PTR [eax+44]

; 542  : 	TItemData dst_item(*GetItemData(DstCell));

  000dc	51		 push	 ecx
  000dd	8b cc		 mov	 ecx, esp
  000df	66 89 45 f8	 mov	 WORD PTR _src_item$[ebp+44], ax
  000e3	66 8b 45 0c	 mov	 ax, WORD PTR _DstCell$[ebp]
  000e7	66 89 01	 mov	 WORD PTR [ecx], ax
  000ea	8a c7		 mov	 al, bh
  000ec	88 41 02	 mov	 BYTE PTR [ecx+2], al
  000ef	8b cf		 mov	 ecx, edi
  000f1	e8 00 00 00 00	 call	 ?GetItemData@CPythonPlayer@@QBEPBUpacket_item@@USItemPos@@@Z ; CPythonPlayer::GetItemData

; 543  : 	SetItemData(DstCell, src_item);

  000f6	8b 57 04	 mov	 edx, DWORD PTR [edi+4]
  000f9	0f 10 00	 movups	 xmm0, XMMWORD PTR [eax]
  000fc	0f 11 45 9c	 movups	 XMMWORD PTR _dst_item$[ebp], xmm0
  00100	0f 10 40 10	 movups	 xmm0, XMMWORD PTR [eax+16]
  00104	0f 11 45 ac	 movups	 XMMWORD PTR _dst_item$[ebp+16], xmm0
  00108	f3 0f 7e 40 20	 movq	 xmm0, QWORD PTR [eax+32]
  0010d	66 0f d6 45 bc	 movq	 QWORD PTR _dst_item$[ebp+32], xmm0
  00112	8b 48 28	 mov	 ecx, DWORD PTR [eax+40]
  00115	89 4d c4	 mov	 DWORD PTR _dst_item$[ebp+40], ecx
  00118	0f b7 40 2c	 movzx	 eax, WORD PTR [eax+44]
  0011c	66 89 45 c8	 mov	 WORD PTR _dst_item$[ebp+44], ax
  00120	8d 45 cc	 lea	 eax, DWORD PTR _src_item$[ebp]
  00123	50		 push	 eax
  00124	66 8b 45 0c	 mov	 ax, WORD PTR _DstCell$[ebp]
  00128	51		 push	 ecx
  00129	8b cc		 mov	 ecx, esp
  0012b	66 89 01	 mov	 WORD PTR [ecx], ax
  0012e	8a c7		 mov	 al, bh
  00130	88 41 02	 mov	 BYTE PTR [ecx+2], al
  00133	8d 4f 04	 lea	 ecx, DWORD PTR [edi+4]
  00136	ff 52 30	 call	 DWORD PTR [edx+48]

; 544  : 	SetItemData(SrcCell, dst_item);

  00139	8b 77 04	 mov	 esi, DWORD PTR [edi+4]
  0013c	8d 45 9c	 lea	 eax, DWORD PTR _dst_item$[ebp]
  0013f	50		 push	 eax
  00140	66 8b 45 08	 mov	 ax, WORD PTR _SrcCell$[ebp]
  00144	51		 push	 ecx
  00145	8b d4		 mov	 edx, esp
  00147	8d 4f 04	 lea	 ecx, DWORD PTR [edi+4]
  0014a	66 89 02	 mov	 WORD PTR [edx], ax
  0014d	8a 45 0a	 mov	 al, BYTE PTR _SrcCell$[ebp+2]
  00150	88 42 02	 mov	 BYTE PTR [edx+2], al
  00153	ff 56 30	 call	 DWORD PTR [esi+48]
$LN3@MoveItemDa:

; 545  : }

  00156	8b 4d fc	 mov	 ecx, DWORD PTR __$ArrayPad$[ebp]
  00159	5f		 pop	 edi
  0015a	5e		 pop	 esi
  0015b	33 cd		 xor	 ecx, ebp
  0015d	5b		 pop	 ebx
  0015e	e8 00 00 00 00	 call	 @__security_check_cookie@4
  00163	8b e5		 mov	 esp, ebp
  00165	5d		 pop	 ebp
  00166	c2 08 00	 ret	 8
?MoveItemData@CPythonPlayer@@QAEXUSItemPos@@0@Z ENDP	; CPythonPlayer::MoveItemData
_TEXT	ENDS
; Function compile flags: /Ogtp
; File E:\Metin2_server\SolWayneSF v6\ClientVS22\source\UserInterface\PythonPlayer.cpp
; File E:\Metin2_server\SolWayneSF v6\ClientVS22\source\UserInterface\GameType.h
; File E:\Metin2_server\SolWayneSF v6\ClientVS22\source\UserInterface\PythonPlayer.cpp
; File E:\Metin2_server\SolWayneSF v6\ClientVS22\source\UserInterface\GameType.h
; File E:\Metin2_server\SolWayneSF v6\ClientVS22\source\UserInterface\PythonPlayer.cpp
;	COMDAT ?GetItemData@CPythonPlayer@@QBEPBUpacket_item@@USItemPos@@@Z
_TEXT	SEGMENT
_Cell$ = 8						; size = 3
?GetItemData@CPythonPlayer@@QBEPBUpacket_item@@USItemPos@@@Z PROC ; CPythonPlayer::GetItemData, COMDAT
; _this$ = ecx

; 548  : {

  00000	55		 push	 ebp
  00001	8b ec		 mov	 ebp, esp
; File E:\Metin2_server\SolWayneSF v6\ClientVS22\source\UserInterface\GameType.h

; 221  : 		switch (window_type)

  00003	0f b6 45 08	 movzx	 eax, BYTE PTR _Cell$[ebp]
  00007	8b d0		 mov	 edx, eax
; File E:\Metin2_server\SolWayneSF v6\ClientVS22\source\UserInterface\PythonPlayer.cpp

; 548  : {

  00009	56		 push	 esi
  0000a	8b f1		 mov	 esi, ecx
; File E:\Metin2_server\SolWayneSF v6\ClientVS22\source\UserInterface\GameType.h

; 221  : 		switch (window_type)

  0000c	83 ea 01	 sub	 edx, 1
  0000f	74 18		 je	 SHORT $LN13@GetItemDat
  00011	83 ea 01	 sub	 edx, 1
  00014	74 0c		 je	 SHORT $LN14@GetItemDat
  00016	83 ea 03	 sub	 edx, 3
  00019	75 21		 jne	 SHORT $LN18@GetItemDat

; 228  : 			break;
; 229  : 		case DRAGON_SOUL_INVENTORY:
; 230  : 			return cell < (DS_INVENTORY_MAX_NUM);

  0001b	ba 80 04 00 00	 mov	 edx, 1152		; 00000480H
  00020	eb 0c		 jmp	 SHORT $LN19@GetItemDat
$LN14@GetItemDat:

; 225  : 			break;
; 226  : 		case EQUIPMENT:
; 227  : 			return cell < c_DragonSoul_Equip_End;

  00022	ba e0 00 00 00	 mov	 edx, 224		; 000000e0H
  00027	eb 05		 jmp	 SHORT $LN19@GetItemDat
$LN13@GetItemDat:

; 222  : 		{
; 223  : 		case INVENTORY:
; 224  : 			return cell < c_Inventory_Count;

  00029	ba 02 01 00 00	 mov	 edx, 258		; 00000102H
$LN19@GetItemDat:
; File E:\Metin2_server\SolWayneSF v6\ClientVS22\source\UserInterface\PythonPlayer.cpp

; 549  : 	if (!Cell.IsValidCell())

  0002e	66 8b 4d 09	 mov	 cx, WORD PTR _Cell$[ebp+1]
  00032	66 3b ca	 cmp	 cx, dx
  00035	0f 92 c2	 setb	 dl
  00038	84 d2		 test	 dl, dl
  0003a	75 07		 jne	 SHORT $LN4@GetItemDat
$LN18@GetItemDat:

; 559  : 	default:
; 560  : 		return NULL;
; 561  : 	}
; 562  : }

  0003c	33 c0		 xor	 eax, eax
  0003e	5e		 pop	 esi
  0003f	5d		 pop	 ebp
  00040	c2 04 00	 ret	 4
$LN4@GetItemDat:

; 550  : 		return NULL;
; 551  : 
; 552  : 	switch (Cell.window_type)

  00043	83 e8 01	 sub	 eax, 1
  00046	74 1c		 je	 SHORT $LN5@GetItemDat
  00048	83 e8 01	 sub	 eax, 1
  0004b	74 17		 je	 SHORT $LN5@GetItemDat
  0004d	83 e8 03	 sub	 eax, 3
  00050	75 ea		 jne	 SHORT $LN18@GetItemDat

; 557  : 	case DRAGON_SOUL_INVENTORY:
; 558  : 		return &m_playerStatus.aDSItem[Cell.cell];

  00052	0f b7 c1	 movzx	 eax, cx
  00055	6b c0 2e	 imul	 eax, eax, 46
  00058	05 cc 2e 00 00	 add	 eax, 11980		; 00002eccH

; 559  : 	default:
; 560  : 		return NULL;
; 561  : 	}
; 562  : }

  0005d	03 c6		 add	 eax, esi
  0005f	5e		 pop	 esi
  00060	5d		 pop	 ebp
  00061	c2 04 00	 ret	 4
$LN5@GetItemDat:

; 553  : 	{
; 554  : 	case INVENTORY:
; 555  : 	case EQUIPMENT:
; 556  : 		return &m_playerStatus.aItem[Cell.cell];

  00064	0f b7 c1	 movzx	 eax, cx
  00067	6b c0 2e	 imul	 eax, eax, 46
  0006a	83 c0 70	 add	 eax, 112		; 00000070H

; 559  : 	default:
; 560  : 		return NULL;
; 561  : 	}
; 562  : }

  0006d	03 c6		 add	 eax, esi
  0006f	5e		 pop	 esi
  00070	5d		 pop	 ebp
  00071	c2 04 00	 ret	 4
?GetItemData@CPythonPlayer@@QBEPBUpacket_item@@USItemPos@@@Z ENDP ; CPythonPlayer::GetItemData
_TEXT	ENDS
; Function compile flags: /Ogtp
; File E:\Metin2_server\SolWayneSF v6\ClientVS22\source\UserInterface\PythonPlayer.cpp
; File E:\Metin2_server\SolWayneSF v6\ClientVS22\source\UserInterface\GameType.h
; File E:\Metin2_server\SolWayneSF v6\ClientVS22\source\UserInterface\PythonPlayer.cpp
; File E:\Metin2_server\SolWayneSF v6\ClientVS22\source\UserInterface\GameType.h
; File E:\Metin2_server\SolWayneSF v6\ClientVS22\source\UserInterface\PythonPlayer.cpp
;	COMDAT ?SetItemData@CPythonPlayer@@UAEXUSItemPos@@ABUpacket_item@@@Z
_TEXT	SEGMENT
_Cell$ = 8						; size = 3
_pItemData$1 = 12					; size = 4
_c_rkItemInst$ = 12					; size = 4
?SetItemData@CPythonPlayer@@UAEXUSItemPos@@ABUpacket_item@@@Z PROC ; CPythonPlayer::SetItemData, COMDAT
; _this$ = ecx

; 565  : {

  00000	55		 push	 ebp
  00001	8b ec		 mov	 ebp, esp
; File E:\Metin2_server\SolWayneSF v6\ClientVS22\source\UserInterface\GameType.h

; 221  : 		switch (window_type)

  00003	8a 55 08	 mov	 dl, BYTE PTR _Cell$[ebp]
  00006	0f b6 c2	 movzx	 eax, dl
; File E:\Metin2_server\SolWayneSF v6\ClientVS22\source\UserInterface\PythonPlayer.cpp

; 565  : {

  00009	57		 push	 edi
  0000a	8b f9		 mov	 edi, ecx
; File E:\Metin2_server\SolWayneSF v6\ClientVS22\source\UserInterface\GameType.h

; 221  : 		switch (window_type)

  0000c	83 e8 01	 sub	 eax, 1
  0000f	74 1c		 je	 SHORT $LN14@SetItemDat
  00011	83 e8 01	 sub	 eax, 1
  00014	74 10		 je	 SHORT $LN15@SetItemDat
  00016	83 e8 03	 sub	 eax, 3
  00019	0f 85 f8 00 00
	00		 jne	 $LN2@SetItemDat

; 228  : 			break;
; 229  : 		case DRAGON_SOUL_INVENTORY:
; 230  : 			return cell < (DS_INVENTORY_MAX_NUM);

  0001f	b8 80 04 00 00	 mov	 eax, 1152		; 00000480H
  00024	eb 0c		 jmp	 SHORT $LN21@SetItemDat
$LN15@SetItemDat:

; 225  : 			break;
; 226  : 		case EQUIPMENT:
; 227  : 			return cell < c_DragonSoul_Equip_End;

  00026	b8 e0 00 00 00	 mov	 eax, 224		; 000000e0H
  0002b	eb 05		 jmp	 SHORT $LN21@SetItemDat
$LN14@SetItemDat:

; 222  : 		{
; 223  : 		case INVENTORY:
; 224  : 			return cell < c_Inventory_Count;

  0002d	b8 02 01 00 00	 mov	 eax, 258		; 00000102H
$LN21@SetItemDat:
; File E:\Metin2_server\SolWayneSF v6\ClientVS22\source\UserInterface\PythonPlayer.cpp

; 566  : 	if (!Cell.IsValidCell())

  00032	66 8b 4d 09	 mov	 cx, WORD PTR _Cell$[ebp+1]
  00036	66 3b c8	 cmp	 cx, ax
  00039	0f 92 c0	 setb	 al
  0003c	84 c0		 test	 al, al
  0003e	0f 84 d3 00 00
	00		 je	 $LN2@SetItemDat

; 567  : 		return;
; 568  : 
; 569  : 	if (c_rkItemInst.vnum != 0)

  00044	56		 push	 esi
  00045	8b 75 0c	 mov	 esi, DWORD PTR _c_rkItemInst$[ebp]
  00048	8b 06		 mov	 eax, DWORD PTR [esi]
  0004a	85 c0		 test	 eax, eax
  0004c	74 3a		 je	 SHORT $LN6@SetItemDat

; 570  : 	{
; 571  : 		CItemData * pItemData;
; 572  : 		if (!CItemManager::Instance().GetItemDataPointer(c_rkItemInst.vnum, &pItemData))

  0004e	8d 4d 0c	 lea	 ecx, DWORD PTR _pItemData$1[ebp]
  00051	51		 push	 ecx
  00052	8b 0d 00 00 00
	00		 mov	 ecx, DWORD PTR ?ms_singleton@?$CSingleton@VCItemManager@@@@0PAVCItemManager@@A ; CSingleton<CItemManager>::ms_singleton
  00058	50		 push	 eax
  00059	e8 00 00 00 00	 call	 ?GetItemDataPointer@CItemManager@@QAEHKPAPAVCItemData@@@Z ; CItemManager::GetItemDataPointer
  0005e	85 c0		 test	 eax, eax
  00060	75 1f		 jne	 SHORT $LN19@SetItemDat

; 573  : 		{
; 574  : 			TraceError("CPythonPlayer::SetItemData(window_type : %d, dwSlotIndex=%d, itemIndex=%d) - Failed to item data\n", Cell.window_type, Cell.cell, c_rkItemInst.vnum);

  00062	ff 36		 push	 DWORD PTR [esi]
  00064	0f b7 45 09	 movzx	 eax, WORD PTR _Cell$[ebp+1]
  00068	50		 push	 eax
  00069	0f b6 45 08	 movzx	 eax, BYTE PTR _Cell$[ebp]
  0006d	50		 push	 eax
  0006e	68 00 00 00 00	 push	 OFFSET ??_C@_0GC@FMCMFPCN@CPythonPlayer?3?3SetItemData?$CIwind@
  00073	e8 00 00 00 00	 call	 ?TraceError@@YAXPBDZZ	; TraceError
  00078	83 c4 10	 add	 esp, 16			; 00000010H
  0007b	5e		 pop	 esi
  0007c	5f		 pop	 edi

; 587  : 		break;
; 588  : 	}
; 589  : }

  0007d	5d		 pop	 ebp
  0007e	c2 08 00	 ret	 8
$LN19@SetItemDat:

; 570  : 	{
; 571  : 		CItemData * pItemData;
; 572  : 		if (!CItemManager::Instance().GetItemDataPointer(c_rkItemInst.vnum, &pItemData))

  00081	66 8b 4d 09	 mov	 cx, WORD PTR _Cell$[ebp+1]
  00085	8a 55 08	 mov	 dl, BYTE PTR _Cell$[ebp]
$LN6@SetItemDat:

; 575  : 			return;
; 576  : 		}
; 577  : 	}
; 578  : 
; 579  : 	switch (Cell.window_type)

  00088	0f b6 c2	 movzx	 eax, dl
  0008b	83 e8 01	 sub	 eax, 1
  0008e	74 4e		 je	 SHORT $LN7@SetItemDat
  00090	83 e8 01	 sub	 eax, 1
  00093	74 49		 je	 SHORT $LN7@SetItemDat
  00095	83 e8 03	 sub	 eax, 3
  00098	75 7c		 jne	 SHORT $LN20@SetItemDat

; 584  : 		break;
; 585  : 	case DRAGON_SOUL_INVENTORY:
; 586  : 		m_playerStatus.aDSItem[Cell.cell] = c_rkItemInst;

  0009a	0f 10 06	 movups	 xmm0, XMMWORD PTR [esi]
  0009d	0f b7 c1	 movzx	 eax, cx
  000a0	6b c8 2e	 imul	 ecx, eax, 46
  000a3	03 cf		 add	 ecx, edi
  000a5	0f 11 81 c8 2e
	00 00		 movups	 XMMWORD PTR [ecx+11976], xmm0
  000ac	0f 10 46 10	 movups	 xmm0, XMMWORD PTR [esi+16]
  000b0	0f 11 81 d8 2e
	00 00		 movups	 XMMWORD PTR [ecx+11992], xmm0
  000b7	f3 0f 7e 46 20	 movq	 xmm0, QWORD PTR [esi+32]
  000bc	66 0f d6 81 e8
	2e 00 00	 movq	 QWORD PTR [ecx+12008], xmm0
  000c4	8b 46 28	 mov	 eax, DWORD PTR [esi+40]
  000c7	89 81 f0 2e 00
	00		 mov	 DWORD PTR [ecx+12016], eax
  000cd	66 8b 46 2c	 mov	 ax, WORD PTR [esi+44]
  000d1	5e		 pop	 esi
  000d2	66 89 81 f4 2e
	00 00		 mov	 WORD PTR [ecx+12020], ax
  000d9	5f		 pop	 edi

; 587  : 		break;
; 588  : 	}
; 589  : }

  000da	5d		 pop	 ebp
  000db	c2 08 00	 ret	 8
$LN7@SetItemDat:

; 580  : 	{
; 581  : 	case INVENTORY:
; 582  : 	case EQUIPMENT:
; 583  : 		m_playerStatus.aItem[Cell.cell] = c_rkItemInst;

  000de	0f 10 06	 movups	 xmm0, XMMWORD PTR [esi]
  000e1	0f b7 c1	 movzx	 eax, cx
  000e4	6b c8 2e	 imul	 ecx, eax, 46
  000e7	03 cf		 add	 ecx, edi
  000e9	0f 11 41 6c	 movups	 XMMWORD PTR [ecx+108], xmm0
  000ed	0f 10 46 10	 movups	 xmm0, XMMWORD PTR [esi+16]
  000f1	0f 11 41 7c	 movups	 XMMWORD PTR [ecx+124], xmm0
  000f5	f3 0f 7e 46 20	 movq	 xmm0, QWORD PTR [esi+32]
  000fa	66 0f d6 81 8c
	00 00 00	 movq	 QWORD PTR [ecx+140], xmm0
  00102	8b 46 28	 mov	 eax, DWORD PTR [esi+40]
  00105	89 81 94 00 00
	00		 mov	 DWORD PTR [ecx+148], eax
  0010b	66 8b 46 2c	 mov	 ax, WORD PTR [esi+44]
  0010f	66 89 81 98 00
	00 00		 mov	 WORD PTR [ecx+152], ax
$LN20@SetItemDat:
  00116	5e		 pop	 esi
$LN2@SetItemDat:
  00117	5f		 pop	 edi

; 587  : 		break;
; 588  : 	}
; 589  : }

  00118	5d		 pop	 ebp
  00119	c2 08 00	 ret	 8
?SetItemData@CPythonPlayer@@UAEXUSItemPos@@ABUpacket_item@@@Z ENDP ; CPythonPlayer::SetItemData
_TEXT	ENDS
; Function compile flags: /Ogtp
; File E:\Metin2_server\SolWayneSF v6\ClientVS22\source\UserInterface\PythonPlayer.cpp
; File E:\Metin2_server\SolWayneSF v6\ClientVS22\source\UserInterface\GameType.h
; File E:\Metin2_server\SolWayneSF v6\ClientVS22\source\UserInterface\PythonPlayer.cpp
; File E:\Metin2_server\SolWayneSF v6\ClientVS22\source\UserInterface\GameType.h
; File E:\Metin2_server\SolWayneSF v6\ClientVS22\source\UserInterface\PythonPlayer.cpp
;	COMDAT ?GetItemIndex@CPythonPlayer@@UAEKUSItemPos@@@Z
_TEXT	SEGMENT
_Cell$ = 8						; size = 3
?GetItemIndex@CPythonPlayer@@UAEKUSItemPos@@@Z PROC	; CPythonPlayer::GetItemIndex, COMDAT
; _this$ = ecx

; 592  : {

  00000	55		 push	 ebp
  00001	8b ec		 mov	 ebp, esp
; File E:\Metin2_server\SolWayneSF v6\ClientVS22\source\UserInterface\GameType.h

; 221  : 		switch (window_type)

  00003	66 8b 55 08	 mov	 dx, WORD PTR _Cell$[ebp]
  00007	0f b6 c2	 movzx	 eax, dl
; File E:\Metin2_server\SolWayneSF v6\ClientVS22\source\UserInterface\PythonPlayer.cpp

; 592  : {

  0000a	56		 push	 esi
  0000b	8b f1		 mov	 esi, ecx
; File E:\Metin2_server\SolWayneSF v6\ClientVS22\source\UserInterface\GameType.h

; 221  : 		switch (window_type)

  0000d	83 e8 01	 sub	 eax, 1
  00010	74 18		 je	 SHORT $LN7@GetItemInd
  00012	83 e8 01	 sub	 eax, 1
  00015	74 0c		 je	 SHORT $LN8@GetItemInd
  00017	83 e8 03	 sub	 eax, 3
  0001a	75 21		 jne	 SHORT $LN12@GetItemInd

; 228  : 			break;
; 229  : 		case DRAGON_SOUL_INVENTORY:
; 230  : 			return cell < (DS_INVENTORY_MAX_NUM);

  0001c	b9 80 04 00 00	 mov	 ecx, 1152		; 00000480H
  00021	eb 0c		 jmp	 SHORT $LN13@GetItemInd
$LN8@GetItemInd:

; 225  : 			break;
; 226  : 		case EQUIPMENT:
; 227  : 			return cell < c_DragonSoul_Equip_End;

  00023	b9 e0 00 00 00	 mov	 ecx, 224		; 000000e0H
  00028	eb 05		 jmp	 SHORT $LN13@GetItemInd
$LN7@GetItemInd:

; 222  : 		{
; 223  : 		case INVENTORY:
; 224  : 			return cell < c_Inventory_Count;

  0002a	b9 02 01 00 00	 mov	 ecx, 258		; 00000102H
$LN13@GetItemInd:
; File E:\Metin2_server\SolWayneSF v6\ClientVS22\source\UserInterface\PythonPlayer.cpp

; 593  : 	if (!Cell.IsValidCell())

  0002f	66 8b 45 09	 mov	 ax, WORD PTR _Cell$[ebp+1]
  00033	66 3b c1	 cmp	 ax, cx
  00036	0f 92 c1	 setb	 cl
  00039	84 c9		 test	 cl, cl
  0003b	75 07		 jne	 SHORT $LN2@GetItemInd
$LN12@GetItemInd:

; 594  : 		return 0;

  0003d	33 c0		 xor	 eax, eax

; 597  : }

  0003f	5e		 pop	 esi
  00040	5d		 pop	 ebp
  00041	c2 04 00	 ret	 4
$LN2@GetItemInd:

; 595  : 
; 596  : 	return GetItemData(Cell)->vnum;

  00044	51		 push	 ecx
  00045	8b cc		 mov	 ecx, esp
  00047	8a c4		 mov	 al, ah
  00049	66 89 11	 mov	 WORD PTR [ecx], dx
  0004c	88 41 02	 mov	 BYTE PTR [ecx+2], al
  0004f	8d 4e fc	 lea	 ecx, DWORD PTR [esi-4]
  00052	e8 00 00 00 00	 call	 ?GetItemData@CPythonPlayer@@QBEPBUpacket_item@@USItemPos@@@Z ; CPythonPlayer::GetItemData

; 597  : }

  00057	5e		 pop	 esi
  00058	8b 00		 mov	 eax, DWORD PTR [eax]
  0005a	5d		 pop	 ebp
  0005b	c2 04 00	 ret	 4
?GetItemIndex@CPythonPlayer@@UAEKUSItemPos@@@Z ENDP	; CPythonPlayer::GetItemIndex
_TEXT	ENDS
; Function compile flags: /Ogtp
; File E:\Metin2_server\SolWayneSF v6\ClientVS22\source\UserInterface\PythonPlayer.cpp
; File E:\Metin2_server\SolWayneSF v6\ClientVS22\source\UserInterface\GameType.h
; File E:\Metin2_server\SolWayneSF v6\ClientVS22\source\UserInterface\PythonPlayer.cpp
; File E:\Metin2_server\SolWayneSF v6\ClientVS22\source\UserInterface\GameType.h
; File E:\Metin2_server\SolWayneSF v6\ClientVS22\source\UserInterface\PythonPlayer.cpp
;	COMDAT ?GetItemFlags@CPythonPlayer@@UAEKUSItemPos@@@Z
_TEXT	SEGMENT
_Cell$ = 8						; size = 3
?GetItemFlags@CPythonPlayer@@UAEKUSItemPos@@@Z PROC	; CPythonPlayer::GetItemFlags, COMDAT
; _this$ = ecx

; 600  : {

  00000	55		 push	 ebp
  00001	8b ec		 mov	 ebp, esp
; File E:\Metin2_server\SolWayneSF v6\ClientVS22\source\UserInterface\GameType.h

; 221  : 		switch (window_type)

  00003	66 8b 55 08	 mov	 dx, WORD PTR _Cell$[ebp]
  00007	0f b6 c2	 movzx	 eax, dl
; File E:\Metin2_server\SolWayneSF v6\ClientVS22\source\UserInterface\PythonPlayer.cpp

; 600  : {

  0000a	56		 push	 esi
  0000b	8b f1		 mov	 esi, ecx
; File E:\Metin2_server\SolWayneSF v6\ClientVS22\source\UserInterface\GameType.h

; 221  : 		switch (window_type)

  0000d	83 e8 01	 sub	 eax, 1
  00010	74 18		 je	 SHORT $LN7@GetItemFla
  00012	83 e8 01	 sub	 eax, 1
  00015	74 0c		 je	 SHORT $LN8@GetItemFla
  00017	83 e8 03	 sub	 eax, 3
  0001a	75 21		 jne	 SHORT $LN12@GetItemFla

; 228  : 			break;
; 229  : 		case DRAGON_SOUL_INVENTORY:
; 230  : 			return cell < (DS_INVENTORY_MAX_NUM);

  0001c	b9 80 04 00 00	 mov	 ecx, 1152		; 00000480H
  00021	eb 0c		 jmp	 SHORT $LN13@GetItemFla
$LN8@GetItemFla:

; 225  : 			break;
; 226  : 		case EQUIPMENT:
; 227  : 			return cell < c_DragonSoul_Equip_End;

  00023	b9 e0 00 00 00	 mov	 ecx, 224		; 000000e0H
  00028	eb 05		 jmp	 SHORT $LN13@GetItemFla
$LN7@GetItemFla:

; 222  : 		{
; 223  : 		case INVENTORY:
; 224  : 			return cell < c_Inventory_Count;

  0002a	b9 02 01 00 00	 mov	 ecx, 258		; 00000102H
$LN13@GetItemFla:
; File E:\Metin2_server\SolWayneSF v6\ClientVS22\source\UserInterface\PythonPlayer.cpp

; 601  : 	if (!Cell.IsValidCell())

  0002f	66 8b 45 09	 mov	 ax, WORD PTR _Cell$[ebp+1]
  00033	66 3b c1	 cmp	 ax, cx
  00036	0f 92 c1	 setb	 cl
  00039	84 c9		 test	 cl, cl
  0003b	75 07		 jne	 SHORT $LN2@GetItemFla
$LN12@GetItemFla:

; 602  : 		return 0;

  0003d	33 c0		 xor	 eax, eax

; 604  : 	assert (pItem != NULL);
; 605  : 	return pItem->flags;
; 606  : }

  0003f	5e		 pop	 esi
  00040	5d		 pop	 ebp
  00041	c2 04 00	 ret	 4
$LN2@GetItemFla:

; 603  : 	const TItemData * pItem = GetItemData(Cell);

  00044	51		 push	 ecx
  00045	8b cc		 mov	 ecx, esp
  00047	8a c4		 mov	 al, ah
  00049	66 89 11	 mov	 WORD PTR [ecx], dx
  0004c	88 41 02	 mov	 BYTE PTR [ecx+2], al
  0004f	8d 4e fc	 lea	 ecx, DWORD PTR [esi-4]
  00052	e8 00 00 00 00	 call	 ?GetItemData@CPythonPlayer@@QBEPBUpacket_item@@USItemPos@@@Z ; CPythonPlayer::GetItemData

; 604  : 	assert (pItem != NULL);
; 605  : 	return pItem->flags;
; 606  : }

  00057	5e		 pop	 esi
  00058	8b 40 05	 mov	 eax, DWORD PTR [eax+5]
  0005b	5d		 pop	 ebp
  0005c	c2 04 00	 ret	 4
?GetItemFlags@CPythonPlayer@@UAEKUSItemPos@@@Z ENDP	; CPythonPlayer::GetItemFlags
_TEXT	ENDS
; Function compile flags: /Ogtp
; File E:\Metin2_server\SolWayneSF v6\ClientVS22\source\UserInterface\PythonPlayer.cpp
; File E:\Metin2_server\SolWayneSF v6\ClientVS22\source\UserInterface\GameType.h
; File E:\Metin2_server\SolWayneSF v6\ClientVS22\source\UserInterface\PythonPlayer.cpp
; File E:\Metin2_server\SolWayneSF v6\ClientVS22\source\UserInterface\GameType.h
; File E:\Metin2_server\SolWayneSF v6\ClientVS22\source\UserInterface\PythonPlayer.cpp
;	COMDAT ?GetItemCount@CPythonPlayer@@UAEKUSItemPos@@@Z
_TEXT	SEGMENT
_Cell$ = 8						; size = 3
?GetItemCount@CPythonPlayer@@UAEKUSItemPos@@@Z PROC	; CPythonPlayer::GetItemCount, COMDAT
; _this$ = ecx

; 609  : {

  00000	55		 push	 ebp
  00001	8b ec		 mov	 ebp, esp
; File E:\Metin2_server\SolWayneSF v6\ClientVS22\source\UserInterface\GameType.h

; 221  : 		switch (window_type)

  00003	66 8b 55 08	 mov	 dx, WORD PTR _Cell$[ebp]
  00007	0f b6 c2	 movzx	 eax, dl
; File E:\Metin2_server\SolWayneSF v6\ClientVS22\source\UserInterface\PythonPlayer.cpp

; 609  : {

  0000a	56		 push	 esi
  0000b	8b f1		 mov	 esi, ecx
; File E:\Metin2_server\SolWayneSF v6\ClientVS22\source\UserInterface\GameType.h

; 221  : 		switch (window_type)

  0000d	83 e8 01	 sub	 eax, 1
  00010	74 18		 je	 SHORT $LN9@GetItemCou
  00012	83 e8 01	 sub	 eax, 1
  00015	74 0c		 je	 SHORT $LN10@GetItemCou
  00017	83 e8 03	 sub	 eax, 3
  0001a	75 41		 jne	 SHORT $LN15@GetItemCou

; 228  : 			break;
; 229  : 		case DRAGON_SOUL_INVENTORY:
; 230  : 			return cell < (DS_INVENTORY_MAX_NUM);

  0001c	b9 80 04 00 00	 mov	 ecx, 1152		; 00000480H
  00021	eb 0c		 jmp	 SHORT $LN16@GetItemCou
$LN10@GetItemCou:

; 225  : 			break;
; 226  : 		case EQUIPMENT:
; 227  : 			return cell < c_DragonSoul_Equip_End;

  00023	b9 e0 00 00 00	 mov	 ecx, 224		; 000000e0H
  00028	eb 05		 jmp	 SHORT $LN16@GetItemCou
$LN9@GetItemCou:

; 222  : 		{
; 223  : 		case INVENTORY:
; 224  : 			return cell < c_Inventory_Count;

  0002a	b9 02 01 00 00	 mov	 ecx, 258		; 00000102H
$LN16@GetItemCou:
; File E:\Metin2_server\SolWayneSF v6\ClientVS22\source\UserInterface\PythonPlayer.cpp

; 610  : 	if (!Cell.IsValidCell())

  0002f	66 8b 45 09	 mov	 ax, WORD PTR _Cell$[ebp+1]
  00033	66 3b c1	 cmp	 ax, cx
  00036	0f 92 c1	 setb	 cl
  00039	84 c9		 test	 cl, cl
  0003b	74 20		 je	 SHORT $LN15@GetItemCou

; 611  : 		return 0;
; 612  : 	const TItemData * pItem = GetItemData(Cell);

  0003d	51		 push	 ecx
  0003e	8b cc		 mov	 ecx, esp
  00040	8a c4		 mov	 al, ah
  00042	66 89 11	 mov	 WORD PTR [ecx], dx
  00045	88 41 02	 mov	 BYTE PTR [ecx+2], al
  00048	8d 4e fc	 lea	 ecx, DWORD PTR [esi-4]
  0004b	e8 00 00 00 00	 call	 ?GetItemData@CPythonPlayer@@QBEPBUpacket_item@@USItemPos@@@Z ; CPythonPlayer::GetItemData

; 613  : 	if (pItem == NULL)

  00050	85 c0		 test	 eax, eax
  00052	74 09		 je	 SHORT $LN15@GetItemCou

; 615  : 	else
; 616  : 		return pItem->count;

  00054	0f b6 40 04	 movzx	 eax, BYTE PTR [eax+4]

; 617  : }

  00058	5e		 pop	 esi
  00059	5d		 pop	 ebp
  0005a	c2 04 00	 ret	 4
$LN15@GetItemCou:

; 614  : 		return 0;

  0005d	33 c0		 xor	 eax, eax

; 617  : }

  0005f	5e		 pop	 esi
  00060	5d		 pop	 ebp
  00061	c2 04 00	 ret	 4
?GetItemCount@CPythonPlayer@@UAEKUSItemPos@@@Z ENDP	; CPythonPlayer::GetItemCount
_TEXT	ENDS
; Function compile flags: /Ogtp
; File E:\Metin2_server\SolWayneSF v6\ClientVS22\source\UserInterface\PythonPlayer.cpp
;	COMDAT ?GetItemCountByVnum@CPythonPlayer@@QAEKK@Z
_TEXT	SEGMENT
_dwVnum$ = 8						; size = 4
?GetItemCountByVnum@CPythonPlayer@@QAEKK@Z PROC		; CPythonPlayer::GetItemCountByVnum, COMDAT
; _this$ = ecx

; 620  : {

  00000	55		 push	 ebp
  00001	8b ec		 mov	 ebp, esp
  00003	53		 push	 ebx
  00004	56		 push	 esi

; 621  : 	DWORD dwCount = 0;

  00005	33 f6		 xor	 esi, esi
  00007	81 c1 a2 00 00
	00		 add	 ecx, 162		; 000000a2H
  0000d	57		 push	 edi
  0000e	8b 7d 08	 mov	 edi, DWORD PTR _dwVnum$[ebp]
  00011	8d 5e 2b	 lea	 ebx, DWORD PTR [esi+43]
$LL4@GetItemCou:

; 624  : 	{
; 625  : 		const TItemData & c_rItemData = m_playerStatus.aItem[i];
; 626  : 		if (c_rItemData.vnum == dwVnum)

  00014	39 79 ce	 cmp	 DWORD PTR [ecx-50], edi
  00017	75 06		 jne	 SHORT $LN2@GetItemCou

; 627  : 		{
; 628  : 			dwCount += c_rItemData.count;

  00019	0f b6 41 d2	 movzx	 eax, BYTE PTR [ecx-46]
  0001d	03 f0		 add	 esi, eax
$LN2@GetItemCou:

; 624  : 	{
; 625  : 		const TItemData & c_rItemData = m_playerStatus.aItem[i];
; 626  : 		if (c_rItemData.vnum == dwVnum)

  0001f	39 79 fc	 cmp	 DWORD PTR [ecx-4], edi
  00022	75 05		 jne	 SHORT $LN11@GetItemCou

; 627  : 		{
; 628  : 			dwCount += c_rItemData.count;

  00024	0f b6 01	 movzx	 eax, BYTE PTR [ecx]
  00027	03 f0		 add	 esi, eax
$LN11@GetItemCou:

; 624  : 	{
; 625  : 		const TItemData & c_rItemData = m_playerStatus.aItem[i];
; 626  : 		if (c_rItemData.vnum == dwVnum)

  00029	39 79 2a	 cmp	 DWORD PTR [ecx+42], edi
  0002c	75 06		 jne	 SHORT $LN12@GetItemCou

; 627  : 		{
; 628  : 			dwCount += c_rItemData.count;

  0002e	0f b6 41 2e	 movzx	 eax, BYTE PTR [ecx+46]
  00032	03 f0		 add	 esi, eax
$LN12@GetItemCou:

; 624  : 	{
; 625  : 		const TItemData & c_rItemData = m_playerStatus.aItem[i];
; 626  : 		if (c_rItemData.vnum == dwVnum)

  00034	39 79 58	 cmp	 DWORD PTR [ecx+88], edi
  00037	75 06		 jne	 SHORT $LN13@GetItemCou

; 627  : 		{
; 628  : 			dwCount += c_rItemData.count;

  00039	0f b6 41 5c	 movzx	 eax, BYTE PTR [ecx+92]
  0003d	03 f0		 add	 esi, eax
$LN13@GetItemCou:

; 624  : 	{
; 625  : 		const TItemData & c_rItemData = m_playerStatus.aItem[i];
; 626  : 		if (c_rItemData.vnum == dwVnum)

  0003f	39 b9 86 00 00
	00		 cmp	 DWORD PTR [ecx+134], edi
  00045	75 09		 jne	 SHORT $LN14@GetItemCou

; 627  : 		{
; 628  : 			dwCount += c_rItemData.count;

  00047	0f b6 81 8a 00
	00 00		 movzx	 eax, BYTE PTR [ecx+138]
  0004e	03 f0		 add	 esi, eax
$LN14@GetItemCou:

; 624  : 	{
; 625  : 		const TItemData & c_rItemData = m_playerStatus.aItem[i];
; 626  : 		if (c_rItemData.vnum == dwVnum)

  00050	39 b9 b4 00 00
	00		 cmp	 DWORD PTR [ecx+180], edi
  00056	75 09		 jne	 SHORT $LN15@GetItemCou

; 627  : 		{
; 628  : 			dwCount += c_rItemData.count;

  00058	0f b6 91 b8 00
	00 00		 movzx	 edx, BYTE PTR [ecx+184]
  0005f	03 f2		 add	 esi, edx
$LN15@GetItemCou:

; 622  : 
; 623  : 	for (int i = 0; i < c_Inventory_Count; ++i)

  00061	81 c1 14 01 00
	00		 add	 ecx, 276		; 00000114H
  00067	83 eb 01	 sub	 ebx, 1
  0006a	75 a8		 jne	 SHORT $LL4@GetItemCou

; 629  : 		}
; 630  : 	}
; 631  : 
; 632  : 	return dwCount;

  0006c	5f		 pop	 edi
  0006d	8b c6		 mov	 eax, esi
  0006f	5e		 pop	 esi
  00070	5b		 pop	 ebx

; 633  : }

  00071	5d		 pop	 ebp
  00072	c2 04 00	 ret	 4
?GetItemCountByVnum@CPythonPlayer@@QAEKK@Z ENDP		; CPythonPlayer::GetItemCountByVnum
_TEXT	ENDS
; Function compile flags: /Ogtp
; File E:\Metin2_server\SolWayneSF v6\ClientVS22\source\UserInterface\PythonPlayer.cpp
; File E:\Metin2_server\SolWayneSF v6\ClientVS22\source\UserInterface\GameType.h
; File E:\Metin2_server\SolWayneSF v6\ClientVS22\source\UserInterface\PythonPlayer.cpp
; File E:\Metin2_server\SolWayneSF v6\ClientVS22\source\UserInterface\GameType.h
; File E:\Metin2_server\SolWayneSF v6\ClientVS22\source\UserInterface\PythonPlayer.cpp
; File E:\Metin2_server\SolWayneSF v6\ClientVS22\source\UserInterface\GameType.h
; File E:\Metin2_server\SolWayneSF v6\ClientVS22\source\UserInterface\PythonPlayer.cpp
;	COMDAT ?GetItemMetinSocket@CPythonPlayer@@QAEKUSItemPos@@K@Z
_TEXT	SEGMENT
_Cell$ = 8						; size = 3
_dwMetinSocketIndex$ = 12				; size = 4
?GetItemMetinSocket@CPythonPlayer@@QAEKUSItemPos@@K@Z PROC ; CPythonPlayer::GetItemMetinSocket, COMDAT
; _this$ = ecx

; 636  : {

  00000	55		 push	 ebp
  00001	8b ec		 mov	 ebp, esp
  00003	53		 push	 ebx
; File E:\Metin2_server\SolWayneSF v6\ClientVS22\source\UserInterface\GameType.h

; 221  : 		switch (window_type)

  00004	66 8b 5d 08	 mov	 bx, WORD PTR _Cell$[ebp]
; File E:\Metin2_server\SolWayneSF v6\ClientVS22\source\UserInterface\PythonPlayer.cpp

; 636  : {

  00008	56		 push	 esi
; File E:\Metin2_server\SolWayneSF v6\ClientVS22\source\UserInterface\GameType.h

; 221  : 		switch (window_type)

  00009	0f b6 c3	 movzx	 eax, bl
; File E:\Metin2_server\SolWayneSF v6\ClientVS22\source\UserInterface\PythonPlayer.cpp

; 636  : {

  0000c	57		 push	 edi
  0000d	8b f9		 mov	 edi, ecx
; File E:\Metin2_server\SolWayneSF v6\ClientVS22\source\UserInterface\GameType.h

; 221  : 		switch (window_type)

  0000f	83 e8 01	 sub	 eax, 1
  00012	74 18		 je	 SHORT $LN8@GetItemMet
  00014	83 e8 01	 sub	 eax, 1
  00017	74 0c		 je	 SHORT $LN9@GetItemMet
  00019	83 e8 03	 sub	 eax, 3
  0001c	75 46		 jne	 SHORT $LN14@GetItemMet

; 228  : 			break;
; 229  : 		case DRAGON_SOUL_INVENTORY:
; 230  : 			return cell < (DS_INVENTORY_MAX_NUM);

  0001e	b9 80 04 00 00	 mov	 ecx, 1152		; 00000480H
  00023	eb 0c		 jmp	 SHORT $LN15@GetItemMet
$LN9@GetItemMet:

; 225  : 			break;
; 226  : 		case EQUIPMENT:
; 227  : 			return cell < c_DragonSoul_Equip_End;

  00025	b9 e0 00 00 00	 mov	 ecx, 224		; 000000e0H
  0002a	eb 05		 jmp	 SHORT $LN15@GetItemMet
$LN8@GetItemMet:

; 222  : 		{
; 223  : 		case INVENTORY:
; 224  : 			return cell < c_Inventory_Count;

  0002c	b9 02 01 00 00	 mov	 ecx, 258		; 00000102H
$LN15@GetItemMet:
; File E:\Metin2_server\SolWayneSF v6\ClientVS22\source\UserInterface\PythonPlayer.cpp

; 637  : 	if (!Cell.IsValidCell())

  00031	66 8b 45 09	 mov	 ax, WORD PTR _Cell$[ebp+1]
  00035	66 3b c1	 cmp	 ax, cx
  00038	0f 92 c1	 setb	 cl
  0003b	84 c9		 test	 cl, cl
  0003d	74 25		 je	 SHORT $LN14@GetItemMet

; 638  : 		return 0;
; 639  : 
; 640  : 	if (dwMetinSocketIndex >= ITEM_SOCKET_SLOT_MAX_NUM)

  0003f	8b 75 0c	 mov	 esi, DWORD PTR _dwMetinSocketIndex$[ebp]
  00042	83 fe 03	 cmp	 esi, 3
  00045	73 1d		 jae	 SHORT $LN14@GetItemMet

; 641  : 		return 0;
; 642  : 
; 643  : 	return GetItemData(Cell)->alSockets[dwMetinSocketIndex];

  00047	51		 push	 ecx
  00048	8b d4		 mov	 edx, esp
  0004a	8a cc		 mov	 cl, ah
  0004c	66 89 1a	 mov	 WORD PTR [edx], bx
  0004f	88 4a 02	 mov	 BYTE PTR [edx+2], cl
  00052	8b cf		 mov	 ecx, edi
  00054	e8 00 00 00 00	 call	 ?GetItemData@CPythonPlayer@@QBEPBUpacket_item@@USItemPos@@@Z ; CPythonPlayer::GetItemData
  00059	8b 44 b0 0d	 mov	 eax, DWORD PTR [eax+esi*4+13]

; 644  : }

  0005d	5f		 pop	 edi
  0005e	5e		 pop	 esi
  0005f	5b		 pop	 ebx
  00060	5d		 pop	 ebp
  00061	c2 08 00	 ret	 8
$LN14@GetItemMet:
  00064	5f		 pop	 edi
  00065	5e		 pop	 esi
  00066	33 c0		 xor	 eax, eax
  00068	5b		 pop	 ebx
  00069	5d		 pop	 ebp
  0006a	c2 08 00	 ret	 8
?GetItemMetinSocket@CPythonPlayer@@QAEKUSItemPos@@K@Z ENDP ; CPythonPlayer::GetItemMetinSocket
_TEXT	ENDS
; Function compile flags: /Ogtp
; File E:\Metin2_server\SolWayneSF v6\ClientVS22\source\UserInterface\PythonPlayer.cpp
; File E:\Metin2_server\SolWayneSF v6\ClientVS22\source\UserInterface\GameType.h
; File E:\Metin2_server\SolWayneSF v6\ClientVS22\source\UserInterface\PythonPlayer.cpp
; File E:\Metin2_server\SolWayneSF v6\ClientVS22\source\UserInterface\GameType.h
; File E:\Metin2_server\SolWayneSF v6\ClientVS22\source\UserInterface\PythonPlayer.cpp
; File E:\Metin2_server\SolWayneSF v6\ClientVS22\source\UserInterface\GameType.h
; File E:\Metin2_server\SolWayneSF v6\ClientVS22\source\UserInterface\PythonPlayer.cpp
;	COMDAT ?GetItemAttribute@CPythonPlayer@@QAEXUSItemPos@@KPAEPAF@Z
_TEXT	SEGMENT
_this$1$ = -4						; size = 4
_Cell$ = 8						; size = 3
_dwAttrSlotIndex$ = 12					; size = 4
_pbyType$ = 16						; size = 4
_psValue$ = 20						; size = 4
?GetItemAttribute@CPythonPlayer@@QAEXUSItemPos@@KPAEPAF@Z PROC ; CPythonPlayer::GetItemAttribute, COMDAT
; _this$ = ecx

; 647  : {

  00000	55		 push	 ebp
  00001	8b ec		 mov	 ebp, esp
  00003	51		 push	 ecx

; 649  : 	*psValue = 0;

  00004	8b 45 14	 mov	 eax, DWORD PTR _psValue$[ebp]
; File E:\Metin2_server\SolWayneSF v6\ClientVS22\source\UserInterface\GameType.h

; 221  : 		switch (window_type)

  00007	66 8b 55 08	 mov	 dx, WORD PTR _Cell$[ebp]
; File E:\Metin2_server\SolWayneSF v6\ClientVS22\source\UserInterface\PythonPlayer.cpp

; 647  : {

  0000b	53		 push	 ebx
  0000c	56		 push	 esi
  0000d	89 4d fc	 mov	 DWORD PTR _this$1$[ebp], ecx

; 649  : 	*psValue = 0;

  00010	33 c9		 xor	 ecx, ecx
  00012	57		 push	 edi
  00013	8b 7d 10	 mov	 edi, DWORD PTR _pbyType$[ebp]
  00016	66 89 08	 mov	 WORD PTR [eax], cx
; File E:\Metin2_server\SolWayneSF v6\ClientVS22\source\UserInterface\GameType.h

; 221  : 		switch (window_type)

  00019	0f b6 c2	 movzx	 eax, dl
; File E:\Metin2_server\SolWayneSF v6\ClientVS22\source\UserInterface\PythonPlayer.cpp

; 648  : 	*pbyType = 0;

  0001c	c6 07 00	 mov	 BYTE PTR [edi], 0
; File E:\Metin2_server\SolWayneSF v6\ClientVS22\source\UserInterface\GameType.h

; 221  : 		switch (window_type)

  0001f	83 e8 01	 sub	 eax, 1
  00022	74 18		 je	 SHORT $LN8@GetItemAtt
  00024	83 e8 01	 sub	 eax, 1
  00027	74 0c		 je	 SHORT $LN9@GetItemAtt
  00029	83 e8 03	 sub	 eax, 3
  0002c	75 67		 jne	 SHORT $LN1@GetItemAtt

; 228  : 			break;
; 229  : 		case DRAGON_SOUL_INVENTORY:
; 230  : 			return cell < (DS_INVENTORY_MAX_NUM);

  0002e	b8 80 04 00 00	 mov	 eax, 1152		; 00000480H
  00033	eb 0c		 jmp	 SHORT $LN13@GetItemAtt
$LN9@GetItemAtt:

; 225  : 			break;
; 226  : 		case EQUIPMENT:
; 227  : 			return cell < c_DragonSoul_Equip_End;

  00035	b8 e0 00 00 00	 mov	 eax, 224		; 000000e0H
  0003a	eb 05		 jmp	 SHORT $LN13@GetItemAtt
$LN8@GetItemAtt:

; 222  : 		{
; 223  : 		case INVENTORY:
; 224  : 			return cell < c_Inventory_Count;

  0003c	b8 02 01 00 00	 mov	 eax, 258		; 00000102H
$LN13@GetItemAtt:
; File E:\Metin2_server\SolWayneSF v6\ClientVS22\source\UserInterface\PythonPlayer.cpp

; 651  : 	if (!Cell.IsValidCell())

  00041	66 8b 5d 09	 mov	 bx, WORD PTR _Cell$[ebp+1]
  00045	66 3b d8	 cmp	 bx, ax
  00048	0f 92 c0	 setb	 al
  0004b	84 c0		 test	 al, al
  0004d	74 46		 je	 SHORT $LN1@GetItemAtt

; 652  : 		return;
; 653  : 
; 654  : 	if (dwAttrSlotIndex >= ITEM_ATTRIBUTE_SLOT_MAX_NUM)

  0004f	8b 45 0c	 mov	 eax, DWORD PTR _dwAttrSlotIndex$[ebp]
  00052	83 f8 07	 cmp	 eax, 7
  00055	73 3e		 jae	 SHORT $LN1@GetItemAtt

; 655  : 		return;
; 656  : 
; 657  : 	*pbyType = GetItemData(Cell)->aAttr[dwAttrSlotIndex].bType;

  00057	51		 push	 ecx
  00058	8b cc		 mov	 ecx, esp
  0005a	8d 34 40	 lea	 esi, DWORD PTR [eax+eax*2]
  0005d	8a c7		 mov	 al, bh
  0005f	66 89 11	 mov	 WORD PTR [ecx], dx
  00062	88 41 02	 mov	 BYTE PTR [ecx+2], al
  00065	8b 4d fc	 mov	 ecx, DWORD PTR _this$1$[ebp]
  00068	e8 00 00 00 00	 call	 ?GetItemData@CPythonPlayer@@QBEPBUpacket_item@@USItemPos@@@Z ; CPythonPlayer::GetItemData

; 658  : 	*psValue = GetItemData(Cell)->aAttr[dwAttrSlotIndex].sValue;

  0006d	51		 push	 ecx
  0006e	8b cc		 mov	 ecx, esp
  00070	8a 44 30 19	 mov	 al, BYTE PTR [eax+esi+25]
  00074	88 07		 mov	 BYTE PTR [edi], al
  00076	66 8b 45 08	 mov	 ax, WORD PTR _Cell$[ebp]
  0007a	66 89 01	 mov	 WORD PTR [ecx], ax
  0007d	8a c7		 mov	 al, bh
  0007f	88 41 02	 mov	 BYTE PTR [ecx+2], al
  00082	8b 4d fc	 mov	 ecx, DWORD PTR _this$1$[ebp]
  00085	e8 00 00 00 00	 call	 ?GetItemData@CPythonPlayer@@QBEPBUpacket_item@@USItemPos@@@Z ; CPythonPlayer::GetItemData
  0008a	8b 4d 14	 mov	 ecx, DWORD PTR _psValue$[ebp]
  0008d	0f b7 44 30 1a	 movzx	 eax, WORD PTR [eax+esi+26]
  00092	66 89 01	 mov	 WORD PTR [ecx], ax
$LN1@GetItemAtt:

; 659  : }

  00095	5f		 pop	 edi
  00096	5e		 pop	 esi
  00097	5b		 pop	 ebx
  00098	8b e5		 mov	 esp, ebp
  0009a	5d		 pop	 ebp
  0009b	c2 10 00	 ret	 16			; 00000010H
?GetItemAttribute@CPythonPlayer@@QAEXUSItemPos@@KPAEPAF@Z ENDP ; CPythonPlayer::GetItemAttribute
_TEXT	ENDS
; Function compile flags: /Ogtp
; File E:\Metin2_server\SolWayneSF v6\ClientVS22\source\UserInterface\PythonPlayer.cpp
; File E:\Metin2_server\SolWayneSF v6\ClientVS22\source\UserInterface\GameType.h
; File E:\Metin2_server\SolWayneSF v6\ClientVS22\source\UserInterface\PythonPlayer.cpp
; File E:\Metin2_server\SolWayneSF v6\ClientVS22\source\UserInterface\GameType.h
; File E:\Metin2_server\SolWayneSF v6\ClientVS22\source\UserInterface\PythonPlayer.cpp
;	COMDAT ?SetItemCount@CPythonPlayer@@UAEXUSItemPos@@E@Z
_TEXT	SEGMENT
_Cell$ = 8						; size = 3
_byCount$ = 12						; size = 1
?SetItemCount@CPythonPlayer@@UAEXUSItemPos@@E@Z PROC	; CPythonPlayer::SetItemCount, COMDAT
; _this$ = ecx

; 662  : {

  00000	55		 push	 ebp
  00001	8b ec		 mov	 ebp, esp
; File E:\Metin2_server\SolWayneSF v6\ClientVS22\source\UserInterface\GameType.h

; 221  : 		switch (window_type)

  00003	66 8b 55 08	 mov	 dx, WORD PTR _Cell$[ebp]
  00007	0f b6 c2	 movzx	 eax, dl
; File E:\Metin2_server\SolWayneSF v6\ClientVS22\source\UserInterface\PythonPlayer.cpp

; 662  : {

  0000a	56		 push	 esi
  0000b	8b f1		 mov	 esi, ecx
; File E:\Metin2_server\SolWayneSF v6\ClientVS22\source\UserInterface\GameType.h

; 221  : 		switch (window_type)

  0000d	83 e8 01	 sub	 eax, 1
  00010	74 18		 je	 SHORT $LN7@SetItemCou
  00012	83 e8 01	 sub	 eax, 1
  00015	74 0c		 je	 SHORT $LN8@SetItemCou
  00017	83 e8 03	 sub	 eax, 3
  0001a	75 56		 jne	 SHORT $LN1@SetItemCou

; 228  : 			break;
; 229  : 		case DRAGON_SOUL_INVENTORY:
; 230  : 			return cell < (DS_INVENTORY_MAX_NUM);

  0001c	b9 80 04 00 00	 mov	 ecx, 1152		; 00000480H
  00021	eb 0c		 jmp	 SHORT $LN12@SetItemCou
$LN8@SetItemCou:

; 225  : 			break;
; 226  : 		case EQUIPMENT:
; 227  : 			return cell < c_DragonSoul_Equip_End;

  00023	b9 e0 00 00 00	 mov	 ecx, 224		; 000000e0H
  00028	eb 05		 jmp	 SHORT $LN12@SetItemCou
$LN7@SetItemCou:

; 222  : 		{
; 223  : 		case INVENTORY:
; 224  : 			return cell < c_Inventory_Count;

  0002a	b9 02 01 00 00	 mov	 ecx, 258		; 00000102H
$LN12@SetItemCou:
; File E:\Metin2_server\SolWayneSF v6\ClientVS22\source\UserInterface\PythonPlayer.cpp

; 663  : 	if (!Cell.IsValidCell())

  0002f	66 8b 45 09	 mov	 ax, WORD PTR _Cell$[ebp+1]
  00033	66 3b c1	 cmp	 ax, cx
  00036	0f 92 c1	 setb	 cl
  00039	84 c9		 test	 cl, cl
  0003b	74 35		 je	 SHORT $LN1@SetItemCou

; 664  : 		return;
; 665  : 
; 666  : 	(const_cast <TItemData *>(GetItemData(Cell)))->count = byCount;

  0003d	51		 push	 ecx
  0003e	8b cc		 mov	 ecx, esp
  00040	8a c4		 mov	 al, ah
  00042	66 89 11	 mov	 WORD PTR [ecx], dx
  00045	88 41 02	 mov	 BYTE PTR [ecx+2], al
  00048	8d 4e fc	 lea	 ecx, DWORD PTR [esi-4]
  0004b	e8 00 00 00 00	 call	 ?GetItemData@CPythonPlayer@@QBEPBUpacket_item@@USItemPos@@@Z ; CPythonPlayer::GetItemData
  00050	8a 4d 0c	 mov	 cl, BYTE PTR _byCount$[ebp]

; 667  : 	PyCallClassMemberFunc(m_ppyGameWindow, "RefreshInventory", Py_BuildValue("()"));	

  00053	68 00 00 00 00	 push	 OFFSET ??_C@_02HCKGKOFO@?$CI?$CJ@
  00058	88 48 04	 mov	 BYTE PTR [eax+4], cl
  0005b	ff 15 00 00 00
	00		 call	 DWORD PTR __imp__Py_BuildValue
  00061	50		 push	 eax
  00062	68 00 00 00 00	 push	 OFFSET ??_C@_0BB@JLCHKFKI@RefreshInventory@
  00067	ff 76 04	 push	 DWORD PTR [esi+4]
  0006a	e8 00 00 00 00	 call	 ?PyCallClassMemberFunc@@YA_NPAU_object@@PBD0@Z ; PyCallClassMemberFunc
  0006f	83 c4 10	 add	 esp, 16			; 00000010H
$LN1@SetItemCou:

; 668  : }

  00072	5e		 pop	 esi
  00073	5d		 pop	 ebp
  00074	c2 08 00	 ret	 8
?SetItemCount@CPythonPlayer@@UAEXUSItemPos@@E@Z ENDP	; CPythonPlayer::SetItemCount
_TEXT	ENDS
; Function compile flags: /Ogtp
; File E:\Metin2_server\SolWayneSF v6\ClientVS22\source\UserInterface\PythonPlayer.cpp
; File E:\Metin2_server\SolWayneSF v6\ClientVS22\source\UserInterface\GameType.h
; File E:\Metin2_server\SolWayneSF v6\ClientVS22\source\UserInterface\PythonPlayer.cpp
; File E:\Metin2_server\SolWayneSF v6\ClientVS22\source\UserInterface\GameType.h
; File E:\Metin2_server\SolWayneSF v6\ClientVS22\source\UserInterface\PythonPlayer.cpp
; File E:\Metin2_server\SolWayneSF v6\ClientVS22\source\UserInterface\GameType.h
; File E:\Metin2_server\SolWayneSF v6\ClientVS22\source\UserInterface\PythonPlayer.cpp
;	COMDAT ?SetItemMetinSocket@CPythonPlayer@@UAEXUSItemPos@@KK@Z
_TEXT	SEGMENT
_Cell$ = 8						; size = 3
_dwMetinSocketIndex$ = 12				; size = 4
_dwMetinNumber$ = 16					; size = 4
?SetItemMetinSocket@CPythonPlayer@@UAEXUSItemPos@@KK@Z PROC ; CPythonPlayer::SetItemMetinSocket, COMDAT
; _this$ = ecx

; 671  : {

  00000	55		 push	 ebp
  00001	8b ec		 mov	 ebp, esp
; File E:\Metin2_server\SolWayneSF v6\ClientVS22\source\UserInterface\GameType.h

; 221  : 		switch (window_type)

  00003	66 8b 55 08	 mov	 dx, WORD PTR _Cell$[ebp]
; File E:\Metin2_server\SolWayneSF v6\ClientVS22\source\UserInterface\PythonPlayer.cpp

; 671  : {

  00007	56		 push	 esi
; File E:\Metin2_server\SolWayneSF v6\ClientVS22\source\UserInterface\GameType.h

; 221  : 		switch (window_type)

  00008	0f b6 c2	 movzx	 eax, dl
; File E:\Metin2_server\SolWayneSF v6\ClientVS22\source\UserInterface\PythonPlayer.cpp

; 671  : {

  0000b	57		 push	 edi
  0000c	8b f9		 mov	 edi, ecx
; File E:\Metin2_server\SolWayneSF v6\ClientVS22\source\UserInterface\GameType.h

; 221  : 		switch (window_type)

  0000e	83 e8 01	 sub	 eax, 1
  00011	74 18		 je	 SHORT $LN8@SetItemMet
  00013	83 e8 01	 sub	 eax, 1
  00016	74 0c		 je	 SHORT $LN9@SetItemMet
  00018	83 e8 03	 sub	 eax, 3
  0001b	75 43		 jne	 SHORT $LN1@SetItemMet

; 228  : 			break;
; 229  : 		case DRAGON_SOUL_INVENTORY:
; 230  : 			return cell < (DS_INVENTORY_MAX_NUM);

  0001d	b9 80 04 00 00	 mov	 ecx, 1152		; 00000480H
  00022	eb 0c		 jmp	 SHORT $LN13@SetItemMet
$LN9@SetItemMet:

; 225  : 			break;
; 226  : 		case EQUIPMENT:
; 227  : 			return cell < c_DragonSoul_Equip_End;

  00024	b9 e0 00 00 00	 mov	 ecx, 224		; 000000e0H
  00029	eb 05		 jmp	 SHORT $LN13@SetItemMet
$LN8@SetItemMet:

; 222  : 		{
; 223  : 		case INVENTORY:
; 224  : 			return cell < c_Inventory_Count;

  0002b	b9 02 01 00 00	 mov	 ecx, 258		; 00000102H
$LN13@SetItemMet:
; File E:\Metin2_server\SolWayneSF v6\ClientVS22\source\UserInterface\PythonPlayer.cpp

; 672  : 	if (!Cell.IsValidCell())

  00030	66 8b 45 09	 mov	 ax, WORD PTR _Cell$[ebp+1]
  00034	66 3b c1	 cmp	 ax, cx
  00037	0f 92 c1	 setb	 cl
  0003a	84 c9		 test	 cl, cl
  0003c	74 22		 je	 SHORT $LN1@SetItemMet

; 673  : 		return;
; 674  : 	if (dwMetinSocketIndex >= ITEM_SOCKET_SLOT_MAX_NUM)

  0003e	8b 75 0c	 mov	 esi, DWORD PTR _dwMetinSocketIndex$[ebp]
  00041	83 fe 03	 cmp	 esi, 3
  00044	73 1a		 jae	 SHORT $LN1@SetItemMet

; 675  : 		return;
; 676  : 
; 677  : 	(const_cast <TItemData *>(GetItemData(Cell)))->alSockets[dwMetinSocketIndex] = dwMetinNumber;

  00046	51		 push	 ecx
  00047	8b cc		 mov	 ecx, esp
  00049	8a c4		 mov	 al, ah
  0004b	66 89 11	 mov	 WORD PTR [ecx], dx
  0004e	88 41 02	 mov	 BYTE PTR [ecx+2], al
  00051	8d 4f fc	 lea	 ecx, DWORD PTR [edi-4]
  00054	e8 00 00 00 00	 call	 ?GetItemData@CPythonPlayer@@QBEPBUpacket_item@@USItemPos@@@Z ; CPythonPlayer::GetItemData
  00059	8b 4d 10	 mov	 ecx, DWORD PTR _dwMetinNumber$[ebp]
  0005c	89 4c b0 0d	 mov	 DWORD PTR [eax+esi*4+13], ecx
$LN1@SetItemMet:

; 678  : }

  00060	5f		 pop	 edi
  00061	5e		 pop	 esi
  00062	5d		 pop	 ebp
  00063	c2 0c 00	 ret	 12			; 0000000cH
?SetItemMetinSocket@CPythonPlayer@@UAEXUSItemPos@@KK@Z ENDP ; CPythonPlayer::SetItemMetinSocket
_TEXT	ENDS
; Function compile flags: /Ogtp
; File E:\Metin2_server\SolWayneSF v6\ClientVS22\source\UserInterface\PythonPlayer.cpp
; File E:\Metin2_server\SolWayneSF v6\ClientVS22\source\UserInterface\GameType.h
; File E:\Metin2_server\SolWayneSF v6\ClientVS22\source\UserInterface\PythonPlayer.cpp
; File E:\Metin2_server\SolWayneSF v6\ClientVS22\source\UserInterface\GameType.h
; File E:\Metin2_server\SolWayneSF v6\ClientVS22\source\UserInterface\PythonPlayer.cpp
; File E:\Metin2_server\SolWayneSF v6\ClientVS22\source\UserInterface\GameType.h
; File E:\Metin2_server\SolWayneSF v6\ClientVS22\source\UserInterface\PythonPlayer.cpp
;	COMDAT ?SetItemAttribute@CPythonPlayer@@UAEXUSItemPos@@KEF@Z
_TEXT	SEGMENT
_Cell$ = 8						; size = 3
_dwAttrIndex$ = 12					; size = 4
_byType$ = 16						; size = 1
_sValue$ = 20						; size = 2
?SetItemAttribute@CPythonPlayer@@UAEXUSItemPos@@KEF@Z PROC ; CPythonPlayer::SetItemAttribute, COMDAT
; _this$ = ecx

; 681  : {

  00000	55		 push	 ebp
  00001	8b ec		 mov	 ebp, esp
; File E:\Metin2_server\SolWayneSF v6\ClientVS22\source\UserInterface\GameType.h

; 221  : 		switch (window_type)

  00003	66 8b 55 08	 mov	 dx, WORD PTR _Cell$[ebp]
; File E:\Metin2_server\SolWayneSF v6\ClientVS22\source\UserInterface\PythonPlayer.cpp

; 681  : {

  00007	56		 push	 esi
; File E:\Metin2_server\SolWayneSF v6\ClientVS22\source\UserInterface\GameType.h

; 221  : 		switch (window_type)

  00008	0f b6 c2	 movzx	 eax, dl
; File E:\Metin2_server\SolWayneSF v6\ClientVS22\source\UserInterface\PythonPlayer.cpp

; 681  : {

  0000b	8b f1		 mov	 esi, ecx
  0000d	57		 push	 edi
; File E:\Metin2_server\SolWayneSF v6\ClientVS22\source\UserInterface\GameType.h

; 221  : 		switch (window_type)

  0000e	83 e8 01	 sub	 eax, 1
  00011	74 18		 je	 SHORT $LN8@SetItemAtt
  00013	83 e8 01	 sub	 eax, 1
  00016	74 0c		 je	 SHORT $LN9@SetItemAtt
  00018	83 e8 03	 sub	 eax, 3
  0001b	75 67		 jne	 SHORT $LN1@SetItemAtt

; 228  : 			break;
; 229  : 		case DRAGON_SOUL_INVENTORY:
; 230  : 			return cell < (DS_INVENTORY_MAX_NUM);

  0001d	b9 80 04 00 00	 mov	 ecx, 1152		; 00000480H
  00022	eb 0c		 jmp	 SHORT $LN13@SetItemAtt
$LN9@SetItemAtt:

; 225  : 			break;
; 226  : 		case EQUIPMENT:
; 227  : 			return cell < c_DragonSoul_Equip_End;

  00024	b9 e0 00 00 00	 mov	 ecx, 224		; 000000e0H
  00029	eb 05		 jmp	 SHORT $LN13@SetItemAtt
$LN8@SetItemAtt:

; 222  : 		{
; 223  : 		case INVENTORY:
; 224  : 			return cell < c_Inventory_Count;

  0002b	b9 02 01 00 00	 mov	 ecx, 258		; 00000102H
$LN13@SetItemAtt:
; File E:\Metin2_server\SolWayneSF v6\ClientVS22\source\UserInterface\PythonPlayer.cpp

; 682  : 	if (!Cell.IsValidCell())

  00030	66 8b 45 09	 mov	 ax, WORD PTR _Cell$[ebp+1]
  00034	66 3b c1	 cmp	 ax, cx
  00037	0f 92 c1	 setb	 cl
  0003a	84 c9		 test	 cl, cl
  0003c	74 46		 je	 SHORT $LN1@SetItemAtt

; 683  : 		return;
; 684  : 	if (dwAttrIndex >= ITEM_ATTRIBUTE_SLOT_MAX_NUM)

  0003e	8b 4d 0c	 mov	 ecx, DWORD PTR _dwAttrIndex$[ebp]
  00041	83 f9 07	 cmp	 ecx, 7
  00044	73 3e		 jae	 SHORT $LN1@SetItemAtt

; 685  : 		return;
; 686  : 
; 687  : 	(const_cast <TItemData *>(GetItemData(Cell)))->aAttr[dwAttrIndex].bType = byType;

  00046	51		 push	 ecx
  00047	8d 3c 49	 lea	 edi, DWORD PTR [ecx+ecx*2]
  0004a	8a c4		 mov	 al, ah
  0004c	8b cc		 mov	 ecx, esp
  0004e	66 89 11	 mov	 WORD PTR [ecx], dx
  00051	88 41 02	 mov	 BYTE PTR [ecx+2], al
  00054	8d 4e fc	 lea	 ecx, DWORD PTR [esi-4]
  00057	e8 00 00 00 00	 call	 ?GetItemData@CPythonPlayer@@QBEPBUpacket_item@@USItemPos@@@Z ; CPythonPlayer::GetItemData
  0005c	8a 55 10	 mov	 dl, BYTE PTR _byType$[ebp]

; 688  : 	(const_cast <TItemData *>(GetItemData(Cell)))->aAttr[dwAttrIndex].sValue = sValue;

  0005f	51		 push	 ecx
  00060	8d 4e fc	 lea	 ecx, DWORD PTR [esi-4]
  00063	88 54 38 19	 mov	 BYTE PTR [eax+edi+25], dl
  00067	8b d4		 mov	 edx, esp
  00069	66 8b 45 08	 mov	 ax, WORD PTR _Cell$[ebp]
  0006d	66 89 02	 mov	 WORD PTR [edx], ax
  00070	8a 45 0a	 mov	 al, BYTE PTR _Cell$[ebp+2]
  00073	88 42 02	 mov	 BYTE PTR [edx+2], al
  00076	e8 00 00 00 00	 call	 ?GetItemData@CPythonPlayer@@QBEPBUpacket_item@@USItemPos@@@Z ; CPythonPlayer::GetItemData
  0007b	66 8b 4d 14	 mov	 cx, WORD PTR _sValue$[ebp]
  0007f	66 89 4c 38 1a	 mov	 WORD PTR [eax+edi+26], cx
$LN1@SetItemAtt:

; 689  : }

  00084	5f		 pop	 edi
  00085	5e		 pop	 esi
  00086	5d		 pop	 ebp
  00087	c2 10 00	 ret	 16			; 00000010H
?SetItemAttribute@CPythonPlayer@@UAEXUSItemPos@@KEF@Z ENDP ; CPythonPlayer::SetItemAttribute
_TEXT	ENDS
; Function compile flags: /Ogtp
; File E:\Metin2_server\SolWayneSF v6\ClientVS22\source\UserInterface\PythonPlayer.cpp
;	COMDAT ?GetQuickPage@CPythonPlayer@@QAEHXZ
_TEXT	SEGMENT
?GetQuickPage@CPythonPlayer@@QAEHXZ PROC		; CPythonPlayer::GetQuickPage, COMDAT
; _this$ = ecx

; 693  : 	return m_playerStatus.lQuickPageIndex;

  00000	8b 81 e8 2d 01
	00		 mov	 eax, DWORD PTR [ecx+77288]

; 694  : }

  00006	c3		 ret	 0
?GetQuickPage@CPythonPlayer@@QAEHXZ ENDP		; CPythonPlayer::GetQuickPage
_TEXT	ENDS
; Function compile flags: /Ogtp
; File E:\Metin2_server\SolWayneSF v6\ClientVS22\source\UserInterface\PythonPlayer.cpp
;	COMDAT ?SetQuickPage@CPythonPlayer@@QAEXH@Z
_TEXT	SEGMENT
_nQuickPageIndex$ = 8					; size = 4
?SetQuickPage@CPythonPlayer@@QAEXH@Z PROC		; CPythonPlayer::SetQuickPage, COMDAT
; _this$ = ecx

; 697  : {

  00000	55		 push	 ebp
  00001	8b ec		 mov	 ebp, esp
  00003	8b 55 08	 mov	 edx, DWORD PTR _nQuickPageIndex$[ebp]
  00006	56		 push	 esi
  00007	8b f1		 mov	 esi, ecx

; 698  : 	if (nQuickPageIndex<0)

  00009	85 d2		 test	 edx, edx
  0000b	79 05		 jns	 SHORT $LN2@SetQuickPa

; 699  : 		m_playerStatus.lQuickPageIndex=QUICKSLOT_MAX_LINE+nQuickPageIndex;	

  0000d	83 c2 04	 add	 edx, 4
  00010	eb 0b		 jmp	 SHORT $LN5@SetQuickPa
$LN2@SetQuickPa:

; 700  : 	else if (nQuickPageIndex>=QUICKSLOT_MAX_LINE)
; 701  : 		m_playerStatus.lQuickPageIndex=nQuickPageIndex%QUICKSLOT_MAX_LINE;	

  00012	8b c2		 mov	 eax, edx
  00014	83 e0 03	 and	 eax, 3
  00017	83 fa 04	 cmp	 edx, 4
  0001a	0f 4d d0	 cmovge	 edx, eax
$LN5@SetQuickPa:

; 702  : 	else
; 703  : 		m_playerStatus.lQuickPageIndex=nQuickPageIndex;	
; 704  : 
; 705  : 	PyCallClassMemberFunc(m_ppyGameWindow, "RefreshInventory", Py_BuildValue("()"));

  0001d	68 00 00 00 00	 push	 OFFSET ??_C@_02HCKGKOFO@?$CI?$CJ@
  00022	89 96 e8 2d 01
	00		 mov	 DWORD PTR [esi+77288], edx
  00028	ff 15 00 00 00
	00		 call	 DWORD PTR __imp__Py_BuildValue
  0002e	50		 push	 eax
  0002f	68 00 00 00 00	 push	 OFFSET ??_C@_0BB@JLCHKFKI@RefreshInventory@
  00034	ff 76 08	 push	 DWORD PTR [esi+8]
  00037	e8 00 00 00 00	 call	 ?PyCallClassMemberFunc@@YA_NPAU_object@@PBD0@Z ; PyCallClassMemberFunc
  0003c	83 c4 10	 add	 esp, 16			; 00000010H
  0003f	5e		 pop	 esi

; 706  : }

  00040	5d		 pop	 ebp
  00041	c2 04 00	 ret	 4
?SetQuickPage@CPythonPlayer@@QAEXH@Z ENDP		; CPythonPlayer::SetQuickPage
_TEXT	ENDS
; Function compile flags: /Ogtp
; File E:\Metin2_server\SolWayneSF v6\ClientVS22\source\UserInterface\PythonPlayer.cpp
;	COMDAT ?LocalQuickSlotIndexToGlobalQuickSlotIndex@CPythonPlayer@@QAEKK@Z
_TEXT	SEGMENT
_dwLocalSlotIndex$ = 8					; size = 4
?LocalQuickSlotIndexToGlobalQuickSlotIndex@CPythonPlayer@@QAEKK@Z PROC ; CPythonPlayer::LocalQuickSlotIndexToGlobalQuickSlotIndex, COMDAT
; _this$ = ecx

; 709  : {

  00000	55		 push	 ebp
  00001	8b ec		 mov	 ebp, esp

; 710  : 	return m_playerStatus.lQuickPageIndex*QUICKSLOT_MAX_COUNT_PER_LINE+dwLocalSlotIndex;	

  00003	8b 89 e8 2d 01
	00		 mov	 ecx, DWORD PTR [ecx+77288]
  00009	8b 45 08	 mov	 eax, DWORD PTR _dwLocalSlotIndex$[ebp]
  0000c	8d 04 c8	 lea	 eax, DWORD PTR [eax+ecx*8]

; 711  : }

  0000f	5d		 pop	 ebp
  00010	c2 04 00	 ret	 4
?LocalQuickSlotIndexToGlobalQuickSlotIndex@CPythonPlayer@@QAEKK@Z ENDP ; CPythonPlayer::LocalQuickSlotIndexToGlobalQuickSlotIndex
_TEXT	ENDS
; Function compile flags: /Ogtp
; File E:\Metin2_server\SolWayneSF v6\ClientVS22\source\UserInterface\PythonPlayer.cpp
;	COMDAT ?GetGlobalQuickSlotData@CPythonPlayer@@QAEXKPAK0@Z
_TEXT	SEGMENT
_dwGlobalSlotIndex$ = 8					; size = 4
_pdwWndType$ = 12					; size = 4
_pdwWndItemPos$ = 16					; size = 4
?GetGlobalQuickSlotData@CPythonPlayer@@QAEXKPAK0@Z PROC	; CPythonPlayer::GetGlobalQuickSlotData, COMDAT
; _this$ = ecx

; 714  : {

  00000	55		 push	 ebp
  00001	8b ec		 mov	 ebp, esp

; 715  : 	TQuickSlot& rkQuickSlot=__RefGlobalQuickSlot(dwGlobalSlotIndex);

  00003	ff 75 08	 push	 DWORD PTR _dwGlobalSlotIndex$[ebp]
  00006	e8 00 00 00 00	 call	 ?__RefGlobalQuickSlot@CPythonPlayer@@IAEAAUSQuickSlot@@H@Z ; CPythonPlayer::__RefGlobalQuickSlot

; 716  : 	*pdwWndType=rkQuickSlot.Type;

  0000b	8b 4d 0c	 mov	 ecx, DWORD PTR _pdwWndType$[ebp]
  0000e	0f b6 10	 movzx	 edx, BYTE PTR [eax]
  00011	89 11		 mov	 DWORD PTR [ecx], edx

; 717  : 	*pdwWndItemPos=rkQuickSlot.Position;

  00013	0f b6 48 01	 movzx	 ecx, BYTE PTR [eax+1]
  00017	8b 45 10	 mov	 eax, DWORD PTR _pdwWndItemPos$[ebp]
  0001a	89 08		 mov	 DWORD PTR [eax], ecx

; 718  : }

  0001c	5d		 pop	 ebp
  0001d	c2 0c 00	 ret	 12			; 0000000cH
?GetGlobalQuickSlotData@CPythonPlayer@@QAEXKPAK0@Z ENDP	; CPythonPlayer::GetGlobalQuickSlotData
_TEXT	ENDS
; Function compile flags: /Ogtp
; File E:\Metin2_server\SolWayneSF v6\ClientVS22\source\UserInterface\PythonPlayer.cpp
;	COMDAT ?GetLocalQuickSlotData@CPythonPlayer@@QAEXKPAK0@Z
_TEXT	SEGMENT
_dwSlotPos$ = 8						; size = 4
_pdwWndType$ = 12					; size = 4
_pdwWndItemPos$ = 16					; size = 4
?GetLocalQuickSlotData@CPythonPlayer@@QAEXKPAK0@Z PROC	; CPythonPlayer::GetLocalQuickSlotData, COMDAT
; _this$ = ecx

; 721  : {

  00000	55		 push	 ebp
  00001	8b ec		 mov	 ebp, esp

; 722  : 	TQuickSlot& rkQuickSlot=__RefLocalQuickSlot(dwSlotPos);

  00003	ff 75 08	 push	 DWORD PTR _dwSlotPos$[ebp]
  00006	e8 00 00 00 00	 call	 ?__RefLocalQuickSlot@CPythonPlayer@@IAEAAUSQuickSlot@@H@Z ; CPythonPlayer::__RefLocalQuickSlot

; 723  : 	*pdwWndType=rkQuickSlot.Type;

  0000b	8b 4d 0c	 mov	 ecx, DWORD PTR _pdwWndType$[ebp]
  0000e	0f b6 10	 movzx	 edx, BYTE PTR [eax]
  00011	89 11		 mov	 DWORD PTR [ecx], edx

; 724  : 	*pdwWndItemPos=rkQuickSlot.Position;

  00013	0f b6 48 01	 movzx	 ecx, BYTE PTR [eax+1]
  00017	8b 45 10	 mov	 eax, DWORD PTR _pdwWndItemPos$[ebp]
  0001a	89 08		 mov	 DWORD PTR [eax], ecx

; 725  : }

  0001c	5d		 pop	 ebp
  0001d	c2 0c 00	 ret	 12			; 0000000cH
?GetLocalQuickSlotData@CPythonPlayer@@QAEXKPAK0@Z ENDP	; CPythonPlayer::GetLocalQuickSlotData
_TEXT	ENDS
; Function compile flags: /Ogtp
; File E:\Metin2_server\SolWayneSF v6\ClientVS22\source\UserInterface\PythonPlayer.cpp
;	COMDAT ?__RefLocalQuickSlot@CPythonPlayer@@IAEAAUSQuickSlot@@H@Z
_TEXT	SEGMENT
_SlotIndex$ = 8						; size = 4
?__RefLocalQuickSlot@CPythonPlayer@@IAEAAUSQuickSlot@@H@Z PROC ; CPythonPlayer::__RefLocalQuickSlot, COMDAT
; _this$ = ecx

; 728  : {

  00000	55		 push	 ebp
  00001	8b ec		 mov	 ebp, esp

; 729  : 	return __RefGlobalQuickSlot(LocalQuickSlotIndexToGlobalQuickSlotIndex(SlotIndex));

  00003	ff 75 08	 push	 DWORD PTR _SlotIndex$[ebp]
  00006	8b d1		 mov	 edx, ecx
  00008	e8 00 00 00 00	 call	 ?LocalQuickSlotIndexToGlobalQuickSlotIndex@CPythonPlayer@@QAEKK@Z ; CPythonPlayer::LocalQuickSlotIndexToGlobalQuickSlotIndex
  0000d	89 45 08	 mov	 DWORD PTR _SlotIndex$[ebp], eax
  00010	8b ca		 mov	 ecx, edx

; 730  : }

  00012	5d		 pop	 ebp

; 729  : 	return __RefGlobalQuickSlot(LocalQuickSlotIndexToGlobalQuickSlotIndex(SlotIndex));

  00013	e9 00 00 00 00	 jmp	 ?__RefGlobalQuickSlot@CPythonPlayer@@IAEAAUSQuickSlot@@H@Z ; CPythonPlayer::__RefGlobalQuickSlot
?__RefLocalQuickSlot@CPythonPlayer@@IAEAAUSQuickSlot@@H@Z ENDP ; CPythonPlayer::__RefLocalQuickSlot
_TEXT	ENDS
; Function compile flags: /Ogtp
; File E:\Metin2_server\SolWayneSF v6\ClientVS22\source\UserInterface\PythonPlayer.cpp
;	COMDAT ?__RefGlobalQuickSlot@CPythonPlayer@@IAEAAUSQuickSlot@@H@Z
_TEXT	SEGMENT
_SlotIndex$ = 8						; size = 4
?__RefGlobalQuickSlot@CPythonPlayer@@IAEAAUSQuickSlot@@H@Z PROC ; CPythonPlayer::__RefGlobalQuickSlot, COMDAT
; _this$ = ecx

; 733  : {

  00000	55		 push	 ebp
  00001	8b ec		 mov	 ebp, esp
  00003	8b 45 08	 mov	 eax, DWORD PTR _SlotIndex$[ebp]

; 734  : 	if (SlotIndex < 0 || SlotIndex >= QUICKSLOT_MAX_NUM)

  00006	83 f8 23	 cmp	 eax, 35			; 00000023H
  00009	77 0c		 ja	 SHORT $LN3@RefGlobalQ

; 740  : 	}
; 741  : 
; 742  : 	return m_playerStatus.aQuickSlot[SlotIndex];

  0000b	05 e6 7e 00 00	 add	 eax, 32486		; 00007ee6H
  00010	8d 04 41	 lea	 eax, DWORD PTR [ecx+eax*2]

; 743  : }

  00013	5d		 pop	 ebp
  00014	c2 04 00	 ret	 4
$LN3@RefGlobalQ:

; 735  : 	{
; 736  : 		static TQuickSlot s_kQuickSlot;
; 737  : 		s_kQuickSlot.Type = 0;

  00017	66 c7 05 00 00
	00 00 00 00	 mov	 WORD PTR ?s_kQuickSlot@?4??__RefGlobalQuickSlot@CPythonPlayer@@IAEAAUSQuickSlot@@H@Z@4U3@A, 0

; 738  : 		s_kQuickSlot.Position = 0;
; 739  : 		return s_kQuickSlot;

  00020	b8 00 00 00 00	 mov	 eax, OFFSET ?s_kQuickSlot@?4??__RefGlobalQuickSlot@CPythonPlayer@@IAEAAUSQuickSlot@@H@Z@4U3@A

; 743  : }

  00025	5d		 pop	 ebp
  00026	c2 04 00	 ret	 4
?__RefGlobalQuickSlot@CPythonPlayer@@IAEAAUSQuickSlot@@H@Z ENDP ; CPythonPlayer::__RefGlobalQuickSlot
_TEXT	ENDS
; Function compile flags: /Ogtp
; File E:\Metin2_server\SolWayneSF v6\ClientVS22\source\UserInterface\PythonPlayer.cpp
;	COMDAT ?RemoveQuickSlotByValue@CPythonPlayer@@QAEXHH@Z
_TEXT	SEGMENT
_i$1 = -4						; size = 1
_iType$ = 8						; size = 4
_iPosition$ = 12					; size = 4
?RemoveQuickSlotByValue@CPythonPlayer@@QAEXHH@Z PROC	; CPythonPlayer::RemoveQuickSlotByValue, COMDAT
; _this$ = ecx

; 746  : {

  00000	55		 push	 ebp
  00001	8b ec		 mov	 ebp, esp
  00003	51		 push	 ecx
  00004	53		 push	 ebx
  00005	56		 push	 esi

; 747  : 	for (BYTE i = 0; i < QUICKSLOT_MAX_NUM; ++i)

  00006	32 db		 xor	 bl, bl
  00008	8d b1 cd fd 00
	00		 lea	 esi, DWORD PTR [ecx+64973]
  0000e	57		 push	 edi
  0000f	8b 7d 0c	 mov	 edi, DWORD PTR _iPosition$[ebp]
  00012	88 5d fc	 mov	 BYTE PTR _i$1[ebp], bl
$LL4@RemoveQuic:

; 748  : 	{
; 749  : 		if (iType == m_playerStatus.aQuickSlot[i].Type)

  00015	0f b6 46 ff	 movzx	 eax, BYTE PTR [esi-1]
  00019	39 45 08	 cmp	 DWORD PTR _iType$[ebp], eax
  0001c	75 15		 jne	 SHORT $LN2@RemoveQuic

; 750  : 			if (iPosition == m_playerStatus.aQuickSlot[i].Position)

  0001e	0f b6 06	 movzx	 eax, BYTE PTR [esi]
  00021	3b f8		 cmp	 edi, eax
  00023	75 0e		 jne	 SHORT $LN2@RemoveQuic

; 751  : 				CPythonNetworkStream::Instance().SendQuickSlotDelPacket(i);

  00025	ff 75 fc	 push	 DWORD PTR _i$1[ebp]
  00028	8b 0d 00 00 00
	00		 mov	 ecx, DWORD PTR ?ms_singleton@?$CSingleton@VCPythonNetworkStream@@@@0PAVCPythonNetworkStream@@A ; CSingleton<CPythonNetworkStream>::ms_singleton
  0002e	e8 00 00 00 00	 call	 ?SendQuickSlotDelPacket@CPythonNetworkStream@@QAE_NE@Z ; CPythonNetworkStream::SendQuickSlotDelPacket
$LN2@RemoveQuic:

; 747  : 	for (BYTE i = 0; i < QUICKSLOT_MAX_NUM; ++i)

  00033	fe c3		 inc	 bl
  00035	83 c6 02	 add	 esi, 2
  00038	88 5d fc	 mov	 BYTE PTR _i$1[ebp], bl
  0003b	80 fb 24	 cmp	 bl, 36			; 00000024H
  0003e	72 d5		 jb	 SHORT $LL4@RemoveQuic

; 752  : 	}
; 753  : }

  00040	5f		 pop	 edi
  00041	5e		 pop	 esi
  00042	5b		 pop	 ebx
  00043	8b e5		 mov	 esp, ebp
  00045	5d		 pop	 ebp
  00046	c2 08 00	 ret	 8
?RemoveQuickSlotByValue@CPythonPlayer@@QAEXHH@Z ENDP	; CPythonPlayer::RemoveQuickSlotByValue
_TEXT	ENDS
; Function compile flags: /Ogtp
; File E:\Metin2_server\SolWayneSF v6\ClientVS22\source\UserInterface\PythonPlayer.cpp
; File E:\Metin2_server\SolWayneSF v6\ClientVS22\source\UserInterface\GameType.h
; File E:\Metin2_server\SolWayneSF v6\ClientVS22\source\UserInterface\PythonPlayer.cpp
; File E:\Metin2_server\SolWayneSF v6\ClientVS22\source\UserInterface\GameType.h
; File E:\Metin2_server\SolWayneSF v6\ClientVS22\source\UserInterface\PythonPlayer.cpp
;	COMDAT ?IsItem@CPythonPlayer@@QAEDUSItemPos@@@Z
_TEXT	SEGMENT
_Cell$ = 8						; size = 3
?IsItem@CPythonPlayer@@QAEDUSItemPos@@@Z PROC		; CPythonPlayer::IsItem, COMDAT
; _this$ = ecx

; 756  : {

  00000	55		 push	 ebp
  00001	8b ec		 mov	 ebp, esp
; File E:\Metin2_server\SolWayneSF v6\ClientVS22\source\UserInterface\GameType.h

; 221  : 		switch (window_type)

  00003	66 8b 55 08	 mov	 dx, WORD PTR _Cell$[ebp]
  00007	0f b6 c2	 movzx	 eax, dl
; File E:\Metin2_server\SolWayneSF v6\ClientVS22\source\UserInterface\PythonPlayer.cpp

; 756  : {

  0000a	56		 push	 esi
  0000b	8b f1		 mov	 esi, ecx
; File E:\Metin2_server\SolWayneSF v6\ClientVS22\source\UserInterface\GameType.h

; 221  : 		switch (window_type)

  0000d	83 e8 01	 sub	 eax, 1
  00010	74 18		 je	 SHORT $LN7@IsItem
  00012	83 e8 01	 sub	 eax, 1
  00015	74 0c		 je	 SHORT $LN8@IsItem
  00017	83 e8 03	 sub	 eax, 3
  0001a	75 21		 jne	 SHORT $LN12@IsItem

; 228  : 			break;
; 229  : 		case DRAGON_SOUL_INVENTORY:
; 230  : 			return cell < (DS_INVENTORY_MAX_NUM);

  0001c	b9 80 04 00 00	 mov	 ecx, 1152		; 00000480H
  00021	eb 0c		 jmp	 SHORT $LN13@IsItem
$LN8@IsItem:

; 225  : 			break;
; 226  : 		case EQUIPMENT:
; 227  : 			return cell < c_DragonSoul_Equip_End;

  00023	b9 e0 00 00 00	 mov	 ecx, 224		; 000000e0H
  00028	eb 05		 jmp	 SHORT $LN13@IsItem
$LN7@IsItem:

; 222  : 		{
; 223  : 		case INVENTORY:
; 224  : 			return cell < c_Inventory_Count;

  0002a	b9 02 01 00 00	 mov	 ecx, 258		; 00000102H
$LN13@IsItem:
; File E:\Metin2_server\SolWayneSF v6\ClientVS22\source\UserInterface\PythonPlayer.cpp

; 757  : 	if (!Cell.IsValidCell())

  0002f	66 8b 45 09	 mov	 ax, WORD PTR _Cell$[ebp+1]
  00033	66 3b c1	 cmp	 ax, cx
  00036	0f 92 c1	 setb	 cl
  00039	84 c9		 test	 cl, cl
  0003b	75 07		 jne	 SHORT $LN2@IsItem
$LN12@IsItem:

; 758  : 		return 0;

  0003d	32 c0		 xor	 al, al

; 761  : }

  0003f	5e		 pop	 esi
  00040	5d		 pop	 ebp
  00041	c2 04 00	 ret	 4
$LN2@IsItem:

; 759  : 
; 760  : 	return 0 != GetItemData(Cell)->vnum;

  00044	51		 push	 ecx
  00045	8b cc		 mov	 ecx, esp
  00047	8a c4		 mov	 al, ah
  00049	66 89 11	 mov	 WORD PTR [ecx], dx
  0004c	88 41 02	 mov	 BYTE PTR [ecx+2], al
  0004f	8b ce		 mov	 ecx, esi
  00051	e8 00 00 00 00	 call	 ?GetItemData@CPythonPlayer@@QBEPBUpacket_item@@USItemPos@@@Z ; CPythonPlayer::GetItemData

; 761  : }

  00056	5e		 pop	 esi
  00057	83 38 00	 cmp	 DWORD PTR [eax], 0
  0005a	0f 95 c0	 setne	 al
  0005d	5d		 pop	 ebp
  0005e	c2 04 00	 ret	 4
?IsItem@CPythonPlayer@@QAEDUSItemPos@@@Z ENDP		; CPythonPlayer::IsItem
_TEXT	ENDS
; Function compile flags: /Ogtp
; File E:\Metin2_server\SolWayneSF v6\ClientVS22\source\UserInterface\PythonPlayer.cpp
;	COMDAT ?RequestMoveGlobalQuickSlotToLocalQuickSlot@CPythonPlayer@@QAEXKK@Z
_TEXT	SEGMENT
_dwGlobalSrcSlotIndex$ = 8				; size = 4
_dwLocalDstSlotIndex$ = 12				; size = 4
?RequestMoveGlobalQuickSlotToLocalQuickSlot@CPythonPlayer@@QAEXKK@Z PROC ; CPythonPlayer::RequestMoveGlobalQuickSlotToLocalQuickSlot, COMDAT
; _this$ = ecx

; 764  : {

  00000	55		 push	 ebp
  00001	8b ec		 mov	 ebp, esp

; 765  : 	//DWORD dwGlobalSrcSlotIndex=LocalQuickSlotIndexToGlobalQuickSlotIndex(dwLocalSrcSlotIndex);
; 766  : 	DWORD dwGlobalDstSlotIndex=LocalQuickSlotIndexToGlobalQuickSlotIndex(dwLocalDstSlotIndex);

  00003	ff 75 0c	 push	 DWORD PTR _dwLocalDstSlotIndex$[ebp]
  00006	e8 00 00 00 00	 call	 ?LocalQuickSlotIndexToGlobalQuickSlotIndex@CPythonPlayer@@QAEKK@Z ; CPythonPlayer::LocalQuickSlotIndexToGlobalQuickSlotIndex

; 767  : 
; 768  : 	CPythonNetworkStream& rkNetStream=CPythonNetworkStream::Instance();
; 769  : 	rkNetStream.SendQuickSlotMovePacket((BYTE) dwGlobalSrcSlotIndex, (BYTE)dwGlobalDstSlotIndex);

  0000b	89 45 0c	 mov	 DWORD PTR _dwLocalDstSlotIndex$[ebp], eax
  0000e	8b 0d 00 00 00
	00		 mov	 ecx, DWORD PTR ?ms_singleton@?$CSingleton@VCPythonNetworkStream@@@@0PAVCPythonNetworkStream@@A ; CSingleton<CPythonNetworkStream>::ms_singleton

; 770  : }

  00014	5d		 pop	 ebp

; 767  : 
; 768  : 	CPythonNetworkStream& rkNetStream=CPythonNetworkStream::Instance();
; 769  : 	rkNetStream.SendQuickSlotMovePacket((BYTE) dwGlobalSrcSlotIndex, (BYTE)dwGlobalDstSlotIndex);

  00015	e9 00 00 00 00	 jmp	 ?SendQuickSlotMovePacket@CPythonNetworkStream@@QAE_NEE@Z ; CPythonNetworkStream::SendQuickSlotMovePacket
?RequestMoveGlobalQuickSlotToLocalQuickSlot@CPythonPlayer@@QAEXKK@Z ENDP ; CPythonPlayer::RequestMoveGlobalQuickSlotToLocalQuickSlot
_TEXT	ENDS
; Function compile flags: /Ogtp
; File E:\Metin2_server\SolWayneSF v6\ClientVS22\source\UserInterface\PythonPlayer.cpp
;	COMDAT ?RequestAddLocalQuickSlot@CPythonPlayer@@QAEXKKK@Z
_TEXT	SEGMENT
_dwLocalSlotIndex$ = 8					; size = 4
_dwWndType$ = 12					; size = 4
_dwWndItemPos$ = 16					; size = 4
?RequestAddLocalQuickSlot@CPythonPlayer@@QAEXKKK@Z PROC	; CPythonPlayer::RequestAddLocalQuickSlot, COMDAT
; _this$ = ecx

; 773  : {

  00000	55		 push	 ebp
  00001	8b ec		 mov	 ebp, esp

; 774  : 	if (dwLocalSlotIndex>=QUICKSLOT_MAX_COUNT_PER_LINE)

  00003	8b 45 08	 mov	 eax, DWORD PTR _dwLocalSlotIndex$[ebp]
  00006	83 f8 08	 cmp	 eax, 8
  00009	73 15		 jae	 SHORT $LN1@RequestAdd

; 775  : 		return;
; 776  : 
; 777  : 	DWORD dwGlobalSlotIndex=LocalQuickSlotIndexToGlobalQuickSlotIndex(dwLocalSlotIndex);

  0000b	50		 push	 eax
  0000c	e8 00 00 00 00	 call	 ?LocalQuickSlotIndexToGlobalQuickSlotIndex@CPythonPlayer@@QAEKK@Z ; CPythonPlayer::LocalQuickSlotIndexToGlobalQuickSlotIndex

; 778  : 
; 779  : 	CPythonNetworkStream& rkNetStream=CPythonNetworkStream::Instance();
; 780  : 	rkNetStream.SendQuickSlotAddPacket((BYTE)dwGlobalSlotIndex, (BYTE)dwWndType, (BYTE)dwWndItemPos);

  00011	89 45 08	 mov	 DWORD PTR _dwLocalSlotIndex$[ebp], eax
  00014	8b 0d 00 00 00
	00		 mov	 ecx, DWORD PTR ?ms_singleton@?$CSingleton@VCPythonNetworkStream@@@@0PAVCPythonNetworkStream@@A ; CSingleton<CPythonNetworkStream>::ms_singleton

; 781  : }

  0001a	5d		 pop	 ebp

; 778  : 
; 779  : 	CPythonNetworkStream& rkNetStream=CPythonNetworkStream::Instance();
; 780  : 	rkNetStream.SendQuickSlotAddPacket((BYTE)dwGlobalSlotIndex, (BYTE)dwWndType, (BYTE)dwWndItemPos);

  0001b	e9 00 00 00 00	 jmp	 ?SendQuickSlotAddPacket@CPythonNetworkStream@@QAE_NEEE@Z ; CPythonNetworkStream::SendQuickSlotAddPacket
$LN1@RequestAdd:

; 781  : }

  00020	5d		 pop	 ebp
  00021	c2 0c 00	 ret	 12			; 0000000cH
?RequestAddLocalQuickSlot@CPythonPlayer@@QAEXKKK@Z ENDP	; CPythonPlayer::RequestAddLocalQuickSlot
_TEXT	ENDS
; Function compile flags: /Ogtp
; File E:\Metin2_server\SolWayneSF v6\ClientVS22\source\UserInterface\PythonPlayer.cpp
;	COMDAT ?RequestAddToEmptyLocalQuickSlot@CPythonPlayer@@QAEXKK@Z
_TEXT	SEGMENT
_dwWndType$ = 8						; size = 4
_dwWndItemPos$ = 12					; size = 4
?RequestAddToEmptyLocalQuickSlot@CPythonPlayer@@QAEXKK@Z PROC ; CPythonPlayer::RequestAddToEmptyLocalQuickSlot, COMDAT
; _this$ = ecx

; 784  : {

  00000	55		 push	 ebp
  00001	8b ec		 mov	 ebp, esp
  00003	56		 push	 esi
  00004	57		 push	 edi
  00005	8b f9		 mov	 edi, ecx

; 785  :     for (int i = 0; i < QUICKSLOT_MAX_COUNT_PER_LINE; ++i)

  00007	33 f6		 xor	 esi, esi
  00009	0f 1f 80 00 00
	00 00		 npad	 7
$LL4@RequestAdd:

; 786  :     {
; 787  :         TQuickSlot& rkQuickSlot=__RefLocalQuickSlot(i);

  00010	56		 push	 esi
  00011	8b cf		 mov	 ecx, edi
  00013	e8 00 00 00 00	 call	 ?__RefLocalQuickSlot@CPythonPlayer@@IAEAAUSQuickSlot@@H@Z ; CPythonPlayer::__RefLocalQuickSlot

; 788  : 
; 789  :         if (0 == rkQuickSlot.Type)

  00018	80 38 00	 cmp	 BYTE PTR [eax], 0
  0001b	74 0c		 je	 SHORT $LN8@RequestAdd

; 785  :     for (int i = 0; i < QUICKSLOT_MAX_COUNT_PER_LINE; ++i)

  0001d	46		 inc	 esi
  0001e	83 fe 08	 cmp	 esi, 8
  00021	7c ed		 jl	 SHORT $LL4@RequestAdd

; 794  :             return;
; 795  :         }
; 796  :     }
; 797  : 
; 798  : }

  00023	5f		 pop	 edi
  00024	5e		 pop	 esi
  00025	5d		 pop	 ebp
  00026	c2 08 00	 ret	 8
$LN8@RequestAdd:

; 790  :         {
; 791  :             DWORD dwGlobalQuickSlotIndex=LocalQuickSlotIndexToGlobalQuickSlotIndex(i);

  00029	56		 push	 esi
  0002a	8b cf		 mov	 ecx, edi
  0002c	e8 00 00 00 00	 call	 ?LocalQuickSlotIndexToGlobalQuickSlotIndex@CPythonPlayer@@QAEKK@Z ; CPythonPlayer::LocalQuickSlotIndexToGlobalQuickSlotIndex

; 792  :             CPythonNetworkStream& rkNetStream=CPythonNetworkStream::Instance();
; 793  :             rkNetStream.SendQuickSlotAddPacket((BYTE)dwGlobalQuickSlotIndex, (BYTE)dwWndType, (BYTE)dwWndItemPos);

  00031	ff 75 0c	 push	 DWORD PTR _dwWndItemPos$[ebp]
  00034	8b 0d 00 00 00
	00		 mov	 ecx, DWORD PTR ?ms_singleton@?$CSingleton@VCPythonNetworkStream@@@@0PAVCPythonNetworkStream@@A ; CSingleton<CPythonNetworkStream>::ms_singleton
  0003a	ff 75 08	 push	 DWORD PTR _dwWndType$[ebp]
  0003d	50		 push	 eax
  0003e	e8 00 00 00 00	 call	 ?SendQuickSlotAddPacket@CPythonNetworkStream@@QAE_NEEE@Z ; CPythonNetworkStream::SendQuickSlotAddPacket
  00043	5f		 pop	 edi

; 794  :             return;
; 795  :         }
; 796  :     }
; 797  : 
; 798  : }

  00044	5e		 pop	 esi
  00045	5d		 pop	 ebp
  00046	c2 08 00	 ret	 8
?RequestAddToEmptyLocalQuickSlot@CPythonPlayer@@QAEXKK@Z ENDP ; CPythonPlayer::RequestAddToEmptyLocalQuickSlot
_TEXT	ENDS
; Function compile flags: /Ogtp
; File E:\Metin2_server\SolWayneSF v6\ClientVS22\source\UserInterface\PythonPlayer.cpp
;	COMDAT ?RequestDeleteGlobalQuickSlot@CPythonPlayer@@QAEXK@Z
_TEXT	SEGMENT
_dwGlobalSlotIndex$ = 8					; size = 4
?RequestDeleteGlobalQuickSlot@CPythonPlayer@@QAEXK@Z PROC ; CPythonPlayer::RequestDeleteGlobalQuickSlot, COMDAT
; _this$dead$ = ecx

; 801  : {

  00000	55		 push	 ebp
  00001	8b ec		 mov	 ebp, esp

; 802  : 	if (dwGlobalSlotIndex>=QUICKSLOT_MAX_COUNT)

  00003	8b 45 08	 mov	 eax, DWORD PTR _dwGlobalSlotIndex$[ebp]
  00006	83 f8 20	 cmp	 eax, 32			; 00000020H
  00009	73 0f		 jae	 SHORT $LN1@RequestDel

; 803  : 		return;
; 804  : 
; 805  : 	//if (dwLocalSlotIndex>=QUICKSLOT_MAX_SLOT_PER_LINE)
; 806  : 	//	return;
; 807  : 
; 808  : 	//DWORD dwGlobalSlotIndex=LocalQuickSlotIndexToGlobalQuickSlotIndex(dwLocalSlotIndex);
; 809  : 
; 810  : 	CPythonNetworkStream& rkNetStream=CPythonNetworkStream::Instance();
; 811  : 	rkNetStream.SendQuickSlotDelPacket((BYTE)dwGlobalSlotIndex);

  0000b	89 45 08	 mov	 DWORD PTR _dwGlobalSlotIndex$[ebp], eax
  0000e	8b 0d 00 00 00
	00		 mov	 ecx, DWORD PTR ?ms_singleton@?$CSingleton@VCPythonNetworkStream@@@@0PAVCPythonNetworkStream@@A ; CSingleton<CPythonNetworkStream>::ms_singleton

; 812  : }

  00014	5d		 pop	 ebp

; 803  : 		return;
; 804  : 
; 805  : 	//if (dwLocalSlotIndex>=QUICKSLOT_MAX_SLOT_PER_LINE)
; 806  : 	//	return;
; 807  : 
; 808  : 	//DWORD dwGlobalSlotIndex=LocalQuickSlotIndexToGlobalQuickSlotIndex(dwLocalSlotIndex);
; 809  : 
; 810  : 	CPythonNetworkStream& rkNetStream=CPythonNetworkStream::Instance();
; 811  : 	rkNetStream.SendQuickSlotDelPacket((BYTE)dwGlobalSlotIndex);

  00015	e9 00 00 00 00	 jmp	 ?SendQuickSlotDelPacket@CPythonNetworkStream@@QAE_NE@Z ; CPythonNetworkStream::SendQuickSlotDelPacket
$LN1@RequestDel:

; 812  : }

  0001a	5d		 pop	 ebp
  0001b	c2 04 00	 ret	 4
?RequestDeleteGlobalQuickSlot@CPythonPlayer@@QAEXK@Z ENDP ; CPythonPlayer::RequestDeleteGlobalQuickSlot
_TEXT	ENDS
; Function compile flags: /Ogtp
; File E:\Metin2_server\SolWayneSF v6\ClientVS22\source\UserInterface\PythonPlayer.cpp
; File E:\Metin2_server\SolWayneSF v6\ClientVS22\source\UserInterface\GameType.h
; File E:\Metin2_server\SolWayneSF v6\ClientVS22\source\UserInterface\PythonPlayer.cpp
; File E:\Metin2_server\SolWayneSF v6\ClientVS22\source\UserInterface\GameType.h
; File E:\Metin2_server\SolWayneSF v6\ClientVS22\source\UserInterface\PythonPlayer.cpp
;	COMDAT ?RequestUseLocalQuickSlot@CPythonPlayer@@QAEXK@Z
_TEXT	SEGMENT
_dwRegisteredItemPos$ = -4				; size = 4
_dwRegisteredType$ = 8					; size = 4
_dwLocalSlotIndex$ = 8					; size = 4
$T1 = 9							; size = 3
?RequestUseLocalQuickSlot@CPythonPlayer@@QAEXK@Z PROC	; CPythonPlayer::RequestUseLocalQuickSlot, COMDAT
; _this$ = ecx

; 815  : {

  00000	55		 push	 ebp
  00001	8b ec		 mov	 ebp, esp
  00003	51		 push	 ecx

; 816  : 	if (dwLocalSlotIndex>=QUICKSLOT_MAX_COUNT_PER_LINE)

  00004	8b 45 08	 mov	 eax, DWORD PTR _dwLocalSlotIndex$[ebp]
  00007	56		 push	 esi
  00008	8b f1		 mov	 esi, ecx
  0000a	83 f8 08	 cmp	 eax, 8
  0000d	0f 83 80 00 00
	00		 jae	 $LN2@RequestUse

; 817  : 		return;
; 818  : 
; 819  : 	DWORD dwRegisteredType;
; 820  : 	DWORD dwRegisteredItemPos;
; 821  : 	GetLocalQuickSlotData(dwLocalSlotIndex, &dwRegisteredType, &dwRegisteredItemPos);

  00013	8d 4d fc	 lea	 ecx, DWORD PTR _dwRegisteredItemPos$[ebp]
  00016	51		 push	 ecx
  00017	8d 4d 08	 lea	 ecx, DWORD PTR _dwRegisteredType$[ebp]
  0001a	51		 push	 ecx
  0001b	50		 push	 eax
  0001c	8b ce		 mov	 ecx, esi
  0001e	e8 00 00 00 00	 call	 ?GetLocalQuickSlotData@CPythonPlayer@@QAEXKPAK0@Z ; CPythonPlayer::GetLocalQuickSlotData

; 822  : 
; 823  : 	switch (dwRegisteredType)

  00023	8b 45 08	 mov	 eax, DWORD PTR _dwRegisteredType$[ebp]
  00026	83 e8 01	 sub	 eax, 1
  00029	74 41		 je	 SHORT $LN5@RequestUse
  0002b	83 e8 01	 sub	 eax, 1
  0002e	74 2b		 je	 SHORT $LN6@RequestUse
  00030	83 e8 01	 sub	 eax, 1
  00033	75 5e		 jne	 SHORT $LN2@RequestUse

; 834  : 			break;
; 835  : 		}
; 836  : 		case SLOT_TYPE_EMOTION:
; 837  : 		{
; 838  : 			PyCallClassMemberFunc(m_ppyGameWindow, "BINARY_ActEmotion", Py_BuildValue("(i)", dwRegisteredItemPos));

  00035	ff 75 fc	 push	 DWORD PTR _dwRegisteredItemPos$[ebp]
  00038	68 00 00 00 00	 push	 OFFSET ??_C@_03LIHNMIHG@?$CIi?$CJ@
  0003d	ff 15 00 00 00
	00		 call	 DWORD PTR __imp__Py_BuildValue
  00043	50		 push	 eax
  00044	68 00 00 00 00	 push	 OFFSET ??_C@_0BC@GAEKBOHM@BINARY_ActEmotion@
  00049	ff 76 08	 push	 DWORD PTR [esi+8]
  0004c	e8 00 00 00 00	 call	 ?PyCallClassMemberFunc@@YA_NPAU_object@@PBD0@Z ; PyCallClassMemberFunc
  00051	83 c4 14	 add	 esp, 20			; 00000014H

; 839  : 			break;
; 840  : 		}
; 841  : 	}
; 842  : }

  00054	5e		 pop	 esi
  00055	8b e5		 mov	 esp, ebp
  00057	5d		 pop	 ebp
  00058	c2 04 00	 ret	 4
$LN6@RequestUse:

; 829  : 			break;
; 830  : 		}
; 831  : 		case SLOT_TYPE_SKILL:
; 832  : 		{
; 833  : 			ClickSkillSlot(dwRegisteredItemPos);

  0005b	ff 75 fc	 push	 DWORD PTR _dwRegisteredItemPos$[ebp]
  0005e	8b ce		 mov	 ecx, esi
  00060	e8 00 00 00 00	 call	 ?ClickSkillSlot@CPythonPlayer@@QAEXK@Z ; CPythonPlayer::ClickSkillSlot

; 839  : 			break;
; 840  : 		}
; 841  : 	}
; 842  : }

  00065	5e		 pop	 esi
  00066	8b e5		 mov	 esp, ebp
  00068	5d		 pop	 ebp
  00069	c2 04 00	 ret	 4
$LN5@RequestUse:
; File E:\Metin2_server\SolWayneSF v6\ClientVS22\source\UserInterface\GameType.h

; 207  :         cell = _cell;

  0006c	0f b7 45 fc	 movzx	 eax, WORD PTR _dwRegisteredItemPos$[ebp]
; File E:\Metin2_server\SolWayneSF v6\ClientVS22\source\UserInterface\PythonPlayer.cpp

; 828  : 			rkNetStream.SendItemUsePacket(TItemPos(INVENTORY, (WORD)dwRegisteredItemPos));

  00070	51		 push	 ecx
  00071	8b cc		 mov	 ecx, esp
; File E:\Metin2_server\SolWayneSF v6\ClientVS22\source\UserInterface\GameType.h

; 207  :         cell = _cell;

  00073	66 89 45 0a	 mov	 WORD PTR $T1[ebp+1], ax
  00077	c6 45 09 01	 mov	 BYTE PTR $T1[ebp], 1
; File E:\Metin2_server\SolWayneSF v6\ClientVS22\source\UserInterface\PythonPlayer.cpp

; 828  : 			rkNetStream.SendItemUsePacket(TItemPos(INVENTORY, (WORD)dwRegisteredItemPos));

  0007b	0f b7 45 09	 movzx	 eax, WORD PTR $T1[ebp]
  0007f	66 89 01	 mov	 WORD PTR [ecx], ax
  00082	8a 45 0b	 mov	 al, BYTE PTR $T1[ebp+2]
  00085	88 41 02	 mov	 BYTE PTR [ecx+2], al
  00088	8b 0d 00 00 00
	00		 mov	 ecx, DWORD PTR ?ms_singleton@?$CSingleton@VCPythonNetworkStream@@@@0PAVCPythonNetworkStream@@A ; CSingleton<CPythonNetworkStream>::ms_singleton
  0008e	e8 00 00 00 00	 call	 ?SendItemUsePacket@CPythonNetworkStream@@QAE_NUSItemPos@@@Z ; CPythonNetworkStream::SendItemUsePacket
$LN2@RequestUse:

; 839  : 			break;
; 840  : 		}
; 841  : 	}
; 842  : }

  00093	5e		 pop	 esi
  00094	8b e5		 mov	 esp, ebp
  00096	5d		 pop	 ebp
  00097	c2 04 00	 ret	 4
?RequestUseLocalQuickSlot@CPythonPlayer@@QAEXK@Z ENDP	; CPythonPlayer::RequestUseLocalQuickSlot
_TEXT	ENDS
; Function compile flags: /Ogtp
; File E:\Metin2_server\SolWayneSF v6\ClientVS22\source\UserInterface\PythonPlayer.cpp
;	COMDAT ?AddQuickSlot@CPythonPlayer@@UAEXHDD@Z
_TEXT	SEGMENT
_QuickSlotIndex$ = 8					; size = 4
_IconType$ = 12						; size = 1
_IconPosition$ = 16					; size = 1
?AddQuickSlot@CPythonPlayer@@UAEXHDD@Z PROC		; CPythonPlayer::AddQuickSlot, COMDAT
; _this$ = ecx

; 845  : {

  00000	55		 push	 ebp
  00001	8b ec		 mov	 ebp, esp

; 846  : 	if (QuickSlotIndex < 0 || QuickSlotIndex >= QUICKSLOT_MAX_NUM)

  00003	8b 55 08	 mov	 edx, DWORD PTR _QuickSlotIndex$[ebp]
  00006	83 fa 23	 cmp	 edx, 35			; 00000023H
  00009	77 14		 ja	 SHORT $LN3@AddQuickSl

; 847  : 		return;
; 848  : 
; 849  : 	m_playerStatus.aQuickSlot[QuickSlotIndex].Type = IconType;

  0000b	8a 45 0c	 mov	 al, BYTE PTR _IconType$[ebp]
  0000e	88 84 51 c8 fd
	00 00		 mov	 BYTE PTR [ecx+edx*2+64968], al

; 850  : 	m_playerStatus.aQuickSlot[QuickSlotIndex].Position = IconPosition;

  00015	8a 45 10	 mov	 al, BYTE PTR _IconPosition$[ebp]
  00018	88 84 51 c9 fd
	00 00		 mov	 BYTE PTR [ecx+edx*2+64969], al
$LN3@AddQuickSl:

; 851  : }

  0001f	5d		 pop	 ebp
  00020	c2 0c 00	 ret	 12			; 0000000cH
?AddQuickSlot@CPythonPlayer@@UAEXHDD@Z ENDP		; CPythonPlayer::AddQuickSlot
_TEXT	ENDS
; Function compile flags: /Ogtp
; File E:\Metin2_server\SolWayneSF v6\ClientVS22\source\UserInterface\PythonPlayer.cpp
;	COMDAT ?DeleteQuickSlot@CPythonPlayer@@UAEXH@Z
_TEXT	SEGMENT
_QuickSlotIndex$ = 8					; size = 4
?DeleteQuickSlot@CPythonPlayer@@UAEXH@Z PROC		; CPythonPlayer::DeleteQuickSlot, COMDAT
; _this$ = ecx

; 854  : {

  00000	55		 push	 ebp
  00001	8b ec		 mov	 ebp, esp

; 855  : 	if (QuickSlotIndex < 0 || QuickSlotIndex >= QUICKSLOT_MAX_NUM)

  00003	8b 45 08	 mov	 eax, DWORD PTR _QuickSlotIndex$[ebp]
  00006	83 f8 23	 cmp	 eax, 35			; 00000023H
  00009	77 0a		 ja	 SHORT $LN3@DeleteQuic

; 856  : 		return;
; 857  : 
; 858  : 	m_playerStatus.aQuickSlot[QuickSlotIndex].Type = 0;

  0000b	66 c7 84 41 c8
	fd 00 00 00 00	 mov	 WORD PTR [ecx+eax*2+64968], 0
$LN3@DeleteQuic:

; 859  : 	m_playerStatus.aQuickSlot[QuickSlotIndex].Position = 0;
; 860  : }

  00015	5d		 pop	 ebp
  00016	c2 04 00	 ret	 4
?DeleteQuickSlot@CPythonPlayer@@UAEXH@Z ENDP		; CPythonPlayer::DeleteQuickSlot
_TEXT	ENDS
; Function compile flags: /Ogtp
; File E:\Metin2_server\SolWayneSF v6\ClientVS22\source\UserInterface\PythonPlayer.cpp
; File C:\Program Files\Microsoft Visual Studio\2022\Community\VC\Tools\MSVC\14.34.31933\include\utility
; File E:\Metin2_server\SolWayneSF v6\ClientVS22\source\UserInterface\PythonPlayer.cpp
;	COMDAT ?MoveQuickSlot@CPythonPlayer@@UAEXHH@Z
_TEXT	SEGMENT
_Source$ = 8						; size = 4
_Target$ = 12						; size = 4
?MoveQuickSlot@CPythonPlayer@@UAEXHH@Z PROC		; CPythonPlayer::MoveQuickSlot, COMDAT
; _this$ = ecx

; 863  : {

  00000	55		 push	 ebp
  00001	8b ec		 mov	 ebp, esp

; 864  : 	if (Source < 0 || Source >= QUICKSLOT_MAX_NUM)

  00003	8b 45 08	 mov	 eax, DWORD PTR _Source$[ebp]
  00006	8b 55 0c	 mov	 edx, DWORD PTR _Target$[ebp]
  00009	83 f8 23	 cmp	 eax, 35			; 00000023H
  0000c	77 24		 ja	 SHORT $LN5@MoveQuickS

; 865  : 		return;
; 866  : 
; 867  : 	if (Target < 0 || Target >= QUICKSLOT_MAX_NUM)

  0000e	83 fa 23	 cmp	 edx, 35			; 00000023H
  00011	77 1f		 ja	 SHORT $LN5@MoveQuickS

; 868  : 		return;
; 869  : 
; 870  : 	TQuickSlot& rkSrcSlot=__RefGlobalQuickSlot(Source);

  00013	56		 push	 esi
  00014	83 c1 fc	 add	 ecx, -4			; fffffffcH
  00017	50		 push	 eax
  00018	e8 00 00 00 00	 call	 ?__RefGlobalQuickSlot@CPythonPlayer@@IAEAAUSQuickSlot@@H@Z ; CPythonPlayer::__RefGlobalQuickSlot

; 871  : 	TQuickSlot& rkDstSlot=__RefGlobalQuickSlot(Target);

  0001d	52		 push	 edx
  0001e	8b f0		 mov	 esi, eax
  00020	e8 00 00 00 00	 call	 ?__RefGlobalQuickSlot@CPythonPlayer@@IAEAAUSQuickSlot@@H@Z ; CPythonPlayer::__RefGlobalQuickSlot
; File C:\Program Files\Microsoft Visual Studio\2022\Community\VC\Tools\MSVC\14.34.31933\include\utility

; 100  :     _Ty _Tmp = _STD move(_Left);

  00025	66 8b 0e	 mov	 cx, WORD PTR [esi]

; 101  :     _Left    = _STD move(_Right);

  00028	66 8b 10	 mov	 dx, WORD PTR [eax]
  0002b	66 89 16	 mov	 WORD PTR [esi], dx

; 102  :     _Right   = _STD move(_Tmp);

  0002e	66 89 08	 mov	 WORD PTR [eax], cx
  00031	5e		 pop	 esi
$LN5@MoveQuickS:
; File E:\Metin2_server\SolWayneSF v6\ClientVS22\source\UserInterface\PythonPlayer.cpp

; 874  : }

  00032	5d		 pop	 ebp
  00033	c2 08 00	 ret	 8
?MoveQuickSlot@CPythonPlayer@@UAEXHH@Z ENDP		; CPythonPlayer::MoveQuickSlot
_TEXT	ENDS
; Function compile flags: /Ogtp
; File E:\Metin2_server\SolWayneSF v6\ClientVS22\source\UserInterface\PythonPlayer.cpp
; File E:\Metin2_server\SolWayneSF v6\ClientVS22\source\UserInterface\GameType.h
; File E:\Metin2_server\SolWayneSF v6\ClientVS22\source\UserInterface\PythonPlayer.cpp
;	COMDAT ?IsBeltInventorySlot@CPythonPlayer@@QAE_NUSItemPos@@@Z
_TEXT	SEGMENT
_Cell$ = 8						; size = 3
?IsBeltInventorySlot@CPythonPlayer@@QAE_NUSItemPos@@@Z PROC ; CPythonPlayer::IsBeltInventorySlot, COMDAT
; _this$dead$ = ecx

; 878  : {

  00000	55		 push	 ebp
  00001	8b ec		 mov	 ebp, esp
; File E:\Metin2_server\SolWayneSF v6\ClientVS22\source\UserInterface\GameType.h

; 258  : 		bool bResult = c_Belt_Inventory_Slot_Start <= cell && c_Belt_Inventory_Slot_End > cell;

  00003	66 8b 45 09	 mov	 ax, WORD PTR _Cell$[ebp+1]
  00007	b9 f2 00 00 00	 mov	 ecx, 242		; 000000f2H
  0000c	66 2b c1	 sub	 ax, cx
; File E:\Metin2_server\SolWayneSF v6\ClientVS22\source\UserInterface\PythonPlayer.cpp

; 879  : 	return Cell.IsBeltInventoryCell();

  0000f	66 83 f8 0f	 cmp	 ax, 15			; 0000000fH
  00013	0f 96 c0	 setbe	 al

; 880  : }

  00016	5d		 pop	 ebp
  00017	c2 04 00	 ret	 4
?IsBeltInventorySlot@CPythonPlayer@@QAE_NUSItemPos@@@Z ENDP ; CPythonPlayer::IsBeltInventorySlot
_TEXT	ENDS
; Function compile flags: /Ogtp
; File E:\Metin2_server\SolWayneSF v6\ClientVS22\source\UserInterface\PythonPlayer.cpp
; File E:\Metin2_server\SolWayneSF v6\ClientVS22\source\UserInterface\GameType.h
; File E:\Metin2_server\SolWayneSF v6\ClientVS22\source\UserInterface\PythonPlayer.cpp
;	COMDAT ?IsEquipmentSlot@CPythonPlayer@@QAE_NUSItemPos@@@Z
_TEXT	SEGMENT
_Cell$ = 8						; size = 3
?IsEquipmentSlot@CPythonPlayer@@QAE_NUSItemPos@@@Z PROC	; CPythonPlayer::IsEquipmentSlot, COMDAT
; _this$dead$ = ecx

; 889  : {

  00000	55		 push	 ebp
  00001	8b ec		 mov	 ebp, esp
; File E:\Metin2_server\SolWayneSF v6\ClientVS22\source\UserInterface\GameType.h

; 238  : 		switch (window_type)

  00003	0f b6 45 08	 movzx	 eax, BYTE PTR _Cell$[ebp]
  00007	48		 dec	 eax
  00008	83 f8 06	 cmp	 eax, 6
  0000b	77 25		 ja	 SHORT $LN10@IsEquipmen
  0000d	0f b6 80 00 00
	00 00		 movzx	 eax, BYTE PTR $LN14@IsEquipmen[eax]
  00014	ff 24 85 00 00
	00 00		 jmp	 DWORD PTR $LN15@IsEquipmen[eax*4]
$LN6@IsEquipmen:

; 239  : 		{
; 240  : 		case INVENTORY:
; 241  : 		case EQUIPMENT:
; 242  : 			return (c_Equipment_Start + c_Wear_Max > cell) && (c_Equipment_Start <= cell);

  0001b	66 8b 45 09	 mov	 ax, WORD PTR _Cell$[ebp+1]
  0001f	b9 b4 00 00 00	 mov	 ecx, 180		; 000000b4H
  00024	66 2b c1	 sub	 ax, cx
  00027	66 83 f8 1f	 cmp	 ax, 31			; 0000001fH
  0002b	0f 96 c0	 setbe	 al
; File E:\Metin2_server\SolWayneSF v6\ClientVS22\source\UserInterface\PythonPlayer.cpp

; 891  : }

  0002e	5d		 pop	 ebp
  0002f	c2 04 00	 ret	 4
$LN10@IsEquipmen:
  00032	32 c0		 xor	 al, al
  00034	5d		 pop	 ebp
  00035	c2 04 00	 ret	 4
$LN15@IsEquipmen:
  00038	00 00 00 00	 DD	 $LN6@IsEquipmen
  0003c	00 00 00 00	 DD	 $LN10@IsEquipmen
  00040	00 00 00 00	 DD	 $LN10@IsEquipmen
$LN14@IsEquipmen:
  00044	00		 DB	 0
  00045	00		 DB	 0
  00046	02		 DB	 2
  00047	02		 DB	 2
  00048	01		 DB	 1
  00049	02		 DB	 2
  0004a	01		 DB	 1
?IsEquipmentSlot@CPythonPlayer@@QAE_NUSItemPos@@@Z ENDP	; CPythonPlayer::IsEquipmentSlot
_TEXT	ENDS
; Function compile flags: /Ogtp
; File E:\Metin2_server\SolWayneSF v6\ClientVS22\source\UserInterface\PythonPlayer.cpp
; File E:\Metin2_server\SolWayneSF v6\ClientVS22\source\UserInterface\GameType.h
; File E:\Metin2_server\SolWayneSF v6\ClientVS22\source\UserInterface\PythonPlayer.cpp
; File E:\Metin2_server\SolWayneSF v6\ClientVS22\source\UserInterface\GameType.h
; File E:\Metin2_server\SolWayneSF v6\ClientVS22\source\UserInterface\PythonPlayer.cpp
;	COMDAT ?IsEquipItemInSlot@CPythonPlayer@@UAE_NUSItemPos@@@Z
_TEXT	SEGMENT
_Cell$ = 8						; size = 3
?IsEquipItemInSlot@CPythonPlayer@@UAE_NUSItemPos@@@Z PROC ; CPythonPlayer::IsEquipItemInSlot, COMDAT
; _this$ = ecx

; 894  : {

  00000	55		 push	 ebp
  00001	8b ec		 mov	 ebp, esp
  00003	53		 push	 ebx
; File E:\Metin2_server\SolWayneSF v6\ClientVS22\source\UserInterface\GameType.h

; 238  : 		switch (window_type)

  00004	66 8b 5d 08	 mov	 bx, WORD PTR _Cell$[ebp]
  00008	0f b6 c3	 movzx	 eax, bl
  0000b	48		 dec	 eax
; File E:\Metin2_server\SolWayneSF v6\ClientVS22\source\UserInterface\PythonPlayer.cpp

; 894  : {

  0000c	56		 push	 esi
  0000d	8b f1		 mov	 esi, ecx
; File E:\Metin2_server\SolWayneSF v6\ClientVS22\source\UserInterface\GameType.h

; 238  : 		switch (window_type)

  0000f	83 f8 06	 cmp	 eax, 6
  00012	77 6d		 ja	 SHORT $LN18@IsEquipIte
  00014	0f b6 80 00 00
	00 00		 movzx	 eax, BYTE PTR $LN19@IsEquipIte[eax]
  0001b	ff 24 85 00 00
	00 00		 jmp	 DWORD PTR $LN20@IsEquipIte[eax*4]
$LN9@IsEquipIte:

; 239  : 		{
; 240  : 		case INVENTORY:
; 241  : 		case EQUIPMENT:
; 242  : 			return (c_Equipment_Start + c_Wear_Max > cell) && (c_Equipment_Start <= cell);

  00022	66 8b 55 09	 mov	 dx, WORD PTR _Cell$[ebp+1]
  00026	b9 b4 00 00 00	 mov	 ecx, 180		; 000000b4H
  0002b	66 8b c2	 mov	 ax, dx
  0002e	66 2b c1	 sub	 ax, cx
  00031	66 83 f8 1f	 cmp	 ax, 31			; 0000001fH
  00035	77 4a		 ja	 SHORT $LN18@IsEquipIte
; File E:\Metin2_server\SolWayneSF v6\ClientVS22\source\UserInterface\PythonPlayer.cpp

; 900  : 	const TItemData * pData = GetItemData(Cell);

  00037	51		 push	 ecx
  00038	8b cc		 mov	 ecx, esp
  0003a	8a c6		 mov	 al, dh
  0003c	66 89 19	 mov	 WORD PTR [ecx], bx
  0003f	88 41 02	 mov	 BYTE PTR [ecx+2], al
  00042	8d 4e fc	 lea	 ecx, DWORD PTR [esi-4]
  00045	e8 00 00 00 00	 call	 ?GetItemData@CPythonPlayer@@QBEPBUpacket_item@@USItemPos@@@Z ; CPythonPlayer::GetItemData

; 901  : 	
; 902  : 	if (NULL == pData)

  0004a	85 c0		 test	 eax, eax
  0004c	74 33		 je	 SHORT $LN18@IsEquipIte

; 903  : 	{
; 904  : 		return false;
; 905  : 	}
; 906  : 
; 907  : 	DWORD dwItemIndex = pData->vnum;
; 908  : 
; 909  : 	CItemManager::Instance().SelectItemData(dwItemIndex);

  0004e	ff 30		 push	 DWORD PTR [eax]
  00050	8b 0d 00 00 00
	00		 mov	 ecx, DWORD PTR ?ms_singleton@?$CSingleton@VCItemManager@@@@0PAVCItemManager@@A ; CSingleton<CItemManager>::ms_singleton
  00056	e8 00 00 00 00	 call	 ?SelectItemData@CItemManager@@QAEHK@Z ; CItemManager::SelectItemData

; 910  : 	CItemData * pItemData = CItemManager::Instance().GetSelectedItemDataPointer();

  0005b	8b 0d 00 00 00
	00		 mov	 ecx, DWORD PTR ?ms_singleton@?$CSingleton@VCItemManager@@@@0PAVCItemManager@@A ; CSingleton<CItemManager>::ms_singleton
  00061	e8 00 00 00 00	 call	 ?GetSelectedItemDataPointer@CItemManager@@QAEPAVCItemData@@XZ ; CItemManager::GetSelectedItemDataPointer

; 911  : 	if (!pItemData)

  00066	85 c0		 test	 eax, eax
  00068	75 1f		 jne	 SHORT $LN4@IsEquipIte

; 912  : 	{
; 913  : 		TraceError("Failed to find ItemData - CPythonPlayer::IsEquipItem(window_type=%d, iSlotindex=%d)\n", Cell.window_type, Cell.cell);

  0006a	0f b7 45 09	 movzx	 eax, WORD PTR _Cell$[ebp+1]
  0006e	50		 push	 eax
  0006f	0f b6 45 08	 movzx	 eax, BYTE PTR _Cell$[ebp]
  00073	50		 push	 eax
  00074	68 00 00 00 00	 push	 OFFSET ??_C@_0FF@PCELILMJ@Failed?5to?5find?5ItemData?5?9?5CPyth@
  00079	e8 00 00 00 00	 call	 ?TraceError@@YAXPBDZZ	; TraceError
  0007e	83 c4 0c	 add	 esp, 12			; 0000000cH
$LN18@IsEquipIte:

; 918  : }

  00081	32 c0		 xor	 al, al
  00083	5e		 pop	 esi
  00084	5b		 pop	 ebx
  00085	5d		 pop	 ebp
  00086	c2 04 00	 ret	 4
$LN4@IsEquipIte:

; 914  : 		return false;
; 915  : 	}
; 916  : 
; 917  : 	return pItemData->IsEquipment() ? true : false;

  00089	8b c8		 mov	 ecx, eax
  0008b	e8 00 00 00 00	 call	 ?IsEquipment@CItemData@@QBEHXZ ; CItemData::IsEquipment
  00090	85 c0		 test	 eax, eax

; 918  : }

  00092	5e		 pop	 esi
  00093	0f 95 c0	 setne	 al
  00096	5b		 pop	 ebx
  00097	5d		 pop	 ebp
  00098	c2 04 00	 ret	 4
  0009b	90		 npad	 1
$LN20@IsEquipIte:
  0009c	00 00 00 00	 DD	 $LN9@IsEquipIte
  000a0	00 00 00 00	 DD	 $LN18@IsEquipIte
  000a4	00 00 00 00	 DD	 $LN18@IsEquipIte
$LN19@IsEquipIte:
  000a8	00		 DB	 0
  000a9	00		 DB	 0
  000aa	02		 DB	 2
  000ab	02		 DB	 2
  000ac	01		 DB	 1
  000ad	02		 DB	 2
  000ae	01		 DB	 1
?IsEquipItemInSlot@CPythonPlayer@@UAE_NUSItemPos@@@Z ENDP ; CPythonPlayer::IsEquipItemInSlot
_TEXT	ENDS
; Function compile flags: /Ogtp
; File E:\Metin2_server\SolWayneSF v6\ClientVS22\source\UserInterface\PythonPlayer.cpp
;	COMDAT ?GetSkillIndex@CPythonPlayer@@QAEHK@Z
_TEXT	SEGMENT
_dwSlotIndex$ = 8					; size = 4
?GetSkillIndex@CPythonPlayer@@QAEHK@Z PROC		; CPythonPlayer::GetSkillIndex, COMDAT
; _this$ = ecx

; 931  : {

  00000	55		 push	 ebp
  00001	8b ec		 mov	 ebp, esp

; 932  : 	if (dwSlotIndex >= SKILL_MAX_NUM)

  00003	8b 45 08	 mov	 eax, DWORD PTR _dwSlotIndex$[ebp]
  00006	3d ff 00 00 00	 cmp	 eax, 255		; 000000ffH
  0000b	72 06		 jb	 SHORT $LN2@GetSkillIn

; 933  : 		return 0;

  0000d	33 c0		 xor	 eax, eax

; 936  : }

  0000f	5d		 pop	 ebp
  00010	c2 04 00	 ret	 4
$LN2@GetSkillIn:

; 934  : 
; 935  : 	return m_playerStatus.aSkill[dwSlotIndex].dwIndex;

  00013	8d 04 80	 lea	 eax, DWORD PTR [eax+eax*4]
  00016	8b 84 c1 14 fe
	00 00		 mov	 eax, DWORD PTR [ecx+eax*8+65044]

; 936  : }

  0001d	5d		 pop	 ebp
  0001e	c2 04 00	 ret	 4
?GetSkillIndex@CPythonPlayer@@QAEHK@Z ENDP		; CPythonPlayer::GetSkillIndex
_TEXT	ENDS
; Function compile flags: /Ogtp
; File E:\Metin2_server\SolWayneSF v6\ClientVS22\source\UserInterface\PythonPlayer.cpp
;	COMDAT ?GetSkillGrade@CPythonPlayer@@QAEHK@Z
_TEXT	SEGMENT
_dwSlotIndex$ = 8					; size = 4
?GetSkillGrade@CPythonPlayer@@QAEHK@Z PROC		; CPythonPlayer::GetSkillGrade, COMDAT
; _this$ = ecx

; 952  : {

  00000	55		 push	 ebp
  00001	8b ec		 mov	 ebp, esp

; 953  : 	if (dwSlotIndex >= SKILL_MAX_NUM)

  00003	8b 45 08	 mov	 eax, DWORD PTR _dwSlotIndex$[ebp]
  00006	3d ff 00 00 00	 cmp	 eax, 255		; 000000ffH
  0000b	72 06		 jb	 SHORT $LN2@GetSkillGr

; 954  : 		return 0;

  0000d	33 c0		 xor	 eax, eax

; 957  : }

  0000f	5d		 pop	 ebp
  00010	c2 04 00	 ret	 4
$LN2@GetSkillGr:

; 955  : 
; 956  : 	return m_playerStatus.aSkill[dwSlotIndex].iGrade;

  00013	8d 04 80	 lea	 eax, DWORD PTR [eax+eax*4]
  00016	8b 84 c1 1c fe
	00 00		 mov	 eax, DWORD PTR [ecx+eax*8+65052]

; 957  : }

  0001d	5d		 pop	 ebp
  0001e	c2 04 00	 ret	 4
?GetSkillGrade@CPythonPlayer@@QAEHK@Z ENDP		; CPythonPlayer::GetSkillGrade
_TEXT	ENDS
; Function compile flags: /Ogtp
; File E:\Metin2_server\SolWayneSF v6\ClientVS22\source\UserInterface\PythonPlayer.cpp
;	COMDAT ?GetSkillLevel@CPythonPlayer@@QAEHK@Z
_TEXT	SEGMENT
_dwSlotIndex$ = 8					; size = 4
?GetSkillLevel@CPythonPlayer@@QAEHK@Z PROC		; CPythonPlayer::GetSkillLevel, COMDAT
; _this$ = ecx

; 960  : {

  00000	55		 push	 ebp
  00001	8b ec		 mov	 ebp, esp

; 961  : 	if (dwSlotIndex >= SKILL_MAX_NUM)

  00003	8b 45 08	 mov	 eax, DWORD PTR _dwSlotIndex$[ebp]
  00006	3d ff 00 00 00	 cmp	 eax, 255		; 000000ffH
  0000b	72 06		 jb	 SHORT $LN2@GetSkillLe

; 962  : 		return 0;

  0000d	33 c0		 xor	 eax, eax

; 965  : }

  0000f	5d		 pop	 ebp
  00010	c2 04 00	 ret	 4
$LN2@GetSkillLe:

; 963  : 
; 964  : 	return m_playerStatus.aSkill[dwSlotIndex].iLevel;

  00013	8d 04 80	 lea	 eax, DWORD PTR [eax+eax*4]
  00016	8b 84 c1 20 fe
	00 00		 mov	 eax, DWORD PTR [ecx+eax*8+65056]

; 965  : }

  0001d	5d		 pop	 ebp
  0001e	c2 04 00	 ret	 4
?GetSkillLevel@CPythonPlayer@@QAEHK@Z ENDP		; CPythonPlayer::GetSkillLevel
_TEXT	ENDS
; Function compile flags: /Ogtp
; File E:\Metin2_server\SolWayneSF v6\ClientVS22\source\UserInterface\PythonPlayer.cpp
;	COMDAT ?GetSkillCurrentEfficientPercentage@CPythonPlayer@@QAEMK@Z
_TEXT	SEGMENT
_dwSlotIndex$ = 8					; size = 4
?GetSkillCurrentEfficientPercentage@CPythonPlayer@@QAEMK@Z PROC ; CPythonPlayer::GetSkillCurrentEfficientPercentage, COMDAT
; _this$ = ecx

; 968  : {

  00000	55		 push	 ebp
  00001	8b ec		 mov	 ebp, esp

; 969  : 	if (dwSlotIndex >= SKILL_MAX_NUM)

  00003	8b 45 08	 mov	 eax, DWORD PTR _dwSlotIndex$[ebp]
  00006	3d ff 00 00 00	 cmp	 eax, 255		; 000000ffH
  0000b	72 07		 jb	 SHORT $LN2@GetSkillCu
  0000d	0f 57 c0	 xorps	 xmm0, xmm0

; 973  : }

  00010	5d		 pop	 ebp
  00011	c2 04 00	 ret	 4
$LN2@GetSkillCu:

; 970  : 		return 0;
; 971  : 
; 972  : 	return m_playerStatus.aSkill[dwSlotIndex].fcurEfficientPercentage;

  00014	8d 04 80	 lea	 eax, DWORD PTR [eax+eax*4]
  00017	f3 0f 10 84 c1
	24 fe 00 00	 movss	 xmm0, DWORD PTR [ecx+eax*8+65060]

; 973  : }

  00020	5d		 pop	 ebp
  00021	c2 04 00	 ret	 4
?GetSkillCurrentEfficientPercentage@CPythonPlayer@@QAEMK@Z ENDP ; CPythonPlayer::GetSkillCurrentEfficientPercentage
_TEXT	ENDS
; Function compile flags: /Ogtp
; File E:\Metin2_server\SolWayneSF v6\ClientVS22\source\UserInterface\PythonPlayer.cpp
;	COMDAT ?GetSkillNextEfficientPercentage@CPythonPlayer@@QAEMK@Z
_TEXT	SEGMENT
_dwSlotIndex$ = 8					; size = 4
?GetSkillNextEfficientPercentage@CPythonPlayer@@QAEMK@Z PROC ; CPythonPlayer::GetSkillNextEfficientPercentage, COMDAT
; _this$ = ecx

; 976  : {

  00000	55		 push	 ebp
  00001	8b ec		 mov	 ebp, esp

; 977  : 	if (dwSlotIndex >= SKILL_MAX_NUM)

  00003	8b 45 08	 mov	 eax, DWORD PTR _dwSlotIndex$[ebp]
  00006	3d ff 00 00 00	 cmp	 eax, 255		; 000000ffH
  0000b	72 07		 jb	 SHORT $LN2@GetSkillNe
  0000d	0f 57 c0	 xorps	 xmm0, xmm0

; 981  : }

  00010	5d		 pop	 ebp
  00011	c2 04 00	 ret	 4
$LN2@GetSkillNe:

; 978  : 		return 0;
; 979  : 
; 980  : 	return m_playerStatus.aSkill[dwSlotIndex].fnextEfficientPercentage;

  00014	8d 04 80	 lea	 eax, DWORD PTR [eax+eax*4]
  00017	f3 0f 10 84 c1
	28 fe 00 00	 movss	 xmm0, DWORD PTR [ecx+eax*8+65064]

; 981  : }

  00020	5d		 pop	 ebp
  00021	c2 04 00	 ret	 4
?GetSkillNextEfficientPercentage@CPythonPlayer@@QAEMK@Z ENDP ; CPythonPlayer::GetSkillNextEfficientPercentage
_TEXT	ENDS
; Function compile flags: /Ogtp
; File E:\Metin2_server\SolWayneSF v6\ClientVS22\source\UserInterface\PythonPlayer.cpp
;	COMDAT ?GetSkillCoolTime@CPythonPlayer@@QAEMK@Z
_TEXT	SEGMENT
_dwSlotIndex$ = 8					; size = 4
?GetSkillCoolTime@CPythonPlayer@@QAEMK@Z PROC		; CPythonPlayer::GetSkillCoolTime, COMDAT
; _this$ = ecx

; 1083 : {

  00000	55		 push	 ebp
  00001	8b ec		 mov	 ebp, esp

; 1084 : 	if (dwSlotIndex >= SKILL_MAX_NUM)

  00003	8b 45 08	 mov	 eax, DWORD PTR _dwSlotIndex$[ebp]
  00006	3d ff 00 00 00	 cmp	 eax, 255		; 000000ffH
  0000b	72 07		 jb	 SHORT $LN2@GetSkillCo
  0000d	0f 57 c0	 xorps	 xmm0, xmm0

; 1088 : }

  00010	5d		 pop	 ebp
  00011	c2 04 00	 ret	 4
$LN2@GetSkillCo:

; 1085 : 		return 0.0f;
; 1086 : 
; 1087 : 	return m_playerStatus.aSkill[dwSlotIndex].fCoolTime;

  00014	8d 04 80	 lea	 eax, DWORD PTR [eax+eax*4]
  00017	f3 0f 10 84 c1
	30 fe 00 00	 movss	 xmm0, DWORD PTR [ecx+eax*8+65072]

; 1088 : }

  00020	5d		 pop	 ebp
  00021	c2 04 00	 ret	 4
?GetSkillCoolTime@CPythonPlayer@@QAEMK@Z ENDP		; CPythonPlayer::GetSkillCoolTime
_TEXT	ENDS
; Function compile flags: /Ogtp
; File E:\Metin2_server\SolWayneSF v6\ClientVS22\source\UserInterface\PythonPlayer.cpp
;	COMDAT ?GetSkillElapsedCoolTime@CPythonPlayer@@QAEMK@Z
_TEXT	SEGMENT
tv71 = 8						; size = 4
_dwSlotIndex$ = 8					; size = 4
?GetSkillElapsedCoolTime@CPythonPlayer@@QAEMK@Z PROC	; CPythonPlayer::GetSkillElapsedCoolTime, COMDAT
; _this$ = ecx

; 1091 : {

  00000	55		 push	 ebp
  00001	8b ec		 mov	 ebp, esp
  00003	56		 push	 esi

; 1092 : 	if (dwSlotIndex >= SKILL_MAX_NUM)

  00004	8b 75 08	 mov	 esi, DWORD PTR _dwSlotIndex$[ebp]
  00007	57		 push	 edi
  00008	8b f9		 mov	 edi, ecx
  0000a	81 fe ff 00 00
	00		 cmp	 esi, 255		; 000000ffH
  00010	72 09		 jb	 SHORT $LN2@GetSkillEl

; 1096 : }

  00012	5f		 pop	 edi
  00013	0f 57 c0	 xorps	 xmm0, xmm0
  00016	5e		 pop	 esi
  00017	5d		 pop	 ebp
  00018	c2 04 00	 ret	 4
$LN2@GetSkillEl:

; 1093 : 		return 0.0f;
; 1094 : 
; 1095 : 	return CTimer::Instance().GetCurrentSecond() - m_playerStatus.aSkill[dwSlotIndex].fLastUsedTime;

  0001b	8b 0d 00 00 00
	00		 mov	 ecx, DWORD PTR ?ms_singleton@?$CSingleton@VCTimer@@@@0PAVCTimer@@A ; CSingleton<CTimer>::ms_singleton
  00021	e8 00 00 00 00	 call	 ?GetCurrentSecond@CTimer@@QAEMXZ ; CTimer::GetCurrentSecond
  00026	8d 04 b6	 lea	 eax, DWORD PTR [esi+esi*4]
  00029	d8 a4 c7 34 fe
	00 00		 fsub	 DWORD PTR [edi+eax*8+65076]
  00030	5f		 pop	 edi

; 1096 : }

  00031	5e		 pop	 esi
  00032	d9 5d 08	 fstp	 DWORD PTR tv71[ebp]
  00035	f3 0f 10 45 08	 movss	 xmm0, DWORD PTR tv71[ebp]
  0003a	5d		 pop	 ebp
  0003b	c2 04 00	 ret	 4
?GetSkillElapsedCoolTime@CPythonPlayer@@QAEMK@Z ENDP	; CPythonPlayer::GetSkillElapsedCoolTime
_TEXT	ENDS
; Function compile flags: /Ogtp
; File E:\Metin2_server\SolWayneSF v6\ClientVS22\source\UserInterface\PythonPlayer.cpp
;	COMDAT ?__ActivateSkillSlot@CPythonPlayer@@IAEXK@Z
_TEXT	SEGMENT
_dwSlotIndex$ = 8					; size = 4
?__ActivateSkillSlot@CPythonPlayer@@IAEXK@Z PROC	; CPythonPlayer::__ActivateSkillSlot, COMDAT
; _this$ = ecx

; 1099 : {

  00000	55		 push	 ebp
  00001	8b ec		 mov	 ebp, esp

; 1100 : 	if (dwSlotIndex>=SKILL_MAX_NUM)

  00003	8b 55 08	 mov	 edx, DWORD PTR _dwSlotIndex$[ebp]
  00006	56		 push	 esi
  00007	8b f1		 mov	 esi, ecx
  00009	81 fa ff 00 00
	00		 cmp	 edx, 255		; 000000ffH
  0000f	72 18		 jb	 SHORT $LN2@ActivateSk

; 1101 : 	{
; 1102 : 		Tracenf("CPythonPlayer::ActivavteSkill(dwSlotIndex=%d/%d) - OUT OF RANGE", dwSlotIndex, SKILL_MAX_NUM);

  00011	68 ff 00 00 00	 push	 255			; 000000ffH
  00016	52		 push	 edx
  00017	68 00 00 00 00	 push	 OFFSET ??_C@_0EA@BNHLOMGN@CPythonPlayer?3?3ActivavteSkill?$CId@
  0001c	e8 00 00 00 00	 call	 ?Tracenf@@YAXPBDZZ	; Tracenf
  00021	83 c4 0c	 add	 esp, 12			; 0000000cH
  00024	5e		 pop	 esi

; 1108 : }

  00025	5d		 pop	 ebp
  00026	c2 04 00	 ret	 4
$LN2@ActivateSk:

; 1103 : 		return;
; 1104 : 	}
; 1105 : 
; 1106 : 	m_playerStatus.aSkill[dwSlotIndex].bActive = TRUE;
; 1107 : 	PyCallClassMemberFunc(m_ppyGameWindow, "ActivateSkillSlot", Py_BuildValue("(i)", dwSlotIndex));

  00029	52		 push	 edx
  0002a	8d 04 92	 lea	 eax, DWORD PTR [edx+edx*4]
  0002d	68 00 00 00 00	 push	 OFFSET ??_C@_03LIHNMIHG@?$CIi?$CJ@
  00032	c7 84 c6 38 fe
	00 00 01 00 00
	00		 mov	 DWORD PTR [esi+eax*8+65080], 1
  0003d	ff 15 00 00 00
	00		 call	 DWORD PTR __imp__Py_BuildValue
  00043	50		 push	 eax
  00044	68 00 00 00 00	 push	 OFFSET ??_C@_0BC@GDFCJBCP@ActivateSkillSlot@
  00049	ff 76 08	 push	 DWORD PTR [esi+8]
  0004c	e8 00 00 00 00	 call	 ?PyCallClassMemberFunc@@YA_NPAU_object@@PBD0@Z ; PyCallClassMemberFunc
  00051	83 c4 14	 add	 esp, 20			; 00000014H
  00054	5e		 pop	 esi

; 1108 : }

  00055	5d		 pop	 ebp
  00056	c2 04 00	 ret	 4
?__ActivateSkillSlot@CPythonPlayer@@IAEXK@Z ENDP	; CPythonPlayer::__ActivateSkillSlot
_TEXT	ENDS
; Function compile flags: /Ogtp
; File E:\Metin2_server\SolWayneSF v6\ClientVS22\source\UserInterface\PythonPlayer.cpp
;	COMDAT ?__DeactivateSkillSlot@CPythonPlayer@@IAEXK@Z
_TEXT	SEGMENT
_dwSlotIndex$ = 8					; size = 4
?__DeactivateSkillSlot@CPythonPlayer@@IAEXK@Z PROC	; CPythonPlayer::__DeactivateSkillSlot, COMDAT
; _this$ = ecx

; 1111 : {

  00000	55		 push	 ebp
  00001	8b ec		 mov	 ebp, esp

; 1112 : 	if (dwSlotIndex>=SKILL_MAX_NUM)

  00003	8b 55 08	 mov	 edx, DWORD PTR _dwSlotIndex$[ebp]
  00006	56		 push	 esi
  00007	8b f1		 mov	 esi, ecx
  00009	81 fa ff 00 00
	00		 cmp	 edx, 255		; 000000ffH
  0000f	72 18		 jb	 SHORT $LN2@Deactivate

; 1113 : 	{
; 1114 : 		Tracenf("CPythonPlayer::DeactivavteSkill(dwSlotIndex=%d/%d) - OUT OF RANGE", dwSlotIndex, SKILL_MAX_NUM);

  00011	68 ff 00 00 00	 push	 255			; 000000ffH
  00016	52		 push	 edx
  00017	68 00 00 00 00	 push	 OFFSET ??_C@_0EC@BHLLACII@CPythonPlayer?3?3DeactivavteSkill@
  0001c	e8 00 00 00 00	 call	 ?Tracenf@@YAXPBDZZ	; Tracenf
  00021	83 c4 0c	 add	 esp, 12			; 0000000cH
  00024	5e		 pop	 esi

; 1120 : }

  00025	5d		 pop	 ebp
  00026	c2 04 00	 ret	 4
$LN2@Deactivate:

; 1115 : 		return;
; 1116 : 	}
; 1117 : 
; 1118 : 	m_playerStatus.aSkill[dwSlotIndex].bActive = FALSE;
; 1119 : 	PyCallClassMemberFunc(m_ppyGameWindow, "DeactivateSkillSlot", Py_BuildValue("(i)", dwSlotIndex));

  00029	52		 push	 edx
  0002a	8d 04 92	 lea	 eax, DWORD PTR [edx+edx*4]
  0002d	68 00 00 00 00	 push	 OFFSET ??_C@_03LIHNMIHG@?$CIi?$CJ@
  00032	c7 84 c6 38 fe
	00 00 00 00 00
	00		 mov	 DWORD PTR [esi+eax*8+65080], 0
  0003d	ff 15 00 00 00
	00		 call	 DWORD PTR __imp__Py_BuildValue
  00043	50		 push	 eax
  00044	68 00 00 00 00	 push	 OFFSET ??_C@_0BE@HIMJCBBG@DeactivateSkillSlot@
  00049	ff 76 08	 push	 DWORD PTR [esi+8]
  0004c	e8 00 00 00 00	 call	 ?PyCallClassMemberFunc@@YA_NPAU_object@@PBD0@Z ; PyCallClassMemberFunc
  00051	83 c4 14	 add	 esp, 20			; 00000014H
  00054	5e		 pop	 esi

; 1120 : }

  00055	5d		 pop	 ebp
  00056	c2 04 00	 ret	 4
?__DeactivateSkillSlot@CPythonPlayer@@IAEXK@Z ENDP	; CPythonPlayer::__DeactivateSkillSlot
_TEXT	ENDS
; Function compile flags: /Ogtp
; File E:\Metin2_server\SolWayneSF v6\ClientVS22\source\UserInterface\PythonPlayer.cpp
;	COMDAT ?IsSkillCoolTime@CPythonPlayer@@QAEHK@Z
_TEXT	SEGMENT
_dwSlotIndex$ = 8					; size = 4
?IsSkillCoolTime@CPythonPlayer@@QAEHK@Z PROC		; CPythonPlayer::IsSkillCoolTime, COMDAT
; _this$ = ecx

; 1123 : {

  00000	55		 push	 ebp
  00001	8b ec		 mov	 ebp, esp

; 1124 : 	if (!__CheckRestSkillCoolTime(dwSlotIndex))

  00003	ff 75 08	 push	 DWORD PTR _dwSlotIndex$[ebp]
  00006	e8 00 00 00 00	 call	 ?__CheckRestSkillCoolTime@CPythonPlayer@@IAE_NK@Z ; CPythonPlayer::__CheckRestSkillCoolTime
  0000b	33 c9		 xor	 ecx, ecx
  0000d	84 c0		 test	 al, al
  0000f	0f 95 c1	 setne	 cl
  00012	8b c1		 mov	 eax, ecx

; 1125 : 		return FALSE;
; 1126 : 
; 1127 : 	return TRUE;
; 1128 : }

  00014	5d		 pop	 ebp
  00015	c2 04 00	 ret	 4
?IsSkillCoolTime@CPythonPlayer@@QAEHK@Z ENDP		; CPythonPlayer::IsSkillCoolTime
_TEXT	ENDS
; Function compile flags: /Ogtp
; File E:\Metin2_server\SolWayneSF v6\ClientVS22\source\UserInterface\PythonPlayer.cpp
;	COMDAT ?IsSkillActive@CPythonPlayer@@QAEHK@Z
_TEXT	SEGMENT
_dwSlotIndex$ = 8					; size = 4
?IsSkillActive@CPythonPlayer@@QAEHK@Z PROC		; CPythonPlayer::IsSkillActive, COMDAT
; _this$ = ecx

; 1131 : {

  00000	55		 push	 ebp
  00001	8b ec		 mov	 ebp, esp

; 1132 : 	if (dwSlotIndex >= SKILL_MAX_NUM)

  00003	8b 45 08	 mov	 eax, DWORD PTR _dwSlotIndex$[ebp]
  00006	3d ff 00 00 00	 cmp	 eax, 255		; 000000ffH
  0000b	72 06		 jb	 SHORT $LN2@IsSkillAct

; 1133 : 		return FALSE;

  0000d	33 c0		 xor	 eax, eax

; 1136 : }

  0000f	5d		 pop	 ebp
  00010	c2 04 00	 ret	 4
$LN2@IsSkillAct:

; 1134 : 
; 1135 : 	return m_playerStatus.aSkill[dwSlotIndex].bActive;

  00013	8d 04 80	 lea	 eax, DWORD PTR [eax+eax*4]
  00016	8b 84 c1 38 fe
	00 00		 mov	 eax, DWORD PTR [ecx+eax*8+65080]

; 1136 : }

  0001d	5d		 pop	 ebp
  0001e	c2 04 00	 ret	 4
?IsSkillActive@CPythonPlayer@@QAEHK@Z ENDP		; CPythonPlayer::IsSkillActive
_TEXT	ENDS
; Function compile flags: /Ogtp
; File E:\Metin2_server\SolWayneSF v6\ClientVS22\source\UserInterface\PythonPlayer.cpp
;	COMDAT ?SetPlayTime@CPythonPlayer@@QAEXK@Z
_TEXT	SEGMENT
_dwPlayTime$ = 8					; size = 4
?SetPlayTime@CPythonPlayer@@QAEXK@Z PROC		; CPythonPlayer::SetPlayTime, COMDAT
; _this$ = ecx

; 1153 : {

  00000	55		 push	 ebp
  00001	8b ec		 mov	 ebp, esp

; 1154 : 	m_dwPlayTime = dwPlayTime;

  00003	8b 45 08	 mov	 eax, DWORD PTR _dwPlayTime$[ebp]
  00006	89 81 a4 2e 01
	00		 mov	 DWORD PTR [ecx+77476], eax

; 1155 : }

  0000c	5d		 pop	 ebp
  0000d	c2 04 00	 ret	 4
?SetPlayTime@CPythonPlayer@@QAEXK@Z ENDP		; CPythonPlayer::SetPlayTime
_TEXT	ENDS
; Function compile flags: /Ogtp
; File E:\Metin2_server\SolWayneSF v6\ClientVS22\source\UserInterface\PythonPlayer.cpp
;	COMDAT ?GetPlayTime@CPythonPlayer@@QAEKXZ
_TEXT	SEGMENT
?GetPlayTime@CPythonPlayer@@QAEKXZ PROC			; CPythonPlayer::GetPlayTime, COMDAT
; _this$ = ecx

; 1159 : 	return m_dwPlayTime;

  00000	8b 81 a4 2e 01
	00		 mov	 eax, DWORD PTR [ecx+77476]

; 1160 : }

  00006	c3		 ret	 0
?GetPlayTime@CPythonPlayer@@QAEKXZ ENDP			; CPythonPlayer::GetPlayTime
_TEXT	ENDS
; Function compile flags: /Ogtp
; File E:\Metin2_server\SolWayneSF v6\ClientVS22\source\UserInterface\PythonPlayer.cpp
;	COMDAT ?SendClickItemPacket@CPythonPlayer@@QAEXK@Z
_TEXT	SEGMENT
_c_szOwnerName$ = -4					; size = 4
tv79 = 8						; size = 4
_pItemData$1 = 8					; size = 4
_dwIID$ = 8						; size = 4
?SendClickItemPacket@CPythonPlayer@@QAEXK@Z PROC	; CPythonPlayer::SendClickItemPacket, COMDAT
; _this$ = ecx

; 1163 : {

  00000	55		 push	 ebp
  00001	8b ec		 mov	 ebp, esp
  00003	51		 push	 ecx
  00004	57		 push	 edi
  00005	8b f9		 mov	 edi, ecx

; 1164 : 	if (IsObserverMode())

  00007	e8 00 00 00 00	 call	 ?IsObserverMode@CPythonPlayer@@QAE_NXZ ; CPythonPlayer::IsObserverMode
  0000c	84 c0		 test	 al, al
  0000e	0f 85 fc 00 00
	00		 jne	 $LN1@SendClickI

; 1165 : 		return;
; 1166 : 		
; 1167 : 	const char * c_szOwnerName;
; 1168 : 	if (!CPythonItem::Instance().GetOwnership(dwIID, &c_szOwnerName))

  00014	8b 0d 00 00 00
	00		 mov	 ecx, DWORD PTR ?ms_singleton@?$CSingleton@VCPythonItem@@@@0PAVCPythonItem@@A ; CSingleton<CPythonItem>::ms_singleton
  0001a	8d 45 fc	 lea	 eax, DWORD PTR _c_szOwnerName$[ebp]
  0001d	56		 push	 esi
  0001e	8b 75 08	 mov	 esi, DWORD PTR _dwIID$[ebp]
  00021	50		 push	 eax
  00022	56		 push	 esi
  00023	e8 00 00 00 00	 call	 ?GetOwnership@CPythonItem@@QAE_NKPAPBD@Z ; CPythonItem::GetOwnership
  00028	84 c0		 test	 al, al
  0002a	0f 84 df 00 00
	00		 je	 $LN15@SendClickI

; 1169 : 		return;
; 1170 : 
; 1171 : 	if (strlen(c_szOwnerName) > 0)

  00030	53		 push	 ebx
  00031	8b 5d fc	 mov	 ebx, DWORD PTR _c_szOwnerName$[ebp]
  00034	8b cb		 mov	 ecx, ebx
  00036	8d 51 01	 lea	 edx, DWORD PTR [ecx+1]
  00039	0f 1f 80 00 00
	00 00		 npad	 7
$LL10@SendClickI:
  00040	8a 01		 mov	 al, BYTE PTR [ecx]
  00042	41		 inc	 ecx
  00043	84 c0		 test	 al, al
  00045	75 f9		 jne	 SHORT $LL10@SendClickI
  00047	2b ca		 sub	 ecx, edx
  00049	0f 84 b3 00 00
	00		 je	 $LN7@SendClickI

; 1172 : 	if (0 != strcmp(c_szOwnerName, GetName()))

  0004f	8b 47 04	 mov	 eax, DWORD PTR [edi+4]
  00052	8d 4f 04	 lea	 ecx, DWORD PTR [edi+4]
  00055	ff 50 14	 call	 DWORD PTR [eax+20]
  00058	8b cb		 mov	 ecx, ebx
  0005a	66 0f 1f 44 00
	00		 npad	 6
$LL11@SendClickI:
  00060	8a 11		 mov	 dl, BYTE PTR [ecx]
  00062	3a 10		 cmp	 dl, BYTE PTR [eax]
  00064	75 1a		 jne	 SHORT $LN12@SendClickI
  00066	84 d2		 test	 dl, dl
  00068	74 12		 je	 SHORT $LN13@SendClickI
  0006a	8a 51 01	 mov	 dl, BYTE PTR [ecx+1]
  0006d	3a 50 01	 cmp	 dl, BYTE PTR [eax+1]
  00070	75 0e		 jne	 SHORT $LN12@SendClickI
  00072	83 c1 02	 add	 ecx, 2
  00075	83 c0 02	 add	 eax, 2
  00078	84 d2		 test	 dl, dl
  0007a	75 e4		 jne	 SHORT $LL11@SendClickI
$LN13@SendClickI:
  0007c	33 c0		 xor	 eax, eax
  0007e	eb 05		 jmp	 SHORT $LN14@SendClickI
$LN12@SendClickI:
  00080	1b c0		 sbb	 eax, eax
  00082	83 c8 01	 or	 eax, 1
$LN14@SendClickI:
  00085	85 c0		 test	 eax, eax
  00087	74 79		 je	 SHORT $LN7@SendClickI

; 1173 : 	{
; 1174 : 		CItemData * pItemData;
; 1175 : 		if (!CItemManager::Instance().GetItemDataPointer(CPythonItem::Instance().GetVirtualNumberOfGroundItem(dwIID), &pItemData))

  00089	8b 0d 00 00 00
	00		 mov	 ecx, DWORD PTR ?ms_singleton@?$CSingleton@VCPythonItem@@@@0PAVCPythonItem@@A ; CSingleton<CPythonItem>::ms_singleton
  0008f	56		 push	 esi
  00090	e8 00 00 00 00	 call	 ?GetVirtualNumberOfGroundItem@CPythonItem@@QAEKK@Z ; CPythonItem::GetVirtualNumberOfGroundItem
  00095	8d 4d 08	 lea	 ecx, DWORD PTR _pItemData$1[ebp]
  00098	51		 push	 ecx
  00099	8b 0d 00 00 00
	00		 mov	 ecx, DWORD PTR ?ms_singleton@?$CSingleton@VCItemManager@@@@0PAVCItemManager@@A ; CSingleton<CItemManager>::ms_singleton
  0009f	50		 push	 eax
  000a0	e8 00 00 00 00	 call	 ?GetItemDataPointer@CItemManager@@QAEHKPAPAVCItemData@@@Z ; CItemManager::GetItemDataPointer
  000a5	85 c0		 test	 eax, eax
  000a7	75 17		 jne	 SHORT $LN6@SendClickI

; 1176 : 		{
; 1177 : 			Tracenf("CPythonPlayer::SendClickItemPacket(dwIID=%d) : Non-exist item.", dwIID);

  000a9	56		 push	 esi
  000aa	68 00 00 00 00	 push	 OFFSET ??_C@_0DP@MLLABPNJ@CPythonPlayer?3?3SendClickItemPac@
  000af	e8 00 00 00 00	 call	 ?Tracenf@@YAXPBDZZ	; Tracenf
  000b4	83 c4 08	 add	 esp, 8
  000b7	5b		 pop	 ebx
  000b8	5e		 pop	 esi
  000b9	5f		 pop	 edi

; 1190 : }

  000ba	8b e5		 mov	 esp, ebp
  000bc	5d		 pop	 ebp
  000bd	c2 04 00	 ret	 4
$LN6@SendClickI:

; 1178 : 			return;
; 1179 : 		}
; 1180 : 		
; 1181 : 		if (!IsPartyMemberByName(c_szOwnerName) || pItemData->IsAntiFlag(CItemData::ITEM_ANTIFLAG_DROP | CItemData::ITEM_ANTIFLAG_GIVE))

  000c0	53		 push	 ebx
  000c1	8b cf		 mov	 ecx, edi
  000c3	e8 00 00 00 00	 call	 ?IsPartyMemberByName@CPythonPlayer@@QAE_NPBD@Z ; CPythonPlayer::IsPartyMemberByName
  000c8	84 c0		 test	 al, al
  000ca	74 11		 je	 SHORT $LN8@SendClickI
  000cc	8b 4d 08	 mov	 ecx, DWORD PTR _pItemData$1[ebp]
  000cf	68 80 20 00 00	 push	 8320			; 00002080H
  000d4	e8 00 00 00 00	 call	 ?IsAntiFlag@CItemData@@QBEHK@Z ; CItemData::IsAntiFlag
  000d9	85 c0		 test	 eax, eax
  000db	74 25		 je	 SHORT $LN7@SendClickI
$LN8@SendClickI:

; 1182 : 		{
; 1183 : 			PyCallClassMemberFunc(m_ppyGameWindow, "OnCannotPickItem", Py_BuildValue("()"));

  000dd	68 00 00 00 00	 push	 OFFSET ??_C@_02HCKGKOFO@?$CI?$CJ@
  000e2	ff 15 00 00 00
	00		 call	 DWORD PTR __imp__Py_BuildValue
  000e8	50		 push	 eax
  000e9	68 00 00 00 00	 push	 OFFSET ??_C@_0BB@DNNBDACF@OnCannotPickItem@
  000ee	ff 77 08	 push	 DWORD PTR [edi+8]
  000f1	e8 00 00 00 00	 call	 ?PyCallClassMemberFunc@@YA_NPAU_object@@PBD0@Z ; PyCallClassMemberFunc
  000f6	83 c4 10	 add	 esp, 16			; 00000010H
  000f9	5b		 pop	 ebx
  000fa	5e		 pop	 esi
  000fb	5f		 pop	 edi

; 1190 : }

  000fc	8b e5		 mov	 esp, ebp
  000fe	5d		 pop	 ebp
  000ff	c2 04 00	 ret	 4
$LN7@SendClickI:

; 1184 : 			return;
; 1185 : 		}
; 1186 : 	}
; 1187 : 
; 1188 : 	CPythonNetworkStream& rkNetStream=CPythonNetworkStream::Instance();
; 1189 : 	rkNetStream.SendItemPickUpPacket(dwIID);

  00102	8b 0d 00 00 00
	00		 mov	 ecx, DWORD PTR ?ms_singleton@?$CSingleton@VCPythonNetworkStream@@@@0PAVCPythonNetworkStream@@A ; CSingleton<CPythonNetworkStream>::ms_singleton
  00108	56		 push	 esi
  00109	e8 00 00 00 00	 call	 ?SendItemPickUpPacket@CPythonNetworkStream@@QAE_NK@Z ; CPythonNetworkStream::SendItemPickUpPacket
  0010e	5b		 pop	 ebx
$LN15@SendClickI:
  0010f	5e		 pop	 esi
$LN1@SendClickI:
  00110	5f		 pop	 edi

; 1190 : }

  00111	8b e5		 mov	 esp, ebp
  00113	5d		 pop	 ebp
  00114	c2 04 00	 ret	 4
?SendClickItemPacket@CPythonPlayer@@QAEXK@Z ENDP	; CPythonPlayer::SendClickItemPacket
_TEXT	ENDS
; Function compile flags: /Ogtp
; File E:\Metin2_server\SolWayneSF v6\ClientVS22\source\UserInterface\PythonPlayer.cpp
;	COMDAT ?__SendClickActorPacket@CPythonPlayer@@IAEXAAVCInstanceBase@@@Z
_TEXT	SEGMENT
_rkInstVictim$ = 8					; size = 4
?__SendClickActorPacket@CPythonPlayer@@IAEXAAVCInstanceBase@@@Z PROC ; CPythonPlayer::__SendClickActorPacket, COMDAT
; _this$ = ecx

; 1193 : {

  00000	55		 push	 ebp
  00001	8b ec		 mov	 ebp, esp
  00003	56		 push	 esi
  00004	8b f1		 mov	 esi, ecx

; 1194 : 	//        
; 1195 : 	CInstanceBase* pkInstMain=NEW_GetMainActorPtr();

  00006	8b 46 04	 mov	 eax, DWORD PTR [esi+4]
  00009	8d 4e 04	 lea	 ecx, DWORD PTR [esi+4]
  0000c	ff 90 88 00 00
	00		 call	 DWORD PTR [eax+136]
  00012	8b d0		 mov	 edx, eax

; 1196 : 	if (pkInstMain)

  00014	85 d2		 test	 edx, edx
  00016	74 43		 je	 SHORT $LN5@SendClickA

; 1197 : 	if (pkInstMain->IsHoldingPickAxe())

  00018	8b ca		 mov	 ecx, edx
  0001a	e8 00 00 00 00	 call	 ?IsHoldingPickAxe@CInstanceBase@@QAEHXZ ; CInstanceBase::IsHoldingPickAxe
  0001f	85 c0		 test	 eax, eax
  00021	74 38		 je	 SHORT $LN5@SendClickA

; 1198 : 	if (pkInstMain->IsMountingHorse())

  00023	8b ca		 mov	 ecx, edx
  00025	e8 00 00 00 00	 call	 ?IsMountingHorse@CInstanceBase@@QAEHXZ ; CInstanceBase::IsMountingHorse
  0002a	85 c0		 test	 eax, eax
  0002c	74 2d		 je	 SHORT $LN5@SendClickA

; 1199 : 	if (rkInstVictim.IsResource())

  0002e	8b 4d 08	 mov	 ecx, DWORD PTR _rkInstVictim$[ebp]
  00031	e8 00 00 00 00	 call	 ?IsResource@CInstanceBase@@QAEHXZ ; CInstanceBase::IsResource
  00036	85 c0		 test	 eax, eax
  00038	74 21		 je	 SHORT $LN5@SendClickA

; 1200 : 	{
; 1201 : 		PyCallClassMemberFunc(m_ppyGameWindow, "OnCannotMining", Py_BuildValue("()"));

  0003a	68 00 00 00 00	 push	 OFFSET ??_C@_02HCKGKOFO@?$CI?$CJ@
  0003f	ff 15 00 00 00
	00		 call	 DWORD PTR __imp__Py_BuildValue
  00045	50		 push	 eax
  00046	68 00 00 00 00	 push	 OFFSET ??_C@_0P@CGBLDLHF@OnCannotMining@
  0004b	ff 76 08	 push	 DWORD PTR [esi+8]
  0004e	e8 00 00 00 00	 call	 ?PyCallClassMemberFunc@@YA_NPAU_object@@PBD0@Z ; PyCallClassMemberFunc
  00053	83 c4 10	 add	 esp, 16			; 00000010H
  00056	5e		 pop	 esi

; 1217 : 	}
; 1218 : }

  00057	5d		 pop	 ebp
  00058	c2 04 00	 ret	 4
$LN5@SendClickA:

; 1202 : 		return;
; 1203 : 	}
; 1204 : 
; 1205 : 	static DWORD s_dwNextTCPTime = 0;
; 1206 : 
; 1207 : 	DWORD dwCurTime=ELTimer_GetMSec();

  0005b	e8 00 00 00 00	 call	 ?ELTimer_GetMSec@@YAKXZ	; ELTimer_GetMSec

; 1208 : 
; 1209 : 	if (dwCurTime >= s_dwNextTCPTime)

  00060	3b 05 00 00 00
	00		 cmp	 eax, DWORD PTR ?s_dwNextTCPTime@?1??__SendClickActorPacket@CPythonPlayer@@IAEXAAVCInstanceBase@@@Z@4KA
  00066	72 20		 jb	 SHORT $LN6@SendClickA

; 1210 : 	{
; 1211 : 		s_dwNextTCPTime=dwCurTime+1000;
; 1212 : 
; 1213 : 		CPythonNetworkStream& rkNetStream=CPythonNetworkStream::Instance();
; 1214 : 
; 1215 : 		DWORD dwVictimVID=rkInstVictim.GetVirtualID();

  00068	8b 4d 08	 mov	 ecx, DWORD PTR _rkInstVictim$[ebp]
  0006b	05 e8 03 00 00	 add	 eax, 1000		; 000003e8H
  00070	8b 35 00 00 00
	00		 mov	 esi, DWORD PTR ?ms_singleton@?$CSingleton@VCPythonNetworkStream@@@@0PAVCPythonNetworkStream@@A ; CSingleton<CPythonNetworkStream>::ms_singleton
  00076	a3 00 00 00 00	 mov	 DWORD PTR ?s_dwNextTCPTime@?1??__SendClickActorPacket@CPythonPlayer@@IAEXAAVCInstanceBase@@@Z@4KA, eax
  0007b	e8 00 00 00 00	 call	 ?GetVirtualID@CInstanceBase@@QAEKXZ ; CInstanceBase::GetVirtualID

; 1216 : 		rkNetStream.SendOnClickPacket(dwVictimVID);

  00080	50		 push	 eax
  00081	8b ce		 mov	 ecx, esi
  00083	e8 00 00 00 00	 call	 ?SendOnClickPacket@CPythonNetworkStream@@QAE_NK@Z ; CPythonNetworkStream::SendOnClickPacket
$LN6@SendClickA:
  00088	5e		 pop	 esi

; 1217 : 	}
; 1218 : }

  00089	5d		 pop	 ebp
  0008a	c2 04 00	 ret	 4
?__SendClickActorPacket@CPythonPlayer@@IAEXAAVCInstanceBase@@@Z ENDP ; CPythonPlayer::__SendClickActorPacket
_TEXT	ENDS
; Function compile flags: /Ogtp
; File E:\Metin2_server\SolWayneSF v6\ClientVS22\source\UserInterface\PythonPlayer.cpp
;	COMDAT ?ActEmotion@CPythonPlayer@@QAEXK@Z
_TEXT	SEGMENT
_dwEmotionID$dead$ = 8					; size = 4
?ActEmotion@CPythonPlayer@@QAEXK@Z PROC			; CPythonPlayer::ActEmotion, COMDAT
; _this$ = ecx

; 1221 : {

  00000	56		 push	 esi
  00001	8b f1		 mov	 esi, ecx

; 1222 : 	CInstanceBase * pkInstTarget = __GetAliveTargetInstancePtr();

  00003	e8 00 00 00 00	 call	 ?__GetAliveTargetInstancePtr@CPythonPlayer@@IAEPAVCInstanceBase@@XZ ; CPythonPlayer::__GetAliveTargetInstancePtr

; 1223 : 	if (!pkInstTarget)

  00008	85 c0		 test	 eax, eax
  0000a	75 2f		 jne	 SHORT $LN2@ActEmotion

; 1224 : 	{
; 1225 : 		PyCallClassMemberFunc(m_ppyGameWindow, "OnCannotShotError", Py_BuildValue("(is)", GetMainCharacterIndex(), "NEED_TARGET"));

  0000c	8b 46 04	 mov	 eax, DWORD PTR [esi+4]
  0000f	8d 4e 04	 lea	 ecx, DWORD PTR [esi+4]
  00012	68 00 00 00 00	 push	 OFFSET ??_C@_0M@HCIEKIGP@NEED_TARGET@
  00017	ff 50 04	 call	 DWORD PTR [eax+4]
  0001a	50		 push	 eax
  0001b	68 00 00 00 00	 push	 OFFSET ??_C@_04JMLDJNEM@?$CIis?$CJ@
  00020	ff 15 00 00 00
	00		 call	 DWORD PTR __imp__Py_BuildValue
  00026	50		 push	 eax
  00027	68 00 00 00 00	 push	 OFFSET ??_C@_0BC@FKINMGLI@OnCannotShotError@
  0002c	ff 76 08	 push	 DWORD PTR [esi+8]
  0002f	e8 00 00 00 00	 call	 ?PyCallClassMemberFunc@@YA_NPAU_object@@PBD0@Z ; PyCallClassMemberFunc
  00034	83 c4 18	 add	 esp, 24			; 00000018H
  00037	5e		 pop	 esi

; 1230 : }

  00038	c2 04 00	 ret	 4
$LN2@ActEmotion:

; 1226 : 		return;
; 1227 : 	}
; 1228 : 
; 1229 : 	CPythonNetworkStream::Instance().SendChatPacket(_getf("/kiss %s", pkInstTarget->GetNameString()));

  0003b	8b 35 00 00 00
	00		 mov	 esi, DWORD PTR ?ms_singleton@?$CSingleton@VCPythonNetworkStream@@@@0PAVCPythonNetworkStream@@A ; CSingleton<CPythonNetworkStream>::ms_singleton
  00041	8b c8		 mov	 ecx, eax
  00043	e8 00 00 00 00	 call	 ?GetNameString@CInstanceBase@@QAEPBDXZ ; CInstanceBase::GetNameString
  00048	50		 push	 eax
  00049	68 00 00 00 00	 push	 OFFSET ??_C@_08HOHDPHII@?1kiss?5?$CFs@
  0004e	e8 00 00 00 00	 call	 ?_getf@@YAPBDPBDZZ	; _getf
  00053	83 c4 08	 add	 esp, 8
  00056	8b ce		 mov	 ecx, esi
  00058	6a 00		 push	 0
  0005a	50		 push	 eax
  0005b	e8 00 00 00 00	 call	 ?SendChatPacket@CPythonNetworkStream@@QAE_NPBDE@Z ; CPythonNetworkStream::SendChatPacket
  00060	5e		 pop	 esi

; 1230 : }

  00061	c2 04 00	 ret	 4
?ActEmotion@CPythonPlayer@@QAEXK@Z ENDP			; CPythonPlayer::ActEmotion
_TEXT	ENDS
; Function compile flags: /Ogtp
; File E:\Metin2_server\SolWayneSF v6\ClientVS22\source\UserInterface\PythonPlayer.cpp
;	COMDAT ?StartEmotionProcess@CPythonPlayer@@UAEXXZ
_TEXT	SEGMENT
?StartEmotionProcess@CPythonPlayer@@UAEXXZ PROC		; CPythonPlayer::StartEmotionProcess, COMDAT
; _this$ = ecx

; 1233 : {

  00000	8b d1		 mov	 edx, ecx

; 1234 : 	__ClearReservedAction();

  00002	8d 4a fc	 lea	 ecx, DWORD PTR [edx-4]
  00005	e8 00 00 00 00	 call	 ?__ClearReservedAction@CPythonPlayer@@IAEXXZ ; CPythonPlayer::__ClearReservedAction

; 1235 : 	__ClearAutoAttackTargetActorID();

  0000a	e8 00 00 00 00	 call	 ?__ClearAutoAttackTargetActorID@CPythonPlayer@@IAEXXZ ; CPythonPlayer::__ClearAutoAttackTargetActorID

; 1236 : 
; 1237 : 	m_bisProcessingEmotion = TRUE;

  0000f	c7 82 1c 2e 01
	00 01 00 00 00	 mov	 DWORD PTR [edx+77340], 1

; 1238 : }

  00019	c3		 ret	 0
?StartEmotionProcess@CPythonPlayer@@UAEXXZ ENDP		; CPythonPlayer::StartEmotionProcess
_TEXT	ENDS
; Function compile flags: /Ogtp
; File E:\Metin2_server\SolWayneSF v6\ClientVS22\source\UserInterface\PythonPlayer.cpp
;	COMDAT ?EndEmotionProcess@CPythonPlayer@@UAEXXZ
_TEXT	SEGMENT
?EndEmotionProcess@CPythonPlayer@@UAEXXZ PROC		; CPythonPlayer::EndEmotionProcess, COMDAT
; _this$ = ecx

; 1242 : 	m_bisProcessingEmotion = FALSE;

  00000	c7 81 1c 2e 01
	00 00 00 00 00	 mov	 DWORD PTR [ecx+77340], 0

; 1243 : }

  0000a	c3		 ret	 0
?EndEmotionProcess@CPythonPlayer@@UAEXXZ ENDP		; CPythonPlayer::EndEmotionProcess
_TEXT	ENDS
; Function compile flags: /Ogtp
; File E:\Metin2_server\SolWayneSF v6\ClientVS22\source\UserInterface\PythonPlayer.cpp
;	COMDAT ?__IsProcessingEmotion@CPythonPlayer@@IAEHXZ
_TEXT	SEGMENT
?__IsProcessingEmotion@CPythonPlayer@@IAEHXZ PROC	; CPythonPlayer::__IsProcessingEmotion, COMDAT
; _this$ = ecx

; 1247 : 	return m_bisProcessingEmotion;

  00000	8b 81 20 2e 01
	00		 mov	 eax, DWORD PTR [ecx+77344]

; 1248 : }

  00006	c3		 ret	 0
?__IsProcessingEmotion@CPythonPlayer@@IAEHXZ ENDP	; CPythonPlayer::__IsProcessingEmotion
_TEXT	ENDS
; Function compile flags: /Ogtp
; File E:\Metin2_server\SolWayneSF v6\ClientVS22\source\UserInterface\PythonPlayer.cpp
; File C:\Program Files\Microsoft Visual Studio\2022\Community\VC\Tools\MSVC\14.34.31933\include\cmath
; File E:\Metin2_server\SolWayneSF v6\ClientVS22\source\UserInterface\PythonPlayer.cpp
; File C:\Program Files\Microsoft Visual Studio\2022\Community\VC\Tools\MSVC\14.34.31933\include\cmath
; File E:\Metin2_server\SolWayneSF v6\ClientVS22\source\UserInterface\PythonPlayer.cpp
; File E:\Metin2_server\SolWayneSF v6\ClientVS22\extern\include\d3dx8math.inl
; File E:\Metin2_server\SolWayneSF v6\ClientVS22\source\UserInterface\PythonPlayer.cpp
; File E:\Metin2_server\SolWayneSF v6\ClientVS22\extern\include\d3dx8math.inl
; File E:\Metin2_server\SolWayneSF v6\ClientVS22\source\UserInterface\PythonPlayer.cpp
;	COMDAT ?AlarmHaveToGo@CPythonPlayer@@QAEXXZ
_TEXT	SEGMENT
tv213 = -32						; size = 4
_v3Rotation$ = -28					; size = 12
_PixelPosition$ = -16					; size = 12
__$ArrayPad$ = -4					; size = 4
?AlarmHaveToGo@CPythonPlayer@@QAEXXZ PROC		; CPythonPlayer::AlarmHaveToGo, COMDAT
; _this$ = ecx

; 1261 : {

  00000	55		 push	 ebp
  00001	8b ec		 mov	 ebp, esp
  00003	83 ec 24	 sub	 esp, 36			; 00000024H
  00006	a1 00 00 00 00	 mov	 eax, DWORD PTR ___security_cookie
  0000b	33 c5		 xor	 eax, ebp
  0000d	89 45 fc	 mov	 DWORD PTR __$ArrayPad$[ebp], eax
  00010	56		 push	 esi
  00011	8b f1		 mov	 esi, ecx

; 1262 : 	m_iLastAlarmTime = CTimer::Instance().GetCurrentMillisecond();

  00013	8b 0d 00 00 00
	00		 mov	 ecx, DWORD PTR ?ms_singleton@?$CSingleton@VCTimer@@@@0PAVCTimer@@A ; CSingleton<CTimer>::ms_singleton
  00019	e8 00 00 00 00	 call	 ?GetCurrentMillisecond@CTimer@@QAEKXZ ; CTimer::GetCurrentMillisecond

; 1263 : 
; 1264 : 	/////
; 1265 : 
; 1266 : 	CInstanceBase * pInstance = NEW_GetMainActorPtr();

  0001e	8d 4e 04	 lea	 ecx, DWORD PTR [esi+4]
  00021	89 86 30 2e 01
	00		 mov	 DWORD PTR [esi+77360], eax
  00027	8b 01		 mov	 eax, DWORD PTR [ecx]
  00029	ff 90 88 00 00
	00		 call	 DWORD PTR [eax+136]

; 1267 : 	if (!pInstance)

  0002f	85 c0		 test	 eax, eax
  00031	0f 84 b9 00 00
	00		 je	 $LN1@AlarmHaveT

; 1268 : 		return;
; 1269 : 
; 1270 : 	TPixelPosition PixelPosition;
; 1271 : 	pInstance->NEW_GetPixelPosition(&PixelPosition);

  00037	8d 4d f0	 lea	 ecx, DWORD PTR _PixelPosition$[ebp]
  0003a	51		 push	 ecx
  0003b	8b c8		 mov	 ecx, eax
  0003d	e8 00 00 00 00	 call	 ?NEW_GetPixelPosition@CInstanceBase@@QAEXPAUD3DXVECTOR3@@@Z ; CInstanceBase::NEW_GetPixelPosition
  00042	66 0f 6e 86 2c
	2e 01 00	 movd	 xmm0, DWORD PTR [esi+77356]

; 1272 : 
; 1273 : 	float fAngle = GetDegreeFromPosition2(PixelPosition.x, PixelPosition.y, float(m_ixDestPos), float(m_iyDestPos));

  0004a	83 ec 10	 sub	 esp, 16			; 00000010H
  0004d	0f 5b c0	 cvtdq2ps xmm0, xmm0
  00050	f3 0f 11 44 24
	0c		 movss	 DWORD PTR [esp+12], xmm0
  00056	66 0f 6e 86 28
	2e 01 00	 movd	 xmm0, DWORD PTR [esi+77352]
  0005e	0f 5b c0	 cvtdq2ps xmm0, xmm0
  00061	f3 0f 11 44 24
	08		 movss	 DWORD PTR [esp+8], xmm0
  00067	f3 0f 10 45 f4	 movss	 xmm0, DWORD PTR _PixelPosition$[ebp+4]
  0006c	f3 0f 11 44 24
	04		 movss	 DWORD PTR [esp+4], xmm0
  00072	f3 0f 10 45 f0	 movss	 xmm0, DWORD PTR _PixelPosition$[ebp]
  00077	f3 0f 11 04 24	 movss	 DWORD PTR [esp], xmm0
  0007c	e8 00 00 00 00	 call	 ?GetDegreeFromPosition2@@YAMMMMM@Z ; GetDegreeFromPosition2

; 1274 : 	fAngle = fmod(540.0f - fAngle, 360.0f);

  00081	d8 2d 00 00 00
	00		 fsubr	 DWORD PTR __real@44070000
  00087	83 c4 10	 add	 esp, 16			; 00000010H
; File C:\Program Files\Microsoft Visual Studio\2022\Community\VC\Tools\MSVC\14.34.31933\include\cmath

; 147  :     return _CSTD fmodf(_Xx, _Yx);

  0008a	f3 0f 10 0d 00
	00 00 00	 movss	 xmm1, DWORD PTR __real@43b40000
; File E:\Metin2_server\SolWayneSF v6\ClientVS22\source\UserInterface\PythonPlayer.cpp

; 1274 : 	fAngle = fmod(540.0f - fAngle, 360.0f);

  00092	d9 5d e0	 fstp	 DWORD PTR tv213[ebp]
; File C:\Program Files\Microsoft Visual Studio\2022\Community\VC\Tools\MSVC\14.34.31933\include\cmath

; 147  :     return _CSTD fmodf(_Xx, _Yx);

  00095	f3 0f 10 45 e0	 movss	 xmm0, DWORD PTR tv213[ebp]
  0009a	e8 00 00 00 00	 call	 _fmodf
; File E:\Metin2_server\SolWayneSF v6\ClientVS22\source\UserInterface\PythonPlayer.cpp

; 1279 : 	CEffectManager::Instance().RegisterEffect("d:/ymir work/effect/etc/compass/appear_middle.mse");

  0009f	8b 0d 00 00 00
	00		 mov	 ecx, DWORD PTR ?ms_singleton@?$CSingleton@VCEffectManager@@@@0PAVCEffectManager@@A ; CSingleton<CEffectManager>::ms_singleton
; File E:\Metin2_server\SolWayneSF v6\ClientVS22\extern\include\d3dx8math.inl

; 182  :     z = fz;

  000a5	f3 0f 11 45 ec	 movss	 DWORD PTR _v3Rotation$[ebp+8], xmm0
; File E:\Metin2_server\SolWayneSF v6\ClientVS22\source\UserInterface\PythonPlayer.cpp

; 1277 : 	PixelPosition.y *= -1.0f;

  000aa	f3 0f 10 45 f4	 movss	 xmm0, DWORD PTR _PixelPosition$[ebp+4]
  000af	f3 0f 59 05 00
	00 00 00	 mulss	 xmm0, DWORD PTR __real@bf800000

; 1279 : 	CEffectManager::Instance().RegisterEffect("d:/ymir work/effect/etc/compass/appear_middle.mse");

  000b7	6a 00		 push	 0
  000b9	6a 00		 push	 0
  000bb	68 00 00 00 00	 push	 OFFSET ??_C@_0DC@MDCBLGBM@d?3?1ymir?5work?1effect?1etc?1compass@
; File E:\Metin2_server\SolWayneSF v6\ClientVS22\extern\include\d3dx8math.inl

; 180  :     x = fx;

  000c0	c7 45 e4 00 00
	00 00		 mov	 DWORD PTR _v3Rotation$[ebp], 0

; 181  :     y = fy;

  000c7	c7 45 e8 00 00
	00 00		 mov	 DWORD PTR _v3Rotation$[ebp+4], 0
; File E:\Metin2_server\SolWayneSF v6\ClientVS22\source\UserInterface\PythonPlayer.cpp

; 1277 : 	PixelPosition.y *= -1.0f;

  000ce	f3 0f 11 45 f4	 movss	 DWORD PTR _PixelPosition$[ebp+4], xmm0

; 1279 : 	CEffectManager::Instance().RegisterEffect("d:/ymir work/effect/etc/compass/appear_middle.mse");

  000d3	e8 00 00 00 00	 call	 ?RegisterEffect@CEffectManager@@QAEHPBD_N1@Z ; CEffectManager::RegisterEffect

; 1280 : 	CEffectManager::Instance().CreateEffect("d:/ymir work/effect/etc/compass/appear_middle.mse", PixelPosition, v3Rotation);

  000d8	8b 0d 00 00 00
	00		 mov	 ecx, DWORD PTR ?ms_singleton@?$CSingleton@VCEffectManager@@@@0PAVCEffectManager@@A ; CSingleton<CEffectManager>::ms_singleton
  000de	8d 45 e4	 lea	 eax, DWORD PTR _v3Rotation$[ebp]
  000e1	50		 push	 eax
  000e2	8d 45 f0	 lea	 eax, DWORD PTR _PixelPosition$[ebp]
  000e5	50		 push	 eax
  000e6	68 00 00 00 00	 push	 OFFSET ??_C@_0DC@MDCBLGBM@d?3?1ymir?5work?1effect?1etc?1compass@
  000eb	e8 00 00 00 00	 call	 ?CreateEffect@CEffectManager@@QAEHPBDABUD3DXVECTOR3@@1@Z ; CEffectManager::CreateEffect
$LN1@AlarmHaveT:

; 1281 : }

  000f0	8b 4d fc	 mov	 ecx, DWORD PTR __$ArrayPad$[ebp]
  000f3	33 cd		 xor	 ecx, ebp
  000f5	5e		 pop	 esi
  000f6	e8 00 00 00 00	 call	 @__security_check_cookie@4
  000fb	8b e5		 mov	 esp, ebp
  000fd	5d		 pop	 ebp
  000fe	c3		 ret	 0
?AlarmHaveToGo@CPythonPlayer@@QAEXXZ ENDP		; CPythonPlayer::AlarmHaveToGo
_TEXT	ENDS
; Function compile flags: /Ogtp
; File E:\Metin2_server\SolWayneSF v6\ClientVS22\source\UserInterface\PythonPlayer.cpp
; File C:\Program Files\Microsoft Visual Studio\2022\Community\VC\Tools\MSVC\14.34.31933\include\xtree
; File E:\Metin2_server\SolWayneSF v6\ClientVS22\source\UserInterface\PythonPlayer.cpp
; File C:\Program Files\Microsoft Visual Studio\2022\Community\VC\Tools\MSVC\14.34.31933\include\xtree
; File E:\Metin2_server\SolWayneSF v6\ClientVS22\source\UserInterface\PythonPlayer.cpp
; File C:\Program Files\Microsoft Visual Studio\2022\Community\VC\Tools\MSVC\14.34.31933\include\xtree
; File E:\Metin2_server\SolWayneSF v6\ClientVS22\source\UserInterface\PythonPlayer.cpp
;	COMDAT ?ExitParty@CPythonPlayer@@QAEXXZ
_TEXT	SEGMENT
?ExitParty@CPythonPlayer@@QAEXXZ PROC			; CPythonPlayer::ExitParty, COMDAT
; _this$ = ecx

; 1285 : {

  00000	56		 push	 esi
; File C:\Program Files\Microsoft Visual Studio\2022\Community\VC\Tools\MSVC\14.34.31933\include\xtree

; 1356 :         auto _Head = _Scary->_Myhead;

  00001	8b b1 34 2e 01
	00		 mov	 esi, DWORD PTR [ecx+77364]
; File E:\Metin2_server\SolWayneSF v6\ClientVS22\source\UserInterface\PythonPlayer.cpp

; 1285 : {

  00007	57		 push	 edi

; 1286 : 	m_PartyMemberMap.clear();

  00008	8d b9 34 2e 01
	00		 lea	 edi, DWORD PTR [ecx+77364]
; File C:\Program Files\Microsoft Visual Studio\2022\Community\VC\Tools\MSVC\14.34.31933\include\xtree

; 1357 :         _Scary->_Erase_tree(_Getal(), _Head->_Parent);

  0000e	8b cf		 mov	 ecx, edi
  00010	ff 76 04	 push	 DWORD PTR [esi+4]
  00013	57		 push	 edi
  00014	e8 00 00 00 00	 call	 ??$_Erase_tree@V?$allocator@U?$_Tree_node@U?$pair@$$CBKUSPartyMemberInfo@CPythonPlayer@@@std@@PAX@std@@@std@@@?$_Tree_val@U?$_Tree_simple_types@U?$pair@$$CBKUSPartyMemberInfo@CPythonPlayer@@@std@@@std@@@std@@QAEXAAV?$allocator@U?$_Tree_node@U?$pair@$$CBKUSPartyMemberInfo@CPythonPlayer@@@std@@PAX@std@@@1@PAU?$_Tree_node@U?$pair@$$CBKUSPartyMemberInfo@CPythonPlayer@@@std@@PAX@1@@Z ; std::_Tree_val<std::_Tree_simple_types<std::pair<unsigned long const ,CPythonPlayer::SPartyMemberInfo> > >::_Erase_tree<std::allocator<std::_Tree_node<std::pair<unsigned long const ,CPythonPlayer::SPartyMemberInfo>,void *> > >
; File E:\Metin2_server\SolWayneSF v6\ClientVS22\source\UserInterface\PythonPlayer.cpp

; 1288 : 	CPythonCharacterManager::Instance().RefreshAllPCTextTail();

  00019	8b 0d 00 00 00
	00		 mov	 ecx, DWORD PTR ?ms_singleton@?$CSingleton@VCPythonCharacterManager@@@@0PAVCPythonCharacterManager@@A ; CSingleton<CPythonCharacterManager>::ms_singleton
; File C:\Program Files\Microsoft Visual Studio\2022\Community\VC\Tools\MSVC\14.34.31933\include\xtree

; 1358 :         _Head->_Parent  = _Head;

  0001f	89 76 04	 mov	 DWORD PTR [esi+4], esi

; 1359 :         _Head->_Left    = _Head;

  00022	89 36		 mov	 DWORD PTR [esi], esi

; 1360 :         _Head->_Right   = _Head;

  00024	89 76 08	 mov	 DWORD PTR [esi+8], esi

; 1361 :         _Scary->_Mysize = 0;

  00027	c7 47 04 00 00
	00 00		 mov	 DWORD PTR [edi+4], 0
; File E:\Metin2_server\SolWayneSF v6\ClientVS22\source\UserInterface\PythonPlayer.cpp

; 1288 : 	CPythonCharacterManager::Instance().RefreshAllPCTextTail();

  0002e	5f		 pop	 edi
  0002f	5e		 pop	 esi
  00030	e9 00 00 00 00	 jmp	 ?RefreshAllPCTextTail@CPythonCharacterManager@@QAEXXZ ; CPythonCharacterManager::RefreshAllPCTextTail
?ExitParty@CPythonPlayer@@QAEXXZ ENDP			; CPythonPlayer::ExitParty
_TEXT	ENDS
; Function compile flags: /Ogtp
; File C:\Program Files\Microsoft Visual Studio\2022\Community\VC\Tools\MSVC\14.34.31933\include\xstring
; File C:\Program Files\Microsoft Visual Studio\2022\Community\VC\Tools\MSVC\14.34.31933\include\xmemory
; File C:\Program Files\Microsoft Visual Studio\2022\Community\VC\Tools\MSVC\14.34.31933\include\xstring
; File C:\Program Files\Microsoft Visual Studio\2022\Community\VC\Tools\MSVC\14.34.31933\include\xmemory
; File C:\Program Files\Microsoft Visual Studio\2022\Community\VC\Tools\MSVC\14.34.31933\include\xstring
; File C:\Program Files\Microsoft Visual Studio\2022\Community\VC\Tools\MSVC\14.34.31933\include\xmemory
;	COMDAT ??1SPartyMemberInfo@CPythonPlayer@@QAE@XZ
_TEXT	SEGMENT
??1SPartyMemberInfo@CPythonPlayer@@QAE@XZ PROC		; CPythonPlayer::SPartyMemberInfo::~SPartyMemberInfo, COMDAT
; _this$ = ecx
; File C:\Program Files\Microsoft Visual Studio\2022\Community\VC\Tools\MSVC\14.34.31933\include\xstring

; 2301 :         return _BUF_SIZE <= _Myres;

  00000	56		 push	 esi
  00001	8b f1		 mov	 esi, ecx
  00003	8b 4e 1c	 mov	 ecx, DWORD PTR [esi+28]
  00006	83 f9 10	 cmp	 ecx, 16			; 00000010H

; 5008 :         if (_My_data._Large_string_engaged()) {

  00009	72 28		 jb	 SHORT $LN15@SPartyMemb
; File C:\Program Files\Microsoft Visual Studio\2022\Community\VC\Tools\MSVC\14.34.31933\include\xmemory

; 830  :         _Deallocate<_New_alignof<_Ty>>(_Ptr, sizeof(_Ty) * _Count);

  0000b	8b 46 08	 mov	 eax, DWORD PTR [esi+8]
; File C:\Program Files\Microsoft Visual Studio\2022\Community\VC\Tools\MSVC\14.34.31933\include\xstring

; 5013 :             _Al.deallocate(_Ptr, _My_data._Myres + 1);

  0000e	41		 inc	 ecx
; File C:\Program Files\Microsoft Visual Studio\2022\Community\VC\Tools\MSVC\14.34.31933\include\xmemory

; 251  :         if (_Bytes >= _Big_allocation_threshold) { // boost the alignment of big allocations to help autovectorization

  0000f	81 f9 00 10 00
	00		 cmp	 ecx, 4096		; 00001000H
  00015	72 12		 jb	 SHORT $LN27@SPartyMemb

; 150  :     const uintptr_t _Ptr_container   = _Ptr_user[-1];

  00017	8b 50 fc	 mov	 edx, DWORD PTR [eax-4]
  0001a	83 c1 23	 add	 ecx, 35			; 00000023H

; 151  : 
; 152  :     // If the following asserts, it likely means that we are performing
; 153  :     // an aligned delete on memory coming from an unaligned allocation.
; 154  :     _STL_ASSERT(_Ptr_user[-2] == _Big_allocation_sentinel, "invalid argument");
; 155  : 
; 156  :     // Extra paranoia on aligned allocation/deallocation; ensure _Ptr_container is
; 157  :     // in range [_Min_back_shift, _Non_user_size]
; 158  : #ifdef _DEBUG
; 159  :     constexpr uintptr_t _Min_back_shift = 2 * sizeof(void*);
; 160  : #else // ^^^ _DEBUG ^^^ // vvv !_DEBUG vvv
; 161  :     constexpr uintptr_t _Min_back_shift = sizeof(void*);
; 162  : #endif // _DEBUG
; 163  :     const uintptr_t _Back_shift = reinterpret_cast<uintptr_t>(_Ptr) - _Ptr_container;

  0001d	2b c2		 sub	 eax, edx

; 164  :     _STL_VERIFY(_Back_shift >= _Min_back_shift && _Back_shift <= _Non_user_size, "invalid argument");

  0001f	83 c0 fc	 add	 eax, -4			; fffffffcH
  00022	83 f8 1f	 cmp	 eax, 31			; 0000001fH
  00025	77 20		 ja	 SHORT $LN24@SPartyMemb

; 165  :     _Ptr = reinterpret_cast<void*>(_Ptr_container);

  00027	8b c2		 mov	 eax, edx
$LN27@SPartyMemb:

; 255  :         ::operator delete(_Ptr, _Bytes);

  00029	51		 push	 ecx
  0002a	50		 push	 eax
  0002b	e8 00 00 00 00	 call	 ??3@YAXPAXI@Z		; operator delete
  00030	83 c4 08	 add	 esp, 8
$LN15@SPartyMemb:
; File C:\Program Files\Microsoft Visual Studio\2022\Community\VC\Tools\MSVC\14.34.31933\include\xstring

; 5016 :         _My_data._Mysize = 0;

  00033	c7 46 18 00 00
	00 00		 mov	 DWORD PTR [esi+24], 0

; 5017 :         _My_data._Myres  = _BUF_SIZE - 1;

  0003a	c7 46 1c 0f 00
	00 00		 mov	 DWORD PTR [esi+28], 15	; 0000000fH

; 5018 :         // the _Traits::assign is last so the codegen doesn't think the char write can alias this
; 5019 :         _Traits::assign(_My_data._Bx._Buf[0], _Elem());

  00041	c6 46 08 00	 mov	 BYTE PTR [esi+8], 0
  00045	5e		 pop	 esi
  00046	c3		 ret	 0
$LN24@SPartyMemb:
; File C:\Program Files\Microsoft Visual Studio\2022\Community\VC\Tools\MSVC\14.34.31933\include\xmemory

; 164  :     _STL_VERIFY(_Back_shift >= _Min_back_shift && _Back_shift <= _Non_user_size, "invalid argument");

  00047	e8 00 00 00 00	 call	 __invalid_parameter_noinfo_noreturn
$LN33@SPartyMemb:
  0004c	cc		 int	 3
??1SPartyMemberInfo@CPythonPlayer@@QAE@XZ ENDP		; CPythonPlayer::SPartyMemberInfo::~SPartyMemberInfo
_TEXT	ENDS
; Function compile flags: /Ogtp
; File C:\Program Files\Microsoft Visual Studio\2022\Community\VC\Tools\MSVC\14.34.31933\include\xstring
; File C:\Program Files\Microsoft Visual Studio\2022\Community\VC\Tools\MSVC\14.34.31933\include\xmemory
; File C:\Program Files\Microsoft Visual Studio\2022\Community\VC\Tools\MSVC\14.34.31933\include\xstring
; File C:\Program Files\Microsoft Visual Studio\2022\Community\VC\Tools\MSVC\14.34.31933\include\xmemory
; File C:\Program Files\Microsoft Visual Studio\2022\Community\VC\Tools\MSVC\14.34.31933\include\xstring
; File C:\Program Files\Microsoft Visual Studio\2022\Community\VC\Tools\MSVC\14.34.31933\include\xmemory
;	COMDAT ??1?$pair@KUSPartyMemberInfo@CPythonPlayer@@@std@@QAE@XZ
_TEXT	SEGMENT
??1?$pair@KUSPartyMemberInfo@CPythonPlayer@@@std@@QAE@XZ PROC ; std::pair<unsigned long,CPythonPlayer::SPartyMemberInfo>::~pair<unsigned long,CPythonPlayer::SPartyMemberInfo>, COMDAT
; _this$ = ecx
; File C:\Program Files\Microsoft Visual Studio\2022\Community\VC\Tools\MSVC\14.34.31933\include\xstring

; 2301 :         return _BUF_SIZE <= _Myres;

  00000	56		 push	 esi
  00001	8b f1		 mov	 esi, ecx
  00003	8b 4e 20	 mov	 ecx, DWORD PTR [esi+32]
  00006	83 f9 10	 cmp	 ecx, 16			; 00000010H

; 5008 :         if (_My_data._Large_string_engaged()) {

  00009	72 28		 jb	 SHORT $LN18@pair
; File C:\Program Files\Microsoft Visual Studio\2022\Community\VC\Tools\MSVC\14.34.31933\include\xmemory

; 830  :         _Deallocate<_New_alignof<_Ty>>(_Ptr, sizeof(_Ty) * _Count);

  0000b	8b 46 0c	 mov	 eax, DWORD PTR [esi+12]
; File C:\Program Files\Microsoft Visual Studio\2022\Community\VC\Tools\MSVC\14.34.31933\include\xstring

; 5013 :             _Al.deallocate(_Ptr, _My_data._Myres + 1);

  0000e	41		 inc	 ecx
; File C:\Program Files\Microsoft Visual Studio\2022\Community\VC\Tools\MSVC\14.34.31933\include\xmemory

; 251  :         if (_Bytes >= _Big_allocation_threshold) { // boost the alignment of big allocations to help autovectorization

  0000f	81 f9 00 10 00
	00		 cmp	 ecx, 4096		; 00001000H
  00015	72 12		 jb	 SHORT $LN30@pair

; 150  :     const uintptr_t _Ptr_container   = _Ptr_user[-1];

  00017	8b 50 fc	 mov	 edx, DWORD PTR [eax-4]
  0001a	83 c1 23	 add	 ecx, 35			; 00000023H

; 151  : 
; 152  :     // If the following asserts, it likely means that we are performing
; 153  :     // an aligned delete on memory coming from an unaligned allocation.
; 154  :     _STL_ASSERT(_Ptr_user[-2] == _Big_allocation_sentinel, "invalid argument");
; 155  : 
; 156  :     // Extra paranoia on aligned allocation/deallocation; ensure _Ptr_container is
; 157  :     // in range [_Min_back_shift, _Non_user_size]
; 158  : #ifdef _DEBUG
; 159  :     constexpr uintptr_t _Min_back_shift = 2 * sizeof(void*);
; 160  : #else // ^^^ _DEBUG ^^^ // vvv !_DEBUG vvv
; 161  :     constexpr uintptr_t _Min_back_shift = sizeof(void*);
; 162  : #endif // _DEBUG
; 163  :     const uintptr_t _Back_shift = reinterpret_cast<uintptr_t>(_Ptr) - _Ptr_container;

  0001d	2b c2		 sub	 eax, edx

; 164  :     _STL_VERIFY(_Back_shift >= _Min_back_shift && _Back_shift <= _Non_user_size, "invalid argument");

  0001f	83 c0 fc	 add	 eax, -4			; fffffffcH
  00022	83 f8 1f	 cmp	 eax, 31			; 0000001fH
  00025	77 20		 ja	 SHORT $LN27@pair

; 165  :     _Ptr = reinterpret_cast<void*>(_Ptr_container);

  00027	8b c2		 mov	 eax, edx
$LN30@pair:

; 255  :         ::operator delete(_Ptr, _Bytes);

  00029	51		 push	 ecx
  0002a	50		 push	 eax
  0002b	e8 00 00 00 00	 call	 ??3@YAXPAXI@Z		; operator delete
  00030	83 c4 08	 add	 esp, 8
$LN18@pair:
; File C:\Program Files\Microsoft Visual Studio\2022\Community\VC\Tools\MSVC\14.34.31933\include\xstring

; 5016 :         _My_data._Mysize = 0;

  00033	c7 46 1c 00 00
	00 00		 mov	 DWORD PTR [esi+28], 0

; 5017 :         _My_data._Myres  = _BUF_SIZE - 1;

  0003a	c7 46 20 0f 00
	00 00		 mov	 DWORD PTR [esi+32], 15	; 0000000fH

; 5018 :         // the _Traits::assign is last so the codegen doesn't think the char write can alias this
; 5019 :         _Traits::assign(_My_data._Bx._Buf[0], _Elem());

  00041	c6 46 0c 00	 mov	 BYTE PTR [esi+12], 0
  00045	5e		 pop	 esi
  00046	c3		 ret	 0
$LN27@pair:
; File C:\Program Files\Microsoft Visual Studio\2022\Community\VC\Tools\MSVC\14.34.31933\include\xmemory

; 164  :     _STL_VERIFY(_Back_shift >= _Min_back_shift && _Back_shift <= _Non_user_size, "invalid argument");

  00047	e8 00 00 00 00	 call	 __invalid_parameter_noinfo_noreturn
$LN37@pair:
  0004c	cc		 int	 3
??1?$pair@KUSPartyMemberInfo@CPythonPlayer@@@std@@QAE@XZ ENDP ; std::pair<unsigned long,CPythonPlayer::SPartyMemberInfo>::~pair<unsigned long,CPythonPlayer::SPartyMemberInfo>
_TEXT	ENDS
; Function compile flags: /Ogtp
; File E:\Metin2_server\SolWayneSF v6\ClientVS22\source\UserInterface\PythonPlayer.cpp
;	COMDAT ?RemovePartyMember@CPythonPlayer@@QAEXK@Z
_TEXT	SEGMENT
_pPartyMemberInfo$ = -4					; size = 4
_dwPID$ = 8						; size = 4
?RemovePartyMember@CPythonPlayer@@QAEXK@Z PROC		; CPythonPlayer::RemovePartyMember, COMDAT
; _this$ = ecx

; 1360 : {

  00000	55		 push	 ebp
  00001	8b ec		 mov	 ebp, esp
  00003	51		 push	 ecx
  00004	56		 push	 esi
  00005	57		 push	 edi

; 1361 : 	DWORD dwVID = 0;
; 1362 : 	TPartyMemberInfo * pPartyMemberInfo;
; 1363 : 	if (GetPartyMemberPtr(dwPID, &pPartyMemberInfo))

  00006	8d 45 fc	 lea	 eax, DWORD PTR _pPartyMemberInfo$[ebp]
  00009	8b f9		 mov	 edi, ecx
  0000b	50		 push	 eax
  0000c	ff 75 08	 push	 DWORD PTR _dwPID$[ebp]
  0000f	33 f6		 xor	 esi, esi
  00011	e8 00 00 00 00	 call	 ?GetPartyMemberPtr@CPythonPlayer@@QAE_NKPAPAUSPartyMemberInfo@1@@Z ; CPythonPlayer::GetPartyMemberPtr
  00016	84 c0		 test	 al, al
  00018	74 05		 je	 SHORT $LN2@RemovePart

; 1364 : 	{
; 1365 : 		dwVID = pPartyMemberInfo->dwVID;

  0001a	8b 45 fc	 mov	 eax, DWORD PTR _pPartyMemberInfo$[ebp]
  0001d	8b 30		 mov	 esi, DWORD PTR [eax]
$LN2@RemovePart:

; 1366 : 	}
; 1367 : 
; 1368 : 	m_PartyMemberMap.erase(dwPID);

  0001f	8d 45 08	 lea	 eax, DWORD PTR _dwPID$[ebp]
  00022	50		 push	 eax
  00023	8d 8f 34 2e 01
	00		 lea	 ecx, DWORD PTR [edi+77364]
  00029	e8 00 00 00 00	 call	 ?erase@?$_Tree@V?$_Tmap_traits@KUSPartyMemberInfo@CPythonPlayer@@U?$less@K@std@@V?$allocator@U?$pair@$$CBKUSPartyMemberInfo@CPythonPlayer@@@std@@@4@$0A@@std@@@std@@QAEIABK@Z ; std::_Tree<std::_Tmap_traits<unsigned long,CPythonPlayer::SPartyMemberInfo,std::less<unsigned long>,std::allocator<std::pair<unsigned long const ,CPythonPlayer::SPartyMemberInfo> >,0> >::erase

; 1369 : 
; 1370 : 	if (dwVID > 0)

  0002e	85 f6		 test	 esi, esi
  00030	74 11		 je	 SHORT $LN4@RemovePart

; 1371 : 	{
; 1372 : 		CInstanceBase * pInstance = NEW_FindActorPtr(dwVID);

  00032	56		 push	 esi
  00033	e8 00 00 00 00	 call	 ?NEW_FindActorPtr@CPythonPlayer@@QAEPAVCInstanceBase@@K@Z ; CPythonPlayer::NEW_FindActorPtr

; 1373 : 		if (pInstance)

  00038	85 c0		 test	 eax, eax
  0003a	74 07		 je	 SHORT $LN4@RemovePart

; 1374 : 			pInstance->RefreshTextTail();

  0003c	8b c8		 mov	 ecx, eax
  0003e	e8 00 00 00 00	 call	 ?RefreshTextTail@CInstanceBase@@QAEXXZ ; CInstanceBase::RefreshTextTail
$LN4@RemovePart:

; 1375 : 	}
; 1376 : }

  00043	5f		 pop	 edi
  00044	5e		 pop	 esi
  00045	8b e5		 mov	 esp, ebp
  00047	5d		 pop	 ebp
  00048	c2 04 00	 ret	 4
?RemovePartyMember@CPythonPlayer@@QAEXK@Z ENDP		; CPythonPlayer::RemovePartyMember
_TEXT	ENDS
; Function compile flags: /Ogtp
; File E:\Metin2_server\SolWayneSF v6\ClientVS22\source\UserInterface\PythonPlayer.cpp
; File C:\Program Files\Microsoft Visual Studio\2022\Community\VC\Tools\MSVC\14.34.31933\include\xtree
; File E:\Metin2_server\SolWayneSF v6\ClientVS22\source\UserInterface\PythonPlayer.cpp
; File C:\Program Files\Microsoft Visual Studio\2022\Community\VC\Tools\MSVC\14.34.31933\include\xtree
; File E:\Metin2_server\SolWayneSF v6\ClientVS22\source\UserInterface\PythonPlayer.cpp
; File C:\Program Files\Microsoft Visual Studio\2022\Community\VC\Tools\MSVC\14.34.31933\include\xtree
; File E:\Metin2_server\SolWayneSF v6\ClientVS22\source\UserInterface\PythonPlayer.cpp
;	COMDAT ?IsPartyMemberByVID@CPythonPlayer@@UAE_NK@Z
_TEXT	SEGMENT
_itor$ = -4						; size = 4
_dwVID$ = 8						; size = 4
?IsPartyMemberByVID@CPythonPlayer@@UAE_NK@Z PROC	; CPythonPlayer::IsPartyMemberByVID, COMDAT
; _this$ = ecx

; 1379 : {

  00000	55		 push	 ebp
  00001	8b ec		 mov	 ebp, esp
  00003	51		 push	 ecx
  00004	56		 push	 esi
; File C:\Program Files\Microsoft Visual Studio\2022\Community\VC\Tools\MSVC\14.34.31933\include\xtree

; 1126 :         return iterator(_Scary->_Myhead->_Left, _Scary);

  00005	8b b1 30 2e 01
	00		 mov	 esi, DWORD PTR [ecx+77360]
; File E:\Metin2_server\SolWayneSF v6\ClientVS22\source\UserInterface\PythonPlayer.cpp

; 1379 : {

  0000b	57		 push	 edi
; File C:\Program Files\Microsoft Visual Studio\2022\Community\VC\Tools\MSVC\14.34.31933\include\xtree

; 38   :     _Tree_unchecked_const_iterator(_Nodeptr _Pnode, const _Mytree* _Plist) noexcept : _Ptr(_Pnode) {

  0000c	8b 06		 mov	 eax, DWORD PTR [esi]
  0000e	89 45 fc	 mov	 DWORD PTR _itor$[ebp], eax
  00011	3b c6		 cmp	 eax, esi
; File E:\Metin2_server\SolWayneSF v6\ClientVS22\source\UserInterface\PythonPlayer.cpp

; 1381 : 	for (; itor != m_PartyMemberMap.end(); ++itor)

  00013	74 17		 je	 SHORT $LN3@IsPartyMem
  00015	8b 7d 08	 mov	 edi, DWORD PTR _dwVID$[ebp]
$LL26@IsPartyMem:

; 1382 : 	{
; 1383 : 		TPartyMemberInfo & rPartyMemberInfo = itor->second;
; 1384 : 		if (dwVID == rPartyMemberInfo.dwVID)

  00018	3b 78 14	 cmp	 edi, DWORD PTR [eax+20]
  0001b	74 19		 je	 SHORT $LN36@IsPartyMem
; File C:\Program Files\Microsoft Visual Studio\2022\Community\VC\Tools\MSVC\14.34.31933\include\xtree

; 199  :         _Mybase::operator++();

  0001d	8d 4d fc	 lea	 ecx, DWORD PTR _itor$[ebp]
  00020	e8 00 00 00 00	 call	 ??E?$_Tree_unchecked_const_iterator@V?$_Tree_val@U?$_Tree_simple_types@U?$pair@$$CBKUSPartyMemberInfo@CPythonPlayer@@@std@@@std@@@std@@U_Iterator_base0@2@@std@@QAEAAV01@XZ ; std::_Tree_unchecked_const_iterator<std::_Tree_val<std::_Tree_simple_types<std::pair<unsigned long const ,CPythonPlayer::SPartyMemberInfo> > >,std::_Iterator_base0>::operator++

; 233  :         return this->_Ptr == _Right._Ptr;

  00025	8b 45 fc	 mov	 eax, DWORD PTR _itor$[ebp]
  00028	3b c6		 cmp	 eax, esi
; File E:\Metin2_server\SolWayneSF v6\ClientVS22\source\UserInterface\PythonPlayer.cpp

; 1381 : 	for (; itor != m_PartyMemberMap.end(); ++itor)

  0002a	75 ec		 jne	 SHORT $LL26@IsPartyMem
$LN3@IsPartyMem:
  0002c	5f		 pop	 edi

; 1386 : 	}
; 1387 : 
; 1388 : 	return false;

  0002d	32 c0		 xor	 al, al

; 1389 : }

  0002f	5e		 pop	 esi
  00030	8b e5		 mov	 esp, ebp
  00032	5d		 pop	 ebp
  00033	c2 04 00	 ret	 4
$LN36@IsPartyMem:
  00036	5f		 pop	 edi

; 1385 : 			return true;

  00037	b0 01		 mov	 al, 1

; 1389 : }

  00039	5e		 pop	 esi
  0003a	8b e5		 mov	 esp, ebp
  0003c	5d		 pop	 ebp
  0003d	c2 04 00	 ret	 4
?IsPartyMemberByVID@CPythonPlayer@@UAE_NK@Z ENDP	; CPythonPlayer::IsPartyMemberByVID
_TEXT	ENDS
; Function compile flags: /Ogtp
; File E:\Metin2_server\SolWayneSF v6\ClientVS22\source\UserInterface\PythonPlayer.cpp
; File C:\Program Files\Microsoft Visual Studio\2022\Community\VC\Tools\MSVC\14.34.31933\include\xtree
; File E:\Metin2_server\SolWayneSF v6\ClientVS22\source\UserInterface\PythonPlayer.cpp
; File C:\Program Files\Microsoft Visual Studio\2022\Community\VC\Tools\MSVC\14.34.31933\include\xtree
; File E:\Metin2_server\SolWayneSF v6\ClientVS22\source\UserInterface\PythonPlayer.cpp
; File C:\Program Files\Microsoft Visual Studio\2022\Community\VC\Tools\MSVC\14.34.31933\include\xstring
; File E:\Metin2_server\SolWayneSF v6\ClientVS22\source\UserInterface\PythonPlayer.cpp
; File C:\Program Files\Microsoft Visual Studio\2022\Community\VC\Tools\MSVC\14.34.31933\include\xtree
; File E:\Metin2_server\SolWayneSF v6\ClientVS22\source\UserInterface\PythonPlayer.cpp
;	COMDAT ?IsPartyMemberByName@CPythonPlayer@@QAE_NPBD@Z
_TEXT	SEGMENT
_itor$ = -4						; size = 4
_c_szName$ = 8						; size = 4
?IsPartyMemberByName@CPythonPlayer@@QAE_NPBD@Z PROC	; CPythonPlayer::IsPartyMemberByName, COMDAT
; _this$ = ecx

; 1392 : {

  00000	55		 push	 ebp
  00001	8b ec		 mov	 ebp, esp
  00003	51		 push	 ecx
  00004	53		 push	 ebx
  00005	56		 push	 esi
; File C:\Program Files\Microsoft Visual Studio\2022\Community\VC\Tools\MSVC\14.34.31933\include\xtree

; 1126 :         return iterator(_Scary->_Myhead->_Left, _Scary);

  00006	8b b1 34 2e 01
	00		 mov	 esi, DWORD PTR [ecx+77364]
; File E:\Metin2_server\SolWayneSF v6\ClientVS22\source\UserInterface\PythonPlayer.cpp

; 1392 : {

  0000c	57		 push	 edi
; File C:\Program Files\Microsoft Visual Studio\2022\Community\VC\Tools\MSVC\14.34.31933\include\xtree

; 38   :     _Tree_unchecked_const_iterator(_Nodeptr _Pnode, const _Mytree* _Plist) noexcept : _Ptr(_Pnode) {

  0000d	8b 06		 mov	 eax, DWORD PTR [esi]
  0000f	89 45 fc	 mov	 DWORD PTR _itor$[ebp], eax
  00012	3b c6		 cmp	 eax, esi
; File E:\Metin2_server\SolWayneSF v6\ClientVS22\source\UserInterface\PythonPlayer.cpp

; 1394 : 	for (; itor != m_PartyMemberMap.end(); ++itor)

  00014	74 45		 je	 SHORT $LN3@IsPartyMem
  00016	8b 7d 08	 mov	 edi, DWORD PTR _c_szName$[ebp]
  00019	0f 1f 80 00 00
	00 00		 npad	 7
$LL35@IsPartyMem:

; 1397 : 		if (0 == rPartyMemberInfo.strName.compare(c_szName))

  00020	8d 50 1c	 lea	 edx, DWORD PTR [eax+28]
; File C:\Program Files\Microsoft Visual Studio\2022\Community\VC\Tools\MSVC\14.34.31933\include\xstring

; 415  :             return __builtin_strlen(_First);

  00023	8b c7		 mov	 eax, edi
  00025	8d 58 01	 lea	 ebx, DWORD PTR [eax+1]
$LL49@IsPartyMem:
  00028	8a 08		 mov	 cl, BYTE PTR [eax]
  0002a	40		 inc	 eax
  0002b	84 c9		 test	 cl, cl
  0002d	75 f9		 jne	 SHORT $LL49@IsPartyMem

; 4814 :         return _Traits_compare<_Traits>(_Mypair._Myval2._Myptr(), _Mypair._Myval2._Mysize, _Ptr, _Traits::length(_Ptr));

  0002f	8b 4a 10	 mov	 ecx, DWORD PTR [edx+16]

; 415  :             return __builtin_strlen(_First);

  00032	2b c3		 sub	 eax, ebx

; 2301 :         return _BUF_SIZE <= _Myres;

  00034	83 7a 14 10	 cmp	 DWORD PTR [edx+20], 16	; 00000010H

; 2293 :         if (_Large_string_engaged()) {

  00038	72 02		 jb	 SHORT $LN18@IsPartyMem

; 2294 :             _Result = _Unfancy(_Bx._Ptr);

  0003a	8b 12		 mov	 edx, DWORD PTR [edx]
$LN18@IsPartyMem:

; 4814 :         return _Traits_compare<_Traits>(_Mypair._Myval2._Myptr(), _Mypair._Myval2._Mysize, _Ptr, _Traits::length(_Ptr));

  0003c	50		 push	 eax
  0003d	57		 push	 edi
  0003e	51		 push	 ecx
  0003f	52		 push	 edx
  00040	e8 00 00 00 00	 call	 ??$_Traits_compare@U?$char_traits@D@std@@@std@@YAHQBDI0I@Z ; std::_Traits_compare<std::char_traits<char> >
  00045	83 c4 10	 add	 esp, 16			; 00000010H
; File E:\Metin2_server\SolWayneSF v6\ClientVS22\source\UserInterface\PythonPlayer.cpp

; 1397 : 		if (0 == rPartyMemberInfo.strName.compare(c_szName))

  00048	85 c0		 test	 eax, eax
  0004a	74 1a		 je	 SHORT $LN45@IsPartyMem
; File C:\Program Files\Microsoft Visual Studio\2022\Community\VC\Tools\MSVC\14.34.31933\include\xtree

; 199  :         _Mybase::operator++();

  0004c	8d 4d fc	 lea	 ecx, DWORD PTR _itor$[ebp]
  0004f	e8 00 00 00 00	 call	 ??E?$_Tree_unchecked_const_iterator@V?$_Tree_val@U?$_Tree_simple_types@U?$pair@$$CBKUSPartyMemberInfo@CPythonPlayer@@@std@@@std@@@std@@U_Iterator_base0@2@@std@@QAEAAV01@XZ ; std::_Tree_unchecked_const_iterator<std::_Tree_val<std::_Tree_simple_types<std::pair<unsigned long const ,CPythonPlayer::SPartyMemberInfo> > >,std::_Iterator_base0>::operator++

; 233  :         return this->_Ptr == _Right._Ptr;

  00054	8b 45 fc	 mov	 eax, DWORD PTR _itor$[ebp]
  00057	3b c6		 cmp	 eax, esi
; File E:\Metin2_server\SolWayneSF v6\ClientVS22\source\UserInterface\PythonPlayer.cpp

; 1394 : 	for (; itor != m_PartyMemberMap.end(); ++itor)

  00059	75 c5		 jne	 SHORT $LL35@IsPartyMem
$LN3@IsPartyMem:
  0005b	5f		 pop	 edi

; 1398 : 			return true;
; 1399 : 	}
; 1400 : 
; 1401 : 	return false;
; 1402 : }

  0005c	5e		 pop	 esi
  0005d	32 c0		 xor	 al, al
  0005f	5b		 pop	 ebx
  00060	8b e5		 mov	 esp, ebp
  00062	5d		 pop	 ebp
  00063	c2 04 00	 ret	 4
$LN45@IsPartyMem:
  00066	5f		 pop	 edi
  00067	5e		 pop	 esi
  00068	b0 01		 mov	 al, 1
  0006a	5b		 pop	 ebx
  0006b	8b e5		 mov	 esp, ebp
  0006d	5d		 pop	 ebp
  0006e	c2 04 00	 ret	 4
?IsPartyMemberByName@CPythonPlayer@@QAE_NPBD@Z ENDP	; CPythonPlayer::IsPartyMemberByName
_TEXT	ENDS
; Function compile flags: /Ogtp
; File E:\Metin2_server\SolWayneSF v6\ClientVS22\source\UserInterface\PythonPlayer.cpp
; File C:\Program Files\Microsoft Visual Studio\2022\Community\VC\Tools\MSVC\14.34.31933\include\xtree
; File E:\Metin2_server\SolWayneSF v6\ClientVS22\source\UserInterface\PythonPlayer.cpp
; File C:\Program Files\Microsoft Visual Studio\2022\Community\VC\Tools\MSVC\14.34.31933\include\xtree
; File E:\Metin2_server\SolWayneSF v6\ClientVS22\source\UserInterface\PythonPlayer.cpp
; File C:\Program Files\Microsoft Visual Studio\2022\Community\VC\Tools\MSVC\14.34.31933\include\xtree
; File E:\Metin2_server\SolWayneSF v6\ClientVS22\source\UserInterface\PythonPlayer.cpp
;	COMDAT ?PartyMemberVIDToPID@CPythonPlayer@@UAE_NKPAK@Z
_TEXT	SEGMENT
_itor$ = -4						; size = 4
_dwVID$ = 8						; size = 4
_pdwPID$ = 12						; size = 4
?PartyMemberVIDToPID@CPythonPlayer@@UAE_NKPAK@Z PROC	; CPythonPlayer::PartyMemberVIDToPID, COMDAT
; _this$ = ecx

; 1430 : {

  00000	55		 push	 ebp
  00001	8b ec		 mov	 ebp, esp
  00003	51		 push	 ecx
  00004	56		 push	 esi
; File C:\Program Files\Microsoft Visual Studio\2022\Community\VC\Tools\MSVC\14.34.31933\include\xtree

; 1126 :         return iterator(_Scary->_Myhead->_Left, _Scary);

  00005	8b b1 30 2e 01
	00		 mov	 esi, DWORD PTR [ecx+77360]
; File E:\Metin2_server\SolWayneSF v6\ClientVS22\source\UserInterface\PythonPlayer.cpp

; 1430 : {

  0000b	57		 push	 edi
; File C:\Program Files\Microsoft Visual Studio\2022\Community\VC\Tools\MSVC\14.34.31933\include\xtree

; 38   :     _Tree_unchecked_const_iterator(_Nodeptr _Pnode, const _Mytree* _Plist) noexcept : _Ptr(_Pnode) {

  0000c	8b 06		 mov	 eax, DWORD PTR [esi]
  0000e	89 45 fc	 mov	 DWORD PTR _itor$[ebp], eax
  00011	3b c6		 cmp	 eax, esi
; File E:\Metin2_server\SolWayneSF v6\ClientVS22\source\UserInterface\PythonPlayer.cpp

; 1432 : 	for (; itor != m_PartyMemberMap.end(); ++itor)

  00013	74 17		 je	 SHORT $LN3@PartyMembe
  00015	8b 7d 08	 mov	 edi, DWORD PTR _dwVID$[ebp]
$LL26@PartyMembe:

; 1433 : 	{
; 1434 : 		TPartyMemberInfo & rPartyMemberInfo = itor->second;
; 1435 : 		if (dwVID == rPartyMemberInfo.dwVID)

  00018	3b 78 14	 cmp	 edi, DWORD PTR [eax+20]
  0001b	74 19		 je	 SHORT $LN36@PartyMembe
; File C:\Program Files\Microsoft Visual Studio\2022\Community\VC\Tools\MSVC\14.34.31933\include\xtree

; 199  :         _Mybase::operator++();

  0001d	8d 4d fc	 lea	 ecx, DWORD PTR _itor$[ebp]
  00020	e8 00 00 00 00	 call	 ??E?$_Tree_unchecked_const_iterator@V?$_Tree_val@U?$_Tree_simple_types@U?$pair@$$CBKUSPartyMemberInfo@CPythonPlayer@@@std@@@std@@@std@@U_Iterator_base0@2@@std@@QAEAAV01@XZ ; std::_Tree_unchecked_const_iterator<std::_Tree_val<std::_Tree_simple_types<std::pair<unsigned long const ,CPythonPlayer::SPartyMemberInfo> > >,std::_Iterator_base0>::operator++

; 233  :         return this->_Ptr == _Right._Ptr;

  00025	8b 45 fc	 mov	 eax, DWORD PTR _itor$[ebp]
  00028	3b c6		 cmp	 eax, esi
; File E:\Metin2_server\SolWayneSF v6\ClientVS22\source\UserInterface\PythonPlayer.cpp

; 1432 : 	for (; itor != m_PartyMemberMap.end(); ++itor)

  0002a	75 ec		 jne	 SHORT $LL26@PartyMembe
$LN3@PartyMembe:
  0002c	5f		 pop	 edi

; 1438 : 			return true;
; 1439 : 		}
; 1440 : 	}
; 1441 : 
; 1442 : 	return false;

  0002d	32 c0		 xor	 al, al

; 1443 : }

  0002f	5e		 pop	 esi
  00030	8b e5		 mov	 esp, ebp
  00032	5d		 pop	 ebp
  00033	c2 08 00	 ret	 8
$LN36@PartyMembe:

; 1436 : 		{
; 1437 : 			*pdwPID = rPartyMemberInfo.dwPID;

  00036	8b 48 18	 mov	 ecx, DWORD PTR [eax+24]
  00039	8b 45 0c	 mov	 eax, DWORD PTR _pdwPID$[ebp]
  0003c	5f		 pop	 edi

; 1443 : }

  0003d	5e		 pop	 esi
  0003e	89 08		 mov	 DWORD PTR [eax], ecx
  00040	b0 01		 mov	 al, 1
  00042	8b e5		 mov	 esp, ebp
  00044	5d		 pop	 ebp
  00045	c2 08 00	 ret	 8
?PartyMemberVIDToPID@CPythonPlayer@@UAE_NKPAK@Z ENDP	; CPythonPlayer::PartyMemberVIDToPID
_TEXT	ENDS
; Function compile flags: /Ogtp
; File E:\Metin2_server\SolWayneSF v6\ClientVS22\source\UserInterface\PythonPlayer.cpp
;	COMDAT ?IsSamePartyMember@CPythonPlayer@@UAE_NKK@Z
_TEXT	SEGMENT
_dwVID1$ = 8						; size = 4
_dwVID2$ = 12						; size = 4
?IsSamePartyMember@CPythonPlayer@@UAE_NKK@Z PROC	; CPythonPlayer::IsSamePartyMember, COMDAT
; _this$ = ecx

; 1446 : {

  00000	55		 push	 ebp
  00001	8b ec		 mov	 ebp, esp
  00003	56		 push	 esi

; 1447 : 	return (IsPartyMemberByVID(dwVID1) && IsPartyMemberByVID(dwVID2));

  00004	ff 75 08	 push	 DWORD PTR _dwVID1$[ebp]
  00007	8b f1		 mov	 esi, ecx
  00009	8b 06		 mov	 eax, DWORD PTR [esi]
  0000b	8b 40 24	 mov	 eax, DWORD PTR [eax+36]
  0000e	ff d0		 call	 eax
  00010	84 c0		 test	 al, al
  00012	74 17		 je	 SHORT $LN3@IsSamePart
  00014	8b 06		 mov	 eax, DWORD PTR [esi]
  00016	8b ce		 mov	 ecx, esi
  00018	ff 75 0c	 push	 DWORD PTR _dwVID2$[ebp]
  0001b	8b 40 24	 mov	 eax, DWORD PTR [eax+36]
  0001e	ff d0		 call	 eax
  00020	84 c0		 test	 al, al
  00022	74 07		 je	 SHORT $LN3@IsSamePart
  00024	b0 01		 mov	 al, 1
  00026	5e		 pop	 esi

; 1448 : }

  00027	5d		 pop	 ebp
  00028	c2 08 00	 ret	 8
$LN3@IsSamePart:

; 1447 : 	return (IsPartyMemberByVID(dwVID1) && IsPartyMemberByVID(dwVID2));

  0002b	32 c0		 xor	 al, al
  0002d	5e		 pop	 esi

; 1448 : }

  0002e	5d		 pop	 ebp
  0002f	c2 08 00	 ret	 8
?IsSamePartyMember@CPythonPlayer@@UAE_NKK@Z ENDP	; CPythonPlayer::IsSamePartyMember
_TEXT	ENDS
; Function compile flags: /Ogtp
; File E:\Metin2_server\SolWayneSF v6\ClientVS22\source\UserInterface\PythonPlayer.cpp
; File C:\Program Files\Microsoft Visual Studio\2022\Community\VC\Tools\MSVC\14.34.31933\include\xtree
; File C:\Program Files\Microsoft Visual Studio\2022\Community\VC\Tools\MSVC\14.34.31933\include\xstddef
; File C:\Program Files\Microsoft Visual Studio\2022\Community\VC\Tools\MSVC\14.34.31933\include\xtree
; File E:\Metin2_server\SolWayneSF v6\ClientVS22\source\UserInterface\PythonPlayer.cpp
;	COMDAT ?IsChallengeInstance@CPythonPlayer@@QAE_NK@Z
_TEXT	SEGMENT
__Loc$1 = -12						; size = 12
_dwVID$ = 8						; size = 4
?IsChallengeInstance@CPythonPlayer@@QAE_NK@Z PROC	; CPythonPlayer::IsChallengeInstance, COMDAT
; _this$ = ecx

; 1473 : {

  00000	55		 push	 ebp
  00001	8b ec		 mov	 ebp, esp
  00003	83 ec 0c	 sub	 esp, 12			; 0000000cH
  00006	56		 push	 esi
; File C:\Program Files\Microsoft Visual Studio\2022\Community\VC\Tools\MSVC\14.34.31933\include\xtree

; 38   :     _Tree_unchecked_const_iterator(_Nodeptr _Pnode, const _Mytree* _Plist) noexcept : _Ptr(_Pnode) {

  00007	8b b1 3c 2e 01
	00		 mov	 esi, DWORD PTR [ecx+77372]

; 1367 :         const _Tree_find_result<_Nodeptr> _Loc = _Find_lower_bound(_Keyval);

  0000d	8d 45 08	 lea	 eax, DWORD PTR _dwVID$[ebp]

; 1136 :         return iterator(_Scary->_Myhead, _Scary);

  00010	81 c1 3c 2e 01
	00		 add	 ecx, 77372		; 00012e3cH

; 1367 :         const _Tree_find_result<_Nodeptr> _Loc = _Find_lower_bound(_Keyval);

  00016	50		 push	 eax
  00017	8d 45 f4	 lea	 eax, DWORD PTR __Loc$1[ebp]
  0001a	50		 push	 eax
  0001b	e8 00 00 00 00	 call	 ??$_Find_lower_bound@K@?$_Tree@V?$_Tset_traits@KU?$less@K@std@@V?$allocator@K@2@$0A@@std@@@std@@IBE?AU?$_Tree_find_result@PAU?$_Tree_node@KPAX@std@@@1@ABK@Z ; std::_Tree<std::_Tset_traits<unsigned long,std::less<unsigned long>,std::allocator<unsigned long>,0> >::_Find_lower_bound<unsigned long>

; 1605 :         return !_Bound->_Isnil && !_DEBUG_LT_PRED(_Getcomp(), _Keyval, _Traits::_Kfn(_Bound->_Myval));

  00020	8b 4d fc	 mov	 ecx, DWORD PTR __Loc$1[ebp+8]
  00023	80 79 0d 00	 cmp	 BYTE PTR [ecx+13], 0
  00027	75 08		 jne	 SHORT $LN12@IsChalleng
; File C:\Program Files\Microsoft Visual Studio\2022\Community\VC\Tools\MSVC\14.34.31933\include\xstddef

; 143  :         return _Left < _Right;

  00029	8b 45 08	 mov	 eax, DWORD PTR _dwVID$[ebp]
  0002c	3b 41 10	 cmp	 eax, DWORD PTR [ecx+16]
; File C:\Program Files\Microsoft Visual Studio\2022\Community\VC\Tools\MSVC\14.34.31933\include\xtree

; 1605 :         return !_Bound->_Isnil && !_DEBUG_LT_PRED(_Getcomp(), _Keyval, _Traits::_Kfn(_Bound->_Myval));

  0002f	73 02		 jae	 SHORT $LN11@IsChalleng
$LN12@IsChalleng:

; 1372 :         return _Get_scary()->_Myhead;

  00031	8b ce		 mov	 ecx, esi
$LN11@IsChalleng:
; File E:\Metin2_server\SolWayneSF v6\ClientVS22\source\UserInterface\PythonPlayer.cpp

; 1474 : 	return m_ChallengeInstanceSet.end() != m_ChallengeInstanceSet.find(dwVID);

  00033	3b f1		 cmp	 esi, ecx
  00035	5e		 pop	 esi
  00036	0f 95 c0	 setne	 al

; 1475 : }

  00039	8b e5		 mov	 esp, ebp
  0003b	5d		 pop	 ebp
  0003c	c2 04 00	 ret	 4
?IsChallengeInstance@CPythonPlayer@@QAE_NK@Z ENDP	; CPythonPlayer::IsChallengeInstance
_TEXT	ENDS
; Function compile flags: /Ogtp
; File E:\Metin2_server\SolWayneSF v6\ClientVS22\source\UserInterface\PythonPlayer.cpp
; File C:\Program Files\Microsoft Visual Studio\2022\Community\VC\Tools\MSVC\14.34.31933\include\xtree
; File C:\Program Files\Microsoft Visual Studio\2022\Community\VC\Tools\MSVC\14.34.31933\include\xstddef
; File C:\Program Files\Microsoft Visual Studio\2022\Community\VC\Tools\MSVC\14.34.31933\include\xtree
; File E:\Metin2_server\SolWayneSF v6\ClientVS22\source\UserInterface\PythonPlayer.cpp
;	COMDAT ?IsRevengeInstance@CPythonPlayer@@QAE_NK@Z
_TEXT	SEGMENT
__Loc$1 = -12						; size = 12
_dwVID$ = 8						; size = 4
?IsRevengeInstance@CPythonPlayer@@QAE_NK@Z PROC		; CPythonPlayer::IsRevengeInstance, COMDAT
; _this$ = ecx

; 1477 : {

  00000	55		 push	 ebp
  00001	8b ec		 mov	 ebp, esp
  00003	83 ec 0c	 sub	 esp, 12			; 0000000cH
  00006	56		 push	 esi
; File C:\Program Files\Microsoft Visual Studio\2022\Community\VC\Tools\MSVC\14.34.31933\include\xtree

; 38   :     _Tree_unchecked_const_iterator(_Nodeptr _Pnode, const _Mytree* _Plist) noexcept : _Ptr(_Pnode) {

  00007	8b b1 44 2e 01
	00		 mov	 esi, DWORD PTR [ecx+77380]

; 1367 :         const _Tree_find_result<_Nodeptr> _Loc = _Find_lower_bound(_Keyval);

  0000d	8d 45 08	 lea	 eax, DWORD PTR _dwVID$[ebp]

; 1136 :         return iterator(_Scary->_Myhead, _Scary);

  00010	81 c1 44 2e 01
	00		 add	 ecx, 77380		; 00012e44H

; 1367 :         const _Tree_find_result<_Nodeptr> _Loc = _Find_lower_bound(_Keyval);

  00016	50		 push	 eax
  00017	8d 45 f4	 lea	 eax, DWORD PTR __Loc$1[ebp]
  0001a	50		 push	 eax
  0001b	e8 00 00 00 00	 call	 ??$_Find_lower_bound@K@?$_Tree@V?$_Tset_traits@KU?$less@K@std@@V?$allocator@K@2@$0A@@std@@@std@@IBE?AU?$_Tree_find_result@PAU?$_Tree_node@KPAX@std@@@1@ABK@Z ; std::_Tree<std::_Tset_traits<unsigned long,std::less<unsigned long>,std::allocator<unsigned long>,0> >::_Find_lower_bound<unsigned long>

; 1605 :         return !_Bound->_Isnil && !_DEBUG_LT_PRED(_Getcomp(), _Keyval, _Traits::_Kfn(_Bound->_Myval));

  00020	8b 4d fc	 mov	 ecx, DWORD PTR __Loc$1[ebp+8]
  00023	80 79 0d 00	 cmp	 BYTE PTR [ecx+13], 0
  00027	75 08		 jne	 SHORT $LN12@IsRevengeI
; File C:\Program Files\Microsoft Visual Studio\2022\Community\VC\Tools\MSVC\14.34.31933\include\xstddef

; 143  :         return _Left < _Right;

  00029	8b 45 08	 mov	 eax, DWORD PTR _dwVID$[ebp]
  0002c	3b 41 10	 cmp	 eax, DWORD PTR [ecx+16]
; File C:\Program Files\Microsoft Visual Studio\2022\Community\VC\Tools\MSVC\14.34.31933\include\xtree

; 1605 :         return !_Bound->_Isnil && !_DEBUG_LT_PRED(_Getcomp(), _Keyval, _Traits::_Kfn(_Bound->_Myval));

  0002f	73 02		 jae	 SHORT $LN11@IsRevengeI
$LN12@IsRevengeI:

; 1372 :         return _Get_scary()->_Myhead;

  00031	8b ce		 mov	 ecx, esi
$LN11@IsRevengeI:
; File E:\Metin2_server\SolWayneSF v6\ClientVS22\source\UserInterface\PythonPlayer.cpp

; 1478 : 	return m_RevengeInstanceSet.end() != m_RevengeInstanceSet.find(dwVID);

  00033	3b f1		 cmp	 esi, ecx
  00035	5e		 pop	 esi
  00036	0f 95 c0	 setne	 al

; 1479 : }

  00039	8b e5		 mov	 esp, ebp
  0003b	5d		 pop	 ebp
  0003c	c2 04 00	 ret	 4
?IsRevengeInstance@CPythonPlayer@@QAE_NK@Z ENDP		; CPythonPlayer::IsRevengeInstance
_TEXT	ENDS
; Function compile flags: /Ogtp
; File E:\Metin2_server\SolWayneSF v6\ClientVS22\source\UserInterface\PythonPlayer.cpp
; File C:\Program Files\Microsoft Visual Studio\2022\Community\VC\Tools\MSVC\14.34.31933\include\xtree
; File C:\Program Files\Microsoft Visual Studio\2022\Community\VC\Tools\MSVC\14.34.31933\include\xstddef
; File C:\Program Files\Microsoft Visual Studio\2022\Community\VC\Tools\MSVC\14.34.31933\include\xtree
; File E:\Metin2_server\SolWayneSF v6\ClientVS22\source\UserInterface\PythonPlayer.cpp
;	COMDAT ?IsCantFightInstance@CPythonPlayer@@QAE_NK@Z
_TEXT	SEGMENT
__Loc$1 = -12						; size = 12
_dwVID$ = 8						; size = 4
?IsCantFightInstance@CPythonPlayer@@QAE_NK@Z PROC	; CPythonPlayer::IsCantFightInstance, COMDAT
; _this$ = ecx

; 1481 : {

  00000	55		 push	 ebp
  00001	8b ec		 mov	 ebp, esp
  00003	83 ec 0c	 sub	 esp, 12			; 0000000cH
  00006	56		 push	 esi
; File C:\Program Files\Microsoft Visual Studio\2022\Community\VC\Tools\MSVC\14.34.31933\include\xtree

; 38   :     _Tree_unchecked_const_iterator(_Nodeptr _Pnode, const _Mytree* _Plist) noexcept : _Ptr(_Pnode) {

  00007	8b b1 4c 2e 01
	00		 mov	 esi, DWORD PTR [ecx+77388]

; 1367 :         const _Tree_find_result<_Nodeptr> _Loc = _Find_lower_bound(_Keyval);

  0000d	8d 45 08	 lea	 eax, DWORD PTR _dwVID$[ebp]

; 1136 :         return iterator(_Scary->_Myhead, _Scary);

  00010	81 c1 4c 2e 01
	00		 add	 ecx, 77388		; 00012e4cH

; 1367 :         const _Tree_find_result<_Nodeptr> _Loc = _Find_lower_bound(_Keyval);

  00016	50		 push	 eax
  00017	8d 45 f4	 lea	 eax, DWORD PTR __Loc$1[ebp]
  0001a	50		 push	 eax
  0001b	e8 00 00 00 00	 call	 ??$_Find_lower_bound@K@?$_Tree@V?$_Tset_traits@KU?$less@K@std@@V?$allocator@K@2@$0A@@std@@@std@@IBE?AU?$_Tree_find_result@PAU?$_Tree_node@KPAX@std@@@1@ABK@Z ; std::_Tree<std::_Tset_traits<unsigned long,std::less<unsigned long>,std::allocator<unsigned long>,0> >::_Find_lower_bound<unsigned long>

; 1605 :         return !_Bound->_Isnil && !_DEBUG_LT_PRED(_Getcomp(), _Keyval, _Traits::_Kfn(_Bound->_Myval));

  00020	8b 4d fc	 mov	 ecx, DWORD PTR __Loc$1[ebp+8]
  00023	80 79 0d 00	 cmp	 BYTE PTR [ecx+13], 0
  00027	75 08		 jne	 SHORT $LN12@IsCantFigh
; File C:\Program Files\Microsoft Visual Studio\2022\Community\VC\Tools\MSVC\14.34.31933\include\xstddef

; 143  :         return _Left < _Right;

  00029	8b 45 08	 mov	 eax, DWORD PTR _dwVID$[ebp]
  0002c	3b 41 10	 cmp	 eax, DWORD PTR [ecx+16]
; File C:\Program Files\Microsoft Visual Studio\2022\Community\VC\Tools\MSVC\14.34.31933\include\xtree

; 1605 :         return !_Bound->_Isnil && !_DEBUG_LT_PRED(_Getcomp(), _Keyval, _Traits::_Kfn(_Bound->_Myval));

  0002f	73 02		 jae	 SHORT $LN11@IsCantFigh
$LN12@IsCantFigh:

; 1372 :         return _Get_scary()->_Myhead;

  00031	8b ce		 mov	 ecx, esi
$LN11@IsCantFigh:
; File E:\Metin2_server\SolWayneSF v6\ClientVS22\source\UserInterface\PythonPlayer.cpp

; 1482 : 	return m_CantFightInstanceSet.end() != m_CantFightInstanceSet.find(dwVID);

  00033	3b f1		 cmp	 esi, ecx
  00035	5e		 pop	 esi
  00036	0f 95 c0	 setne	 al

; 1483 : }

  00039	8b e5		 mov	 esp, ebp
  0003b	5d		 pop	 ebp
  0003c	c2 04 00	 ret	 4
?IsCantFightInstance@CPythonPlayer@@QAE_NK@Z ENDP	; CPythonPlayer::IsCantFightInstance
_TEXT	ENDS
; Function compile flags: /Ogtp
; File E:\Metin2_server\SolWayneSF v6\ClientVS22\source\UserInterface\PythonPlayer.cpp
;	COMDAT ?IsOpenPrivateShop@CPythonPlayer@@QAE_NXZ
_TEXT	SEGMENT
?IsOpenPrivateShop@CPythonPlayer@@QAE_NXZ PROC		; CPythonPlayer::IsOpenPrivateShop, COMDAT
; _this$ = ecx

; 1496 : 	return m_isOpenPrivateShop;

  00000	8a 81 54 2e 01
	00		 mov	 al, BYTE PTR [ecx+77396]

; 1497 : }

  00006	c3		 ret	 0
?IsOpenPrivateShop@CPythonPlayer@@QAE_NXZ ENDP		; CPythonPlayer::IsOpenPrivateShop
_TEXT	ENDS
; Function compile flags: /Ogtp
; File E:\Metin2_server\SolWayneSF v6\ClientVS22\source\UserInterface\PythonPlayer.cpp
;	COMDAT ?SetObserverMode@CPythonPlayer@@UAEX_N@Z
_TEXT	SEGMENT
_isEnable$ = 8						; size = 1
?SetObserverMode@CPythonPlayer@@UAEX_N@Z PROC		; CPythonPlayer::SetObserverMode, COMDAT
; _this$ = ecx

; 1500 : {

  00000	55		 push	 ebp
  00001	8b ec		 mov	 ebp, esp

; 1501 : 	m_isObserverMode=isEnable;

  00003	8a 45 08	 mov	 al, BYTE PTR _isEnable$[ebp]
  00006	88 81 51 2e 01
	00		 mov	 BYTE PTR [ecx+77393], al

; 1502 : }

  0000c	5d		 pop	 ebp
  0000d	c2 04 00	 ret	 4
?SetObserverMode@CPythonPlayer@@UAEX_N@Z ENDP		; CPythonPlayer::SetObserverMode
_TEXT	ENDS
; Function compile flags: /Ogtp
; File E:\Metin2_server\SolWayneSF v6\ClientVS22\source\UserInterface\PythonPlayer.cpp
;	COMDAT ?__ToggleCoolTime@CPythonPlayer@@QAEHXZ
_TEXT	SEGMENT
?__ToggleCoolTime@CPythonPlayer@@QAEHXZ PROC		; CPythonPlayer::__ToggleCoolTime, COMDAT
; _this$ = ecx

; 1512 : 	m_sysIsCoolTime = 1 - m_sysIsCoolTime;

  00000	b8 01 00 00 00	 mov	 eax, 1
  00005	2b 81 6c 2e 01
	00		 sub	 eax, DWORD PTR [ecx+77420]
  0000b	89 81 6c 2e 01
	00		 mov	 DWORD PTR [ecx+77420], eax

; 1513 : 	return m_sysIsCoolTime;
; 1514 : }

  00011	c3		 ret	 0
?__ToggleCoolTime@CPythonPlayer@@QAEHXZ ENDP		; CPythonPlayer::__ToggleCoolTime
_TEXT	ENDS
; Function compile flags: /Ogtp
; File E:\Metin2_server\SolWayneSF v6\ClientVS22\source\UserInterface\PythonPlayer.cpp
;	COMDAT ?__ToggleLevelLimit@CPythonPlayer@@QAEHXZ
_TEXT	SEGMENT
?__ToggleLevelLimit@CPythonPlayer@@QAEHXZ PROC		; CPythonPlayer::__ToggleLevelLimit, COMDAT
; _this$ = ecx

; 1518 : 	m_sysIsLevelLimit = 1 - m_sysIsLevelLimit;

  00000	b8 01 00 00 00	 mov	 eax, 1
  00005	2b 81 70 2e 01
	00		 sub	 eax, DWORD PTR [ecx+77424]
  0000b	89 81 70 2e 01
	00		 mov	 DWORD PTR [ecx+77424], eax

; 1519 : 	return m_sysIsLevelLimit;
; 1520 : }

  00011	c3		 ret	 0
?__ToggleLevelLimit@CPythonPlayer@@QAEHXZ ENDP		; CPythonPlayer::__ToggleLevelLimit
_TEXT	ENDS
; Function compile flags: /Ogtp
; File E:\Metin2_server\SolWayneSF v6\ClientVS22\source\UserInterface\PythonPlayer.cpp
;	COMDAT ?StartStaminaConsume@CPythonPlayer@@UAEXKK@Z
_TEXT	SEGMENT
_dwConsumePerSec$ = 8					; size = 4
_dwCurrentStamina$ = 12					; size = 4
?StartStaminaConsume@CPythonPlayer@@UAEXKK@Z PROC	; CPythonPlayer::StartStaminaConsume, COMDAT
; _this$ = ecx

; 1523 : {

  00000	55		 push	 ebp
  00001	8b ec		 mov	 ebp, esp
  00003	83 e4 f8	 and	 esp, -8			; fffffff8H

; 1524 : 	m_isConsumingStamina = TRUE;
; 1525 : 	m_fConsumeStaminaPerSec = float(dwConsumePerSec);

  00006	8b 45 08	 mov	 eax, DWORD PTR _dwConsumePerSec$[ebp]
  00009	8b d1		 mov	 edx, ecx

; 1526 : 	m_fCurrentStamina = float(dwCurrentStamina);

  0000b	8b 4d 0c	 mov	 ecx, DWORD PTR _dwCurrentStamina$[ebp]

; 1527 : 
; 1528 : 	SetStatus(POINT_STAMINA, dwCurrentStamina);

  0000e	6a 00		 push	 0
  00010	51		 push	 ecx
  00011	66 0f 6e c0	 movd	 xmm0, eax
  00015	f3 0f e6 c0	 cvtdq2pd xmm0, xmm0
  00019	c1 e8 1f	 shr	 eax, 31			; 0000001fH
  0001c	6a 09		 push	 9
  0001e	c7 82 54 2e 01
	00 01 00 00 00	 mov	 DWORD PTR [edx+77396], 1
  00028	f2 0f 58 04 c5
	00 00 00 00	 addsd	 xmm0, QWORD PTR __xmm@41f00000000000000000000000000000[eax*8]
  00031	8b c1		 mov	 eax, ecx
  00033	c1 e8 1f	 shr	 eax, 31			; 0000001fH
  00036	66 0f 5a c0	 cvtpd2ps xmm0, xmm0
  0003a	f3 0f 11 82 5c
	2e 01 00	 movss	 DWORD PTR [edx+77404], xmm0
  00042	66 0f 6e c1	 movd	 xmm0, ecx
  00046	8d 4a fc	 lea	 ecx, DWORD PTR [edx-4]
  00049	f3 0f e6 c0	 cvtdq2pd xmm0, xmm0
  0004d	f2 0f 58 04 c5
	00 00 00 00	 addsd	 xmm0, QWORD PTR __xmm@41f00000000000000000000000000000[eax*8]
  00056	66 0f 5a c0	 cvtpd2ps xmm0, xmm0
  0005a	f3 0f 11 82 58
	2e 01 00	 movss	 DWORD PTR [edx+77400], xmm0
  00062	e8 00 00 00 00	 call	 ?SetStatus@CPythonPlayer@@QAEXK_J@Z ; CPythonPlayer::SetStatus

; 1529 : }

  00067	8b e5		 mov	 esp, ebp
  00069	5d		 pop	 ebp
  0006a	c2 08 00	 ret	 8
?StartStaminaConsume@CPythonPlayer@@UAEXKK@Z ENDP	; CPythonPlayer::StartStaminaConsume
_TEXT	ENDS
; Function compile flags: /Ogtp
; File E:\Metin2_server\SolWayneSF v6\ClientVS22\source\UserInterface\PythonPlayer.cpp
;	COMDAT ?StopStaminaConsume@CPythonPlayer@@UAEXK@Z
_TEXT	SEGMENT
_dwCurrentStamina$ = 8					; size = 4
?StopStaminaConsume@CPythonPlayer@@UAEXK@Z PROC		; CPythonPlayer::StopStaminaConsume, COMDAT
; _this$ = ecx

; 1532 : {

  00000	55		 push	 ebp
  00001	8b ec		 mov	 ebp, esp
  00003	83 e4 f8	 and	 esp, -8			; fffffff8H

; 1533 : 	m_isConsumingStamina = FALSE;
; 1534 : 	m_fConsumeStaminaPerSec = 0.0f;
; 1535 : 	m_fCurrentStamina = float(dwCurrentStamina);

  00006	8b 55 08	 mov	 edx, DWORD PTR _dwCurrentStamina$[ebp]
  00009	8b c2		 mov	 eax, edx
  0000b	c1 e8 1f	 shr	 eax, 31			; 0000001fH

; 1536 : 
; 1537 : 	SetStatus(POINT_STAMINA, dwCurrentStamina);

  0000e	6a 00		 push	 0
  00010	52		 push	 edx
  00011	66 0f 6e c2	 movd	 xmm0, edx
  00015	f3 0f e6 c0	 cvtdq2pd xmm0, xmm0
  00019	c7 81 54 2e 01
	00 00 00 00 00	 mov	 DWORD PTR [ecx+77396], 0
  00023	c7 81 5c 2e 01
	00 00 00 00 00	 mov	 DWORD PTR [ecx+77404], 0
  0002d	6a 09		 push	 9
  0002f	f2 0f 58 04 c5
	00 00 00 00	 addsd	 xmm0, QWORD PTR __xmm@41f00000000000000000000000000000[eax*8]
  00038	66 0f 5a c0	 cvtpd2ps xmm0, xmm0
  0003c	f3 0f 11 81 58
	2e 01 00	 movss	 DWORD PTR [ecx+77400], xmm0
  00044	83 c1 fc	 add	 ecx, -4			; fffffffcH
  00047	e8 00 00 00 00	 call	 ?SetStatus@CPythonPlayer@@QAEXK_J@Z ; CPythonPlayer::SetStatus

; 1538 : }

  0004c	8b e5		 mov	 esp, ebp
  0004e	5d		 pop	 ebp
  0004f	c2 04 00	 ret	 4
?StopStaminaConsume@CPythonPlayer@@UAEXK@Z ENDP		; CPythonPlayer::StopStaminaConsume
_TEXT	ENDS
; Function compile flags: /Ogtp
; File E:\Metin2_server\SolWayneSF v6\ClientVS22\source\UserInterface\PythonPlayer.cpp
;	COMDAT ?GetPKMode@CPythonPlayer@@QAEKXZ
_TEXT	SEGMENT
?GetPKMode@CPythonPlayer@@QAEKXZ PROC			; CPythonPlayer::GetPKMode, COMDAT
; _this$ = ecx

; 1542 : 	CInstanceBase * pInstance = NEW_GetMainActorPtr();

  00000	8b 41 04	 mov	 eax, DWORD PTR [ecx+4]
  00003	83 c1 04	 add	 ecx, 4
  00006	ff 90 88 00 00
	00		 call	 DWORD PTR [eax+136]

; 1543 : 	if (!pInstance)

  0000c	85 c0		 test	 eax, eax
  0000e	75 01		 jne	 SHORT $LN2@GetPKMode

; 1547 : }

  00010	c3		 ret	 0
$LN2@GetPKMode:

; 1544 : 		return 0;
; 1545 : 
; 1546 : 	return pInstance->GetPKMode();

  00011	8b c8		 mov	 ecx, eax
  00013	e8 00 00 00 00	 call	 ?GetPKMode@CInstanceBase@@QAEEXZ ; CInstanceBase::GetPKMode
  00018	0f b6 c0	 movzx	 eax, al

; 1547 : }

  0001b	c3		 ret	 0
?GetPKMode@CPythonPlayer@@QAEKXZ ENDP			; CPythonPlayer::GetPKMode
_TEXT	ENDS
; Function compile flags: /Ogtp
; File E:\Metin2_server\SolWayneSF v6\ClientVS22\source\UserInterface\PythonPlayer.cpp
;	COMDAT ?SetMobileFlag@CPythonPlayer@@UAEXH@Z
_TEXT	SEGMENT
_bFlag$ = 8						; size = 4
?SetMobileFlag@CPythonPlayer@@UAEXH@Z PROC		; CPythonPlayer::SetMobileFlag, COMDAT
; _this$ = ecx

; 1550 : {

  00000	55		 push	 ebp
  00001	8b ec		 mov	 ebp, esp

; 1551 : 	m_bMobileFlag = bFlag;

  00003	8b 45 08	 mov	 eax, DWORD PTR _bFlag$[ebp]
  00006	56		 push	 esi
  00007	8b f1		 mov	 esi, ecx

; 1552 : 	PyCallClassMemberFunc(m_ppyGameWindow, "RefreshMobile", Py_BuildValue("()"));

  00009	68 00 00 00 00	 push	 OFFSET ??_C@_02HCKGKOFO@?$CI?$CJ@
  0000e	89 86 64 2e 01
	00		 mov	 DWORD PTR [esi+77412], eax
  00014	ff 15 00 00 00
	00		 call	 DWORD PTR __imp__Py_BuildValue
  0001a	50		 push	 eax
  0001b	68 00 00 00 00	 push	 OFFSET ??_C@_0O@EHNHNBIB@RefreshMobile@
  00020	ff 76 04	 push	 DWORD PTR [esi+4]
  00023	e8 00 00 00 00	 call	 ?PyCallClassMemberFunc@@YA_NPAU_object@@PBD0@Z ; PyCallClassMemberFunc
  00028	83 c4 10	 add	 esp, 16			; 00000010H
  0002b	5e		 pop	 esi

; 1553 : }

  0002c	5d		 pop	 ebp
  0002d	c2 04 00	 ret	 4
?SetMobileFlag@CPythonPlayer@@UAEXH@Z ENDP		; CPythonPlayer::SetMobileFlag
_TEXT	ENDS
; Function compile flags: /Ogtp
; File E:\Metin2_server\SolWayneSF v6\ClientVS22\source\UserInterface\PythonPlayer.cpp
;	COMDAT ?HasMobilePhoneNumber@CPythonPlayer@@QAEHXZ
_TEXT	SEGMENT
?HasMobilePhoneNumber@CPythonPlayer@@QAEHXZ PROC	; CPythonPlayer::HasMobilePhoneNumber, COMDAT
; _this$ = ecx

; 1557 : 	return m_bMobileFlag;

  00000	8b 81 68 2e 01
	00		 mov	 eax, DWORD PTR [ecx+77416]

; 1558 : }

  00006	c3		 ret	 0
?HasMobilePhoneNumber@CPythonPlayer@@QAEHXZ ENDP	; CPythonPlayer::HasMobilePhoneNumber
_TEXT	ENDS
; Function compile flags: /Ogtp
; File E:\Metin2_server\SolWayneSF v6\ClientVS22\source\UserInterface\PythonPlayer.cpp
;	COMDAT ?SetGameWindow@CPythonPlayer@@QAEXPAU_object@@@Z
_TEXT	SEGMENT
_ppyObject$ = 8						; size = 4
?SetGameWindow@CPythonPlayer@@QAEXPAU_object@@@Z PROC	; CPythonPlayer::SetGameWindow, COMDAT
; _this$ = ecx

; 1561 : {

  00000	55		 push	 ebp
  00001	8b ec		 mov	 ebp, esp

; 1562 : 	m_ppyGameWindow = ppyObject;

  00003	8b 45 08	 mov	 eax, DWORD PTR _ppyObject$[ebp]
  00006	89 41 08	 mov	 DWORD PTR [ecx+8], eax

; 1563 : }

  00009	5d		 pop	 ebp
  0000a	c2 04 00	 ret	 4
?SetGameWindow@CPythonPlayer@@QAEXPAU_object@@@Z ENDP	; CPythonPlayer::SetGameWindow
_TEXT	ENDS
; Function compile flags: /Ogtp
; File E:\Metin2_server\SolWayneSF v6\ClientVS22\source\UserInterface\PythonPlayer.cpp
; File C:\Program Files\Microsoft Visual Studio\2022\Community\VC\Tools\MSVC\14.34.31933\include\xtree
; File E:\Metin2_server\SolWayneSF v6\ClientVS22\source\UserInterface\PythonPlayer.cpp
; File C:\Program Files\Microsoft Visual Studio\2022\Community\VC\Tools\MSVC\14.34.31933\include\xtree
; File E:\Metin2_server\SolWayneSF v6\ClientVS22\source\UserInterface\PythonPlayer.cpp
; File C:\Program Files\Microsoft Visual Studio\2022\Community\VC\Tools\MSVC\14.34.31933\include\xtree
; File E:\Metin2_server\SolWayneSF v6\ClientVS22\source\UserInterface\PythonPlayer.cpp
;	COMDAT ?ClearSkillDict@CPythonPlayer@@QAEXXZ
_TEXT	SEGMENT
?ClearSkillDict@CPythonPlayer@@QAEXXZ PROC		; CPythonPlayer::ClearSkillDict, COMDAT
; _this$ = ecx

; 1595 : {

  00000	53		 push	 ebx
  00001	56		 push	 esi
  00002	8b d9		 mov	 ebx, ecx
; File C:\Program Files\Microsoft Visual Studio\2022\Community\VC\Tools\MSVC\14.34.31933\include\xtree

; 1356 :         auto _Head = _Scary->_Myhead;

  00004	8b 73 0c	 mov	 esi, DWORD PTR [ebx+12]
; File E:\Metin2_server\SolWayneSF v6\ClientVS22\source\UserInterface\PythonPlayer.cpp

; 1595 : {

  00007	57		 push	 edi

; 1596 : 	// ClearSkillDict
; 1597 : 	m_skillSlotDict.clear();

  00008	8d 7b 0c	 lea	 edi, DWORD PTR [ebx+12]
; File C:\Program Files\Microsoft Visual Studio\2022\Community\VC\Tools\MSVC\14.34.31933\include\xtree

; 1357 :         _Scary->_Erase_tree(_Getal(), _Head->_Parent);

  0000b	8b cf		 mov	 ecx, edi
  0000d	ff 76 04	 push	 DWORD PTR [esi+4]
  00010	57		 push	 edi
  00011	e8 00 00 00 00	 call	 ??$_Erase_tree@V?$allocator@U?$_Tree_node@U?$pair@$$CBKK@std@@PAX@std@@@std@@@?$_Tree_val@U?$_Tree_simple_types@U?$pair@$$CBKK@std@@@std@@@std@@QAEXAAV?$allocator@U?$_Tree_node@U?$pair@$$CBKK@std@@PAX@std@@@1@PAU?$_Tree_node@U?$pair@$$CBKK@std@@PAX@1@@Z ; std::_Tree_val<std::_Tree_simple_types<std::pair<unsigned long const ,unsigned long> > >::_Erase_tree<std::allocator<std::_Tree_node<std::pair<unsigned long const ,unsigned long>,void *> > >

; 1358 :         _Head->_Parent  = _Head;

  00016	89 76 04	 mov	 DWORD PTR [esi+4], esi
; File E:\Metin2_server\SolWayneSF v6\ClientVS22\source\UserInterface\PythonPlayer.cpp

; 1609 : 	__ClearAutoAttackTargetActorID();

  00019	8b cb		 mov	 ecx, ebx
; File C:\Program Files\Microsoft Visual Studio\2022\Community\VC\Tools\MSVC\14.34.31933\include\xtree

; 1359 :         _Head->_Left    = _Head;

  0001b	89 36		 mov	 DWORD PTR [esi], esi

; 1360 :         _Head->_Right   = _Head;

  0001d	89 76 08	 mov	 DWORD PTR [esi+8], esi

; 1361 :         _Scary->_Mysize = 0;

  00020	c7 47 04 00 00
	00 00		 mov	 DWORD PTR [edi+4], 0
; File E:\Metin2_server\SolWayneSF v6\ClientVS22\source\UserInterface\PythonPlayer.cpp

; 1609 : 	__ClearAutoAttackTargetActorID();

  00027	5f		 pop	 edi
  00028	5e		 pop	 esi
  00029	66 c7 83 54 2e
	01 00 00 00	 mov	 WORD PTR [ebx+77396], 0
  00032	c7 83 58 2e 01
	00 00 00 00 00	 mov	 DWORD PTR [ebx+77400], 0
  0003c	c7 83 60 2e 01
	00 00 00 00 00	 mov	 DWORD PTR [ebx+77408], 0
  00046	c7 83 5c 2e 01
	00 00 00 00 00	 mov	 DWORD PTR [ebx+77404], 0
  00050	c7 83 68 2e 01
	00 00 00 00 00	 mov	 DWORD PTR [ebx+77416], 0
  0005a	5b		 pop	 ebx
  0005b	e9 00 00 00 00	 jmp	 ?__ClearAutoAttackTargetActorID@CPythonPlayer@@IAEXXZ ; CPythonPlayer::__ClearAutoAttackTargetActorID
?ClearSkillDict@CPythonPlayer@@QAEXXZ ENDP		; CPythonPlayer::ClearSkillDict
_TEXT	ENDS
; Function compile flags: /Ogtp
;	COMDAT ??_GCPythonPlayer@@UAEPAXI@Z
_TEXT	SEGMENT
___flags$ = 8						; size = 4
??_GCPythonPlayer@@UAEPAXI@Z PROC			; CPythonPlayer::`scalar deleting destructor', COMDAT
; _this$ = ecx
  00000	55		 push	 ebp
  00001	8b ec		 mov	 ebp, esp
  00003	56		 push	 esi
  00004	8b f1		 mov	 esi, ecx
  00006	e8 00 00 00 00	 call	 ??1CPythonPlayer@@UAE@XZ ; CPythonPlayer::~CPythonPlayer
  0000b	f6 45 08 01	 test	 BYTE PTR ___flags$[ebp], 1
  0000f	74 0e		 je	 SHORT $LN4@scalar
  00011	68 d8 2e 01 00	 push	 77528			; 00012ed8H
  00016	56		 push	 esi
  00017	e8 00 00 00 00	 call	 ??3@YAXPAXI@Z		; operator delete
  0001c	83 c4 08	 add	 esp, 8
$LN4@scalar:
  0001f	8b c6		 mov	 eax, esi
  00021	5e		 pop	 esi
  00022	5d		 pop	 ebp
  00023	c2 04 00	 ret	 4
??_GCPythonPlayer@@UAEPAXI@Z ENDP			; CPythonPlayer::`scalar deleting destructor'
_TEXT	ENDS
; Function compile flags: /Ogtp
; File C:\Program Files\Microsoft Visual Studio\2022\Community\VC\Tools\MSVC\14.34.31933\include\xtree
; File C:\Program Files\Microsoft Visual Studio\2022\Community\VC\Tools\MSVC\14.34.31933\include\xmemory
;	COMDAT ??1?$map@KUSPartyMemberInfo@CPythonPlayer@@U?$less@K@std@@V?$allocator@U?$pair@$$CBKUSPartyMemberInfo@CPythonPlayer@@@std@@@4@@std@@QAE@XZ
_TEXT	SEGMENT
??1?$map@KUSPartyMemberInfo@CPythonPlayer@@U?$less@K@std@@V?$allocator@U?$pair@$$CBKUSPartyMemberInfo@CPythonPlayer@@@std@@@4@@std@@QAE@XZ PROC ; std::map<unsigned long,CPythonPlayer::SPartyMemberInfo,std::less<unsigned long>,std::allocator<std::pair<unsigned long const ,CPythonPlayer::SPartyMemberInfo> > >::~map<unsigned long,CPythonPlayer::SPartyMemberInfo,std::less<unsigned long>,std::allocator<std::pair<unsigned long const ,CPythonPlayer::SPartyMemberInfo> > >, COMDAT
; _this$ = ecx
; File C:\Program Files\Microsoft Visual Studio\2022\Community\VC\Tools\MSVC\14.34.31933\include\xtree

; 754  :         _Erase_tree(_Al, _Myhead->_Parent);

  00000	56		 push	 esi
  00001	8b f1		 mov	 esi, ecx
  00003	8b 06		 mov	 eax, DWORD PTR [esi]
  00005	ff 70 04	 push	 DWORD PTR [eax+4]
  00008	56		 push	 esi
  00009	e8 00 00 00 00	 call	 ??$_Erase_tree@V?$allocator@U?$_Tree_node@U?$pair@$$CBKUSPartyMemberInfo@CPythonPlayer@@@std@@PAX@std@@@std@@@?$_Tree_val@U?$_Tree_simple_types@U?$pair@$$CBKUSPartyMemberInfo@CPythonPlayer@@@std@@@std@@@std@@QAEXAAV?$allocator@U?$_Tree_node@U?$pair@$$CBKUSPartyMemberInfo@CPythonPlayer@@@std@@PAX@std@@@1@PAU?$_Tree_node@U?$pair@$$CBKUSPartyMemberInfo@CPythonPlayer@@@std@@PAX@1@@Z ; std::_Tree_val<std::_Tree_simple_types<std::pair<unsigned long const ,CPythonPlayer::SPartyMemberInfo> > >::_Erase_tree<std::allocator<std::_Tree_node<std::pair<unsigned long const ,CPythonPlayer::SPartyMemberInfo>,void *> > >
; File C:\Program Files\Microsoft Visual Studio\2022\Community\VC\Tools\MSVC\14.34.31933\include\xmemory

; 255  :         ::operator delete(_Ptr, _Bytes);

  0000e	6a 44		 push	 68			; 00000044H
  00010	ff 36		 push	 DWORD PTR [esi]
  00012	e8 00 00 00 00	 call	 ??3@YAXPAXI@Z		; operator delete
  00017	83 c4 08	 add	 esp, 8
  0001a	5e		 pop	 esi
  0001b	c3		 ret	 0
??1?$map@KUSPartyMemberInfo@CPythonPlayer@@U?$less@K@std@@V?$allocator@U?$pair@$$CBKUSPartyMemberInfo@CPythonPlayer@@@std@@@4@@std@@QAE@XZ ENDP ; std::map<unsigned long,CPythonPlayer::SPartyMemberInfo,std::less<unsigned long>,std::allocator<std::pair<unsigned long const ,CPythonPlayer::SPartyMemberInfo> > >::~map<unsigned long,CPythonPlayer::SPartyMemberInfo,std::less<unsigned long>,std::allocator<std::pair<unsigned long const ,CPythonPlayer::SPartyMemberInfo> > >
_TEXT	ENDS
; Function compile flags: /Ogtp
; File C:\Program Files\Microsoft Visual Studio\2022\Community\VC\Tools\MSVC\14.34.31933\include\xtree
;	COMDAT ??E?$_Tree_iterator@V?$_Tree_val@U?$_Tree_simple_types@U?$pair@$$CBKUSPartyMemberInfo@CPythonPlayer@@@std@@@std@@@std@@@std@@QAEAAV01@XZ
_TEXT	SEGMENT
??E?$_Tree_iterator@V?$_Tree_val@U?$_Tree_simple_types@U?$pair@$$CBKUSPartyMemberInfo@CPythonPlayer@@@std@@@std@@@std@@@std@@QAEAAV01@XZ PROC ; std::_Tree_iterator<std::_Tree_val<std::_Tree_simple_types<std::pair<unsigned long const ,CPythonPlayer::SPartyMemberInfo> > > >::operator++, COMDAT
; _this$ = ecx

; 282  :     _Tree_iterator& operator++() noexcept {

  00000	56		 push	 esi
  00001	8b f1		 mov	 esi, ecx

; 199  :         _Mybase::operator++();

  00003	e8 00 00 00 00	 call	 ??E?$_Tree_unchecked_const_iterator@V?$_Tree_val@U?$_Tree_simple_types@U?$pair@$$CBKUSPartyMemberInfo@CPythonPlayer@@@std@@@std@@@std@@U_Iterator_base0@2@@std@@QAEAAV01@XZ ; std::_Tree_unchecked_const_iterator<std::_Tree_val<std::_Tree_simple_types<std::pair<unsigned long const ,CPythonPlayer::SPartyMemberInfo> > >,std::_Iterator_base0>::operator++

; 283  :         _Mybase::operator++();
; 284  :         return *this;

  00008	8b c6		 mov	 eax, esi
  0000a	5e		 pop	 esi

; 285  :     }

  0000b	c3		 ret	 0
??E?$_Tree_iterator@V?$_Tree_val@U?$_Tree_simple_types@U?$pair@$$CBKUSPartyMemberInfo@CPythonPlayer@@@std@@@std@@@std@@@std@@QAEAAV01@XZ ENDP ; std::_Tree_iterator<std::_Tree_val<std::_Tree_simple_types<std::pair<unsigned long const ,CPythonPlayer::SPartyMemberInfo> > > >::operator++
_TEXT	ENDS
; Function compile flags: /Ogtp
; File C:\Program Files\Microsoft Visual Studio\2022\Community\VC\Tools\MSVC\14.34.31933\include\xtree
;	COMDAT ??C?$_Tree_iterator@V?$_Tree_val@U?$_Tree_simple_types@U?$pair@$$CBKUSPartyMemberInfo@CPythonPlayer@@@std@@@std@@@std@@@std@@QBEPAU?$pair@$$CBKUSPartyMemberInfo@CPythonPlayer@@@1@XZ
_TEXT	SEGMENT
??C?$_Tree_iterator@V?$_Tree_val@U?$_Tree_simple_types@U?$pair@$$CBKUSPartyMemberInfo@CPythonPlayer@@@std@@@std@@@std@@@std@@QBEPAU?$pair@$$CBKUSPartyMemberInfo@CPythonPlayer@@@1@XZ PROC ; std::_Tree_iterator<std::_Tree_val<std::_Tree_simple_types<std::pair<unsigned long const ,CPythonPlayer::SPartyMemberInfo> > > >::operator->, COMDAT
; _this$ = ecx

; 186  :         return this->_Ptr->_Myval;

  00000	8b 01		 mov	 eax, DWORD PTR [ecx]
  00002	83 c0 10	 add	 eax, 16			; 00000010H

; 279  :         return pointer_traits<pointer>::pointer_to(**this);
; 280  :     }

  00005	c3		 ret	 0
??C?$_Tree_iterator@V?$_Tree_val@U?$_Tree_simple_types@U?$pair@$$CBKUSPartyMemberInfo@CPythonPlayer@@@std@@@std@@@std@@@std@@QBEPAU?$pair@$$CBKUSPartyMemberInfo@CPythonPlayer@@@1@XZ ENDP ; std::_Tree_iterator<std::_Tree_val<std::_Tree_simple_types<std::pair<unsigned long const ,CPythonPlayer::SPartyMemberInfo> > > >::operator->
_TEXT	ENDS
; Function compile flags: /Ogtp
; File C:\Program Files\Microsoft Visual Studio\2022\Community\VC\Tools\MSVC\14.34.31933\include\xtree
;	COMDAT ??8?$_Tree_const_iterator@V?$_Tree_val@U?$_Tree_simple_types@U?$pair@$$CBKUSPartyMemberInfo@CPythonPlayer@@@std@@@std@@@std@@@std@@QBE_NABV01@@Z
_TEXT	SEGMENT
__Right$ = 8						; size = 4
??8?$_Tree_const_iterator@V?$_Tree_val@U?$_Tree_simple_types@U?$pair@$$CBKUSPartyMemberInfo@CPythonPlayer@@@std@@@std@@@std@@@std@@QBE_NABV01@@Z PROC ; std::_Tree_const_iterator<std::_Tree_val<std::_Tree_simple_types<std::pair<unsigned long const ,CPythonPlayer::SPartyMemberInfo> > > >::operator==, COMDAT
; _this$ = ecx

; 228  :     _NODISCARD bool operator==(const _Tree_const_iterator& _Right) const noexcept {

  00000	55		 push	 ebp
  00001	8b ec		 mov	 ebp, esp

; 229  : #if _ITERATOR_DEBUG_LEVEL == 2
; 230  :         _STL_VERIFY(this->_Getcont() == _Right._Getcont(), "map/set iterators incompatible");
; 231  : #endif // _ITERATOR_DEBUG_LEVEL == 2
; 232  : 
; 233  :         return this->_Ptr == _Right._Ptr;

  00003	8b 45 08	 mov	 eax, DWORD PTR __Right$[ebp]
  00006	8b 09		 mov	 ecx, DWORD PTR [ecx]
  00008	3b 08		 cmp	 ecx, DWORD PTR [eax]
  0000a	0f 94 c0	 sete	 al

; 234  :     }

  0000d	5d		 pop	 ebp
  0000e	c2 04 00	 ret	 4
??8?$_Tree_const_iterator@V?$_Tree_val@U?$_Tree_simple_types@U?$pair@$$CBKUSPartyMemberInfo@CPythonPlayer@@@std@@@std@@@std@@@std@@QBE_NABV01@@Z ENDP ; std::_Tree_const_iterator<std::_Tree_val<std::_Tree_simple_types<std::pair<unsigned long const ,CPythonPlayer::SPartyMemberInfo> > > >::operator==
_TEXT	ENDS
; Function compile flags: /Ogtp
; File C:\Program Files\Microsoft Visual Studio\2022\Community\VC\Tools\MSVC\14.34.31933\include\map
; File C:\Program Files\Microsoft Visual Studio\2022\Community\VC\Tools\MSVC\14.34.31933\include\xmemory
; File C:\Program Files\Microsoft Visual Studio\2022\Community\VC\Tools\MSVC\14.34.31933\include\map
; File C:\Program Files\Microsoft Visual Studio\2022\Community\VC\Tools\MSVC\14.34.31933\include\xtree
; File C:\Program Files\Microsoft Visual Studio\2022\Community\VC\Tools\MSVC\14.34.31933\include\xmemory
; File C:\Program Files\Microsoft Visual Studio\2022\Community\VC\Tools\MSVC\14.34.31933\include\xtree
; File C:\Program Files\Microsoft Visual Studio\2022\Community\VC\Tools\MSVC\14.34.31933\include\map
;	COMDAT ??0?$map@KUSPartyMemberInfo@CPythonPlayer@@U?$less@K@std@@V?$allocator@U?$pair@$$CBKUSPartyMemberInfo@CPythonPlayer@@@std@@@4@@std@@QAE@XZ
_TEXT	SEGMENT
_this$ = -4						; size = 4
??0?$map@KUSPartyMemberInfo@CPythonPlayer@@U?$less@K@std@@V?$allocator@U?$pair@$$CBKUSPartyMemberInfo@CPythonPlayer@@@std@@@4@@std@@QAE@XZ PROC ; std::map<unsigned long,CPythonPlayer::SPartyMemberInfo,std::less<unsigned long>,std::allocator<std::pair<unsigned long const ,CPythonPlayer::SPartyMemberInfo> > >::map<unsigned long,CPythonPlayer::SPartyMemberInfo,std::less<unsigned long>,std::allocator<std::pair<unsigned long const ,CPythonPlayer::SPartyMemberInfo> > >, COMDAT
; _this$ = ecx

; 105  :     map() : _Mybase(key_compare()) {}

  00000	55		 push	 ebp
  00001	8b ec		 mov	 ebp, esp
  00003	51		 push	 ecx
  00004	56		 push	 esi
  00005	8b f1		 mov	 esi, ecx
; File C:\Program Files\Microsoft Visual Studio\2022\Community\VC\Tools\MSVC\14.34.31933\include\xmemory

; 77   :         return ::operator new(_Bytes);

  00007	6a 44		 push	 68			; 00000044H
; File C:\Program Files\Microsoft Visual Studio\2022\Community\VC\Tools\MSVC\14.34.31933\include\map

; 105  :     map() : _Mybase(key_compare()) {}

  00009	89 75 fc	 mov	 DWORD PTR _this$[ebp], esi
; File C:\Program Files\Microsoft Visual Studio\2022\Community\VC\Tools\MSVC\14.34.31933\include\xtree

; 437  :     _Tree_val() noexcept : _Myhead(), _Mysize(0) {}

  0000c	c7 06 00 00 00
	00		 mov	 DWORD PTR [esi], 0
  00012	c7 46 04 00 00
	00 00		 mov	 DWORD PTR [esi+4], 0
; File C:\Program Files\Microsoft Visual Studio\2022\Community\VC\Tools\MSVC\14.34.31933\include\xmemory

; 77   :         return ::operator new(_Bytes);

  00019	e8 00 00 00 00	 call	 ??2@YAPAXI@Z		; operator new
  0001e	83 c4 04	 add	 esp, 4
; File C:\Program Files\Microsoft Visual Studio\2022\Community\VC\Tools\MSVC\14.34.31933\include\xtree

; 347  :         _Construct_in_place(_Pnode->_Left, _Pnode);

  00021	89 00		 mov	 DWORD PTR [eax], eax

; 348  :         _Construct_in_place(_Pnode->_Parent, _Pnode);

  00023	89 40 04	 mov	 DWORD PTR [eax+4], eax

; 349  :         _Construct_in_place(_Pnode->_Right, _Pnode);

  00026	89 40 08	 mov	 DWORD PTR [eax+8], eax

; 350  :         _Pnode->_Color = _Black;

  00029	66 c7 40 0c 01
	01		 mov	 WORD PTR [eax+12], 257	; 00000101H

; 1941 :         _Scary->_Myhead = _Node::_Buyheadnode(_Getal());

  0002f	89 06		 mov	 DWORD PTR [esi], eax
; File C:\Program Files\Microsoft Visual Studio\2022\Community\VC\Tools\MSVC\14.34.31933\include\map

; 105  :     map() : _Mybase(key_compare()) {}

  00031	8b c6		 mov	 eax, esi
  00033	5e		 pop	 esi
  00034	8b e5		 mov	 esp, ebp
  00036	5d		 pop	 ebp
  00037	c3		 ret	 0
??0?$map@KUSPartyMemberInfo@CPythonPlayer@@U?$less@K@std@@V?$allocator@U?$pair@$$CBKUSPartyMemberInfo@CPythonPlayer@@@std@@@4@@std@@QAE@XZ ENDP ; std::map<unsigned long,CPythonPlayer::SPartyMemberInfo,std::less<unsigned long>,std::allocator<std::pair<unsigned long const ,CPythonPlayer::SPartyMemberInfo> > >::map<unsigned long,CPythonPlayer::SPartyMemberInfo,std::less<unsigned long>,std::allocator<std::pair<unsigned long const ,CPythonPlayer::SPartyMemberInfo> > >
_TEXT	ENDS
; Function compile flags: /Ogtp
; File C:\Program Files\Microsoft Visual Studio\2022\Community\VC\Tools\MSVC\14.34.31933\include\xtree
; File C:\Program Files\Microsoft Visual Studio\2022\Community\VC\Tools\MSVC\14.34.31933\include\xstddef
; File C:\Program Files\Microsoft Visual Studio\2022\Community\VC\Tools\MSVC\14.34.31933\include\xtree
;	COMDAT ?find@?$_Tree@V?$_Tmap_traits@KUSPartyMemberInfo@CPythonPlayer@@U?$less@K@std@@V?$allocator@U?$pair@$$CBKUSPartyMemberInfo@CPythonPlayer@@@std@@@4@$0A@@std@@@std@@QAE?AV?$_Tree_iterator@V?$_Tree_val@U?$_Tree_simple_types@U?$pair@$$CBKUSPartyMemberInfo@CPythonPlayer@@@std@@@std@@@std@@@2@ABK@Z
_TEXT	SEGMENT
__Loc$1 = -12						; size = 12
___$ReturnUdt$ = 8					; size = 4
__Keyval$ = 12						; size = 4
?find@?$_Tree@V?$_Tmap_traits@KUSPartyMemberInfo@CPythonPlayer@@U?$less@K@std@@V?$allocator@U?$pair@$$CBKUSPartyMemberInfo@CPythonPlayer@@@std@@@4@$0A@@std@@@std@@QAE?AV?$_Tree_iterator@V?$_Tree_val@U?$_Tree_simple_types@U?$pair@$$CBKUSPartyMemberInfo@CPythonPlayer@@@std@@@std@@@std@@@2@ABK@Z PROC ; std::_Tree<std::_Tmap_traits<unsigned long,CPythonPlayer::SPartyMemberInfo,std::less<unsigned long>,std::allocator<std::pair<unsigned long const ,CPythonPlayer::SPartyMemberInfo> >,0> >::find, COMDAT
; _this$ = ecx

; 1376 :     _NODISCARD iterator find(const key_type& _Keyval) {

  00000	55		 push	 ebp
  00001	8b ec		 mov	 ebp, esp
  00003	83 ec 0c	 sub	 esp, 12			; 0000000cH
  00006	56		 push	 esi

; 1367 :         const _Tree_find_result<_Nodeptr> _Loc = _Find_lower_bound(_Keyval);

  00007	8b 75 0c	 mov	 esi, DWORD PTR __Keyval$[ebp]
  0000a	8d 45 f4	 lea	 eax, DWORD PTR __Loc$1[ebp]

; 1376 :     _NODISCARD iterator find(const key_type& _Keyval) {

  0000d	57		 push	 edi

; 1367 :         const _Tree_find_result<_Nodeptr> _Loc = _Find_lower_bound(_Keyval);

  0000e	56		 push	 esi
  0000f	50		 push	 eax

; 1376 :     _NODISCARD iterator find(const key_type& _Keyval) {

  00010	8b f9		 mov	 edi, ecx

; 1367 :         const _Tree_find_result<_Nodeptr> _Loc = _Find_lower_bound(_Keyval);

  00012	e8 00 00 00 00	 call	 ??$_Find_lower_bound@K@?$_Tree@V?$_Tmap_traits@KUSPartyMemberInfo@CPythonPlayer@@U?$less@K@std@@V?$allocator@U?$pair@$$CBKUSPartyMemberInfo@CPythonPlayer@@@std@@@4@$0A@@std@@@std@@IBE?AU?$_Tree_find_result@PAU?$_Tree_node@U?$pair@$$CBKUSPartyMemberInfo@CPythonPlayer@@@std@@PAX@std@@@1@ABK@Z ; std::_Tree<std::_Tmap_traits<unsigned long,CPythonPlayer::SPartyMemberInfo,std::less<unsigned long>,std::allocator<std::pair<unsigned long const ,CPythonPlayer::SPartyMemberInfo> >,0> >::_Find_lower_bound<unsigned long>

; 1605 :         return !_Bound->_Isnil && !_DEBUG_LT_PRED(_Getcomp(), _Keyval, _Traits::_Kfn(_Bound->_Myval));

  00017	8b 55 fc	 mov	 edx, DWORD PTR __Loc$1[ebp+8]
  0001a	80 7a 0d 00	 cmp	 BYTE PTR [edx+13], 0
  0001e	75 14		 jne	 SHORT $LN4@find
; File C:\Program Files\Microsoft Visual Studio\2022\Community\VC\Tools\MSVC\14.34.31933\include\xstddef

; 143  :         return _Left < _Right;

  00020	8b 06		 mov	 eax, DWORD PTR [esi]
  00022	3b 42 10	 cmp	 eax, DWORD PTR [edx+16]
; File C:\Program Files\Microsoft Visual Studio\2022\Community\VC\Tools\MSVC\14.34.31933\include\xtree

; 1605 :         return !_Bound->_Isnil && !_DEBUG_LT_PRED(_Getcomp(), _Keyval, _Traits::_Kfn(_Bound->_Myval));

  00025	72 0d		 jb	 SHORT $LN4@find

; 38   :     _Tree_unchecked_const_iterator(_Nodeptr _Pnode, const _Mytree* _Plist) noexcept : _Ptr(_Pnode) {

  00027	8b 45 08	 mov	 eax, DWORD PTR ___$ReturnUdt$[ebp]
  0002a	5f		 pop	 edi

; 1377 :         return iterator(_Find(_Keyval), _Get_scary());
; 1378 :     }

  0002b	5e		 pop	 esi

; 38   :     _Tree_unchecked_const_iterator(_Nodeptr _Pnode, const _Mytree* _Plist) noexcept : _Ptr(_Pnode) {

  0002c	89 10		 mov	 DWORD PTR [eax], edx

; 1377 :         return iterator(_Find(_Keyval), _Get_scary());
; 1378 :     }

  0002e	8b e5		 mov	 esp, ebp
  00030	5d		 pop	 ebp
  00031	c2 08 00	 ret	 8
$LN4@find:

; 38   :     _Tree_unchecked_const_iterator(_Nodeptr _Pnode, const _Mytree* _Plist) noexcept : _Ptr(_Pnode) {

  00034	8b 45 08	 mov	 eax, DWORD PTR ___$ReturnUdt$[ebp]

; 1372 :         return _Get_scary()->_Myhead;

  00037	8b 0f		 mov	 ecx, DWORD PTR [edi]
  00039	5f		 pop	 edi

; 1377 :         return iterator(_Find(_Keyval), _Get_scary());
; 1378 :     }

  0003a	5e		 pop	 esi

; 38   :     _Tree_unchecked_const_iterator(_Nodeptr _Pnode, const _Mytree* _Plist) noexcept : _Ptr(_Pnode) {

  0003b	89 08		 mov	 DWORD PTR [eax], ecx

; 1377 :         return iterator(_Find(_Keyval), _Get_scary());
; 1378 :     }

  0003d	8b e5		 mov	 esp, ebp
  0003f	5d		 pop	 ebp
  00040	c2 08 00	 ret	 8
?find@?$_Tree@V?$_Tmap_traits@KUSPartyMemberInfo@CPythonPlayer@@U?$less@K@std@@V?$allocator@U?$pair@$$CBKUSPartyMemberInfo@CPythonPlayer@@@std@@@4@$0A@@std@@@std@@QAE?AV?$_Tree_iterator@V?$_Tree_val@U?$_Tree_simple_types@U?$pair@$$CBKUSPartyMemberInfo@CPythonPlayer@@@std@@@std@@@std@@@2@ABK@Z ENDP ; std::_Tree<std::_Tmap_traits<unsigned long,CPythonPlayer::SPartyMemberInfo,std::less<unsigned long>,std::allocator<std::pair<unsigned long const ,CPythonPlayer::SPartyMemberInfo> >,0> >::find
_TEXT	ENDS
; Function compile flags: /Ogtp
; File C:\Program Files\Microsoft Visual Studio\2022\Community\VC\Tools\MSVC\14.34.31933\include\xtree
;	COMDAT ?clear@?$_Tree@V?$_Tmap_traits@KUSPartyMemberInfo@CPythonPlayer@@U?$less@K@std@@V?$allocator@U?$pair@$$CBKUSPartyMemberInfo@CPythonPlayer@@@std@@@4@$0A@@std@@@std@@QAEXXZ
_TEXT	SEGMENT
?clear@?$_Tree@V?$_Tmap_traits@KUSPartyMemberInfo@CPythonPlayer@@U?$less@K@std@@V?$allocator@U?$pair@$$CBKUSPartyMemberInfo@CPythonPlayer@@@std@@@4@$0A@@std@@@std@@QAEXXZ PROC ; std::_Tree<std::_Tmap_traits<unsigned long,CPythonPlayer::SPartyMemberInfo,std::less<unsigned long>,std::allocator<std::pair<unsigned long const ,CPythonPlayer::SPartyMemberInfo> >,0> >::clear, COMDAT
; _this$ = ecx

; 1353 :     void clear() noexcept {

  00000	56		 push	 esi
  00001	57		 push	 edi
  00002	8b f9		 mov	 edi, ecx

; 1354 :         const auto _Scary = _Get_scary();
; 1355 :         _Scary->_Orphan_ptr(nullptr);
; 1356 :         auto _Head = _Scary->_Myhead;

  00004	8b 37		 mov	 esi, DWORD PTR [edi]

; 1357 :         _Scary->_Erase_tree(_Getal(), _Head->_Parent);

  00006	ff 76 04	 push	 DWORD PTR [esi+4]
  00009	57		 push	 edi
  0000a	e8 00 00 00 00	 call	 ??$_Erase_tree@V?$allocator@U?$_Tree_node@U?$pair@$$CBKUSPartyMemberInfo@CPythonPlayer@@@std@@PAX@std@@@std@@@?$_Tree_val@U?$_Tree_simple_types@U?$pair@$$CBKUSPartyMemberInfo@CPythonPlayer@@@std@@@std@@@std@@QAEXAAV?$allocator@U?$_Tree_node@U?$pair@$$CBKUSPartyMemberInfo@CPythonPlayer@@@std@@PAX@std@@@1@PAU?$_Tree_node@U?$pair@$$CBKUSPartyMemberInfo@CPythonPlayer@@@std@@PAX@1@@Z ; std::_Tree_val<std::_Tree_simple_types<std::pair<unsigned long const ,CPythonPlayer::SPartyMemberInfo> > >::_Erase_tree<std::allocator<std::_Tree_node<std::pair<unsigned long const ,CPythonPlayer::SPartyMemberInfo>,void *> > >

; 1358 :         _Head->_Parent  = _Head;

  0000f	89 76 04	 mov	 DWORD PTR [esi+4], esi

; 1359 :         _Head->_Left    = _Head;

  00012	89 36		 mov	 DWORD PTR [esi], esi

; 1360 :         _Head->_Right   = _Head;

  00014	89 76 08	 mov	 DWORD PTR [esi+8], esi

; 1361 :         _Scary->_Mysize = 0;

  00017	c7 47 04 00 00
	00 00		 mov	 DWORD PTR [edi+4], 0
  0001e	5f		 pop	 edi
  0001f	5e		 pop	 esi

; 1362 :     }

  00020	c3		 ret	 0
?clear@?$_Tree@V?$_Tmap_traits@KUSPartyMemberInfo@CPythonPlayer@@U?$less@K@std@@V?$allocator@U?$pair@$$CBKUSPartyMemberInfo@CPythonPlayer@@@std@@@4@$0A@@std@@@std@@QAEXXZ ENDP ; std::_Tree<std::_Tmap_traits<unsigned long,CPythonPlayer::SPartyMemberInfo,std::less<unsigned long>,std::allocator<std::pair<unsigned long const ,CPythonPlayer::SPartyMemberInfo> >,0> >::clear
_TEXT	ENDS
; Function compile flags: /Ogtp
; File C:\Program Files\Microsoft Visual Studio\2022\Community\VC\Tools\MSVC\14.34.31933\include\xtree
; File C:\Program Files\Microsoft Visual Studio\2022\Community\VC\Tools\MSVC\14.34.31933\include\xstddef
; File C:\Program Files\Microsoft Visual Studio\2022\Community\VC\Tools\MSVC\14.34.31933\include\xtree
; File C:\Program Files\Microsoft Visual Studio\2022\Community\VC\Tools\MSVC\14.34.31933\include\xstddef
; File C:\Program Files\Microsoft Visual Studio\2022\Community\VC\Tools\MSVC\14.34.31933\include\xtree
; File C:\Program Files\Microsoft Visual Studio\2022\Community\VC\Tools\MSVC\14.34.31933\include\xstddef
; File C:\Program Files\Microsoft Visual Studio\2022\Community\VC\Tools\MSVC\14.34.31933\include\xtree
; File C:\Program Files\Microsoft Visual Studio\2022\Community\VC\Tools\MSVC\14.34.31933\include\xutility
; File C:\Program Files\Microsoft Visual Studio\2022\Community\VC\Tools\MSVC\14.34.31933\include\xtree
; File C:\Program Files\Microsoft Visual Studio\2022\Community\VC\Tools\MSVC\14.34.31933\include\xutility
; File C:\Program Files\Microsoft Visual Studio\2022\Community\VC\Tools\MSVC\14.34.31933\include\xtree
; File C:\Program Files\Microsoft Visual Studio\2022\Community\VC\Tools\MSVC\14.34.31933\include\xutility
; File C:\Program Files\Microsoft Visual Studio\2022\Community\VC\Tools\MSVC\14.34.31933\include\xtree
; File C:\Program Files\Microsoft Visual Studio\2022\Community\VC\Tools\MSVC\14.34.31933\include\xutility
; File C:\Program Files\Microsoft Visual Studio\2022\Community\VC\Tools\MSVC\14.34.31933\include\xtree
;	COMDAT ?erase@?$_Tree@V?$_Tmap_traits@KUSPartyMemberInfo@CPythonPlayer@@U?$less@K@std@@V?$allocator@U?$pair@$$CBKUSPartyMemberInfo@CPythonPlayer@@@std@@@4@$0A@@std@@@std@@QAEIABK@Z
_TEXT	SEGMENT
tv657 = -12						; size = 4
__Off$1$ = -12						; size = 4
_this$1$ = -8						; size = 4
__Head$1$ = -4						; size = 4
__First$ = 8						; size = 4
__Keyval$ = 8						; size = 4
?erase@?$_Tree@V?$_Tmap_traits@KUSPartyMemberInfo@CPythonPlayer@@U?$less@K@std@@V?$allocator@U?$pair@$$CBKUSPartyMemberInfo@CPythonPlayer@@@std@@@4@$0A@@std@@@std@@QAEIABK@Z PROC ; std::_Tree<std::_Tmap_traits<unsigned long,CPythonPlayer::SPartyMemberInfo,std::less<unsigned long>,std::allocator<std::pair<unsigned long const ,CPythonPlayer::SPartyMemberInfo> >,0> >::erase, COMDAT
; _this$ = ecx

; 1341 :     size_type erase(const key_type& _Keyval) noexcept(noexcept(_Eqrange(_Keyval))) /* strengthened */ {

  00000	55		 push	 ebp
  00001	8b ec		 mov	 ebp, esp
  00003	83 ec 0c	 sub	 esp, 12			; 0000000cH
  00006	8b c1		 mov	 eax, ecx
  00008	53		 push	 ebx

; 1698 :         while (!_Pnode->_Isnil) {

  00009	8b 5d 08	 mov	 ebx, DWORD PTR __Keyval$[ebp]

; 1341 :     size_type erase(const key_type& _Keyval) noexcept(noexcept(_Eqrange(_Keyval))) /* strengthened */ {

  0000c	89 45 f8	 mov	 DWORD PTR _this$1$[ebp], eax

; 1692 :         const auto _Scary = _Get_scary();

  0000f	8b 08		 mov	 ecx, DWORD PTR [eax]

; 1341 :     size_type erase(const key_type& _Keyval) noexcept(noexcept(_Eqrange(_Keyval))) /* strengthened */ {

  00011	56		 push	 esi
  00012	57		 push	 edi

; 1692 :         const auto _Scary = _Get_scary();

  00013	89 4d fc	 mov	 DWORD PTR __Head$1$[ebp], ecx

; 1693 :         const auto& _Comp = _Getcomp();
; 1694 :         _Nodeptr _Pnode   = _Scary->_Myhead->_Parent;
; 1695 :         _Nodeptr _Lonode  = _Scary->_Myhead; // end() if search fails

  00016	8b f9		 mov	 edi, ecx
  00018	8b 51 04	 mov	 edx, DWORD PTR [ecx+4]

; 1696 :         _Nodeptr _Hinode  = _Scary->_Myhead; // end() if search fails

  0001b	8b f1		 mov	 esi, ecx
  0001d	8b c2		 mov	 eax, edx
  0001f	89 55 f4	 mov	 DWORD PTR tv657[ebp], edx

; 1697 : 
; 1698 :         while (!_Pnode->_Isnil) {

  00022	80 78 0d 00	 cmp	 BYTE PTR [eax+13], 0
  00026	75 2c		 jne	 SHORT $LN5@erase
; File C:\Program Files\Microsoft Visual Studio\2022\Community\VC\Tools\MSVC\14.34.31933\include\xstddef

; 143  :         return _Left < _Right;

  00028	8b 13		 mov	 edx, DWORD PTR [ebx]
  0002a	66 0f 1f 44 00
	00		 npad	 6
$LL4@erase:
  00030	8b 48 10	 mov	 ecx, DWORD PTR [eax+16]
  00033	3b ca		 cmp	 ecx, edx
; File C:\Program Files\Microsoft Visual Studio\2022\Community\VC\Tools\MSVC\14.34.31933\include\xtree

; 1700 :             if (_DEBUG_LT_PRED(_Comp, _Nodekey, _Keyval)) {

  00035	73 05		 jae	 SHORT $LN8@erase

; 1701 :                 _Pnode = _Pnode->_Right; // descend right subtree

  00037	8b 40 08	 mov	 eax, DWORD PTR [eax+8]

; 1702 :             } else { // _Pnode not less than _Keyval, remember it

  0003a	eb 0f		 jmp	 SHORT $LN9@erase
$LN8@erase:

; 1703 :                 if (_Hinode->_Isnil && _DEBUG_LT_PRED(_Comp, _Keyval, _Nodekey)) {

  0003c	80 7e 0d 00	 cmp	 BYTE PTR [esi+13], 0
  00040	74 05		 je	 SHORT $LN10@erase
; File C:\Program Files\Microsoft Visual Studio\2022\Community\VC\Tools\MSVC\14.34.31933\include\xstddef

; 143  :         return _Left < _Right;

  00042	3b d1		 cmp	 edx, ecx
; File C:\Program Files\Microsoft Visual Studio\2022\Community\VC\Tools\MSVC\14.34.31933\include\xtree

; 1703 :                 if (_Hinode->_Isnil && _DEBUG_LT_PRED(_Comp, _Keyval, _Nodekey)) {

  00044	0f 42 f0	 cmovb	 esi, eax
$LN10@erase:

; 1704 :                     _Hinode = _Pnode; // _Pnode greater, remember it
; 1705 :                 }
; 1706 : 
; 1707 :                 _Lonode = _Pnode;

  00047	8b f8		 mov	 edi, eax

; 1708 :                 _Pnode  = _Pnode->_Left; // descend left subtree

  00049	8b 00		 mov	 eax, DWORD PTR [eax]
$LN9@erase:

; 1697 : 
; 1698 :         while (!_Pnode->_Isnil) {

  0004b	80 78 0d 00	 cmp	 BYTE PTR [eax+13], 0
  0004f	74 df		 je	 SHORT $LL4@erase
  00051	8b 55 f4	 mov	 edx, DWORD PTR tv657[ebp]
$LN5@erase:

; 1709 :             }
; 1710 :         }
; 1711 : 
; 1712 :         _Pnode = _Hinode->_Isnil ? _Scary->_Myhead->_Parent : _Hinode->_Left; // continue scan for upper bound

  00054	80 7e 0d 00	 cmp	 BYTE PTR [esi+13], 0
  00058	8b c2		 mov	 eax, edx
  0005a	75 02		 jne	 SHORT $LN15@erase
  0005c	8b 06		 mov	 eax, DWORD PTR [esi]
$LN15@erase:

; 1713 :         while (!_Pnode->_Isnil) {

  0005e	80 78 0d 00	 cmp	 BYTE PTR [eax+13], 0
  00062	75 16		 jne	 SHORT $LN7@erase
; File C:\Program Files\Microsoft Visual Studio\2022\Community\VC\Tools\MSVC\14.34.31933\include\xstddef

; 143  :         return _Left < _Right;

  00064	8b 0b		 mov	 ecx, DWORD PTR [ebx]
$LL6@erase:
  00066	3b 48 10	 cmp	 ecx, DWORD PTR [eax+16]
; File C:\Program Files\Microsoft Visual Studio\2022\Community\VC\Tools\MSVC\14.34.31933\include\xtree

; 1714 :             if (_DEBUG_LT_PRED(_Getcomp(), _Keyval, _Traits::_Kfn(_Pnode->_Myval))) {

  00069	73 06		 jae	 SHORT $LN11@erase

; 1715 :                 // _Pnode greater than _Keyval, remember it
; 1716 :                 _Hinode = _Pnode;

  0006b	8b f0		 mov	 esi, eax

; 1717 :                 _Pnode  = _Pnode->_Left; // descend left subtree

  0006d	8b 00		 mov	 eax, DWORD PTR [eax]

; 1718 :             } else {

  0006f	eb 03		 jmp	 SHORT $LN12@erase
$LN11@erase:

; 1719 :                 _Pnode = _Pnode->_Right; // descend right subtree

  00071	8b 40 08	 mov	 eax, DWORD PTR [eax+8]
$LN12@erase:

; 1713 :         while (!_Pnode->_Isnil) {

  00074	80 78 0d 00	 cmp	 BYTE PTR [eax+13], 0
  00078	74 ec		 je	 SHORT $LL6@erase
$LN7@erase:
; File C:\Program Files\Microsoft Visual Studio\2022\Community\VC\Tools\MSVC\14.34.31933\include\xutility

; 1165 :         auto _UFirst             = _Get_unwrapped(_First);

  0007a	8b c7		 mov	 eax, edi

; 1166 :         const auto _ULast        = _Get_unwrapped(_Last);
; 1167 :         _Iter_diff_t<_InIt> _Off = 0;

  0007c	33 db		 xor	 ebx, ebx
  0007e	89 5d f4	 mov	 DWORD PTR __Off$1$[ebp], ebx
; File C:\Program Files\Microsoft Visual Studio\2022\Community\VC\Tools\MSVC\14.34.31933\include\xtree

; 97   :         return _Ptr == _Right._Ptr;

  00081	3b c6		 cmp	 eax, esi
; File C:\Program Files\Microsoft Visual Studio\2022\Community\VC\Tools\MSVC\14.34.31933\include\xutility

; 1168 :         for (; _UFirst != _ULast; ++_UFirst) {

  00083	74 44		 je	 SHORT $LN32@erase
$LL41@erase:
; File C:\Program Files\Microsoft Visual Studio\2022\Community\VC\Tools\MSVC\14.34.31933\include\xtree

; 51   :         if (_Ptr->_Right->_Isnil) { // climb looking for right subtree

  00085	8b 48 08	 mov	 ecx, DWORD PTR [eax+8]
; File C:\Program Files\Microsoft Visual Studio\2022\Community\VC\Tools\MSVC\14.34.31933\include\xutility

; 1169 :             ++_Off;

  00088	43		 inc	 ebx
; File C:\Program Files\Microsoft Visual Studio\2022\Community\VC\Tools\MSVC\14.34.31933\include\xtree

; 51   :         if (_Ptr->_Right->_Isnil) { // climb looking for right subtree

  00089	80 79 0d 00	 cmp	 BYTE PTR [ecx+13], 0
  0008d	74 1d		 je	 SHORT $LN40@erase

; 52   :             _Nodeptr _Pnode;
; 53   :             while (!(_Pnode = _Ptr->_Parent)->_Isnil && _Ptr == _Pnode->_Right) {

  0008f	8b 48 04	 mov	 ecx, DWORD PTR [eax+4]
  00092	80 79 0d 00	 cmp	 BYTE PTR [ecx+13], 0
  00096	75 10		 jne	 SHORT $LN91@erase
$LL38@erase:
  00098	3b 41 08	 cmp	 eax, DWORD PTR [ecx+8]
  0009b	75 0b		 jne	 SHORT $LN91@erase

; 54   :                 _Ptr = _Pnode; // ==> parent while right subtree

  0009d	8b c1		 mov	 eax, ecx
  0009f	8b 49 04	 mov	 ecx, DWORD PTR [ecx+4]
  000a2	80 79 0d 00	 cmp	 BYTE PTR [ecx+13], 0
  000a6	74 f0		 je	 SHORT $LL38@erase
$LN91@erase:

; 55   :             }
; 56   : 
; 57   :             _Ptr = _Pnode; // ==> parent (head if end())

  000a8	8b c1		 mov	 eax, ecx

; 58   :         } else {

  000aa	eb 16		 jmp	 SHORT $LN45@erase
$LN40@erase:

; 59   :             _Ptr = _Mytree::_Min(_Ptr->_Right); // ==> smallest of right subtree

  000ac	8b c1		 mov	 eax, ecx

; 453  :         while (!_Pnode->_Left->_Isnil) {

  000ae	8b 10		 mov	 edx, DWORD PTR [eax]
  000b0	80 7a 0d 00	 cmp	 BYTE PTR [edx+13], 0
  000b4	75 0c		 jne	 SHORT $LN45@erase
$LL44@erase:
  000b6	8b 0a		 mov	 ecx, DWORD PTR [edx]

; 454  :             _Pnode = _Pnode->_Left;

  000b8	8b c2		 mov	 eax, edx
  000ba	8b d1		 mov	 edx, ecx
  000bc	80 79 0d 00	 cmp	 BYTE PTR [ecx+13], 0
  000c0	74 f4		 je	 SHORT $LL44@erase
$LN45@erase:

; 97   :         return _Ptr == _Right._Ptr;

  000c2	3b c6		 cmp	 eax, esi
; File C:\Program Files\Microsoft Visual Studio\2022\Community\VC\Tools\MSVC\14.34.31933\include\xutility

; 1168 :         for (; _UFirst != _ULast; ++_UFirst) {

  000c4	75 bf		 jne	 SHORT $LL41@erase
  000c6	89 5d f4	 mov	 DWORD PTR __Off$1$[ebp], ebx
$LN32@erase:
; File C:\Program Files\Microsoft Visual Studio\2022\Community\VC\Tools\MSVC\14.34.31933\include\xtree

; 97   :         return _Ptr == _Right._Ptr;

  000c9	8b 45 fc	 mov	 eax, DWORD PTR __Head$1$[ebp]

; 1313 :         _Erase_unchecked(_First, _Last);

  000cc	89 7d 08	 mov	 DWORD PTR __First$[ebp], edi

; 97   :         return _Ptr == _Right._Ptr;

  000cf	3b 38		 cmp	 edi, DWORD PTR [eax]

; 1295 :         if (_First == _Begin && _Last._Ptr->_Isnil) {

  000d1	75 31		 jne	 SHORT $LN73@erase
  000d3	80 7e 0d 00	 cmp	 BYTE PTR [esi+13], 0
  000d7	74 2b		 je	 SHORT $LN73@erase

; 1357 :         _Scary->_Erase_tree(_Getal(), _Head->_Parent);

  000d9	ff 70 04	 push	 DWORD PTR [eax+4]
  000dc	8b 75 f8	 mov	 esi, DWORD PTR _this$1$[ebp]
  000df	8b ce		 mov	 ecx, esi
  000e1	56		 push	 esi
  000e2	e8 00 00 00 00	 call	 ??$_Erase_tree@V?$allocator@U?$_Tree_node@U?$pair@$$CBKUSPartyMemberInfo@CPythonPlayer@@@std@@PAX@std@@@std@@@?$_Tree_val@U?$_Tree_simple_types@U?$pair@$$CBKUSPartyMemberInfo@CPythonPlayer@@@std@@@std@@@std@@QAEXAAV?$allocator@U?$_Tree_node@U?$pair@$$CBKUSPartyMemberInfo@CPythonPlayer@@@std@@PAX@std@@@1@PAU?$_Tree_node@U?$pair@$$CBKUSPartyMemberInfo@CPythonPlayer@@@std@@PAX@1@@Z ; std::_Tree_val<std::_Tree_simple_types<std::pair<unsigned long const ,CPythonPlayer::SPartyMemberInfo> > >::_Erase_tree<std::allocator<std::_Tree_node<std::pair<unsigned long const ,CPythonPlayer::SPartyMemberInfo>,void *> > >

; 1358 :         _Head->_Parent  = _Head;

  000e7	8b 45 fc	 mov	 eax, DWORD PTR __Head$1$[ebp]
  000ea	89 40 04	 mov	 DWORD PTR [eax+4], eax

; 1359 :         _Head->_Left    = _Head;

  000ed	89 00		 mov	 DWORD PTR [eax], eax

; 1360 :         _Head->_Right   = _Head;

  000ef	89 40 08	 mov	 DWORD PTR [eax+8], eax

; 1361 :         _Scary->_Mysize = 0;

  000f2	c7 46 04 00 00
	00 00		 mov	 DWORD PTR [esi+4], 0
$LN90@erase:
  000f9	5f		 pop	 edi

; 1342 :         return _Erase(_Eqrange(_Keyval));
; 1343 :     }

  000fa	5e		 pop	 esi
  000fb	8b c3		 mov	 eax, ebx
  000fd	5b		 pop	 ebx
  000fe	8b e5		 mov	 esp, ebp
  00100	5d		 pop	 ebp
  00101	c2 04 00	 ret	 4
$LN73@erase:

; 97   :         return _Ptr == _Right._Ptr;

  00104	3b fe		 cmp	 edi, esi

; 1302 :         while (_First != _Last) {

  00106	74 f1		 je	 SHORT $LN90@erase
  00108	8b 5d f8	 mov	 ebx, DWORD PTR _this$1$[ebp]
  0010b	0f 1f 44 00 00	 npad	 5
$LL48@erase:

; 67   :         ++*this;

  00110	8d 4d 08	 lea	 ecx, DWORD PTR __First$[ebp]
  00113	e8 00 00 00 00	 call	 ??E?$_Tree_unchecked_const_iterator@V?$_Tree_val@U?$_Tree_simple_types@U?$pair@$$CBKUSPartyMemberInfo@CPythonPlayer@@@std@@@std@@@std@@U_Iterator_base0@2@@std@@QAEAAV01@XZ ; std::_Tree_unchecked_const_iterator<std::_Tree_val<std::_Tree_simple_types<std::pair<unsigned long const ,CPythonPlayer::SPartyMemberInfo> > >,std::_Iterator_base0>::operator++

; 1287 :         _Nodeptr _Erasednode = _Scary->_Extract(_Where); // node to erase

  00118	57		 push	 edi
  00119	8b cb		 mov	 ecx, ebx
  0011b	e8 00 00 00 00	 call	 ?_Extract@?$_Tree_val@U?$_Tree_simple_types@U?$pair@$$CBKUSPartyMemberInfo@CPythonPlayer@@@std@@@std@@@std@@QAEPAU?$_Tree_node@U?$pair@$$CBKUSPartyMemberInfo@CPythonPlayer@@@std@@PAX@2@V?$_Tree_unchecked_const_iterator@V?$_Tree_val@U?$_Tree_simple_types@U?$pair@$$CBKUSPartyMemberInfo@CPythonPlayer@@@std@@@std@@@std@@U_Iterator_base0@2@@2@@Z ; std::_Tree_val<std::_Tree_simple_types<std::pair<unsigned long const ,CPythonPlayer::SPartyMemberInfo> > >::_Extract

; 1288 :         _Scary->_Orphan_ptr(_Erasednode);
; 1289 :         _Node::_Freenode(_Getal(), _Erasednode); // delete erased node

  00120	8b d0		 mov	 edx, eax
  00122	e8 00 00 00 00	 call	 ??$_Freenode@V?$allocator@U?$_Tree_node@U?$pair@$$CBKUSPartyMemberInfo@CPythonPlayer@@@std@@PAX@std@@@std@@@?$_Tree_node@U?$pair@$$CBKUSPartyMemberInfo@CPythonPlayer@@@std@@PAX@std@@SAXAAV?$allocator@U?$_Tree_node@U?$pair@$$CBKUSPartyMemberInfo@CPythonPlayer@@@std@@PAX@std@@@1@PAU01@@Z ; std::_Tree_node<std::pair<unsigned long const ,CPythonPlayer::SPartyMemberInfo>,void *>::_Freenode<std::allocator<std::_Tree_node<std::pair<unsigned long const ,CPythonPlayer::SPartyMemberInfo>,void *> > >

; 97   :         return _Ptr == _Right._Ptr;

  00127	8b 7d 08	 mov	 edi, DWORD PTR __First$[ebp]
  0012a	3b fe		 cmp	 edi, esi

; 1302 :         while (_First != _Last) {

  0012c	75 e2		 jne	 SHORT $LL48@erase

; 1342 :         return _Erase(_Eqrange(_Keyval));
; 1343 :     }

  0012e	8b 45 f4	 mov	 eax, DWORD PTR __Off$1$[ebp]
  00131	5f		 pop	 edi
  00132	5e		 pop	 esi
  00133	5b		 pop	 ebx
  00134	8b e5		 mov	 esp, ebp
  00136	5d		 pop	 ebp
  00137	c2 04 00	 ret	 4
?erase@?$_Tree@V?$_Tmap_traits@KUSPartyMemberInfo@CPythonPlayer@@U?$less@K@std@@V?$allocator@U?$pair@$$CBKUSPartyMemberInfo@CPythonPlayer@@@std@@@4@$0A@@std@@@std@@QAEIABK@Z ENDP ; std::_Tree<std::_Tmap_traits<unsigned long,CPythonPlayer::SPartyMemberInfo,std::less<unsigned long>,std::allocator<std::pair<unsigned long const ,CPythonPlayer::SPartyMemberInfo> >,0> >::erase
_TEXT	ENDS
; Function compile flags: /Ogtp
; File C:\Program Files\Microsoft Visual Studio\2022\Community\VC\Tools\MSVC\14.34.31933\include\xtree
;	COMDAT ?end@?$_Tree@V?$_Tmap_traits@KUSPartyMemberInfo@CPythonPlayer@@U?$less@K@std@@V?$allocator@U?$pair@$$CBKUSPartyMemberInfo@CPythonPlayer@@@std@@@4@$0A@@std@@@std@@QAE?AV?$_Tree_iterator@V?$_Tree_val@U?$_Tree_simple_types@U?$pair@$$CBKUSPartyMemberInfo@CPythonPlayer@@@std@@@std@@@std@@@2@XZ
_TEXT	SEGMENT
___$ReturnUdt$ = 8					; size = 4
?end@?$_Tree@V?$_Tmap_traits@KUSPartyMemberInfo@CPythonPlayer@@U?$less@K@std@@V?$allocator@U?$pair@$$CBKUSPartyMemberInfo@CPythonPlayer@@@std@@@4@$0A@@std@@@std@@QAE?AV?$_Tree_iterator@V?$_Tree_val@U?$_Tree_simple_types@U?$pair@$$CBKUSPartyMemberInfo@CPythonPlayer@@@std@@@std@@@std@@@2@XZ PROC ; std::_Tree<std::_Tmap_traits<unsigned long,CPythonPlayer::SPartyMemberInfo,std::less<unsigned long>,std::allocator<std::pair<unsigned long const ,CPythonPlayer::SPartyMemberInfo> >,0> >::end, COMDAT
; _this$ = ecx

; 1134 :     _NODISCARD iterator end() noexcept {

  00000	55		 push	 ebp
  00001	8b ec		 mov	 ebp, esp

; 38   :     _Tree_unchecked_const_iterator(_Nodeptr _Pnode, const _Mytree* _Plist) noexcept : _Ptr(_Pnode) {

  00003	8b 45 08	 mov	 eax, DWORD PTR ___$ReturnUdt$[ebp]
  00006	8b 09		 mov	 ecx, DWORD PTR [ecx]
  00008	89 08		 mov	 DWORD PTR [eax], ecx

; 1135 :         const auto _Scary = _Get_scary();
; 1136 :         return iterator(_Scary->_Myhead, _Scary);
; 1137 :     }

  0000a	5d		 pop	 ebp
  0000b	c2 04 00	 ret	 4
?end@?$_Tree@V?$_Tmap_traits@KUSPartyMemberInfo@CPythonPlayer@@U?$less@K@std@@V?$allocator@U?$pair@$$CBKUSPartyMemberInfo@CPythonPlayer@@@std@@@4@$0A@@std@@@std@@QAE?AV?$_Tree_iterator@V?$_Tree_val@U?$_Tree_simple_types@U?$pair@$$CBKUSPartyMemberInfo@CPythonPlayer@@@std@@@std@@@std@@@2@XZ ENDP ; std::_Tree<std::_Tmap_traits<unsigned long,CPythonPlayer::SPartyMemberInfo,std::less<unsigned long>,std::allocator<std::pair<unsigned long const ,CPythonPlayer::SPartyMemberInfo> >,0> >::end
_TEXT	ENDS
; Function compile flags: /Ogtp
; File C:\Program Files\Microsoft Visual Studio\2022\Community\VC\Tools\MSVC\14.34.31933\include\xtree
;	COMDAT ?begin@?$_Tree@V?$_Tmap_traits@KUSPartyMemberInfo@CPythonPlayer@@U?$less@K@std@@V?$allocator@U?$pair@$$CBKUSPartyMemberInfo@CPythonPlayer@@@std@@@4@$0A@@std@@@std@@QAE?AV?$_Tree_iterator@V?$_Tree_val@U?$_Tree_simple_types@U?$pair@$$CBKUSPartyMemberInfo@CPythonPlayer@@@std@@@std@@@std@@@2@XZ
_TEXT	SEGMENT
___$ReturnUdt$ = 8					; size = 4
?begin@?$_Tree@V?$_Tmap_traits@KUSPartyMemberInfo@CPythonPlayer@@U?$less@K@std@@V?$allocator@U?$pair@$$CBKUSPartyMemberInfo@CPythonPlayer@@@std@@@4@$0A@@std@@@std@@QAE?AV?$_Tree_iterator@V?$_Tree_val@U?$_Tree_simple_types@U?$pair@$$CBKUSPartyMemberInfo@CPythonPlayer@@@std@@@std@@@std@@@2@XZ PROC ; std::_Tree<std::_Tmap_traits<unsigned long,CPythonPlayer::SPartyMemberInfo,std::less<unsigned long>,std::allocator<std::pair<unsigned long const ,CPythonPlayer::SPartyMemberInfo> >,0> >::begin, COMDAT
; _this$ = ecx

; 1124 :     _NODISCARD iterator begin() noexcept {

  00000	55		 push	 ebp
  00001	8b ec		 mov	 ebp, esp

; 1125 :         const auto _Scary = _Get_scary();
; 1126 :         return iterator(_Scary->_Myhead->_Left, _Scary);

  00003	8b 01		 mov	 eax, DWORD PTR [ecx]

; 38   :     _Tree_unchecked_const_iterator(_Nodeptr _Pnode, const _Mytree* _Plist) noexcept : _Ptr(_Pnode) {

  00005	8b 08		 mov	 ecx, DWORD PTR [eax]
  00007	8b 45 08	 mov	 eax, DWORD PTR ___$ReturnUdt$[ebp]
  0000a	89 08		 mov	 DWORD PTR [eax], ecx

; 1127 :     }

  0000c	5d		 pop	 ebp
  0000d	c2 04 00	 ret	 4
?begin@?$_Tree@V?$_Tmap_traits@KUSPartyMemberInfo@CPythonPlayer@@U?$less@K@std@@V?$allocator@U?$pair@$$CBKUSPartyMemberInfo@CPythonPlayer@@@std@@@4@$0A@@std@@@std@@QAE?AV?$_Tree_iterator@V?$_Tree_val@U?$_Tree_simple_types@U?$pair@$$CBKUSPartyMemberInfo@CPythonPlayer@@@std@@@std@@@std@@@2@XZ ENDP ; std::_Tree<std::_Tmap_traits<unsigned long,CPythonPlayer::SPartyMemberInfo,std::less<unsigned long>,std::allocator<std::pair<unsigned long const ,CPythonPlayer::SPartyMemberInfo> >,0> >::begin
_TEXT	ENDS
; Function compile flags: /Ogtp
; File C:\Program Files\Microsoft Visual Studio\2022\Community\VC\Tools\MSVC\14.34.31933\include\xtree
; File C:\Program Files\Microsoft Visual Studio\2022\Community\VC\Tools\MSVC\14.34.31933\include\xmemory
; File C:\Program Files\Microsoft Visual Studio\2022\Community\VC\Tools\MSVC\14.34.31933\include\xtree
;	COMDAT ??1?$_Tree@V?$_Tmap_traits@KUSPartyMemberInfo@CPythonPlayer@@U?$less@K@std@@V?$allocator@U?$pair@$$CBKUSPartyMemberInfo@CPythonPlayer@@@std@@@4@$0A@@std@@@std@@QAE@XZ
_TEXT	SEGMENT
??1?$_Tree@V?$_Tmap_traits@KUSPartyMemberInfo@CPythonPlayer@@U?$less@K@std@@V?$allocator@U?$pair@$$CBKUSPartyMemberInfo@CPythonPlayer@@@std@@@4@$0A@@std@@@std@@QAE@XZ PROC ; std::_Tree<std::_Tmap_traits<unsigned long,CPythonPlayer::SPartyMemberInfo,std::less<unsigned long>,std::allocator<std::pair<unsigned long const ,CPythonPlayer::SPartyMemberInfo> >,0> >::~_Tree<std::_Tmap_traits<unsigned long,CPythonPlayer::SPartyMemberInfo,std::less<unsigned long>,std::allocator<std::pair<unsigned long const ,CPythonPlayer::SPartyMemberInfo> >,0> >, COMDAT
; _this$ = ecx

; 1079 :     ~_Tree() noexcept {

  00000	56		 push	 esi
  00001	8b f1		 mov	 esi, ecx

; 754  :         _Erase_tree(_Al, _Myhead->_Parent);

  00003	8b 06		 mov	 eax, DWORD PTR [esi]
  00005	ff 70 04	 push	 DWORD PTR [eax+4]
  00008	56		 push	 esi
  00009	e8 00 00 00 00	 call	 ??$_Erase_tree@V?$allocator@U?$_Tree_node@U?$pair@$$CBKUSPartyMemberInfo@CPythonPlayer@@@std@@PAX@std@@@std@@@?$_Tree_val@U?$_Tree_simple_types@U?$pair@$$CBKUSPartyMemberInfo@CPythonPlayer@@@std@@@std@@@std@@QAEXAAV?$allocator@U?$_Tree_node@U?$pair@$$CBKUSPartyMemberInfo@CPythonPlayer@@@std@@PAX@std@@@1@PAU?$_Tree_node@U?$pair@$$CBKUSPartyMemberInfo@CPythonPlayer@@@std@@PAX@1@@Z ; std::_Tree_val<std::_Tree_simple_types<std::pair<unsigned long const ,CPythonPlayer::SPartyMemberInfo> > >::_Erase_tree<std::allocator<std::_Tree_node<std::pair<unsigned long const ,CPythonPlayer::SPartyMemberInfo>,void *> > >
; File C:\Program Files\Microsoft Visual Studio\2022\Community\VC\Tools\MSVC\14.34.31933\include\xmemory

; 255  :         ::operator delete(_Ptr, _Bytes);

  0000e	6a 44		 push	 68			; 00000044H
  00010	ff 36		 push	 DWORD PTR [esi]
  00012	e8 00 00 00 00	 call	 ??3@YAXPAXI@Z		; operator delete
  00017	83 c4 08	 add	 esp, 8
  0001a	5e		 pop	 esi
; File C:\Program Files\Microsoft Visual Studio\2022\Community\VC\Tools\MSVC\14.34.31933\include\xtree

; 1086 :     }

  0001b	c3		 ret	 0
??1?$_Tree@V?$_Tmap_traits@KUSPartyMemberInfo@CPythonPlayer@@U?$less@K@std@@V?$allocator@U?$pair@$$CBKUSPartyMemberInfo@CPythonPlayer@@@std@@@4@$0A@@std@@@std@@QAE@XZ ENDP ; std::_Tree<std::_Tmap_traits<unsigned long,CPythonPlayer::SPartyMemberInfo,std::less<unsigned long>,std::allocator<std::pair<unsigned long const ,CPythonPlayer::SPartyMemberInfo> >,0> >::~_Tree<std::_Tmap_traits<unsigned long,CPythonPlayer::SPartyMemberInfo,std::less<unsigned long>,std::allocator<std::pair<unsigned long const ,CPythonPlayer::SPartyMemberInfo> >,0> >
_TEXT	ENDS
; Function compile flags: /Ogtp
; File E:\Metin2_server\SolWayneSF v6\ClientVS22\source\eterBase\Singleton.h
;	COMDAT ??1?$CSingleton@VCPythonPlayer@@@@UAE@XZ
_TEXT	SEGMENT
??1?$CSingleton@VCPythonPlayer@@@@UAE@XZ PROC		; CSingleton<CPythonPlayer>::~CSingleton<CPythonPlayer>, COMDAT
; _this$ = ecx

; 19   : 	{ 

  00000	c7 01 00 00 00
	00		 mov	 DWORD PTR [ecx], OFFSET ??_7?$CSingleton@VCPythonPlayer@@@@6B@

; 20   : 		assert(ms_singleton);
; 21   : 		ms_singleton = 0; 

  00006	c7 05 00 00 00
	00 00 00 00 00	 mov	 DWORD PTR ?ms_singleton@?$CSingleton@VCPythonPlayer@@@@0PAVCPythonPlayer@@A, 0 ; CSingleton<CPythonPlayer>::ms_singleton

; 22   : 	}

  00010	c3		 ret	 0
??1?$CSingleton@VCPythonPlayer@@@@UAE@XZ ENDP		; CSingleton<CPythonPlayer>::~CSingleton<CPythonPlayer>
_TEXT	ENDS
; Function compile flags: /Ogtp
; File E:\Metin2_server\SolWayneSF v6\ClientVS22\source\eterBase\Singleton.h
;	COMDAT ??0?$CSingleton@VCPythonPlayer@@@@QAE@XZ
_TEXT	SEGMENT
??0?$CSingleton@VCPythonPlayer@@@@QAE@XZ PROC		; CSingleton<CPythonPlayer>::CSingleton<CPythonPlayer>, COMDAT
; _this$ = ecx

; 12   : 	{ 

  00000	c7 01 00 00 00
	00		 mov	 DWORD PTR [ecx], OFFSET ??_7?$CSingleton@VCPythonPlayer@@@@6B@

; 13   : 		assert(!ms_singleton);
; 14   : 		int offset = (int) (T*) 1 - (int) (CSingleton <T>*) (T*) 1; 
; 15   : 		ms_singleton = (T*) ((int) this + offset);
; 16   : 	} 

  00006	8b c1		 mov	 eax, ecx
  00008	89 0d 00 00 00
	00		 mov	 DWORD PTR ?ms_singleton@?$CSingleton@VCPythonPlayer@@@@0PAVCPythonPlayer@@A, ecx ; CSingleton<CPythonPlayer>::ms_singleton
  0000e	c3		 ret	 0
??0?$CSingleton@VCPythonPlayer@@@@QAE@XZ ENDP		; CSingleton<CPythonPlayer>::CSingleton<CPythonPlayer>
_TEXT	ENDS
; Function compile flags: /Ogtp
; File E:\Metin2_server\SolWayneSF v6\ClientVS22\source\UserInterface\AbstractSingleton.h
;	COMDAT ??1?$TAbstractSingleton@VIAbstractPlayer@@@@UAE@XZ
_TEXT	SEGMENT
??1?$TAbstractSingleton@VIAbstractPlayer@@@@UAE@XZ PROC	; TAbstractSingleton<IAbstractPlayer>::~TAbstractSingleton<IAbstractPlayer>, COMDAT
; _this$ = ecx

; 17   : 	{ 

  00000	c7 01 00 00 00
	00		 mov	 DWORD PTR [ecx], OFFSET ??_7?$TAbstractSingleton@VIAbstractPlayer@@@@6B@

; 18   : 		assert(ms_singleton);
; 19   : 		ms_singleton = 0; 

  00006	c7 05 00 00 00
	00 00 00 00 00	 mov	 DWORD PTR ?ms_singleton@?$TAbstractSingleton@VIAbstractPlayer@@@@0PAVIAbstractPlayer@@A, 0 ; TAbstractSingleton<IAbstractPlayer>::ms_singleton

; 20   : 	}

  00010	c3		 ret	 0
??1?$TAbstractSingleton@VIAbstractPlayer@@@@UAE@XZ ENDP	; TAbstractSingleton<IAbstractPlayer>::~TAbstractSingleton<IAbstractPlayer>
_TEXT	ENDS
; Function compile flags: /Ogtp
; File E:\Metin2_server\SolWayneSF v6\ClientVS22\source\UserInterface\AbstractSingleton.h
;	COMDAT ??0?$TAbstractSingleton@VIAbstractPlayer@@@@QAE@XZ
_TEXT	SEGMENT
??0?$TAbstractSingleton@VIAbstractPlayer@@@@QAE@XZ PROC	; TAbstractSingleton<IAbstractPlayer>::TAbstractSingleton<IAbstractPlayer>, COMDAT
; _this$ = ecx

; 10   : 	{ 

  00000	c7 01 00 00 00
	00		 mov	 DWORD PTR [ecx], OFFSET ??_7?$TAbstractSingleton@VIAbstractPlayer@@@@6B@

; 11   : 		assert(!ms_singleton);
; 12   : 		int offset = (int) (T*) 1 - (int) (CSingleton <T>*) (T*) 1; 
; 13   : 		ms_singleton = (T*) ((int) this + offset);
; 14   : 	} 

  00006	8b c1		 mov	 eax, ecx
  00008	89 0d 00 00 00
	00		 mov	 DWORD PTR ?ms_singleton@?$TAbstractSingleton@VIAbstractPlayer@@@@0PAVIAbstractPlayer@@A, ecx ; TAbstractSingleton<IAbstractPlayer>::ms_singleton
  0000e	c3		 ret	 0
??0?$TAbstractSingleton@VIAbstractPlayer@@@@QAE@XZ ENDP	; TAbstractSingleton<IAbstractPlayer>::TAbstractSingleton<IAbstractPlayer>
_TEXT	ENDS
; Function compile flags: /Ogtp
; File C:\Program Files\Microsoft Visual Studio\2022\Community\VC\Tools\MSVC\14.34.31933\include\map
; File C:\Program Files\Microsoft Visual Studio\2022\Community\VC\Tools\MSVC\14.34.31933\include\xtree
; File C:\Program Files\Microsoft Visual Studio\2022\Community\VC\Tools\MSVC\14.34.31933\include\map
; File C:\Program Files\Microsoft Visual Studio\2022\Community\VC\Tools\MSVC\14.34.31933\include\xmemory
; File C:\Program Files\Microsoft Visual Studio\2022\Community\VC\Tools\MSVC\14.34.31933\include\xtree
; File C:\Program Files\Microsoft Visual Studio\2022\Community\VC\Tools\MSVC\14.34.31933\include\xmemory
; File C:\Program Files\Microsoft Visual Studio\2022\Community\VC\Tools\MSVC\14.34.31933\include\xtree
; File C:\Program Files\Microsoft Visual Studio\2022\Community\VC\Tools\MSVC\14.34.31933\include\map
; File C:\Program Files\Microsoft Visual Studio\2022\Community\VC\Tools\MSVC\14.34.31933\include\xtree
; File C:\Program Files\Microsoft Visual Studio\2022\Community\VC\Tools\MSVC\14.34.31933\include\map
; File C:\Program Files\Microsoft Visual Studio\2022\Community\VC\Tools\MSVC\14.34.31933\include\xtree
; File C:\Program Files\Microsoft Visual Studio\2022\Community\VC\Tools\MSVC\14.34.31933\include\map
; File C:\Program Files\Microsoft Visual Studio\2022\Community\VC\Tools\MSVC\14.34.31933\include\xtree
; File C:\Program Files\Microsoft Visual Studio\2022\Community\VC\Tools\MSVC\14.34.31933\include\map
;	COMDAT ??A?$map@KKU?$less@K@std@@V?$allocator@U?$pair@$$CBKK@std@@@2@@std@@QAEAAKABK@Z
_TEXT	SEGMENT
__Loc$3 = -32						; size = 12
$T4 = -20						; size = 8
__$EHRec$ = -12						; size = 12
__Keyval$ = 8						; size = 4
??A?$map@KKU?$less@K@std@@V?$allocator@U?$pair@$$CBKK@std@@@2@@std@@QAEAAKABK@Z PROC ; std::map<unsigned long,unsigned long,std::less<unsigned long>,std::allocator<std::pair<unsigned long const ,unsigned long> > >::operator[], COMDAT
; _this$ = ecx

; 344  :     mapped_type& operator[](const key_type& _Keyval) {

  00000	55		 push	 ebp
  00001	8b ec		 mov	 ebp, esp
  00003	6a ff		 push	 -1
  00005	68 00 00 00 00	 push	 __ehhandler$??A?$map@KKU?$less@K@std@@V?$allocator@U?$pair@$$CBKK@std@@@2@@std@@QAEAAKABK@Z
  0000a	64 a1 00 00 00
	00		 mov	 eax, DWORD PTR fs:0
  00010	50		 push	 eax
  00011	83 ec 14	 sub	 esp, 20			; 00000014H
  00014	53		 push	 ebx
  00015	56		 push	 esi
  00016	57		 push	 edi
  00017	a1 00 00 00 00	 mov	 eax, DWORD PTR ___security_cookie
  0001c	33 c5		 xor	 eax, ebp
  0001e	50		 push	 eax
  0001f	8d 45 f4	 lea	 eax, DWORD PTR __$EHRec$[ebp]
  00022	64 a3 00 00 00
	00		 mov	 DWORD PTR fs:0, eax
  00028	8b f9		 mov	 edi, ecx

; 196  :         const auto _Loc = _Mybase::_Find_lower_bound(_Keyval);

  0002a	8b 5d 08	 mov	 ebx, DWORD PTR __Keyval$[ebp]
  0002d	8d 45 e0	 lea	 eax, DWORD PTR __Loc$3[ebp]
  00030	53		 push	 ebx
  00031	50		 push	 eax
  00032	e8 00 00 00 00	 call	 ??$_Find_lower_bound@K@?$_Tree@V?$_Tmap_traits@KKU?$less@K@std@@V?$allocator@U?$pair@$$CBKK@std@@@2@$0A@@std@@@std@@IBE?AU?$_Tree_find_result@PAU?$_Tree_node@U?$pair@$$CBKK@std@@PAX@std@@@1@ABK@Z ; std::_Tree<std::_Tmap_traits<unsigned long,unsigned long,std::less<unsigned long>,std::allocator<std::pair<unsigned long const ,unsigned long> >,0> >::_Find_lower_bound<unsigned long>
; File C:\Program Files\Microsoft Visual Studio\2022\Community\VC\Tools\MSVC\14.34.31933\include\xtree

; 1605 :         return !_Bound->_Isnil && !_DEBUG_LT_PRED(_Getcomp(), _Keyval, _Traits::_Kfn(_Bound->_Myval));

  00037	8b 55 e8	 mov	 edx, DWORD PTR __Loc$3[ebp+8]
  0003a	80 7a 0d 00	 cmp	 BYTE PTR [edx+13], 0
  0003e	75 07		 jne	 SHORT $LN4@operator
  00040	8b 03		 mov	 eax, DWORD PTR [ebx]
  00042	3b 42 10	 cmp	 eax, DWORD PTR [edx+16]
  00045	73 52		 jae	 SHORT $LN3@operator
$LN4@operator:

; 1629 :         if (max_size() == _Get_scary()->_Mysize) {

  00047	81 7f 04 aa aa
	aa 0a		 cmp	 DWORD PTR [edi+4], 178956970 ; 0aaaaaaaH
  0004e	74 60		 je	 SHORT $LN116@operator
; File C:\Program Files\Microsoft Visual Studio\2022\Community\VC\Tools\MSVC\14.34.31933\include\map

; 204  :         const auto _Inserted = _Tree_temp_node<_Alnode>(_Mybase::_Getal(), _Scary->_Myhead, piecewise_construct,

  00050	8b 37		 mov	 esi, DWORD PTR [edi]
; File C:\Program Files\Microsoft Visual Studio\2022\Community\VC\Tools\MSVC\14.34.31933\include\xmemory

; 1005 :     _CONSTEXPR20 explicit _Alloc_construct_ptr(_Alloc& _Al_) : _Al(_Al_), _Ptr(nullptr) {}

  00052	89 7d ec	 mov	 DWORD PTR $T4[ebp], edi
; File C:\Program Files\Microsoft Visual Studio\2022\Community\VC\Tools\MSVC\14.34.31933\include\xtree

; 785  :     explicit _Tree_temp_node_alloc(_Alnode& _Al_) : _Alloc_construct_ptr<_Alnode>(_Al_) {

  00055	c7 45 fc 00 00
	00 00		 mov	 DWORD PTR __$EHRec$[ebp+8], 0
; File C:\Program Files\Microsoft Visual Studio\2022\Community\VC\Tools\MSVC\14.34.31933\include\xmemory

; 77   :         return ::operator new(_Bytes);

  0005c	6a 18		 push	 24			; 00000018H

; 1012 :         _Ptr = nullptr; // if allocate throws, prevents double-free

  0005e	c7 45 f0 00 00
	00 00		 mov	 DWORD PTR $T4[ebp+4], 0

; 77   :         return ::operator new(_Bytes);

  00065	e8 00 00 00 00	 call	 ??2@YAPAXI@Z		; operator new

; 235  :         return _Traits::_Allocate(_Bytes);

  0006a	8b c8		 mov	 ecx, eax

; 77   :         return ::operator new(_Bytes);

  0006c	83 c4 04	 add	 esp, 4
; File C:\Program Files\Microsoft Visual Studio\2022\Community\VC\Tools\MSVC\14.34.31933\include\xtree

; 808  :         _Construct_in_place(this->_Ptr->_Left, _Myhead);

  0006f	8b 03		 mov	 eax, DWORD PTR [ebx]
  00071	89 41 10	 mov	 DWORD PTR [ecx+16], eax
  00074	c7 41 14 00 00
	00 00		 mov	 DWORD PTR [ecx+20], 0
; File C:\Program Files\Microsoft Visual Studio\2022\Community\VC\Tools\MSVC\14.34.31933\include\map

; 210  :         return {_Scary->_Insert_node(_Loc._Location, _Inserted), true};

  0007b	51		 push	 ecx
  0007c	ff 75 e4	 push	 DWORD PTR __Loc$3[ebp+4]
; File C:\Program Files\Microsoft Visual Studio\2022\Community\VC\Tools\MSVC\14.34.31933\include\xtree

; 808  :         _Construct_in_place(this->_Ptr->_Left, _Myhead);

  0007f	89 31		 mov	 DWORD PTR [ecx], esi
; File C:\Program Files\Microsoft Visual Studio\2022\Community\VC\Tools\MSVC\14.34.31933\include\map

; 210  :         return {_Scary->_Insert_node(_Loc._Location, _Inserted), true};

  00081	ff 75 e0	 push	 DWORD PTR __Loc$3[ebp]
; File C:\Program Files\Microsoft Visual Studio\2022\Community\VC\Tools\MSVC\14.34.31933\include\xtree

; 809  :         _Construct_in_place(this->_Ptr->_Parent, _Myhead);

  00084	89 71 04	 mov	 DWORD PTR [ecx+4], esi

; 810  :         _Construct_in_place(this->_Ptr->_Right, _Myhead);

  00087	89 71 08	 mov	 DWORD PTR [ecx+8], esi

; 811  :         this->_Ptr->_Color = _Red;

  0008a	66 c7 41 0c 00
	00		 mov	 WORD PTR [ecx+12], 0
; File C:\Program Files\Microsoft Visual Studio\2022\Community\VC\Tools\MSVC\14.34.31933\include\map

; 210  :         return {_Scary->_Insert_node(_Loc._Location, _Inserted), true};

  00090	8b cf		 mov	 ecx, edi
  00092	e8 00 00 00 00	 call	 ?_Insert_node@?$_Tree_val@U?$_Tree_simple_types@U?$pair@$$CBKK@std@@@std@@@std@@QAEPAU?$_Tree_node@U?$pair@$$CBKK@std@@PAX@2@U?$_Tree_id@PAU?$_Tree_node@U?$pair@$$CBKK@std@@PAX@std@@@2@QAU32@@Z ; std::_Tree_val<std::_Tree_simple_types<std::pair<unsigned long const ,unsigned long> > >::_Insert_node
  00097	8b d0		 mov	 edx, eax
$LN3@operator:

; 345  :         return _Try_emplace(_Keyval).first->_Myval.second;

  00099	8d 42 14	 lea	 eax, DWORD PTR [edx+20]

; 346  :     }

  0009c	8b 4d f4	 mov	 ecx, DWORD PTR __$EHRec$[ebp]
  0009f	64 89 0d 00 00
	00 00		 mov	 DWORD PTR fs:0, ecx
  000a6	59		 pop	 ecx
  000a7	5f		 pop	 edi
  000a8	5e		 pop	 esi
  000a9	5b		 pop	 ebx
  000aa	8b e5		 mov	 esp, ebp
  000ac	5d		 pop	 ebp
  000ad	c2 04 00	 ret	 4
$LN116@operator:
; File C:\Program Files\Microsoft Visual Studio\2022\Community\VC\Tools\MSVC\14.34.31933\include\xtree

; 1630 :             _Throw_tree_length_error();

  000b0	e8 00 00 00 00	 call	 ?_Throw_tree_length_error@std@@YAXXZ ; std::_Throw_tree_length_error
$LN114@operator:
  000b5	cc		 int	 3
_TEXT	ENDS
;	COMDAT text$x
text$x	SEGMENT
__unwindfunclet$??A?$map@KKU?$less@K@std@@V?$allocator@U?$pair@$$CBKK@std@@@2@@std@@QAEAAKABK@Z$2:
  00000	8d 4d ec	 lea	 ecx, DWORD PTR $T4[ebp]
  00003	e9 00 00 00 00	 jmp	 ??1?$_Alloc_construct_ptr@V?$allocator@U?$_Tree_node@U?$pair@$$CBKK@std@@PAX@std@@@std@@@std@@QAE@XZ ; std::_Alloc_construct_ptr<std::allocator<std::_Tree_node<std::pair<unsigned long const ,unsigned long>,void *> > >::~_Alloc_construct_ptr<std::allocator<std::_Tree_node<std::pair<unsigned long const ,unsigned long>,void *> > >
  00008	cc		 int	 3
  00009	cc		 int	 3
  0000a	cc		 int	 3
  0000b	cc		 int	 3
  0000c	cc		 int	 3
__ehhandler$??A?$map@KKU?$less@K@std@@V?$allocator@U?$pair@$$CBKK@std@@@2@@std@@QAEAAKABK@Z:
  0000d	90		 npad	 1
  0000e	90		 npad	 1
  0000f	8b 54 24 08	 mov	 edx, DWORD PTR [esp+8]
  00013	8d 42 0c	 lea	 eax, DWORD PTR [edx+12]
  00016	8b 4a dc	 mov	 ecx, DWORD PTR [edx-36]
  00019	33 c8		 xor	 ecx, eax
  0001b	e8 00 00 00 00	 call	 @__security_check_cookie@4
  00020	b8 00 00 00 00	 mov	 eax, OFFSET __ehfuncinfo$??A?$map@KKU?$less@K@std@@V?$allocator@U?$pair@$$CBKK@std@@@2@@std@@QAEAAKABK@Z
  00025	e9 00 00 00 00	 jmp	 ___CxxFrameHandler3
text$x	ENDS
??A?$map@KKU?$less@K@std@@V?$allocator@U?$pair@$$CBKK@std@@@2@@std@@QAEAAKABK@Z ENDP ; std::map<unsigned long,unsigned long,std::less<unsigned long>,std::allocator<std::pair<unsigned long const ,unsigned long> > >::operator[]
; Function compile flags: /Ogtp
; File C:\Program Files\Microsoft Visual Studio\2022\Community\VC\Tools\MSVC\14.34.31933\include\xtree
;	COMDAT ??0?$_Tree_iterator@V?$_Tree_val@U?$_Tree_simple_types@U?$pair@$$CBKUSPartyMemberInfo@CPythonPlayer@@@std@@@std@@@std@@@std@@QAE@PAU?$_Tree_node@U?$pair@$$CBKUSPartyMemberInfo@CPythonPlayer@@@std@@PAX@1@PBV?$_Tree_val@U?$_Tree_simple_types@U?$pair@$$CBKUSPartyMemberInfo@CPythonPlayer@@@std@@@std@@@1@@Z
_TEXT	SEGMENT
___param0$ = 8						; size = 4
___param1$dead$ = 12					; size = 4
??0?$_Tree_iterator@V?$_Tree_val@U?$_Tree_simple_types@U?$pair@$$CBKUSPartyMemberInfo@CPythonPlayer@@@std@@@std@@@std@@@std@@QAE@PAU?$_Tree_node@U?$pair@$$CBKUSPartyMemberInfo@CPythonPlayer@@@std@@PAX@1@PBV?$_Tree_val@U?$_Tree_simple_types@U?$pair@$$CBKUSPartyMemberInfo@CPythonPlayer@@@std@@@std@@@1@@Z PROC ; std::_Tree_iterator<std::_Tree_val<std::_Tree_simple_types<std::pair<unsigned long const ,CPythonPlayer::SPartyMemberInfo> > > >::_Tree_iterator<std::_Tree_val<std::_Tree_simple_types<std::pair<unsigned long const ,CPythonPlayer::SPartyMemberInfo> > > >, COMDAT
; _this$ = ecx
  00000	55		 push	 ebp
  00001	8b ec		 mov	 ebp, esp

; 38   :     _Tree_unchecked_const_iterator(_Nodeptr _Pnode, const _Mytree* _Plist) noexcept : _Ptr(_Pnode) {

  00003	8b 45 08	 mov	 eax, DWORD PTR ___param0$[ebp]
  00006	89 01		 mov	 DWORD PTR [ecx], eax
  00008	8b c1		 mov	 eax, ecx
  0000a	5d		 pop	 ebp
  0000b	c2 08 00	 ret	 8
??0?$_Tree_iterator@V?$_Tree_val@U?$_Tree_simple_types@U?$pair@$$CBKUSPartyMemberInfo@CPythonPlayer@@@std@@@std@@@std@@@std@@QAE@PAU?$_Tree_node@U?$pair@$$CBKUSPartyMemberInfo@CPythonPlayer@@@std@@PAX@1@PBV?$_Tree_val@U?$_Tree_simple_types@U?$pair@$$CBKUSPartyMemberInfo@CPythonPlayer@@@std@@@std@@@1@@Z ENDP ; std::_Tree_iterator<std::_Tree_val<std::_Tree_simple_types<std::pair<unsigned long const ,CPythonPlayer::SPartyMemberInfo> > > >::_Tree_iterator<std::_Tree_val<std::_Tree_simple_types<std::pair<unsigned long const ,CPythonPlayer::SPartyMemberInfo> > > >
_TEXT	ENDS
; Function compile flags: /Ogtp
; File E:\Metin2_server\SolWayneSF v6\ClientVS22\source\eterBase\Singleton.h
;	COMDAT ??_G?$CSingleton@VCPythonPlayer@@@@UAEPAXI@Z
_TEXT	SEGMENT
___flags$ = 8						; size = 4
??_G?$CSingleton@VCPythonPlayer@@@@UAEPAXI@Z PROC	; CSingleton<CPythonPlayer>::`scalar deleting destructor', COMDAT
; _this$ = ecx
  00000	55		 push	 ebp
  00001	8b ec		 mov	 ebp, esp
  00003	f6 45 08 01	 test	 BYTE PTR ___flags$[ebp], 1

; 19   : 	{ 

  00007	56		 push	 esi
  00008	8b f1		 mov	 esi, ecx

; 20   : 		assert(ms_singleton);
; 21   : 		ms_singleton = 0; 

  0000a	c7 05 00 00 00
	00 00 00 00 00	 mov	 DWORD PTR ?ms_singleton@?$CSingleton@VCPythonPlayer@@@@0PAVCPythonPlayer@@A, 0 ; CSingleton<CPythonPlayer>::ms_singleton
  00014	c7 06 00 00 00
	00		 mov	 DWORD PTR [esi], OFFSET ??_7?$CSingleton@VCPythonPlayer@@@@6B@
  0001a	74 0b		 je	 SHORT $LN6@scalar
  0001c	6a 04		 push	 4
  0001e	56		 push	 esi
  0001f	e8 00 00 00 00	 call	 ??3@YAXPAXI@Z		; operator delete
  00024	83 c4 08	 add	 esp, 8
$LN6@scalar:
  00027	8b c6		 mov	 eax, esi
  00029	5e		 pop	 esi
  0002a	5d		 pop	 ebp
  0002b	c2 04 00	 ret	 4
??_G?$CSingleton@VCPythonPlayer@@@@UAEPAXI@Z ENDP	; CSingleton<CPythonPlayer>::`scalar deleting destructor'
_TEXT	ENDS
; Function compile flags: /Ogtp
; File E:\Metin2_server\SolWayneSF v6\ClientVS22\source\UserInterface\AbstractSingleton.h
;	COMDAT ??_G?$TAbstractSingleton@VIAbstractPlayer@@@@UAEPAXI@Z
_TEXT	SEGMENT
___flags$ = 8						; size = 4
??_G?$TAbstractSingleton@VIAbstractPlayer@@@@UAEPAXI@Z PROC ; TAbstractSingleton<IAbstractPlayer>::`scalar deleting destructor', COMDAT
; _this$ = ecx
  00000	55		 push	 ebp
  00001	8b ec		 mov	 ebp, esp
  00003	f6 45 08 01	 test	 BYTE PTR ___flags$[ebp], 1

; 17   : 	{ 

  00007	56		 push	 esi
  00008	8b f1		 mov	 esi, ecx

; 18   : 		assert(ms_singleton);
; 19   : 		ms_singleton = 0; 

  0000a	c7 05 00 00 00
	00 00 00 00 00	 mov	 DWORD PTR ?ms_singleton@?$TAbstractSingleton@VIAbstractPlayer@@@@0PAVIAbstractPlayer@@A, 0 ; TAbstractSingleton<IAbstractPlayer>::ms_singleton
  00014	c7 06 00 00 00
	00		 mov	 DWORD PTR [esi], OFFSET ??_7?$TAbstractSingleton@VIAbstractPlayer@@@@6B@
  0001a	74 0b		 je	 SHORT $LN6@scalar
  0001c	6a 04		 push	 4
  0001e	56		 push	 esi
  0001f	e8 00 00 00 00	 call	 ??3@YAXPAXI@Z		; operator delete
  00024	83 c4 08	 add	 esp, 8
$LN6@scalar:
  00027	8b c6		 mov	 eax, esi
  00029	5e		 pop	 esi
  0002a	5d		 pop	 ebp
  0002b	c2 04 00	 ret	 4
??_G?$TAbstractSingleton@VIAbstractPlayer@@@@UAEPAXI@Z ENDP ; TAbstractSingleton<IAbstractPlayer>::`scalar deleting destructor'
_TEXT	ENDS
; Function compile flags: /Ogtp
; File C:\Program Files\Microsoft Visual Studio\2022\Community\VC\Tools\MSVC\14.34.31933\include\xtree
;	COMDAT ??0?$_Tree_const_iterator@V?$_Tree_val@U?$_Tree_simple_types@U?$pair@$$CBKUSPartyMemberInfo@CPythonPlayer@@@std@@@std@@@std@@@std@@QAE@PAU?$_Tree_node@U?$pair@$$CBKUSPartyMemberInfo@CPythonPlayer@@@std@@PAX@1@PBV?$_Tree_val@U?$_Tree_simple_types@U?$pair@$$CBKUSPartyMemberInfo@CPythonPlayer@@@std@@@std@@@1@@Z
_TEXT	SEGMENT
___param0$ = 8						; size = 4
___param1$dead$ = 12					; size = 4
??0?$_Tree_const_iterator@V?$_Tree_val@U?$_Tree_simple_types@U?$pair@$$CBKUSPartyMemberInfo@CPythonPlayer@@@std@@@std@@@std@@@std@@QAE@PAU?$_Tree_node@U?$pair@$$CBKUSPartyMemberInfo@CPythonPlayer@@@std@@PAX@1@PBV?$_Tree_val@U?$_Tree_simple_types@U?$pair@$$CBKUSPartyMemberInfo@CPythonPlayer@@@std@@@std@@@1@@Z PROC ; std::_Tree_const_iterator<std::_Tree_val<std::_Tree_simple_types<std::pair<unsigned long const ,CPythonPlayer::SPartyMemberInfo> > > >::_Tree_const_iterator<std::_Tree_val<std::_Tree_simple_types<std::pair<unsigned long const ,CPythonPlayer::SPartyMemberInfo> > > >, COMDAT
; _this$ = ecx
  00000	55		 push	 ebp
  00001	8b ec		 mov	 ebp, esp

; 38   :     _Tree_unchecked_const_iterator(_Nodeptr _Pnode, const _Mytree* _Plist) noexcept : _Ptr(_Pnode) {

  00003	8b 45 08	 mov	 eax, DWORD PTR ___param0$[ebp]
  00006	89 01		 mov	 DWORD PTR [ecx], eax
  00008	8b c1		 mov	 eax, ecx
  0000a	5d		 pop	 ebp
  0000b	c2 08 00	 ret	 8
??0?$_Tree_const_iterator@V?$_Tree_val@U?$_Tree_simple_types@U?$pair@$$CBKUSPartyMemberInfo@CPythonPlayer@@@std@@@std@@@std@@@std@@QAE@PAU?$_Tree_node@U?$pair@$$CBKUSPartyMemberInfo@CPythonPlayer@@@std@@PAX@1@PBV?$_Tree_val@U?$_Tree_simple_types@U?$pair@$$CBKUSPartyMemberInfo@CPythonPlayer@@@std@@@std@@@1@@Z ENDP ; std::_Tree_const_iterator<std::_Tree_val<std::_Tree_simple_types<std::pair<unsigned long const ,CPythonPlayer::SPartyMemberInfo> > > >::_Tree_const_iterator<std::_Tree_val<std::_Tree_simple_types<std::pair<unsigned long const ,CPythonPlayer::SPartyMemberInfo> > > >
_TEXT	ENDS
; Function compile flags: /Ogtp
; File C:\Program Files\Microsoft Visual Studio\2022\Community\VC\Tools\MSVC\14.34.31933\include\xutility
;	COMDAT ?pointer_to@?$pointer_traits@PAU?$pair@$$CBKUSPartyMemberInfo@CPythonPlayer@@@std@@@std@@SAPAU?$pair@$$CBKUSPartyMemberInfo@CPythonPlayer@@@2@AAU32@@Z
_TEXT	SEGMENT
?pointer_to@?$pointer_traits@PAU?$pair@$$CBKUSPartyMemberInfo@CPythonPlayer@@@std@@@std@@SAPAU?$pair@$$CBKUSPartyMemberInfo@CPythonPlayer@@@2@AAU32@@Z PROC ; std::pointer_traits<std::pair<unsigned long const ,CPythonPlayer::SPartyMemberInfo> *>::pointer_to, COMDAT
; __Val$ = ecx

; 268  :         return _STD addressof(_Val);

  00000	8b c1		 mov	 eax, ecx

; 269  :     }

  00002	c3		 ret	 0
?pointer_to@?$pointer_traits@PAU?$pair@$$CBKUSPartyMemberInfo@CPythonPlayer@@@std@@@std@@SAPAU?$pair@$$CBKUSPartyMemberInfo@CPythonPlayer@@@2@AAU32@@Z ENDP ; std::pointer_traits<std::pair<unsigned long const ,CPythonPlayer::SPartyMemberInfo> *>::pointer_to
_TEXT	ENDS
; Function compile flags: /Ogtp
; File C:\Program Files\Microsoft Visual Studio\2022\Community\VC\Tools\MSVC\14.34.31933\include\xtree
;	COMDAT ??D?$_Tree_iterator@V?$_Tree_val@U?$_Tree_simple_types@U?$pair@$$CBKUSPartyMemberInfo@CPythonPlayer@@@std@@@std@@@std@@@std@@QBEAAU?$pair@$$CBKUSPartyMemberInfo@CPythonPlayer@@@1@XZ
_TEXT	SEGMENT
??D?$_Tree_iterator@V?$_Tree_val@U?$_Tree_simple_types@U?$pair@$$CBKUSPartyMemberInfo@CPythonPlayer@@@std@@@std@@@std@@@std@@QBEAAU?$pair@$$CBKUSPartyMemberInfo@CPythonPlayer@@@1@XZ PROC ; std::_Tree_iterator<std::_Tree_val<std::_Tree_simple_types<std::pair<unsigned long const ,CPythonPlayer::SPartyMemberInfo> > > >::operator*, COMDAT
; _this$ = ecx

; 186  :         return this->_Ptr->_Myval;

  00000	8b 01		 mov	 eax, DWORD PTR [ecx]
  00002	83 c0 10	 add	 eax, 16			; 00000010H

; 275  :         return const_cast<reference>(_Mybase::operator*());
; 276  :     }

  00005	c3		 ret	 0
??D?$_Tree_iterator@V?$_Tree_val@U?$_Tree_simple_types@U?$pair@$$CBKUSPartyMemberInfo@CPythonPlayer@@@std@@@std@@@std@@@std@@QBEAAU?$pair@$$CBKUSPartyMemberInfo@CPythonPlayer@@@1@XZ ENDP ; std::_Tree_iterator<std::_Tree_val<std::_Tree_simple_types<std::pair<unsigned long const ,CPythonPlayer::SPartyMemberInfo> > > >::operator*
_TEXT	ENDS
; Function compile flags: /Ogtp
; File C:\Program Files\Microsoft Visual Studio\2022\Community\VC\Tools\MSVC\14.34.31933\include\xtree
;	COMDAT ??E?$_Tree_const_iterator@V?$_Tree_val@U?$_Tree_simple_types@U?$pair@$$CBKUSPartyMemberInfo@CPythonPlayer@@@std@@@std@@@std@@@std@@QAEAAV01@XZ
_TEXT	SEGMENT
??E?$_Tree_const_iterator@V?$_Tree_val@U?$_Tree_simple_types@U?$pair@$$CBKUSPartyMemberInfo@CPythonPlayer@@@std@@@std@@@std@@@std@@QAEAAV01@XZ PROC ; std::_Tree_const_iterator<std::_Tree_val<std::_Tree_simple_types<std::pair<unsigned long const ,CPythonPlayer::SPartyMemberInfo> > > >::operator++, COMDAT
; _this$ = ecx

; 193  :     _Tree_const_iterator& operator++() noexcept {

  00000	56		 push	 esi
  00001	8b f1		 mov	 esi, ecx

; 194  : #if _ITERATOR_DEBUG_LEVEL == 2
; 195  :         _STL_VERIFY(this->_Getcont(), "cannot increment value-initialized map/set iterator");
; 196  :         _STL_VERIFY(!this->_Ptr->_Isnil, "cannot increment end map/set iterator");
; 197  : #endif // _ITERATOR_DEBUG_LEVEL == 2
; 198  : 
; 199  :         _Mybase::operator++();

  00003	e8 00 00 00 00	 call	 ??E?$_Tree_unchecked_const_iterator@V?$_Tree_val@U?$_Tree_simple_types@U?$pair@$$CBKUSPartyMemberInfo@CPythonPlayer@@@std@@@std@@@std@@U_Iterator_base0@2@@std@@QAEAAV01@XZ ; std::_Tree_unchecked_const_iterator<std::_Tree_val<std::_Tree_simple_types<std::pair<unsigned long const ,CPythonPlayer::SPartyMemberInfo> > >,std::_Iterator_base0>::operator++

; 200  :         return *this;

  00008	8b c6		 mov	 eax, esi
  0000a	5e		 pop	 esi

; 201  :     }

  0000b	c3		 ret	 0
??E?$_Tree_const_iterator@V?$_Tree_val@U?$_Tree_simple_types@U?$pair@$$CBKUSPartyMemberInfo@CPythonPlayer@@@std@@@std@@@std@@@std@@QAEAAV01@XZ ENDP ; std::_Tree_const_iterator<std::_Tree_val<std::_Tree_simple_types<std::pair<unsigned long const ,CPythonPlayer::SPartyMemberInfo> > > >::operator++
_TEXT	ENDS
; Function compile flags: /Ogtp
; File C:\Program Files\Microsoft Visual Studio\2022\Community\VC\Tools\MSVC\14.34.31933\include\xtree
;	COMDAT ??0?$_Tree_unchecked_const_iterator@V?$_Tree_val@U?$_Tree_simple_types@U?$pair@$$CBKUSPartyMemberInfo@CPythonPlayer@@@std@@@std@@@std@@U_Iterator_base0@2@@std@@QAE@PAU?$_Tree_node@U?$pair@$$CBKUSPartyMemberInfo@CPythonPlayer@@@std@@PAX@1@PBV?$_Tree_val@U?$_Tree_simple_types@U?$pair@$$CBKUSPartyMemberInfo@CPythonPlayer@@@std@@@std@@@1@@Z
_TEXT	SEGMENT
__Pnode$ = 8						; size = 4
__Plist$dead$ = 12					; size = 4
??0?$_Tree_unchecked_const_iterator@V?$_Tree_val@U?$_Tree_simple_types@U?$pair@$$CBKUSPartyMemberInfo@CPythonPlayer@@@std@@@std@@@std@@U_Iterator_base0@2@@std@@QAE@PAU?$_Tree_node@U?$pair@$$CBKUSPartyMemberInfo@CPythonPlayer@@@std@@PAX@1@PBV?$_Tree_val@U?$_Tree_simple_types@U?$pair@$$CBKUSPartyMemberInfo@CPythonPlayer@@@std@@@std@@@1@@Z PROC ; std::_Tree_unchecked_const_iterator<std::_Tree_val<std::_Tree_simple_types<std::pair<unsigned long const ,CPythonPlayer::SPartyMemberInfo> > >,std::_Iterator_base0>::_Tree_unchecked_const_iterator<std::_Tree_val<std::_Tree_simple_types<std::pair<unsigned long const ,CPythonPlayer::SPartyMemberInfo> > >,std::_Iterator_base0>, COMDAT
; _this$ = ecx

; 38   :     _Tree_unchecked_const_iterator(_Nodeptr _Pnode, const _Mytree* _Plist) noexcept : _Ptr(_Pnode) {

  00000	55		 push	 ebp
  00001	8b ec		 mov	 ebp, esp
  00003	8b 45 08	 mov	 eax, DWORD PTR __Pnode$[ebp]
  00006	89 01		 mov	 DWORD PTR [ecx], eax

; 39   :         this->_Adopt(_Plist);
; 40   :     }

  00008	8b c1		 mov	 eax, ecx
  0000a	5d		 pop	 ebp
  0000b	c2 08 00	 ret	 8
??0?$_Tree_unchecked_const_iterator@V?$_Tree_val@U?$_Tree_simple_types@U?$pair@$$CBKUSPartyMemberInfo@CPythonPlayer@@@std@@@std@@@std@@U_Iterator_base0@2@@std@@QAE@PAU?$_Tree_node@U?$pair@$$CBKUSPartyMemberInfo@CPythonPlayer@@@std@@PAX@1@PBV?$_Tree_val@U?$_Tree_simple_types@U?$pair@$$CBKUSPartyMemberInfo@CPythonPlayer@@@std@@@std@@@1@@Z ENDP ; std::_Tree_unchecked_const_iterator<std::_Tree_val<std::_Tree_simple_types<std::pair<unsigned long const ,CPythonPlayer::SPartyMemberInfo> > >,std::_Iterator_base0>::_Tree_unchecked_const_iterator<std::_Tree_val<std::_Tree_simple_types<std::pair<unsigned long const ,CPythonPlayer::SPartyMemberInfo> > >,std::_Iterator_base0>
_TEXT	ENDS
; Function compile flags: /Ogtp
; File C:\Program Files\Microsoft Visual Studio\2022\Community\VC\Tools\MSVC\14.34.31933\include\xtree
;	COMDAT ?_Orphan_ptr@?$_Tree_val@U?$_Tree_simple_types@U?$pair@$$CBKUSPartyMemberInfo@CPythonPlayer@@@std@@@std@@@std@@QAEXQAU?$_Tree_node@U?$pair@$$CBKUSPartyMemberInfo@CPythonPlayer@@@std@@PAX@2@@Z
_TEXT	SEGMENT
__Ptr$dead$ = 8						; size = 4
?_Orphan_ptr@?$_Tree_val@U?$_Tree_simple_types@U?$pair@$$CBKUSPartyMemberInfo@CPythonPlayer@@@std@@@std@@@std@@QAEXQAU?$_Tree_node@U?$pair@$$CBKUSPartyMemberInfo@CPythonPlayer@@@std@@PAX@2@@Z PROC ; std::_Tree_val<std::_Tree_simple_types<std::pair<unsigned long const ,CPythonPlayer::SPartyMemberInfo> > >::_Orphan_ptr, COMDAT
; _this$dead$ = ecx

; 716  : #if _ITERATOR_DEBUG_LEVEL == 2
; 717  :         _Lockit _Lock(_LOCK_DEBUG);
; 718  :         _Iterator_base12** _Pnext = &this->_Myproxy->_Myfirstiter;
; 719  :         while (*_Pnext) {
; 720  :             const auto _Pnextptr = static_cast<const_iterator&>(**_Pnext)._Ptr;
; 721  :             if (_Pnextptr == _Myhead || (_Ptr != nullptr && _Pnextptr != _Ptr)) {
; 722  :                 _Pnext = &(*_Pnext)->_Mynextiter;
; 723  :             } else { // orphan the iterator
; 724  :                 (*_Pnext)->_Myproxy = nullptr;
; 725  :                 *_Pnext             = (*_Pnext)->_Mynextiter;
; 726  :             }
; 727  :         }
; 728  : #else // ^^^ _ITERATOR_DEBUG_LEVEL == 2 ^^^ // vvv _ITERATOR_DEBUG_LEVEL != 2 vvv
; 729  :         (void) _Ptr;
; 730  : #endif // _ITERATOR_DEBUG_LEVEL == 2
; 731  :     }

  00000	c2 04 00	 ret	 4
?_Orphan_ptr@?$_Tree_val@U?$_Tree_simple_types@U?$pair@$$CBKUSPartyMemberInfo@CPythonPlayer@@@std@@@std@@@std@@QAEXQAU?$_Tree_node@U?$pair@$$CBKUSPartyMemberInfo@CPythonPlayer@@@std@@PAX@2@@Z ENDP ; std::_Tree_val<std::_Tree_simple_types<std::pair<unsigned long const ,CPythonPlayer::SPartyMemberInfo> > >::_Orphan_ptr
_TEXT	ENDS
; Function compile flags: /Ogtp
; File C:\Program Files\Microsoft Visual Studio\2022\Community\VC\Tools\MSVC\14.34.31933\include\xtree
;	COMDAT ?_Get_scary@?$_Tree@V?$_Tmap_traits@KUSPartyMemberInfo@CPythonPlayer@@U?$less@K@std@@V?$allocator@U?$pair@$$CBKUSPartyMemberInfo@CPythonPlayer@@@std@@@4@$0A@@std@@@std@@IAEPAV?$_Tree_val@U?$_Tree_simple_types@U?$pair@$$CBKUSPartyMemberInfo@CPythonPlayer@@@std@@@std@@@2@XZ
_TEXT	SEGMENT
?_Get_scary@?$_Tree@V?$_Tmap_traits@KUSPartyMemberInfo@CPythonPlayer@@U?$less@K@std@@V?$allocator@U?$pair@$$CBKUSPartyMemberInfo@CPythonPlayer@@@std@@@4@$0A@@std@@@std@@IAEPAV?$_Tree_val@U?$_Tree_simple_types@U?$pair@$$CBKUSPartyMemberInfo@CPythonPlayer@@@std@@@std@@@2@XZ PROC ; std::_Tree<std::_Tmap_traits<unsigned long,CPythonPlayer::SPartyMemberInfo,std::less<unsigned long>,std::allocator<std::pair<unsigned long const ,CPythonPlayer::SPartyMemberInfo> >,0> >::_Get_scary, COMDAT
; _this$ = ecx

; 1967 :         return _STD addressof(_Mypair._Myval2._Myval2);

  00000	8b c1		 mov	 eax, ecx

; 1968 :     }

  00002	c3		 ret	 0
?_Get_scary@?$_Tree@V?$_Tmap_traits@KUSPartyMemberInfo@CPythonPlayer@@U?$less@K@std@@V?$allocator@U?$pair@$$CBKUSPartyMemberInfo@CPythonPlayer@@@std@@@4@$0A@@std@@@std@@IAEPAV?$_Tree_val@U?$_Tree_simple_types@U?$pair@$$CBKUSPartyMemberInfo@CPythonPlayer@@@std@@@std@@@2@XZ ENDP ; std::_Tree<std::_Tmap_traits<unsigned long,CPythonPlayer::SPartyMemberInfo,std::less<unsigned long>,std::allocator<std::pair<unsigned long const ,CPythonPlayer::SPartyMemberInfo> >,0> >::_Get_scary
_TEXT	ENDS
; Function compile flags: /Ogtp
; File C:\Program Files\Microsoft Visual Studio\2022\Community\VC\Tools\MSVC\14.34.31933\include\xtree
;	COMDAT ?_Getal@?$_Tree@V?$_Tmap_traits@KUSPartyMemberInfo@CPythonPlayer@@U?$less@K@std@@V?$allocator@U?$pair@$$CBKUSPartyMemberInfo@CPythonPlayer@@@std@@@4@$0A@@std@@@std@@IAEAAV?$allocator@U?$_Tree_node@U?$pair@$$CBKUSPartyMemberInfo@CPythonPlayer@@@std@@PAX@std@@@2@XZ
_TEXT	SEGMENT
?_Getal@?$_Tree@V?$_Tmap_traits@KUSPartyMemberInfo@CPythonPlayer@@U?$less@K@std@@V?$allocator@U?$pair@$$CBKUSPartyMemberInfo@CPythonPlayer@@@std@@@4@$0A@@std@@@std@@IAEAAV?$allocator@U?$_Tree_node@U?$pair@$$CBKUSPartyMemberInfo@CPythonPlayer@@@std@@PAX@std@@@2@XZ PROC ; std::_Tree<std::_Tmap_traits<unsigned long,CPythonPlayer::SPartyMemberInfo,std::less<unsigned long>,std::allocator<std::pair<unsigned long const ,CPythonPlayer::SPartyMemberInfo> >,0> >::_Getal, COMDAT
; _this$ = ecx

; 1959 :         return _Mypair._Myval2._Get_first();

  00000	8b c1		 mov	 eax, ecx

; 1960 :     }

  00002	c3		 ret	 0
?_Getal@?$_Tree@V?$_Tmap_traits@KUSPartyMemberInfo@CPythonPlayer@@U?$less@K@std@@V?$allocator@U?$pair@$$CBKUSPartyMemberInfo@CPythonPlayer@@@std@@@4@$0A@@std@@@std@@IAEAAV?$allocator@U?$_Tree_node@U?$pair@$$CBKUSPartyMemberInfo@CPythonPlayer@@@std@@PAX@std@@@2@XZ ENDP ; std::_Tree<std::_Tmap_traits<unsigned long,CPythonPlayer::SPartyMemberInfo,std::less<unsigned long>,std::allocator<std::pair<unsigned long const ,CPythonPlayer::SPartyMemberInfo> >,0> >::_Getal
_TEXT	ENDS
; Function compile flags: /Ogtp
; File C:\Program Files\Microsoft Visual Studio\2022\Community\VC\Tools\MSVC\14.34.31933\include\xtree
; File C:\Program Files\Microsoft Visual Studio\2022\Community\VC\Tools\MSVC\14.34.31933\include\xutility
; File C:\Program Files\Microsoft Visual Studio\2022\Community\VC\Tools\MSVC\14.34.31933\include\xtree
; File C:\Program Files\Microsoft Visual Studio\2022\Community\VC\Tools\MSVC\14.34.31933\include\xutility
; File C:\Program Files\Microsoft Visual Studio\2022\Community\VC\Tools\MSVC\14.34.31933\include\xtree
; File C:\Program Files\Microsoft Visual Studio\2022\Community\VC\Tools\MSVC\14.34.31933\include\xutility
; File C:\Program Files\Microsoft Visual Studio\2022\Community\VC\Tools\MSVC\14.34.31933\include\xtree
; File C:\Program Files\Microsoft Visual Studio\2022\Community\VC\Tools\MSVC\14.34.31933\include\xutility
; File C:\Program Files\Microsoft Visual Studio\2022\Community\VC\Tools\MSVC\14.34.31933\include\xtree
; File C:\Program Files\Microsoft Visual Studio\2022\Community\VC\Tools\MSVC\14.34.31933\include\xutility
; File C:\Program Files\Microsoft Visual Studio\2022\Community\VC\Tools\MSVC\14.34.31933\include\xtree
;	COMDAT ?_Erase@?$_Tree@V?$_Tmap_traits@KUSPartyMemberInfo@CPythonPlayer@@U?$less@K@std@@V?$allocator@U?$pair@$$CBKUSPartyMemberInfo@CPythonPlayer@@@std@@@4@$0A@@std@@@std@@AAEIU?$pair@PAU?$_Tree_node@U?$pair@$$CBKUSPartyMemberInfo@CPythonPlayer@@@std@@PAX@std@@PAU12@@2@@Z
_TEXT	SEGMENT
__First$ = -12						; size = 4
_this$1$ = -8						; size = 4
__Off$1$ = -4						; size = 4
__Where$ = 8						; size = 8
?_Erase@?$_Tree@V?$_Tmap_traits@KUSPartyMemberInfo@CPythonPlayer@@U?$less@K@std@@V?$allocator@U?$pair@$$CBKUSPartyMemberInfo@CPythonPlayer@@@std@@@4@$0A@@std@@@std@@AAEIU?$pair@PAU?$_Tree_node@U?$pair@$$CBKUSPartyMemberInfo@CPythonPlayer@@@std@@PAX@std@@PAU12@@2@@Z PROC ; std::_Tree<std::_Tmap_traits<unsigned long,CPythonPlayer::SPartyMemberInfo,std::less<unsigned long>,std::allocator<std::pair<unsigned long const ,CPythonPlayer::SPartyMemberInfo> >,0> >::_Erase, COMDAT
; _this$ = ecx

; 1309 :     size_type _Erase(const pair<_Nodeptr, _Nodeptr> _Where) noexcept {

  00000	55		 push	 ebp
  00001	8b ec		 mov	 ebp, esp
  00003	83 ec 0c	 sub	 esp, 12			; 0000000cH
  00006	53		 push	 ebx
  00007	56		 push	 esi
; File C:\Program Files\Microsoft Visual Studio\2022\Community\VC\Tools\MSVC\14.34.31933\include\xutility

; 1167 :         _Iter_diff_t<_InIt> _Off = 0;

  00008	8b 75 0c	 mov	 esi, DWORD PTR __Where$[ebp+4]
; File C:\Program Files\Microsoft Visual Studio\2022\Community\VC\Tools\MSVC\14.34.31933\include\xtree

; 1309 :     size_type _Erase(const pair<_Nodeptr, _Nodeptr> _Where) noexcept {

  0000b	8b d1		 mov	 edx, ecx
  0000d	57		 push	 edi
; File C:\Program Files\Microsoft Visual Studio\2022\Community\VC\Tools\MSVC\14.34.31933\include\xutility

; 1165 :         auto _UFirst             = _Get_unwrapped(_First);

  0000e	8b 7d 08	 mov	 edi, DWORD PTR __Where$[ebp]

; 1167 :         _Iter_diff_t<_InIt> _Off = 0;

  00011	33 c9		 xor	 ecx, ecx
  00013	8b c7		 mov	 eax, edi
; File C:\Program Files\Microsoft Visual Studio\2022\Community\VC\Tools\MSVC\14.34.31933\include\xtree

; 1309 :     size_type _Erase(const pair<_Nodeptr, _Nodeptr> _Where) noexcept {

  00015	89 55 f8	 mov	 DWORD PTR _this$1$[ebp], edx
; File C:\Program Files\Microsoft Visual Studio\2022\Community\VC\Tools\MSVC\14.34.31933\include\xutility

; 1167 :         _Iter_diff_t<_InIt> _Off = 0;

  00018	89 4d fc	 mov	 DWORD PTR __Off$1$[ebp], ecx
  0001b	3b c6		 cmp	 eax, esi

; 1168 :         for (; _UFirst != _ULast; ++_UFirst) {

  0001d	74 4f		 je	 SHORT $LN9@Erase
  0001f	33 ff		 xor	 edi, edi
$LL18@Erase:
; File C:\Program Files\Microsoft Visual Studio\2022\Community\VC\Tools\MSVC\14.34.31933\include\xtree

; 51   :         if (_Ptr->_Right->_Isnil) { // climb looking for right subtree

  00021	8b 48 08	 mov	 ecx, DWORD PTR [eax+8]
; File C:\Program Files\Microsoft Visual Studio\2022\Community\VC\Tools\MSVC\14.34.31933\include\xutility

; 1169 :             ++_Off;

  00024	47		 inc	 edi
; File C:\Program Files\Microsoft Visual Studio\2022\Community\VC\Tools\MSVC\14.34.31933\include\xtree

; 51   :         if (_Ptr->_Right->_Isnil) { // climb looking for right subtree

  00025	80 79 0d 00	 cmp	 BYTE PTR [ecx+13], 0
  00029	74 1d		 je	 SHORT $LN17@Erase

; 52   :             _Nodeptr _Pnode;
; 53   :             while (!(_Pnode = _Ptr->_Parent)->_Isnil && _Ptr == _Pnode->_Right) {

  0002b	8b 48 04	 mov	 ecx, DWORD PTR [eax+4]
  0002e	80 79 0d 00	 cmp	 BYTE PTR [ecx+13], 0
  00032	75 10		 jne	 SHORT $LN62@Erase
$LL15@Erase:
  00034	3b 41 08	 cmp	 eax, DWORD PTR [ecx+8]
  00037	75 0b		 jne	 SHORT $LN62@Erase

; 54   :                 _Ptr = _Pnode; // ==> parent while right subtree

  00039	8b c1		 mov	 eax, ecx
  0003b	8b 49 04	 mov	 ecx, DWORD PTR [ecx+4]
  0003e	80 79 0d 00	 cmp	 BYTE PTR [ecx+13], 0
  00042	74 f0		 je	 SHORT $LL15@Erase
$LN62@Erase:

; 55   :             }
; 56   : 
; 57   :             _Ptr = _Pnode; // ==> parent (head if end())

  00044	8b c1		 mov	 eax, ecx

; 58   :         } else {

  00046	eb 16		 jmp	 SHORT $LN22@Erase
$LN17@Erase:

; 59   :             _Ptr = _Mytree::_Min(_Ptr->_Right); // ==> smallest of right subtree

  00048	8b c1		 mov	 eax, ecx

; 453  :         while (!_Pnode->_Left->_Isnil) {

  0004a	8b 10		 mov	 edx, DWORD PTR [eax]
  0004c	80 7a 0d 00	 cmp	 BYTE PTR [edx+13], 0
  00050	75 0c		 jne	 SHORT $LN22@Erase
$LL21@Erase:
  00052	8b 0a		 mov	 ecx, DWORD PTR [edx]

; 454  :             _Pnode = _Pnode->_Left;

  00054	8b c2		 mov	 eax, edx
  00056	8b d1		 mov	 edx, ecx
  00058	80 79 0d 00	 cmp	 BYTE PTR [ecx+13], 0
  0005c	74 f4		 je	 SHORT $LL21@Erase
$LN22@Erase:

; 97   :         return _Ptr == _Right._Ptr;

  0005e	3b c6		 cmp	 eax, esi
; File C:\Program Files\Microsoft Visual Studio\2022\Community\VC\Tools\MSVC\14.34.31933\include\xutility

; 1168 :         for (; _UFirst != _ULast; ++_UFirst) {

  00060	75 bf		 jne	 SHORT $LL18@Erase
  00062	8b 55 f8	 mov	 edx, DWORD PTR _this$1$[ebp]
  00065	89 7d fc	 mov	 DWORD PTR __Off$1$[ebp], edi
  00068	8b 7d 08	 mov	 edi, DWORD PTR __Where$[ebp]
  0006b	8b 4d fc	 mov	 ecx, DWORD PTR __Off$1$[ebp]
$LN9@Erase:
; File C:\Program Files\Microsoft Visual Studio\2022\Community\VC\Tools\MSVC\14.34.31933\include\xtree

; 1145 :         return _Unchecked_iterator(_Get_scary()->_Myhead->_Left, nullptr);

  0006e	8b 1a		 mov	 ebx, DWORD PTR [edx]

; 1310 :         const _Unchecked_const_iterator _First(_Where.first, nullptr);
; 1311 :         const _Unchecked_const_iterator _Last(_Where.second, nullptr);
; 1312 :         const auto _Num = static_cast<size_type>(_STD distance(_First, _Last));
; 1313 :         _Erase_unchecked(_First, _Last);

  00070	89 7d f4	 mov	 DWORD PTR __First$[ebp], edi

; 97   :         return _Ptr == _Right._Ptr;

  00073	3b 3b		 cmp	 edi, DWORD PTR [ebx]

; 1295 :         if (_First == _Begin && _Last._Ptr->_Isnil) {

  00075	75 2f		 jne	 SHORT $LN48@Erase
  00077	80 7e 0d 00	 cmp	 BYTE PTR [esi+13], 0
  0007b	74 29		 je	 SHORT $LN48@Erase

; 1357 :         _Scary->_Erase_tree(_Getal(), _Head->_Parent);

  0007d	ff 73 04	 push	 DWORD PTR [ebx+4]
  00080	8b ca		 mov	 ecx, edx
  00082	52		 push	 edx
  00083	e8 00 00 00 00	 call	 ??$_Erase_tree@V?$allocator@U?$_Tree_node@U?$pair@$$CBKUSPartyMemberInfo@CPythonPlayer@@@std@@PAX@std@@@std@@@?$_Tree_val@U?$_Tree_simple_types@U?$pair@$$CBKUSPartyMemberInfo@CPythonPlayer@@@std@@@std@@@std@@QAEXAAV?$allocator@U?$_Tree_node@U?$pair@$$CBKUSPartyMemberInfo@CPythonPlayer@@@std@@PAX@std@@@1@PAU?$_Tree_node@U?$pair@$$CBKUSPartyMemberInfo@CPythonPlayer@@@std@@PAX@1@@Z ; std::_Tree_val<std::_Tree_simple_types<std::pair<unsigned long const ,CPythonPlayer::SPartyMemberInfo> > >::_Erase_tree<std::allocator<std::_Tree_node<std::pair<unsigned long const ,CPythonPlayer::SPartyMemberInfo>,void *> > >

; 1314 :         return _Num;

  00088	8b 45 fc	 mov	 eax, DWORD PTR __Off$1$[ebp]

; 1358 :         _Head->_Parent  = _Head;

  0008b	89 5b 04	 mov	 DWORD PTR [ebx+4], ebx

; 1359 :         _Head->_Left    = _Head;

  0008e	89 1b		 mov	 DWORD PTR [ebx], ebx

; 1360 :         _Head->_Right   = _Head;

  00090	89 5b 08	 mov	 DWORD PTR [ebx+8], ebx

; 1361 :         _Scary->_Mysize = 0;

  00093	8b 5d f8	 mov	 ebx, DWORD PTR _this$1$[ebp]
  00096	5f		 pop	 edi

; 1315 :     }

  00097	5e		 pop	 esi

; 1361 :         _Scary->_Mysize = 0;

  00098	c7 43 04 00 00
	00 00		 mov	 DWORD PTR [ebx+4], 0

; 1315 :     }

  0009f	5b		 pop	 ebx
  000a0	8b e5		 mov	 esp, ebp
  000a2	5d		 pop	 ebp
  000a3	c2 08 00	 ret	 8
$LN48@Erase:

; 97   :         return _Ptr == _Right._Ptr;

  000a6	3b fe		 cmp	 edi, esi

; 1302 :         while (_First != _Last) {

  000a8	74 30		 je	 SHORT $LN61@Erase
  000aa	8b 5d f8	 mov	 ebx, DWORD PTR _this$1$[ebp]
  000ad	0f 1f 00	 npad	 3
$LL25@Erase:

; 67   :         ++*this;

  000b0	8d 4d f4	 lea	 ecx, DWORD PTR __First$[ebp]
  000b3	e8 00 00 00 00	 call	 ??E?$_Tree_unchecked_const_iterator@V?$_Tree_val@U?$_Tree_simple_types@U?$pair@$$CBKUSPartyMemberInfo@CPythonPlayer@@@std@@@std@@@std@@U_Iterator_base0@2@@std@@QAEAAV01@XZ ; std::_Tree_unchecked_const_iterator<std::_Tree_val<std::_Tree_simple_types<std::pair<unsigned long const ,CPythonPlayer::SPartyMemberInfo> > >,std::_Iterator_base0>::operator++

; 1287 :         _Nodeptr _Erasednode = _Scary->_Extract(_Where); // node to erase

  000b8	57		 push	 edi
  000b9	8b cb		 mov	 ecx, ebx
  000bb	e8 00 00 00 00	 call	 ?_Extract@?$_Tree_val@U?$_Tree_simple_types@U?$pair@$$CBKUSPartyMemberInfo@CPythonPlayer@@@std@@@std@@@std@@QAEPAU?$_Tree_node@U?$pair@$$CBKUSPartyMemberInfo@CPythonPlayer@@@std@@PAX@2@V?$_Tree_unchecked_const_iterator@V?$_Tree_val@U?$_Tree_simple_types@U?$pair@$$CBKUSPartyMemberInfo@CPythonPlayer@@@std@@@std@@@std@@U_Iterator_base0@2@@2@@Z ; std::_Tree_val<std::_Tree_simple_types<std::pair<unsigned long const ,CPythonPlayer::SPartyMemberInfo> > >::_Extract

; 1288 :         _Scary->_Orphan_ptr(_Erasednode);
; 1289 :         _Node::_Freenode(_Getal(), _Erasednode); // delete erased node

  000c0	8b d0		 mov	 edx, eax
  000c2	e8 00 00 00 00	 call	 ??$_Freenode@V?$allocator@U?$_Tree_node@U?$pair@$$CBKUSPartyMemberInfo@CPythonPlayer@@@std@@PAX@std@@@std@@@?$_Tree_node@U?$pair@$$CBKUSPartyMemberInfo@CPythonPlayer@@@std@@PAX@std@@SAXAAV?$allocator@U?$_Tree_node@U?$pair@$$CBKUSPartyMemberInfo@CPythonPlayer@@@std@@PAX@std@@@1@PAU01@@Z ; std::_Tree_node<std::pair<unsigned long const ,CPythonPlayer::SPartyMemberInfo>,void *>::_Freenode<std::allocator<std::_Tree_node<std::pair<unsigned long const ,CPythonPlayer::SPartyMemberInfo>,void *> > >

; 97   :         return _Ptr == _Right._Ptr;

  000c7	8b 7d f4	 mov	 edi, DWORD PTR __First$[ebp]
  000ca	3b fe		 cmp	 edi, esi

; 1302 :         while (_First != _Last) {

  000cc	75 e2		 jne	 SHORT $LL25@Erase

; 1315 :     }

  000ce	8b 45 fc	 mov	 eax, DWORD PTR __Off$1$[ebp]
  000d1	5f		 pop	 edi
  000d2	5e		 pop	 esi
  000d3	5b		 pop	 ebx
  000d4	8b e5		 mov	 esp, ebp
  000d6	5d		 pop	 ebp
  000d7	c2 08 00	 ret	 8
$LN61@Erase:
  000da	5f		 pop	 edi
  000db	5e		 pop	 esi
  000dc	8b c1		 mov	 eax, ecx
  000de	5b		 pop	 ebx
  000df	8b e5		 mov	 esp, ebp
  000e1	5d		 pop	 ebp
  000e2	c2 08 00	 ret	 8
?_Erase@?$_Tree@V?$_Tmap_traits@KUSPartyMemberInfo@CPythonPlayer@@U?$less@K@std@@V?$allocator@U?$pair@$$CBKUSPartyMemberInfo@CPythonPlayer@@@std@@@4@$0A@@std@@@std@@AAEIU?$pair@PAU?$_Tree_node@U?$pair@$$CBKUSPartyMemberInfo@CPythonPlayer@@@std@@PAX@std@@PAU12@@2@@Z ENDP ; std::_Tree<std::_Tmap_traits<unsigned long,CPythonPlayer::SPartyMemberInfo,std::less<unsigned long>,std::allocator<std::pair<unsigned long const ,CPythonPlayer::SPartyMemberInfo> >,0> >::_Erase
_TEXT	ENDS
; Function compile flags: /Ogtp
; File C:\Program Files\Microsoft Visual Studio\2022\Community\VC\Tools\MSVC\14.34.31933\include\xtree
; File C:\Program Files\Microsoft Visual Studio\2022\Community\VC\Tools\MSVC\14.34.31933\include\xmemory
; File C:\Program Files\Microsoft Visual Studio\2022\Community\VC\Tools\MSVC\14.34.31933\include\xtree
; File C:\Program Files\Microsoft Visual Studio\2022\Community\VC\Tools\MSVC\14.34.31933\include\xmemory
; File C:\Program Files\Microsoft Visual Studio\2022\Community\VC\Tools\MSVC\14.34.31933\include\xtree
;	COMDAT ??0?$_Tree@V?$_Tmap_traits@KUSPartyMemberInfo@CPythonPlayer@@U?$less@K@std@@V?$allocator@U?$pair@$$CBKUSPartyMemberInfo@CPythonPlayer@@@std@@@4@$0A@@std@@@std@@QAE@ABU?$less@K@1@@Z
_TEXT	SEGMENT
__Parg$dead$ = 8					; size = 4
??0?$_Tree@V?$_Tmap_traits@KUSPartyMemberInfo@CPythonPlayer@@U?$less@K@std@@V?$allocator@U?$pair@$$CBKUSPartyMemberInfo@CPythonPlayer@@@std@@@4@$0A@@std@@@std@@QAE@ABU?$less@K@1@@Z PROC ; std::_Tree<std::_Tmap_traits<unsigned long,CPythonPlayer::SPartyMemberInfo,std::less<unsigned long>,std::allocator<std::pair<unsigned long const ,CPythonPlayer::SPartyMemberInfo> >,0> >::_Tree<std::_Tmap_traits<unsigned long,CPythonPlayer::SPartyMemberInfo,std::less<unsigned long>,std::allocator<std::pair<unsigned long const ,CPythonPlayer::SPartyMemberInfo> >,0> >, COMDAT
; _this$ = ecx

; 882  :     _Tree(const key_compare& _Parg) : _Mypair(_One_then_variadic_args_t{}, _Parg, _Zero_then_variadic_args_t{}) {

  00000	56		 push	 esi
  00001	8b f1		 mov	 esi, ecx
; File C:\Program Files\Microsoft Visual Studio\2022\Community\VC\Tools\MSVC\14.34.31933\include\xmemory

; 77   :         return ::operator new(_Bytes);

  00003	6a 44		 push	 68			; 00000044H
; File C:\Program Files\Microsoft Visual Studio\2022\Community\VC\Tools\MSVC\14.34.31933\include\xtree

; 437  :     _Tree_val() noexcept : _Myhead(), _Mysize(0) {}

  00005	c7 06 00 00 00
	00		 mov	 DWORD PTR [esi], 0
  0000b	c7 46 04 00 00
	00 00		 mov	 DWORD PTR [esi+4], 0
; File C:\Program Files\Microsoft Visual Studio\2022\Community\VC\Tools\MSVC\14.34.31933\include\xmemory

; 77   :         return ::operator new(_Bytes);

  00012	e8 00 00 00 00	 call	 ??2@YAPAXI@Z		; operator new
  00017	83 c4 04	 add	 esp, 4
; File C:\Program Files\Microsoft Visual Studio\2022\Community\VC\Tools\MSVC\14.34.31933\include\xtree

; 347  :         _Construct_in_place(_Pnode->_Left, _Pnode);

  0001a	89 00		 mov	 DWORD PTR [eax], eax

; 348  :         _Construct_in_place(_Pnode->_Parent, _Pnode);

  0001c	89 40 04	 mov	 DWORD PTR [eax+4], eax

; 349  :         _Construct_in_place(_Pnode->_Right, _Pnode);

  0001f	89 40 08	 mov	 DWORD PTR [eax+8], eax

; 350  :         _Pnode->_Color = _Black;

  00022	66 c7 40 0c 01
	01		 mov	 WORD PTR [eax+12], 257	; 00000101H

; 1941 :         _Scary->_Myhead = _Node::_Buyheadnode(_Getal());

  00028	89 06		 mov	 DWORD PTR [esi], eax

; 883  :         _Alloc_sentinel_and_proxy();
; 884  :     }

  0002a	8b c6		 mov	 eax, esi
  0002c	5e		 pop	 esi
  0002d	c2 04 00	 ret	 4
??0?$_Tree@V?$_Tmap_traits@KUSPartyMemberInfo@CPythonPlayer@@U?$less@K@std@@V?$allocator@U?$pair@$$CBKUSPartyMemberInfo@CPythonPlayer@@@std@@@4@$0A@@std@@@std@@QAE@ABU?$less@K@1@@Z ENDP ; std::_Tree<std::_Tmap_traits<unsigned long,CPythonPlayer::SPartyMemberInfo,std::less<unsigned long>,std::allocator<std::pair<unsigned long const ,CPythonPlayer::SPartyMemberInfo> >,0> >::_Tree<std::_Tmap_traits<unsigned long,CPythonPlayer::SPartyMemberInfo,std::less<unsigned long>,std::allocator<std::pair<unsigned long const ,CPythonPlayer::SPartyMemberInfo> >,0> >
_TEXT	ENDS
; Function compile flags: /Ogtp
; File C:\Program Files\Microsoft Visual Studio\2022\Community\VC\Tools\MSVC\14.34.31933\include\xtree
;	COMDAT ??D?$_Tree_const_iterator@V?$_Tree_val@U?$_Tree_simple_types@U?$pair@$$CBKUSPartyMemberInfo@CPythonPlayer@@@std@@@std@@@std@@@std@@QBEABU?$pair@$$CBKUSPartyMemberInfo@CPythonPlayer@@@1@XZ
_TEXT	SEGMENT
??D?$_Tree_const_iterator@V?$_Tree_val@U?$_Tree_simple_types@U?$pair@$$CBKUSPartyMemberInfo@CPythonPlayer@@@std@@@std@@@std@@@std@@QBEABU?$pair@$$CBKUSPartyMemberInfo@CPythonPlayer@@@1@XZ PROC ; std::_Tree_const_iterator<std::_Tree_val<std::_Tree_simple_types<std::pair<unsigned long const ,CPythonPlayer::SPartyMemberInfo> > > >::operator*, COMDAT
; _this$ = ecx

; 180  : #if _ITERATOR_DEBUG_LEVEL == 2
; 181  :         const auto _Mycont = static_cast<const _Mytree*>(this->_Getcont());
; 182  :         _STL_ASSERT(_Mycont, "cannot dereference value-initialized map/set iterator");
; 183  :         _STL_VERIFY(this->_Ptr != _Mycont->_Myhead, "cannot dereference end map/set iterator");
; 184  : #endif // _ITERATOR_DEBUG_LEVEL == 2
; 185  : 
; 186  :         return this->_Ptr->_Myval;

  00000	8b 01		 mov	 eax, DWORD PTR [ecx]
  00002	83 c0 10	 add	 eax, 16			; 00000010H

; 187  :     }

  00005	c3		 ret	 0
??D?$_Tree_const_iterator@V?$_Tree_val@U?$_Tree_simple_types@U?$pair@$$CBKUSPartyMemberInfo@CPythonPlayer@@@std@@@std@@@std@@@std@@QBEABU?$pair@$$CBKUSPartyMemberInfo@CPythonPlayer@@@1@XZ ENDP ; std::_Tree_const_iterator<std::_Tree_val<std::_Tree_simple_types<std::pair<unsigned long const ,CPythonPlayer::SPartyMemberInfo> > > >::operator*
_TEXT	ENDS
; Function compile flags: /Ogtp
; File C:\Program Files\Microsoft Visual Studio\2022\Community\VC\Tools\MSVC\14.34.31933\include\xtree
;	COMDAT ??E?$_Tree_unchecked_const_iterator@V?$_Tree_val@U?$_Tree_simple_types@U?$pair@$$CBKUSPartyMemberInfo@CPythonPlayer@@@std@@@std@@@std@@U_Iterator_base0@2@@std@@QAEAAV01@XZ
_TEXT	SEGMENT
??E?$_Tree_unchecked_const_iterator@V?$_Tree_val@U?$_Tree_simple_types@U?$pair@$$CBKUSPartyMemberInfo@CPythonPlayer@@@std@@@std@@@std@@U_Iterator_base0@2@@std@@QAEAAV01@XZ PROC ; std::_Tree_unchecked_const_iterator<std::_Tree_val<std::_Tree_simple_types<std::pair<unsigned long const ,CPythonPlayer::SPartyMemberInfo> > >,std::_Iterator_base0>::operator++, COMDAT
; _this$ = ecx

; 50   :     _Tree_unchecked_const_iterator& operator++() noexcept {

  00000	56		 push	 esi
  00001	8b f1		 mov	 esi, ecx
  00003	57		 push	 edi

; 51   :         if (_Ptr->_Right->_Isnil) { // climb looking for right subtree

  00004	8b 16		 mov	 edx, DWORD PTR [esi]
  00006	8b 7a 08	 mov	 edi, DWORD PTR [edx+8]
  00009	80 7f 0d 00	 cmp	 BYTE PTR [edi+13], 0
  0000d	74 22		 je	 SHORT $LN4@operator

; 52   :             _Nodeptr _Pnode;
; 53   :             while (!(_Pnode = _Ptr->_Parent)->_Isnil && _Ptr == _Pnode->_Right) {

  0000f	8b 42 04	 mov	 eax, DWORD PTR [edx+4]
  00012	80 78 0d 00	 cmp	 BYTE PTR [eax+13], 0
  00016	75 12		 jne	 SHORT $LN19@operator
$LL2@operator:
  00018	3b 50 08	 cmp	 edx, DWORD PTR [eax+8]
  0001b	75 0d		 jne	 SHORT $LN19@operator

; 54   :                 _Ptr = _Pnode; // ==> parent while right subtree

  0001d	89 06		 mov	 DWORD PTR [esi], eax
  0001f	8b d0		 mov	 edx, eax
  00021	8b 40 04	 mov	 eax, DWORD PTR [eax+4]
  00024	80 78 0d 00	 cmp	 BYTE PTR [eax+13], 0
  00028	74 ee		 je	 SHORT $LL2@operator
$LN19@operator:

; 55   :             }
; 56   : 
; 57   :             _Ptr = _Pnode; // ==> parent (head if end())
; 58   :         } else {
; 59   :             _Ptr = _Mytree::_Min(_Ptr->_Right); // ==> smallest of right subtree
; 60   :         }
; 61   : 
; 62   :         return *this;

  0002a	89 06		 mov	 DWORD PTR [esi], eax

; 63   :     }

  0002c	8b c6		 mov	 eax, esi
  0002e	5f		 pop	 edi
  0002f	5e		 pop	 esi
  00030	c3		 ret	 0
$LN4@operator:

; 453  :         while (!_Pnode->_Left->_Isnil) {

  00031	8b 0f		 mov	 ecx, DWORD PTR [edi]
  00033	80 79 0d 00	 cmp	 BYTE PTR [ecx+13], 0
  00037	75 13		 jne	 SHORT $LN9@operator
  00039	0f 1f 80 00 00
	00 00		 npad	 7
$LL8@operator:
  00040	8b 01		 mov	 eax, DWORD PTR [ecx]

; 454  :             _Pnode = _Pnode->_Left;

  00042	8b f9		 mov	 edi, ecx
  00044	8b c8		 mov	 ecx, eax
  00046	80 78 0d 00	 cmp	 BYTE PTR [eax+13], 0
  0004a	74 f4		 je	 SHORT $LL8@operator
$LN9@operator:

; 55   :             }
; 56   : 
; 57   :             _Ptr = _Pnode; // ==> parent (head if end())
; 58   :         } else {
; 59   :             _Ptr = _Mytree::_Min(_Ptr->_Right); // ==> smallest of right subtree
; 60   :         }
; 61   : 
; 62   :         return *this;

  0004c	89 3e		 mov	 DWORD PTR [esi], edi

; 63   :     }

  0004e	8b c6		 mov	 eax, esi
  00050	5f		 pop	 edi
  00051	5e		 pop	 esi
  00052	c3		 ret	 0
??E?$_Tree_unchecked_const_iterator@V?$_Tree_val@U?$_Tree_simple_types@U?$pair@$$CBKUSPartyMemberInfo@CPythonPlayer@@@std@@@std@@@std@@U_Iterator_base0@2@@std@@QAEAAV01@XZ ENDP ; std::_Tree_unchecked_const_iterator<std::_Tree_val<std::_Tree_simple_types<std::pair<unsigned long const ,CPythonPlayer::SPartyMemberInfo> > >,std::_Iterator_base0>::operator++
_TEXT	ENDS
; Function compile flags: /Ogtp
; File C:\Program Files\Microsoft Visual Studio\2022\Community\VC\Tools\MSVC\14.34.31933\include\xmemory
;	COMDAT ?_Get_first@?$_Compressed_pair@V?$allocator@U?$_Tree_node@U?$pair@$$CBKUSPartyMemberInfo@CPythonPlayer@@@std@@PAX@std@@@std@@V?$_Tree_val@U?$_Tree_simple_types@U?$pair@$$CBKUSPartyMemberInfo@CPythonPlayer@@@std@@@std@@@2@$00@std@@QAEAAV?$allocator@U?$_Tree_node@U?$pair@$$CBKUSPartyMemberInfo@CPythonPlayer@@@std@@PAX@std@@@2@XZ
_TEXT	SEGMENT
?_Get_first@?$_Compressed_pair@V?$allocator@U?$_Tree_node@U?$pair@$$CBKUSPartyMemberInfo@CPythonPlayer@@@std@@PAX@std@@@std@@V?$_Tree_val@U?$_Tree_simple_types@U?$pair@$$CBKUSPartyMemberInfo@CPythonPlayer@@@std@@@std@@@2@$00@std@@QAEAAV?$allocator@U?$_Tree_node@U?$pair@$$CBKUSPartyMemberInfo@CPythonPlayer@@@std@@PAX@std@@@2@XZ PROC ; std::_Compressed_pair<std::allocator<std::_Tree_node<std::pair<unsigned long const ,CPythonPlayer::SPartyMemberInfo>,void *> >,std::_Tree_val<std::_Tree_simple_types<std::pair<unsigned long const ,CPythonPlayer::SPartyMemberInfo> > >,1>::_Get_first, COMDAT
; _this$ = ecx

; 1384 :         return *this;

  00000	8b c1		 mov	 eax, ecx

; 1385 :     }

  00002	c3		 ret	 0
?_Get_first@?$_Compressed_pair@V?$allocator@U?$_Tree_node@U?$pair@$$CBKUSPartyMemberInfo@CPythonPlayer@@@std@@PAX@std@@@std@@V?$_Tree_val@U?$_Tree_simple_types@U?$pair@$$CBKUSPartyMemberInfo@CPythonPlayer@@@std@@@std@@@2@$00@std@@QAEAAV?$allocator@U?$_Tree_node@U?$pair@$$CBKUSPartyMemberInfo@CPythonPlayer@@@std@@PAX@std@@@2@XZ ENDP ; std::_Compressed_pair<std::allocator<std::_Tree_node<std::pair<unsigned long const ,CPythonPlayer::SPartyMemberInfo>,void *> >,std::_Tree_val<std::_Tree_simple_types<std::pair<unsigned long const ,CPythonPlayer::SPartyMemberInfo> > >,1>::_Get_first
_TEXT	ENDS
; Function compile flags: /Ogtp
; File C:\Program Files\Microsoft Visual Studio\2022\Community\VC\Tools\MSVC\14.34.31933\include\xtree
; File C:\Program Files\Microsoft Visual Studio\2022\Community\VC\Tools\MSVC\14.34.31933\include\xmemory
; File C:\Program Files\Microsoft Visual Studio\2022\Community\VC\Tools\MSVC\14.34.31933\include\xtree
; File C:\Program Files\Microsoft Visual Studio\2022\Community\VC\Tools\MSVC\14.34.31933\include\xmemory
; File C:\Program Files\Microsoft Visual Studio\2022\Community\VC\Tools\MSVC\14.34.31933\include\xtree
;	COMDAT ?_Alloc_sentinel_and_proxy@?$_Tree@V?$_Tmap_traits@KUSPartyMemberInfo@CPythonPlayer@@U?$less@K@std@@V?$allocator@U?$pair@$$CBKUSPartyMemberInfo@CPythonPlayer@@@std@@@4@$0A@@std@@@std@@IAEXXZ
_TEXT	SEGMENT
?_Alloc_sentinel_and_proxy@?$_Tree@V?$_Tmap_traits@KUSPartyMemberInfo@CPythonPlayer@@U?$less@K@std@@V?$allocator@U?$pair@$$CBKUSPartyMemberInfo@CPythonPlayer@@@std@@@4@$0A@@std@@@std@@IAEXXZ PROC ; std::_Tree<std::_Tmap_traits<unsigned long,CPythonPlayer::SPartyMemberInfo,std::less<unsigned long>,std::allocator<std::pair<unsigned long const ,CPythonPlayer::SPartyMemberInfo> >,0> >::_Alloc_sentinel_and_proxy, COMDAT
; _this$ = ecx

; 1937 :     void _Alloc_sentinel_and_proxy() {

  00000	56		 push	 esi
; File C:\Program Files\Microsoft Visual Studio\2022\Community\VC\Tools\MSVC\14.34.31933\include\xmemory

; 77   :         return ::operator new(_Bytes);

  00001	6a 44		 push	 68			; 00000044H
; File C:\Program Files\Microsoft Visual Studio\2022\Community\VC\Tools\MSVC\14.34.31933\include\xtree

; 1937 :     void _Alloc_sentinel_and_proxy() {

  00003	8b f1		 mov	 esi, ecx
; File C:\Program Files\Microsoft Visual Studio\2022\Community\VC\Tools\MSVC\14.34.31933\include\xmemory

; 77   :         return ::operator new(_Bytes);

  00005	e8 00 00 00 00	 call	 ??2@YAPAXI@Z		; operator new
  0000a	83 c4 04	 add	 esp, 4
; File C:\Program Files\Microsoft Visual Studio\2022\Community\VC\Tools\MSVC\14.34.31933\include\xtree

; 347  :         _Construct_in_place(_Pnode->_Left, _Pnode);

  0000d	89 00		 mov	 DWORD PTR [eax], eax

; 348  :         _Construct_in_place(_Pnode->_Parent, _Pnode);

  0000f	89 40 04	 mov	 DWORD PTR [eax+4], eax

; 349  :         _Construct_in_place(_Pnode->_Right, _Pnode);

  00012	89 40 08	 mov	 DWORD PTR [eax+8], eax

; 350  :         _Pnode->_Color = _Black;

  00015	66 c7 40 0c 01
	01		 mov	 WORD PTR [eax+12], 257	; 00000101H

; 1938 :         const auto _Scary = _Get_scary();
; 1939 :         auto&& _Alproxy   = _GET_PROXY_ALLOCATOR(_Alnode, _Getal());
; 1940 :         _Container_proxy_ptr<_Alnode> _Proxy(_Alproxy, *_Scary);
; 1941 :         _Scary->_Myhead = _Node::_Buyheadnode(_Getal());

  0001b	89 06		 mov	 DWORD PTR [esi], eax
  0001d	5e		 pop	 esi

; 1942 :         _Proxy._Release();
; 1943 :     }

  0001e	c3		 ret	 0
?_Alloc_sentinel_and_proxy@?$_Tree@V?$_Tmap_traits@KUSPartyMemberInfo@CPythonPlayer@@U?$less@K@std@@V?$allocator@U?$pair@$$CBKUSPartyMemberInfo@CPythonPlayer@@@std@@@4@$0A@@std@@@std@@IAEXXZ ENDP ; std::_Tree<std::_Tmap_traits<unsigned long,CPythonPlayer::SPartyMemberInfo,std::less<unsigned long>,std::allocator<std::pair<unsigned long const ,CPythonPlayer::SPartyMemberInfo> >,0> >::_Alloc_sentinel_and_proxy
_TEXT	ENDS
; Function compile flags: /Ogtp
; File C:\Program Files\Microsoft Visual Studio\2022\Community\VC\Tools\MSVC\14.34.31933\include\xtree
;	COMDAT ?_Erase_unchecked@?$_Tree@V?$_Tmap_traits@KUSPartyMemberInfo@CPythonPlayer@@U?$less@K@std@@V?$allocator@U?$pair@$$CBKUSPartyMemberInfo@CPythonPlayer@@@std@@@4@$0A@@std@@@std@@AAEPAU?$_Tree_node@U?$pair@$$CBKUSPartyMemberInfo@CPythonPlayer@@@std@@PAX@2@V?$_Tree_unchecked_const_iterator@V?$_Tree_val@U?$_Tree_simple_types@U?$pair@$$CBKUSPartyMemberInfo@CPythonPlayer@@@std@@@std@@@std@@U_Iterator_base0@2@@2@0@Z
_TEXT	SEGMENT
__First$ = 8						; size = 4
__Last$ = 12						; size = 4
?_Erase_unchecked@?$_Tree@V?$_Tmap_traits@KUSPartyMemberInfo@CPythonPlayer@@U?$less@K@std@@V?$allocator@U?$pair@$$CBKUSPartyMemberInfo@CPythonPlayer@@@std@@@4@$0A@@std@@@std@@AAEPAU?$_Tree_node@U?$pair@$$CBKUSPartyMemberInfo@CPythonPlayer@@@std@@PAX@2@V?$_Tree_unchecked_const_iterator@V?$_Tree_val@U?$_Tree_simple_types@U?$pair@$$CBKUSPartyMemberInfo@CPythonPlayer@@@std@@@std@@@std@@U_Iterator_base0@2@@2@0@Z PROC ; std::_Tree<std::_Tmap_traits<unsigned long,CPythonPlayer::SPartyMemberInfo,std::less<unsigned long>,std::allocator<std::pair<unsigned long const ,CPythonPlayer::SPartyMemberInfo> >,0> >::_Erase_unchecked, COMDAT
; _this$ = ecx

; 1293 :     _Nodeptr _Erase_unchecked(_Unchecked_const_iterator _First, _Unchecked_const_iterator _Last) noexcept {

  00000	55		 push	 ebp
  00001	8b ec		 mov	 ebp, esp

; 1294 :         const auto _Begin = _Unchecked_begin();
; 1295 :         if (_First == _Begin && _Last._Ptr->_Isnil) {

  00003	8b 45 0c	 mov	 eax, DWORD PTR __Last$[ebp]
  00006	53		 push	 ebx
  00007	8b d9		 mov	 ebx, ecx
  00009	56		 push	 esi

; 97   :         return _Ptr == _Right._Ptr;

  0000a	8b 75 08	 mov	 esi, DWORD PTR __First$[ebp]

; 1293 :     _Nodeptr _Erase_unchecked(_Unchecked_const_iterator _First, _Unchecked_const_iterator _Last) noexcept {

  0000d	57		 push	 edi

; 1145 :         return _Unchecked_iterator(_Get_scary()->_Myhead->_Left, nullptr);

  0000e	8b 3b		 mov	 edi, DWORD PTR [ebx]

; 97   :         return _Ptr == _Right._Ptr;

  00010	3b 37		 cmp	 esi, DWORD PTR [edi]

; 1294 :         const auto _Begin = _Unchecked_begin();
; 1295 :         if (_First == _Begin && _Last._Ptr->_Isnil) {

  00012	75 28		 jne	 SHORT $LN22@Erase_unch
  00014	80 78 0d 00	 cmp	 BYTE PTR [eax+13], 0
  00018	74 22		 je	 SHORT $LN22@Erase_unch

; 1357 :         _Scary->_Erase_tree(_Getal(), _Head->_Parent);

  0001a	ff 77 04	 push	 DWORD PTR [edi+4]
  0001d	53		 push	 ebx
  0001e	e8 00 00 00 00	 call	 ??$_Erase_tree@V?$allocator@U?$_Tree_node@U?$pair@$$CBKUSPartyMemberInfo@CPythonPlayer@@@std@@PAX@std@@@std@@@?$_Tree_val@U?$_Tree_simple_types@U?$pair@$$CBKUSPartyMemberInfo@CPythonPlayer@@@std@@@std@@@std@@QAEXAAV?$allocator@U?$_Tree_node@U?$pair@$$CBKUSPartyMemberInfo@CPythonPlayer@@@std@@PAX@std@@@1@PAU?$_Tree_node@U?$pair@$$CBKUSPartyMemberInfo@CPythonPlayer@@@std@@PAX@1@@Z ; std::_Tree_val<std::_Tree_simple_types<std::pair<unsigned long const ,CPythonPlayer::SPartyMemberInfo> > >::_Erase_tree<std::allocator<std::_Tree_node<std::pair<unsigned long const ,CPythonPlayer::SPartyMemberInfo>,void *> > >

; 1358 :         _Head->_Parent  = _Head;

  00023	89 7f 04	 mov	 DWORD PTR [edi+4], edi

; 1359 :         _Head->_Left    = _Head;

  00026	89 3f		 mov	 DWORD PTR [edi], edi

; 1360 :         _Head->_Right   = _Head;

  00028	89 7f 08	 mov	 DWORD PTR [edi+8], edi

; 1296 :             // erase all
; 1297 :             clear();
; 1298 :             return _Last._Ptr;

  0002b	8b 45 0c	 mov	 eax, DWORD PTR __Last$[ebp]
  0002e	5f		 pop	 edi

; 1303 :             _Erase_unchecked(_First++);
; 1304 :         }
; 1305 : 
; 1306 :         return _Last._Ptr;
; 1307 :     }

  0002f	5e		 pop	 esi

; 1361 :         _Scary->_Mysize = 0;

  00030	c7 43 04 00 00
	00 00		 mov	 DWORD PTR [ebx+4], 0

; 1303 :             _Erase_unchecked(_First++);
; 1304 :         }
; 1305 : 
; 1306 :         return _Last._Ptr;
; 1307 :     }

  00037	5b		 pop	 ebx
  00038	5d		 pop	 ebp
  00039	c2 08 00	 ret	 8
$LN22@Erase_unch:

; 97   :         return _Ptr == _Right._Ptr;

  0003c	3b f0		 cmp	 esi, eax

; 1299 :         }
; 1300 : 
; 1301 :         // partial erase, one at a time
; 1302 :         while (_First != _Last) {

  0003e	74 21		 je	 SHORT $LN1@Erase_unch
$LL2@Erase_unch:

; 67   :         ++*this;

  00040	8d 4d 08	 lea	 ecx, DWORD PTR __First$[ebp]
  00043	e8 00 00 00 00	 call	 ??E?$_Tree_unchecked_const_iterator@V?$_Tree_val@U?$_Tree_simple_types@U?$pair@$$CBKUSPartyMemberInfo@CPythonPlayer@@@std@@@std@@@std@@U_Iterator_base0@2@@std@@QAEAAV01@XZ ; std::_Tree_unchecked_const_iterator<std::_Tree_val<std::_Tree_simple_types<std::pair<unsigned long const ,CPythonPlayer::SPartyMemberInfo> > >,std::_Iterator_base0>::operator++

; 1287 :         _Nodeptr _Erasednode = _Scary->_Extract(_Where); // node to erase

  00048	56		 push	 esi
  00049	8b cb		 mov	 ecx, ebx
  0004b	e8 00 00 00 00	 call	 ?_Extract@?$_Tree_val@U?$_Tree_simple_types@U?$pair@$$CBKUSPartyMemberInfo@CPythonPlayer@@@std@@@std@@@std@@QAEPAU?$_Tree_node@U?$pair@$$CBKUSPartyMemberInfo@CPythonPlayer@@@std@@PAX@2@V?$_Tree_unchecked_const_iterator@V?$_Tree_val@U?$_Tree_simple_types@U?$pair@$$CBKUSPartyMemberInfo@CPythonPlayer@@@std@@@std@@@std@@U_Iterator_base0@2@@2@@Z ; std::_Tree_val<std::_Tree_simple_types<std::pair<unsigned long const ,CPythonPlayer::SPartyMemberInfo> > >::_Extract

; 1288 :         _Scary->_Orphan_ptr(_Erasednode);
; 1289 :         _Node::_Freenode(_Getal(), _Erasednode); // delete erased node

  00050	8b d0		 mov	 edx, eax
  00052	e8 00 00 00 00	 call	 ??$_Freenode@V?$allocator@U?$_Tree_node@U?$pair@$$CBKUSPartyMemberInfo@CPythonPlayer@@@std@@PAX@std@@@std@@@?$_Tree_node@U?$pair@$$CBKUSPartyMemberInfo@CPythonPlayer@@@std@@PAX@std@@SAXAAV?$allocator@U?$_Tree_node@U?$pair@$$CBKUSPartyMemberInfo@CPythonPlayer@@@std@@PAX@std@@@1@PAU01@@Z ; std::_Tree_node<std::pair<unsigned long const ,CPythonPlayer::SPartyMemberInfo>,void *>::_Freenode<std::allocator<std::_Tree_node<std::pair<unsigned long const ,CPythonPlayer::SPartyMemberInfo>,void *> > >

; 97   :         return _Ptr == _Right._Ptr;

  00057	8b 75 08	 mov	 esi, DWORD PTR __First$[ebp]
  0005a	8b 45 0c	 mov	 eax, DWORD PTR __Last$[ebp]
  0005d	3b f0		 cmp	 esi, eax

; 1299 :         }
; 1300 : 
; 1301 :         // partial erase, one at a time
; 1302 :         while (_First != _Last) {

  0005f	75 df		 jne	 SHORT $LL2@Erase_unch
$LN1@Erase_unch:
  00061	5f		 pop	 edi

; 1303 :             _Erase_unchecked(_First++);
; 1304 :         }
; 1305 : 
; 1306 :         return _Last._Ptr;
; 1307 :     }

  00062	5e		 pop	 esi
  00063	5b		 pop	 ebx
  00064	5d		 pop	 ebp
  00065	c2 08 00	 ret	 8
?_Erase_unchecked@?$_Tree@V?$_Tmap_traits@KUSPartyMemberInfo@CPythonPlayer@@U?$less@K@std@@V?$allocator@U?$pair@$$CBKUSPartyMemberInfo@CPythonPlayer@@@std@@@4@$0A@@std@@@std@@AAEPAU?$_Tree_node@U?$pair@$$CBKUSPartyMemberInfo@CPythonPlayer@@@std@@PAX@2@V?$_Tree_unchecked_const_iterator@V?$_Tree_val@U?$_Tree_simple_types@U?$pair@$$CBKUSPartyMemberInfo@CPythonPlayer@@@std@@@std@@@std@@U_Iterator_base0@2@@2@0@Z ENDP ; std::_Tree<std::_Tmap_traits<unsigned long,CPythonPlayer::SPartyMemberInfo,std::less<unsigned long>,std::allocator<std::pair<unsigned long const ,CPythonPlayer::SPartyMemberInfo> >,0> >::_Erase_unchecked
_TEXT	ENDS
; Function compile flags: /Ogtp
; File C:\Program Files\Microsoft Visual Studio\2022\Community\VC\Tools\MSVC\14.34.31933\include\xtree
;	COMDAT ??8?$_Tree_unchecked_const_iterator@V?$_Tree_val@U?$_Tree_simple_types@U?$pair@$$CBKUSPartyMemberInfo@CPythonPlayer@@@std@@@std@@@std@@U_Iterator_base0@2@@std@@QBE_NABV01@@Z
_TEXT	SEGMENT
__Right$ = 8						; size = 4
??8?$_Tree_unchecked_const_iterator@V?$_Tree_val@U?$_Tree_simple_types@U?$pair@$$CBKUSPartyMemberInfo@CPythonPlayer@@@std@@@std@@@std@@U_Iterator_base0@2@@std@@QBE_NABV01@@Z PROC ; std::_Tree_unchecked_const_iterator<std::_Tree_val<std::_Tree_simple_types<std::pair<unsigned long const ,CPythonPlayer::SPartyMemberInfo> > >,std::_Iterator_base0>::operator==, COMDAT
; _this$ = ecx

; 96   :     _NODISCARD bool operator==(const _Tree_unchecked_const_iterator& _Right) const noexcept {

  00000	55		 push	 ebp
  00001	8b ec		 mov	 ebp, esp

; 97   :         return _Ptr == _Right._Ptr;

  00003	8b 45 08	 mov	 eax, DWORD PTR __Right$[ebp]
  00006	8b 09		 mov	 ecx, DWORD PTR [ecx]
  00008	3b 08		 cmp	 ecx, DWORD PTR [eax]
  0000a	0f 94 c0	 sete	 al

; 98   :     }

  0000d	5d		 pop	 ebp
  0000e	c2 04 00	 ret	 4
??8?$_Tree_unchecked_const_iterator@V?$_Tree_val@U?$_Tree_simple_types@U?$pair@$$CBKUSPartyMemberInfo@CPythonPlayer@@@std@@@std@@@std@@U_Iterator_base0@2@@std@@QBE_NABV01@@Z ENDP ; std::_Tree_unchecked_const_iterator<std::_Tree_val<std::_Tree_simple_types<std::pair<unsigned long const ,CPythonPlayer::SPartyMemberInfo> > >,std::_Iterator_base0>::operator==
_TEXT	ENDS
; Function compile flags: /Ogtp
; File C:\Program Files\Microsoft Visual Studio\2022\Community\VC\Tools\MSVC\14.34.31933\include\xtree
;	COMDAT ??E?$_Tree_unchecked_const_iterator@V?$_Tree_val@U?$_Tree_simple_types@U?$pair@$$CBKUSPartyMemberInfo@CPythonPlayer@@@std@@@std@@@std@@U_Iterator_base0@2@@std@@QAE?AV01@H@Z
_TEXT	SEGMENT
___$ReturnUdt$ = 8					; size = 4
___formal$dead$ = 12					; size = 4
??E?$_Tree_unchecked_const_iterator@V?$_Tree_val@U?$_Tree_simple_types@U?$pair@$$CBKUSPartyMemberInfo@CPythonPlayer@@@std@@@std@@@std@@U_Iterator_base0@2@@std@@QAE?AV01@H@Z PROC ; std::_Tree_unchecked_const_iterator<std::_Tree_val<std::_Tree_simple_types<std::pair<unsigned long const ,CPythonPlayer::SPartyMemberInfo> > >,std::_Iterator_base0>::operator++, COMDAT
; _this$ = ecx

; 65   :     _Tree_unchecked_const_iterator operator++(int) noexcept {

  00000	55		 push	 ebp
  00001	8b ec		 mov	 ebp, esp

; 66   :         _Tree_unchecked_const_iterator _Tmp = *this;

  00003	8b 11		 mov	 edx, DWORD PTR [ecx]
  00005	56		 push	 esi
  00006	8b 75 08	 mov	 esi, DWORD PTR ___$ReturnUdt$[ebp]
  00009	89 16		 mov	 DWORD PTR [esi], edx

; 67   :         ++*this;

  0000b	e8 00 00 00 00	 call	 ??E?$_Tree_unchecked_const_iterator@V?$_Tree_val@U?$_Tree_simple_types@U?$pair@$$CBKUSPartyMemberInfo@CPythonPlayer@@@std@@@std@@@std@@U_Iterator_base0@2@@std@@QAEAAV01@XZ ; std::_Tree_unchecked_const_iterator<std::_Tree_val<std::_Tree_simple_types<std::pair<unsigned long const ,CPythonPlayer::SPartyMemberInfo> > >,std::_Iterator_base0>::operator++

; 68   :         return _Tmp;

  00010	8b c6		 mov	 eax, esi
  00012	5e		 pop	 esi

; 69   :     }

  00013	5d		 pop	 ebp
  00014	c2 08 00	 ret	 8
??E?$_Tree_unchecked_const_iterator@V?$_Tree_val@U?$_Tree_simple_types@U?$pair@$$CBKUSPartyMemberInfo@CPythonPlayer@@@std@@@std@@@std@@U_Iterator_base0@2@@std@@QAE?AV01@H@Z ENDP ; std::_Tree_unchecked_const_iterator<std::_Tree_val<std::_Tree_simple_types<std::pair<unsigned long const ,CPythonPlayer::SPartyMemberInfo> > >,std::_Iterator_base0>::operator++
_TEXT	ENDS
; Function compile flags: /Ogtp
; File C:\Program Files\Microsoft Visual Studio\2022\Community\VC\Tools\MSVC\14.34.31933\include\xtree
;	COMDAT ?_Min@?$_Tree_val@U?$_Tree_simple_types@U?$pair@$$CBKUSPartyMemberInfo@CPythonPlayer@@@std@@@std@@@std@@SAPAU?$_Tree_node@U?$pair@$$CBKUSPartyMemberInfo@CPythonPlayer@@@std@@PAX@2@PAU32@@Z
_TEXT	SEGMENT
?_Min@?$_Tree_val@U?$_Tree_simple_types@U?$pair@$$CBKUSPartyMemberInfo@CPythonPlayer@@@std@@@std@@@std@@SAPAU?$_Tree_node@U?$pair@$$CBKUSPartyMemberInfo@CPythonPlayer@@@std@@PAX@2@PAU32@@Z PROC ; std::_Tree_val<std::_Tree_simple_types<std::pair<unsigned long const ,CPythonPlayer::SPartyMemberInfo> > >::_Min, COMDAT
; __Pnode$ = ecx

; 453  :         while (!_Pnode->_Left->_Isnil) {

  00000	8b 11		 mov	 edx, DWORD PTR [ecx]
  00002	80 7a 0d 00	 cmp	 BYTE PTR [edx+13], 0
  00006	75 0d		 jne	 SHORT $LN9@Min
$LL2@Min:
  00008	8b 0a		 mov	 ecx, DWORD PTR [edx]

; 454  :             _Pnode = _Pnode->_Left;

  0000a	8b c2		 mov	 eax, edx
  0000c	8b d1		 mov	 edx, ecx
  0000e	80 79 0d 00	 cmp	 BYTE PTR [ecx+13], 0
  00012	74 f4		 je	 SHORT $LL2@Min

; 458  :     }

  00014	c3		 ret	 0
$LN9@Min:

; 455  :         }
; 456  : 
; 457  :         return _Pnode;

  00015	8b c1		 mov	 eax, ecx

; 458  :     }

  00017	c3		 ret	 0
?_Min@?$_Tree_val@U?$_Tree_simple_types@U?$pair@$$CBKUSPartyMemberInfo@CPythonPlayer@@@std@@@std@@@std@@SAPAU?$_Tree_node@U?$pair@$$CBKUSPartyMemberInfo@CPythonPlayer@@@std@@PAX@2@PAU32@@Z ENDP ; std::_Tree_val<std::_Tree_simple_types<std::pair<unsigned long const ,CPythonPlayer::SPartyMemberInfo> > >::_Min
_TEXT	ENDS
; Function compile flags: /Ogtp
; File C:\Program Files\Microsoft Visual Studio\2022\Community\VC\Tools\MSVC\14.34.31933\include\xtree
;	COMDAT ?_Erase_unchecked@?$_Tree@V?$_Tmap_traits@KUSPartyMemberInfo@CPythonPlayer@@U?$less@K@std@@V?$allocator@U?$pair@$$CBKUSPartyMemberInfo@CPythonPlayer@@@std@@@4@$0A@@std@@@std@@AAEPAU?$_Tree_node@U?$pair@$$CBKUSPartyMemberInfo@CPythonPlayer@@@std@@PAX@2@V?$_Tree_unchecked_const_iterator@V?$_Tree_val@U?$_Tree_simple_types@U?$pair@$$CBKUSPartyMemberInfo@CPythonPlayer@@@std@@@std@@@std@@U_Iterator_base0@2@@2@@Z
_TEXT	SEGMENT
__Successor$ = -4					; size = 4
__Where$ = 8						; size = 4
?_Erase_unchecked@?$_Tree@V?$_Tmap_traits@KUSPartyMemberInfo@CPythonPlayer@@U?$less@K@std@@V?$allocator@U?$pair@$$CBKUSPartyMemberInfo@CPythonPlayer@@@std@@@4@$0A@@std@@@std@@AAEPAU?$_Tree_node@U?$pair@$$CBKUSPartyMemberInfo@CPythonPlayer@@@std@@PAX@2@V?$_Tree_unchecked_const_iterator@V?$_Tree_val@U?$_Tree_simple_types@U?$pair@$$CBKUSPartyMemberInfo@CPythonPlayer@@@std@@@std@@@std@@U_Iterator_base0@2@@2@@Z PROC ; std::_Tree<std::_Tmap_traits<unsigned long,CPythonPlayer::SPartyMemberInfo,std::less<unsigned long>,std::allocator<std::pair<unsigned long const ,CPythonPlayer::SPartyMemberInfo> >,0> >::_Erase_unchecked, COMDAT
; _this$ = ecx

; 1283 :     _Nodeptr _Erase_unchecked(_Unchecked_const_iterator _Where) noexcept {

  00000	55		 push	 ebp
  00001	8b ec		 mov	 ebp, esp
  00003	51		 push	 ecx
  00004	56		 push	 esi

; 1284 :         const auto _Scary                    = _Get_scary();
; 1285 :         _Unchecked_const_iterator _Successor = _Where;

  00005	8b 75 08	 mov	 esi, DWORD PTR __Where$[ebp]
  00008	57		 push	 edi
  00009	8b f9		 mov	 edi, ecx
  0000b	89 75 fc	 mov	 DWORD PTR __Successor$[ebp], esi

; 1286 :         ++_Successor; // save successor iterator for return

  0000e	8d 4d fc	 lea	 ecx, DWORD PTR __Successor$[ebp]
  00011	e8 00 00 00 00	 call	 ??E?$_Tree_unchecked_const_iterator@V?$_Tree_val@U?$_Tree_simple_types@U?$pair@$$CBKUSPartyMemberInfo@CPythonPlayer@@@std@@@std@@@std@@U_Iterator_base0@2@@std@@QAEAAV01@XZ ; std::_Tree_unchecked_const_iterator<std::_Tree_val<std::_Tree_simple_types<std::pair<unsigned long const ,CPythonPlayer::SPartyMemberInfo> > >,std::_Iterator_base0>::operator++

; 1287 :         _Nodeptr _Erasednode = _Scary->_Extract(_Where); // node to erase

  00016	56		 push	 esi
  00017	8b cf		 mov	 ecx, edi
  00019	e8 00 00 00 00	 call	 ?_Extract@?$_Tree_val@U?$_Tree_simple_types@U?$pair@$$CBKUSPartyMemberInfo@CPythonPlayer@@@std@@@std@@@std@@QAEPAU?$_Tree_node@U?$pair@$$CBKUSPartyMemberInfo@CPythonPlayer@@@std@@PAX@2@V?$_Tree_unchecked_const_iterator@V?$_Tree_val@U?$_Tree_simple_types@U?$pair@$$CBKUSPartyMemberInfo@CPythonPlayer@@@std@@@std@@@std@@U_Iterator_base0@2@@2@@Z ; std::_Tree_val<std::_Tree_simple_types<std::pair<unsigned long const ,CPythonPlayer::SPartyMemberInfo> > >::_Extract

; 1288 :         _Scary->_Orphan_ptr(_Erasednode);
; 1289 :         _Node::_Freenode(_Getal(), _Erasednode); // delete erased node

  0001e	8b d0		 mov	 edx, eax
  00020	e8 00 00 00 00	 call	 ??$_Freenode@V?$allocator@U?$_Tree_node@U?$pair@$$CBKUSPartyMemberInfo@CPythonPlayer@@@std@@PAX@std@@@std@@@?$_Tree_node@U?$pair@$$CBKUSPartyMemberInfo@CPythonPlayer@@@std@@PAX@std@@SAXAAV?$allocator@U?$_Tree_node@U?$pair@$$CBKUSPartyMemberInfo@CPythonPlayer@@@std@@PAX@std@@@1@PAU01@@Z ; std::_Tree_node<std::pair<unsigned long const ,CPythonPlayer::SPartyMemberInfo>,void *>::_Freenode<std::allocator<std::_Tree_node<std::pair<unsigned long const ,CPythonPlayer::SPartyMemberInfo>,void *> > >

; 1290 :         return _Successor._Ptr; // return successor nodeptr

  00025	8b 45 fc	 mov	 eax, DWORD PTR __Successor$[ebp]
  00028	5f		 pop	 edi
  00029	5e		 pop	 esi

; 1291 :     }

  0002a	8b e5		 mov	 esp, ebp
  0002c	5d		 pop	 ebp
  0002d	c2 04 00	 ret	 4
?_Erase_unchecked@?$_Tree@V?$_Tmap_traits@KUSPartyMemberInfo@CPythonPlayer@@U?$less@K@std@@V?$allocator@U?$pair@$$CBKUSPartyMemberInfo@CPythonPlayer@@@std@@@4@$0A@@std@@@std@@AAEPAU?$_Tree_node@U?$pair@$$CBKUSPartyMemberInfo@CPythonPlayer@@@std@@PAX@2@V?$_Tree_unchecked_const_iterator@V?$_Tree_val@U?$_Tree_simple_types@U?$pair@$$CBKUSPartyMemberInfo@CPythonPlayer@@@std@@@std@@@std@@U_Iterator_base0@2@@2@@Z ENDP ; std::_Tree<std::_Tmap_traits<unsigned long,CPythonPlayer::SPartyMemberInfo,std::less<unsigned long>,std::allocator<std::pair<unsigned long const ,CPythonPlayer::SPartyMemberInfo> >,0> >::_Erase_unchecked
_TEXT	ENDS
; Function compile flags: /Ogtp
; File C:\Program Files\Microsoft Visual Studio\2022\Community\VC\Tools\MSVC\14.34.31933\include\xtree
;	COMDAT ?_Unchecked_begin@?$_Tree@V?$_Tmap_traits@KUSPartyMemberInfo@CPythonPlayer@@U?$less@K@std@@V?$allocator@U?$pair@$$CBKUSPartyMemberInfo@CPythonPlayer@@@std@@@4@$0A@@std@@@std@@QAE?AV?$_Tree_unchecked_iterator@V?$_Tree_val@U?$_Tree_simple_types@U?$pair@$$CBKUSPartyMemberInfo@CPythonPlayer@@@std@@@std@@@std@@@2@XZ
_TEXT	SEGMENT
___$ReturnUdt$ = 8					; size = 4
?_Unchecked_begin@?$_Tree@V?$_Tmap_traits@KUSPartyMemberInfo@CPythonPlayer@@U?$less@K@std@@V?$allocator@U?$pair@$$CBKUSPartyMemberInfo@CPythonPlayer@@@std@@@4@$0A@@std@@@std@@QAE?AV?$_Tree_unchecked_iterator@V?$_Tree_val@U?$_Tree_simple_types@U?$pair@$$CBKUSPartyMemberInfo@CPythonPlayer@@@std@@@std@@@std@@@2@XZ PROC ; std::_Tree<std::_Tmap_traits<unsigned long,CPythonPlayer::SPartyMemberInfo,std::less<unsigned long>,std::allocator<std::pair<unsigned long const ,CPythonPlayer::SPartyMemberInfo> >,0> >::_Unchecked_begin, COMDAT
; _this$ = ecx

; 1144 :     _Unchecked_iterator _Unchecked_begin() noexcept {

  00000	55		 push	 ebp
  00001	8b ec		 mov	 ebp, esp

; 1145 :         return _Unchecked_iterator(_Get_scary()->_Myhead->_Left, nullptr);

  00003	8b 01		 mov	 eax, DWORD PTR [ecx]

; 38   :     _Tree_unchecked_const_iterator(_Nodeptr _Pnode, const _Mytree* _Plist) noexcept : _Ptr(_Pnode) {

  00005	8b 08		 mov	 ecx, DWORD PTR [eax]
  00007	8b 45 08	 mov	 eax, DWORD PTR ___$ReturnUdt$[ebp]
  0000a	89 08		 mov	 DWORD PTR [eax], ecx

; 1146 :     }

  0000c	5d		 pop	 ebp
  0000d	c2 04 00	 ret	 4
?_Unchecked_begin@?$_Tree@V?$_Tmap_traits@KUSPartyMemberInfo@CPythonPlayer@@U?$less@K@std@@V?$allocator@U?$pair@$$CBKUSPartyMemberInfo@CPythonPlayer@@@std@@@4@$0A@@std@@@std@@QAE?AV?$_Tree_unchecked_iterator@V?$_Tree_val@U?$_Tree_simple_types@U?$pair@$$CBKUSPartyMemberInfo@CPythonPlayer@@@std@@@std@@@std@@@2@XZ ENDP ; std::_Tree<std::_Tmap_traits<unsigned long,CPythonPlayer::SPartyMemberInfo,std::less<unsigned long>,std::allocator<std::pair<unsigned long const ,CPythonPlayer::SPartyMemberInfo> >,0> >::_Unchecked_begin
_TEXT	ENDS
; Function compile flags: /Ogtp
; File C:\Program Files\Microsoft Visual Studio\2022\Community\VC\Tools\MSVC\14.34.31933\include\xtree
;	COMDAT ??0?$_Tree_unchecked_iterator@V?$_Tree_val@U?$_Tree_simple_types@U?$pair@$$CBKUSPartyMemberInfo@CPythonPlayer@@@std@@@std@@@std@@@std@@QAE@PAU?$_Tree_node@U?$pair@$$CBKUSPartyMemberInfo@CPythonPlayer@@@std@@PAX@1@PBV?$_Tree_val@U?$_Tree_simple_types@U?$pair@$$CBKUSPartyMemberInfo@CPythonPlayer@@@std@@@std@@@1@@Z
_TEXT	SEGMENT
___param0$ = 8						; size = 4
___param1$dead$ = 12					; size = 4
??0?$_Tree_unchecked_iterator@V?$_Tree_val@U?$_Tree_simple_types@U?$pair@$$CBKUSPartyMemberInfo@CPythonPlayer@@@std@@@std@@@std@@@std@@QAE@PAU?$_Tree_node@U?$pair@$$CBKUSPartyMemberInfo@CPythonPlayer@@@std@@PAX@1@PBV?$_Tree_val@U?$_Tree_simple_types@U?$pair@$$CBKUSPartyMemberInfo@CPythonPlayer@@@std@@@std@@@1@@Z PROC ; std::_Tree_unchecked_iterator<std::_Tree_val<std::_Tree_simple_types<std::pair<unsigned long const ,CPythonPlayer::SPartyMemberInfo> > > >::_Tree_unchecked_iterator<std::_Tree_val<std::_Tree_simple_types<std::pair<unsigned long const ,CPythonPlayer::SPartyMemberInfo> > > >, COMDAT
; _this$ = ecx
  00000	55		 push	 ebp
  00001	8b ec		 mov	 ebp, esp

; 38   :     _Tree_unchecked_const_iterator(_Nodeptr _Pnode, const _Mytree* _Plist) noexcept : _Ptr(_Pnode) {

  00003	8b 45 08	 mov	 eax, DWORD PTR ___param0$[ebp]
  00006	89 01		 mov	 DWORD PTR [ecx], eax
  00008	8b c1		 mov	 eax, ecx
  0000a	5d		 pop	 ebp
  0000b	c2 08 00	 ret	 8
??0?$_Tree_unchecked_iterator@V?$_Tree_val@U?$_Tree_simple_types@U?$pair@$$CBKUSPartyMemberInfo@CPythonPlayer@@@std@@@std@@@std@@@std@@QAE@PAU?$_Tree_node@U?$pair@$$CBKUSPartyMemberInfo@CPythonPlayer@@@std@@PAX@1@PBV?$_Tree_val@U?$_Tree_simple_types@U?$pair@$$CBKUSPartyMemberInfo@CPythonPlayer@@@std@@@std@@@1@@Z ENDP ; std::_Tree_unchecked_iterator<std::_Tree_val<std::_Tree_simple_types<std::pair<unsigned long const ,CPythonPlayer::SPartyMemberInfo> > > >::_Tree_unchecked_iterator<std::_Tree_val<std::_Tree_simple_types<std::pair<unsigned long const ,CPythonPlayer::SPartyMemberInfo> > > >
_TEXT	ENDS
; Function compile flags: /Ogtp
; File C:\Program Files\Microsoft Visual Studio\2022\Community\VC\Tools\MSVC\14.34.31933\include\xtree
; File C:\Program Files\Microsoft Visual Studio\2022\Community\VC\Tools\MSVC\14.34.31933\include\utility
; File C:\Program Files\Microsoft Visual Studio\2022\Community\VC\Tools\MSVC\14.34.31933\include\xtree
;	COMDAT ?_Extract@?$_Tree_val@U?$_Tree_simple_types@U?$pair@$$CBKUSPartyMemberInfo@CPythonPlayer@@@std@@@std@@@std@@QAEPAU?$_Tree_node@U?$pair@$$CBKUSPartyMemberInfo@CPythonPlayer@@@std@@PAX@2@V?$_Tree_unchecked_const_iterator@V?$_Tree_val@U?$_Tree_simple_types@U?$pair@$$CBKUSPartyMemberInfo@CPythonPlayer@@@std@@@std@@@std@@U_Iterator_base0@2@@2@@Z
_TEXT	SEGMENT
tv1038 = -16						; size = 4
$T1 = -12						; size = 4
tv1091 = -12						; size = 4
tv1075 = -12						; size = 4
tv1042 = -12						; size = 4
__Erasednode$1$ = -8					; size = 4
_this$1$ = -4						; size = 4
__Where$ = 8						; size = 4
?_Extract@?$_Tree_val@U?$_Tree_simple_types@U?$pair@$$CBKUSPartyMemberInfo@CPythonPlayer@@@std@@@std@@@std@@QAEPAU?$_Tree_node@U?$pair@$$CBKUSPartyMemberInfo@CPythonPlayer@@@std@@PAX@2@V?$_Tree_unchecked_const_iterator@V?$_Tree_val@U?$_Tree_simple_types@U?$pair@$$CBKUSPartyMemberInfo@CPythonPlayer@@@std@@@std@@@std@@U_Iterator_base0@2@@2@@Z PROC ; std::_Tree_val<std::_Tree_simple_types<std::pair<unsigned long const ,CPythonPlayer::SPartyMemberInfo> > >::_Extract, COMDAT
; _this$ = ecx

; 504  :     _Nodeptr _Extract(_Unchecked_const_iterator _Where) noexcept {

  00000	55		 push	 ebp
  00001	8b ec		 mov	 ebp, esp
  00003	83 ec 10	 sub	 esp, 16			; 00000010H
  00006	53		 push	 ebx

; 505  :         _Nodeptr _Erasednode = _Where._Ptr; // node to erase

  00007	8b 5d 08	 mov	 ebx, DWORD PTR __Where$[ebp]
  0000a	56		 push	 esi
  0000b	89 4d fc	 mov	 DWORD PTR _this$1$[ebp], ecx

; 506  :         ++_Where; // save successor iterator for return

  0000e	8d 4d 08	 lea	 ecx, DWORD PTR __Where$[ebp]
  00011	57		 push	 edi
  00012	89 5d f8	 mov	 DWORD PTR __Erasednode$1$[ebp], ebx
  00015	e8 00 00 00 00	 call	 ??E?$_Tree_unchecked_const_iterator@V?$_Tree_val@U?$_Tree_simple_types@U?$pair@$$CBKUSPartyMemberInfo@CPythonPlayer@@@std@@@std@@@std@@U_Iterator_base0@2@@std@@QAEAAV01@XZ ; std::_Tree_unchecked_const_iterator<std::_Tree_val<std::_Tree_simple_types<std::pair<unsigned long const ,CPythonPlayer::SPartyMemberInfo> > >,std::_Iterator_base0>::operator++

; 507  : 
; 508  :         _Nodeptr _Fixnode; // the node to recolor as needed
; 509  :         _Nodeptr _Fixnodeparent; // parent of _Fixnode (which may be nil)
; 510  :         _Nodeptr _Pnode = _Erasednode;
; 511  : 
; 512  :         if (_Pnode->_Left->_Isnil) {

  0001a	8b 03		 mov	 eax, DWORD PTR [ebx]
  0001c	8b 7b 08	 mov	 edi, DWORD PTR [ebx+8]
  0001f	80 78 0d 00	 cmp	 BYTE PTR [eax+13], 0
  00023	75 18		 jne	 SHORT $LN86@Extract

; 513  :             _Fixnode = _Pnode->_Right; // stitch up right subtree
; 514  :         } else if (_Pnode->_Right->_Isnil) {

  00025	80 7f 0d 00	 cmp	 BYTE PTR [edi+13], 0
  00029	74 04		 je	 SHORT $LN7@Extract

; 515  :             _Fixnode = _Pnode->_Left; // stitch up left subtree

  0002b	8b f8		 mov	 edi, eax

; 516  :         } else { // two subtrees, must lift successor node to replace erased

  0002d	eb 0e		 jmp	 SHORT $LN86@Extract
$LN7@Extract:

; 517  :             _Pnode   = _Where._Ptr; // _Pnode is successor node

  0002f	8b 55 08	 mov	 edx, DWORD PTR __Where$[ebp]

; 518  :             _Fixnode = _Pnode->_Right; // _Fixnode is only subtree

  00032	8b 7a 08	 mov	 edi, DWORD PTR [edx+8]
  00035	3b d3		 cmp	 edx, ebx

; 519  :         }
; 520  : 
; 521  :         if (_Pnode == _Erasednode) { // at most one subtree, relink it

  00037	0f 85 95 00 00
	00		 jne	 $LN9@Extract
$LN86@Extract:

; 522  :             _Fixnodeparent = _Erasednode->_Parent;
; 523  :             if (!_Fixnode->_Isnil) {

  0003d	80 7f 0d 00	 cmp	 BYTE PTR [edi+13], 0
  00041	8b 73 04	 mov	 esi, DWORD PTR [ebx+4]
  00044	75 03		 jne	 SHORT $LN11@Extract

; 524  :                 _Fixnode->_Parent = _Fixnodeparent; // link up

  00046	89 77 04	 mov	 DWORD PTR [edi+4], esi
$LN11@Extract:

; 525  :             }
; 526  : 
; 527  :             if (_Myhead->_Parent == _Erasednode) {

  00049	8b 55 fc	 mov	 edx, DWORD PTR _this$1$[ebp]
  0004c	8b 02		 mov	 eax, DWORD PTR [edx]
  0004e	39 58 04	 cmp	 DWORD PTR [eax+4], ebx
  00051	75 05		 jne	 SHORT $LN12@Extract

; 528  :                 _Myhead->_Parent = _Fixnode; // link down from root

  00053	89 78 04	 mov	 DWORD PTR [eax+4], edi
  00056	eb 0b		 jmp	 SHORT $LN15@Extract
$LN12@Extract:

; 529  :             } else if (_Fixnodeparent->_Left == _Erasednode) {

  00058	39 1e		 cmp	 DWORD PTR [esi], ebx
  0005a	75 04		 jne	 SHORT $LN14@Extract

; 530  :                 _Fixnodeparent->_Left = _Fixnode; // link down to left

  0005c	89 3e		 mov	 DWORD PTR [esi], edi

; 531  :             } else {

  0005e	eb 03		 jmp	 SHORT $LN15@Extract
$LN14@Extract:

; 532  :                 _Fixnodeparent->_Right = _Fixnode; // link down to right

  00060	89 7e 08	 mov	 DWORD PTR [esi+8], edi
$LN15@Extract:

; 533  :             }
; 534  : 
; 535  :             if (_Myhead->_Left == _Erasednode) {

  00063	8b 02		 mov	 eax, DWORD PTR [edx]
  00065	89 45 f4	 mov	 DWORD PTR tv1075[ebp], eax
  00068	39 18		 cmp	 DWORD PTR [eax], ebx
  0006a	75 28		 jne	 SHORT $LN16@Extract

; 536  :                 _Myhead->_Left = _Fixnode->_Isnil ? _Fixnodeparent // smallest is parent of erased node

  0006c	80 7f 0d 00	 cmp	 BYTE PTR [edi+13], 0
  00070	74 04		 je	 SHORT $LN42@Extract
  00072	8b d6		 mov	 edx, esi
  00074	eb 19		 jmp	 SHORT $LN64@Extract
$LN42@Extract:

; 453  :         while (!_Pnode->_Left->_Isnil) {

  00076	8b 0f		 mov	 ecx, DWORD PTR [edi]

; 536  :                 _Myhead->_Left = _Fixnode->_Isnil ? _Fixnodeparent // smallest is parent of erased node

  00078	8b d7		 mov	 edx, edi

; 453  :         while (!_Pnode->_Left->_Isnil) {

  0007a	80 79 0d 00	 cmp	 BYTE PTR [ecx+13], 0
  0007e	75 0f		 jne	 SHORT $LN64@Extract
$LL63@Extract:
  00080	8b 01		 mov	 eax, DWORD PTR [ecx]

; 454  :             _Pnode = _Pnode->_Left;

  00082	8b d1		 mov	 edx, ecx
  00084	8b c8		 mov	 ecx, eax
  00086	80 78 0d 00	 cmp	 BYTE PTR [eax+13], 0
  0008a	74 f4		 je	 SHORT $LL63@Extract
  0008c	8b 45 f4	 mov	 eax, DWORD PTR tv1075[ebp]
$LN64@Extract:

; 536  :                 _Myhead->_Left = _Fixnode->_Isnil ? _Fixnodeparent // smallest is parent of erased node

  0008f	89 10		 mov	 DWORD PTR [eax], edx
  00091	8b 55 fc	 mov	 edx, DWORD PTR _this$1$[ebp]
$LN16@Extract:

; 537  :                                                   : _Min(_Fixnode); // smallest in relinked subtree
; 538  :             }
; 539  : 
; 540  :             if (_Myhead->_Right == _Erasednode) {

  00094	8b 02		 mov	 eax, DWORD PTR [edx]
  00096	39 58 08	 cmp	 DWORD PTR [eax+8], ebx
  00099	0f 85 a0 00 00
	00		 jne	 $LN47@Extract

; 541  :                 _Myhead->_Right = _Fixnode->_Isnil ? _Fixnodeparent // largest is parent of erased node

  0009f	80 7f 0d 00	 cmp	 BYTE PTR [edi+13], 0
  000a3	74 0a		 je	 SHORT $LN44@Extract
  000a5	8b ce		 mov	 ecx, esi
  000a7	89 48 08	 mov	 DWORD PTR [eax+8], ecx

; 542  :                                                    : _Max(_Fixnode); // largest in relinked subtree
; 543  :             }
; 544  :         } else { // erased has two subtrees, _Pnode is successor to erased

  000aa	e9 90 00 00 00	 jmp	 $LN47@Extract
$LN44@Extract:

; 445  :         while (!_Pnode->_Right->_Isnil) {

  000af	8b 47 08	 mov	 eax, DWORD PTR [edi+8]

; 541  :                 _Myhead->_Right = _Fixnode->_Isnil ? _Fixnodeparent // largest is parent of erased node

  000b2	8b cf		 mov	 ecx, edi

; 445  :         while (!_Pnode->_Right->_Isnil) {

  000b4	80 78 0d 00	 cmp	 BYTE PTR [eax+13], 0
  000b8	75 11		 jne	 SHORT $LN68@Extract
  000ba	66 0f 1f 44 00
	00		 npad	 6
$LL67@Extract:

; 446  :             _Pnode = _Pnode->_Right;

  000c0	8b c8		 mov	 ecx, eax
  000c2	8b 41 08	 mov	 eax, DWORD PTR [ecx+8]
  000c5	80 78 0d 00	 cmp	 BYTE PTR [eax+13], 0
  000c9	74 f5		 je	 SHORT $LL67@Extract
$LN68@Extract:
  000cb	8b 02		 mov	 eax, DWORD PTR [edx]

; 541  :                 _Myhead->_Right = _Fixnode->_Isnil ? _Fixnodeparent // largest is parent of erased node

  000cd	89 48 08	 mov	 DWORD PTR [eax+8], ecx

; 542  :                                                    : _Max(_Fixnode); // largest in relinked subtree
; 543  :             }
; 544  :         } else { // erased has two subtrees, _Pnode is successor to erased

  000d0	eb 6d		 jmp	 SHORT $LN47@Extract
$LN9@Extract:

; 545  :             _Erasednode->_Left->_Parent = _Pnode; // link left up

  000d2	89 50 04	 mov	 DWORD PTR [eax+4], edx

; 546  :             _Pnode->_Left               = _Erasednode->_Left; // link successor down
; 547  : 
; 548  :             if (_Pnode == _Erasednode->_Right) {

  000d5	8d 4a 04	 lea	 ecx, DWORD PTR [edx+4]
  000d8	8b 03		 mov	 eax, DWORD PTR [ebx]
  000da	89 02		 mov	 DWORD PTR [edx], eax
  000dc	89 4d f4	 mov	 DWORD PTR $T1[ebp], ecx
  000df	3b 53 08	 cmp	 edx, DWORD PTR [ebx+8]
  000e2	75 04		 jne	 SHORT $LN18@Extract

; 549  :                 _Fixnodeparent = _Pnode; // successor is next to erased

  000e4	8b f2		 mov	 esi, edx

; 550  :             } else { // successor further down, link in place of erased

  000e6	eb 1c		 jmp	 SHORT $LN19@Extract
$LN18@Extract:

; 551  :                 _Fixnodeparent = _Pnode->_Parent; // parent is successor's
; 552  :                 if (!_Fixnode->_Isnil) {

  000e8	80 7f 0d 00	 cmp	 BYTE PTR [edi+13], 0
  000ec	8b 31		 mov	 esi, DWORD PTR [ecx]
  000ee	75 03		 jne	 SHORT $LN20@Extract

; 553  :                     _Fixnode->_Parent = _Fixnodeparent; // link fix up

  000f0	89 77 04	 mov	 DWORD PTR [edi+4], esi
$LN20@Extract:

; 554  :                 }
; 555  : 
; 556  :                 _Fixnodeparent->_Left        = _Fixnode; // link fix down

  000f3	89 3e		 mov	 DWORD PTR [esi], edi

; 557  :                 _Pnode->_Right               = _Erasednode->_Right; // link next down

  000f5	8b 43 08	 mov	 eax, DWORD PTR [ebx+8]
  000f8	89 42 08	 mov	 DWORD PTR [edx+8], eax

; 558  :                 _Erasednode->_Right->_Parent = _Pnode; // right up

  000fb	8b 43 08	 mov	 eax, DWORD PTR [ebx+8]
  000fe	89 4d f4	 mov	 DWORD PTR $T1[ebp], ecx
  00101	89 50 04	 mov	 DWORD PTR [eax+4], edx
$LN19@Extract:

; 559  :             }
; 560  : 
; 561  :             if (_Myhead->_Parent == _Erasednode) {

  00104	8b 45 fc	 mov	 eax, DWORD PTR _this$1$[ebp]
  00107	8b 00		 mov	 eax, DWORD PTR [eax]
  00109	39 58 04	 cmp	 DWORD PTR [eax+4], ebx
  0010c	75 05		 jne	 SHORT $LN21@Extract

; 562  :                 _Myhead->_Parent = _Pnode; // link down from root

  0010e	89 50 04	 mov	 DWORD PTR [eax+4], edx
  00111	eb 0e		 jmp	 SHORT $LN94@Extract
$LN21@Extract:

; 563  :             } else if (_Erasednode->_Parent->_Left == _Erasednode) {

  00113	8b 43 04	 mov	 eax, DWORD PTR [ebx+4]
  00116	39 18		 cmp	 DWORD PTR [eax], ebx
  00118	75 04		 jne	 SHORT $LN23@Extract

; 564  :                 _Erasednode->_Parent->_Left = _Pnode; // link down to left

  0011a	89 10		 mov	 DWORD PTR [eax], edx

; 565  :             } else {

  0011c	eb 03		 jmp	 SHORT $LN94@Extract
$LN23@Extract:

; 566  :                 _Erasednode->_Parent->_Right = _Pnode; // link down to right

  0011e	89 50 08	 mov	 DWORD PTR [eax+8], edx
$LN94@Extract:

; 567  :             }
; 568  : 
; 569  :             _Pnode->_Parent = _Erasednode->_Parent; // link successor up

  00121	b9 04 00 00 00	 mov	 ecx, 4
  00126	8b c3		 mov	 eax, ebx
  00128	8b 04 01	 mov	 eax, DWORD PTR [ecx+eax]
  0012b	8b 4d f4	 mov	 ecx, DWORD PTR $T1[ebp]
  0012e	89 01		 mov	 DWORD PTR [ecx], eax
; File C:\Program Files\Microsoft Visual Studio\2022\Community\VC\Tools\MSVC\14.34.31933\include\utility

; 100  :     _Ty _Tmp = _STD move(_Left);

  00130	8a 4a 0c	 mov	 cl, BYTE PTR [edx+12]

; 101  :     _Left    = _STD move(_Right);

  00133	8a 43 0c	 mov	 al, BYTE PTR [ebx+12]
  00136	88 42 0c	 mov	 BYTE PTR [edx+12], al
  00139	8b 55 fc	 mov	 edx, DWORD PTR _this$1$[ebp]

; 102  :     _Right   = _STD move(_Tmp);

  0013c	88 4b 0c	 mov	 BYTE PTR [ebx+12], cl
$LN47@Extract:
; File C:\Program Files\Microsoft Visual Studio\2022\Community\VC\Tools\MSVC\14.34.31933\include\xtree

; 573  :         if (_Erasednode->_Color == _Black) { // erasing black link, must recolor/rebalance tree

  0013f	80 7b 0c 01	 cmp	 BYTE PTR [ebx+12], 1
  00143	0f 85 88 01 00
	00		 jne	 $LN25@Extract

; 574  :             for (; _Fixnode != _Myhead->_Parent && _Fixnode->_Color == _Black; _Fixnodeparent = _Fixnode->_Parent) {

  00149	8b 02		 mov	 eax, DWORD PTR [edx]
  0014b	3b 78 04	 cmp	 edi, DWORD PTR [eax+4]
  0014e	0f 84 79 01 00
	00		 je	 $LN3@Extract
  00154	0f 1f 40 00 0f
	1f 84 00 00 00
	00 00		 npad	 12
$LL4@Extract:
  00160	80 7f 0c 01	 cmp	 BYTE PTR [edi+12], 1
  00164	89 75 f4	 mov	 DWORD PTR tv1091[ebp], esi
  00167	0f 85 5d 01 00
	00		 jne	 $LN93@Extract

; 575  :                 if (_Fixnode == _Fixnodeparent->_Left) { // fixup left subtree

  0016d	8b 0e		 mov	 ecx, DWORD PTR [esi]
  0016f	3b f9		 cmp	 edi, ecx
  00171	0f 85 c2 00 00
	00		 jne	 $LN26@Extract

; 576  :                     _Pnode = _Fixnodeparent->_Right;

  00177	8b 4e 08	 mov	 ecx, DWORD PTR [esi+8]

; 577  :                     if (_Pnode->_Color == _Red) { // rotate red up from right subtree

  0017a	80 79 0c 00	 cmp	 BYTE PTR [ecx+12], 0
  0017e	75 57		 jne	 SHORT $LN87@Extract

; 578  :                         _Pnode->_Color         = _Black;

  00180	c6 41 0c 01	 mov	 BYTE PTR [ecx+12], 1

; 461  :         _Nodeptr _Pnode    = _Wherenode->_Right;

  00184	8b 4e 08	 mov	 ecx, DWORD PTR [esi+8]

; 579  :                         _Fixnodeparent->_Color = _Red;

  00187	c6 46 0c 00	 mov	 BYTE PTR [esi+12], 0

; 462  :         _Wherenode->_Right = _Pnode->_Left;

  0018b	8b 01		 mov	 eax, DWORD PTR [ecx]
  0018d	89 46 08	 mov	 DWORD PTR [esi+8], eax

; 463  : 
; 464  :         if (!_Pnode->_Left->_Isnil) {

  00190	8b 01		 mov	 eax, DWORD PTR [ecx]
  00192	80 78 0d 00	 cmp	 BYTE PTR [eax+13], 0
  00196	75 03		 jne	 SHORT $LN49@Extract

; 465  :             _Pnode->_Left->_Parent = _Wherenode;

  00198	89 70 04	 mov	 DWORD PTR [eax+4], esi
$LN49@Extract:

; 466  :         }
; 467  : 
; 468  :         _Pnode->_Parent = _Wherenode->_Parent;

  0019b	8b 46 04	 mov	 eax, DWORD PTR [esi+4]
  0019e	8d 56 04	 lea	 edx, DWORD PTR [esi+4]
  001a1	89 41 04	 mov	 DWORD PTR [ecx+4], eax

; 469  : 
; 470  :         if (_Wherenode == _Myhead->_Parent) {

  001a4	8b 45 fc	 mov	 eax, DWORD PTR _this$1$[ebp]
  001a7	8b 00		 mov	 eax, DWORD PTR [eax]
  001a9	3b 70 04	 cmp	 esi, DWORD PTR [eax+4]
  001ac	75 0c		 jne	 SHORT $LN50@Extract

; 471  :             _Myhead->_Parent = _Pnode;

  001ae	89 48 04	 mov	 DWORD PTR [eax+4], ecx

; 476  :         }
; 477  : 
; 478  :         _Pnode->_Left       = _Wherenode;

  001b1	89 31		 mov	 DWORD PTR [ecx], esi

; 479  :         _Wherenode->_Parent = _Pnode;

  001b3	89 0a		 mov	 DWORD PTR [edx], ecx

; 580  :                         _Lrotate(_Fixnodeparent);
; 581  :                         _Pnode = _Fixnodeparent->_Right;

  001b5	8b 4e 08	 mov	 ecx, DWORD PTR [esi+8]
  001b8	eb 20		 jmp	 SHORT $LN80@Extract
$LN50@Extract:

; 472  :         } else if (_Wherenode == _Wherenode->_Parent->_Left) {

  001ba	8b 02		 mov	 eax, DWORD PTR [edx]
  001bc	3b 30		 cmp	 esi, DWORD PTR [eax]
  001be	75 0b		 jne	 SHORT $LN52@Extract

; 473  :             _Wherenode->_Parent->_Left = _Pnode;

  001c0	89 08		 mov	 DWORD PTR [eax], ecx

; 476  :         }
; 477  : 
; 478  :         _Pnode->_Left       = _Wherenode;

  001c2	89 31		 mov	 DWORD PTR [ecx], esi

; 479  :         _Wherenode->_Parent = _Pnode;

  001c4	89 0a		 mov	 DWORD PTR [edx], ecx

; 580  :                         _Lrotate(_Fixnodeparent);
; 581  :                         _Pnode = _Fixnodeparent->_Right;

  001c6	8b 4e 08	 mov	 ecx, DWORD PTR [esi+8]
  001c9	eb 0f		 jmp	 SHORT $LN80@Extract
$LN52@Extract:

; 475  :             _Wherenode->_Parent->_Right = _Pnode;

  001cb	89 48 08	 mov	 DWORD PTR [eax+8], ecx

; 476  :         }
; 477  : 
; 478  :         _Pnode->_Left       = _Wherenode;

  001ce	89 31		 mov	 DWORD PTR [ecx], esi

; 479  :         _Wherenode->_Parent = _Pnode;

  001d0	89 0a		 mov	 DWORD PTR [edx], ecx

; 580  :                         _Lrotate(_Fixnodeparent);
; 581  :                         _Pnode = _Fixnodeparent->_Right;

  001d2	8b 4e 08	 mov	 ecx, DWORD PTR [esi+8]
  001d5	eb 03		 jmp	 SHORT $LN80@Extract
$LN87@Extract:
  001d7	8d 56 04	 lea	 edx, DWORD PTR [esi+4]
$LN80@Extract:

; 582  :                     }
; 583  : 
; 584  :                     if (_Pnode->_Isnil) {

  001da	80 79 0d 00	 cmp	 BYTE PTR [ecx+13], 0
  001de	0f 85 d1 00 00
	00		 jne	 $LN2@Extract

; 585  :                         _Fixnode = _Fixnodeparent; // shouldn't happen
; 586  :                     } else if (_Pnode->_Left->_Color == _Black
; 587  :                                && _Pnode->_Right->_Color == _Black) { // redden right subtree with black children

  001e4	8b 01		 mov	 eax, DWORD PTR [ecx]
  001e6	80 78 0c 01	 cmp	 BYTE PTR [eax+12], 1
  001ea	75 0d		 jne	 SHORT $LN89@Extract
  001ec	8b 41 08	 mov	 eax, DWORD PTR [ecx+8]
  001ef	80 78 0c 01	 cmp	 BYTE PTR [eax+12], 1
  001f3	0f 84 b8 00 00
	00		 je	 $LN95@Extract
$LN89@Extract:

; 588  :                         _Pnode->_Color = _Red;
; 589  :                         _Fixnode       = _Fixnodeparent;
; 590  :                     } else { // must rearrange right subtree
; 591  :                         if (_Pnode->_Right->_Color == _Black) { // rotate red up from left sub-subtree

  001f9	8b 41 08	 mov	 eax, DWORD PTR [ecx+8]
  001fc	80 78 0c 01	 cmp	 BYTE PTR [eax+12], 1
  00200	75 16		 jne	 SHORT $LN33@Extract

; 592  :                             _Pnode->_Left->_Color = _Black;

  00202	8b 01		 mov	 eax, DWORD PTR [ecx]

; 593  :                             _Pnode->_Color        = _Red;
; 594  :                             _Rrotate(_Pnode);

  00204	51		 push	 ecx
  00205	c6 40 0c 01	 mov	 BYTE PTR [eax+12], 1
  00209	c6 41 0c 00	 mov	 BYTE PTR [ecx+12], 0
  0020d	8b 4d fc	 mov	 ecx, DWORD PTR _this$1$[ebp]
  00210	e8 00 00 00 00	 call	 ?_Rrotate@?$_Tree_val@U?$_Tree_simple_types@U?$pair@$$CBKUSPartyMemberInfo@CPythonPlayer@@@std@@@std@@@std@@QAEXPAU?$_Tree_node@U?$pair@$$CBKUSPartyMemberInfo@CPythonPlayer@@@std@@PAX@2@@Z ; std::_Tree_val<std::_Tree_simple_types<std::pair<unsigned long const ,CPythonPlayer::SPartyMemberInfo> > >::_Rrotate

; 595  :                             _Pnode = _Fixnodeparent->_Right;

  00215	8b 4e 08	 mov	 ecx, DWORD PTR [esi+8]
$LN33@Extract:

; 596  :                         }
; 597  : 
; 598  :                         _Pnode->_Color         = _Fixnodeparent->_Color;

  00218	8a 46 0c	 mov	 al, BYTE PTR [esi+12]
  0021b	88 41 0c	 mov	 BYTE PTR [ecx+12], al

; 599  :                         _Fixnodeparent->_Color = _Black;

  0021e	c6 46 0c 01	 mov	 BYTE PTR [esi+12], 1

; 600  :                         _Pnode->_Right->_Color = _Black;

  00222	8b 41 08	 mov	 eax, DWORD PTR [ecx+8]

; 601  :                         _Lrotate(_Fixnodeparent);

  00225	8b 4d fc	 mov	 ecx, DWORD PTR _this$1$[ebp]
  00228	56		 push	 esi
  00229	c6 40 0c 01	 mov	 BYTE PTR [eax+12], 1
  0022d	e8 00 00 00 00	 call	 ?_Lrotate@?$_Tree_val@U?$_Tree_simple_types@U?$pair@$$CBKUSPartyMemberInfo@CPythonPlayer@@@std@@@std@@@std@@QAEXPAU?$_Tree_node@U?$pair@$$CBKUSPartyMemberInfo@CPythonPlayer@@@std@@PAX@2@@Z ; std::_Tree_val<std::_Tree_simple_types<std::pair<unsigned long const ,CPythonPlayer::SPartyMemberInfo> > >::_Lrotate

; 602  :                         break; // tree now recolored/rebalanced

  00232	8b d1		 mov	 edx, ecx
  00234	e9 91 00 00 00	 jmp	 $LN93@Extract
$LN26@Extract:

; 603  :                     }
; 604  :                 } else { // fixup right subtree
; 605  :                     _Pnode = _Fixnodeparent->_Left;
; 606  :                     if (_Pnode->_Color == _Red) { // rotate red up from left subtree

  00239	80 79 0c 00	 cmp	 BYTE PTR [ecx+12], 0
  0023d	75 58		 jne	 SHORT $LN88@Extract

; 607  :                         _Pnode->_Color         = _Black;

  0023f	c6 41 0c 01	 mov	 BYTE PTR [ecx+12], 1

; 483  :         _Nodeptr _Pnode   = _Wherenode->_Left;

  00243	8b 0e		 mov	 ecx, DWORD PTR [esi]

; 608  :                         _Fixnodeparent->_Color = _Red;

  00245	c6 46 0c 00	 mov	 BYTE PTR [esi+12], 0

; 484  :         _Wherenode->_Left = _Pnode->_Right;

  00249	8b 41 08	 mov	 eax, DWORD PTR [ecx+8]
  0024c	89 06		 mov	 DWORD PTR [esi], eax

; 485  : 
; 486  :         if (!_Pnode->_Right->_Isnil) {

  0024e	8b 41 08	 mov	 eax, DWORD PTR [ecx+8]
  00251	80 78 0d 00	 cmp	 BYTE PTR [eax+13], 0
  00255	75 03		 jne	 SHORT $LN56@Extract

; 487  :             _Pnode->_Right->_Parent = _Wherenode;

  00257	89 70 04	 mov	 DWORD PTR [eax+4], esi
$LN56@Extract:

; 488  :         }
; 489  : 
; 490  :         _Pnode->_Parent = _Wherenode->_Parent;

  0025a	8b 46 04	 mov	 eax, DWORD PTR [esi+4]
  0025d	8d 56 04	 lea	 edx, DWORD PTR [esi+4]
  00260	89 41 04	 mov	 DWORD PTR [ecx+4], eax

; 491  : 
; 492  :         if (_Wherenode == _Myhead->_Parent) {

  00263	8b 45 fc	 mov	 eax, DWORD PTR _this$1$[ebp]
  00266	8b 00		 mov	 eax, DWORD PTR [eax]
  00268	3b 70 04	 cmp	 esi, DWORD PTR [eax+4]
  0026b	75 0c		 jne	 SHORT $LN57@Extract

; 493  :             _Myhead->_Parent = _Pnode;

  0026d	89 48 04	 mov	 DWORD PTR [eax+4], ecx

; 498  :         }
; 499  : 
; 500  :         _Pnode->_Right      = _Wherenode;

  00270	89 71 08	 mov	 DWORD PTR [ecx+8], esi

; 501  :         _Wherenode->_Parent = _Pnode;

  00273	89 0a		 mov	 DWORD PTR [edx], ecx

; 609  :                         _Rrotate(_Fixnodeparent);
; 610  :                         _Pnode = _Fixnodeparent->_Left;

  00275	8b 0e		 mov	 ecx, DWORD PTR [esi]
  00277	eb 21		 jmp	 SHORT $LN79@Extract
$LN57@Extract:

; 494  :         } else if (_Wherenode == _Wherenode->_Parent->_Right) {

  00279	8b 02		 mov	 eax, DWORD PTR [edx]
  0027b	3b 70 08	 cmp	 esi, DWORD PTR [eax+8]
  0027e	75 0c		 jne	 SHORT $LN59@Extract

; 495  :             _Wherenode->_Parent->_Right = _Pnode;

  00280	89 48 08	 mov	 DWORD PTR [eax+8], ecx

; 498  :         }
; 499  : 
; 500  :         _Pnode->_Right      = _Wherenode;

  00283	89 71 08	 mov	 DWORD PTR [ecx+8], esi

; 501  :         _Wherenode->_Parent = _Pnode;

  00286	89 0a		 mov	 DWORD PTR [edx], ecx

; 609  :                         _Rrotate(_Fixnodeparent);
; 610  :                         _Pnode = _Fixnodeparent->_Left;

  00288	8b 0e		 mov	 ecx, DWORD PTR [esi]
  0028a	eb 0e		 jmp	 SHORT $LN79@Extract
$LN59@Extract:

; 497  :             _Wherenode->_Parent->_Left = _Pnode;

  0028c	89 08		 mov	 DWORD PTR [eax], ecx

; 498  :         }
; 499  : 
; 500  :         _Pnode->_Right      = _Wherenode;

  0028e	89 71 08	 mov	 DWORD PTR [ecx+8], esi

; 501  :         _Wherenode->_Parent = _Pnode;

  00291	89 0a		 mov	 DWORD PTR [edx], ecx

; 609  :                         _Rrotate(_Fixnodeparent);
; 610  :                         _Pnode = _Fixnodeparent->_Left;

  00293	8b 0e		 mov	 ecx, DWORD PTR [esi]
  00295	eb 03		 jmp	 SHORT $LN79@Extract
$LN88@Extract:
  00297	8d 56 04	 lea	 edx, DWORD PTR [esi+4]
$LN79@Extract:

; 611  :                     }
; 612  : 
; 613  :                     if (_Pnode->_Isnil) {

  0029a	80 79 0d 00	 cmp	 BYTE PTR [ecx+13], 0
  0029e	75 15		 jne	 SHORT $LN2@Extract

; 614  :                         _Fixnode = _Fixnodeparent; // shouldn't happen
; 615  :                     } else if (_Pnode->_Right->_Color == _Black
; 616  :                                && _Pnode->_Left->_Color == _Black) { // redden left subtree with black children

  002a0	8b 59 08	 mov	 ebx, DWORD PTR [ecx+8]
  002a3	80 7b 0c 01	 cmp	 BYTE PTR [ebx+12], 1
  002a7	75 3e		 jne	 SHORT $LN90@Extract
  002a9	8b 01		 mov	 eax, DWORD PTR [ecx]
  002ab	80 78 0c 01	 cmp	 BYTE PTR [eax+12], 1
  002af	75 36		 jne	 SHORT $LN90@Extract
$LN95@Extract:

; 574  :             for (; _Fixnode != _Myhead->_Parent && _Fixnode->_Color == _Black; _Fixnodeparent = _Fixnode->_Parent) {

  002b1	c6 41 0c 00	 mov	 BYTE PTR [ecx+12], 0
$LN2@Extract:
  002b5	8b 32		 mov	 esi, DWORD PTR [edx]
  002b7	8b 55 fc	 mov	 edx, DWORD PTR _this$1$[ebp]
  002ba	8b 4d f4	 mov	 ecx, DWORD PTR tv1091[ebp]
  002bd	8b f9		 mov	 edi, ecx
  002bf	8b 02		 mov	 eax, DWORD PTR [edx]
  002c1	3b 48 04	 cmp	 ecx, DWORD PTR [eax+4]
  002c4	0f 85 96 fe ff
	ff		 jne	 $LL4@Extract
$LN93@Extract:

; 631  :                         break; // tree now recolored/rebalanced
; 632  :                     }
; 633  :                 }
; 634  :             }
; 635  : 
; 636  :             _Fixnode->_Color = _Black; // stopping node is black

  002ca	8b 5d f8	 mov	 ebx, DWORD PTR __Erasednode$1$[ebp]
$LN3@Extract:
  002cd	c6 47 0c 01	 mov	 BYTE PTR [edi+12], 1
$LN25@Extract:

; 637  :         }
; 638  : 
; 639  :         if (0 < _Mysize) {

  002d1	8b 4a 04	 mov	 ecx, DWORD PTR [edx+4]
  002d4	8b c3		 mov	 eax, ebx
  002d6	85 c9		 test	 ecx, ecx
  002d8	74 04		 je	 SHORT $LN40@Extract

; 640  :             --_Mysize;

  002da	49		 dec	 ecx
  002db	89 4a 04	 mov	 DWORD PTR [edx+4], ecx
$LN40@Extract:

; 641  :         }
; 642  : 
; 643  :         return _Erasednode;
; 644  :     }

  002de	5f		 pop	 edi
  002df	5e		 pop	 esi
  002e0	5b		 pop	 ebx
  002e1	8b e5		 mov	 esp, ebp
  002e3	5d		 pop	 ebp
  002e4	c2 04 00	 ret	 4
$LN90@Extract:

; 617  :                         _Pnode->_Color = _Red;
; 618  :                         _Fixnode       = _Fixnodeparent;
; 619  :                     } else { // must rearrange left subtree
; 620  :                         if (_Pnode->_Left->_Color == _Black) { // rotate red up from right sub-subtree

  002e7	8b 01		 mov	 eax, DWORD PTR [ecx]
  002e9	80 78 0c 01	 cmp	 BYTE PTR [eax+12], 1
  002ed	75 13		 jne	 SHORT $LN39@Extract

; 621  :                             _Pnode->_Right->_Color = _Black;

  002ef	c6 43 0c 01	 mov	 BYTE PTR [ebx+12], 1

; 622  :                             _Pnode->_Color         = _Red;

  002f3	c6 41 0c 00	 mov	 BYTE PTR [ecx+12], 0

; 623  :                             _Lrotate(_Pnode);

  002f7	51		 push	 ecx
  002f8	8b 4d fc	 mov	 ecx, DWORD PTR _this$1$[ebp]
  002fb	e8 00 00 00 00	 call	 ?_Lrotate@?$_Tree_val@U?$_Tree_simple_types@U?$pair@$$CBKUSPartyMemberInfo@CPythonPlayer@@@std@@@std@@@std@@QAEXPAU?$_Tree_node@U?$pair@$$CBKUSPartyMemberInfo@CPythonPlayer@@@std@@PAX@2@@Z ; std::_Tree_val<std::_Tree_simple_types<std::pair<unsigned long const ,CPythonPlayer::SPartyMemberInfo> > >::_Lrotate

; 624  :                             _Pnode = _Fixnodeparent->_Left;

  00300	8b 0e		 mov	 ecx, DWORD PTR [esi]
$LN39@Extract:

; 625  :                         }
; 626  : 
; 627  :                         _Pnode->_Color         = _Fixnodeparent->_Color;

  00302	8a 46 0c	 mov	 al, BYTE PTR [esi+12]
  00305	88 41 0c	 mov	 BYTE PTR [ecx+12], al

; 628  :                         _Fixnodeparent->_Color = _Black;

  00308	c6 46 0c 01	 mov	 BYTE PTR [esi+12], 1

; 629  :                         _Pnode->_Left->_Color  = _Black;

  0030c	8b 01		 mov	 eax, DWORD PTR [ecx]

; 630  :                         _Rrotate(_Fixnodeparent);

  0030e	8b 4d fc	 mov	 ecx, DWORD PTR _this$1$[ebp]
  00311	56		 push	 esi
  00312	c6 40 0c 01	 mov	 BYTE PTR [eax+12], 1
  00316	e8 00 00 00 00	 call	 ?_Rrotate@?$_Tree_val@U?$_Tree_simple_types@U?$pair@$$CBKUSPartyMemberInfo@CPythonPlayer@@@std@@@std@@@std@@QAEXPAU?$_Tree_node@U?$pair@$$CBKUSPartyMemberInfo@CPythonPlayer@@@std@@PAX@2@@Z ; std::_Tree_val<std::_Tree_simple_types<std::pair<unsigned long const ,CPythonPlayer::SPartyMemberInfo> > >::_Rrotate
  0031b	8b d1		 mov	 edx, ecx
  0031d	eb ab		 jmp	 SHORT $LN93@Extract
?_Extract@?$_Tree_val@U?$_Tree_simple_types@U?$pair@$$CBKUSPartyMemberInfo@CPythonPlayer@@@std@@@std@@@std@@QAEPAU?$_Tree_node@U?$pair@$$CBKUSPartyMemberInfo@CPythonPlayer@@@std@@PAX@2@V?$_Tree_unchecked_const_iterator@V?$_Tree_val@U?$_Tree_simple_types@U?$pair@$$CBKUSPartyMemberInfo@CPythonPlayer@@@std@@@std@@@std@@U_Iterator_base0@2@@2@@Z ENDP ; std::_Tree_val<std::_Tree_simple_types<std::pair<unsigned long const ,CPythonPlayer::SPartyMemberInfo> > >::_Extract
_TEXT	ENDS
; Function compile flags: /Ogtp
; File C:\Program Files\Microsoft Visual Studio\2022\Community\VC\Tools\MSVC\14.34.31933\include\xtree
;	COMDAT ?_Rrotate@?$_Tree_val@U?$_Tree_simple_types@U?$pair@$$CBKUSPartyMemberInfo@CPythonPlayer@@@std@@@std@@@std@@QAEXPAU?$_Tree_node@U?$pair@$$CBKUSPartyMemberInfo@CPythonPlayer@@@std@@PAX@2@@Z
_TEXT	SEGMENT
__Wherenode$ = 8					; size = 4
?_Rrotate@?$_Tree_val@U?$_Tree_simple_types@U?$pair@$$CBKUSPartyMemberInfo@CPythonPlayer@@@std@@@std@@@std@@QAEXPAU?$_Tree_node@U?$pair@$$CBKUSPartyMemberInfo@CPythonPlayer@@@std@@PAX@2@@Z PROC ; std::_Tree_val<std::_Tree_simple_types<std::pair<unsigned long const ,CPythonPlayer::SPartyMemberInfo> > >::_Rrotate, COMDAT
; _this$ = ecx

; 482  :     void _Rrotate(_Nodeptr _Wherenode) noexcept { // promote left node to root of subtree

  00000	55		 push	 ebp
  00001	8b ec		 mov	 ebp, esp

; 483  :         _Nodeptr _Pnode   = _Wherenode->_Left;

  00003	8b 55 08	 mov	 edx, DWORD PTR __Wherenode$[ebp]
  00006	56		 push	 esi
  00007	8b 32		 mov	 esi, DWORD PTR [edx]

; 484  :         _Wherenode->_Left = _Pnode->_Right;

  00009	8b 46 08	 mov	 eax, DWORD PTR [esi+8]
  0000c	89 02		 mov	 DWORD PTR [edx], eax

; 485  : 
; 486  :         if (!_Pnode->_Right->_Isnil) {

  0000e	8b 46 08	 mov	 eax, DWORD PTR [esi+8]
  00011	80 78 0d 00	 cmp	 BYTE PTR [eax+13], 0
  00015	75 03		 jne	 SHORT $LN2@Rrotate

; 487  :             _Pnode->_Right->_Parent = _Wherenode;

  00017	89 50 04	 mov	 DWORD PTR [eax+4], edx
$LN2@Rrotate:

; 488  :         }
; 489  : 
; 490  :         _Pnode->_Parent = _Wherenode->_Parent;

  0001a	8b 42 04	 mov	 eax, DWORD PTR [edx+4]
  0001d	89 46 04	 mov	 DWORD PTR [esi+4], eax

; 491  : 
; 492  :         if (_Wherenode == _Myhead->_Parent) {

  00020	8b 01		 mov	 eax, DWORD PTR [ecx]
  00022	3b 50 04	 cmp	 edx, DWORD PTR [eax+4]
  00025	75 0e		 jne	 SHORT $LN3@Rrotate

; 493  :             _Myhead->_Parent = _Pnode;

  00027	89 70 04	 mov	 DWORD PTR [eax+4], esi

; 498  :         }
; 499  : 
; 500  :         _Pnode->_Right      = _Wherenode;
; 501  :         _Wherenode->_Parent = _Pnode;
; 502  :     }

  0002a	89 56 08	 mov	 DWORD PTR [esi+8], edx
  0002d	89 72 04	 mov	 DWORD PTR [edx+4], esi
  00030	5e		 pop	 esi
  00031	5d		 pop	 ebp
  00032	c2 04 00	 ret	 4
$LN3@Rrotate:

; 494  :         } else if (_Wherenode == _Wherenode->_Parent->_Right) {

  00035	8b 42 04	 mov	 eax, DWORD PTR [edx+4]
  00038	3b 50 08	 cmp	 edx, DWORD PTR [eax+8]
  0003b	75 0e		 jne	 SHORT $LN5@Rrotate

; 495  :             _Wherenode->_Parent->_Right = _Pnode;

  0003d	89 70 08	 mov	 DWORD PTR [eax+8], esi

; 498  :         }
; 499  : 
; 500  :         _Pnode->_Right      = _Wherenode;
; 501  :         _Wherenode->_Parent = _Pnode;
; 502  :     }

  00040	89 56 08	 mov	 DWORD PTR [esi+8], edx
  00043	89 72 04	 mov	 DWORD PTR [edx+4], esi
  00046	5e		 pop	 esi
  00047	5d		 pop	 ebp
  00048	c2 04 00	 ret	 4
$LN5@Rrotate:

; 496  :         } else {
; 497  :             _Wherenode->_Parent->_Left = _Pnode;

  0004b	89 30		 mov	 DWORD PTR [eax], esi

; 498  :         }
; 499  : 
; 500  :         _Pnode->_Right      = _Wherenode;
; 501  :         _Wherenode->_Parent = _Pnode;
; 502  :     }

  0004d	89 56 08	 mov	 DWORD PTR [esi+8], edx
  00050	89 72 04	 mov	 DWORD PTR [edx+4], esi
  00053	5e		 pop	 esi
  00054	5d		 pop	 ebp
  00055	c2 04 00	 ret	 4
?_Rrotate@?$_Tree_val@U?$_Tree_simple_types@U?$pair@$$CBKUSPartyMemberInfo@CPythonPlayer@@@std@@@std@@@std@@QAEXPAU?$_Tree_node@U?$pair@$$CBKUSPartyMemberInfo@CPythonPlayer@@@std@@PAX@2@@Z ENDP ; std::_Tree_val<std::_Tree_simple_types<std::pair<unsigned long const ,CPythonPlayer::SPartyMemberInfo> > >::_Rrotate
_TEXT	ENDS
; Function compile flags: /Ogtp
; File C:\Program Files\Microsoft Visual Studio\2022\Community\VC\Tools\MSVC\14.34.31933\include\xtree
;	COMDAT ?_Lrotate@?$_Tree_val@U?$_Tree_simple_types@U?$pair@$$CBKUSPartyMemberInfo@CPythonPlayer@@@std@@@std@@@std@@QAEXPAU?$_Tree_node@U?$pair@$$CBKUSPartyMemberInfo@CPythonPlayer@@@std@@PAX@2@@Z
_TEXT	SEGMENT
__Wherenode$ = 8					; size = 4
?_Lrotate@?$_Tree_val@U?$_Tree_simple_types@U?$pair@$$CBKUSPartyMemberInfo@CPythonPlayer@@@std@@@std@@@std@@QAEXPAU?$_Tree_node@U?$pair@$$CBKUSPartyMemberInfo@CPythonPlayer@@@std@@PAX@2@@Z PROC ; std::_Tree_val<std::_Tree_simple_types<std::pair<unsigned long const ,CPythonPlayer::SPartyMemberInfo> > >::_Lrotate, COMDAT
; _this$ = ecx

; 460  :     void _Lrotate(_Nodeptr _Wherenode) noexcept { // promote right node to root of subtree

  00000	55		 push	 ebp
  00001	8b ec		 mov	 ebp, esp

; 461  :         _Nodeptr _Pnode    = _Wherenode->_Right;

  00003	8b 55 08	 mov	 edx, DWORD PTR __Wherenode$[ebp]
  00006	56		 push	 esi
  00007	8b 72 08	 mov	 esi, DWORD PTR [edx+8]

; 462  :         _Wherenode->_Right = _Pnode->_Left;

  0000a	8b 06		 mov	 eax, DWORD PTR [esi]
  0000c	89 42 08	 mov	 DWORD PTR [edx+8], eax

; 463  : 
; 464  :         if (!_Pnode->_Left->_Isnil) {

  0000f	8b 06		 mov	 eax, DWORD PTR [esi]
  00011	80 78 0d 00	 cmp	 BYTE PTR [eax+13], 0
  00015	75 03		 jne	 SHORT $LN2@Lrotate

; 465  :             _Pnode->_Left->_Parent = _Wherenode;

  00017	89 50 04	 mov	 DWORD PTR [eax+4], edx
$LN2@Lrotate:

; 466  :         }
; 467  : 
; 468  :         _Pnode->_Parent = _Wherenode->_Parent;

  0001a	8b 42 04	 mov	 eax, DWORD PTR [edx+4]
  0001d	89 46 04	 mov	 DWORD PTR [esi+4], eax

; 469  : 
; 470  :         if (_Wherenode == _Myhead->_Parent) {

  00020	8b 01		 mov	 eax, DWORD PTR [ecx]
  00022	3b 50 04	 cmp	 edx, DWORD PTR [eax+4]
  00025	75 0d		 jne	 SHORT $LN3@Lrotate

; 471  :             _Myhead->_Parent = _Pnode;

  00027	89 70 04	 mov	 DWORD PTR [eax+4], esi

; 476  :         }
; 477  : 
; 478  :         _Pnode->_Left       = _Wherenode;
; 479  :         _Wherenode->_Parent = _Pnode;
; 480  :     }

  0002a	89 16		 mov	 DWORD PTR [esi], edx
  0002c	89 72 04	 mov	 DWORD PTR [edx+4], esi
  0002f	5e		 pop	 esi
  00030	5d		 pop	 ebp
  00031	c2 04 00	 ret	 4
$LN3@Lrotate:

; 472  :         } else if (_Wherenode == _Wherenode->_Parent->_Left) {

  00034	8b 42 04	 mov	 eax, DWORD PTR [edx+4]
  00037	3b 10		 cmp	 edx, DWORD PTR [eax]
  00039	75 0c		 jne	 SHORT $LN5@Lrotate

; 473  :             _Wherenode->_Parent->_Left = _Pnode;

  0003b	89 30		 mov	 DWORD PTR [eax], esi

; 476  :         }
; 477  : 
; 478  :         _Pnode->_Left       = _Wherenode;
; 479  :         _Wherenode->_Parent = _Pnode;
; 480  :     }

  0003d	89 16		 mov	 DWORD PTR [esi], edx
  0003f	89 72 04	 mov	 DWORD PTR [edx+4], esi
  00042	5e		 pop	 esi
  00043	5d		 pop	 ebp
  00044	c2 04 00	 ret	 4
$LN5@Lrotate:

; 474  :         } else {
; 475  :             _Wherenode->_Parent->_Right = _Pnode;

  00047	89 70 08	 mov	 DWORD PTR [eax+8], esi

; 476  :         }
; 477  : 
; 478  :         _Pnode->_Left       = _Wherenode;
; 479  :         _Wherenode->_Parent = _Pnode;
; 480  :     }

  0004a	89 16		 mov	 DWORD PTR [esi], edx
  0004c	89 72 04	 mov	 DWORD PTR [edx+4], esi
  0004f	5e		 pop	 esi
  00050	5d		 pop	 ebp
  00051	c2 04 00	 ret	 4
?_Lrotate@?$_Tree_val@U?$_Tree_simple_types@U?$pair@$$CBKUSPartyMemberInfo@CPythonPlayer@@@std@@@std@@@std@@QAEXPAU?$_Tree_node@U?$pair@$$CBKUSPartyMemberInfo@CPythonPlayer@@@std@@PAX@2@@Z ENDP ; std::_Tree_val<std::_Tree_simple_types<std::pair<unsigned long const ,CPythonPlayer::SPartyMemberInfo> > >::_Lrotate
_TEXT	ENDS
; Function compile flags: /Ogtp
; File C:\Program Files\Microsoft Visual Studio\2022\Community\VC\Tools\MSVC\14.34.31933\include\xtree
;	COMDAT ?_Max@?$_Tree_val@U?$_Tree_simple_types@U?$pair@$$CBKUSPartyMemberInfo@CPythonPlayer@@@std@@@std@@@std@@SAPAU?$_Tree_node@U?$pair@$$CBKUSPartyMemberInfo@CPythonPlayer@@@std@@PAX@2@PAU32@@Z
_TEXT	SEGMENT
?_Max@?$_Tree_val@U?$_Tree_simple_types@U?$pair@$$CBKUSPartyMemberInfo@CPythonPlayer@@@std@@@std@@@std@@SAPAU?$_Tree_node@U?$pair@$$CBKUSPartyMemberInfo@CPythonPlayer@@@std@@PAX@2@PAU32@@Z PROC ; std::_Tree_val<std::_Tree_simple_types<std::pair<unsigned long const ,CPythonPlayer::SPartyMemberInfo> > >::_Max, COMDAT
; __Pnode$ = ecx

; 445  :         while (!_Pnode->_Right->_Isnil) {

  00000	8b 51 08	 mov	 edx, DWORD PTR [ecx+8]
  00003	80 7a 0d 00	 cmp	 BYTE PTR [edx+13], 0
  00007	75 13		 jne	 SHORT $LN9@Max
  00009	0f 1f 80 00 00
	00 00		 npad	 7
$LL2@Max:

; 446  :             _Pnode = _Pnode->_Right;

  00010	8b c2		 mov	 eax, edx
  00012	8b 50 08	 mov	 edx, DWORD PTR [eax+8]
  00015	80 7a 0d 00	 cmp	 BYTE PTR [edx+13], 0
  00019	74 f5		 je	 SHORT $LL2@Max

; 450  :     }

  0001b	c3		 ret	 0
$LN9@Max:

; 447  :         }
; 448  : 
; 449  :         return _Pnode;

  0001c	8b c1		 mov	 eax, ecx

; 450  :     }

  0001e	c3		 ret	 0
?_Max@?$_Tree_val@U?$_Tree_simple_types@U?$pair@$$CBKUSPartyMemberInfo@CPythonPlayer@@@std@@@std@@@std@@SAPAU?$_Tree_node@U?$pair@$$CBKUSPartyMemberInfo@CPythonPlayer@@@std@@PAX@2@PAU32@@Z ENDP ; std::_Tree_val<std::_Tree_simple_types<std::pair<unsigned long const ,CPythonPlayer::SPartyMemberInfo> > >::_Max
_TEXT	ENDS
; Function compile flags: /Ogtp
; File C:\Program Files\Microsoft Visual Studio\2022\Community\VC\Tools\MSVC\14.34.31933\include\utility
;	COMDAT ??$swap@USQuickSlot@@$0A@@std@@YAXAAUSQuickSlot@@0@Z
_TEXT	SEGMENT
??$swap@USQuickSlot@@$0A@@std@@YAXAAUSQuickSlot@@0@Z PROC ; std::swap<SQuickSlot,0>, COMDAT
; __Left$ = ecx
; __Right$ = edx

; 100  :     _Ty _Tmp = _STD move(_Left);

  00000	66 8b 01	 mov	 ax, WORD PTR [ecx]
  00003	56		 push	 esi

; 101  :     _Left    = _STD move(_Right);

  00004	66 8b 32	 mov	 si, WORD PTR [edx]
  00007	66 89 31	 mov	 WORD PTR [ecx], si

; 102  :     _Right   = _STD move(_Tmp);

  0000a	66 89 02	 mov	 WORD PTR [edx], ax
  0000d	5e		 pop	 esi

; 103  : }

  0000e	c3		 ret	 0
??$swap@USQuickSlot@@$0A@@std@@YAXAAUSQuickSlot@@0@Z ENDP ; std::swap<SQuickSlot,0>
_TEXT	ENDS
; Function compile flags: /Ogtp
; File C:\Program Files\Microsoft Visual Studio\2022\Community\VC\Tools\MSVC\14.34.31933\include\utility
;	COMDAT ??$make_pair@AAKUSPartyMemberInfo@CPythonPlayer@@@std@@YA?AU?$pair@KUSPartyMemberInfo@CPythonPlayer@@@0@AAK$$QAUSPartyMemberInfo@CPythonPlayer@@@Z
_TEXT	SEGMENT
__Val2$ = 8						; size = 4
??$make_pair@AAKUSPartyMemberInfo@CPythonPlayer@@@std@@YA?AU?$pair@KUSPartyMemberInfo@CPythonPlayer@@@0@AAK$$QAUSPartyMemberInfo@CPythonPlayer@@@Z PROC ; std::make_pair<unsigned long &,CPythonPlayer::SPartyMemberInfo>, COMDAT
; ___$ReturnUdt$ = ecx
; __Val1$ = edx

; 443  :         is_nothrow_constructible_v<_Unrefwrap_t<_Ty2>, _Ty2>) /* strengthened */ {

  00000	55		 push	 ebp
  00001	8b ec		 mov	 ebp, esp

; 172  :         : first(_STD forward<_Other1>(_Val1)), second(_STD forward<_Other2>(_Val2)) {

  00003	8b 02		 mov	 eax, DWORD PTR [edx]

; 443  :         is_nothrow_constructible_v<_Unrefwrap_t<_Ty2>, _Ty2>) /* strengthened */ {

  00005	56		 push	 esi

; 172  :         : first(_STD forward<_Other1>(_Val1)), second(_STD forward<_Other2>(_Val2)) {

  00006	ff 75 08	 push	 DWORD PTR __Val2$[ebp]

; 443  :         is_nothrow_constructible_v<_Unrefwrap_t<_Ty2>, _Ty2>) /* strengthened */ {

  00009	8b f1		 mov	 esi, ecx

; 172  :         : first(_STD forward<_Other1>(_Val1)), second(_STD forward<_Other2>(_Val2)) {

  0000b	8d 4e 04	 lea	 ecx, DWORD PTR [esi+4]
  0000e	89 06		 mov	 DWORD PTR [esi], eax
  00010	e8 00 00 00 00	 call	 ??0SPartyMemberInfo@CPythonPlayer@@QAE@$$QAU01@@Z

; 444  :     // return pair composed from arguments
; 445  :     using _Mypair = pair<_Unrefwrap_t<_Ty1>, _Unrefwrap_t<_Ty2>>;
; 446  :     return _Mypair(_STD forward<_Ty1>(_Val1), _STD forward<_Ty2>(_Val2));

  00015	8b c6		 mov	 eax, esi
  00017	5e		 pop	 esi

; 447  : }

  00018	5d		 pop	 ebp
  00019	c3		 ret	 0
??$make_pair@AAKUSPartyMemberInfo@CPythonPlayer@@@std@@YA?AU?$pair@KUSPartyMemberInfo@CPythonPlayer@@@0@AAK$$QAUSPartyMemberInfo@CPythonPlayer@@@Z ENDP ; std::make_pair<unsigned long &,CPythonPlayer::SPartyMemberInfo>
_TEXT	ENDS
; Function compile flags: /Ogtp
; File C:\Program Files\Microsoft Visual Studio\2022\Community\VC\Tools\MSVC\14.34.31933\include\map
;	COMDAT ??$insert@U?$pair@KUSPartyMemberInfo@CPythonPlayer@@@std@@$0A@@?$map@KUSPartyMemberInfo@CPythonPlayer@@U?$less@K@std@@V?$allocator@U?$pair@$$CBKUSPartyMemberInfo@CPythonPlayer@@@std@@@4@@std@@QAE?AU?$pair@V?$_Tree_iterator@V?$_Tree_val@U?$_Tree_simple_types@U?$pair@$$CBKUSPartyMemberInfo@CPythonPlayer@@@std@@@std@@@std@@@std@@_N@1@$$QAU?$pair@KUSPartyMemberInfo@CPythonPlayer@@@1@@Z
_TEXT	SEGMENT
___$ReturnUdt$ = 8					; size = 4
__Val$ = 12						; size = 4
??$insert@U?$pair@KUSPartyMemberInfo@CPythonPlayer@@@std@@$0A@@?$map@KUSPartyMemberInfo@CPythonPlayer@@U?$less@K@std@@V?$allocator@U?$pair@$$CBKUSPartyMemberInfo@CPythonPlayer@@@std@@@4@@std@@QAE?AU?$pair@V?$_Tree_iterator@V?$_Tree_val@U?$_Tree_simple_types@U?$pair@$$CBKUSPartyMemberInfo@CPythonPlayer@@@std@@@std@@@std@@@std@@_N@1@$$QAU?$pair@KUSPartyMemberInfo@CPythonPlayer@@@1@@Z PROC ; std::map<unsigned long,CPythonPlayer::SPartyMemberInfo,std::less<unsigned long>,std::allocator<std::pair<unsigned long const ,CPythonPlayer::SPartyMemberInfo> > >::insert<std::pair<unsigned long,CPythonPlayer::SPartyMemberInfo>,0>, COMDAT
; _this$ = ecx

; 184  :     pair<iterator, bool> insert(_Valty&& _Val) {

  00000	55		 push	 ebp
  00001	8b ec		 mov	 ebp, esp

; 185  :         return this->emplace(_STD forward<_Valty>(_Val));

  00003	ff 75 0c	 push	 DWORD PTR __Val$[ebp]
  00006	ff 75 08	 push	 DWORD PTR ___$ReturnUdt$[ebp]
  00009	e8 00 00 00 00	 call	 ??$emplace@U?$pair@KUSPartyMemberInfo@CPythonPlayer@@@std@@@?$_Tree@V?$_Tmap_traits@KUSPartyMemberInfo@CPythonPlayer@@U?$less@K@std@@V?$allocator@U?$pair@$$CBKUSPartyMemberInfo@CPythonPlayer@@@std@@@4@$0A@@std@@@std@@QAE?AU?$pair@V?$_Tree_iterator@V?$_Tree_val@U?$_Tree_simple_types@U?$pair@$$CBKUSPartyMemberInfo@CPythonPlayer@@@std@@@std@@@std@@@std@@_N@1@$$QAU?$pair@KUSPartyMemberInfo@CPythonPlayer@@@1@@Z ; std::_Tree<std::_Tmap_traits<unsigned long,CPythonPlayer::SPartyMemberInfo,std::less<unsigned long>,std::allocator<std::pair<unsigned long const ,CPythonPlayer::SPartyMemberInfo> >,0> >::emplace<std::pair<unsigned long,CPythonPlayer::SPartyMemberInfo> >
  0000e	8b 45 08	 mov	 eax, DWORD PTR ___$ReturnUdt$[ebp]

; 186  :     }

  00011	5d		 pop	 ebp
  00012	c2 08 00	 ret	 8
??$insert@U?$pair@KUSPartyMemberInfo@CPythonPlayer@@@std@@$0A@@?$map@KUSPartyMemberInfo@CPythonPlayer@@U?$less@K@std@@V?$allocator@U?$pair@$$CBKUSPartyMemberInfo@CPythonPlayer@@@std@@@4@@std@@QAE?AU?$pair@V?$_Tree_iterator@V?$_Tree_val@U?$_Tree_simple_types@U?$pair@$$CBKUSPartyMemberInfo@CPythonPlayer@@@std@@@std@@@std@@@std@@_N@1@$$QAU?$pair@KUSPartyMemberInfo@CPythonPlayer@@@1@@Z ENDP ; std::map<unsigned long,CPythonPlayer::SPartyMemberInfo,std::less<unsigned long>,std::allocator<std::pair<unsigned long const ,CPythonPlayer::SPartyMemberInfo> > >::insert<std::pair<unsigned long,CPythonPlayer::SPartyMemberInfo>,0>
_TEXT	ENDS
; Function compile flags: /Ogtp
; File C:\Program Files\Microsoft Visual Studio\2022\Community\VC\Tools\MSVC\14.34.31933\include\xtree
; File C:\Program Files\Microsoft Visual Studio\2022\Community\VC\Tools\MSVC\14.34.31933\include\xstddef
; File C:\Program Files\Microsoft Visual Studio\2022\Community\VC\Tools\MSVC\14.34.31933\include\xtree
; File C:\Program Files\Microsoft Visual Studio\2022\Community\VC\Tools\MSVC\14.34.31933\include\xstddef
; File C:\Program Files\Microsoft Visual Studio\2022\Community\VC\Tools\MSVC\14.34.31933\include\xtree
; File C:\Program Files\Microsoft Visual Studio\2022\Community\VC\Tools\MSVC\14.34.31933\include\xstddef
; File C:\Program Files\Microsoft Visual Studio\2022\Community\VC\Tools\MSVC\14.34.31933\include\xtree
; File C:\Program Files\Microsoft Visual Studio\2022\Community\VC\Tools\MSVC\14.34.31933\include\utility
; File C:\Program Files\Microsoft Visual Studio\2022\Community\VC\Tools\MSVC\14.34.31933\include\xtree
;	COMDAT ??$_Eqrange@K@?$_Tree@V?$_Tmap_traits@KUSPartyMemberInfo@CPythonPlayer@@U?$less@K@std@@V?$allocator@U?$pair@$$CBKUSPartyMemberInfo@CPythonPlayer@@@std@@@4@$0A@@std@@@std@@IBE?AU?$pair@PAU?$_Tree_node@U?$pair@$$CBKUSPartyMemberInfo@CPythonPlayer@@@std@@PAX@std@@PAU12@@1@ABK@Z
_TEXT	SEGMENT
___$ReturnUdt$ = 8					; size = 4
__Keyval$ = 12						; size = 4
??$_Eqrange@K@?$_Tree@V?$_Tmap_traits@KUSPartyMemberInfo@CPythonPlayer@@U?$less@K@std@@V?$allocator@U?$pair@$$CBKUSPartyMemberInfo@CPythonPlayer@@@std@@@4@$0A@@std@@@std@@IBE?AU?$pair@PAU?$_Tree_node@U?$pair@$$CBKUSPartyMemberInfo@CPythonPlayer@@@std@@PAX@std@@PAU12@@1@ABK@Z PROC ; std::_Tree<std::_Tmap_traits<unsigned long,CPythonPlayer::SPartyMemberInfo,std::less<unsigned long>,std::allocator<std::pair<unsigned long const ,CPythonPlayer::SPartyMemberInfo> >,0> >::_Eqrange<unsigned long>, COMDAT
; _this$ = ecx

; 1690 :         noexcept(_Nothrow_compare<key_compare, key_type, _Other>&& _Nothrow_compare<key_compare, _Other, key_type>) {

  00000	55		 push	 ebp
  00001	8b ec		 mov	 ebp, esp
  00003	53		 push	 ebx

; 1691 :         // find range of nodes equivalent to _Keyval
; 1692 :         const auto _Scary = _Get_scary();
; 1693 :         const auto& _Comp = _Getcomp();
; 1694 :         _Nodeptr _Pnode   = _Scary->_Myhead->_Parent;

  00004	8b 19		 mov	 ebx, DWORD PTR [ecx]

; 1695 :         _Nodeptr _Lonode  = _Scary->_Myhead; // end() if search fails
; 1696 :         _Nodeptr _Hinode  = _Scary->_Myhead; // end() if search fails

  00006	8b d3		 mov	 edx, ebx
  00008	8b 43 04	 mov	 eax, DWORD PTR [ebx+4]
  0000b	8b c8		 mov	 ecx, eax

; 1697 : 
; 1698 :         while (!_Pnode->_Isnil) {

  0000d	80 79 0d 00	 cmp	 BYTE PTR [ecx+13], 0
  00011	75 30		 jne	 SHORT $LN3@Eqrange
; File C:\Program Files\Microsoft Visual Studio\2022\Community\VC\Tools\MSVC\14.34.31933\include\xstddef

; 143  :         return _Left < _Right;

  00013	56		 push	 esi
  00014	57		 push	 edi
  00015	8b 7d 0c	 mov	 edi, DWORD PTR __Keyval$[ebp]
  00018	8b 3f		 mov	 edi, DWORD PTR [edi]
  0001a	66 0f 1f 44 00
	00		 npad	 6
$LL2@Eqrange:
  00020	8b 71 10	 mov	 esi, DWORD PTR [ecx+16]
  00023	3b f7		 cmp	 esi, edi
; File C:\Program Files\Microsoft Visual Studio\2022\Community\VC\Tools\MSVC\14.34.31933\include\xtree

; 1700 :             if (_DEBUG_LT_PRED(_Comp, _Nodekey, _Keyval)) {

  00025	73 05		 jae	 SHORT $LN6@Eqrange

; 1701 :                 _Pnode = _Pnode->_Right; // descend right subtree

  00027	8b 49 08	 mov	 ecx, DWORD PTR [ecx+8]

; 1702 :             } else { // _Pnode not less than _Keyval, remember it

  0002a	eb 0f		 jmp	 SHORT $LN7@Eqrange
$LN6@Eqrange:

; 1703 :                 if (_Hinode->_Isnil && _DEBUG_LT_PRED(_Comp, _Keyval, _Nodekey)) {

  0002c	80 7a 0d 00	 cmp	 BYTE PTR [edx+13], 0
  00030	74 05		 je	 SHORT $LN8@Eqrange
; File C:\Program Files\Microsoft Visual Studio\2022\Community\VC\Tools\MSVC\14.34.31933\include\xstddef

; 143  :         return _Left < _Right;

  00032	3b fe		 cmp	 edi, esi
; File C:\Program Files\Microsoft Visual Studio\2022\Community\VC\Tools\MSVC\14.34.31933\include\xtree

; 1703 :                 if (_Hinode->_Isnil && _DEBUG_LT_PRED(_Comp, _Keyval, _Nodekey)) {

  00034	0f 42 d1	 cmovb	 edx, ecx
$LN8@Eqrange:

; 1704 :                     _Hinode = _Pnode; // _Pnode greater, remember it
; 1705 :                 }
; 1706 : 
; 1707 :                 _Lonode = _Pnode;

  00037	8b d9		 mov	 ebx, ecx

; 1708 :                 _Pnode  = _Pnode->_Left; // descend left subtree

  00039	8b 09		 mov	 ecx, DWORD PTR [ecx]
$LN7@Eqrange:

; 1697 : 
; 1698 :         while (!_Pnode->_Isnil) {

  0003b	80 79 0d 00	 cmp	 BYTE PTR [ecx+13], 0
  0003f	74 df		 je	 SHORT $LL2@Eqrange
  00041	5f		 pop	 edi
  00042	5e		 pop	 esi
$LN3@Eqrange:

; 1709 :             }
; 1710 :         }
; 1711 : 
; 1712 :         _Pnode = _Hinode->_Isnil ? _Scary->_Myhead->_Parent : _Hinode->_Left; // continue scan for upper bound

  00043	80 7a 0d 00	 cmp	 BYTE PTR [edx+13], 0
  00047	75 02		 jne	 SHORT $LN13@Eqrange
  00049	8b 02		 mov	 eax, DWORD PTR [edx]
$LN13@Eqrange:

; 1713 :         while (!_Pnode->_Isnil) {

  0004b	80 78 0d 00	 cmp	 BYTE PTR [eax+13], 0
  0004f	75 19		 jne	 SHORT $LN5@Eqrange
; File C:\Program Files\Microsoft Visual Studio\2022\Community\VC\Tools\MSVC\14.34.31933\include\xstddef

; 143  :         return _Left < _Right;

  00051	8b 4d 0c	 mov	 ecx, DWORD PTR __Keyval$[ebp]
  00054	8b 09		 mov	 ecx, DWORD PTR [ecx]
$LL4@Eqrange:
  00056	3b 48 10	 cmp	 ecx, DWORD PTR [eax+16]
; File C:\Program Files\Microsoft Visual Studio\2022\Community\VC\Tools\MSVC\14.34.31933\include\xtree

; 1714 :             if (_DEBUG_LT_PRED(_Getcomp(), _Keyval, _Traits::_Kfn(_Pnode->_Myval))) {

  00059	73 06		 jae	 SHORT $LN9@Eqrange

; 1715 :                 // _Pnode greater than _Keyval, remember it
; 1716 :                 _Hinode = _Pnode;

  0005b	8b d0		 mov	 edx, eax

; 1717 :                 _Pnode  = _Pnode->_Left; // descend left subtree

  0005d	8b 00		 mov	 eax, DWORD PTR [eax]

; 1718 :             } else {

  0005f	eb 03		 jmp	 SHORT $LN10@Eqrange
$LN9@Eqrange:

; 1719 :                 _Pnode = _Pnode->_Right; // descend right subtree

  00061	8b 40 08	 mov	 eax, DWORD PTR [eax+8]
$LN10@Eqrange:

; 1713 :         while (!_Pnode->_Isnil) {

  00064	80 78 0d 00	 cmp	 BYTE PTR [eax+13], 0
  00068	74 ec		 je	 SHORT $LL4@Eqrange
$LN5@Eqrange:
; File C:\Program Files\Microsoft Visual Studio\2022\Community\VC\Tools\MSVC\14.34.31933\include\utility

; 172  :         : first(_STD forward<_Other1>(_Val1)), second(_STD forward<_Other2>(_Val2)) {

  0006a	8b 45 08	 mov	 eax, DWORD PTR ___$ReturnUdt$[ebp]
  0006d	89 18		 mov	 DWORD PTR [eax], ebx
  0006f	89 50 04	 mov	 DWORD PTR [eax+4], edx
; File C:\Program Files\Microsoft Visual Studio\2022\Community\VC\Tools\MSVC\14.34.31933\include\xtree

; 1723 :         return {_Lonode, _Hinode};

  00072	5b		 pop	 ebx

; 1724 :     }

  00073	5d		 pop	 ebp
  00074	c2 08 00	 ret	 8
??$_Eqrange@K@?$_Tree@V?$_Tmap_traits@KUSPartyMemberInfo@CPythonPlayer@@U?$less@K@std@@V?$allocator@U?$pair@$$CBKUSPartyMemberInfo@CPythonPlayer@@@std@@@4@$0A@@std@@@std@@IBE?AU?$pair@PAU?$_Tree_node@U?$pair@$$CBKUSPartyMemberInfo@CPythonPlayer@@@std@@PAX@std@@PAU12@@1@ABK@Z ENDP ; std::_Tree<std::_Tmap_traits<unsigned long,CPythonPlayer::SPartyMemberInfo,std::less<unsigned long>,std::allocator<std::pair<unsigned long const ,CPythonPlayer::SPartyMemberInfo> >,0> >::_Eqrange<unsigned long>
_TEXT	ENDS
; Function compile flags: /Ogtp
; File C:\Program Files\Microsoft Visual Studio\2022\Community\VC\Tools\MSVC\14.34.31933\include\utility
;	COMDAT ??$make_pair@HH@std@@YA?AU?$pair@HH@0@$$QAH0@Z
_TEXT	SEGMENT
__Val2$ = 8						; size = 4
??$make_pair@HH@std@@YA?AU?$pair@HH@0@$$QAH0@Z PROC	; std::make_pair<int,int>, COMDAT
; ___$ReturnUdt$ = ecx
; __Val1$ = edx

; 443  :         is_nothrow_constructible_v<_Unrefwrap_t<_Ty2>, _Ty2>) /* strengthened */ {

  00000	55		 push	 ebp
  00001	8b ec		 mov	 ebp, esp

; 172  :         : first(_STD forward<_Other1>(_Val1)), second(_STD forward<_Other2>(_Val2)) {

  00003	8b 02		 mov	 eax, DWORD PTR [edx]
  00005	89 01		 mov	 DWORD PTR [ecx], eax
  00007	8b 45 08	 mov	 eax, DWORD PTR __Val2$[ebp]
  0000a	8b 00		 mov	 eax, DWORD PTR [eax]
  0000c	89 41 04	 mov	 DWORD PTR [ecx+4], eax

; 444  :     // return pair composed from arguments
; 445  :     using _Mypair = pair<_Unrefwrap_t<_Ty1>, _Unrefwrap_t<_Ty2>>;
; 446  :     return _Mypair(_STD forward<_Ty1>(_Val1), _STD forward<_Ty2>(_Val2));

  0000f	8b c1		 mov	 eax, ecx

; 447  : }

  00011	5d		 pop	 ebp
  00012	c3		 ret	 0
??$make_pair@HH@std@@YA?AU?$pair@HH@0@$$QAH0@Z ENDP	; std::make_pair<int,int>
_TEXT	ENDS
; Function compile flags: /Ogtp
; File C:\Program Files\Microsoft Visual Studio\2022\Community\VC\Tools\MSVC\14.34.31933\include\xtree
; File C:\Program Files\Microsoft Visual Studio\2022\Community\VC\Tools\MSVC\14.34.31933\include\xstddef
; File C:\Program Files\Microsoft Visual Studio\2022\Community\VC\Tools\MSVC\14.34.31933\include\xtree
;	COMDAT ??$_Find@K@?$_Tree@V?$_Tmap_traits@KUSPartyMemberInfo@CPythonPlayer@@U?$less@K@std@@V?$allocator@U?$pair@$$CBKUSPartyMemberInfo@CPythonPlayer@@@std@@@4@$0A@@std@@@std@@ABEPAU?$_Tree_node@U?$pair@$$CBKUSPartyMemberInfo@CPythonPlayer@@@std@@PAX@1@ABK@Z
_TEXT	SEGMENT
__Loc$ = -12						; size = 12
__Keyval$ = 8						; size = 4
??$_Find@K@?$_Tree@V?$_Tmap_traits@KUSPartyMemberInfo@CPythonPlayer@@U?$less@K@std@@V?$allocator@U?$pair@$$CBKUSPartyMemberInfo@CPythonPlayer@@@std@@@4@$0A@@std@@@std@@ABEPAU?$_Tree_node@U?$pair@$$CBKUSPartyMemberInfo@CPythonPlayer@@@std@@PAX@1@ABK@Z PROC ; std::_Tree<std::_Tmap_traits<unsigned long,CPythonPlayer::SPartyMemberInfo,std::less<unsigned long>,std::allocator<std::pair<unsigned long const ,CPythonPlayer::SPartyMemberInfo> >,0> >::_Find<unsigned long>, COMDAT
; _this$ = ecx

; 1366 :     _NODISCARD _Nodeptr _Find(const _Other& _Keyval) const {

  00000	55		 push	 ebp
  00001	8b ec		 mov	 ebp, esp
  00003	83 ec 0c	 sub	 esp, 12			; 0000000cH
  00006	56		 push	 esi
  00007	57		 push	 edi

; 1367 :         const _Tree_find_result<_Nodeptr> _Loc = _Find_lower_bound(_Keyval);

  00008	8b 7d 08	 mov	 edi, DWORD PTR __Keyval$[ebp]
  0000b	8d 45 f4	 lea	 eax, DWORD PTR __Loc$[ebp]
  0000e	57		 push	 edi
  0000f	50		 push	 eax
  00010	8b f1		 mov	 esi, ecx
  00012	e8 00 00 00 00	 call	 ??$_Find_lower_bound@K@?$_Tree@V?$_Tmap_traits@KUSPartyMemberInfo@CPythonPlayer@@U?$less@K@std@@V?$allocator@U?$pair@$$CBKUSPartyMemberInfo@CPythonPlayer@@@std@@@4@$0A@@std@@@std@@IBE?AU?$_Tree_find_result@PAU?$_Tree_node@U?$pair@$$CBKUSPartyMemberInfo@CPythonPlayer@@@std@@PAX@std@@@1@ABK@Z ; std::_Tree<std::_Tmap_traits<unsigned long,CPythonPlayer::SPartyMemberInfo,std::less<unsigned long>,std::allocator<std::pair<unsigned long const ,CPythonPlayer::SPartyMemberInfo> >,0> >::_Find_lower_bound<unsigned long>

; 1605 :         return !_Bound->_Isnil && !_DEBUG_LT_PRED(_Getcomp(), _Keyval, _Traits::_Kfn(_Bound->_Myval));

  00017	8b 45 fc	 mov	 eax, DWORD PTR __Loc$[ebp+8]
  0001a	80 78 0d 00	 cmp	 BYTE PTR [eax+13], 0
  0001e	75 07		 jne	 SHORT $LN2@Find
; File C:\Program Files\Microsoft Visual Studio\2022\Community\VC\Tools\MSVC\14.34.31933\include\xstddef

; 143  :         return _Left < _Right;

  00020	8b 0f		 mov	 ecx, DWORD PTR [edi]
  00022	3b 48 10	 cmp	 ecx, DWORD PTR [eax+16]
; File C:\Program Files\Microsoft Visual Studio\2022\Community\VC\Tools\MSVC\14.34.31933\include\xtree

; 1605 :         return !_Bound->_Isnil && !_DEBUG_LT_PRED(_Getcomp(), _Keyval, _Traits::_Kfn(_Bound->_Myval));

  00025	73 02		 jae	 SHORT $LN1@Find
$LN2@Find:

; 1368 :         if (_Lower_bound_duplicate(_Loc._Bound, _Keyval)) {
; 1369 :             return _Loc._Bound;
; 1370 :         }
; 1371 : 
; 1372 :         return _Get_scary()->_Myhead;

  00027	8b 06		 mov	 eax, DWORD PTR [esi]
$LN1@Find:
  00029	5f		 pop	 edi

; 1373 :     }

  0002a	5e		 pop	 esi
  0002b	8b e5		 mov	 esp, ebp
  0002d	5d		 pop	 ebp
  0002e	c2 04 00	 ret	 4
??$_Find@K@?$_Tree@V?$_Tmap_traits@KUSPartyMemberInfo@CPythonPlayer@@U?$less@K@std@@V?$allocator@U?$pair@$$CBKUSPartyMemberInfo@CPythonPlayer@@@std@@@4@$0A@@std@@@std@@ABEPAU?$_Tree_node@U?$pair@$$CBKUSPartyMemberInfo@CPythonPlayer@@@std@@PAX@1@ABK@Z ENDP ; std::_Tree<std::_Tmap_traits<unsigned long,CPythonPlayer::SPartyMemberInfo,std::less<unsigned long>,std::allocator<std::pair<unsigned long const ,CPythonPlayer::SPartyMemberInfo> >,0> >::_Find<unsigned long>
_TEXT	ENDS
; Function compile flags: /Ogtp
; File C:\Program Files\Microsoft Visual Studio\2022\Community\VC\Tools\MSVC\14.34.31933\include\xtree
; File C:\Program Files\Microsoft Visual Studio\2022\Community\VC\Tools\MSVC\14.34.31933\include\utility
; File C:\Program Files\Microsoft Visual Studio\2022\Community\VC\Tools\MSVC\14.34.31933\include\xstring
; File C:\Program Files\Microsoft Visual Studio\2022\Community\VC\Tools\MSVC\14.34.31933\include\xmemory
; File C:\Program Files\Microsoft Visual Studio\2022\Community\VC\Tools\MSVC\14.34.31933\include\xstring
; File C:\Program Files\Microsoft Visual Studio\2022\Community\VC\Tools\MSVC\14.34.31933\include\xmemory
; File C:\Program Files\Microsoft Visual Studio\2022\Community\VC\Tools\MSVC\14.34.31933\include\xstring
; File C:\Program Files\Microsoft Visual Studio\2022\Community\VC\Tools\MSVC\14.34.31933\include\xmemory
; File C:\Program Files\Microsoft Visual Studio\2022\Community\VC\Tools\MSVC\14.34.31933\include\xtree
; File C:\Program Files\Microsoft Visual Studio\2022\Community\VC\Tools\MSVC\14.34.31933\include\xmemory
; File C:\Program Files\Microsoft Visual Studio\2022\Community\VC\Tools\MSVC\14.34.31933\include\xtree
;	COMDAT ??$_Erase_tree@V?$allocator@U?$_Tree_node@U?$pair@$$CBKUSPartyMemberInfo@CPythonPlayer@@@std@@PAX@std@@@std@@@?$_Tree_val@U?$_Tree_simple_types@U?$pair@$$CBKUSPartyMemberInfo@CPythonPlayer@@@std@@@std@@@std@@QAEXAAV?$allocator@U?$_Tree_node@U?$pair@$$CBKUSPartyMemberInfo@CPythonPlayer@@@std@@PAX@std@@@1@PAU?$_Tree_node@U?$pair@$$CBKUSPartyMemberInfo@CPythonPlayer@@@std@@PAX@1@@Z
_TEXT	SEGMENT
_this$1$ = -4						; size = 4
__Al$ = 8						; size = 4
__Rootnode$ = 12					; size = 4
??$_Erase_tree@V?$allocator@U?$_Tree_node@U?$pair@$$CBKUSPartyMemberInfo@CPythonPlayer@@@std@@PAX@std@@@std@@@?$_Tree_val@U?$_Tree_simple_types@U?$pair@$$CBKUSPartyMemberInfo@CPythonPlayer@@@std@@@std@@@std@@QAEXAAV?$allocator@U?$_Tree_node@U?$pair@$$CBKUSPartyMemberInfo@CPythonPlayer@@@std@@PAX@std@@@1@PAU?$_Tree_node@U?$pair@$$CBKUSPartyMemberInfo@CPythonPlayer@@@std@@PAX@1@@Z PROC ; std::_Tree_val<std::_Tree_simple_types<std::pair<unsigned long const ,CPythonPlayer::SPartyMemberInfo> > >::_Erase_tree<std::allocator<std::_Tree_node<std::pair<unsigned long const ,CPythonPlayer::SPartyMemberInfo>,void *> > >, COMDAT
; _this$ = ecx

; 744  :     void _Erase_tree(_Alnode& _Al, _Nodeptr _Rootnode) noexcept {

  00000	55		 push	 ebp
  00001	8b ec		 mov	 ebp, esp
  00003	51		 push	 ecx
  00004	57		 push	 edi

; 745  :         while (!_Rootnode->_Isnil) { // free subtrees, then node

  00005	8b 7d 0c	 mov	 edi, DWORD PTR __Rootnode$[ebp]
  00008	8b c1		 mov	 eax, ecx
  0000a	89 45 fc	 mov	 DWORD PTR _this$1$[ebp], eax
  0000d	80 7f 0d 00	 cmp	 BYTE PTR [edi+13], 0
  00011	75 6e		 jne	 SHORT $LN104@Erase_tree
  00013	53		 push	 ebx
  00014	8b 5d 08	 mov	 ebx, DWORD PTR __Al$[ebp]
  00017	56		 push	 esi
$LL2@Erase_tree:

; 746  :             _Erase_tree(_Al, _Rootnode->_Right);

  00018	ff 77 08	 push	 DWORD PTR [edi+8]
  0001b	8b c8		 mov	 ecx, eax
  0001d	53		 push	 ebx
  0001e	e8 00 00 00 00	 call	 ??$_Erase_tree@V?$allocator@U?$_Tree_node@U?$pair@$$CBKUSPartyMemberInfo@CPythonPlayer@@@std@@PAX@std@@@std@@@?$_Tree_val@U?$_Tree_simple_types@U?$pair@$$CBKUSPartyMemberInfo@CPythonPlayer@@@std@@@std@@@std@@QAEXAAV?$allocator@U?$_Tree_node@U?$pair@$$CBKUSPartyMemberInfo@CPythonPlayer@@@std@@PAX@std@@@1@PAU?$_Tree_node@U?$pair@$$CBKUSPartyMemberInfo@CPythonPlayer@@@std@@PAX@1@@Z ; std::_Tree_val<std::_Tree_simple_types<std::pair<unsigned long const ,CPythonPlayer::SPartyMemberInfo> > >::_Erase_tree<std::allocator<std::_Tree_node<std::pair<unsigned long const ,CPythonPlayer::SPartyMemberInfo>,void *> > >
; File C:\Program Files\Microsoft Visual Studio\2022\Community\VC\Tools\MSVC\14.34.31933\include\utility

; 653  :     _Ty _Old_val = static_cast<_Ty&&>(_Val);

  00023	8b f7		 mov	 esi, edi

; 654  :     _Val         = static_cast<_Other&&>(_New_val);

  00025	8b 3f		 mov	 edi, DWORD PTR [edi]
; File C:\Program Files\Microsoft Visual Studio\2022\Community\VC\Tools\MSVC\14.34.31933\include\xstring

; 2301 :         return _BUF_SIZE <= _Myres;

  00027	8b 4e 30	 mov	 ecx, DWORD PTR [esi+48]
  0002a	83 f9 10	 cmp	 ecx, 16			; 00000010H

; 5008 :         if (_My_data._Large_string_engaged()) {

  0002d	72 28		 jb	 SHORT $LN34@Erase_tree
; File C:\Program Files\Microsoft Visual Studio\2022\Community\VC\Tools\MSVC\14.34.31933\include\xmemory

; 830  :         _Deallocate<_New_alignof<_Ty>>(_Ptr, sizeof(_Ty) * _Count);

  0002f	8b 46 1c	 mov	 eax, DWORD PTR [esi+28]
; File C:\Program Files\Microsoft Visual Studio\2022\Community\VC\Tools\MSVC\14.34.31933\include\xstring

; 5013 :             _Al.deallocate(_Ptr, _My_data._Myres + 1);

  00032	41		 inc	 ecx
; File C:\Program Files\Microsoft Visual Studio\2022\Community\VC\Tools\MSVC\14.34.31933\include\xmemory

; 251  :         if (_Bytes >= _Big_allocation_threshold) { // boost the alignment of big allocations to help autovectorization

  00033	81 f9 00 10 00
	00		 cmp	 ecx, 4096		; 00001000H
  00039	72 12		 jb	 SHORT $LN46@Erase_tree

; 150  :     const uintptr_t _Ptr_container   = _Ptr_user[-1];

  0003b	8b 50 fc	 mov	 edx, DWORD PTR [eax-4]
  0003e	83 c1 23	 add	 ecx, 35			; 00000023H

; 151  : 
; 152  :     // If the following asserts, it likely means that we are performing
; 153  :     // an aligned delete on memory coming from an unaligned allocation.
; 154  :     _STL_ASSERT(_Ptr_user[-2] == _Big_allocation_sentinel, "invalid argument");
; 155  : 
; 156  :     // Extra paranoia on aligned allocation/deallocation; ensure _Ptr_container is
; 157  :     // in range [_Min_back_shift, _Non_user_size]
; 158  : #ifdef _DEBUG
; 159  :     constexpr uintptr_t _Min_back_shift = 2 * sizeof(void*);
; 160  : #else // ^^^ _DEBUG ^^^ // vvv !_DEBUG vvv
; 161  :     constexpr uintptr_t _Min_back_shift = sizeof(void*);
; 162  : #endif // _DEBUG
; 163  :     const uintptr_t _Back_shift = reinterpret_cast<uintptr_t>(_Ptr) - _Ptr_container;

  00041	2b c2		 sub	 eax, edx

; 164  :     _STL_VERIFY(_Back_shift >= _Min_back_shift && _Back_shift <= _Non_user_size, "invalid argument");

  00043	83 c0 fc	 add	 eax, -4			; fffffffcH
  00046	83 f8 1f	 cmp	 eax, 31			; 0000001fH
  00049	77 3d		 ja	 SHORT $LN43@Erase_tree

; 165  :     _Ptr = reinterpret_cast<void*>(_Ptr_container);

  0004b	8b c2		 mov	 eax, edx
$LN46@Erase_tree:

; 255  :         ::operator delete(_Ptr, _Bytes);

  0004d	51		 push	 ecx
  0004e	50		 push	 eax
  0004f	e8 00 00 00 00	 call	 ??3@YAXPAXI@Z		; operator delete
  00054	83 c4 08	 add	 esp, 8
$LN34@Erase_tree:
  00057	6a 44		 push	 68			; 00000044H
  00059	56		 push	 esi
; File C:\Program Files\Microsoft Visual Studio\2022\Community\VC\Tools\MSVC\14.34.31933\include\xstring

; 5016 :         _My_data._Mysize = 0;

  0005a	c7 46 2c 00 00
	00 00		 mov	 DWORD PTR [esi+44], 0

; 5017 :         _My_data._Myres  = _BUF_SIZE - 1;

  00061	c7 46 30 0f 00
	00 00		 mov	 DWORD PTR [esi+48], 15	; 0000000fH

; 5018 :         // the _Traits::assign is last so the codegen doesn't think the char write can alias this
; 5019 :         _Traits::assign(_My_data._Bx._Buf[0], _Elem());

  00068	c6 46 1c 00	 mov	 BYTE PTR [esi+28], 0
; File C:\Program Files\Microsoft Visual Studio\2022\Community\VC\Tools\MSVC\14.34.31933\include\xmemory

; 255  :         ::operator delete(_Ptr, _Bytes);

  0006c	e8 00 00 00 00	 call	 ??3@YAXPAXI@Z		; operator delete
  00071	83 c4 08	 add	 esp, 8
; File C:\Program Files\Microsoft Visual Studio\2022\Community\VC\Tools\MSVC\14.34.31933\include\xtree

; 745  :         while (!_Rootnode->_Isnil) { // free subtrees, then node

  00074	80 7f 0d 00	 cmp	 BYTE PTR [edi+13], 0
  00078	75 05		 jne	 SHORT $LN106@Erase_tree
  0007a	8b 45 fc	 mov	 eax, DWORD PTR _this$1$[ebp]
  0007d	eb 99		 jmp	 SHORT $LL2@Erase_tree
$LN106@Erase_tree:
  0007f	5e		 pop	 esi
  00080	5b		 pop	 ebx
$LN104@Erase_tree:
  00081	5f		 pop	 edi

; 749  :     }

  00082	8b e5		 mov	 esp, ebp
  00084	5d		 pop	 ebp
  00085	c2 08 00	 ret	 8
$LN43@Erase_tree:
; File C:\Program Files\Microsoft Visual Studio\2022\Community\VC\Tools\MSVC\14.34.31933\include\xmemory

; 164  :     _STL_VERIFY(_Back_shift >= _Min_back_shift && _Back_shift <= _Non_user_size, "invalid argument");

  00088	e8 00 00 00 00	 call	 __invalid_parameter_noinfo_noreturn
$LN107@Erase_tree:
  0008d	cc		 int	 3
??$_Erase_tree@V?$allocator@U?$_Tree_node@U?$pair@$$CBKUSPartyMemberInfo@CPythonPlayer@@@std@@PAX@std@@@std@@@?$_Tree_val@U?$_Tree_simple_types@U?$pair@$$CBKUSPartyMemberInfo@CPythonPlayer@@@std@@@std@@@std@@QAEXAAV?$allocator@U?$_Tree_node@U?$pair@$$CBKUSPartyMemberInfo@CPythonPlayer@@@std@@PAX@std@@@1@PAU?$_Tree_node@U?$pair@$$CBKUSPartyMemberInfo@CPythonPlayer@@@std@@PAX@1@@Z ENDP ; std::_Tree_val<std::_Tree_simple_types<std::pair<unsigned long const ,CPythonPlayer::SPartyMemberInfo> > >::_Erase_tree<std::allocator<std::_Tree_node<std::pair<unsigned long const ,CPythonPlayer::SPartyMemberInfo>,void *> > >
_TEXT	ENDS
; Function compile flags: /Ogtp
; File C:\Program Files\Microsoft Visual Studio\2022\Community\VC\Tools\MSVC\14.34.31933\include\xtree
; File C:\Program Files\Microsoft Visual Studio\2022\Community\VC\Tools\MSVC\14.34.31933\include\xmemory
; File C:\Program Files\Microsoft Visual Studio\2022\Community\VC\Tools\MSVC\14.34.31933\include\xtree
;	COMDAT ??$_Erase_head@V?$allocator@U?$_Tree_node@U?$pair@$$CBKUSPartyMemberInfo@CPythonPlayer@@@std@@PAX@std@@@std@@@?$_Tree_val@U?$_Tree_simple_types@U?$pair@$$CBKUSPartyMemberInfo@CPythonPlayer@@@std@@@std@@@std@@QAEXAAV?$allocator@U?$_Tree_node@U?$pair@$$CBKUSPartyMemberInfo@CPythonPlayer@@@std@@PAX@std@@@1@@Z
_TEXT	SEGMENT
__Al$ = 8						; size = 4
??$_Erase_head@V?$allocator@U?$_Tree_node@U?$pair@$$CBKUSPartyMemberInfo@CPythonPlayer@@@std@@PAX@std@@@std@@@?$_Tree_val@U?$_Tree_simple_types@U?$pair@$$CBKUSPartyMemberInfo@CPythonPlayer@@@std@@@std@@@std@@QAEXAAV?$allocator@U?$_Tree_node@U?$pair@$$CBKUSPartyMemberInfo@CPythonPlayer@@@std@@PAX@std@@@1@@Z PROC ; std::_Tree_val<std::_Tree_simple_types<std::pair<unsigned long const ,CPythonPlayer::SPartyMemberInfo> > >::_Erase_head<std::allocator<std::_Tree_node<std::pair<unsigned long const ,CPythonPlayer::SPartyMemberInfo>,void *> > >, COMDAT
; _this$ = ecx

; 752  :     void _Erase_head(_Alnode& _Al) noexcept {

  00000	55		 push	 ebp
  00001	8b ec		 mov	 ebp, esp
  00003	56		 push	 esi
  00004	8b f1		 mov	 esi, ecx

; 753  :         this->_Orphan_all();
; 754  :         _Erase_tree(_Al, _Myhead->_Parent);

  00006	8b 06		 mov	 eax, DWORD PTR [esi]
  00008	ff 70 04	 push	 DWORD PTR [eax+4]
  0000b	ff 75 08	 push	 DWORD PTR __Al$[ebp]
  0000e	e8 00 00 00 00	 call	 ??$_Erase_tree@V?$allocator@U?$_Tree_node@U?$pair@$$CBKUSPartyMemberInfo@CPythonPlayer@@@std@@PAX@std@@@std@@@?$_Tree_val@U?$_Tree_simple_types@U?$pair@$$CBKUSPartyMemberInfo@CPythonPlayer@@@std@@@std@@@std@@QAEXAAV?$allocator@U?$_Tree_node@U?$pair@$$CBKUSPartyMemberInfo@CPythonPlayer@@@std@@PAX@std@@@1@PAU?$_Tree_node@U?$pair@$$CBKUSPartyMemberInfo@CPythonPlayer@@@std@@PAX@1@@Z ; std::_Tree_val<std::_Tree_simple_types<std::pair<unsigned long const ,CPythonPlayer::SPartyMemberInfo> > >::_Erase_tree<std::allocator<std::_Tree_node<std::pair<unsigned long const ,CPythonPlayer::SPartyMemberInfo>,void *> > >
; File C:\Program Files\Microsoft Visual Studio\2022\Community\VC\Tools\MSVC\14.34.31933\include\xmemory

; 255  :         ::operator delete(_Ptr, _Bytes);

  00013	6a 44		 push	 68			; 00000044H
  00015	ff 36		 push	 DWORD PTR [esi]
  00017	e8 00 00 00 00	 call	 ??3@YAXPAXI@Z		; operator delete
  0001c	83 c4 08	 add	 esp, 8
  0001f	5e		 pop	 esi
; File C:\Program Files\Microsoft Visual Studio\2022\Community\VC\Tools\MSVC\14.34.31933\include\xtree

; 756  :     }

  00020	5d		 pop	 ebp
  00021	c2 04 00	 ret	 4
??$_Erase_head@V?$allocator@U?$_Tree_node@U?$pair@$$CBKUSPartyMemberInfo@CPythonPlayer@@@std@@PAX@std@@@std@@@?$_Tree_val@U?$_Tree_simple_types@U?$pair@$$CBKUSPartyMemberInfo@CPythonPlayer@@@std@@@std@@@std@@QAEXAAV?$allocator@U?$_Tree_node@U?$pair@$$CBKUSPartyMemberInfo@CPythonPlayer@@@std@@PAX@std@@@1@@Z ENDP ; std::_Tree_val<std::_Tree_simple_types<std::pair<unsigned long const ,CPythonPlayer::SPartyMemberInfo> > >::_Erase_head<std::allocator<std::_Tree_node<std::pair<unsigned long const ,CPythonPlayer::SPartyMemberInfo>,void *> > >
_TEXT	ENDS
; Function compile flags: /Ogtp
; File C:\Program Files\Microsoft Visual Studio\2022\Community\VC\Tools\MSVC\14.34.31933\include\map
; File C:\Program Files\Microsoft Visual Studio\2022\Community\VC\Tools\MSVC\14.34.31933\include\xtree
; File C:\Program Files\Microsoft Visual Studio\2022\Community\VC\Tools\MSVC\14.34.31933\include\utility
; File C:\Program Files\Microsoft Visual Studio\2022\Community\VC\Tools\MSVC\14.34.31933\include\map
; File C:\Program Files\Microsoft Visual Studio\2022\Community\VC\Tools\MSVC\14.34.31933\include\xtree
; File C:\Program Files\Microsoft Visual Studio\2022\Community\VC\Tools\MSVC\14.34.31933\include\map
; File C:\Program Files\Microsoft Visual Studio\2022\Community\VC\Tools\MSVC\14.34.31933\include\xmemory
; File C:\Program Files\Microsoft Visual Studio\2022\Community\VC\Tools\MSVC\14.34.31933\include\xtree
; File C:\Program Files\Microsoft Visual Studio\2022\Community\VC\Tools\MSVC\14.34.31933\include\xmemory
; File C:\Program Files\Microsoft Visual Studio\2022\Community\VC\Tools\MSVC\14.34.31933\include\xtree
; File C:\Program Files\Microsoft Visual Studio\2022\Community\VC\Tools\MSVC\14.34.31933\include\xmemory
; File C:\Program Files\Microsoft Visual Studio\2022\Community\VC\Tools\MSVC\14.34.31933\include\xtree
; File C:\Program Files\Microsoft Visual Studio\2022\Community\VC\Tools\MSVC\14.34.31933\include\map
; File C:\Program Files\Microsoft Visual Studio\2022\Community\VC\Tools\MSVC\14.34.31933\include\xtree
; File C:\Program Files\Microsoft Visual Studio\2022\Community\VC\Tools\MSVC\14.34.31933\include\map
; File C:\Program Files\Microsoft Visual Studio\2022\Community\VC\Tools\MSVC\14.34.31933\include\xtree
; File C:\Program Files\Microsoft Visual Studio\2022\Community\VC\Tools\MSVC\14.34.31933\include\map
; File C:\Program Files\Microsoft Visual Studio\2022\Community\VC\Tools\MSVC\14.34.31933\include\xtree
; File C:\Program Files\Microsoft Visual Studio\2022\Community\VC\Tools\MSVC\14.34.31933\include\map
; File C:\Program Files\Microsoft Visual Studio\2022\Community\VC\Tools\MSVC\14.34.31933\include\utility
; File C:\Program Files\Microsoft Visual Studio\2022\Community\VC\Tools\MSVC\14.34.31933\include\map
; File C:\Program Files\Microsoft Visual Studio\2022\Community\VC\Tools\MSVC\14.34.31933\include\utility
; File C:\Program Files\Microsoft Visual Studio\2022\Community\VC\Tools\MSVC\14.34.31933\include\map
; File C:\Program Files\Microsoft Visual Studio\2022\Community\VC\Tools\MSVC\14.34.31933\include\xtree
; File C:\Program Files\Microsoft Visual Studio\2022\Community\VC\Tools\MSVC\14.34.31933\include\map
;	COMDAT ??$_Try_emplace@ABK$$V@?$map@KKU?$less@K@std@@V?$allocator@U?$pair@$$CBKK@std@@@2@@std@@AAE?AU?$pair@PAU?$_Tree_node@U?$pair@$$CBKK@std@@PAX@std@@_N@1@ABK@Z
_TEXT	SEGMENT
__Loc$ = -32						; size = 12
$T2 = -20						; size = 8
__$EHRec$ = -12						; size = 12
___$ReturnUdt$ = 8					; size = 4
__Keyval$ = 12						; size = 4
??$_Try_emplace@ABK$$V@?$map@KKU?$less@K@std@@V?$allocator@U?$pair@$$CBKK@std@@@2@@std@@AAE?AU?$pair@PAU?$_Tree_node@U?$pair@$$CBKK@std@@PAX@std@@_N@1@ABK@Z PROC ; std::map<unsigned long,unsigned long,std::less<unsigned long>,std::allocator<std::pair<unsigned long const ,unsigned long> > >::_Try_emplace<unsigned long const &>, COMDAT
; _this$ = ecx

; 195  :     pair<_Nodeptr, bool> _Try_emplace(_Keyty&& _Keyval, _Mappedty&&... _Mapval) {

  00000	55		 push	 ebp
  00001	8b ec		 mov	 ebp, esp
  00003	6a ff		 push	 -1
  00005	68 00 00 00 00	 push	 __ehhandler$??$_Try_emplace@ABK$$V@?$map@KKU?$less@K@std@@V?$allocator@U?$pair@$$CBKK@std@@@2@@std@@AAE?AU?$pair@PAU?$_Tree_node@U?$pair@$$CBKK@std@@PAX@std@@_N@1@ABK@Z
  0000a	64 a1 00 00 00
	00		 mov	 eax, DWORD PTR fs:0
  00010	50		 push	 eax
  00011	83 ec 14	 sub	 esp, 20			; 00000014H
  00014	53		 push	 ebx
  00015	56		 push	 esi
  00016	57		 push	 edi
  00017	a1 00 00 00 00	 mov	 eax, DWORD PTR ___security_cookie
  0001c	33 c5		 xor	 eax, ebp
  0001e	50		 push	 eax
  0001f	8d 45 f4	 lea	 eax, DWORD PTR __$EHRec$[ebp]
  00022	64 a3 00 00 00
	00		 mov	 DWORD PTR fs:0, eax
  00028	8b f9		 mov	 edi, ecx

; 196  :         const auto _Loc = _Mybase::_Find_lower_bound(_Keyval);

  0002a	8b 5d 0c	 mov	 ebx, DWORD PTR __Keyval$[ebp]
  0002d	8d 45 e0	 lea	 eax, DWORD PTR __Loc$[ebp]
  00030	53		 push	 ebx
  00031	50		 push	 eax
  00032	e8 00 00 00 00	 call	 ??$_Find_lower_bound@K@?$_Tree@V?$_Tmap_traits@KKU?$less@K@std@@V?$allocator@U?$pair@$$CBKK@std@@@2@$0A@@std@@@std@@IBE?AU?$_Tree_find_result@PAU?$_Tree_node@U?$pair@$$CBKK@std@@PAX@std@@@1@ABK@Z ; std::_Tree<std::_Tmap_traits<unsigned long,unsigned long,std::less<unsigned long>,std::allocator<std::pair<unsigned long const ,unsigned long> >,0> >::_Find_lower_bound<unsigned long>
; File C:\Program Files\Microsoft Visual Studio\2022\Community\VC\Tools\MSVC\14.34.31933\include\xtree

; 1605 :         return !_Bound->_Isnil && !_DEBUG_LT_PRED(_Getcomp(), _Keyval, _Traits::_Kfn(_Bound->_Myval));

  00037	8b 55 e8	 mov	 edx, DWORD PTR __Loc$[ebp+8]
  0003a	80 7a 0d 00	 cmp	 BYTE PTR [edx+13], 0
  0003e	75 24		 jne	 SHORT $LN2@Try_emplac
  00040	8b 03		 mov	 eax, DWORD PTR [ebx]
  00042	3b 42 10	 cmp	 eax, DWORD PTR [edx+16]
  00045	72 1d		 jb	 SHORT $LN2@Try_emplac
; File C:\Program Files\Microsoft Visual Studio\2022\Community\VC\Tools\MSVC\14.34.31933\include\utility

; 172  :         : first(_STD forward<_Other1>(_Val1)), second(_STD forward<_Other2>(_Val2)) {

  00047	8b 45 08	 mov	 eax, DWORD PTR ___$ReturnUdt$[ebp]
  0004a	89 10		 mov	 DWORD PTR [eax], edx
  0004c	c6 40 04 00	 mov	 BYTE PTR [eax+4], 0
; File C:\Program Files\Microsoft Visual Studio\2022\Community\VC\Tools\MSVC\14.34.31933\include\map

; 211  :     }

  00050	8b 4d f4	 mov	 ecx, DWORD PTR __$EHRec$[ebp]
  00053	64 89 0d 00 00
	00 00		 mov	 DWORD PTR fs:0, ecx
  0005a	59		 pop	 ecx
  0005b	5f		 pop	 edi
  0005c	5e		 pop	 esi
  0005d	5b		 pop	 ebx
  0005e	8b e5		 mov	 esp, ebp
  00060	5d		 pop	 ebp
  00061	c2 08 00	 ret	 8
$LN2@Try_emplac:
; File C:\Program Files\Microsoft Visual Studio\2022\Community\VC\Tools\MSVC\14.34.31933\include\xtree

; 1629 :         if (max_size() == _Get_scary()->_Mysize) {

  00064	81 7f 04 aa aa
	aa 0a		 cmp	 DWORD PTR [edi+4], 178956970 ; 0aaaaaaaH
  0006b	74 64		 je	 SHORT $LN113@Try_emplac
; File C:\Program Files\Microsoft Visual Studio\2022\Community\VC\Tools\MSVC\14.34.31933\include\map

; 204  :         const auto _Inserted = _Tree_temp_node<_Alnode>(_Mybase::_Getal(), _Scary->_Myhead, piecewise_construct,

  0006d	8b 37		 mov	 esi, DWORD PTR [edi]
; File C:\Program Files\Microsoft Visual Studio\2022\Community\VC\Tools\MSVC\14.34.31933\include\xmemory

; 1005 :     _CONSTEXPR20 explicit _Alloc_construct_ptr(_Alloc& _Al_) : _Al(_Al_), _Ptr(nullptr) {}

  0006f	89 7d ec	 mov	 DWORD PTR $T2[ebp], edi
; File C:\Program Files\Microsoft Visual Studio\2022\Community\VC\Tools\MSVC\14.34.31933\include\xtree

; 785  :     explicit _Tree_temp_node_alloc(_Alnode& _Al_) : _Alloc_construct_ptr<_Alnode>(_Al_) {

  00072	c7 45 fc 00 00
	00 00		 mov	 DWORD PTR __$EHRec$[ebp+8], 0
; File C:\Program Files\Microsoft Visual Studio\2022\Community\VC\Tools\MSVC\14.34.31933\include\xmemory

; 77   :         return ::operator new(_Bytes);

  00079	6a 18		 push	 24			; 00000018H

; 1012 :         _Ptr = nullptr; // if allocate throws, prevents double-free

  0007b	c7 45 f0 00 00
	00 00		 mov	 DWORD PTR $T2[ebp+4], 0

; 77   :         return ::operator new(_Bytes);

  00082	e8 00 00 00 00	 call	 ??2@YAPAXI@Z		; operator new
; File C:\Program Files\Microsoft Visual Studio\2022\Community\VC\Tools\MSVC\14.34.31933\include\xtree

; 808  :         _Construct_in_place(this->_Ptr->_Left, _Myhead);

  00087	8b 0b		 mov	 ecx, DWORD PTR [ebx]
; File C:\Program Files\Microsoft Visual Studio\2022\Community\VC\Tools\MSVC\14.34.31933\include\xmemory

; 77   :         return ::operator new(_Bytes);

  00089	83 c4 04	 add	 esp, 4
; File C:\Program Files\Microsoft Visual Studio\2022\Community\VC\Tools\MSVC\14.34.31933\include\xtree

; 808  :         _Construct_in_place(this->_Ptr->_Left, _Myhead);

  0008c	89 48 10	 mov	 DWORD PTR [eax+16], ecx
; File C:\Program Files\Microsoft Visual Studio\2022\Community\VC\Tools\MSVC\14.34.31933\include\map

; 210  :         return {_Scary->_Insert_node(_Loc._Location, _Inserted), true};

  0008f	8b cf		 mov	 ecx, edi
; File C:\Program Files\Microsoft Visual Studio\2022\Community\VC\Tools\MSVC\14.34.31933\include\xtree

; 808  :         _Construct_in_place(this->_Ptr->_Left, _Myhead);

  00091	c7 40 14 00 00
	00 00		 mov	 DWORD PTR [eax+20], 0
; File C:\Program Files\Microsoft Visual Studio\2022\Community\VC\Tools\MSVC\14.34.31933\include\map

; 210  :         return {_Scary->_Insert_node(_Loc._Location, _Inserted), true};

  00098	50		 push	 eax
  00099	ff 75 e4	 push	 DWORD PTR __Loc$[ebp+4]
; File C:\Program Files\Microsoft Visual Studio\2022\Community\VC\Tools\MSVC\14.34.31933\include\xtree

; 808  :         _Construct_in_place(this->_Ptr->_Left, _Myhead);

  0009c	89 30		 mov	 DWORD PTR [eax], esi
; File C:\Program Files\Microsoft Visual Studio\2022\Community\VC\Tools\MSVC\14.34.31933\include\map

; 210  :         return {_Scary->_Insert_node(_Loc._Location, _Inserted), true};

  0009e	ff 75 e0	 push	 DWORD PTR __Loc$[ebp]
; File C:\Program Files\Microsoft Visual Studio\2022\Community\VC\Tools\MSVC\14.34.31933\include\xtree

; 809  :         _Construct_in_place(this->_Ptr->_Parent, _Myhead);

  000a1	89 70 04	 mov	 DWORD PTR [eax+4], esi

; 810  :         _Construct_in_place(this->_Ptr->_Right, _Myhead);

  000a4	89 70 08	 mov	 DWORD PTR [eax+8], esi

; 811  :         this->_Ptr->_Color = _Red;

  000a7	66 c7 40 0c 00
	00		 mov	 WORD PTR [eax+12], 0
; File C:\Program Files\Microsoft Visual Studio\2022\Community\VC\Tools\MSVC\14.34.31933\include\map

; 210  :         return {_Scary->_Insert_node(_Loc._Location, _Inserted), true};

  000ad	e8 00 00 00 00	 call	 ?_Insert_node@?$_Tree_val@U?$_Tree_simple_types@U?$pair@$$CBKK@std@@@std@@@std@@QAEPAU?$_Tree_node@U?$pair@$$CBKK@std@@PAX@2@U?$_Tree_id@PAU?$_Tree_node@U?$pair@$$CBKK@std@@PAX@std@@@2@QAU32@@Z ; std::_Tree_val<std::_Tree_simple_types<std::pair<unsigned long const ,unsigned long> > >::_Insert_node
; File C:\Program Files\Microsoft Visual Studio\2022\Community\VC\Tools\MSVC\14.34.31933\include\utility

; 172  :         : first(_STD forward<_Other1>(_Val1)), second(_STD forward<_Other2>(_Val2)) {

  000b2	8b 4d 08	 mov	 ecx, DWORD PTR ___$ReturnUdt$[ebp]
  000b5	89 01		 mov	 DWORD PTR [ecx], eax
; File C:\Program Files\Microsoft Visual Studio\2022\Community\VC\Tools\MSVC\14.34.31933\include\map

; 210  :         return {_Scary->_Insert_node(_Loc._Location, _Inserted), true};

  000b7	8b c1		 mov	 eax, ecx
; File C:\Program Files\Microsoft Visual Studio\2022\Community\VC\Tools\MSVC\14.34.31933\include\utility

; 172  :         : first(_STD forward<_Other1>(_Val1)), second(_STD forward<_Other2>(_Val2)) {

  000b9	c6 41 04 01	 mov	 BYTE PTR [ecx+4], 1
; File C:\Program Files\Microsoft Visual Studio\2022\Community\VC\Tools\MSVC\14.34.31933\include\map

; 211  :     }

  000bd	8b 4d f4	 mov	 ecx, DWORD PTR __$EHRec$[ebp]
  000c0	64 89 0d 00 00
	00 00		 mov	 DWORD PTR fs:0, ecx
  000c7	59		 pop	 ecx
  000c8	5f		 pop	 edi
  000c9	5e		 pop	 esi
  000ca	5b		 pop	 ebx
  000cb	8b e5		 mov	 esp, ebp
  000cd	5d		 pop	 ebp
  000ce	c2 08 00	 ret	 8
$LN113@Try_emplac:
; File C:\Program Files\Microsoft Visual Studio\2022\Community\VC\Tools\MSVC\14.34.31933\include\xtree

; 1630 :             _Throw_tree_length_error();

  000d1	e8 00 00 00 00	 call	 ?_Throw_tree_length_error@std@@YAXXZ ; std::_Throw_tree_length_error
$LN111@Try_emplac:
  000d6	cc		 int	 3
_TEXT	ENDS
;	COMDAT text$x
text$x	SEGMENT
__unwindfunclet$??$_Try_emplace@ABK$$V@?$map@KKU?$less@K@std@@V?$allocator@U?$pair@$$CBKK@std@@@2@@std@@AAE?AU?$pair@PAU?$_Tree_node@U?$pair@$$CBKK@std@@PAX@std@@_N@1@ABK@Z$2:
  00000	8d 4d ec	 lea	 ecx, DWORD PTR $T2[ebp]
  00003	e9 00 00 00 00	 jmp	 ??1?$_Alloc_construct_ptr@V?$allocator@U?$_Tree_node@U?$pair@$$CBKK@std@@PAX@std@@@std@@@std@@QAE@XZ ; std::_Alloc_construct_ptr<std::allocator<std::_Tree_node<std::pair<unsigned long const ,unsigned long>,void *> > >::~_Alloc_construct_ptr<std::allocator<std::_Tree_node<std::pair<unsigned long const ,unsigned long>,void *> > >
  00008	cc		 int	 3
  00009	cc		 int	 3
  0000a	cc		 int	 3
  0000b	cc		 int	 3
  0000c	cc		 int	 3
__ehhandler$??$_Try_emplace@ABK$$V@?$map@KKU?$less@K@std@@V?$allocator@U?$pair@$$CBKK@std@@@2@@std@@AAE?AU?$pair@PAU?$_Tree_node@U?$pair@$$CBKK@std@@PAX@std@@_N@1@ABK@Z:
  0000d	90		 npad	 1
  0000e	90		 npad	 1
  0000f	8b 54 24 08	 mov	 edx, DWORD PTR [esp+8]
  00013	8d 42 0c	 lea	 eax, DWORD PTR [edx+12]
  00016	8b 4a dc	 mov	 ecx, DWORD PTR [edx-36]
  00019	33 c8		 xor	 ecx, eax
  0001b	e8 00 00 00 00	 call	 @__security_check_cookie@4
  00020	b8 00 00 00 00	 mov	 eax, OFFSET __ehfuncinfo$??$_Try_emplace@ABK$$V@?$map@KKU?$less@K@std@@V?$allocator@U?$pair@$$CBKK@std@@@2@@std@@AAE?AU?$pair@PAU?$_Tree_node@U?$pair@$$CBKK@std@@PAX@std@@_N@1@ABK@Z
  00025	e9 00 00 00 00	 jmp	 ___CxxFrameHandler3
text$x	ENDS
??$_Try_emplace@ABK$$V@?$map@KKU?$less@K@std@@V?$allocator@U?$pair@$$CBKK@std@@@2@@std@@AAE?AU?$pair@PAU?$_Tree_node@U?$pair@$$CBKK@std@@PAX@std@@_N@1@ABK@Z ENDP ; std::map<unsigned long,unsigned long,std::less<unsigned long>,std::allocator<std::pair<unsigned long const ,unsigned long> > >::_Try_emplace<unsigned long const &>
; Function compile flags: /Ogtp
; File C:\Program Files\Microsoft Visual Studio\2022\Community\VC\Tools\MSVC\14.34.31933\include\xstddef
;	COMDAT ??$addressof@U?$pair@$$CBKUSPartyMemberInfo@CPythonPlayer@@@std@@@std@@YAPAU?$pair@$$CBKUSPartyMemberInfo@CPythonPlayer@@@0@AAU10@@Z
_TEXT	SEGMENT
??$addressof@U?$pair@$$CBKUSPartyMemberInfo@CPythonPlayer@@@std@@@std@@YAPAU?$pair@$$CBKUSPartyMemberInfo@CPythonPlayer@@@0@AAU10@@Z PROC ; std::addressof<std::pair<unsigned long const ,CPythonPlayer::SPartyMemberInfo> >, COMDAT
; __Val$ = ecx

; 281  :     return __builtin_addressof(_Val);

  00000	8b c1		 mov	 eax, ecx

; 282  : }

  00002	c3		 ret	 0
??$addressof@U?$pair@$$CBKUSPartyMemberInfo@CPythonPlayer@@@std@@@std@@YAPAU?$pair@$$CBKUSPartyMemberInfo@CPythonPlayer@@@0@AAU10@@Z ENDP ; std::addressof<std::pair<unsigned long const ,CPythonPlayer::SPartyMemberInfo> >
_TEXT	ENDS
; Function compile flags: /Ogtp
; File C:\Program Files\Microsoft Visual Studio\2022\Community\VC\Tools\MSVC\14.34.31933\include\xstddef
;	COMDAT ??$addressof@V?$_Tree_val@U?$_Tree_simple_types@U?$pair@$$CBKUSPartyMemberInfo@CPythonPlayer@@@std@@@std@@@std@@@std@@YAPAV?$_Tree_val@U?$_Tree_simple_types@U?$pair@$$CBKUSPartyMemberInfo@CPythonPlayer@@@std@@@std@@@0@AAV10@@Z
_TEXT	SEGMENT
??$addressof@V?$_Tree_val@U?$_Tree_simple_types@U?$pair@$$CBKUSPartyMemberInfo@CPythonPlayer@@@std@@@std@@@std@@@std@@YAPAV?$_Tree_val@U?$_Tree_simple_types@U?$pair@$$CBKUSPartyMemberInfo@CPythonPlayer@@@std@@@std@@@0@AAV10@@Z PROC ; std::addressof<std::_Tree_val<std::_Tree_simple_types<std::pair<unsigned long const ,CPythonPlayer::SPartyMemberInfo> > > >, COMDAT
; __Val$ = ecx

; 281  :     return __builtin_addressof(_Val);

  00000	8b c1		 mov	 eax, ecx

; 282  : }

  00002	c3		 ret	 0
??$addressof@V?$_Tree_val@U?$_Tree_simple_types@U?$pair@$$CBKUSPartyMemberInfo@CPythonPlayer@@@std@@@std@@@std@@@std@@YAPAV?$_Tree_val@U?$_Tree_simple_types@U?$pair@$$CBKUSPartyMemberInfo@CPythonPlayer@@@std@@@std@@@0@AAV10@@Z ENDP ; std::addressof<std::_Tree_val<std::_Tree_simple_types<std::pair<unsigned long const ,CPythonPlayer::SPartyMemberInfo> > > >
_TEXT	ENDS
; Function compile flags: /Ogtp
; File C:\Program Files\Microsoft Visual Studio\2022\Community\VC\Tools\MSVC\14.34.31933\include\xutility
; File C:\Program Files\Microsoft Visual Studio\2022\Community\VC\Tools\MSVC\14.34.31933\include\xtree
; File C:\Program Files\Microsoft Visual Studio\2022\Community\VC\Tools\MSVC\14.34.31933\include\xutility
; File C:\Program Files\Microsoft Visual Studio\2022\Community\VC\Tools\MSVC\14.34.31933\include\xtree
; File C:\Program Files\Microsoft Visual Studio\2022\Community\VC\Tools\MSVC\14.34.31933\include\xutility
; File C:\Program Files\Microsoft Visual Studio\2022\Community\VC\Tools\MSVC\14.34.31933\include\xtree
; File C:\Program Files\Microsoft Visual Studio\2022\Community\VC\Tools\MSVC\14.34.31933\include\xutility
; File C:\Program Files\Microsoft Visual Studio\2022\Community\VC\Tools\MSVC\14.34.31933\include\xtree
; File C:\Program Files\Microsoft Visual Studio\2022\Community\VC\Tools\MSVC\14.34.31933\include\xutility
;	COMDAT ??$distance@V?$_Tree_unchecked_const_iterator@V?$_Tree_val@U?$_Tree_simple_types@U?$pair@$$CBKUSPartyMemberInfo@CPythonPlayer@@@std@@@std@@@std@@U_Iterator_base0@2@@std@@@std@@YAHV?$_Tree_unchecked_const_iterator@V?$_Tree_val@U?$_Tree_simple_types@U?$pair@$$CBKUSPartyMemberInfo@CPythonPlayer@@@std@@@std@@@std@@U_Iterator_base0@2@@0@0@Z
_TEXT	SEGMENT
__First$ = 8						; size = 4
__Last$ = 12						; size = 4
??$distance@V?$_Tree_unchecked_const_iterator@V?$_Tree_val@U?$_Tree_simple_types@U?$pair@$$CBKUSPartyMemberInfo@CPythonPlayer@@@std@@@std@@@std@@U_Iterator_base0@2@@std@@@std@@YAHV?$_Tree_unchecked_const_iterator@V?$_Tree_val@U?$_Tree_simple_types@U?$pair@$$CBKUSPartyMemberInfo@CPythonPlayer@@@std@@@std@@@std@@U_Iterator_base0@2@@0@0@Z PROC ; std::distance<std::_Tree_unchecked_const_iterator<std::_Tree_val<std::_Tree_simple_types<std::pair<unsigned long const ,CPythonPlayer::SPartyMemberInfo> > >,std::_Iterator_base0> >, COMDAT

; 1160 : _NODISCARD _CONSTEXPR17 _Iter_diff_t<_InIt> distance(_InIt _First, _InIt _Last) {

  00000	55		 push	 ebp
  00001	8b ec		 mov	 ebp, esp

; 1161 :     if constexpr (_Is_ranges_random_iter_v<_InIt>) {
; 1162 :         return _Last - _First; // assume the iterator will do debug checking
; 1163 :     } else {
; 1164 :         _Adl_verify_range(_First, _Last);
; 1165 :         auto _UFirst             = _Get_unwrapped(_First);

  00003	8b 45 08	 mov	 eax, DWORD PTR __First$[ebp]
; File C:\Program Files\Microsoft Visual Studio\2022\Community\VC\Tools\MSVC\14.34.31933\include\xtree

; 97   :         return _Ptr == _Right._Ptr;

  00006	8b 4d 0c	 mov	 ecx, DWORD PTR __Last$[ebp]
; File C:\Program Files\Microsoft Visual Studio\2022\Community\VC\Tools\MSVC\14.34.31933\include\xutility

; 1160 : _NODISCARD _CONSTEXPR17 _Iter_diff_t<_InIt> distance(_InIt _First, _InIt _Last) {

  00009	57		 push	 edi

; 1166 :         const auto _ULast        = _Get_unwrapped(_Last);
; 1167 :         _Iter_diff_t<_InIt> _Off = 0;

  0000a	33 ff		 xor	 edi, edi
; File C:\Program Files\Microsoft Visual Studio\2022\Community\VC\Tools\MSVC\14.34.31933\include\xtree

; 97   :         return _Ptr == _Right._Ptr;

  0000c	3b c1		 cmp	 eax, ecx
; File C:\Program Files\Microsoft Visual Studio\2022\Community\VC\Tools\MSVC\14.34.31933\include\xutility

; 1168 :         for (; _UFirst != _ULast; ++_UFirst) {

  0000e	74 43		 je	 SHORT $LN30@distance
  00010	56		 push	 esi
$LL12@distance:
; File C:\Program Files\Microsoft Visual Studio\2022\Community\VC\Tools\MSVC\14.34.31933\include\xtree

; 51   :         if (_Ptr->_Right->_Isnil) { // climb looking for right subtree

  00011	8b 50 08	 mov	 edx, DWORD PTR [eax+8]
; File C:\Program Files\Microsoft Visual Studio\2022\Community\VC\Tools\MSVC\14.34.31933\include\xutility

; 1169 :             ++_Off;

  00014	47		 inc	 edi
; File C:\Program Files\Microsoft Visual Studio\2022\Community\VC\Tools\MSVC\14.34.31933\include\xtree

; 51   :         if (_Ptr->_Right->_Isnil) { // climb looking for right subtree

  00015	80 7a 0d 00	 cmp	 BYTE PTR [edx+13], 0
  00019	74 1d		 je	 SHORT $LN11@distance

; 52   :             _Nodeptr _Pnode;
; 53   :             while (!(_Pnode = _Ptr->_Parent)->_Isnil && _Ptr == _Pnode->_Right) {

  0001b	8b 50 04	 mov	 edx, DWORD PTR [eax+4]
  0001e	80 7a 0d 00	 cmp	 BYTE PTR [edx+13], 0
  00022	75 10		 jne	 SHORT $LN31@distance
$LL9@distance:
  00024	3b 42 08	 cmp	 eax, DWORD PTR [edx+8]
  00027	75 0b		 jne	 SHORT $LN31@distance

; 54   :                 _Ptr = _Pnode; // ==> parent while right subtree

  00029	8b c2		 mov	 eax, edx
  0002b	8b 52 04	 mov	 edx, DWORD PTR [edx+4]
  0002e	80 7a 0d 00	 cmp	 BYTE PTR [edx+13], 0
  00032	74 f0		 je	 SHORT $LL9@distance
$LN31@distance:

; 55   :             }
; 56   : 
; 57   :             _Ptr = _Pnode; // ==> parent (head if end())

  00034	8b c2		 mov	 eax, edx

; 58   :         } else {

  00036	eb 16		 jmp	 SHORT $LN16@distance
$LN11@distance:

; 59   :             _Ptr = _Mytree::_Min(_Ptr->_Right); // ==> smallest of right subtree

  00038	8b c2		 mov	 eax, edx

; 453  :         while (!_Pnode->_Left->_Isnil) {

  0003a	8b 30		 mov	 esi, DWORD PTR [eax]
  0003c	80 7e 0d 00	 cmp	 BYTE PTR [esi+13], 0
  00040	75 0c		 jne	 SHORT $LN16@distance
$LL15@distance:
  00042	8b 16		 mov	 edx, DWORD PTR [esi]

; 454  :             _Pnode = _Pnode->_Left;

  00044	8b c6		 mov	 eax, esi
  00046	8b f2		 mov	 esi, edx
  00048	80 7a 0d 00	 cmp	 BYTE PTR [edx+13], 0
  0004c	74 f4		 je	 SHORT $LL15@distance
$LN16@distance:

; 97   :         return _Ptr == _Right._Ptr;

  0004e	3b c1		 cmp	 eax, ecx
; File C:\Program Files\Microsoft Visual Studio\2022\Community\VC\Tools\MSVC\14.34.31933\include\xutility

; 1168 :         for (; _UFirst != _ULast; ++_UFirst) {

  00050	75 bf		 jne	 SHORT $LL12@distance

; 1170 :         }
; 1171 : 
; 1172 :         return _Off;

  00052	5e		 pop	 esi
$LN30@distance:

; 1173 :     }
; 1174 : }

  00053	8b c7		 mov	 eax, edi
  00055	5f		 pop	 edi
  00056	5d		 pop	 ebp
  00057	c3		 ret	 0
??$distance@V?$_Tree_unchecked_const_iterator@V?$_Tree_val@U?$_Tree_simple_types@U?$pair@$$CBKUSPartyMemberInfo@CPythonPlayer@@@std@@@std@@@std@@U_Iterator_base0@2@@std@@@std@@YAHV?$_Tree_unchecked_const_iterator@V?$_Tree_val@U?$_Tree_simple_types@U?$pair@$$CBKUSPartyMemberInfo@CPythonPlayer@@@std@@@std@@@std@@U_Iterator_base0@2@@0@0@Z ENDP ; std::distance<std::_Tree_unchecked_const_iterator<std::_Tree_val<std::_Tree_simple_types<std::pair<unsigned long const ,CPythonPlayer::SPartyMemberInfo> > >,std::_Iterator_base0> >
_TEXT	ENDS
; Function compile flags: /Ogtp
; File C:\Program Files\Microsoft Visual Studio\2022\Community\VC\Tools\MSVC\14.34.31933\include\xutility
;	COMDAT ??$_Get_unwrapped@AAV?$_Tree_unchecked_const_iterator@V?$_Tree_val@U?$_Tree_simple_types@U?$pair@$$CBKUSPartyMemberInfo@CPythonPlayer@@@std@@@std@@@std@@U_Iterator_base0@2@@std@@@std@@YA?A_TAAV?$_Tree_unchecked_const_iterator@V?$_Tree_val@U?$_Tree_simple_types@U?$pair@$$CBKUSPartyMemberInfo@CPythonPlayer@@@std@@@std@@@std@@U_Iterator_base0@2@@0@@Z
_TEXT	SEGMENT
??$_Get_unwrapped@AAV?$_Tree_unchecked_const_iterator@V?$_Tree_val@U?$_Tree_simple_types@U?$pair@$$CBKUSPartyMemberInfo@CPythonPlayer@@@std@@@std@@@std@@U_Iterator_base0@2@@std@@@std@@YA?A_TAAV?$_Tree_unchecked_const_iterator@V?$_Tree_val@U?$_Tree_simple_types@U?$pair@$$CBKUSPartyMemberInfo@CPythonPlayer@@@std@@@std@@@std@@U_Iterator_base0@2@@0@@Z PROC ; std::_Get_unwrapped<std::_Tree_unchecked_const_iterator<std::_Tree_val<std::_Tree_simple_types<std::pair<unsigned long const ,CPythonPlayer::SPartyMemberInfo> > >,std::_Iterator_base0> &>, COMDAT
; __It$ = ecx

; 912  :     // unwrap an iterator previously subjected to _Adl_verify_range or otherwise validated
; 913  :     if constexpr (is_pointer_v<decay_t<_Iter>>) { // special-case pointers and arrays
; 914  :         return _It + 0;
; 915  :     } else if constexpr (_Unwrappable_v<_Iter>) {
; 916  :         return static_cast<_Iter&&>(_It)._Unwrapped();
; 917  :     } else {
; 918  :         return static_cast<_Iter&&>(_It);

  00000	8b c1		 mov	 eax, ecx

; 919  :     }
; 920  : }

  00002	c3		 ret	 0
??$_Get_unwrapped@AAV?$_Tree_unchecked_const_iterator@V?$_Tree_val@U?$_Tree_simple_types@U?$pair@$$CBKUSPartyMemberInfo@CPythonPlayer@@@std@@@std@@@std@@U_Iterator_base0@2@@std@@@std@@YA?A_TAAV?$_Tree_unchecked_const_iterator@V?$_Tree_val@U?$_Tree_simple_types@U?$pair@$$CBKUSPartyMemberInfo@CPythonPlayer@@@std@@@std@@@std@@U_Iterator_base0@2@@0@@Z ENDP ; std::_Get_unwrapped<std::_Tree_unchecked_const_iterator<std::_Tree_val<std::_Tree_simple_types<std::pair<unsigned long const ,CPythonPlayer::SPartyMemberInfo> > >,std::_Iterator_base0> &>
_TEXT	ENDS
; Function compile flags: /Ogtp
; File C:\Program Files\Microsoft Visual Studio\2022\Community\VC\Tools\MSVC\14.34.31933\include\xmemory
; File C:\Program Files\Microsoft Visual Studio\2022\Community\VC\Tools\MSVC\14.34.31933\include\xtree
; File C:\Program Files\Microsoft Visual Studio\2022\Community\VC\Tools\MSVC\14.34.31933\include\xmemory
; File C:\Program Files\Microsoft Visual Studio\2022\Community\VC\Tools\MSVC\14.34.31933\include\xtree
; File C:\Program Files\Microsoft Visual Studio\2022\Community\VC\Tools\MSVC\14.34.31933\include\xmemory
;	COMDAT ??$?0ABU?$less@K@std@@U_Zero_then_variadic_args_t@1@@?$_Compressed_pair@U?$less@K@std@@V?$_Compressed_pair@V?$allocator@U?$_Tree_node@U?$pair@$$CBKUSPartyMemberInfo@CPythonPlayer@@@std@@PAX@std@@@std@@V?$_Tree_val@U?$_Tree_simple_types@U?$pair@$$CBKUSPartyMemberInfo@CPythonPlayer@@@std@@@std@@@2@$00@2@$00@std@@QAE@U_One_then_variadic_args_t@1@ABU?$less@K@1@$$QAU_Zero_then_variadic_args_t@1@@Z
_TEXT	SEGMENT
___formal$ = 8						; size = 1
__Val1$dead$ = 12					; size = 4
_<_Val2_0>$dead$ = 16					; size = 4
??$?0ABU?$less@K@std@@U_Zero_then_variadic_args_t@1@@?$_Compressed_pair@U?$less@K@std@@V?$_Compressed_pair@V?$allocator@U?$_Tree_node@U?$pair@$$CBKUSPartyMemberInfo@CPythonPlayer@@@std@@PAX@std@@@std@@V?$_Tree_val@U?$_Tree_simple_types@U?$pair@$$CBKUSPartyMemberInfo@CPythonPlayer@@@std@@@std@@@2@$00@2@$00@std@@QAE@U_One_then_variadic_args_t@1@ABU?$less@K@1@$$QAU_Zero_then_variadic_args_t@1@@Z PROC ; std::_Compressed_pair<std::less<unsigned long>,std::_Compressed_pair<std::allocator<std::_Tree_node<std::pair<unsigned long const ,CPythonPlayer::SPartyMemberInfo>,void *> >,std::_Tree_val<std::_Tree_simple_types<std::pair<unsigned long const ,CPythonPlayer::SPartyMemberInfo> > >,1>,1>::_Compressed_pair<std::less<unsigned long>,std::_Compressed_pair<std::allocator<std::_Tree_node<std::pair<unsigned long const ,CPythonPlayer::SPartyMemberInfo>,void *> >,std::_Tree_val<std::_Tree_simple_types<std::pair<unsigned long const ,CPythonPlayer::SPartyMemberInfo> > >,1>,1><std::less<unsigned long> const &,std::_Zero_then_variadic_args_t>, COMDAT
; _this$ = ecx
; File C:\Program Files\Microsoft Visual Studio\2022\Community\VC\Tools\MSVC\14.34.31933\include\xtree

; 437  :     _Tree_val() noexcept : _Myhead(), _Mysize(0) {}

  00000	c7 01 00 00 00
	00		 mov	 DWORD PTR [ecx], 0
; File C:\Program Files\Microsoft Visual Studio\2022\Community\VC\Tools\MSVC\14.34.31933\include\xmemory

; 1381 :         : _Ty1(_STD forward<_Other1>(_Val1)), _Myval2(_STD forward<_Other2>(_Val2)...) {}

  00006	8b c1		 mov	 eax, ecx
; File C:\Program Files\Microsoft Visual Studio\2022\Community\VC\Tools\MSVC\14.34.31933\include\xtree

; 437  :     _Tree_val() noexcept : _Myhead(), _Mysize(0) {}

  00008	c7 41 04 00 00
	00 00		 mov	 DWORD PTR [ecx+4], 0
; File C:\Program Files\Microsoft Visual Studio\2022\Community\VC\Tools\MSVC\14.34.31933\include\xmemory

; 1381 :         : _Ty1(_STD forward<_Other1>(_Val1)), _Myval2(_STD forward<_Other2>(_Val2)...) {}

  0000f	c2 0c 00	 ret	 12			; 0000000cH
??$?0ABU?$less@K@std@@U_Zero_then_variadic_args_t@1@@?$_Compressed_pair@U?$less@K@std@@V?$_Compressed_pair@V?$allocator@U?$_Tree_node@U?$pair@$$CBKUSPartyMemberInfo@CPythonPlayer@@@std@@PAX@std@@@std@@V?$_Tree_val@U?$_Tree_simple_types@U?$pair@$$CBKUSPartyMemberInfo@CPythonPlayer@@@std@@@std@@@2@$00@2@$00@std@@QAE@U_One_then_variadic_args_t@1@ABU?$less@K@1@$$QAU_Zero_then_variadic_args_t@1@@Z ENDP ; std::_Compressed_pair<std::less<unsigned long>,std::_Compressed_pair<std::allocator<std::_Tree_node<std::pair<unsigned long const ,CPythonPlayer::SPartyMemberInfo>,void *> >,std::_Tree_val<std::_Tree_simple_types<std::pair<unsigned long const ,CPythonPlayer::SPartyMemberInfo> > >,1>,1>::_Compressed_pair<std::less<unsigned long>,std::_Compressed_pair<std::allocator<std::_Tree_node<std::pair<unsigned long const ,CPythonPlayer::SPartyMemberInfo>,void *> >,std::_Tree_val<std::_Tree_simple_types<std::pair<unsigned long const ,CPythonPlayer::SPartyMemberInfo> > >,1>,1><std::less<unsigned long> const &,std::_Zero_then_variadic_args_t>
_TEXT	ENDS
; Function compile flags: /Ogtp
; File C:\Program Files\Microsoft Visual Studio\2022\Community\VC\Tools\MSVC\14.34.31933\include\xtree
; File C:\Program Files\Microsoft Visual Studio\2022\Community\VC\Tools\MSVC\14.34.31933\include\xmemory
; File C:\Program Files\Microsoft Visual Studio\2022\Community\VC\Tools\MSVC\14.34.31933\include\xtree
;	COMDAT ??$_Buyheadnode@V?$allocator@U?$_Tree_node@U?$pair@$$CBKUSPartyMemberInfo@CPythonPlayer@@@std@@PAX@std@@@std@@@?$_Tree_node@U?$pair@$$CBKUSPartyMemberInfo@CPythonPlayer@@@std@@PAX@std@@SAPAU01@AAV?$allocator@U?$_Tree_node@U?$pair@$$CBKUSPartyMemberInfo@CPythonPlayer@@@std@@PAX@std@@@1@@Z
_TEXT	SEGMENT
??$_Buyheadnode@V?$allocator@U?$_Tree_node@U?$pair@$$CBKUSPartyMemberInfo@CPythonPlayer@@@std@@PAX@std@@@std@@@?$_Tree_node@U?$pair@$$CBKUSPartyMemberInfo@CPythonPlayer@@@std@@PAX@std@@SAPAU01@AAV?$allocator@U?$_Tree_node@U?$pair@$$CBKUSPartyMemberInfo@CPythonPlayer@@@std@@PAX@std@@@1@@Z PROC ; std::_Tree_node<std::pair<unsigned long const ,CPythonPlayer::SPartyMemberInfo>,void *>::_Buyheadnode<std::allocator<std::_Tree_node<std::pair<unsigned long const ,CPythonPlayer::SPartyMemberInfo>,void *> > >, COMDAT
; __Al$dead$ = ecx
; File C:\Program Files\Microsoft Visual Studio\2022\Community\VC\Tools\MSVC\14.34.31933\include\xmemory

; 77   :         return ::operator new(_Bytes);

  00000	6a 44		 push	 68			; 00000044H
  00002	e8 00 00 00 00	 call	 ??2@YAPAXI@Z		; operator new
  00007	83 c4 04	 add	 esp, 4
; File C:\Program Files\Microsoft Visual Studio\2022\Community\VC\Tools\MSVC\14.34.31933\include\xtree

; 347  :         _Construct_in_place(_Pnode->_Left, _Pnode);

  0000a	89 00		 mov	 DWORD PTR [eax], eax

; 348  :         _Construct_in_place(_Pnode->_Parent, _Pnode);

  0000c	89 40 04	 mov	 DWORD PTR [eax+4], eax

; 349  :         _Construct_in_place(_Pnode->_Right, _Pnode);

  0000f	89 40 08	 mov	 DWORD PTR [eax+8], eax

; 350  :         _Pnode->_Color = _Black;

  00012	66 c7 40 0c 01
	01		 mov	 WORD PTR [eax+12], 257	; 00000101H

; 351  :         _Pnode->_Isnil = true;
; 352  :         return _Pnode;
; 353  :     }

  00018	c3		 ret	 0
??$_Buyheadnode@V?$allocator@U?$_Tree_node@U?$pair@$$CBKUSPartyMemberInfo@CPythonPlayer@@@std@@PAX@std@@@std@@@?$_Tree_node@U?$pair@$$CBKUSPartyMemberInfo@CPythonPlayer@@@std@@PAX@std@@SAPAU01@AAV?$allocator@U?$_Tree_node@U?$pair@$$CBKUSPartyMemberInfo@CPythonPlayer@@@std@@PAX@std@@@1@@Z ENDP ; std::_Tree_node<std::pair<unsigned long const ,CPythonPlayer::SPartyMemberInfo>,void *>::_Buyheadnode<std::allocator<std::_Tree_node<std::pair<unsigned long const ,CPythonPlayer::SPartyMemberInfo>,void *> > >
_TEXT	ENDS
; Function compile flags: /Ogtp
; File C:\Program Files\Microsoft Visual Studio\2022\Community\VC\Tools\MSVC\14.34.31933\include\xtree
; File C:\Program Files\Microsoft Visual Studio\2022\Community\VC\Tools\MSVC\14.34.31933\include\xstring
; File C:\Program Files\Microsoft Visual Studio\2022\Community\VC\Tools\MSVC\14.34.31933\include\xmemory
; File C:\Program Files\Microsoft Visual Studio\2022\Community\VC\Tools\MSVC\14.34.31933\include\xstring
; File C:\Program Files\Microsoft Visual Studio\2022\Community\VC\Tools\MSVC\14.34.31933\include\xmemory
; File C:\Program Files\Microsoft Visual Studio\2022\Community\VC\Tools\MSVC\14.34.31933\include\xstring
; File C:\Program Files\Microsoft Visual Studio\2022\Community\VC\Tools\MSVC\14.34.31933\include\xmemory
; File C:\Program Files\Microsoft Visual Studio\2022\Community\VC\Tools\MSVC\14.34.31933\include\xtree
; File C:\Program Files\Microsoft Visual Studio\2022\Community\VC\Tools\MSVC\14.34.31933\include\xmemory
; File C:\Program Files\Microsoft Visual Studio\2022\Community\VC\Tools\MSVC\14.34.31933\include\xtree
;	COMDAT ??$_Freenode@V?$allocator@U?$_Tree_node@U?$pair@$$CBKUSPartyMemberInfo@CPythonPlayer@@@std@@PAX@std@@@std@@@?$_Tree_node@U?$pair@$$CBKUSPartyMemberInfo@CPythonPlayer@@@std@@PAX@std@@SAXAAV?$allocator@U?$_Tree_node@U?$pair@$$CBKUSPartyMemberInfo@CPythonPlayer@@@std@@PAX@std@@@1@PAU01@@Z
_TEXT	SEGMENT
??$_Freenode@V?$allocator@U?$_Tree_node@U?$pair@$$CBKUSPartyMemberInfo@CPythonPlayer@@@std@@PAX@std@@@std@@@?$_Tree_node@U?$pair@$$CBKUSPartyMemberInfo@CPythonPlayer@@@std@@PAX@std@@SAXAAV?$allocator@U?$_Tree_node@U?$pair@$$CBKUSPartyMemberInfo@CPythonPlayer@@@std@@PAX@std@@@1@PAU01@@Z PROC ; std::_Tree_node<std::pair<unsigned long const ,CPythonPlayer::SPartyMemberInfo>,void *>::_Freenode<std::allocator<std::_Tree_node<std::pair<unsigned long const ,CPythonPlayer::SPartyMemberInfo>,void *> > >, COMDAT
; __Al$dead$ = ecx
; __Ptr$ = edx

; 380  :     static void _Freenode(_Alloc& _Al, _Nodeptr _Ptr) noexcept {

  00000	56		 push	 esi
  00001	8b f2		 mov	 esi, edx
; File C:\Program Files\Microsoft Visual Studio\2022\Community\VC\Tools\MSVC\14.34.31933\include\xstring

; 2301 :         return _BUF_SIZE <= _Myres;

  00003	8b 4e 30	 mov	 ecx, DWORD PTR [esi+48]
  00006	83 f9 10	 cmp	 ecx, 16			; 00000010H

; 5008 :         if (_My_data._Large_string_engaged()) {

  00009	72 28		 jb	 SHORT $LN28@Freenode
; File C:\Program Files\Microsoft Visual Studio\2022\Community\VC\Tools\MSVC\14.34.31933\include\xmemory

; 830  :         _Deallocate<_New_alignof<_Ty>>(_Ptr, sizeof(_Ty) * _Count);

  0000b	8b 46 1c	 mov	 eax, DWORD PTR [esi+28]
; File C:\Program Files\Microsoft Visual Studio\2022\Community\VC\Tools\MSVC\14.34.31933\include\xstring

; 5013 :             _Al.deallocate(_Ptr, _My_data._Myres + 1);

  0000e	41		 inc	 ecx
; File C:\Program Files\Microsoft Visual Studio\2022\Community\VC\Tools\MSVC\14.34.31933\include\xmemory

; 251  :         if (_Bytes >= _Big_allocation_threshold) { // boost the alignment of big allocations to help autovectorization

  0000f	81 f9 00 10 00
	00		 cmp	 ecx, 4096		; 00001000H
  00015	72 12		 jb	 SHORT $LN40@Freenode

; 150  :     const uintptr_t _Ptr_container   = _Ptr_user[-1];

  00017	8b 50 fc	 mov	 edx, DWORD PTR [eax-4]
  0001a	83 c1 23	 add	 ecx, 35			; 00000023H

; 151  : 
; 152  :     // If the following asserts, it likely means that we are performing
; 153  :     // an aligned delete on memory coming from an unaligned allocation.
; 154  :     _STL_ASSERT(_Ptr_user[-2] == _Big_allocation_sentinel, "invalid argument");
; 155  : 
; 156  :     // Extra paranoia on aligned allocation/deallocation; ensure _Ptr_container is
; 157  :     // in range [_Min_back_shift, _Non_user_size]
; 158  : #ifdef _DEBUG
; 159  :     constexpr uintptr_t _Min_back_shift = 2 * sizeof(void*);
; 160  : #else // ^^^ _DEBUG ^^^ // vvv !_DEBUG vvv
; 161  :     constexpr uintptr_t _Min_back_shift = sizeof(void*);
; 162  : #endif // _DEBUG
; 163  :     const uintptr_t _Back_shift = reinterpret_cast<uintptr_t>(_Ptr) - _Ptr_container;

  0001d	2b c2		 sub	 eax, edx

; 164  :     _STL_VERIFY(_Back_shift >= _Min_back_shift && _Back_shift <= _Non_user_size, "invalid argument");

  0001f	83 c0 fc	 add	 eax, -4			; fffffffcH
  00022	83 f8 1f	 cmp	 eax, 31			; 0000001fH
  00025	77 2b		 ja	 SHORT $LN37@Freenode

; 165  :     _Ptr = reinterpret_cast<void*>(_Ptr_container);

  00027	8b c2		 mov	 eax, edx
$LN40@Freenode:

; 255  :         ::operator delete(_Ptr, _Bytes);

  00029	51		 push	 ecx
  0002a	50		 push	 eax
  0002b	e8 00 00 00 00	 call	 ??3@YAXPAXI@Z		; operator delete
  00030	83 c4 08	 add	 esp, 8
$LN28@Freenode:
  00033	6a 44		 push	 68			; 00000044H
  00035	56		 push	 esi
; File C:\Program Files\Microsoft Visual Studio\2022\Community\VC\Tools\MSVC\14.34.31933\include\xstring

; 5016 :         _My_data._Mysize = 0;

  00036	c7 46 2c 00 00
	00 00		 mov	 DWORD PTR [esi+44], 0

; 5017 :         _My_data._Myres  = _BUF_SIZE - 1;

  0003d	c7 46 30 0f 00
	00 00		 mov	 DWORD PTR [esi+48], 15	; 0000000fH

; 5018 :         // the _Traits::assign is last so the codegen doesn't think the char write can alias this
; 5019 :         _Traits::assign(_My_data._Bx._Buf[0], _Elem());

  00044	c6 46 1c 00	 mov	 BYTE PTR [esi+28], 0
; File C:\Program Files\Microsoft Visual Studio\2022\Community\VC\Tools\MSVC\14.34.31933\include\xmemory

; 255  :         ::operator delete(_Ptr, _Bytes);

  00048	e8 00 00 00 00	 call	 ??3@YAXPAXI@Z		; operator delete
  0004d	83 c4 08	 add	 esp, 8
  00050	5e		 pop	 esi
; File C:\Program Files\Microsoft Visual Studio\2022\Community\VC\Tools\MSVC\14.34.31933\include\xtree

; 384  :     }

  00051	c3		 ret	 0
$LN37@Freenode:
; File C:\Program Files\Microsoft Visual Studio\2022\Community\VC\Tools\MSVC\14.34.31933\include\xmemory

; 164  :     _STL_VERIFY(_Back_shift >= _Min_back_shift && _Back_shift <= _Non_user_size, "invalid argument");

  00052	e8 00 00 00 00	 call	 __invalid_parameter_noinfo_noreturn
$LN94@Freenode:
  00057	cc		 int	 3
??$_Freenode@V?$allocator@U?$_Tree_node@U?$pair@$$CBKUSPartyMemberInfo@CPythonPlayer@@@std@@PAX@std@@@std@@@?$_Tree_node@U?$pair@$$CBKUSPartyMemberInfo@CPythonPlayer@@@std@@PAX@std@@SAXAAV?$allocator@U?$_Tree_node@U?$pair@$$CBKUSPartyMemberInfo@CPythonPlayer@@@std@@PAX@std@@@1@PAU01@@Z ENDP ; std::_Tree_node<std::pair<unsigned long const ,CPythonPlayer::SPartyMemberInfo>,void *>::_Freenode<std::allocator<std::_Tree_node<std::pair<unsigned long const ,CPythonPlayer::SPartyMemberInfo>,void *> > >
_TEXT	ENDS
; Function compile flags: /Ogtp
; File C:\Program Files\Microsoft Visual Studio\2022\Community\VC\Tools\MSVC\14.34.31933\include\xtree
;	COMDAT ?_Get_scary@?$_Tree@V?$_Tmap_traits@KUSPartyMemberInfo@CPythonPlayer@@U?$less@K@std@@V?$allocator@U?$pair@$$CBKUSPartyMemberInfo@CPythonPlayer@@@std@@@4@$0A@@std@@@std@@IBEPBV?$_Tree_val@U?$_Tree_simple_types@U?$pair@$$CBKUSPartyMemberInfo@CPythonPlayer@@@std@@@std@@@2@XZ
_TEXT	SEGMENT
?_Get_scary@?$_Tree@V?$_Tmap_traits@KUSPartyMemberInfo@CPythonPlayer@@U?$less@K@std@@V?$allocator@U?$pair@$$CBKUSPartyMemberInfo@CPythonPlayer@@@std@@@4@$0A@@std@@@std@@IBEPBV?$_Tree_val@U?$_Tree_simple_types@U?$pair@$$CBKUSPartyMemberInfo@CPythonPlayer@@@std@@@std@@@2@XZ PROC ; std::_Tree<std::_Tmap_traits<unsigned long,CPythonPlayer::SPartyMemberInfo,std::less<unsigned long>,std::allocator<std::pair<unsigned long const ,CPythonPlayer::SPartyMemberInfo> >,0> >::_Get_scary, COMDAT
; _this$ = ecx

; 1971 :         return _STD addressof(_Mypair._Myval2._Myval2);

  00000	8b c1		 mov	 eax, ecx

; 1972 :     }

  00002	c3		 ret	 0
?_Get_scary@?$_Tree@V?$_Tmap_traits@KUSPartyMemberInfo@CPythonPlayer@@U?$less@K@std@@V?$allocator@U?$pair@$$CBKUSPartyMemberInfo@CPythonPlayer@@@std@@@4@$0A@@std@@@std@@IBEPBV?$_Tree_val@U?$_Tree_simple_types@U?$pair@$$CBKUSPartyMemberInfo@CPythonPlayer@@@std@@@std@@@2@XZ ENDP ; std::_Tree<std::_Tmap_traits<unsigned long,CPythonPlayer::SPartyMemberInfo,std::less<unsigned long>,std::allocator<std::pair<unsigned long const ,CPythonPlayer::SPartyMemberInfo> >,0> >::_Get_scary
_TEXT	ENDS
; Function compile flags: /Ogtp
; File C:\Program Files\Microsoft Visual Studio\2022\Community\VC\Tools\MSVC\14.34.31933\include\xtree
;	COMDAT ?_Getcomp@?$_Tree@V?$_Tmap_traits@KUSPartyMemberInfo@CPythonPlayer@@U?$less@K@std@@V?$allocator@U?$pair@$$CBKUSPartyMemberInfo@CPythonPlayer@@@std@@@4@$0A@@std@@@std@@IBEABU?$less@K@2@XZ
_TEXT	SEGMENT
?_Getcomp@?$_Tree@V?$_Tmap_traits@KUSPartyMemberInfo@CPythonPlayer@@U?$less@K@std@@V?$allocator@U?$pair@$$CBKUSPartyMemberInfo@CPythonPlayer@@@std@@@4@$0A@@std@@@std@@IBEABU?$less@K@2@XZ PROC ; std::_Tree<std::_Tmap_traits<unsigned long,CPythonPlayer::SPartyMemberInfo,std::less<unsigned long>,std::allocator<std::pair<unsigned long const ,CPythonPlayer::SPartyMemberInfo> >,0> >::_Getcomp, COMDAT
; _this$ = ecx

; 1955 :         return _Mypair._Get_first();

  00000	8b c1		 mov	 eax, ecx

; 1956 :     }

  00002	c3		 ret	 0
?_Getcomp@?$_Tree@V?$_Tmap_traits@KUSPartyMemberInfo@CPythonPlayer@@U?$less@K@std@@V?$allocator@U?$pair@$$CBKUSPartyMemberInfo@CPythonPlayer@@@std@@@4@$0A@@std@@@std@@IBEABU?$less@K@2@XZ ENDP ; std::_Tree<std::_Tmap_traits<unsigned long,CPythonPlayer::SPartyMemberInfo,std::less<unsigned long>,std::allocator<std::pair<unsigned long const ,CPythonPlayer::SPartyMemberInfo> >,0> >::_Getcomp
_TEXT	ENDS
; Function compile flags: /Ogtp
; File C:\Program Files\Microsoft Visual Studio\2022\Community\VC\Tools\MSVC\14.34.31933\include\xmemory
;	COMDAT ?allocate@?$allocator@U?$_Tree_node@U?$pair@$$CBKUSPartyMemberInfo@CPythonPlayer@@@std@@PAX@std@@@std@@QAEPAU?$_Tree_node@U?$pair@$$CBKUSPartyMemberInfo@CPythonPlayer@@@std@@PAX@2@I@Z
_TEXT	SEGMENT
__Count$dead$ = 8					; size = 4
?allocate@?$allocator@U?$_Tree_node@U?$pair@$$CBKUSPartyMemberInfo@CPythonPlayer@@@std@@PAX@std@@@std@@QAEPAU?$_Tree_node@U?$pair@$$CBKUSPartyMemberInfo@CPythonPlayer@@@std@@PAX@2@I@Z PROC ; std::allocator<std::_Tree_node<std::pair<unsigned long const ,CPythonPlayer::SPartyMemberInfo>,void *> >::allocate, COMDAT
; _this$dead$ = ecx

; 77   :         return ::operator new(_Bytes);

  00000	6a 44		 push	 68			; 00000044H
  00002	e8 00 00 00 00	 call	 ??2@YAPAXI@Z		; operator new
  00007	83 c4 04	 add	 esp, 4

; 834  :         static_assert(sizeof(value_type) > 0, "value_type must be complete before calling allocate.");
; 835  :         return static_cast<_Ty*>(_Allocate<_New_alignof<_Ty>>(_Get_size_of_n<sizeof(_Ty)>(_Count)));
; 836  :     }

  0000a	c2 04 00	 ret	 4
?allocate@?$allocator@U?$_Tree_node@U?$pair@$$CBKUSPartyMemberInfo@CPythonPlayer@@@std@@PAX@std@@@std@@QAEPAU?$_Tree_node@U?$pair@$$CBKUSPartyMemberInfo@CPythonPlayer@@@std@@PAX@2@I@Z ENDP ; std::allocator<std::_Tree_node<std::pair<unsigned long const ,CPythonPlayer::SPartyMemberInfo>,void *> >::allocate
_TEXT	ENDS
; Function compile flags: /Ogtp
; File C:\Program Files\Microsoft Visual Studio\2022\Community\VC\Tools\MSVC\14.34.31933\include\xmemory
;	COMDAT ?_Get_first@?$_Compressed_pair@U?$less@K@std@@V?$_Compressed_pair@V?$allocator@U?$_Tree_node@U?$pair@$$CBKUSPartyMemberInfo@CPythonPlayer@@@std@@PAX@std@@@std@@V?$_Tree_val@U?$_Tree_simple_types@U?$pair@$$CBKUSPartyMemberInfo@CPythonPlayer@@@std@@@std@@@2@$00@2@$00@std@@QBEABU?$less@K@2@XZ
_TEXT	SEGMENT
?_Get_first@?$_Compressed_pair@U?$less@K@std@@V?$_Compressed_pair@V?$allocator@U?$_Tree_node@U?$pair@$$CBKUSPartyMemberInfo@CPythonPlayer@@@std@@PAX@std@@@std@@V?$_Tree_val@U?$_Tree_simple_types@U?$pair@$$CBKUSPartyMemberInfo@CPythonPlayer@@@std@@@std@@@2@$00@2@$00@std@@QBEABU?$less@K@2@XZ PROC ; std::_Compressed_pair<std::less<unsigned long>,std::_Compressed_pair<std::allocator<std::_Tree_node<std::pair<unsigned long const ,CPythonPlayer::SPartyMemberInfo>,void *> >,std::_Tree_val<std::_Tree_simple_types<std::pair<unsigned long const ,CPythonPlayer::SPartyMemberInfo> > >,1>,1>::_Get_first, COMDAT
; _this$ = ecx

; 1388 :         return *this;

  00000	8b c1		 mov	 eax, ecx

; 1389 :     }

  00002	c3		 ret	 0
?_Get_first@?$_Compressed_pair@U?$less@K@std@@V?$_Compressed_pair@V?$allocator@U?$_Tree_node@U?$pair@$$CBKUSPartyMemberInfo@CPythonPlayer@@@std@@PAX@std@@@std@@V?$_Tree_val@U?$_Tree_simple_types@U?$pair@$$CBKUSPartyMemberInfo@CPythonPlayer@@@std@@@std@@@2@$00@2@$00@std@@QBEABU?$less@K@2@XZ ENDP ; std::_Compressed_pair<std::less<unsigned long>,std::_Compressed_pair<std::allocator<std::_Tree_node<std::pair<unsigned long const ,CPythonPlayer::SPartyMemberInfo>,void *> >,std::_Tree_val<std::_Tree_simple_types<std::pair<unsigned long const ,CPythonPlayer::SPartyMemberInfo> > >,1>,1>::_Get_first
_TEXT	ENDS
; Function compile flags: /Ogtp
; File C:\Program Files\Microsoft Visual Studio\2022\Community\VC\Tools\MSVC\14.34.31933\include\xmemory
; File C:\Program Files\Microsoft Visual Studio\2022\Community\VC\Tools\MSVC\14.34.31933\include\xtree
; File C:\Program Files\Microsoft Visual Studio\2022\Community\VC\Tools\MSVC\14.34.31933\include\xmemory
; File C:\Program Files\Microsoft Visual Studio\2022\Community\VC\Tools\MSVC\14.34.31933\include\xtree
; File C:\Program Files\Microsoft Visual Studio\2022\Community\VC\Tools\MSVC\14.34.31933\include\xmemory
;	COMDAT ??$?0$$V@?$_Compressed_pair@V?$allocator@U?$_Tree_node@U?$pair@$$CBKUSPartyMemberInfo@CPythonPlayer@@@std@@PAX@std@@@std@@V?$_Tree_val@U?$_Tree_simple_types@U?$pair@$$CBKUSPartyMemberInfo@CPythonPlayer@@@std@@@std@@@2@$00@std@@QAE@U_Zero_then_variadic_args_t@1@@Z
_TEXT	SEGMENT
___formal$ = 8						; size = 1
??$?0$$V@?$_Compressed_pair@V?$allocator@U?$_Tree_node@U?$pair@$$CBKUSPartyMemberInfo@CPythonPlayer@@@std@@PAX@std@@@std@@V?$_Tree_val@U?$_Tree_simple_types@U?$pair@$$CBKUSPartyMemberInfo@CPythonPlayer@@@std@@@std@@@2@$00@std@@QAE@U_Zero_then_variadic_args_t@1@@Z PROC ; std::_Compressed_pair<std::allocator<std::_Tree_node<std::pair<unsigned long const ,CPythonPlayer::SPartyMemberInfo>,void *> >,std::_Tree_val<std::_Tree_simple_types<std::pair<unsigned long const ,CPythonPlayer::SPartyMemberInfo> > >,1>::_Compressed_pair<std::allocator<std::_Tree_node<std::pair<unsigned long const ,CPythonPlayer::SPartyMemberInfo>,void *> >,std::_Tree_val<std::_Tree_simple_types<std::pair<unsigned long const ,CPythonPlayer::SPartyMemberInfo> > >,1><>, COMDAT
; _this$ = ecx
; File C:\Program Files\Microsoft Visual Studio\2022\Community\VC\Tools\MSVC\14.34.31933\include\xtree

; 437  :     _Tree_val() noexcept : _Myhead(), _Mysize(0) {}

  00000	c7 01 00 00 00
	00		 mov	 DWORD PTR [ecx], 0
; File C:\Program Files\Microsoft Visual Studio\2022\Community\VC\Tools\MSVC\14.34.31933\include\xmemory

; 1376 :         : _Ty1(), _Myval2(_STD forward<_Other2>(_Val2)...) {}

  00006	8b c1		 mov	 eax, ecx
; File C:\Program Files\Microsoft Visual Studio\2022\Community\VC\Tools\MSVC\14.34.31933\include\xtree

; 437  :     _Tree_val() noexcept : _Myhead(), _Mysize(0) {}

  00008	c7 41 04 00 00
	00 00		 mov	 DWORD PTR [ecx+4], 0
; File C:\Program Files\Microsoft Visual Studio\2022\Community\VC\Tools\MSVC\14.34.31933\include\xmemory

; 1376 :         : _Ty1(), _Myval2(_STD forward<_Other2>(_Val2)...) {}

  0000f	c2 04 00	 ret	 4
??$?0$$V@?$_Compressed_pair@V?$allocator@U?$_Tree_node@U?$pair@$$CBKUSPartyMemberInfo@CPythonPlayer@@@std@@PAX@std@@@std@@V?$_Tree_val@U?$_Tree_simple_types@U?$pair@$$CBKUSPartyMemberInfo@CPythonPlayer@@@std@@@std@@@2@$00@std@@QAE@U_Zero_then_variadic_args_t@1@@Z ENDP ; std::_Compressed_pair<std::allocator<std::_Tree_node<std::pair<unsigned long const ,CPythonPlayer::SPartyMemberInfo>,void *> >,std::_Tree_val<std::_Tree_simple_types<std::pair<unsigned long const ,CPythonPlayer::SPartyMemberInfo> > >,1>::_Compressed_pair<std::allocator<std::_Tree_node<std::pair<unsigned long const ,CPythonPlayer::SPartyMemberInfo>,void *> >,std::_Tree_val<std::_Tree_simple_types<std::pair<unsigned long const ,CPythonPlayer::SPartyMemberInfo> > >,1><>
_TEXT	ENDS
; Function compile flags: /Ogtp
; File C:\Program Files\Microsoft Visual Studio\2022\Community\VC\Tools\MSVC\14.34.31933\include\type_traits
;	COMDAT ??$move@AAUSQuickSlot@@@std@@YA$$QAUSQuickSlot@@AAU1@@Z
_TEXT	SEGMENT
??$move@AAUSQuickSlot@@@std@@YA$$QAUSQuickSlot@@AAU1@@Z PROC ; std::move<SQuickSlot &>, COMDAT
; __Arg$ = ecx

; 1437 :     return static_cast<remove_reference_t<_Ty>&&>(_Arg);

  00000	8b c1		 mov	 eax, ecx

; 1438 : }

  00002	c3		 ret	 0
??$move@AAUSQuickSlot@@@std@@YA$$QAUSQuickSlot@@AAU1@@Z ENDP ; std::move<SQuickSlot &>
_TEXT	ENDS
; Function compile flags: /Ogtp
; File C:\Program Files\Microsoft Visual Studio\2022\Community\VC\Tools\MSVC\14.34.31933\include\type_traits
;	COMDAT ??$forward@USPartyMemberInfo@CPythonPlayer@@@std@@YA$$QAUSPartyMemberInfo@CPythonPlayer@@AAU12@@Z
_TEXT	SEGMENT
??$forward@USPartyMemberInfo@CPythonPlayer@@@std@@YA$$QAUSPartyMemberInfo@CPythonPlayer@@AAU12@@Z PROC ; std::forward<CPythonPlayer::SPartyMemberInfo>, COMDAT
; __Arg$ = ecx

; 1426 :     return static_cast<_Ty&&>(_Arg);

  00000	8b c1		 mov	 eax, ecx

; 1427 : }

  00002	c3		 ret	 0
??$forward@USPartyMemberInfo@CPythonPlayer@@@std@@YA$$QAUSPartyMemberInfo@CPythonPlayer@@AAU12@@Z ENDP ; std::forward<CPythonPlayer::SPartyMemberInfo>
_TEXT	ENDS
; Function compile flags: /Ogtp
; File C:\Program Files\Microsoft Visual Studio\2022\Community\VC\Tools\MSVC\14.34.31933\include\utility
;	COMDAT ??$?0AAKUSPartyMemberInfo@CPythonPlayer@@$0A@@?$pair@KUSPartyMemberInfo@CPythonPlayer@@@std@@QAE@AAK$$QAUSPartyMemberInfo@CPythonPlayer@@@Z
_TEXT	SEGMENT
__Val1$ = 8						; size = 4
__Val2$ = 12						; size = 4
??$?0AAKUSPartyMemberInfo@CPythonPlayer@@$0A@@?$pair@KUSPartyMemberInfo@CPythonPlayer@@@std@@QAE@AAK$$QAUSPartyMemberInfo@CPythonPlayer@@@Z PROC ; std::pair<unsigned long,CPythonPlayer::SPartyMemberInfo>::pair<unsigned long,CPythonPlayer::SPartyMemberInfo><unsigned long &,CPythonPlayer::SPartyMemberInfo,0>, COMDAT
; _this$ = ecx

; 172  :         : first(_STD forward<_Other1>(_Val1)), second(_STD forward<_Other2>(_Val2)) {

  00000	55		 push	 ebp
  00001	8b ec		 mov	 ebp, esp
  00003	8b 45 08	 mov	 eax, DWORD PTR __Val1$[ebp]
  00006	56		 push	 esi
  00007	ff 75 0c	 push	 DWORD PTR __Val2$[ebp]
  0000a	8b f1		 mov	 esi, ecx
  0000c	8b 00		 mov	 eax, DWORD PTR [eax]
  0000e	8d 4e 04	 lea	 ecx, DWORD PTR [esi+4]
  00011	89 06		 mov	 DWORD PTR [esi], eax
  00013	e8 00 00 00 00	 call	 ??0SPartyMemberInfo@CPythonPlayer@@QAE@$$QAU01@@Z

; 173  :     }

  00018	8b c6		 mov	 eax, esi
  0001a	5e		 pop	 esi
  0001b	5d		 pop	 ebp
  0001c	c2 08 00	 ret	 8
??$?0AAKUSPartyMemberInfo@CPythonPlayer@@$0A@@?$pair@KUSPartyMemberInfo@CPythonPlayer@@@std@@QAE@AAK$$QAUSPartyMemberInfo@CPythonPlayer@@@Z ENDP ; std::pair<unsigned long,CPythonPlayer::SPartyMemberInfo>::pair<unsigned long,CPythonPlayer::SPartyMemberInfo><unsigned long &,CPythonPlayer::SPartyMemberInfo,0>
_TEXT	ENDS
; Function compile flags: /Ogtp
; File C:\Program Files\Microsoft Visual Studio\2022\Community\VC\Tools\MSVC\14.34.31933\include\xmemory
; File C:\Program Files\Microsoft Visual Studio\2022\Community\VC\Tools\MSVC\14.34.31933\include\xstring
;	COMDAT ??0SPartyMemberInfo@CPythonPlayer@@QAE@$$QAU01@@Z
_TEXT	SEGMENT
___that$ = 8						; size = 4
??0SPartyMemberInfo@CPythonPlayer@@QAE@$$QAU01@@Z PROC	; CPythonPlayer::SPartyMemberInfo::SPartyMemberInfo, COMDAT
; _this$ = ecx
  00000	55		 push	 ebp
  00001	8b ec		 mov	 ebp, esp
; File C:\Program Files\Microsoft Visual Studio\2022\Community\VC\Tools\MSVC\14.34.31933\include\xmemory

; 1381 :         : _Ty1(_STD forward<_Other1>(_Val1)), _Myval2(_STD forward<_Other2>(_Val2)...) {}

  00003	8b 55 08	 mov	 edx, DWORD PTR ___that$[ebp]
  00006	0f 57 c0	 xorps	 xmm0, xmm0
  00009	8b 02		 mov	 eax, DWORD PTR [edx]
  0000b	89 01		 mov	 DWORD PTR [ecx], eax
  0000d	8b 42 04	 mov	 eax, DWORD PTR [edx+4]
  00010	89 41 04	 mov	 DWORD PTR [ecx+4], eax
; File C:\Program Files\Microsoft Visual Studio\2022\Community\VC\Tools\MSVC\14.34.31933\include\xstring

; 2339 :         _CONSTEXPR20 _Bxty() noexcept : _Buf() {} // user-provided, for fancy pointers

  00013	0f 11 41 08	 movups	 XMMWORD PTR [ecx+8], xmm0

; 2348 :     size_type _Mysize = 0; // current length of string

  00017	c7 41 18 00 00
	00 00		 mov	 DWORD PTR [ecx+24], 0

; 2349 :     size_type _Myres  = 0; // current storage reserved for string

  0001e	c7 41 1c 00 00
	00 00		 mov	 DWORD PTR [ecx+28], 0

; 3137 :         _CSTD memcpy(_My_data_mem, _Right_data_mem, _Memcpy_val_size);

  00025	0f 10 42 08	 movups	 xmm0, XMMWORD PTR [edx+8]
  00029	0f 11 41 08	 movups	 XMMWORD PTR [ecx+8], xmm0
  0002d	f3 0f 7e 42 18	 movq	 xmm0, QWORD PTR [edx+24]
  00032	66 0f d6 41 18	 movq	 QWORD PTR [ecx+24], xmm0
  00037	c7 42 18 00 00
	00 00		 mov	 DWORD PTR [edx+24], 0
  0003e	c7 42 1c 0f 00
	00 00		 mov	 DWORD PTR [edx+28], 15	; 0000000fH
  00045	c6 42 08 00	 mov	 BYTE PTR [edx+8], 0
  00049	0f b6 42 20	 movzx	 eax, BYTE PTR [edx+32]
  0004d	88 41 20	 mov	 BYTE PTR [ecx+32], al
  00050	0f b6 42 21	 movzx	 eax, BYTE PTR [edx+33]
  00054	88 41 21	 mov	 BYTE PTR [ecx+33], al
  00057	f3 0f 7e 42 22	 movq	 xmm0, QWORD PTR [edx+34]
  0005c	66 0f d6 41 22	 movq	 QWORD PTR [ecx+34], xmm0
  00061	8b 42 2a	 mov	 eax, DWORD PTR [edx+42]
  00064	89 41 2a	 mov	 DWORD PTR [ecx+42], eax
  00067	66 8b 42 2e	 mov	 ax, WORD PTR [edx+46]
  0006b	66 89 41 2e	 mov	 WORD PTR [ecx+46], ax
  0006f	8b c1		 mov	 eax, ecx
  00071	5d		 pop	 ebp
  00072	c2 04 00	 ret	 4
??0SPartyMemberInfo@CPythonPlayer@@QAE@$$QAU01@@Z ENDP	; CPythonPlayer::SPartyMemberInfo::SPartyMemberInfo
_TEXT	ENDS
; Function compile flags: /Ogtp
; File C:\Program Files\Microsoft Visual Studio\2022\Community\VC\Tools\MSVC\14.34.31933\include\type_traits
;	COMDAT ??$forward@U?$pair@KUSPartyMemberInfo@CPythonPlayer@@@std@@@std@@YA$$QAU?$pair@KUSPartyMemberInfo@CPythonPlayer@@@0@AAU10@@Z
_TEXT	SEGMENT
??$forward@U?$pair@KUSPartyMemberInfo@CPythonPlayer@@@std@@@std@@YA$$QAU?$pair@KUSPartyMemberInfo@CPythonPlayer@@@0@AAU10@@Z PROC ; std::forward<std::pair<unsigned long,CPythonPlayer::SPartyMemberInfo> >, COMDAT
; __Arg$ = ecx

; 1426 :     return static_cast<_Ty&&>(_Arg);

  00000	8b c1		 mov	 eax, ecx

; 1427 : }

  00002	c3		 ret	 0
??$forward@U?$pair@KUSPartyMemberInfo@CPythonPlayer@@@std@@@std@@YA$$QAU?$pair@KUSPartyMemberInfo@CPythonPlayer@@@0@AAU10@@Z ENDP ; std::forward<std::pair<unsigned long,CPythonPlayer::SPartyMemberInfo> >
_TEXT	ENDS
; Function compile flags: /Ogtp
; File C:\Program Files\Microsoft Visual Studio\2022\Community\VC\Tools\MSVC\14.34.31933\include\xtree
; File C:\Program Files\Microsoft Visual Studio\2022\Community\VC\Tools\MSVC\14.34.31933\include\utility
; File C:\Program Files\Microsoft Visual Studio\2022\Community\VC\Tools\MSVC\14.34.31933\include\xtree
; File C:\Program Files\Microsoft Visual Studio\2022\Community\VC\Tools\MSVC\14.34.31933\include\xmemory
; File C:\Program Files\Microsoft Visual Studio\2022\Community\VC\Tools\MSVC\14.34.31933\include\xtree
; File C:\Program Files\Microsoft Visual Studio\2022\Community\VC\Tools\MSVC\14.34.31933\include\xmemory
; File C:\Program Files\Microsoft Visual Studio\2022\Community\VC\Tools\MSVC\14.34.31933\include\xtree
; File C:\Program Files\Microsoft Visual Studio\2022\Community\VC\Tools\MSVC\14.34.31933\include\utility
; File C:\Program Files\Microsoft Visual Studio\2022\Community\VC\Tools\MSVC\14.34.31933\include\xtree
;	COMDAT ??$emplace@U?$pair@KUSPartyMemberInfo@CPythonPlayer@@@std@@@?$_Tree@V?$_Tmap_traits@KUSPartyMemberInfo@CPythonPlayer@@U?$less@K@std@@V?$allocator@U?$pair@$$CBKUSPartyMemberInfo@CPythonPlayer@@@std@@@4@$0A@@std@@@std@@QAE?AU?$pair@V?$_Tree_iterator@V?$_Tree_val@U?$_Tree_simple_types@U?$pair@$$CBKUSPartyMemberInfo@CPythonPlayer@@@std@@@std@@@std@@@std@@_N@1@$$QAU?$pair@KUSPartyMemberInfo@CPythonPlayer@@@1@@Z
_TEXT	SEGMENT
__Loc$2 = -40						; size = 12
$T3 = -28						; size = 12
$T4 = -24						; size = 8
_this$1$ = -16						; size = 4
__$EHRec$ = -12						; size = 12
___$ReturnUdt$ = 8					; size = 4
_<_Vals_0>$ = 12					; size = 4
??$emplace@U?$pair@KUSPartyMemberInfo@CPythonPlayer@@@std@@@?$_Tree@V?$_Tmap_traits@KUSPartyMemberInfo@CPythonPlayer@@U?$less@K@std@@V?$allocator@U?$pair@$$CBKUSPartyMemberInfo@CPythonPlayer@@@std@@@4@$0A@@std@@@std@@QAE?AU?$pair@V?$_Tree_iterator@V?$_Tree_val@U?$_Tree_simple_types@U?$pair@$$CBKUSPartyMemberInfo@CPythonPlayer@@@std@@@std@@@std@@@std@@_N@1@$$QAU?$pair@KUSPartyMemberInfo@CPythonPlayer@@@1@@Z PROC ; std::_Tree<std::_Tmap_traits<unsigned long,CPythonPlayer::SPartyMemberInfo,std::less<unsigned long>,std::allocator<std::pair<unsigned long const ,CPythonPlayer::SPartyMemberInfo> >,0> >::emplace<std::pair<unsigned long,CPythonPlayer::SPartyMemberInfo> >, COMDAT
; _this$ = ecx

; 1031 :     pair<iterator, bool> emplace(_Valtys&&... _Vals) {

  00000	55		 push	 ebp
  00001	8b ec		 mov	 ebp, esp
  00003	6a ff		 push	 -1
  00005	68 00 00 00 00	 push	 __ehhandler$??$emplace@U?$pair@KUSPartyMemberInfo@CPythonPlayer@@@std@@@?$_Tree@V?$_Tmap_traits@KUSPartyMemberInfo@CPythonPlayer@@U?$less@K@std@@V?$allocator@U?$pair@$$CBKUSPartyMemberInfo@CPythonPlayer@@@std@@@4@$0A@@std@@@std@@QAE?AU?$pair@V?$_Tree_iterator@V?$_Tree_val@U?$_Tree_simple_types@U?$pair@$$CBKUSPartyMemberInfo@CPythonPlayer@@@std@@@std@@@std@@@std@@_N@1@$$QAU?$pair@KUSPartyMemberInfo@CPythonPlayer@@@1@@Z
  0000a	64 a1 00 00 00
	00		 mov	 eax, DWORD PTR fs:0
  00010	50		 push	 eax
  00011	83 ec 1c	 sub	 esp, 28			; 0000001cH
  00014	53		 push	 ebx
  00015	56		 push	 esi
  00016	57		 push	 edi
  00017	a1 00 00 00 00	 mov	 eax, DWORD PTR ___security_cookie
  0001c	33 c5		 xor	 eax, ebp
  0001e	50		 push	 eax
  0001f	8d 45 f4	 lea	 eax, DWORD PTR __$EHRec$[ebp]
  00022	64 a3 00 00 00
	00		 mov	 DWORD PTR fs:0, eax
  00028	8b f1		 mov	 esi, ecx
  0002a	89 75 f0	 mov	 DWORD PTR _this$1$[ebp], esi

; 1001 :             _Loc                = _Find_lower_bound(_Keyval);

  0002d	8b 7d 0c	 mov	 edi, DWORD PTR _<_Vals_0>$[ebp]
  00030	8d 45 e4	 lea	 eax, DWORD PTR $T3[ebp]
  00033	57		 push	 edi
  00034	50		 push	 eax
  00035	e8 00 00 00 00	 call	 ??$_Find_lower_bound@K@?$_Tree@V?$_Tmap_traits@KUSPartyMemberInfo@CPythonPlayer@@U?$less@K@std@@V?$allocator@U?$pair@$$CBKUSPartyMemberInfo@CPythonPlayer@@@std@@@4@$0A@@std@@@std@@IBE?AU?$_Tree_find_result@PAU?$_Tree_node@U?$pair@$$CBKUSPartyMemberInfo@CPythonPlayer@@@std@@PAX@std@@@1@ABK@Z ; std::_Tree<std::_Tmap_traits<unsigned long,CPythonPlayer::SPartyMemberInfo,std::less<unsigned long>,std::allocator<std::pair<unsigned long const ,CPythonPlayer::SPartyMemberInfo> >,0> >::_Find_lower_bound<unsigned long>
  0003a	8b 48 08	 mov	 ecx, DWORD PTR [eax+8]
  0003d	f3 0f 7e 00	 movq	 xmm0, QWORD PTR [eax]
  00041	66 0f d6 45 d8	 movq	 QWORD PTR __Loc$2[ebp], xmm0

; 1605 :         return !_Bound->_Isnil && !_DEBUG_LT_PRED(_Getcomp(), _Keyval, _Traits::_Kfn(_Bound->_Myval));

  00046	80 79 0d 00	 cmp	 BYTE PTR [ecx+13], 0
  0004a	75 0b		 jne	 SHORT $LN4@emplace
  0004c	8b 07		 mov	 eax, DWORD PTR [edi]
  0004e	3b 41 10	 cmp	 eax, DWORD PTR [ecx+16]
  00051	72 04		 jb	 SHORT $LN4@emplace
; File C:\Program Files\Microsoft Visual Studio\2022\Community\VC\Tools\MSVC\14.34.31933\include\utility

; 172  :         : first(_STD forward<_Other1>(_Val1)), second(_STD forward<_Other2>(_Val2)) {

  00053	32 d2		 xor	 dl, dl
; File C:\Program Files\Microsoft Visual Studio\2022\Community\VC\Tools\MSVC\14.34.31933\include\xtree

; 1003 :                 return {_Loc._Bound, false};

  00055	eb 5d		 jmp	 SHORT $LN87@emplace
$LN4@emplace:

; 1629 :         if (max_size() == _Get_scary()->_Mysize) {

  00057	81 7e 04 c3 c3
	c3 03		 cmp	 DWORD PTR [esi+4], 63161283 ; 03c3c3c3H
  0005e	74 70		 je	 SHORT $LN103@emplace

; 1007 :             _Inserted = _Tree_temp_node<_Alnode>(_Getal(), _Scary->_Myhead, _STD forward<_Valtys>(_Vals)...)._Release();

  00060	8b 1e		 mov	 ebx, DWORD PTR [esi]
; File C:\Program Files\Microsoft Visual Studio\2022\Community\VC\Tools\MSVC\14.34.31933\include\xmemory

; 1005 :     _CONSTEXPR20 explicit _Alloc_construct_ptr(_Alloc& _Al_) : _Al(_Al_), _Ptr(nullptr) {}

  00062	89 75 e8	 mov	 DWORD PTR $T4[ebp], esi
; File C:\Program Files\Microsoft Visual Studio\2022\Community\VC\Tools\MSVC\14.34.31933\include\xtree

; 785  :     explicit _Tree_temp_node_alloc(_Alnode& _Al_) : _Alloc_construct_ptr<_Alnode>(_Al_) {

  00065	c7 45 fc 00 00
	00 00		 mov	 DWORD PTR __$EHRec$[ebp+8], 0
; File C:\Program Files\Microsoft Visual Studio\2022\Community\VC\Tools\MSVC\14.34.31933\include\xmemory

; 77   :         return ::operator new(_Bytes);

  0006c	6a 44		 push	 68			; 00000044H

; 1012 :         _Ptr = nullptr; // if allocate throws, prevents double-free

  0006e	c7 45 ec 00 00
	00 00		 mov	 DWORD PTR $T4[ebp+4], 0

; 77   :         return ::operator new(_Bytes);

  00075	e8 00 00 00 00	 call	 ??2@YAPAXI@Z		; operator new

; 1013 :         _Ptr = _Al.allocate(1);

  0007a	8b f8		 mov	 edi, eax

; 77   :         return ::operator new(_Bytes);

  0007c	83 c4 04	 add	 esp, 4
; File C:\Program Files\Microsoft Visual Studio\2022\Community\VC\Tools\MSVC\14.34.31933\include\xtree

; 808  :         _Construct_in_place(this->_Ptr->_Left, _Myhead);

  0007f	8b 45 0c	 mov	 eax, DWORD PTR _<_Vals_0>$[ebp]
  00082	8d 4f 14	 lea	 ecx, DWORD PTR [edi+20]
  00085	8b 10		 mov	 edx, DWORD PTR [eax]
  00087	8d 70 04	 lea	 esi, DWORD PTR [eax+4]
  0008a	56		 push	 esi
  0008b	89 57 10	 mov	 DWORD PTR [edi+16], edx
  0008e	e8 00 00 00 00	 call	 ??0SPartyMemberInfo@CPythonPlayer@@QAE@$$QAU01@@Z

; 1026 :         return {_Scary->_Insert_node(_Loc._Location, _Inserted), true};

  00093	8b 4d f0	 mov	 ecx, DWORD PTR _this$1$[ebp]
  00096	57		 push	 edi
  00097	ff 75 dc	 push	 DWORD PTR __Loc$2[ebp+4]

; 808  :         _Construct_in_place(this->_Ptr->_Left, _Myhead);

  0009a	89 1f		 mov	 DWORD PTR [edi], ebx

; 1026 :         return {_Scary->_Insert_node(_Loc._Location, _Inserted), true};

  0009c	ff 75 d8	 push	 DWORD PTR __Loc$2[ebp]

; 809  :         _Construct_in_place(this->_Ptr->_Parent, _Myhead);

  0009f	89 5f 04	 mov	 DWORD PTR [edi+4], ebx

; 810  :         _Construct_in_place(this->_Ptr->_Right, _Myhead);

  000a2	89 5f 08	 mov	 DWORD PTR [edi+8], ebx

; 811  :         this->_Ptr->_Color = _Red;

  000a5	66 c7 47 0c 00
	00		 mov	 WORD PTR [edi+12], 0

; 1026 :         return {_Scary->_Insert_node(_Loc._Location, _Inserted), true};

  000ab	e8 00 00 00 00	 call	 ?_Insert_node@?$_Tree_val@U?$_Tree_simple_types@U?$pair@$$CBKUSPartyMemberInfo@CPythonPlayer@@@std@@@std@@@std@@QAEPAU?$_Tree_node@U?$pair@$$CBKUSPartyMemberInfo@CPythonPlayer@@@std@@PAX@2@U?$_Tree_id@PAU?$_Tree_node@U?$pair@$$CBKUSPartyMemberInfo@CPythonPlayer@@@std@@PAX@std@@@2@QAU32@@Z ; std::_Tree_val<std::_Tree_simple_types<std::pair<unsigned long const ,CPythonPlayer::SPartyMemberInfo> > >::_Insert_node
; File C:\Program Files\Microsoft Visual Studio\2022\Community\VC\Tools\MSVC\14.34.31933\include\utility

; 172  :         : first(_STD forward<_Other1>(_Val1)), second(_STD forward<_Other2>(_Val2)) {

  000b0	8b c8		 mov	 ecx, eax
  000b2	b2 01		 mov	 dl, 1
$LN87@emplace:
  000b4	8b 45 08	 mov	 eax, DWORD PTR ___$ReturnUdt$[ebp]
  000b7	89 08		 mov	 DWORD PTR [eax], ecx
  000b9	88 50 04	 mov	 BYTE PTR [eax+4], dl
; File C:\Program Files\Microsoft Visual Studio\2022\Community\VC\Tools\MSVC\14.34.31933\include\xtree

; 1034 :     }

  000bc	8b 4d f4	 mov	 ecx, DWORD PTR __$EHRec$[ebp]
  000bf	64 89 0d 00 00
	00 00		 mov	 DWORD PTR fs:0, ecx
  000c6	59		 pop	 ecx
  000c7	5f		 pop	 edi
  000c8	5e		 pop	 esi
  000c9	5b		 pop	 ebx
  000ca	8b e5		 mov	 esp, ebp
  000cc	5d		 pop	 ebp
  000cd	c2 08 00	 ret	 8
$LN103@emplace:

; 1630 :             _Throw_tree_length_error();

  000d0	e8 00 00 00 00	 call	 ?_Throw_tree_length_error@std@@YAXXZ ; std::_Throw_tree_length_error
$LN101@emplace:
  000d5	cc		 int	 3
_TEXT	ENDS
;	COMDAT text$x
text$x	SEGMENT
__unwindfunclet$??$emplace@U?$pair@KUSPartyMemberInfo@CPythonPlayer@@@std@@@?$_Tree@V?$_Tmap_traits@KUSPartyMemberInfo@CPythonPlayer@@U?$less@K@std@@V?$allocator@U?$pair@$$CBKUSPartyMemberInfo@CPythonPlayer@@@std@@@4@$0A@@std@@@std@@QAE?AU?$pair@V?$_Tree_iterator@V?$_Tree_val@U?$_Tree_simple_types@U?$pair@$$CBKUSPartyMemberInfo@CPythonPlayer@@@std@@@std@@@std@@@std@@_N@1@$$QAU?$pair@KUSPartyMemberInfo@CPythonPlayer@@@1@@Z$2:
  00000	8d 4d e8	 lea	 ecx, DWORD PTR $T4[ebp]
  00003	e9 00 00 00 00	 jmp	 ??1?$_Alloc_construct_ptr@V?$allocator@U?$_Tree_node@U?$pair@$$CBKUSPartyMemberInfo@CPythonPlayer@@@std@@PAX@std@@@std@@@std@@QAE@XZ ; std::_Alloc_construct_ptr<std::allocator<std::_Tree_node<std::pair<unsigned long const ,CPythonPlayer::SPartyMemberInfo>,void *> > >::~_Alloc_construct_ptr<std::allocator<std::_Tree_node<std::pair<unsigned long const ,CPythonPlayer::SPartyMemberInfo>,void *> > >
  00008	cc		 int	 3
  00009	cc		 int	 3
  0000a	cc		 int	 3
  0000b	cc		 int	 3
  0000c	cc		 int	 3
__ehhandler$??$emplace@U?$pair@KUSPartyMemberInfo@CPythonPlayer@@@std@@@?$_Tree@V?$_Tmap_traits@KUSPartyMemberInfo@CPythonPlayer@@U?$less@K@std@@V?$allocator@U?$pair@$$CBKUSPartyMemberInfo@CPythonPlayer@@@std@@@4@$0A@@std@@@std@@QAE?AU?$pair@V?$_Tree_iterator@V?$_Tree_val@U?$_Tree_simple_types@U?$pair@$$CBKUSPartyMemberInfo@CPythonPlayer@@@std@@@std@@@std@@@std@@_N@1@$$QAU?$pair@KUSPartyMemberInfo@CPythonPlayer@@@1@@Z:
  0000d	90		 npad	 1
  0000e	90		 npad	 1
  0000f	8b 54 24 08	 mov	 edx, DWORD PTR [esp+8]
  00013	8d 42 0c	 lea	 eax, DWORD PTR [edx+12]
  00016	8b 4a d4	 mov	 ecx, DWORD PTR [edx-44]
  00019	33 c8		 xor	 ecx, eax
  0001b	e8 00 00 00 00	 call	 @__security_check_cookie@4
  00020	b8 00 00 00 00	 mov	 eax, OFFSET __ehfuncinfo$??$emplace@U?$pair@KUSPartyMemberInfo@CPythonPlayer@@@std@@@?$_Tree@V?$_Tmap_traits@KUSPartyMemberInfo@CPythonPlayer@@U?$less@K@std@@V?$allocator@U?$pair@$$CBKUSPartyMemberInfo@CPythonPlayer@@@std@@@4@$0A@@std@@@std@@QAE?AU?$pair@V?$_Tree_iterator@V?$_Tree_val@U?$_Tree_simple_types@U?$pair@$$CBKUSPartyMemberInfo@CPythonPlayer@@@std@@@std@@@std@@@std@@_N@1@$$QAU?$pair@KUSPartyMemberInfo@CPythonPlayer@@@1@@Z
  00025	e9 00 00 00 00	 jmp	 ___CxxFrameHandler3
text$x	ENDS
??$emplace@U?$pair@KUSPartyMemberInfo@CPythonPlayer@@@std@@@?$_Tree@V?$_Tmap_traits@KUSPartyMemberInfo@CPythonPlayer@@U?$less@K@std@@V?$allocator@U?$pair@$$CBKUSPartyMemberInfo@CPythonPlayer@@@std@@@4@$0A@@std@@@std@@QAE?AU?$pair@V?$_Tree_iterator@V?$_Tree_val@U?$_Tree_simple_types@U?$pair@$$CBKUSPartyMemberInfo@CPythonPlayer@@@std@@@std@@@std@@@std@@_N@1@$$QAU?$pair@KUSPartyMemberInfo@CPythonPlayer@@@1@@Z ENDP ; std::_Tree<std::_Tmap_traits<unsigned long,CPythonPlayer::SPartyMemberInfo,std::less<unsigned long>,std::allocator<std::pair<unsigned long const ,CPythonPlayer::SPartyMemberInfo> >,0> >::emplace<std::pair<unsigned long,CPythonPlayer::SPartyMemberInfo> >
; Function compile flags: /Ogtp
; File C:\Program Files\Microsoft Visual Studio\2022\Community\VC\Tools\MSVC\14.34.31933\include\map
;	COMDAT ??$_Kfn@$$CBKUSPartyMemberInfo@CPythonPlayer@@@?$_Tmap_traits@KUSPartyMemberInfo@CPythonPlayer@@U?$less@K@std@@V?$allocator@U?$pair@$$CBKUSPartyMemberInfo@CPythonPlayer@@@std@@@4@$0A@@std@@SAABKABU?$pair@$$CBKUSPartyMemberInfo@CPythonPlayer@@@1@@Z
_TEXT	SEGMENT
??$_Kfn@$$CBKUSPartyMemberInfo@CPythonPlayer@@@?$_Tmap_traits@KUSPartyMemberInfo@CPythonPlayer@@U?$less@K@std@@V?$allocator@U?$pair@$$CBKUSPartyMemberInfo@CPythonPlayer@@@std@@@4@$0A@@std@@SAABKABU?$pair@$$CBKUSPartyMemberInfo@CPythonPlayer@@@1@@Z PROC ; std::_Tmap_traits<unsigned long,CPythonPlayer::SPartyMemberInfo,std::less<unsigned long>,std::allocator<std::pair<unsigned long const ,CPythonPlayer::SPartyMemberInfo> >,0>::_Kfn<unsigned long const ,CPythonPlayer::SPartyMemberInfo>, COMDAT
; __Val$ = ecx

; 68   :         return _Val.first;

  00000	8b c1		 mov	 eax, ecx

; 69   :     }

  00002	c3		 ret	 0
??$_Kfn@$$CBKUSPartyMemberInfo@CPythonPlayer@@@?$_Tmap_traits@KUSPartyMemberInfo@CPythonPlayer@@U?$less@K@std@@V?$allocator@U?$pair@$$CBKUSPartyMemberInfo@CPythonPlayer@@@std@@@4@$0A@@std@@SAABKABU?$pair@$$CBKUSPartyMemberInfo@CPythonPlayer@@@1@@Z ENDP ; std::_Tmap_traits<unsigned long,CPythonPlayer::SPartyMemberInfo,std::less<unsigned long>,std::allocator<std::pair<unsigned long const ,CPythonPlayer::SPartyMemberInfo> >,0>::_Kfn<unsigned long const ,CPythonPlayer::SPartyMemberInfo>
_TEXT	ENDS
; Function compile flags: /Ogtp
; File C:\Program Files\Microsoft Visual Studio\2022\Community\VC\Tools\MSVC\14.34.31933\include\utility
;	COMDAT ??$?0AAPAU?$_Tree_node@U?$pair@$$CBKUSPartyMemberInfo@CPythonPlayer@@@std@@PAX@std@@AAPAU01@$0A@@?$pair@PAU?$_Tree_node@U?$pair@$$CBKUSPartyMemberInfo@CPythonPlayer@@@std@@PAX@std@@PAU12@@std@@QAE@AAPAU?$_Tree_node@U?$pair@$$CBKUSPartyMemberInfo@CPythonPlayer@@@std@@PAX@1@0@Z
_TEXT	SEGMENT
__Val1$ = 8						; size = 4
__Val2$ = 12						; size = 4
??$?0AAPAU?$_Tree_node@U?$pair@$$CBKUSPartyMemberInfo@CPythonPlayer@@@std@@PAX@std@@AAPAU01@$0A@@?$pair@PAU?$_Tree_node@U?$pair@$$CBKUSPartyMemberInfo@CPythonPlayer@@@std@@PAX@std@@PAU12@@std@@QAE@AAPAU?$_Tree_node@U?$pair@$$CBKUSPartyMemberInfo@CPythonPlayer@@@std@@PAX@1@0@Z PROC ; std::pair<std::_Tree_node<std::pair<unsigned long const ,CPythonPlayer::SPartyMemberInfo>,void *> *,std::_Tree_node<std::pair<unsigned long const ,CPythonPlayer::SPartyMemberInfo>,void *> *>::pair<std::_Tree_node<std::pair<unsigned long const ,CPythonPlayer::SPartyMemberInfo>,void *> *,std::_Tree_node<std::pair<unsigned long const ,CPythonPlayer::SPartyMemberInfo>,void *> *><std::_Tree_node<std::pair<unsigned long const ,CPythonPlayer::SPartyMemberInfo>,void *> * &,std::_Tree_node<std::pair<unsigned long const ,CPythonPlayer::SPartyMemberInfo>,void *> * &,0>, COMDAT
; _this$ = ecx

; 172  :         : first(_STD forward<_Other1>(_Val1)), second(_STD forward<_Other2>(_Val2)) {

  00000	55		 push	 ebp
  00001	8b ec		 mov	 ebp, esp
  00003	8b 45 08	 mov	 eax, DWORD PTR __Val1$[ebp]
  00006	8b 00		 mov	 eax, DWORD PTR [eax]
  00008	89 01		 mov	 DWORD PTR [ecx], eax
  0000a	8b 45 0c	 mov	 eax, DWORD PTR __Val2$[ebp]
  0000d	8b 00		 mov	 eax, DWORD PTR [eax]
  0000f	89 41 04	 mov	 DWORD PTR [ecx+4], eax

; 173  :     }

  00012	8b c1		 mov	 eax, ecx
  00014	5d		 pop	 ebp
  00015	c2 08 00	 ret	 8
??$?0AAPAU?$_Tree_node@U?$pair@$$CBKUSPartyMemberInfo@CPythonPlayer@@@std@@PAX@std@@AAPAU01@$0A@@?$pair@PAU?$_Tree_node@U?$pair@$$CBKUSPartyMemberInfo@CPythonPlayer@@@std@@PAX@std@@PAU12@@std@@QAE@AAPAU?$_Tree_node@U?$pair@$$CBKUSPartyMemberInfo@CPythonPlayer@@@std@@PAX@1@0@Z ENDP ; std::pair<std::_Tree_node<std::pair<unsigned long const ,CPythonPlayer::SPartyMemberInfo>,void *> *,std::_Tree_node<std::pair<unsigned long const ,CPythonPlayer::SPartyMemberInfo>,void *> *>::pair<std::_Tree_node<std::pair<unsigned long const ,CPythonPlayer::SPartyMemberInfo>,void *> *,std::_Tree_node<std::pair<unsigned long const ,CPythonPlayer::SPartyMemberInfo>,void *> *><std::_Tree_node<std::pair<unsigned long const ,CPythonPlayer::SPartyMemberInfo>,void *> * &,std::_Tree_node<std::pair<unsigned long const ,CPythonPlayer::SPartyMemberInfo>,void *> * &,0>
_TEXT	ENDS
; Function compile flags: /Ogtp
; File C:\Program Files\Microsoft Visual Studio\2022\Community\VC\Tools\MSVC\14.34.31933\include\utility
;	COMDAT ??$?0HH$0A@@?$pair@HH@std@@QAE@$$QAH0@Z
_TEXT	SEGMENT
__Val1$ = 8						; size = 4
__Val2$ = 12						; size = 4
??$?0HH$0A@@?$pair@HH@std@@QAE@$$QAH0@Z PROC		; std::pair<int,int>::pair<int,int><int,int,0>, COMDAT
; _this$ = ecx

; 172  :         : first(_STD forward<_Other1>(_Val1)), second(_STD forward<_Other2>(_Val2)) {

  00000	55		 push	 ebp
  00001	8b ec		 mov	 ebp, esp
  00003	8b 45 08	 mov	 eax, DWORD PTR __Val1$[ebp]
  00006	8b 00		 mov	 eax, DWORD PTR [eax]
  00008	89 01		 mov	 DWORD PTR [ecx], eax
  0000a	8b 45 0c	 mov	 eax, DWORD PTR __Val2$[ebp]
  0000d	8b 00		 mov	 eax, DWORD PTR [eax]
  0000f	89 41 04	 mov	 DWORD PTR [ecx+4], eax

; 173  :     }

  00012	8b c1		 mov	 eax, ecx
  00014	5d		 pop	 ebp
  00015	c2 08 00	 ret	 8
??$?0HH$0A@@?$pair@HH@std@@QAE@$$QAH0@Z ENDP		; std::pair<int,int>::pair<int,int><int,int,0>
_TEXT	ENDS
; Function compile flags: /Ogtp
; File C:\Program Files\Microsoft Visual Studio\2022\Community\VC\Tools\MSVC\14.34.31933\include\xtree
; File C:\Program Files\Microsoft Visual Studio\2022\Community\VC\Tools\MSVC\14.34.31933\include\xstddef
; File C:\Program Files\Microsoft Visual Studio\2022\Community\VC\Tools\MSVC\14.34.31933\include\xtree
; File C:\Program Files\Microsoft Visual Studio\2022\Community\VC\Tools\MSVC\14.34.31933\include\xstddef
; File C:\Program Files\Microsoft Visual Studio\2022\Community\VC\Tools\MSVC\14.34.31933\include\xtree
;	COMDAT ??$_Find_lower_bound@K@?$_Tree@V?$_Tmap_traits@KUSPartyMemberInfo@CPythonPlayer@@U?$less@K@std@@V?$allocator@U?$pair@$$CBKUSPartyMemberInfo@CPythonPlayer@@@std@@@4@$0A@@std@@@std@@IBE?AU?$_Tree_find_result@PAU?$_Tree_node@U?$pair@$$CBKUSPartyMemberInfo@CPythonPlayer@@@std@@PAX@std@@@1@ABK@Z
_TEXT	SEGMENT
___$ReturnUdt$ = 8					; size = 4
__Keyval$ = 12						; size = 4
??$_Find_lower_bound@K@?$_Tree@V?$_Tmap_traits@KUSPartyMemberInfo@CPythonPlayer@@U?$less@K@std@@V?$allocator@U?$pair@$$CBKUSPartyMemberInfo@CPythonPlayer@@@std@@@4@$0A@@std@@@std@@IBE?AU?$_Tree_find_result@PAU?$_Tree_node@U?$pair@$$CBKUSPartyMemberInfo@CPythonPlayer@@@std@@PAX@std@@@1@ABK@Z PROC ; std::_Tree<std::_Tmap_traits<unsigned long,CPythonPlayer::SPartyMemberInfo,std::less<unsigned long>,std::allocator<std::pair<unsigned long const ,CPythonPlayer::SPartyMemberInfo> >,0> >::_Find_lower_bound<unsigned long>, COMDAT
; _this$ = ecx

; 1609 :     _Tree_find_result<_Nodeptr> _Find_lower_bound(const _Keyty& _Keyval) const {

  00000	55		 push	 ebp
  00001	8b ec		 mov	 ebp, esp

; 1610 :         const auto _Scary = _Get_scary();
; 1611 :         _Tree_find_result<_Nodeptr> _Result{{_Scary->_Myhead->_Parent, _Tree_child::_Right}, _Scary->_Myhead};

  00003	8b 09		 mov	 ecx, DWORD PTR [ecx]
  00005	8b 55 08	 mov	 edx, DWORD PTR ___$ReturnUdt$[ebp]
  00008	8b 41 04	 mov	 eax, DWORD PTR [ecx+4]
  0000b	89 02		 mov	 DWORD PTR [edx], eax
  0000d	c7 42 04 00 00
	00 00		 mov	 DWORD PTR [edx+4], 0
  00014	89 4a 08	 mov	 DWORD PTR [edx+8], ecx

; 1612 :         _Nodeptr _Trynode = _Result._Location._Parent;
; 1613 :         while (!_Trynode->_Isnil) {

  00017	80 78 0d 00	 cmp	 BYTE PTR [eax+13], 0
  0001b	75 28		 jne	 SHORT $LN12@Find_lower
; File C:\Program Files\Microsoft Visual Studio\2022\Community\VC\Tools\MSVC\14.34.31933\include\xstddef

; 143  :         return _Left < _Right;

  0001d	8b 4d 0c	 mov	 ecx, DWORD PTR __Keyval$[ebp]
  00020	56		 push	 esi
  00021	8b 31		 mov	 esi, DWORD PTR [ecx]
$LL2@Find_lower:
; File C:\Program Files\Microsoft Visual Studio\2022\Community\VC\Tools\MSVC\14.34.31933\include\xtree

; 1614 :             _Result._Location._Parent = _Trynode;

  00023	89 02		 mov	 DWORD PTR [edx], eax
; File C:\Program Files\Microsoft Visual Studio\2022\Community\VC\Tools\MSVC\14.34.31933\include\xstddef

; 143  :         return _Left < _Right;

  00025	39 70 10	 cmp	 DWORD PTR [eax+16], esi
; File C:\Program Files\Microsoft Visual Studio\2022\Community\VC\Tools\MSVC\14.34.31933\include\xtree

; 1615 :             if (_DEBUG_LT_PRED(_Getcomp(), _Traits::_Kfn(_Trynode->_Myval), _Keyval)) {

  00028	73 07		 jae	 SHORT $LN4@Find_lower

; 1616 :                 _Result._Location._Child = _Tree_child::_Right;
; 1617 :                 _Trynode                 = _Trynode->_Right;

  0002a	8b 40 08	 mov	 eax, DWORD PTR [eax+8]
  0002d	33 c9		 xor	 ecx, ecx

; 1618 :             } else {

  0002f	eb 0a		 jmp	 SHORT $LN5@Find_lower
$LN4@Find_lower:

; 1619 :                 _Result._Location._Child = _Tree_child::_Left;
; 1620 :                 _Result._Bound           = _Trynode;

  00031	89 42 08	 mov	 DWORD PTR [edx+8], eax

; 1621 :                 _Trynode                 = _Trynode->_Left;

  00034	b9 01 00 00 00	 mov	 ecx, 1
  00039	8b 00		 mov	 eax, DWORD PTR [eax]
$LN5@Find_lower:

; 1612 :         _Nodeptr _Trynode = _Result._Location._Parent;
; 1613 :         while (!_Trynode->_Isnil) {

  0003b	89 4a 04	 mov	 DWORD PTR [edx+4], ecx
  0003e	80 78 0d 00	 cmp	 BYTE PTR [eax+13], 0
  00042	74 df		 je	 SHORT $LL2@Find_lower

; 1622 :             }
; 1623 :         }
; 1624 : 
; 1625 :         return _Result;

  00044	5e		 pop	 esi
$LN12@Find_lower:

; 1626 :     }

  00045	8b c2		 mov	 eax, edx
  00047	5d		 pop	 ebp
  00048	c2 08 00	 ret	 8
??$_Find_lower_bound@K@?$_Tree@V?$_Tmap_traits@KUSPartyMemberInfo@CPythonPlayer@@U?$less@K@std@@V?$allocator@U?$pair@$$CBKUSPartyMemberInfo@CPythonPlayer@@@std@@@4@$0A@@std@@@std@@IBE?AU?$_Tree_find_result@PAU?$_Tree_node@U?$pair@$$CBKUSPartyMemberInfo@CPythonPlayer@@@std@@PAX@std@@@1@ABK@Z ENDP ; std::_Tree<std::_Tmap_traits<unsigned long,CPythonPlayer::SPartyMemberInfo,std::less<unsigned long>,std::allocator<std::pair<unsigned long const ,CPythonPlayer::SPartyMemberInfo> >,0> >::_Find_lower_bound<unsigned long>
_TEXT	ENDS
; Function compile flags: /Ogtp
; File C:\Program Files\Microsoft Visual Studio\2022\Community\VC\Tools\MSVC\14.34.31933\include\xtree
; File C:\Program Files\Microsoft Visual Studio\2022\Community\VC\Tools\MSVC\14.34.31933\include\xstddef
; File C:\Program Files\Microsoft Visual Studio\2022\Community\VC\Tools\MSVC\14.34.31933\include\xtree
;	COMDAT ??$_Lower_bound_duplicate@K@?$_Tree@V?$_Tmap_traits@KUSPartyMemberInfo@CPythonPlayer@@U?$less@K@std@@V?$allocator@U?$pair@$$CBKUSPartyMemberInfo@CPythonPlayer@@@std@@@4@$0A@@std@@@std@@IBE_NQAU?$_Tree_node@U?$pair@$$CBKUSPartyMemberInfo@CPythonPlayer@@@std@@PAX@1@ABK@Z
_TEXT	SEGMENT
__Bound$ = 8						; size = 4
__Keyval$ = 12						; size = 4
??$_Lower_bound_duplicate@K@?$_Tree@V?$_Tmap_traits@KUSPartyMemberInfo@CPythonPlayer@@U?$less@K@std@@V?$allocator@U?$pair@$$CBKUSPartyMemberInfo@CPythonPlayer@@@std@@@4@$0A@@std@@@std@@IBE_NQAU?$_Tree_node@U?$pair@$$CBKUSPartyMemberInfo@CPythonPlayer@@@std@@PAX@1@ABK@Z PROC ; std::_Tree<std::_Tmap_traits<unsigned long,CPythonPlayer::SPartyMemberInfo,std::less<unsigned long>,std::allocator<std::pair<unsigned long const ,CPythonPlayer::SPartyMemberInfo> >,0> >::_Lower_bound_duplicate<unsigned long>, COMDAT
; _this$dead$ = ecx

; 1604 :     bool _Lower_bound_duplicate(const _Nodeptr _Bound, const _Keyty& _Keyval) const {

  00000	55		 push	 ebp
  00001	8b ec		 mov	 ebp, esp

; 1605 :         return !_Bound->_Isnil && !_DEBUG_LT_PRED(_Getcomp(), _Keyval, _Traits::_Kfn(_Bound->_Myval));

  00003	8b 4d 08	 mov	 ecx, DWORD PTR __Bound$[ebp]
  00006	80 79 0d 00	 cmp	 BYTE PTR [ecx+13], 0
  0000a	75 10		 jne	 SHORT $LN3@Lower_boun
; File C:\Program Files\Microsoft Visual Studio\2022\Community\VC\Tools\MSVC\14.34.31933\include\xstddef

; 143  :         return _Left < _Right;

  0000c	8b 45 0c	 mov	 eax, DWORD PTR __Keyval$[ebp]
  0000f	8b 00		 mov	 eax, DWORD PTR [eax]
  00011	3b 41 10	 cmp	 eax, DWORD PTR [ecx+16]
; File C:\Program Files\Microsoft Visual Studio\2022\Community\VC\Tools\MSVC\14.34.31933\include\xtree

; 1605 :         return !_Bound->_Isnil && !_DEBUG_LT_PRED(_Getcomp(), _Keyval, _Traits::_Kfn(_Bound->_Myval));

  00014	72 06		 jb	 SHORT $LN3@Lower_boun
  00016	b0 01		 mov	 al, 1

; 1606 :     }

  00018	5d		 pop	 ebp
  00019	c2 08 00	 ret	 8
$LN3@Lower_boun:

; 1605 :         return !_Bound->_Isnil && !_DEBUG_LT_PRED(_Getcomp(), _Keyval, _Traits::_Kfn(_Bound->_Myval));

  0001c	32 c0		 xor	 al, al

; 1606 :     }

  0001e	5d		 pop	 ebp
  0001f	c2 08 00	 ret	 8
??$_Lower_bound_duplicate@K@?$_Tree@V?$_Tmap_traits@KUSPartyMemberInfo@CPythonPlayer@@U?$less@K@std@@V?$allocator@U?$pair@$$CBKUSPartyMemberInfo@CPythonPlayer@@@std@@@4@$0A@@std@@@std@@IBE_NQAU?$_Tree_node@U?$pair@$$CBKUSPartyMemberInfo@CPythonPlayer@@@std@@PAX@1@ABK@Z ENDP ; std::_Tree<std::_Tmap_traits<unsigned long,CPythonPlayer::SPartyMemberInfo,std::less<unsigned long>,std::allocator<std::pair<unsigned long const ,CPythonPlayer::SPartyMemberInfo> >,0> >::_Lower_bound_duplicate<unsigned long>
_TEXT	ENDS
; Function compile flags: /Ogtp
; File C:\Program Files\Microsoft Visual Studio\2022\Community\VC\Tools\MSVC\14.34.31933\include\utility
;	COMDAT ??$exchange@PAU?$_Tree_node@U?$pair@$$CBKUSPartyMemberInfo@CPythonPlayer@@@std@@PAX@std@@AAPAU12@@std@@YAPAU?$_Tree_node@U?$pair@$$CBKUSPartyMemberInfo@CPythonPlayer@@@std@@PAX@0@AAPAU10@0@Z
_TEXT	SEGMENT
??$exchange@PAU?$_Tree_node@U?$pair@$$CBKUSPartyMemberInfo@CPythonPlayer@@@std@@PAX@std@@AAPAU12@@std@@YAPAU?$_Tree_node@U?$pair@$$CBKUSPartyMemberInfo@CPythonPlayer@@@std@@PAX@0@AAPAU10@0@Z PROC ; std::exchange<std::_Tree_node<std::pair<unsigned long const ,CPythonPlayer::SPartyMemberInfo>,void *> *,std::_Tree_node<std::pair<unsigned long const ,CPythonPlayer::SPartyMemberInfo>,void *> * &>, COMDAT
; __Val$ = ecx
; __New_val$ = edx

; 652  :     // assign _New_val to _Val, return previous _Val
; 653  :     _Ty _Old_val = static_cast<_Ty&&>(_Val);

  00000	8b 01		 mov	 eax, DWORD PTR [ecx]

; 654  :     _Val         = static_cast<_Other&&>(_New_val);

  00002	8b 12		 mov	 edx, DWORD PTR [edx]
  00004	89 11		 mov	 DWORD PTR [ecx], edx

; 655  :     return _Old_val;
; 656  : }

  00006	c3		 ret	 0
??$exchange@PAU?$_Tree_node@U?$pair@$$CBKUSPartyMemberInfo@CPythonPlayer@@@std@@PAX@std@@AAPAU12@@std@@YAPAU?$_Tree_node@U?$pair@$$CBKUSPartyMemberInfo@CPythonPlayer@@@std@@PAX@0@AAPAU10@0@Z ENDP ; std::exchange<std::_Tree_node<std::pair<unsigned long const ,CPythonPlayer::SPartyMemberInfo>,void *> *,std::_Tree_node<std::pair<unsigned long const ,CPythonPlayer::SPartyMemberInfo>,void *> * &>
_TEXT	ENDS
; Function compile flags: /Ogtp
; File C:\Program Files\Microsoft Visual Studio\2022\Community\VC\Tools\MSVC\14.34.31933\include\xtree
; File C:\Program Files\Microsoft Visual Studio\2022\Community\VC\Tools\MSVC\14.34.31933\include\xmemory
; File C:\Program Files\Microsoft Visual Studio\2022\Community\VC\Tools\MSVC\14.34.31933\include\xtree
;	COMDAT ??$_Freenode0@V?$allocator@U?$_Tree_node@U?$pair@$$CBKUSPartyMemberInfo@CPythonPlayer@@@std@@PAX@std@@@std@@@?$_Tree_node@U?$pair@$$CBKUSPartyMemberInfo@CPythonPlayer@@@std@@PAX@std@@SAXAAV?$allocator@U?$_Tree_node@U?$pair@$$CBKUSPartyMemberInfo@CPythonPlayer@@@std@@PAX@std@@@1@PAU01@@Z
_TEXT	SEGMENT
??$_Freenode0@V?$allocator@U?$_Tree_node@U?$pair@$$CBKUSPartyMemberInfo@CPythonPlayer@@@std@@PAX@std@@@std@@@?$_Tree_node@U?$pair@$$CBKUSPartyMemberInfo@CPythonPlayer@@@std@@PAX@std@@SAXAAV?$allocator@U?$_Tree_node@U?$pair@$$CBKUSPartyMemberInfo@CPythonPlayer@@@std@@PAX@std@@@1@PAU01@@Z PROC ; std::_Tree_node<std::pair<unsigned long const ,CPythonPlayer::SPartyMemberInfo>,void *>::_Freenode0<std::allocator<std::_Tree_node<std::pair<unsigned long const ,CPythonPlayer::SPartyMemberInfo>,void *> > >, COMDAT
; __Al$dead$ = ecx
; __Ptr$ = edx
; File C:\Program Files\Microsoft Visual Studio\2022\Community\VC\Tools\MSVC\14.34.31933\include\xmemory

; 255  :         ::operator delete(_Ptr, _Bytes);

  00000	6a 44		 push	 68			; 00000044H
  00002	52		 push	 edx
  00003	e8 00 00 00 00	 call	 ??3@YAXPAXI@Z		; operator delete
  00008	83 c4 08	 add	 esp, 8
; File C:\Program Files\Microsoft Visual Studio\2022\Community\VC\Tools\MSVC\14.34.31933\include\xtree

; 377  :     }

  0000b	c3		 ret	 0
??$_Freenode0@V?$allocator@U?$_Tree_node@U?$pair@$$CBKUSPartyMemberInfo@CPythonPlayer@@@std@@PAX@std@@@std@@@?$_Tree_node@U?$pair@$$CBKUSPartyMemberInfo@CPythonPlayer@@@std@@PAX@std@@SAXAAV?$allocator@U?$_Tree_node@U?$pair@$$CBKUSPartyMemberInfo@CPythonPlayer@@@std@@PAX@std@@@1@PAU01@@Z ENDP ; std::_Tree_node<std::pair<unsigned long const ,CPythonPlayer::SPartyMemberInfo>,void *>::_Freenode0<std::allocator<std::_Tree_node<std::pair<unsigned long const ,CPythonPlayer::SPartyMemberInfo>,void *> > >
_TEXT	ENDS
; Function compile flags: /Ogtp
; File C:\Program Files\Microsoft Visual Studio\2022\Community\VC\Tools\MSVC\14.34.31933\include\xtree
; File C:\Program Files\Microsoft Visual Studio\2022\Community\VC\Tools\MSVC\14.34.31933\include\xmemory
; File C:\Program Files\Microsoft Visual Studio\2022\Community\VC\Tools\MSVC\14.34.31933\include\xtree
; File C:\Program Files\Microsoft Visual Studio\2022\Community\VC\Tools\MSVC\14.34.31933\include\xmemory
; File C:\Program Files\Microsoft Visual Studio\2022\Community\VC\Tools\MSVC\14.34.31933\include\tuple
; File C:\Program Files\Microsoft Visual Studio\2022\Community\VC\Tools\MSVC\14.34.31933\include\xmemory
; File C:\Program Files\Microsoft Visual Studio\2022\Community\VC\Tools\MSVC\14.34.31933\include\tuple
; File C:\Program Files\Microsoft Visual Studio\2022\Community\VC\Tools\MSVC\14.34.31933\include\xtree
;	COMDAT ??$?0ABUpiecewise_construct_t@std@@V?$tuple@ABK@1@V?$tuple@$$V@1@@?$_Tree_temp_node@V?$allocator@U?$_Tree_node@U?$pair@$$CBKK@std@@PAX@std@@@std@@@std@@QAE@AAV?$allocator@U?$_Tree_node@U?$pair@$$CBKK@std@@PAX@std@@@1@PAU?$_Tree_node@U?$pair@$$CBKK@std@@PAX@1@ABUpiecewise_construct_t@1@$$QAV?$tuple@ABK@1@$$QAV?$tuple@$$V@1@@Z
_TEXT	SEGMENT
_this$ = -16						; size = 4
__$EHRec$ = -12						; size = 12
__Al_$ = 8						; size = 4
__Myhead$ = 12						; size = 4
_<_Vals_0>$dead$ = 16					; size = 4
_<_Vals_1>$ = 20					; size = 4
_<_Vals_2>$dead$ = 24					; size = 4
??$?0ABUpiecewise_construct_t@std@@V?$tuple@ABK@1@V?$tuple@$$V@1@@?$_Tree_temp_node@V?$allocator@U?$_Tree_node@U?$pair@$$CBKK@std@@PAX@std@@@std@@@std@@QAE@AAV?$allocator@U?$_Tree_node@U?$pair@$$CBKK@std@@PAX@std@@@1@PAU?$_Tree_node@U?$pair@$$CBKK@std@@PAX@1@ABUpiecewise_construct_t@1@$$QAV?$tuple@ABK@1@$$QAV?$tuple@$$V@1@@Z PROC ; std::_Tree_temp_node<std::allocator<std::_Tree_node<std::pair<unsigned long const ,unsigned long>,void *> > >::_Tree_temp_node<std::allocator<std::_Tree_node<std::pair<unsigned long const ,unsigned long>,void *> > ><std::piecewise_construct_t const &,std::tuple<unsigned long const &>,std::tuple<> >, COMDAT
; _this$ = ecx

; 806  :         : _Tree_temp_node_alloc<_Alnode>(_Al_) {

  00000	55		 push	 ebp
  00001	8b ec		 mov	 ebp, esp
  00003	6a ff		 push	 -1
  00005	68 00 00 00 00	 push	 __ehhandler$??$?0ABUpiecewise_construct_t@std@@V?$tuple@ABK@1@V?$tuple@$$V@1@@?$_Tree_temp_node@V?$allocator@U?$_Tree_node@U?$pair@$$CBKK@std@@PAX@std@@@std@@@std@@QAE@AAV?$allocator@U?$_Tree_node@U?$pair@$$CBKK@std@@PAX@std@@@1@PAU?$_Tree_node@U?$pair@$$CBKK@std@@PAX@1@ABUpiecewise_construct_t@1@$$QAV?$tuple@ABK@1@$$QAV?$tuple@$$V@1@@Z
  0000a	64 a1 00 00 00
	00		 mov	 eax, DWORD PTR fs:0
  00010	50		 push	 eax
  00011	51		 push	 ecx
  00012	56		 push	 esi
  00013	a1 00 00 00 00	 mov	 eax, DWORD PTR ___security_cookie
  00018	33 c5		 xor	 eax, ebp
  0001a	50		 push	 eax
  0001b	8d 45 f4	 lea	 eax, DWORD PTR __$EHRec$[ebp]
  0001e	64 a3 00 00 00
	00		 mov	 DWORD PTR fs:0, eax
  00024	8b f1		 mov	 esi, ecx
  00026	89 75 f0	 mov	 DWORD PTR _this$[ebp], esi
; File C:\Program Files\Microsoft Visual Studio\2022\Community\VC\Tools\MSVC\14.34.31933\include\xmemory

; 1005 :     _CONSTEXPR20 explicit _Alloc_construct_ptr(_Alloc& _Al_) : _Al(_Al_), _Ptr(nullptr) {}

  00029	8b 45 08	 mov	 eax, DWORD PTR __Al_$[ebp]
  0002c	89 06		 mov	 DWORD PTR [esi], eax
  0002e	c7 46 04 00 00
	00 00		 mov	 DWORD PTR [esi+4], 0
; File C:\Program Files\Microsoft Visual Studio\2022\Community\VC\Tools\MSVC\14.34.31933\include\xtree

; 785  :     explicit _Tree_temp_node_alloc(_Alnode& _Al_) : _Alloc_construct_ptr<_Alnode>(_Al_) {

  00035	c7 45 fc 00 00
	00 00		 mov	 DWORD PTR __$EHRec$[ebp+8], 0
; File C:\Program Files\Microsoft Visual Studio\2022\Community\VC\Tools\MSVC\14.34.31933\include\xmemory

; 77   :         return ::operator new(_Bytes);

  0003c	6a 18		 push	 24			; 00000018H

; 1012 :         _Ptr = nullptr; // if allocate throws, prevents double-free

  0003e	c7 46 04 00 00
	00 00		 mov	 DWORD PTR [esi+4], 0

; 77   :         return ::operator new(_Bytes);

  00045	e8 00 00 00 00	 call	 ??2@YAPAXI@Z		; operator new
; File C:\Program Files\Microsoft Visual Studio\2022\Community\VC\Tools\MSVC\14.34.31933\include\tuple

; 288  :     tuple(tuple&&)      = default;

  0004a	8b 4d 14	 mov	 ecx, DWORD PTR _<_Vals_1>$[ebp]
; File C:\Program Files\Microsoft Visual Studio\2022\Community\VC\Tools\MSVC\14.34.31933\include\xmemory

; 77   :         return ::operator new(_Bytes);

  0004d	83 c4 04	 add	 esp, 4

; 1013 :         _Ptr = _Al.allocate(1);

  00050	89 46 04	 mov	 DWORD PTR [esi+4], eax
; File C:\Program Files\Microsoft Visual Studio\2022\Community\VC\Tools\MSVC\14.34.31933\include\tuple

; 288  :     tuple(tuple&&)      = default;

  00053	8b 09		 mov	 ecx, DWORD PTR [ecx]
; File C:\Program Files\Microsoft Visual Studio\2022\Community\VC\Tools\MSVC\14.34.31933\include\xtree

; 808  :         _Construct_in_place(this->_Ptr->_Left, _Myhead);

  00055	8b 09		 mov	 ecx, DWORD PTR [ecx]
  00057	89 48 10	 mov	 DWORD PTR [eax+16], ecx
  0005a	8b 4d 0c	 mov	 ecx, DWORD PTR __Myhead$[ebp]
  0005d	c7 40 14 00 00
	00 00		 mov	 DWORD PTR [eax+20], 0
  00064	8b 46 04	 mov	 eax, DWORD PTR [esi+4]
  00067	89 08		 mov	 DWORD PTR [eax], ecx

; 809  :         _Construct_in_place(this->_Ptr->_Parent, _Myhead);

  00069	8b 46 04	 mov	 eax, DWORD PTR [esi+4]
  0006c	89 48 04	 mov	 DWORD PTR [eax+4], ecx

; 810  :         _Construct_in_place(this->_Ptr->_Right, _Myhead);

  0006f	8b 46 04	 mov	 eax, DWORD PTR [esi+4]
  00072	89 48 08	 mov	 DWORD PTR [eax+8], ecx

; 811  :         this->_Ptr->_Color = _Red;

  00075	8b 46 04	 mov	 eax, DWORD PTR [esi+4]
  00078	c6 40 0c 00	 mov	 BYTE PTR [eax+12], 0

; 812  :         this->_Ptr->_Isnil = false;

  0007c	8b 46 04	 mov	 eax, DWORD PTR [esi+4]
  0007f	c6 40 0d 00	 mov	 BYTE PTR [eax+13], 0

; 813  :     }

  00083	8b c6		 mov	 eax, esi
  00085	8b 4d f4	 mov	 ecx, DWORD PTR __$EHRec$[ebp]
  00088	64 89 0d 00 00
	00 00		 mov	 DWORD PTR fs:0, ecx
  0008f	59		 pop	 ecx
  00090	5e		 pop	 esi
  00091	8b e5		 mov	 esp, ebp
  00093	5d		 pop	 ebp
  00094	c2 14 00	 ret	 20			; 00000014H
_TEXT	ENDS
;	COMDAT text$x
text$x	SEGMENT
__unwindfunclet$??$?0ABUpiecewise_construct_t@std@@V?$tuple@ABK@1@V?$tuple@$$V@1@@?$_Tree_temp_node@V?$allocator@U?$_Tree_node@U?$pair@$$CBKK@std@@PAX@std@@@std@@@std@@QAE@AAV?$allocator@U?$_Tree_node@U?$pair@$$CBKK@std@@PAX@std@@@1@PAU?$_Tree_node@U?$pair@$$CBKK@std@@PAX@1@ABUpiecewise_construct_t@1@$$QAV?$tuple@ABK@1@$$QAV?$tuple@$$V@1@@Z$1:
  00000	8b 4d f0	 mov	 ecx, DWORD PTR _this$[ebp]
  00003	e9 00 00 00 00	 jmp	 ??1?$_Alloc_construct_ptr@V?$allocator@U?$_Tree_node@U?$pair@$$CBKK@std@@PAX@std@@@std@@@std@@QAE@XZ ; std::_Alloc_construct_ptr<std::allocator<std::_Tree_node<std::pair<unsigned long const ,unsigned long>,void *> > >::~_Alloc_construct_ptr<std::allocator<std::_Tree_node<std::pair<unsigned long const ,unsigned long>,void *> > >
  00008	cc		 int	 3
  00009	cc		 int	 3
  0000a	cc		 int	 3
  0000b	cc		 int	 3
  0000c	cc		 int	 3
__ehhandler$??$?0ABUpiecewise_construct_t@std@@V?$tuple@ABK@1@V?$tuple@$$V@1@@?$_Tree_temp_node@V?$allocator@U?$_Tree_node@U?$pair@$$CBKK@std@@PAX@std@@@std@@@std@@QAE@AAV?$allocator@U?$_Tree_node@U?$pair@$$CBKK@std@@PAX@std@@@1@PAU?$_Tree_node@U?$pair@$$CBKK@std@@PAX@1@ABUpiecewise_construct_t@1@$$QAV?$tuple@ABK@1@$$QAV?$tuple@$$V@1@@Z:
  0000d	90		 npad	 1
  0000e	90		 npad	 1
  0000f	8b 54 24 08	 mov	 edx, DWORD PTR [esp+8]
  00013	8d 42 0c	 lea	 eax, DWORD PTR [edx+12]
  00016	8b 4a f4	 mov	 ecx, DWORD PTR [edx-12]
  00019	33 c8		 xor	 ecx, eax
  0001b	e8 00 00 00 00	 call	 @__security_check_cookie@4
  00020	b8 00 00 00 00	 mov	 eax, OFFSET __ehfuncinfo$??$?0ABUpiecewise_construct_t@std@@V?$tuple@ABK@1@V?$tuple@$$V@1@@?$_Tree_temp_node@V?$allocator@U?$_Tree_node@U?$pair@$$CBKK@std@@PAX@std@@@std@@@std@@QAE@AAV?$allocator@U?$_Tree_node@U?$pair@$$CBKK@std@@PAX@std@@@1@PAU?$_Tree_node@U?$pair@$$CBKK@std@@PAX@1@ABUpiecewise_construct_t@1@$$QAV?$tuple@ABK@1@$$QAV?$tuple@$$V@1@@Z
  00025	e9 00 00 00 00	 jmp	 ___CxxFrameHandler3
text$x	ENDS
??$?0ABUpiecewise_construct_t@std@@V?$tuple@ABK@1@V?$tuple@$$V@1@@?$_Tree_temp_node@V?$allocator@U?$_Tree_node@U?$pair@$$CBKK@std@@PAX@std@@@std@@@std@@QAE@AAV?$allocator@U?$_Tree_node@U?$pair@$$CBKK@std@@PAX@std@@@1@PAU?$_Tree_node@U?$pair@$$CBKK@std@@PAX@1@ABUpiecewise_construct_t@1@$$QAV?$tuple@ABK@1@$$QAV?$tuple@$$V@1@@Z ENDP ; std::_Tree_temp_node<std::allocator<std::_Tree_node<std::pair<unsigned long const ,unsigned long>,void *> > >::_Tree_temp_node<std::allocator<std::_Tree_node<std::pair<unsigned long const ,unsigned long>,void *> > ><std::piecewise_construct_t const &,std::tuple<unsigned long const &>,std::tuple<> >
; Function compile flags: /Ogtp
; File C:\Program Files\Microsoft Visual Studio\2022\Community\VC\Tools\MSVC\14.34.31933\include\utility
;	COMDAT ??$?0ABQAU?$_Tree_node@U?$pair@$$CBKK@std@@PAX@std@@_N$0A@@?$pair@PAU?$_Tree_node@U?$pair@$$CBKK@std@@PAX@std@@_N@std@@QAE@ABQAU?$_Tree_node@U?$pair@$$CBKK@std@@PAX@1@$$QA_N@Z
_TEXT	SEGMENT
__Val1$ = 8						; size = 4
__Val2$ = 12						; size = 4
??$?0ABQAU?$_Tree_node@U?$pair@$$CBKK@std@@PAX@std@@_N$0A@@?$pair@PAU?$_Tree_node@U?$pair@$$CBKK@std@@PAX@std@@_N@std@@QAE@ABQAU?$_Tree_node@U?$pair@$$CBKK@std@@PAX@1@$$QA_N@Z PROC ; std::pair<std::_Tree_node<std::pair<unsigned long const ,unsigned long>,void *> *,bool>::pair<std::_Tree_node<std::pair<unsigned long const ,unsigned long>,void *> *,bool><std::_Tree_node<std::pair<unsigned long const ,unsigned long>,void *> * const &,bool,0>, COMDAT
; _this$ = ecx

; 172  :         : first(_STD forward<_Other1>(_Val1)), second(_STD forward<_Other2>(_Val2)) {

  00000	55		 push	 ebp
  00001	8b ec		 mov	 ebp, esp
  00003	8b 45 08	 mov	 eax, DWORD PTR __Val1$[ebp]
  00006	8b 00		 mov	 eax, DWORD PTR [eax]
  00008	89 01		 mov	 DWORD PTR [ecx], eax
  0000a	8b 45 0c	 mov	 eax, DWORD PTR __Val2$[ebp]
  0000d	8a 00		 mov	 al, BYTE PTR [eax]
  0000f	88 41 04	 mov	 BYTE PTR [ecx+4], al

; 173  :     }

  00012	8b c1		 mov	 eax, ecx
  00014	5d		 pop	 ebp
  00015	c2 08 00	 ret	 8
??$?0ABQAU?$_Tree_node@U?$pair@$$CBKK@std@@PAX@std@@_N$0A@@?$pair@PAU?$_Tree_node@U?$pair@$$CBKK@std@@PAX@std@@_N@std@@QAE@ABQAU?$_Tree_node@U?$pair@$$CBKK@std@@PAX@1@$$QA_N@Z ENDP ; std::pair<std::_Tree_node<std::pair<unsigned long const ,unsigned long>,void *> *,bool>::pair<std::_Tree_node<std::pair<unsigned long const ,unsigned long>,void *> *,bool><std::_Tree_node<std::pair<unsigned long const ,unsigned long>,void *> * const &,bool,0>
_TEXT	ENDS
; Function compile flags: /Ogtp
; File C:\Program Files\Microsoft Visual Studio\2022\Community\VC\Tools\MSVC\14.34.31933\include\xutility
;	COMDAT ??$_Adl_verify_range@V?$_Tree_unchecked_const_iterator@V?$_Tree_val@U?$_Tree_simple_types@U?$pair@$$CBKUSPartyMemberInfo@CPythonPlayer@@@std@@@std@@@std@@U_Iterator_base0@2@@std@@V12@@std@@YAXABV?$_Tree_unchecked_const_iterator@V?$_Tree_val@U?$_Tree_simple_types@U?$pair@$$CBKUSPartyMemberInfo@CPythonPlayer@@@std@@@std@@@std@@U_Iterator_base0@2@@0@0@Z
_TEXT	SEGMENT
??$_Adl_verify_range@V?$_Tree_unchecked_const_iterator@V?$_Tree_val@U?$_Tree_simple_types@U?$pair@$$CBKUSPartyMemberInfo@CPythonPlayer@@@std@@@std@@@std@@U_Iterator_base0@2@@std@@V12@@std@@YAXABV?$_Tree_unchecked_const_iterator@V?$_Tree_val@U?$_Tree_simple_types@U?$pair@$$CBKUSPartyMemberInfo@CPythonPlayer@@@std@@@std@@@std@@U_Iterator_base0@2@@0@0@Z PROC ; std::_Adl_verify_range<std::_Tree_unchecked_const_iterator<std::_Tree_val<std::_Tree_simple_types<std::pair<unsigned long const ,CPythonPlayer::SPartyMemberInfo> > >,std::_Iterator_base0>,std::_Tree_unchecked_const_iterator<std::_Tree_val<std::_Tree_simple_types<std::pair<unsigned long const ,CPythonPlayer::SPartyMemberInfo> > >,std::_Iterator_base0> >, COMDAT
; __First$dead$ = ecx
; __Last$dead$ = edx

; 889  :     // check that [_First, _Last) forms an iterator range
; 890  :     if constexpr (_Range_verifiable_v<_Iter, _Sentinel>) {
; 891  :         _Verify_range(_First, _Last);
; 892  :     }
; 893  : }

  00000	c2 00 00	 ret	 0
??$_Adl_verify_range@V?$_Tree_unchecked_const_iterator@V?$_Tree_val@U?$_Tree_simple_types@U?$pair@$$CBKUSPartyMemberInfo@CPythonPlayer@@@std@@@std@@@std@@U_Iterator_base0@2@@std@@V12@@std@@YAXABV?$_Tree_unchecked_const_iterator@V?$_Tree_val@U?$_Tree_simple_types@U?$pair@$$CBKUSPartyMemberInfo@CPythonPlayer@@@std@@@std@@@std@@U_Iterator_base0@2@@0@0@Z ENDP ; std::_Adl_verify_range<std::_Tree_unchecked_const_iterator<std::_Tree_val<std::_Tree_simple_types<std::pair<unsigned long const ,CPythonPlayer::SPartyMemberInfo> > >,std::_Iterator_base0>,std::_Tree_unchecked_const_iterator<std::_Tree_val<std::_Tree_simple_types<std::pair<unsigned long const ,CPythonPlayer::SPartyMemberInfo> > >,std::_Iterator_base0> >
_TEXT	ENDS
; Function compile flags: /Ogtp
; File C:\Program Files\Microsoft Visual Studio\2022\Community\VC\Tools\MSVC\14.34.31933\include\xutility
;	COMDAT ??$_Construct_in_place@PAU?$_Tree_node@U?$pair@$$CBKUSPartyMemberInfo@CPythonPlayer@@@std@@PAX@std@@ABQAU12@@std@@YAXAAPAU?$_Tree_node@U?$pair@$$CBKUSPartyMemberInfo@CPythonPlayer@@@std@@PAX@0@ABQAU10@@Z
_TEXT	SEGMENT
??$_Construct_in_place@PAU?$_Tree_node@U?$pair@$$CBKUSPartyMemberInfo@CPythonPlayer@@@std@@PAX@std@@ABQAU12@@std@@YAXAAPAU?$_Tree_node@U?$pair@$$CBKUSPartyMemberInfo@CPythonPlayer@@@std@@PAX@0@ABQAU10@@Z PROC ; std::_Construct_in_place<std::_Tree_node<std::pair<unsigned long const ,CPythonPlayer::SPartyMemberInfo>,void *> *,std::_Tree_node<std::pair<unsigned long const ,CPythonPlayer::SPartyMemberInfo>,void *> * const &>, COMDAT
; __Obj$ = ecx
; _<_Args_0>$ = edx

; 225  : #if _HAS_CXX20
; 226  :     if (_STD is_constant_evaluated()) {
; 227  :         _STD construct_at(_STD addressof(_Obj), _STD forward<_Types>(_Args)...);
; 228  :     } else
; 229  : #endif // _HAS_CXX20
; 230  :     {
; 231  :         ::new (_Voidify_iter(_STD addressof(_Obj))) _Ty(_STD forward<_Types>(_Args)...);
; 232  :     }
; 233  : }

  00000	8b 02		 mov	 eax, DWORD PTR [edx]
  00002	89 01		 mov	 DWORD PTR [ecx], eax
  00004	c3		 ret	 0
??$_Construct_in_place@PAU?$_Tree_node@U?$pair@$$CBKUSPartyMemberInfo@CPythonPlayer@@@std@@PAX@std@@ABQAU12@@std@@YAXAAPAU?$_Tree_node@U?$pair@$$CBKUSPartyMemberInfo@CPythonPlayer@@@std@@PAX@0@ABQAU10@@Z ENDP ; std::_Construct_in_place<std::_Tree_node<std::pair<unsigned long const ,CPythonPlayer::SPartyMemberInfo>,void *> *,std::_Tree_node<std::pair<unsigned long const ,CPythonPlayer::SPartyMemberInfo>,void *> * const &>
_TEXT	ENDS
; Function compile flags: /Ogtp
; File C:\Program Files\Microsoft Visual Studio\2022\Community\VC\Tools\MSVC\14.34.31933\include\xmemory
; File C:\Program Files\Microsoft Visual Studio\2022\Community\VC\Tools\MSVC\14.34.31933\include\xstring
; File C:\Program Files\Microsoft Visual Studio\2022\Community\VC\Tools\MSVC\14.34.31933\include\xmemory
; File C:\Program Files\Microsoft Visual Studio\2022\Community\VC\Tools\MSVC\14.34.31933\include\xstring
; File C:\Program Files\Microsoft Visual Studio\2022\Community\VC\Tools\MSVC\14.34.31933\include\xmemory
; File C:\Program Files\Microsoft Visual Studio\2022\Community\VC\Tools\MSVC\14.34.31933\include\xstring
; File C:\Program Files\Microsoft Visual Studio\2022\Community\VC\Tools\MSVC\14.34.31933\include\xmemory
;	COMDAT ??$destroy@U?$pair@$$CBKUSPartyMemberInfo@CPythonPlayer@@@std@@@?$_Default_allocator_traits@V?$allocator@U?$_Tree_node@U?$pair@$$CBKUSPartyMemberInfo@CPythonPlayer@@@std@@PAX@std@@@std@@@std@@SAXAAV?$allocator@U?$_Tree_node@U?$pair@$$CBKUSPartyMemberInfo@CPythonPlayer@@@std@@PAX@std@@@1@QAU?$pair@$$CBKUSPartyMemberInfo@CPythonPlayer@@@1@@Z
_TEXT	SEGMENT
??$destroy@U?$pair@$$CBKUSPartyMemberInfo@CPythonPlayer@@@std@@@?$_Default_allocator_traits@V?$allocator@U?$_Tree_node@U?$pair@$$CBKUSPartyMemberInfo@CPythonPlayer@@@std@@PAX@std@@@std@@@std@@SAXAAV?$allocator@U?$_Tree_node@U?$pair@$$CBKUSPartyMemberInfo@CPythonPlayer@@@std@@PAX@std@@@1@QAU?$pair@$$CBKUSPartyMemberInfo@CPythonPlayer@@@1@@Z PROC ; std::_Default_allocator_traits<std::allocator<std::_Tree_node<std::pair<unsigned long const ,CPythonPlayer::SPartyMemberInfo>,void *> > >::destroy<std::pair<unsigned long const ,CPythonPlayer::SPartyMemberInfo> >, COMDAT
; ___formal$dead$ = ecx
; __Ptr$ = edx

; 685  :     static _CONSTEXPR20 void destroy(_Alloc&, _Uty* const _Ptr) {

  00000	56		 push	 esi
  00001	8b f2		 mov	 esi, edx
; File C:\Program Files\Microsoft Visual Studio\2022\Community\VC\Tools\MSVC\14.34.31933\include\xstring

; 2301 :         return _BUF_SIZE <= _Myres;

  00003	8b 4e 20	 mov	 ecx, DWORD PTR [esi+32]
  00006	83 f9 10	 cmp	 ecx, 16			; 00000010H

; 5008 :         if (_My_data._Large_string_engaged()) {

  00009	72 28		 jb	 SHORT $LN26@destroy
; File C:\Program Files\Microsoft Visual Studio\2022\Community\VC\Tools\MSVC\14.34.31933\include\xmemory

; 830  :         _Deallocate<_New_alignof<_Ty>>(_Ptr, sizeof(_Ty) * _Count);

  0000b	8b 46 0c	 mov	 eax, DWORD PTR [esi+12]
; File C:\Program Files\Microsoft Visual Studio\2022\Community\VC\Tools\MSVC\14.34.31933\include\xstring

; 5013 :             _Al.deallocate(_Ptr, _My_data._Myres + 1);

  0000e	41		 inc	 ecx
; File C:\Program Files\Microsoft Visual Studio\2022\Community\VC\Tools\MSVC\14.34.31933\include\xmemory

; 251  :         if (_Bytes >= _Big_allocation_threshold) { // boost the alignment of big allocations to help autovectorization

  0000f	81 f9 00 10 00
	00		 cmp	 ecx, 4096		; 00001000H
  00015	72 12		 jb	 SHORT $LN38@destroy

; 150  :     const uintptr_t _Ptr_container   = _Ptr_user[-1];

  00017	8b 50 fc	 mov	 edx, DWORD PTR [eax-4]
  0001a	83 c1 23	 add	 ecx, 35			; 00000023H

; 151  : 
; 152  :     // If the following asserts, it likely means that we are performing
; 153  :     // an aligned delete on memory coming from an unaligned allocation.
; 154  :     _STL_ASSERT(_Ptr_user[-2] == _Big_allocation_sentinel, "invalid argument");
; 155  : 
; 156  :     // Extra paranoia on aligned allocation/deallocation; ensure _Ptr_container is
; 157  :     // in range [_Min_back_shift, _Non_user_size]
; 158  : #ifdef _DEBUG
; 159  :     constexpr uintptr_t _Min_back_shift = 2 * sizeof(void*);
; 160  : #else // ^^^ _DEBUG ^^^ // vvv !_DEBUG vvv
; 161  :     constexpr uintptr_t _Min_back_shift = sizeof(void*);
; 162  : #endif // _DEBUG
; 163  :     const uintptr_t _Back_shift = reinterpret_cast<uintptr_t>(_Ptr) - _Ptr_container;

  0001d	2b c2		 sub	 eax, edx

; 164  :     _STL_VERIFY(_Back_shift >= _Min_back_shift && _Back_shift <= _Non_user_size, "invalid argument");

  0001f	83 c0 fc	 add	 eax, -4			; fffffffcH
  00022	83 f8 1f	 cmp	 eax, 31			; 0000001fH
  00025	77 20		 ja	 SHORT $LN35@destroy

; 165  :     _Ptr = reinterpret_cast<void*>(_Ptr_container);

  00027	8b c2		 mov	 eax, edx
$LN38@destroy:

; 255  :         ::operator delete(_Ptr, _Bytes);

  00029	51		 push	 ecx
  0002a	50		 push	 eax
  0002b	e8 00 00 00 00	 call	 ??3@YAXPAXI@Z		; operator delete
  00030	83 c4 08	 add	 esp, 8
$LN26@destroy:
; File C:\Program Files\Microsoft Visual Studio\2022\Community\VC\Tools\MSVC\14.34.31933\include\xstring

; 5016 :         _My_data._Mysize = 0;

  00033	c7 46 1c 00 00
	00 00		 mov	 DWORD PTR [esi+28], 0

; 5017 :         _My_data._Myres  = _BUF_SIZE - 1;

  0003a	c7 46 20 0f 00
	00 00		 mov	 DWORD PTR [esi+32], 15	; 0000000fH

; 5018 :         // the _Traits::assign is last so the codegen doesn't think the char write can alias this
; 5019 :         _Traits::assign(_My_data._Bx._Buf[0], _Elem());

  00041	c6 46 0c 00	 mov	 BYTE PTR [esi+12], 0
  00045	5e		 pop	 esi
; File C:\Program Files\Microsoft Visual Studio\2022\Community\VC\Tools\MSVC\14.34.31933\include\xmemory

; 691  :     }

  00046	c3		 ret	 0
$LN35@destroy:

; 164  :     _STL_VERIFY(_Back_shift >= _Min_back_shift && _Back_shift <= _Non_user_size, "invalid argument");

  00047	e8 00 00 00 00	 call	 __invalid_parameter_noinfo_noreturn
$LN48@destroy:
  0004c	cc		 int	 3
??$destroy@U?$pair@$$CBKUSPartyMemberInfo@CPythonPlayer@@@std@@@?$_Default_allocator_traits@V?$allocator@U?$_Tree_node@U?$pair@$$CBKUSPartyMemberInfo@CPythonPlayer@@@std@@PAX@std@@@std@@@std@@SAXAAV?$allocator@U?$_Tree_node@U?$pair@$$CBKUSPartyMemberInfo@CPythonPlayer@@@std@@PAX@std@@@1@QAU?$pair@$$CBKUSPartyMemberInfo@CPythonPlayer@@@1@@Z ENDP ; std::_Default_allocator_traits<std::allocator<std::_Tree_node<std::pair<unsigned long const ,CPythonPlayer::SPartyMemberInfo>,void *> > >::destroy<std::pair<unsigned long const ,CPythonPlayer::SPartyMemberInfo> >
_TEXT	ENDS
; Function compile flags: /Ogtp
; File C:\Program Files\Microsoft Visual Studio\2022\Community\VC\Tools\MSVC\14.34.31933\include\xstddef
;	COMDAT ??$addressof@$$CBV?$_Tree_val@U?$_Tree_simple_types@U?$pair@$$CBKUSPartyMemberInfo@CPythonPlayer@@@std@@@std@@@std@@@std@@YAPBV?$_Tree_val@U?$_Tree_simple_types@U?$pair@$$CBKUSPartyMemberInfo@CPythonPlayer@@@std@@@std@@@0@ABV10@@Z
_TEXT	SEGMENT
??$addressof@$$CBV?$_Tree_val@U?$_Tree_simple_types@U?$pair@$$CBKUSPartyMemberInfo@CPythonPlayer@@@std@@@std@@@std@@@std@@YAPBV?$_Tree_val@U?$_Tree_simple_types@U?$pair@$$CBKUSPartyMemberInfo@CPythonPlayer@@@std@@@std@@@0@ABV10@@Z PROC ; std::addressof<std::_Tree_val<std::_Tree_simple_types<std::pair<unsigned long const ,CPythonPlayer::SPartyMemberInfo> > > const >, COMDAT
; __Val$ = ecx

; 281  :     return __builtin_addressof(_Val);

  00000	8b c1		 mov	 eax, ecx

; 282  : }

  00002	c3		 ret	 0
??$addressof@$$CBV?$_Tree_val@U?$_Tree_simple_types@U?$pair@$$CBKUSPartyMemberInfo@CPythonPlayer@@@std@@@std@@@std@@@std@@YAPBV?$_Tree_val@U?$_Tree_simple_types@U?$pair@$$CBKUSPartyMemberInfo@CPythonPlayer@@@std@@@std@@@0@ABV10@@Z ENDP ; std::addressof<std::_Tree_val<std::_Tree_simple_types<std::pair<unsigned long const ,CPythonPlayer::SPartyMemberInfo> > > const >
_TEXT	ENDS
; Function compile flags: /Ogtp
; File C:\Program Files\Microsoft Visual Studio\2022\Community\VC\Tools\MSVC\14.34.31933\include\xmemory
;	COMDAT ??$_Get_size_of_n@$0EE@@std@@YAII@Z
_TEXT	SEGMENT
??$_Get_size_of_n@$0EE@@std@@YAII@Z PROC		; std::_Get_size_of_n<68>, COMDAT
; __Count$dead$ = ecx

; 56   :     constexpr bool _Overflow_is_possible = _Ty_size > 1;
; 57   : 
; 58   :     if constexpr (_Overflow_is_possible) {
; 59   :         constexpr size_t _Max_possible = static_cast<size_t>(-1) / _Ty_size;
; 60   :         if (_Count > _Max_possible) {
; 61   :             _Throw_bad_array_new_length(); // multiply overflow
; 62   :         }
; 63   :     }
; 64   : 
; 65   :     return _Count * _Ty_size;

  00000	b8 44 00 00 00	 mov	 eax, 68			; 00000044H

; 66   : }

  00005	c3		 ret	 0
??$_Get_size_of_n@$0EE@@std@@YAII@Z ENDP		; std::_Get_size_of_n<68>
_TEXT	ENDS
; Function compile flags: /Ogtp
; File C:\Program Files\Microsoft Visual Studio\2022\Community\VC\Tools\MSVC\14.34.31933\include\xtree
;	COMDAT ??0?$_Tree_val@U?$_Tree_simple_types@U?$pair@$$CBKUSPartyMemberInfo@CPythonPlayer@@@std@@@std@@@std@@QAE@XZ
_TEXT	SEGMENT
??0?$_Tree_val@U?$_Tree_simple_types@U?$pair@$$CBKUSPartyMemberInfo@CPythonPlayer@@@std@@@std@@@std@@QAE@XZ PROC ; std::_Tree_val<std::_Tree_simple_types<std::pair<unsigned long const ,CPythonPlayer::SPartyMemberInfo> > >::_Tree_val<std::_Tree_simple_types<std::pair<unsigned long const ,CPythonPlayer::SPartyMemberInfo> > >, COMDAT
; _this$ = ecx

; 437  :     _Tree_val() noexcept : _Myhead(), _Mysize(0) {}

  00000	c7 01 00 00 00
	00		 mov	 DWORD PTR [ecx], 0
  00006	8b c1		 mov	 eax, ecx
  00008	c7 41 04 00 00
	00 00		 mov	 DWORD PTR [ecx+4], 0
  0000f	c3		 ret	 0
??0?$_Tree_val@U?$_Tree_simple_types@U?$pair@$$CBKUSPartyMemberInfo@CPythonPlayer@@@std@@@std@@@std@@QAE@XZ ENDP ; std::_Tree_val<std::_Tree_simple_types<std::pair<unsigned long const ,CPythonPlayer::SPartyMemberInfo> > >::_Tree_val<std::_Tree_simple_types<std::pair<unsigned long const ,CPythonPlayer::SPartyMemberInfo> > >
_TEXT	ENDS
; Function compile flags: /Ogtp
; File C:\Program Files\Microsoft Visual Studio\2022\Community\VC\Tools\MSVC\14.34.31933\include\xmemory
;	COMDAT ?deallocate@?$_Default_allocator_traits@V?$allocator@U?$_Tree_node@U?$pair@$$CBKUSPartyMemberInfo@CPythonPlayer@@@std@@PAX@std@@@std@@@std@@SAXAAV?$allocator@U?$_Tree_node@U?$pair@$$CBKUSPartyMemberInfo@CPythonPlayer@@@std@@PAX@std@@@2@QAU?$_Tree_node@U?$pair@$$CBKUSPartyMemberInfo@CPythonPlayer@@@std@@PAX@2@I@Z
_TEXT	SEGMENT
__Count$dead$ = 8					; size = 4
?deallocate@?$_Default_allocator_traits@V?$allocator@U?$_Tree_node@U?$pair@$$CBKUSPartyMemberInfo@CPythonPlayer@@@std@@PAX@std@@@std@@@std@@SAXAAV?$allocator@U?$_Tree_node@U?$pair@$$CBKUSPartyMemberInfo@CPythonPlayer@@@std@@PAX@std@@@2@QAU?$_Tree_node@U?$pair@$$CBKUSPartyMemberInfo@CPythonPlayer@@@std@@PAX@2@I@Z PROC ; std::_Default_allocator_traits<std::allocator<std::_Tree_node<std::pair<unsigned long const ,CPythonPlayer::SPartyMemberInfo>,void *> > >::deallocate, COMDAT
; __Al$dead$ = ecx
; __Ptr$ = edx

; 255  :         ::operator delete(_Ptr, _Bytes);

  00000	6a 44		 push	 68			; 00000044H
  00002	52		 push	 edx
  00003	e8 00 00 00 00	 call	 ??3@YAXPAXI@Z		; operator delete
  00008	83 c4 08	 add	 esp, 8

; 660  :         // no overflow check on the following multiply; we assume _Allocate did that check
; 661  : #if _HAS_CXX20 // TRANSITION, GH-1532
; 662  :         if (_STD is_constant_evaluated()) {
; 663  :             _Al.deallocate(_Ptr, _Count);
; 664  :         } else
; 665  : #endif // _HAS_CXX20
; 666  :         {
; 667  :             (void) _Al;
; 668  :             _Deallocate<_New_alignof<value_type>>(_Ptr, sizeof(value_type) * _Count);
; 669  :         }
; 670  :     }

  0000b	c3		 ret	 0
?deallocate@?$_Default_allocator_traits@V?$allocator@U?$_Tree_node@U?$pair@$$CBKUSPartyMemberInfo@CPythonPlayer@@@std@@PAX@std@@@std@@@std@@SAXAAV?$allocator@U?$_Tree_node@U?$pair@$$CBKUSPartyMemberInfo@CPythonPlayer@@@std@@PAX@std@@@2@QAU?$_Tree_node@U?$pair@$$CBKUSPartyMemberInfo@CPythonPlayer@@@std@@PAX@2@I@Z ENDP ; std::_Default_allocator_traits<std::allocator<std::_Tree_node<std::pair<unsigned long const ,CPythonPlayer::SPartyMemberInfo>,void *> > >::deallocate
_TEXT	ENDS
; Function compile flags: /Ogtp
; File C:\Program Files\Microsoft Visual Studio\2022\Community\VC\Tools\MSVC\14.34.31933\include\xmemory
;	COMDAT ??0?$allocator@U?$_Tree_node@U?$pair@$$CBKUSPartyMemberInfo@CPythonPlayer@@@std@@PAX@std@@@std@@QAE@XZ
_TEXT	SEGMENT
??0?$allocator@U?$_Tree_node@U?$pair@$$CBKUSPartyMemberInfo@CPythonPlayer@@@std@@PAX@std@@@std@@QAE@XZ PROC ; std::allocator<std::_Tree_node<std::pair<unsigned long const ,CPythonPlayer::SPartyMemberInfo>,void *> >::allocator<std::_Tree_node<std::pair<unsigned long const ,CPythonPlayer::SPartyMemberInfo>,void *> >, COMDAT
; _this$ = ecx

; 819  :     constexpr allocator() noexcept {}

  00000	8b c1		 mov	 eax, ecx
  00002	c3		 ret	 0
??0?$allocator@U?$_Tree_node@U?$pair@$$CBKUSPartyMemberInfo@CPythonPlayer@@@std@@PAX@std@@@std@@QAE@XZ ENDP ; std::allocator<std::_Tree_node<std::pair<unsigned long const ,CPythonPlayer::SPartyMemberInfo>,void *> >::allocator<std::_Tree_node<std::pair<unsigned long const ,CPythonPlayer::SPartyMemberInfo>,void *> >
_TEXT	ENDS
; Function compile flags: /Ogtp
; File C:\Program Files\Microsoft Visual Studio\2022\Community\VC\Tools\MSVC\14.34.31933\include\xmemory
;	COMDAT ?deallocate@?$allocator@U?$_Tree_node@U?$pair@$$CBKUSPartyMemberInfo@CPythonPlayer@@@std@@PAX@std@@@std@@QAEXQAU?$_Tree_node@U?$pair@$$CBKUSPartyMemberInfo@CPythonPlayer@@@std@@PAX@2@I@Z
_TEXT	SEGMENT
__Ptr$ = 8						; size = 4
__Count$dead$ = 12					; size = 4
?deallocate@?$allocator@U?$_Tree_node@U?$pair@$$CBKUSPartyMemberInfo@CPythonPlayer@@@std@@PAX@std@@@std@@QAEXQAU?$_Tree_node@U?$pair@$$CBKUSPartyMemberInfo@CPythonPlayer@@@std@@PAX@2@I@Z PROC ; std::allocator<std::_Tree_node<std::pair<unsigned long const ,CPythonPlayer::SPartyMemberInfo>,void *> >::deallocate, COMDAT
; _this$dead$ = ecx

; 827  :     _CONSTEXPR20 void deallocate(_Ty* const _Ptr, const size_t _Count) {

  00000	55		 push	 ebp
  00001	8b ec		 mov	 ebp, esp

; 255  :         ::operator delete(_Ptr, _Bytes);

  00003	6a 44		 push	 68			; 00000044H
  00005	ff 75 08	 push	 DWORD PTR __Ptr$[ebp]
  00008	e8 00 00 00 00	 call	 ??3@YAXPAXI@Z		; operator delete
  0000d	83 c4 08	 add	 esp, 8

; 828  :         _STL_ASSERT(_Ptr != nullptr || _Count == 0, "null pointer cannot point to a block of non-zero size");
; 829  :         // no overflow check on the following multiply; we assume _Allocate did that check
; 830  :         _Deallocate<_New_alignof<_Ty>>(_Ptr, sizeof(_Ty) * _Count);
; 831  :     }

  00010	5d		 pop	 ebp
  00011	c2 08 00	 ret	 8
?deallocate@?$allocator@U?$_Tree_node@U?$pair@$$CBKUSPartyMemberInfo@CPythonPlayer@@@std@@PAX@std@@@std@@QAEXQAU?$_Tree_node@U?$pair@$$CBKUSPartyMemberInfo@CPythonPlayer@@@std@@PAX@2@I@Z ENDP ; std::allocator<std::_Tree_node<std::pair<unsigned long const ,CPythonPlayer::SPartyMemberInfo>,void *> >::deallocate
_TEXT	ENDS
; Function compile flags: /Ogtp
; File C:\Program Files\Microsoft Visual Studio\2022\Community\VC\Tools\MSVC\14.34.31933\include\xtree
; File C:\Program Files\Microsoft Visual Studio\2022\Community\VC\Tools\MSVC\14.34.31933\include\utility
; File C:\Program Files\Microsoft Visual Studio\2022\Community\VC\Tools\MSVC\14.34.31933\include\xtree
; File C:\Program Files\Microsoft Visual Studio\2022\Community\VC\Tools\MSVC\14.34.31933\include\xmemory
; File C:\Program Files\Microsoft Visual Studio\2022\Community\VC\Tools\MSVC\14.34.31933\include\xtree
; File C:\Program Files\Microsoft Visual Studio\2022\Community\VC\Tools\MSVC\14.34.31933\include\xmemory
; File C:\Program Files\Microsoft Visual Studio\2022\Community\VC\Tools\MSVC\14.34.31933\include\xtree
; File C:\Program Files\Microsoft Visual Studio\2022\Community\VC\Tools\MSVC\14.34.31933\include\utility
; File C:\Program Files\Microsoft Visual Studio\2022\Community\VC\Tools\MSVC\14.34.31933\include\xtree
; File C:\Program Files\Microsoft Visual Studio\2022\Community\VC\Tools\MSVC\14.34.31933\include\utility
; File C:\Program Files\Microsoft Visual Studio\2022\Community\VC\Tools\MSVC\14.34.31933\include\xtree
;	COMDAT ??$_Emplace@U?$pair@KUSPartyMemberInfo@CPythonPlayer@@@std@@@?$_Tree@V?$_Tmap_traits@KUSPartyMemberInfo@CPythonPlayer@@U?$less@K@std@@V?$allocator@U?$pair@$$CBKUSPartyMemberInfo@CPythonPlayer@@@std@@@4@$0A@@std@@@std@@IAE?AU?$pair@PAU?$_Tree_node@U?$pair@$$CBKUSPartyMemberInfo@CPythonPlayer@@@std@@PAX@std@@_N@1@$$QAU?$pair@KUSPartyMemberInfo@CPythonPlayer@@@1@@Z
_TEXT	SEGMENT
__Loc$ = -40						; size = 12
$T2 = -28						; size = 12
$T3 = -24						; size = 8
_this$1$ = -16						; size = 4
__$EHRec$ = -12						; size = 12
___$ReturnUdt$ = 8					; size = 4
_<_Vals_0>$ = 12					; size = 4
??$_Emplace@U?$pair@KUSPartyMemberInfo@CPythonPlayer@@@std@@@?$_Tree@V?$_Tmap_traits@KUSPartyMemberInfo@CPythonPlayer@@U?$less@K@std@@V?$allocator@U?$pair@$$CBKUSPartyMemberInfo@CPythonPlayer@@@std@@@4@$0A@@std@@@std@@IAE?AU?$pair@PAU?$_Tree_node@U?$pair@$$CBKUSPartyMemberInfo@CPythonPlayer@@@std@@PAX@std@@_N@1@$$QAU?$pair@KUSPartyMemberInfo@CPythonPlayer@@@1@@Z PROC ; std::_Tree<std::_Tmap_traits<unsigned long,CPythonPlayer::SPartyMemberInfo,std::less<unsigned long>,std::allocator<std::pair<unsigned long const ,CPythonPlayer::SPartyMemberInfo> >,0> >::_Emplace<std::pair<unsigned long,CPythonPlayer::SPartyMemberInfo> >, COMDAT
; _this$ = ecx

; 994  :     pair<_Nodeptr, bool> _Emplace(_Valtys&&... _Vals) {

  00000	55		 push	 ebp
  00001	8b ec		 mov	 ebp, esp
  00003	6a ff		 push	 -1
  00005	68 00 00 00 00	 push	 __ehhandler$??$_Emplace@U?$pair@KUSPartyMemberInfo@CPythonPlayer@@@std@@@?$_Tree@V?$_Tmap_traits@KUSPartyMemberInfo@CPythonPlayer@@U?$less@K@std@@V?$allocator@U?$pair@$$CBKUSPartyMemberInfo@CPythonPlayer@@@std@@@4@$0A@@std@@@std@@IAE?AU?$pair@PAU?$_Tree_node@U?$pair@$$CBKUSPartyMemberInfo@CPythonPlayer@@@std@@PAX@std@@_N@1@$$QAU?$pair@KUSPartyMemberInfo@CPythonPlayer@@@1@@Z
  0000a	64 a1 00 00 00
	00		 mov	 eax, DWORD PTR fs:0
  00010	50		 push	 eax
  00011	83 ec 1c	 sub	 esp, 28			; 0000001cH
  00014	53		 push	 ebx
  00015	56		 push	 esi
  00016	57		 push	 edi
  00017	a1 00 00 00 00	 mov	 eax, DWORD PTR ___security_cookie
  0001c	33 c5		 xor	 eax, ebp
  0001e	50		 push	 eax
  0001f	8d 45 f4	 lea	 eax, DWORD PTR __$EHRec$[ebp]
  00022	64 a3 00 00 00
	00		 mov	 DWORD PTR fs:0, eax
  00028	8b f1		 mov	 esi, ecx
  0002a	89 75 f0	 mov	 DWORD PTR _this$1$[ebp], esi

; 995  :         using _In_place_key_extractor = typename _Traits::template _In_place_key_extractor<_Remove_cvref_t<_Valtys>...>;
; 996  :         const auto _Scary             = _Get_scary();
; 997  :         _Tree_find_result<_Nodeptr> _Loc;
; 998  :         _Nodeptr _Inserted;
; 999  :         if constexpr (!_Multi && _In_place_key_extractor::_Extractable) {
; 1000 :             const auto& _Keyval = _In_place_key_extractor::_Extract(_Vals...);
; 1001 :             _Loc                = _Find_lower_bound(_Keyval);

  0002d	8b 7d 0c	 mov	 edi, DWORD PTR _<_Vals_0>$[ebp]
  00030	8d 45 e4	 lea	 eax, DWORD PTR $T2[ebp]
  00033	57		 push	 edi
  00034	50		 push	 eax
  00035	e8 00 00 00 00	 call	 ??$_Find_lower_bound@K@?$_Tree@V?$_Tmap_traits@KUSPartyMemberInfo@CPythonPlayer@@U?$less@K@std@@V?$allocator@U?$pair@$$CBKUSPartyMemberInfo@CPythonPlayer@@@std@@@4@$0A@@std@@@std@@IBE?AU?$_Tree_find_result@PAU?$_Tree_node@U?$pair@$$CBKUSPartyMemberInfo@CPythonPlayer@@@std@@PAX@std@@@1@ABK@Z ; std::_Tree<std::_Tmap_traits<unsigned long,CPythonPlayer::SPartyMemberInfo,std::less<unsigned long>,std::allocator<std::pair<unsigned long const ,CPythonPlayer::SPartyMemberInfo> >,0> >::_Find_lower_bound<unsigned long>
  0003a	8b 48 08	 mov	 ecx, DWORD PTR [eax+8]
  0003d	f3 0f 7e 00	 movq	 xmm0, QWORD PTR [eax]
  00041	66 0f d6 45 d8	 movq	 QWORD PTR __Loc$[ebp], xmm0

; 1605 :         return !_Bound->_Isnil && !_DEBUG_LT_PRED(_Getcomp(), _Keyval, _Traits::_Kfn(_Bound->_Myval));

  00046	80 79 0d 00	 cmp	 BYTE PTR [ecx+13], 0
  0004a	75 24		 jne	 SHORT $LN2@Emplace
  0004c	8b 07		 mov	 eax, DWORD PTR [edi]
  0004e	3b 41 10	 cmp	 eax, DWORD PTR [ecx+16]
  00051	72 1d		 jb	 SHORT $LN2@Emplace
; File C:\Program Files\Microsoft Visual Studio\2022\Community\VC\Tools\MSVC\14.34.31933\include\utility

; 172  :         : first(_STD forward<_Other1>(_Val1)), second(_STD forward<_Other2>(_Val2)) {

  00053	8b 45 08	 mov	 eax, DWORD PTR ___$ReturnUdt$[ebp]
  00056	89 08		 mov	 DWORD PTR [eax], ecx
  00058	c6 40 04 00	 mov	 BYTE PTR [eax+4], 0
; File C:\Program Files\Microsoft Visual Studio\2022\Community\VC\Tools\MSVC\14.34.31933\include\xtree

; 1027 :     }

  0005c	8b 4d f4	 mov	 ecx, DWORD PTR __$EHRec$[ebp]
  0005f	64 89 0d 00 00
	00 00		 mov	 DWORD PTR fs:0, ecx
  00066	59		 pop	 ecx
  00067	5f		 pop	 edi
  00068	5e		 pop	 esi
  00069	5b		 pop	 ebx
  0006a	8b e5		 mov	 esp, ebp
  0006c	5d		 pop	 ebp
  0006d	c2 08 00	 ret	 8
$LN2@Emplace:

; 1629 :         if (max_size() == _Get_scary()->_Mysize) {

  00070	81 7e 04 c3 c3
	c3 03		 cmp	 DWORD PTR [esi+4], 63161283 ; 03c3c3c3H
  00077	74 6f		 je	 SHORT $LN92@Emplace

; 1002 :             if (_Lower_bound_duplicate(_Loc._Bound, _Keyval)) {
; 1003 :                 return {_Loc._Bound, false};
; 1004 :             }
; 1005 : 
; 1006 :             _Check_grow_by_1();
; 1007 :             _Inserted = _Tree_temp_node<_Alnode>(_Getal(), _Scary->_Myhead, _STD forward<_Valtys>(_Vals)...)._Release();

  00079	8b 1e		 mov	 ebx, DWORD PTR [esi]
; File C:\Program Files\Microsoft Visual Studio\2022\Community\VC\Tools\MSVC\14.34.31933\include\xmemory

; 1005 :     _CONSTEXPR20 explicit _Alloc_construct_ptr(_Alloc& _Al_) : _Al(_Al_), _Ptr(nullptr) {}

  0007b	89 75 e8	 mov	 DWORD PTR $T3[ebp], esi
; File C:\Program Files\Microsoft Visual Studio\2022\Community\VC\Tools\MSVC\14.34.31933\include\xtree

; 785  :     explicit _Tree_temp_node_alloc(_Alnode& _Al_) : _Alloc_construct_ptr<_Alnode>(_Al_) {

  0007e	c7 45 fc 00 00
	00 00		 mov	 DWORD PTR __$EHRec$[ebp+8], 0
; File C:\Program Files\Microsoft Visual Studio\2022\Community\VC\Tools\MSVC\14.34.31933\include\xmemory

; 77   :         return ::operator new(_Bytes);

  00085	6a 44		 push	 68			; 00000044H

; 1012 :         _Ptr = nullptr; // if allocate throws, prevents double-free

  00087	c7 45 ec 00 00
	00 00		 mov	 DWORD PTR $T3[ebp+4], 0

; 77   :         return ::operator new(_Bytes);

  0008e	e8 00 00 00 00	 call	 ??2@YAPAXI@Z		; operator new

; 1013 :         _Ptr = _Al.allocate(1);

  00093	8b f8		 mov	 edi, eax

; 77   :         return ::operator new(_Bytes);

  00095	83 c4 04	 add	 esp, 4
; File C:\Program Files\Microsoft Visual Studio\2022\Community\VC\Tools\MSVC\14.34.31933\include\xtree

; 808  :         _Construct_in_place(this->_Ptr->_Left, _Myhead);

  00098	8b 45 0c	 mov	 eax, DWORD PTR _<_Vals_0>$[ebp]
  0009b	8d 4f 14	 lea	 ecx, DWORD PTR [edi+20]
  0009e	8b 10		 mov	 edx, DWORD PTR [eax]
  000a0	8d 70 04	 lea	 esi, DWORD PTR [eax+4]
  000a3	56		 push	 esi
  000a4	89 57 10	 mov	 DWORD PTR [edi+16], edx
  000a7	e8 00 00 00 00	 call	 ??0SPartyMemberInfo@CPythonPlayer@@QAE@$$QAU01@@Z

; 1026 :         return {_Scary->_Insert_node(_Loc._Location, _Inserted), true};

  000ac	8b 4d f0	 mov	 ecx, DWORD PTR _this$1$[ebp]
  000af	57		 push	 edi
  000b0	ff 75 dc	 push	 DWORD PTR __Loc$[ebp+4]

; 808  :         _Construct_in_place(this->_Ptr->_Left, _Myhead);

  000b3	89 1f		 mov	 DWORD PTR [edi], ebx

; 1026 :         return {_Scary->_Insert_node(_Loc._Location, _Inserted), true};

  000b5	ff 75 d8	 push	 DWORD PTR __Loc$[ebp]

; 809  :         _Construct_in_place(this->_Ptr->_Parent, _Myhead);

  000b8	89 5f 04	 mov	 DWORD PTR [edi+4], ebx

; 810  :         _Construct_in_place(this->_Ptr->_Right, _Myhead);

  000bb	89 5f 08	 mov	 DWORD PTR [edi+8], ebx

; 811  :         this->_Ptr->_Color = _Red;

  000be	66 c7 47 0c 00
	00		 mov	 WORD PTR [edi+12], 0

; 1026 :         return {_Scary->_Insert_node(_Loc._Location, _Inserted), true};

  000c4	e8 00 00 00 00	 call	 ?_Insert_node@?$_Tree_val@U?$_Tree_simple_types@U?$pair@$$CBKUSPartyMemberInfo@CPythonPlayer@@@std@@@std@@@std@@QAEPAU?$_Tree_node@U?$pair@$$CBKUSPartyMemberInfo@CPythonPlayer@@@std@@PAX@2@U?$_Tree_id@PAU?$_Tree_node@U?$pair@$$CBKUSPartyMemberInfo@CPythonPlayer@@@std@@PAX@std@@@2@QAU32@@Z ; std::_Tree_val<std::_Tree_simple_types<std::pair<unsigned long const ,CPythonPlayer::SPartyMemberInfo> > >::_Insert_node
; File C:\Program Files\Microsoft Visual Studio\2022\Community\VC\Tools\MSVC\14.34.31933\include\utility

; 172  :         : first(_STD forward<_Other1>(_Val1)), second(_STD forward<_Other2>(_Val2)) {

  000c9	8b 4d 08	 mov	 ecx, DWORD PTR ___$ReturnUdt$[ebp]
  000cc	89 01		 mov	 DWORD PTR [ecx], eax
; File C:\Program Files\Microsoft Visual Studio\2022\Community\VC\Tools\MSVC\14.34.31933\include\xtree

; 1026 :         return {_Scary->_Insert_node(_Loc._Location, _Inserted), true};

  000ce	8b c1		 mov	 eax, ecx
; File C:\Program Files\Microsoft Visual Studio\2022\Community\VC\Tools\MSVC\14.34.31933\include\utility

; 172  :         : first(_STD forward<_Other1>(_Val1)), second(_STD forward<_Other2>(_Val2)) {

  000d0	c6 41 04 01	 mov	 BYTE PTR [ecx+4], 1
; File C:\Program Files\Microsoft Visual Studio\2022\Community\VC\Tools\MSVC\14.34.31933\include\xtree

; 1027 :     }

  000d4	8b 4d f4	 mov	 ecx, DWORD PTR __$EHRec$[ebp]
  000d7	64 89 0d 00 00
	00 00		 mov	 DWORD PTR fs:0, ecx
  000de	59		 pop	 ecx
  000df	5f		 pop	 edi
  000e0	5e		 pop	 esi
  000e1	5b		 pop	 ebx
  000e2	8b e5		 mov	 esp, ebp
  000e4	5d		 pop	 ebp
  000e5	c2 08 00	 ret	 8
$LN92@Emplace:

; 1630 :             _Throw_tree_length_error();

  000e8	e8 00 00 00 00	 call	 ?_Throw_tree_length_error@std@@YAXXZ ; std::_Throw_tree_length_error
$LN90@Emplace:
  000ed	cc		 int	 3
_TEXT	ENDS
;	COMDAT text$x
text$x	SEGMENT
__unwindfunclet$??$_Emplace@U?$pair@KUSPartyMemberInfo@CPythonPlayer@@@std@@@?$_Tree@V?$_Tmap_traits@KUSPartyMemberInfo@CPythonPlayer@@U?$less@K@std@@V?$allocator@U?$pair@$$CBKUSPartyMemberInfo@CPythonPlayer@@@std@@@4@$0A@@std@@@std@@IAE?AU?$pair@PAU?$_Tree_node@U?$pair@$$CBKUSPartyMemberInfo@CPythonPlayer@@@std@@PAX@std@@_N@1@$$QAU?$pair@KUSPartyMemberInfo@CPythonPlayer@@@1@@Z$2:
  00000	8d 4d e8	 lea	 ecx, DWORD PTR $T3[ebp]
  00003	e9 00 00 00 00	 jmp	 ??1?$_Alloc_construct_ptr@V?$allocator@U?$_Tree_node@U?$pair@$$CBKUSPartyMemberInfo@CPythonPlayer@@@std@@PAX@std@@@std@@@std@@QAE@XZ ; std::_Alloc_construct_ptr<std::allocator<std::_Tree_node<std::pair<unsigned long const ,CPythonPlayer::SPartyMemberInfo>,void *> > >::~_Alloc_construct_ptr<std::allocator<std::_Tree_node<std::pair<unsigned long const ,CPythonPlayer::SPartyMemberInfo>,void *> > >
  00008	cc		 int	 3
  00009	cc		 int	 3
  0000a	cc		 int	 3
  0000b	cc		 int	 3
  0000c	cc		 int	 3
__ehhandler$??$_Emplace@U?$pair@KUSPartyMemberInfo@CPythonPlayer@@@std@@@?$_Tree@V?$_Tmap_traits@KUSPartyMemberInfo@CPythonPlayer@@U?$less@K@std@@V?$allocator@U?$pair@$$CBKUSPartyMemberInfo@CPythonPlayer@@@std@@@4@$0A@@std@@@std@@IAE?AU?$pair@PAU?$_Tree_node@U?$pair@$$CBKUSPartyMemberInfo@CPythonPlayer@@@std@@PAX@std@@_N@1@$$QAU?$pair@KUSPartyMemberInfo@CPythonPlayer@@@1@@Z:
  0000d	90		 npad	 1
  0000e	90		 npad	 1
  0000f	8b 54 24 08	 mov	 edx, DWORD PTR [esp+8]
  00013	8d 42 0c	 lea	 eax, DWORD PTR [edx+12]
  00016	8b 4a d4	 mov	 ecx, DWORD PTR [edx-44]
  00019	33 c8		 xor	 ecx, eax
  0001b	e8 00 00 00 00	 call	 @__security_check_cookie@4
  00020	b8 00 00 00 00	 mov	 eax, OFFSET __ehfuncinfo$??$_Emplace@U?$pair@KUSPartyMemberInfo@CPythonPlayer@@@std@@@?$_Tree@V?$_Tmap_traits@KUSPartyMemberInfo@CPythonPlayer@@U?$less@K@std@@V?$allocator@U?$pair@$$CBKUSPartyMemberInfo@CPythonPlayer@@@std@@@4@$0A@@std@@@std@@IAE?AU?$pair@PAU?$_Tree_node@U?$pair@$$CBKUSPartyMemberInfo@CPythonPlayer@@@std@@PAX@std@@_N@1@$$QAU?$pair@KUSPartyMemberInfo@CPythonPlayer@@@1@@Z
  00025	e9 00 00 00 00	 jmp	 ___CxxFrameHandler3
text$x	ENDS
??$_Emplace@U?$pair@KUSPartyMemberInfo@CPythonPlayer@@@std@@@?$_Tree@V?$_Tmap_traits@KUSPartyMemberInfo@CPythonPlayer@@U?$less@K@std@@V?$allocator@U?$pair@$$CBKUSPartyMemberInfo@CPythonPlayer@@@std@@@4@$0A@@std@@@std@@IAE?AU?$pair@PAU?$_Tree_node@U?$pair@$$CBKUSPartyMemberInfo@CPythonPlayer@@@std@@PAX@std@@_N@1@$$QAU?$pair@KUSPartyMemberInfo@CPythonPlayer@@@1@@Z ENDP ; std::_Tree<std::_Tmap_traits<unsigned long,CPythonPlayer::SPartyMemberInfo,std::less<unsigned long>,std::allocator<std::pair<unsigned long const ,CPythonPlayer::SPartyMemberInfo> >,0> >::_Emplace<std::pair<unsigned long,CPythonPlayer::SPartyMemberInfo> >
; Function compile flags: /Ogtp
; File C:\Program Files\Microsoft Visual Studio\2022\Community\VC\Tools\MSVC\14.34.31933\include\utility
;	COMDAT ??$?0V?$_Tree_iterator@V?$_Tree_val@U?$_Tree_simple_types@U?$pair@$$CBKUSPartyMemberInfo@CPythonPlayer@@@std@@@std@@@std@@@std@@AB_N$0A@@?$pair@V?$_Tree_iterator@V?$_Tree_val@U?$_Tree_simple_types@U?$pair@$$CBKUSPartyMemberInfo@CPythonPlayer@@@std@@@std@@@std@@@std@@_N@std@@QAE@$$QAV?$_Tree_iterator@V?$_Tree_val@U?$_Tree_simple_types@U?$pair@$$CBKUSPartyMemberInfo@CPythonPlayer@@@std@@@std@@@std@@@1@AB_N@Z
_TEXT	SEGMENT
__Val1$ = 8						; size = 4
__Val2$ = 12						; size = 4
??$?0V?$_Tree_iterator@V?$_Tree_val@U?$_Tree_simple_types@U?$pair@$$CBKUSPartyMemberInfo@CPythonPlayer@@@std@@@std@@@std@@@std@@AB_N$0A@@?$pair@V?$_Tree_iterator@V?$_Tree_val@U?$_Tree_simple_types@U?$pair@$$CBKUSPartyMemberInfo@CPythonPlayer@@@std@@@std@@@std@@@std@@_N@std@@QAE@$$QAV?$_Tree_iterator@V?$_Tree_val@U?$_Tree_simple_types@U?$pair@$$CBKUSPartyMemberInfo@CPythonPlayer@@@std@@@std@@@std@@@1@AB_N@Z PROC ; std::pair<std::_Tree_iterator<std::_Tree_val<std::_Tree_simple_types<std::pair<unsigned long const ,CPythonPlayer::SPartyMemberInfo> > > >,bool>::pair<std::_Tree_iterator<std::_Tree_val<std::_Tree_simple_types<std::pair<unsigned long const ,CPythonPlayer::SPartyMemberInfo> > > >,bool><std::_Tree_iterator<std::_Tree_val<std::_Tree_simple_types<std::pair<unsigned long const ,CPythonPlayer::SPartyMemberInfo> > > >,bool const &,0>, COMDAT
; _this$ = ecx

; 172  :         : first(_STD forward<_Other1>(_Val1)), second(_STD forward<_Other2>(_Val2)) {

  00000	55		 push	 ebp
  00001	8b ec		 mov	 ebp, esp
  00003	8b 45 08	 mov	 eax, DWORD PTR __Val1$[ebp]
  00006	8b 00		 mov	 eax, DWORD PTR [eax]
  00008	89 01		 mov	 DWORD PTR [ecx], eax
  0000a	8b 45 0c	 mov	 eax, DWORD PTR __Val2$[ebp]
  0000d	8a 00		 mov	 al, BYTE PTR [eax]
  0000f	88 41 04	 mov	 BYTE PTR [ecx+4], al

; 173  :     }

  00012	8b c1		 mov	 eax, ecx
  00014	5d		 pop	 ebp
  00015	c2 08 00	 ret	 8
??$?0V?$_Tree_iterator@V?$_Tree_val@U?$_Tree_simple_types@U?$pair@$$CBKUSPartyMemberInfo@CPythonPlayer@@@std@@@std@@@std@@@std@@AB_N$0A@@?$pair@V?$_Tree_iterator@V?$_Tree_val@U?$_Tree_simple_types@U?$pair@$$CBKUSPartyMemberInfo@CPythonPlayer@@@std@@@std@@@std@@@std@@_N@std@@QAE@$$QAV?$_Tree_iterator@V?$_Tree_val@U?$_Tree_simple_types@U?$pair@$$CBKUSPartyMemberInfo@CPythonPlayer@@@std@@@std@@@std@@@1@AB_N@Z ENDP ; std::pair<std::_Tree_iterator<std::_Tree_val<std::_Tree_simple_types<std::pair<unsigned long const ,CPythonPlayer::SPartyMemberInfo> > > >,bool>::pair<std::_Tree_iterator<std::_Tree_val<std::_Tree_simple_types<std::pair<unsigned long const ,CPythonPlayer::SPartyMemberInfo> > > >,bool><std::_Tree_iterator<std::_Tree_val<std::_Tree_simple_types<std::pair<unsigned long const ,CPythonPlayer::SPartyMemberInfo> > > >,bool const &,0>
_TEXT	ENDS
; Function compile flags: /Ogtp
; File C:\Program Files\Microsoft Visual Studio\2022\Community\VC\Tools\MSVC\14.34.31933\include\type_traits
;	COMDAT ??$forward@AAPAU?$_Tree_node@U?$pair@$$CBKUSPartyMemberInfo@CPythonPlayer@@@std@@PAX@std@@@std@@YAAAPAU?$_Tree_node@U?$pair@$$CBKUSPartyMemberInfo@CPythonPlayer@@@std@@PAX@0@AAPAU10@@Z
_TEXT	SEGMENT
??$forward@AAPAU?$_Tree_node@U?$pair@$$CBKUSPartyMemberInfo@CPythonPlayer@@@std@@PAX@std@@@std@@YAAAPAU?$_Tree_node@U?$pair@$$CBKUSPartyMemberInfo@CPythonPlayer@@@std@@PAX@0@AAPAU10@@Z PROC ; std::forward<std::_Tree_node<std::pair<unsigned long const ,CPythonPlayer::SPartyMemberInfo>,void *> * &>, COMDAT
; __Arg$ = ecx

; 1426 :     return static_cast<_Ty&&>(_Arg);

  00000	8b c1		 mov	 eax, ecx

; 1427 : }

  00002	c3		 ret	 0
??$forward@AAPAU?$_Tree_node@U?$pair@$$CBKUSPartyMemberInfo@CPythonPlayer@@@std@@PAX@std@@@std@@YAAAPAU?$_Tree_node@U?$pair@$$CBKUSPartyMemberInfo@CPythonPlayer@@@std@@PAX@0@AAPAU10@@Z ENDP ; std::forward<std::_Tree_node<std::pair<unsigned long const ,CPythonPlayer::SPartyMemberInfo>,void *> * &>
_TEXT	ENDS
; Function compile flags: /Ogtp
; File C:\Program Files\Microsoft Visual Studio\2022\Community\VC\Tools\MSVC\14.34.31933\include\xmemory
;	COMDAT ??$_Destroy_in_place@PAU?$_Tree_node@U?$pair@$$CBKUSPartyMemberInfo@CPythonPlayer@@@std@@PAX@std@@@std@@YAXAAPAU?$_Tree_node@U?$pair@$$CBKUSPartyMemberInfo@CPythonPlayer@@@std@@PAX@0@@Z
_TEXT	SEGMENT
??$_Destroy_in_place@PAU?$_Tree_node@U?$pair@$$CBKUSPartyMemberInfo@CPythonPlayer@@@std@@PAX@std@@@std@@YAXAAPAU?$_Tree_node@U?$pair@$$CBKUSPartyMemberInfo@CPythonPlayer@@@std@@PAX@0@@Z PROC ; std::_Destroy_in_place<std::_Tree_node<std::pair<unsigned long const ,CPythonPlayer::SPartyMemberInfo>,void *> *>, COMDAT
; __Obj$dead$ = ecx

; 295  :     if constexpr (is_array_v<_Ty>) {
; 296  :         _Destroy_range(_Obj, _Obj + extent_v<_Ty>);
; 297  :     } else {
; 298  :         _Obj.~_Ty();
; 299  :     }
; 300  : }

  00000	c2 00 00	 ret	 0
??$_Destroy_in_place@PAU?$_Tree_node@U?$pair@$$CBKUSPartyMemberInfo@CPythonPlayer@@@std@@PAX@std@@@std@@YAXAAPAU?$_Tree_node@U?$pair@$$CBKUSPartyMemberInfo@CPythonPlayer@@@std@@PAX@0@@Z ENDP ; std::_Destroy_in_place<std::_Tree_node<std::pair<unsigned long const ,CPythonPlayer::SPartyMemberInfo>,void *> *>
_TEXT	ENDS
; Function compile flags: /Ogtp
; File C:\Program Files\Microsoft Visual Studio\2022\Community\VC\Tools\MSVC\14.34.31933\include\xmemory
; File C:\Program Files\Microsoft Visual Studio\2022\Community\VC\Tools\MSVC\14.34.31933\include\utility
; File C:\Program Files\Microsoft Visual Studio\2022\Community\VC\Tools\MSVC\14.34.31933\include\xmemory
;	COMDAT ??$construct@U?$pair@$$CBKK@std@@ABUpiecewise_construct_t@2@V?$tuple@ABK@2@V?$tuple@$$V@2@@?$_Default_allocator_traits@V?$allocator@U?$_Tree_node@U?$pair@$$CBKK@std@@PAX@std@@@std@@@std@@SAXAAV?$allocator@U?$_Tree_node@U?$pair@$$CBKK@std@@PAX@std@@@1@QAU?$pair@$$CBKK@1@ABUpiecewise_construct_t@1@$$QAV?$tuple@ABK@1@$$QAV?$tuple@$$V@1@@Z
_TEXT	SEGMENT
_<_Args_0>$dead$ = 8					; size = 4
_<_Args_1>$ = 12					; size = 4
_<_Args_2>$dead$ = 16					; size = 4
??$construct@U?$pair@$$CBKK@std@@ABUpiecewise_construct_t@2@V?$tuple@ABK@2@V?$tuple@$$V@2@@?$_Default_allocator_traits@V?$allocator@U?$_Tree_node@U?$pair@$$CBKK@std@@PAX@std@@@std@@@std@@SAXAAV?$allocator@U?$_Tree_node@U?$pair@$$CBKK@std@@PAX@std@@@1@QAU?$pair@$$CBKK@1@ABUpiecewise_construct_t@1@$$QAV?$tuple@ABK@1@$$QAV?$tuple@$$V@1@@Z PROC ; std::_Default_allocator_traits<std::allocator<std::_Tree_node<std::pair<unsigned long const ,unsigned long>,void *> > >::construct<std::pair<unsigned long const ,unsigned long>,std::piecewise_construct_t const &,std::tuple<unsigned long const &>,std::tuple<> >, COMDAT
; ___formal$dead$ = ecx
; __Ptr$ = edx

; 673  :     static _CONSTEXPR20 void construct(_Alloc&, _Objty* const _Ptr, _Types&&... _Args) {

  00000	55		 push	 ebp
  00001	8b ec		 mov	 ebp, esp
; File C:\Program Files\Microsoft Visual Studio\2022\Community\VC\Tools\MSVC\14.34.31933\include\utility

; 214  :         : first(_Tuple_get<_Indexes1>(_STD move(_Val1))...), second(_Tuple_get<_Indexes2>(_STD move(_Val2))...) {}

  00003	8b 45 0c	 mov	 eax, DWORD PTR _<_Args_1>$[ebp]
  00006	8b 00		 mov	 eax, DWORD PTR [eax]
; File C:\Program Files\Microsoft Visual Studio\2022\Community\VC\Tools\MSVC\14.34.31933\include\xmemory

; 682  :     }

  00008	8b 00		 mov	 eax, DWORD PTR [eax]
  0000a	89 02		 mov	 DWORD PTR [edx], eax
  0000c	c7 42 04 00 00
	00 00		 mov	 DWORD PTR [edx+4], 0
  00013	5d		 pop	 ebp
  00014	c3		 ret	 0
??$construct@U?$pair@$$CBKK@std@@ABUpiecewise_construct_t@2@V?$tuple@ABK@2@V?$tuple@$$V@2@@?$_Default_allocator_traits@V?$allocator@U?$_Tree_node@U?$pair@$$CBKK@std@@PAX@std@@@std@@@std@@SAXAAV?$allocator@U?$_Tree_node@U?$pair@$$CBKK@std@@PAX@std@@@1@QAU?$pair@$$CBKK@1@ABUpiecewise_construct_t@1@$$QAV?$tuple@ABK@1@$$QAV?$tuple@$$V@1@@Z ENDP ; std::_Default_allocator_traits<std::allocator<std::_Tree_node<std::pair<unsigned long const ,unsigned long>,void *> > >::construct<std::pair<unsigned long const ,unsigned long>,std::piecewise_construct_t const &,std::tuple<unsigned long const &>,std::tuple<> >
_TEXT	ENDS
; Function compile flags: /Ogtp
; File C:\Program Files\Microsoft Visual Studio\2022\Community\VC\Tools\MSVC\14.34.31933\include\xstddef
;	COMDAT ??$addressof@PAU?$_Tree_node@U?$pair@$$CBKUSPartyMemberInfo@CPythonPlayer@@@std@@PAX@std@@@std@@YAPAPAU?$_Tree_node@U?$pair@$$CBKUSPartyMemberInfo@CPythonPlayer@@@std@@PAX@0@AAPAU10@@Z
_TEXT	SEGMENT
??$addressof@PAU?$_Tree_node@U?$pair@$$CBKUSPartyMemberInfo@CPythonPlayer@@@std@@PAX@std@@@std@@YAPAPAU?$_Tree_node@U?$pair@$$CBKUSPartyMemberInfo@CPythonPlayer@@@std@@PAX@0@AAPAU10@@Z PROC ; std::addressof<std::_Tree_node<std::pair<unsigned long const ,CPythonPlayer::SPartyMemberInfo>,void *> *>, COMDAT
; __Val$ = ecx

; 281  :     return __builtin_addressof(_Val);

  00000	8b c1		 mov	 eax, ecx

; 282  : }

  00002	c3		 ret	 0
??$addressof@PAU?$_Tree_node@U?$pair@$$CBKUSPartyMemberInfo@CPythonPlayer@@@std@@PAX@std@@@std@@YAPAPAU?$_Tree_node@U?$pair@$$CBKUSPartyMemberInfo@CPythonPlayer@@@std@@PAX@0@AAPAU10@@Z ENDP ; std::addressof<std::_Tree_node<std::pair<unsigned long const ,CPythonPlayer::SPartyMemberInfo>,void *> *>
_TEXT	ENDS
; Function compile flags: /Ogtp
; File C:\Program Files\Microsoft Visual Studio\2022\Community\VC\Tools\MSVC\14.34.31933\include\type_traits
;	COMDAT ??$forward@ABQAU?$_Tree_node@U?$pair@$$CBKUSPartyMemberInfo@CPythonPlayer@@@std@@PAX@std@@@std@@YAABQAU?$_Tree_node@U?$pair@$$CBKUSPartyMemberInfo@CPythonPlayer@@@std@@PAX@0@ABQAU10@@Z
_TEXT	SEGMENT
??$forward@ABQAU?$_Tree_node@U?$pair@$$CBKUSPartyMemberInfo@CPythonPlayer@@@std@@PAX@std@@@std@@YAABQAU?$_Tree_node@U?$pair@$$CBKUSPartyMemberInfo@CPythonPlayer@@@std@@PAX@0@ABQAU10@@Z PROC ; std::forward<std::_Tree_node<std::pair<unsigned long const ,CPythonPlayer::SPartyMemberInfo>,void *> * const &>, COMDAT
; __Arg$ = ecx

; 1426 :     return static_cast<_Ty&&>(_Arg);

  00000	8b c1		 mov	 eax, ecx

; 1427 : }

  00002	c3		 ret	 0
??$forward@ABQAU?$_Tree_node@U?$pair@$$CBKUSPartyMemberInfo@CPythonPlayer@@@std@@PAX@std@@@std@@YAABQAU?$_Tree_node@U?$pair@$$CBKUSPartyMemberInfo@CPythonPlayer@@@std@@PAX@0@ABQAU10@@Z ENDP ; std::forward<std::_Tree_node<std::pair<unsigned long const ,CPythonPlayer::SPartyMemberInfo>,void *> * const &>
_TEXT	ENDS
; Function compile flags: /Ogtp
; File C:\Program Files\Microsoft Visual Studio\2022\Community\VC\Tools\MSVC\14.34.31933\include\xutility
;	COMDAT ??$construct_at@PAU?$_Tree_node@U?$pair@$$CBKUSPartyMemberInfo@CPythonPlayer@@@std@@PAX@std@@ABQAU12@$0A@@std@@YAPAPAU?$_Tree_node@U?$pair@$$CBKUSPartyMemberInfo@CPythonPlayer@@@std@@PAX@0@QAPAU10@ABQAU10@@Z
_TEXT	SEGMENT
??$construct_at@PAU?$_Tree_node@U?$pair@$$CBKUSPartyMemberInfo@CPythonPlayer@@@std@@PAX@std@@ABQAU12@$0A@@std@@YAPAPAU?$_Tree_node@U?$pair@$$CBKUSPartyMemberInfo@CPythonPlayer@@@std@@PAX@0@QAPAU10@ABQAU10@@Z PROC ; std::construct_at<std::_Tree_node<std::pair<unsigned long const ,CPythonPlayer::SPartyMemberInfo>,void *> *,std::_Tree_node<std::pair<unsigned long const ,CPythonPlayer::SPartyMemberInfo>,void *> * const &,0>, COMDAT
; __Location$ = ecx
; _<_Args_0>$ = edx

; 218  :     _MSVC_CONSTEXPR return ::new (_Voidify_iter(_Location)) _Ty(_STD forward<_Types>(_Args)...);

  00000	8b 02		 mov	 eax, DWORD PTR [edx]
  00002	89 01		 mov	 DWORD PTR [ecx], eax
  00004	8b c1		 mov	 eax, ecx

; 219  : }

  00006	c3		 ret	 0
??$construct_at@PAU?$_Tree_node@U?$pair@$$CBKUSPartyMemberInfo@CPythonPlayer@@@std@@PAX@std@@ABQAU12@$0A@@std@@YAPAPAU?$_Tree_node@U?$pair@$$CBKUSPartyMemberInfo@CPythonPlayer@@@std@@PAX@0@QAPAU10@ABQAU10@@Z ENDP ; std::construct_at<std::_Tree_node<std::pair<unsigned long const ,CPythonPlayer::SPartyMemberInfo>,void *> *,std::_Tree_node<std::pair<unsigned long const ,CPythonPlayer::SPartyMemberInfo>,void *> * const &,0>
_TEXT	ENDS
; Function compile flags: /Ogtp
; File C:\Program Files\Microsoft Visual Studio\2022\Community\VC\Tools\MSVC\14.34.31933\include\xutility
;	COMDAT ??$_Voidify_iter@PAPAU?$_Tree_node@U?$pair@$$CBKUSPartyMemberInfo@CPythonPlayer@@@std@@PAX@std@@@std@@YAPAXPAPAU?$_Tree_node@U?$pair@$$CBKUSPartyMemberInfo@CPythonPlayer@@@std@@PAX@0@@Z
_TEXT	SEGMENT
??$_Voidify_iter@PAPAU?$_Tree_node@U?$pair@$$CBKUSPartyMemberInfo@CPythonPlayer@@@std@@PAX@std@@@std@@YAPAXPAPAU?$_Tree_node@U?$pair@$$CBKUSPartyMemberInfo@CPythonPlayer@@@std@@PAX@0@@Z PROC ; std::_Voidify_iter<std::_Tree_node<std::pair<unsigned long const ,CPythonPlayer::SPartyMemberInfo>,void *> * *>, COMDAT
; __It$ = ecx

; 201  :     if constexpr (is_pointer_v<_Iter>) {
; 202  :         return const_cast<void*>(static_cast<const volatile void*>(_It));

  00000	8b c1		 mov	 eax, ecx

; 203  :     } else {
; 204  :         return const_cast<void*>(static_cast<const volatile void*>(_STD addressof(*_It)));
; 205  :     }
; 206  : }

  00002	c3		 ret	 0
??$_Voidify_iter@PAPAU?$_Tree_node@U?$pair@$$CBKUSPartyMemberInfo@CPythonPlayer@@@std@@PAX@std@@@std@@YAPAXPAPAU?$_Tree_node@U?$pair@$$CBKUSPartyMemberInfo@CPythonPlayer@@@std@@PAX@0@@Z ENDP ; std::_Voidify_iter<std::_Tree_node<std::pair<unsigned long const ,CPythonPlayer::SPartyMemberInfo>,void *> * *>
_TEXT	ENDS
; Function compile flags: /Ogtp
; File C:\Program Files\Microsoft Visual Studio\2022\Community\VC\Tools\MSVC\14.34.31933\include\xmemory
; File C:\Program Files\Microsoft Visual Studio\2022\Community\VC\Tools\MSVC\14.34.31933\include\xstring
; File C:\Program Files\Microsoft Visual Studio\2022\Community\VC\Tools\MSVC\14.34.31933\include\xmemory
; File C:\Program Files\Microsoft Visual Studio\2022\Community\VC\Tools\MSVC\14.34.31933\include\xstring
; File C:\Program Files\Microsoft Visual Studio\2022\Community\VC\Tools\MSVC\14.34.31933\include\xmemory
; File C:\Program Files\Microsoft Visual Studio\2022\Community\VC\Tools\MSVC\14.34.31933\include\xstring
; File C:\Program Files\Microsoft Visual Studio\2022\Community\VC\Tools\MSVC\14.34.31933\include\xmemory
;	COMDAT ??$destroy_at@U?$pair@$$CBKUSPartyMemberInfo@CPythonPlayer@@@std@@@std@@YAXQAU?$pair@$$CBKUSPartyMemberInfo@CPythonPlayer@@@0@@Z
_TEXT	SEGMENT
??$destroy_at@U?$pair@$$CBKUSPartyMemberInfo@CPythonPlayer@@@std@@@std@@YAXQAU?$pair@$$CBKUSPartyMemberInfo@CPythonPlayer@@@0@@Z PROC ; std::destroy_at<std::pair<unsigned long const ,CPythonPlayer::SPartyMemberInfo> >, COMDAT
; __Location$ = ecx

; 304  : _CONSTEXPR20 void destroy_at(_Ty* const _Location) noexcept /* strengthened */ {

  00000	56		 push	 esi
  00001	8b f1		 mov	 esi, ecx
; File C:\Program Files\Microsoft Visual Studio\2022\Community\VC\Tools\MSVC\14.34.31933\include\xstring

; 2301 :         return _BUF_SIZE <= _Myres;

  00003	8b 4e 20	 mov	 ecx, DWORD PTR [esi+32]
  00006	83 f9 10	 cmp	 ecx, 16			; 00000010H

; 5008 :         if (_My_data._Large_string_engaged()) {

  00009	72 28		 jb	 SHORT $LN24@destroy_at
; File C:\Program Files\Microsoft Visual Studio\2022\Community\VC\Tools\MSVC\14.34.31933\include\xmemory

; 830  :         _Deallocate<_New_alignof<_Ty>>(_Ptr, sizeof(_Ty) * _Count);

  0000b	8b 46 0c	 mov	 eax, DWORD PTR [esi+12]
; File C:\Program Files\Microsoft Visual Studio\2022\Community\VC\Tools\MSVC\14.34.31933\include\xstring

; 5013 :             _Al.deallocate(_Ptr, _My_data._Myres + 1);

  0000e	41		 inc	 ecx
; File C:\Program Files\Microsoft Visual Studio\2022\Community\VC\Tools\MSVC\14.34.31933\include\xmemory

; 251  :         if (_Bytes >= _Big_allocation_threshold) { // boost the alignment of big allocations to help autovectorization

  0000f	81 f9 00 10 00
	00		 cmp	 ecx, 4096		; 00001000H
  00015	72 12		 jb	 SHORT $LN36@destroy_at

; 150  :     const uintptr_t _Ptr_container   = _Ptr_user[-1];

  00017	8b 50 fc	 mov	 edx, DWORD PTR [eax-4]
  0001a	83 c1 23	 add	 ecx, 35			; 00000023H

; 151  : 
; 152  :     // If the following asserts, it likely means that we are performing
; 153  :     // an aligned delete on memory coming from an unaligned allocation.
; 154  :     _STL_ASSERT(_Ptr_user[-2] == _Big_allocation_sentinel, "invalid argument");
; 155  : 
; 156  :     // Extra paranoia on aligned allocation/deallocation; ensure _Ptr_container is
; 157  :     // in range [_Min_back_shift, _Non_user_size]
; 158  : #ifdef _DEBUG
; 159  :     constexpr uintptr_t _Min_back_shift = 2 * sizeof(void*);
; 160  : #else // ^^^ _DEBUG ^^^ // vvv !_DEBUG vvv
; 161  :     constexpr uintptr_t _Min_back_shift = sizeof(void*);
; 162  : #endif // _DEBUG
; 163  :     const uintptr_t _Back_shift = reinterpret_cast<uintptr_t>(_Ptr) - _Ptr_container;

  0001d	2b c2		 sub	 eax, edx

; 164  :     _STL_VERIFY(_Back_shift >= _Min_back_shift && _Back_shift <= _Non_user_size, "invalid argument");

  0001f	83 c0 fc	 add	 eax, -4			; fffffffcH
  00022	83 f8 1f	 cmp	 eax, 31			; 0000001fH
  00025	77 20		 ja	 SHORT $LN33@destroy_at

; 165  :     _Ptr = reinterpret_cast<void*>(_Ptr_container);

  00027	8b c2		 mov	 eax, edx
$LN36@destroy_at:

; 255  :         ::operator delete(_Ptr, _Bytes);

  00029	51		 push	 ecx
  0002a	50		 push	 eax
  0002b	e8 00 00 00 00	 call	 ??3@YAXPAXI@Z		; operator delete
  00030	83 c4 08	 add	 esp, 8
$LN24@destroy_at:
; File C:\Program Files\Microsoft Visual Studio\2022\Community\VC\Tools\MSVC\14.34.31933\include\xstring

; 5016 :         _My_data._Mysize = 0;

  00033	c7 46 1c 00 00
	00 00		 mov	 DWORD PTR [esi+28], 0

; 5017 :         _My_data._Myres  = _BUF_SIZE - 1;

  0003a	c7 46 20 0f 00
	00 00		 mov	 DWORD PTR [esi+32], 15	; 0000000fH

; 5018 :         // the _Traits::assign is last so the codegen doesn't think the char write can alias this
; 5019 :         _Traits::assign(_My_data._Bx._Buf[0], _Elem());

  00041	c6 46 0c 00	 mov	 BYTE PTR [esi+12], 0
  00045	5e		 pop	 esi
; File C:\Program Files\Microsoft Visual Studio\2022\Community\VC\Tools\MSVC\14.34.31933\include\xmemory

; 313  : }

  00046	c3		 ret	 0
$LN33@destroy_at:

; 164  :     _STL_VERIFY(_Back_shift >= _Min_back_shift && _Back_shift <= _Non_user_size, "invalid argument");

  00047	e8 00 00 00 00	 call	 __invalid_parameter_noinfo_noreturn
$LN45@destroy_at:
  0004c	cc		 int	 3
??$destroy_at@U?$pair@$$CBKUSPartyMemberInfo@CPythonPlayer@@@std@@@std@@YAXQAU?$pair@$$CBKUSPartyMemberInfo@CPythonPlayer@@@0@@Z ENDP ; std::destroy_at<std::pair<unsigned long const ,CPythonPlayer::SPartyMemberInfo> >
_TEXT	ENDS
; Function compile flags: /Ogtp
; File C:\Program Files\Microsoft Visual Studio\2022\Community\VC\Tools\MSVC\14.34.31933\include\xstring
; File C:\Program Files\Microsoft Visual Studio\2022\Community\VC\Tools\MSVC\14.34.31933\include\xmemory
; File C:\Program Files\Microsoft Visual Studio\2022\Community\VC\Tools\MSVC\14.34.31933\include\xstring
; File C:\Program Files\Microsoft Visual Studio\2022\Community\VC\Tools\MSVC\14.34.31933\include\xmemory
; File C:\Program Files\Microsoft Visual Studio\2022\Community\VC\Tools\MSVC\14.34.31933\include\xstring
; File C:\Program Files\Microsoft Visual Studio\2022\Community\VC\Tools\MSVC\14.34.31933\include\xmemory
;	COMDAT ??1?$pair@$$CBKUSPartyMemberInfo@CPythonPlayer@@@std@@QAE@XZ
_TEXT	SEGMENT
??1?$pair@$$CBKUSPartyMemberInfo@CPythonPlayer@@@std@@QAE@XZ PROC ; std::pair<unsigned long const ,CPythonPlayer::SPartyMemberInfo>::~pair<unsigned long const ,CPythonPlayer::SPartyMemberInfo>, COMDAT
; _this$ = ecx
; File C:\Program Files\Microsoft Visual Studio\2022\Community\VC\Tools\MSVC\14.34.31933\include\xstring

; 2301 :         return _BUF_SIZE <= _Myres;

  00000	56		 push	 esi
  00001	8b f1		 mov	 esi, ecx
  00003	8b 4e 20	 mov	 ecx, DWORD PTR [esi+32]
  00006	83 f9 10	 cmp	 ecx, 16			; 00000010H

; 5008 :         if (_My_data._Large_string_engaged()) {

  00009	72 28		 jb	 SHORT $LN18@pair
; File C:\Program Files\Microsoft Visual Studio\2022\Community\VC\Tools\MSVC\14.34.31933\include\xmemory

; 830  :         _Deallocate<_New_alignof<_Ty>>(_Ptr, sizeof(_Ty) * _Count);

  0000b	8b 46 0c	 mov	 eax, DWORD PTR [esi+12]
; File C:\Program Files\Microsoft Visual Studio\2022\Community\VC\Tools\MSVC\14.34.31933\include\xstring

; 5013 :             _Al.deallocate(_Ptr, _My_data._Myres + 1);

  0000e	41		 inc	 ecx
; File C:\Program Files\Microsoft Visual Studio\2022\Community\VC\Tools\MSVC\14.34.31933\include\xmemory

; 251  :         if (_Bytes >= _Big_allocation_threshold) { // boost the alignment of big allocations to help autovectorization

  0000f	81 f9 00 10 00
	00		 cmp	 ecx, 4096		; 00001000H
  00015	72 12		 jb	 SHORT $LN30@pair

; 150  :     const uintptr_t _Ptr_container   = _Ptr_user[-1];

  00017	8b 50 fc	 mov	 edx, DWORD PTR [eax-4]
  0001a	83 c1 23	 add	 ecx, 35			; 00000023H

; 151  : 
; 152  :     // If the following asserts, it likely means that we are performing
; 153  :     // an aligned delete on memory coming from an unaligned allocation.
; 154  :     _STL_ASSERT(_Ptr_user[-2] == _Big_allocation_sentinel, "invalid argument");
; 155  : 
; 156  :     // Extra paranoia on aligned allocation/deallocation; ensure _Ptr_container is
; 157  :     // in range [_Min_back_shift, _Non_user_size]
; 158  : #ifdef _DEBUG
; 159  :     constexpr uintptr_t _Min_back_shift = 2 * sizeof(void*);
; 160  : #else // ^^^ _DEBUG ^^^ // vvv !_DEBUG vvv
; 161  :     constexpr uintptr_t _Min_back_shift = sizeof(void*);
; 162  : #endif // _DEBUG
; 163  :     const uintptr_t _Back_shift = reinterpret_cast<uintptr_t>(_Ptr) - _Ptr_container;

  0001d	2b c2		 sub	 eax, edx

; 164  :     _STL_VERIFY(_Back_shift >= _Min_back_shift && _Back_shift <= _Non_user_size, "invalid argument");

  0001f	83 c0 fc	 add	 eax, -4			; fffffffcH
  00022	83 f8 1f	 cmp	 eax, 31			; 0000001fH
  00025	77 20		 ja	 SHORT $LN27@pair

; 165  :     _Ptr = reinterpret_cast<void*>(_Ptr_container);

  00027	8b c2		 mov	 eax, edx
$LN30@pair:

; 255  :         ::operator delete(_Ptr, _Bytes);

  00029	51		 push	 ecx
  0002a	50		 push	 eax
  0002b	e8 00 00 00 00	 call	 ??3@YAXPAXI@Z		; operator delete
  00030	83 c4 08	 add	 esp, 8
$LN18@pair:
; File C:\Program Files\Microsoft Visual Studio\2022\Community\VC\Tools\MSVC\14.34.31933\include\xstring

; 5016 :         _My_data._Mysize = 0;

  00033	c7 46 1c 00 00
	00 00		 mov	 DWORD PTR [esi+28], 0

; 5017 :         _My_data._Myres  = _BUF_SIZE - 1;

  0003a	c7 46 20 0f 00
	00 00		 mov	 DWORD PTR [esi+32], 15	; 0000000fH

; 5018 :         // the _Traits::assign is last so the codegen doesn't think the char write can alias this
; 5019 :         _Traits::assign(_My_data._Bx._Buf[0], _Elem());

  00041	c6 46 0c 00	 mov	 BYTE PTR [esi+12], 0
  00045	5e		 pop	 esi
  00046	c3		 ret	 0
$LN27@pair:
; File C:\Program Files\Microsoft Visual Studio\2022\Community\VC\Tools\MSVC\14.34.31933\include\xmemory

; 164  :     _STL_VERIFY(_Back_shift >= _Min_back_shift && _Back_shift <= _Non_user_size, "invalid argument");

  00047	e8 00 00 00 00	 call	 __invalid_parameter_noinfo_noreturn
$LN37@pair:
  0004c	cc		 int	 3
??1?$pair@$$CBKUSPartyMemberInfo@CPythonPlayer@@@std@@QAE@XZ ENDP ; std::pair<unsigned long const ,CPythonPlayer::SPartyMemberInfo>::~pair<unsigned long const ,CPythonPlayer::SPartyMemberInfo>
_TEXT	ENDS
; Function compile flags: /Ogtp
; File C:\Program Files\Microsoft Visual Studio\2022\Community\VC\Tools\MSVC\14.34.31933\include\xstring
; File C:\Program Files\Microsoft Visual Studio\2022\Community\VC\Tools\MSVC\14.34.31933\include\xmemory
; File C:\Program Files\Microsoft Visual Studio\2022\Community\VC\Tools\MSVC\14.34.31933\include\xstring
; File C:\Program Files\Microsoft Visual Studio\2022\Community\VC\Tools\MSVC\14.34.31933\include\xmemory
; File C:\Program Files\Microsoft Visual Studio\2022\Community\VC\Tools\MSVC\14.34.31933\include\xstring
; File C:\Program Files\Microsoft Visual Studio\2022\Community\VC\Tools\MSVC\14.34.31933\include\xmemory
;	COMDAT ??_G?$pair@$$CBKUSPartyMemberInfo@CPythonPlayer@@@std@@QAEPAXI@Z
_TEXT	SEGMENT
___flags$dead$ = 8					; size = 4
??_G?$pair@$$CBKUSPartyMemberInfo@CPythonPlayer@@@std@@QAEPAXI@Z PROC ; std::pair<unsigned long const ,CPythonPlayer::SPartyMemberInfo>::`scalar deleting destructor', COMDAT
; _this$ = ecx
; File C:\Program Files\Microsoft Visual Studio\2022\Community\VC\Tools\MSVC\14.34.31933\include\xstring

; 2301 :         return _BUF_SIZE <= _Myres;

  00000	56		 push	 esi
  00001	8b f1		 mov	 esi, ecx
  00003	8b 4e 20	 mov	 ecx, DWORD PTR [esi+32]
  00006	83 f9 10	 cmp	 ecx, 16			; 00000010H

; 5008 :         if (_My_data._Large_string_engaged()) {

  00009	72 28		 jb	 SHORT $LN22@scalar
; File C:\Program Files\Microsoft Visual Studio\2022\Community\VC\Tools\MSVC\14.34.31933\include\xmemory

; 830  :         _Deallocate<_New_alignof<_Ty>>(_Ptr, sizeof(_Ty) * _Count);

  0000b	8b 46 0c	 mov	 eax, DWORD PTR [esi+12]
; File C:\Program Files\Microsoft Visual Studio\2022\Community\VC\Tools\MSVC\14.34.31933\include\xstring

; 5013 :             _Al.deallocate(_Ptr, _My_data._Myres + 1);

  0000e	41		 inc	 ecx
; File C:\Program Files\Microsoft Visual Studio\2022\Community\VC\Tools\MSVC\14.34.31933\include\xmemory

; 251  :         if (_Bytes >= _Big_allocation_threshold) { // boost the alignment of big allocations to help autovectorization

  0000f	81 f9 00 10 00
	00		 cmp	 ecx, 4096		; 00001000H
  00015	72 12		 jb	 SHORT $LN34@scalar

; 150  :     const uintptr_t _Ptr_container   = _Ptr_user[-1];

  00017	8b 50 fc	 mov	 edx, DWORD PTR [eax-4]
  0001a	83 c1 23	 add	 ecx, 35			; 00000023H

; 151  : 
; 152  :     // If the following asserts, it likely means that we are performing
; 153  :     // an aligned delete on memory coming from an unaligned allocation.
; 154  :     _STL_ASSERT(_Ptr_user[-2] == _Big_allocation_sentinel, "invalid argument");
; 155  : 
; 156  :     // Extra paranoia on aligned allocation/deallocation; ensure _Ptr_container is
; 157  :     // in range [_Min_back_shift, _Non_user_size]
; 158  : #ifdef _DEBUG
; 159  :     constexpr uintptr_t _Min_back_shift = 2 * sizeof(void*);
; 160  : #else // ^^^ _DEBUG ^^^ // vvv !_DEBUG vvv
; 161  :     constexpr uintptr_t _Min_back_shift = sizeof(void*);
; 162  : #endif // _DEBUG
; 163  :     const uintptr_t _Back_shift = reinterpret_cast<uintptr_t>(_Ptr) - _Ptr_container;

  0001d	2b c2		 sub	 eax, edx

; 164  :     _STL_VERIFY(_Back_shift >= _Min_back_shift && _Back_shift <= _Non_user_size, "invalid argument");

  0001f	83 c0 fc	 add	 eax, -4			; fffffffcH
  00022	83 f8 1f	 cmp	 eax, 31			; 0000001fH
  00025	77 24		 ja	 SHORT $LN31@scalar

; 165  :     _Ptr = reinterpret_cast<void*>(_Ptr_container);

  00027	8b c2		 mov	 eax, edx
$LN34@scalar:

; 255  :         ::operator delete(_Ptr, _Bytes);

  00029	51		 push	 ecx
  0002a	50		 push	 eax
  0002b	e8 00 00 00 00	 call	 ??3@YAXPAXI@Z		; operator delete
  00030	83 c4 08	 add	 esp, 8
$LN22@scalar:
; File C:\Program Files\Microsoft Visual Studio\2022\Community\VC\Tools\MSVC\14.34.31933\include\xstring

; 5016 :         _My_data._Mysize = 0;

  00033	c7 46 1c 00 00
	00 00		 mov	 DWORD PTR [esi+28], 0
  0003a	8b c6		 mov	 eax, esi

; 5017 :         _My_data._Myres  = _BUF_SIZE - 1;

  0003c	c7 46 20 0f 00
	00 00		 mov	 DWORD PTR [esi+32], 15	; 0000000fH

; 5018 :         // the _Traits::assign is last so the codegen doesn't think the char write can alias this
; 5019 :         _Traits::assign(_My_data._Bx._Buf[0], _Elem());

  00043	c6 46 0c 00	 mov	 BYTE PTR [esi+12], 0
  00047	5e		 pop	 esi
  00048	c2 04 00	 ret	 4
$LN31@scalar:
; File C:\Program Files\Microsoft Visual Studio\2022\Community\VC\Tools\MSVC\14.34.31933\include\xmemory

; 164  :     _STL_VERIFY(_Back_shift >= _Min_back_shift && _Back_shift <= _Non_user_size, "invalid argument");

  0004b	e8 00 00 00 00	 call	 __invalid_parameter_noinfo_noreturn
$LN42@scalar:
  00050	cc		 int	 3
??_G?$pair@$$CBKUSPartyMemberInfo@CPythonPlayer@@@std@@QAEPAXI@Z ENDP ; std::pair<unsigned long const ,CPythonPlayer::SPartyMemberInfo>::`scalar deleting destructor'
_TEXT	ENDS
; Function compile flags: /Ogtp
; File C:\Program Files\Microsoft Visual Studio\2022\Community\VC\Tools\MSVC\14.34.31933\include\xmemory
;	COMDAT ?_Extract@?$_In_place_key_extract_map@KU?$pair@KUSPartyMemberInfo@CPythonPlayer@@@std@@@std@@SAABKABU?$pair@KUSPartyMemberInfo@CPythonPlayer@@@2@@Z
_TEXT	SEGMENT
?_Extract@?$_In_place_key_extract_map@KU?$pair@KUSPartyMemberInfo@CPythonPlayer@@@std@@@std@@SAABKABU?$pair@KUSPartyMemberInfo@CPythonPlayer@@@2@@Z PROC ; std::_In_place_key_extract_map<unsigned long,std::pair<unsigned long,CPythonPlayer::SPartyMemberInfo> >::_Extract, COMDAT
; __Val$ = ecx

; 1974 :         return _Val.first;

  00000	8b c1		 mov	 eax, ecx

; 1975 :     }

  00002	c3		 ret	 0
?_Extract@?$_In_place_key_extract_map@KU?$pair@KUSPartyMemberInfo@CPythonPlayer@@@std@@@std@@SAABKABU?$pair@KUSPartyMemberInfo@CPythonPlayer@@@2@@Z ENDP ; std::_In_place_key_extract_map<unsigned long,std::pair<unsigned long,CPythonPlayer::SPartyMemberInfo> >::_Extract
_TEXT	ENDS
; Function compile flags: /Ogtp
; File C:\Program Files\Microsoft Visual Studio\2022\Community\VC\Tools\MSVC\14.34.31933\include\xtree
; File C:\Program Files\Microsoft Visual Studio\2022\Community\VC\Tools\MSVC\14.34.31933\include\xmemory
; File C:\Program Files\Microsoft Visual Studio\2022\Community\VC\Tools\MSVC\14.34.31933\include\xtree
;	COMDAT ??1?$_Tree_temp_node@V?$allocator@U?$_Tree_node@U?$pair@$$CBKUSPartyMemberInfo@CPythonPlayer@@@std@@PAX@std@@@std@@@std@@QAE@XZ
_TEXT	SEGMENT
??1?$_Tree_temp_node@V?$allocator@U?$_Tree_node@U?$pair@$$CBKUSPartyMemberInfo@CPythonPlayer@@@std@@PAX@std@@@std@@@std@@QAE@XZ PROC ; std::_Tree_temp_node<std::allocator<std::_Tree_node<std::pair<unsigned long const ,CPythonPlayer::SPartyMemberInfo>,void *> > >::~_Tree_temp_node<std::allocator<std::_Tree_node<std::pair<unsigned long const ,CPythonPlayer::SPartyMemberInfo>,void *> > >, COMDAT
; _this$ = ecx

; 818  :     ~_Tree_temp_node() {

  00000	56		 push	 esi
  00001	8b f1		 mov	 esi, ecx

; 819  :         if (this->_Ptr) {

  00003	8b 56 04	 mov	 edx, DWORD PTR [esi+4]
  00006	85 d2		 test	 edx, edx
  00008	74 08		 je	 SHORT $LN2@Tree_temp_

; 820  :             _Destroy_in_place(this->_Ptr->_Left);
; 821  :             _Destroy_in_place(this->_Ptr->_Parent);
; 822  :             _Destroy_in_place(this->_Ptr->_Right);
; 823  :             _Alnode_traits::destroy(this->_Al, _STD addressof(this->_Ptr->_Myval));

  0000a	83 c2 10	 add	 edx, 16			; 00000010H
  0000d	e8 00 00 00 00	 call	 ??$destroy@U?$pair@$$CBKUSPartyMemberInfo@CPythonPlayer@@@std@@@?$_Default_allocator_traits@V?$allocator@U?$_Tree_node@U?$pair@$$CBKUSPartyMemberInfo@CPythonPlayer@@@std@@PAX@std@@@std@@@std@@SAXAAV?$allocator@U?$_Tree_node@U?$pair@$$CBKUSPartyMemberInfo@CPythonPlayer@@@std@@PAX@std@@@1@QAU?$pair@$$CBKUSPartyMemberInfo@CPythonPlayer@@@1@@Z ; std::_Default_allocator_traits<std::allocator<std::_Tree_node<std::pair<unsigned long const ,CPythonPlayer::SPartyMemberInfo>,void *> > >::destroy<std::pair<unsigned long const ,CPythonPlayer::SPartyMemberInfo> >
$LN2@Tree_temp_:
; File C:\Program Files\Microsoft Visual Studio\2022\Community\VC\Tools\MSVC\14.34.31933\include\xmemory

; 1017 :         if (_Ptr) {

  00012	8b 46 04	 mov	 eax, DWORD PTR [esi+4]
  00015	5e		 pop	 esi
  00016	85 c0		 test	 eax, eax
  00018	74 0b		 je	 SHORT $LN14@Tree_temp_

; 255  :         ::operator delete(_Ptr, _Bytes);

  0001a	6a 44		 push	 68			; 00000044H
  0001c	50		 push	 eax
  0001d	e8 00 00 00 00	 call	 ??3@YAXPAXI@Z		; operator delete
  00022	83 c4 08	 add	 esp, 8
$LN14@Tree_temp_:
; File C:\Program Files\Microsoft Visual Studio\2022\Community\VC\Tools\MSVC\14.34.31933\include\xtree

; 825  :     }

  00025	c3		 ret	 0
??1?$_Tree_temp_node@V?$allocator@U?$_Tree_node@U?$pair@$$CBKUSPartyMemberInfo@CPythonPlayer@@@std@@PAX@std@@@std@@@std@@QAE@XZ ENDP ; std::_Tree_temp_node<std::allocator<std::_Tree_node<std::pair<unsigned long const ,CPythonPlayer::SPartyMemberInfo>,void *> > >::~_Tree_temp_node<std::allocator<std::_Tree_node<std::pair<unsigned long const ,CPythonPlayer::SPartyMemberInfo>,void *> > >
_TEXT	ENDS
; Function compile flags: /Ogtp
; File C:\Program Files\Microsoft Visual Studio\2022\Community\VC\Tools\MSVC\14.34.31933\include\xmemory
; File C:\Program Files\Microsoft Visual Studio\2022\Community\VC\Tools\MSVC\14.34.31933\include\utility
; File C:\Program Files\Microsoft Visual Studio\2022\Community\VC\Tools\MSVC\14.34.31933\include\xmemory
;	COMDAT ?_Release@?$_Alloc_construct_ptr@V?$allocator@U?$_Tree_node@U?$pair@$$CBKUSPartyMemberInfo@CPythonPlayer@@@std@@PAX@std@@@std@@@std@@QAEPAU?$_Tree_node@U?$pair@$$CBKUSPartyMemberInfo@CPythonPlayer@@@std@@PAX@2@XZ
_TEXT	SEGMENT
?_Release@?$_Alloc_construct_ptr@V?$allocator@U?$_Tree_node@U?$pair@$$CBKUSPartyMemberInfo@CPythonPlayer@@@std@@PAX@std@@@std@@@std@@QAEPAU?$_Tree_node@U?$pair@$$CBKUSPartyMemberInfo@CPythonPlayer@@@std@@PAX@2@XZ PROC ; std::_Alloc_construct_ptr<std::allocator<std::_Tree_node<std::pair<unsigned long const ,CPythonPlayer::SPartyMemberInfo>,void *> > >::_Release, COMDAT
; _this$ = ecx
; File C:\Program Files\Microsoft Visual Studio\2022\Community\VC\Tools\MSVC\14.34.31933\include\utility

; 653  :     _Ty _Old_val = static_cast<_Ty&&>(_Val);

  00000	8b 41 04	 mov	 eax, DWORD PTR [ecx+4]

; 654  :     _Val         = static_cast<_Other&&>(_New_val);

  00003	c7 41 04 00 00
	00 00		 mov	 DWORD PTR [ecx+4], 0
; File C:\Program Files\Microsoft Visual Studio\2022\Community\VC\Tools\MSVC\14.34.31933\include\xmemory

; 1009 :     }

  0000a	c3		 ret	 0
?_Release@?$_Alloc_construct_ptr@V?$allocator@U?$_Tree_node@U?$pair@$$CBKUSPartyMemberInfo@CPythonPlayer@@@std@@PAX@std@@@std@@@std@@QAEPAU?$_Tree_node@U?$pair@$$CBKUSPartyMemberInfo@CPythonPlayer@@@std@@PAX@2@XZ ENDP ; std::_Alloc_construct_ptr<std::allocator<std::_Tree_node<std::pair<unsigned long const ,CPythonPlayer::SPartyMemberInfo>,void *> > >::_Release
_TEXT	ENDS
; Function compile flags: /Ogtp
; File C:\Program Files\Microsoft Visual Studio\2022\Community\VC\Tools\MSVC\14.34.31933\include\xtree
;	COMDAT ?_Insert_node@?$_Tree_val@U?$_Tree_simple_types@U?$pair@$$CBKUSPartyMemberInfo@CPythonPlayer@@@std@@@std@@@std@@QAEPAU?$_Tree_node@U?$pair@$$CBKUSPartyMemberInfo@CPythonPlayer@@@std@@PAX@2@U?$_Tree_id@PAU?$_Tree_node@U?$pair@$$CBKUSPartyMemberInfo@CPythonPlayer@@@std@@PAX@std@@@2@QAU32@@Z
_TEXT	SEGMENT
__Head$1$ = -4						; size = 4
__Loc$ = 8						; size = 8
__Newnode$ = 16						; size = 4
?_Insert_node@?$_Tree_val@U?$_Tree_simple_types@U?$pair@$$CBKUSPartyMemberInfo@CPythonPlayer@@@std@@@std@@@std@@QAEPAU?$_Tree_node@U?$pair@$$CBKUSPartyMemberInfo@CPythonPlayer@@@std@@PAX@2@U?$_Tree_id@PAU?$_Tree_node@U?$pair@$$CBKUSPartyMemberInfo@CPythonPlayer@@@std@@PAX@std@@@2@QAU32@@Z PROC ; std::_Tree_val<std::_Tree_simple_types<std::pair<unsigned long const ,CPythonPlayer::SPartyMemberInfo> > >::_Insert_node, COMDAT
; _this$ = ecx

; 646  :     _Nodeptr _Insert_node(const _Tree_id<_Nodeptr> _Loc, const _Nodeptr _Newnode) noexcept {

  00000	55		 push	 ebp
  00001	8b ec		 mov	 ebp, esp
  00003	51		 push	 ecx

; 647  :         ++_Mysize;
; 648  :         const auto _Head  = _Myhead;
; 649  :         _Newnode->_Parent = _Loc._Parent;

  00004	8b 55 08	 mov	 edx, DWORD PTR __Loc$[ebp]
  00007	53		 push	 ebx
  00008	8b d9		 mov	 ebx, ecx
  0000a	57		 push	 edi
  0000b	8b 7d 10	 mov	 edi, DWORD PTR __Newnode$[ebp]
  0000e	8b 03		 mov	 eax, DWORD PTR [ebx]
  00010	ff 43 04	 inc	 DWORD PTR [ebx+4]
  00013	89 45 fc	 mov	 DWORD PTR __Head$1$[ebp], eax
  00016	89 57 04	 mov	 DWORD PTR [edi+4], edx

; 650  :         if (_Loc._Parent == _Head) { // first node in tree, just set head values

  00019	3b d0		 cmp	 edx, eax
  0001b	75 16		 jne	 SHORT $LN5@Insert_nod

; 651  :             _Head->_Left     = _Newnode;

  0001d	89 38		 mov	 DWORD PTR [eax], edi

; 652  :             _Head->_Parent   = _Newnode;

  0001f	89 78 04	 mov	 DWORD PTR [eax+4], edi

; 653  :             _Head->_Right    = _Newnode;

  00022	89 78 08	 mov	 DWORD PTR [eax+8], edi

; 712  :         return _Newnode;
; 713  :     }

  00025	8b c7		 mov	 eax, edi
  00027	c6 47 0c 01	 mov	 BYTE PTR [edi+12], 1
  0002b	5f		 pop	 edi
  0002c	5b		 pop	 ebx
  0002d	8b e5		 mov	 esp, ebp
  0002f	5d		 pop	 ebp
  00030	c2 0c 00	 ret	 12			; 0000000cH
$LN5@Insert_nod:

; 654  :             _Newnode->_Color = _Black; // the root is black
; 655  :             return _Newnode;
; 656  :         }
; 657  : 
; 658  :         _STL_INTERNAL_CHECK(_Loc._Child != _Tree_child::_Unused);
; 659  :         if (_Loc._Child == _Tree_child::_Right) { // add to right of _Loc._Parent

  00033	83 7d 0c 00	 cmp	 DWORD PTR __Loc$[ebp+4], 0
  00037	75 0d		 jne	 SHORT $LN6@Insert_nod

; 660  :             _STL_INTERNAL_CHECK(_Loc._Parent->_Right->_Isnil);
; 661  :             _Loc._Parent->_Right = _Newnode;

  00039	89 7a 08	 mov	 DWORD PTR [edx+8], edi

; 662  :             if (_Loc._Parent == _Head->_Right) { // remember rightmost node

  0003c	3b 50 08	 cmp	 edx, DWORD PTR [eax+8]
  0003f	75 0d		 jne	 SHORT $LN9@Insert_nod

; 663  :                 _Head->_Right = _Newnode;

  00041	89 78 08	 mov	 DWORD PTR [eax+8], edi

; 664  :             }
; 665  :         } else { // add to left of _Loc._Parent

  00044	eb 08		 jmp	 SHORT $LN9@Insert_nod
$LN6@Insert_nod:

; 666  :             _STL_INTERNAL_CHECK(_Loc._Parent->_Left->_Isnil);
; 667  :             _Loc._Parent->_Left = _Newnode;

  00046	89 3a		 mov	 DWORD PTR [edx], edi

; 668  :             if (_Loc._Parent == _Head->_Left) { // remember leftmost node

  00048	3b 10		 cmp	 edx, DWORD PTR [eax]
  0004a	75 02		 jne	 SHORT $LN9@Insert_nod

; 669  :                 _Head->_Left = _Newnode;

  0004c	89 38		 mov	 DWORD PTR [eax], edi
$LN9@Insert_nod:

; 670  :             }
; 671  :         }
; 672  : 
; 673  :         for (_Nodeptr _Pnode = _Newnode; _Pnode->_Parent->_Color == _Red;) {

  0004e	8b 4f 04	 mov	 ecx, DWORD PTR [edi+4]
  00051	8b c7		 mov	 eax, edi
  00053	80 79 0c 00	 cmp	 BYTE PTR [ecx+12], 0
  00057	0f 85 7d 01 00
	00		 jne	 $LN3@Insert_nod
  0005d	56		 push	 esi
  0005e	66 90		 npad	 2
$LL2@Insert_nod:

; 674  :             if (_Pnode->_Parent == _Pnode->_Parent->_Parent->_Left) { // fixup red-red in left subtree

  00060	8b 50 04	 mov	 edx, DWORD PTR [eax+4]
  00063	8b 72 04	 mov	 esi, DWORD PTR [edx+4]
  00066	8b 0e		 mov	 ecx, DWORD PTR [esi]
  00068	3b d1		 cmp	 edx, ecx
  0006a	0f 85 aa 00 00
	00		 jne	 $LN10@Insert_nod

; 675  :                 const auto _Parent_sibling = _Pnode->_Parent->_Parent->_Right;

  00070	8b 4e 08	 mov	 ecx, DWORD PTR [esi+8]

; 676  :                 if (_Parent_sibling->_Color == _Red) { // parent's sibling has two red children, blacken both

  00073	80 79 0c 00	 cmp	 BYTE PTR [ecx+12], 0
  00077	0f 84 a3 00 00
	00		 je	 $LN54@Insert_nod

; 677  :                     _Pnode->_Parent->_Color          = _Black;
; 678  :                     _Parent_sibling->_Color          = _Black;
; 679  :                     _Pnode->_Parent->_Parent->_Color = _Red;
; 680  :                     _Pnode                           = _Pnode->_Parent->_Parent;
; 681  :                 } else { // parent's sibling has red and black children
; 682  :                     if (_Pnode == _Pnode->_Parent->_Right) { // rotate right child to left

  0007d	8b 72 08	 mov	 esi, DWORD PTR [edx+8]
  00080	3b c6		 cmp	 eax, esi
  00082	75 37		 jne	 SHORT $LN51@Insert_nod

; 462  :         _Wherenode->_Right = _Pnode->_Left;

  00084	8b 0e		 mov	 ecx, DWORD PTR [esi]

; 683  :                         _Pnode = _Pnode->_Parent;

  00086	8b c2		 mov	 eax, edx

; 462  :         _Wherenode->_Right = _Pnode->_Left;

  00088	89 4a 08	 mov	 DWORD PTR [edx+8], ecx

; 463  : 
; 464  :         if (!_Pnode->_Left->_Isnil) {

  0008b	8b 0e		 mov	 ecx, DWORD PTR [esi]
  0008d	80 79 0d 00	 cmp	 BYTE PTR [ecx+13], 0
  00091	75 03		 jne	 SHORT $LN34@Insert_nod

; 465  :             _Pnode->_Left->_Parent = _Wherenode;

  00093	89 41 04	 mov	 DWORD PTR [ecx+4], eax
$LN34@Insert_nod:

; 466  :         }
; 467  : 
; 468  :         _Pnode->_Parent = _Wherenode->_Parent;

  00096	8b 4a 04	 mov	 ecx, DWORD PTR [edx+4]
  00099	89 4e 04	 mov	 DWORD PTR [esi+4], ecx

; 469  : 
; 470  :         if (_Wherenode == _Myhead->_Parent) {

  0009c	8b 0b		 mov	 ecx, DWORD PTR [ebx]
  0009e	3b 41 04	 cmp	 eax, DWORD PTR [ecx+4]
  000a1	75 05		 jne	 SHORT $LN35@Insert_nod

; 471  :             _Myhead->_Parent = _Pnode;

  000a3	89 71 04	 mov	 DWORD PTR [ecx+4], esi
  000a6	eb 0e		 jmp	 SHORT $LN38@Insert_nod
$LN35@Insert_nod:

; 472  :         } else if (_Wherenode == _Wherenode->_Parent->_Left) {

  000a8	8b 4a 04	 mov	 ecx, DWORD PTR [edx+4]
  000ab	3b 01		 cmp	 eax, DWORD PTR [ecx]
  000ad	75 04		 jne	 SHORT $LN37@Insert_nod

; 473  :             _Wherenode->_Parent->_Left = _Pnode;

  000af	89 31		 mov	 DWORD PTR [ecx], esi

; 474  :         } else {

  000b1	eb 03		 jmp	 SHORT $LN38@Insert_nod
$LN37@Insert_nod:

; 475  :             _Wherenode->_Parent->_Right = _Pnode;

  000b3	89 71 08	 mov	 DWORD PTR [ecx+8], esi
$LN38@Insert_nod:

; 476  :         }
; 477  : 
; 478  :         _Pnode->_Left       = _Wherenode;

  000b6	89 06		 mov	 DWORD PTR [esi], eax

; 479  :         _Wherenode->_Parent = _Pnode;

  000b8	89 72 04	 mov	 DWORD PTR [edx+4], esi
$LN51@Insert_nod:

; 684  :                         _Lrotate(_Pnode);
; 685  :                     }
; 686  : 
; 687  :                     _Pnode->_Parent->_Color          = _Black; // propagate red up

  000bb	8b 48 04	 mov	 ecx, DWORD PTR [eax+4]
  000be	c6 41 0c 01	 mov	 BYTE PTR [ecx+12], 1

; 688  :                     _Pnode->_Parent->_Parent->_Color = _Red;

  000c2	8b 48 04	 mov	 ecx, DWORD PTR [eax+4]
  000c5	8b 49 04	 mov	 ecx, DWORD PTR [ecx+4]
  000c8	c6 41 0c 00	 mov	 BYTE PTR [ecx+12], 0

; 689  :                     _Rrotate(_Pnode->_Parent->_Parent);

  000cc	8b 48 04	 mov	 ecx, DWORD PTR [eax+4]
  000cf	8b 51 04	 mov	 edx, DWORD PTR [ecx+4]

; 483  :         _Nodeptr _Pnode   = _Wherenode->_Left;

  000d2	8b 32		 mov	 esi, DWORD PTR [edx]

; 484  :         _Wherenode->_Left = _Pnode->_Right;

  000d4	8b 4e 08	 mov	 ecx, DWORD PTR [esi+8]
  000d7	89 0a		 mov	 DWORD PTR [edx], ecx

; 485  : 
; 486  :         if (!_Pnode->_Right->_Isnil) {

  000d9	8b 4e 08	 mov	 ecx, DWORD PTR [esi+8]
  000dc	80 79 0d 00	 cmp	 BYTE PTR [ecx+13], 0
  000e0	75 03		 jne	 SHORT $LN20@Insert_nod

; 487  :             _Pnode->_Right->_Parent = _Wherenode;

  000e2	89 51 04	 mov	 DWORD PTR [ecx+4], edx
$LN20@Insert_nod:

; 488  :         }
; 489  : 
; 490  :         _Pnode->_Parent = _Wherenode->_Parent;

  000e5	8b 4a 04	 mov	 ecx, DWORD PTR [edx+4]
  000e8	89 4e 04	 mov	 DWORD PTR [esi+4], ecx

; 491  : 
; 492  :         if (_Wherenode == _Myhead->_Parent) {

  000eb	8b 0b		 mov	 ecx, DWORD PTR [ebx]
  000ed	3b 51 04	 cmp	 edx, DWORD PTR [ecx+4]
  000f0	75 0b		 jne	 SHORT $LN21@Insert_nod

; 493  :             _Myhead->_Parent = _Pnode;

  000f2	89 71 04	 mov	 DWORD PTR [ecx+4], esi

; 498  :         }
; 499  : 
; 500  :         _Pnode->_Right      = _Wherenode;

  000f5	89 56 08	 mov	 DWORD PTR [esi+8], edx

; 690  :                 }
; 691  :             } else { // fixup red-red in right subtree

  000f8	e9 cc 00 00 00	 jmp	 $LN53@Insert_nod
$LN21@Insert_nod:

; 494  :         } else if (_Wherenode == _Wherenode->_Parent->_Right) {

  000fd	8b 4a 04	 mov	 ecx, DWORD PTR [edx+4]
  00100	3b 51 08	 cmp	 edx, DWORD PTR [ecx+8]
  00103	75 0b		 jne	 SHORT $LN23@Insert_nod

; 495  :             _Wherenode->_Parent->_Right = _Pnode;

  00105	89 71 08	 mov	 DWORD PTR [ecx+8], esi

; 498  :         }
; 499  : 
; 500  :         _Pnode->_Right      = _Wherenode;

  00108	89 56 08	 mov	 DWORD PTR [esi+8], edx

; 690  :                 }
; 691  :             } else { // fixup red-red in right subtree

  0010b	e9 b9 00 00 00	 jmp	 $LN53@Insert_nod
$LN23@Insert_nod:

; 497  :             _Wherenode->_Parent->_Left = _Pnode;

  00110	89 31		 mov	 DWORD PTR [ecx], esi

; 498  :         }
; 499  : 
; 500  :         _Pnode->_Right      = _Wherenode;

  00112	89 56 08	 mov	 DWORD PTR [esi+8], edx

; 690  :                 }
; 691  :             } else { // fixup red-red in right subtree

  00115	e9 af 00 00 00	 jmp	 $LN53@Insert_nod
$LN10@Insert_nod:

; 692  :                 const auto _Parent_sibling = _Pnode->_Parent->_Parent->_Left;
; 693  :                 if (_Parent_sibling->_Color == _Red) { // parent's sibling has two red children, blacken both

  0011a	80 79 0c 00	 cmp	 BYTE PTR [ecx+12], 0
  0011e	75 1d		 jne	 SHORT $LN15@Insert_nod
$LN54@Insert_nod:

; 670  :             }
; 671  :         }
; 672  : 
; 673  :         for (_Nodeptr _Pnode = _Newnode; _Pnode->_Parent->_Color == _Red;) {

  00120	c6 42 0c 01	 mov	 BYTE PTR [edx+12], 1
  00124	c6 41 0c 01	 mov	 BYTE PTR [ecx+12], 1
  00128	8b 48 04	 mov	 ecx, DWORD PTR [eax+4]
  0012b	8b 49 04	 mov	 ecx, DWORD PTR [ecx+4]
  0012e	c6 41 0c 00	 mov	 BYTE PTR [ecx+12], 0
  00132	8b 48 04	 mov	 ecx, DWORD PTR [eax+4]
  00135	8b 41 04	 mov	 eax, DWORD PTR [ecx+4]
  00138	e9 8f 00 00 00	 jmp	 $LN32@Insert_nod
$LN15@Insert_nod:

; 694  :                     _Pnode->_Parent->_Color          = _Black;
; 695  :                     _Parent_sibling->_Color          = _Black;
; 696  :                     _Pnode->_Parent->_Parent->_Color = _Red;
; 697  :                     _Pnode                           = _Pnode->_Parent->_Parent;
; 698  :                 } else { // parent's sibling has red and black children
; 699  :                     if (_Pnode == _Pnode->_Parent->_Left) { // rotate left child to right

  0013d	8b 32		 mov	 esi, DWORD PTR [edx]
  0013f	3b c6		 cmp	 eax, esi
  00141	75 3a		 jne	 SHORT $LN46@Insert_nod

; 484  :         _Wherenode->_Left = _Pnode->_Right;

  00143	8b 4e 08	 mov	 ecx, DWORD PTR [esi+8]

; 700  :                         _Pnode = _Pnode->_Parent;

  00146	8b c2		 mov	 eax, edx

; 484  :         _Wherenode->_Left = _Pnode->_Right;

  00148	89 08		 mov	 DWORD PTR [eax], ecx

; 485  : 
; 486  :         if (!_Pnode->_Right->_Isnil) {

  0014a	8b 4e 08	 mov	 ecx, DWORD PTR [esi+8]
  0014d	80 79 0d 00	 cmp	 BYTE PTR [ecx+13], 0
  00151	75 03		 jne	 SHORT $LN41@Insert_nod

; 487  :             _Pnode->_Right->_Parent = _Wherenode;

  00153	89 41 04	 mov	 DWORD PTR [ecx+4], eax
$LN41@Insert_nod:

; 488  :         }
; 489  : 
; 490  :         _Pnode->_Parent = _Wherenode->_Parent;

  00156	8b 4a 04	 mov	 ecx, DWORD PTR [edx+4]
  00159	89 4e 04	 mov	 DWORD PTR [esi+4], ecx

; 491  : 
; 492  :         if (_Wherenode == _Myhead->_Parent) {

  0015c	8b 0b		 mov	 ecx, DWORD PTR [ebx]
  0015e	3b 41 04	 cmp	 eax, DWORD PTR [ecx+4]
  00161	75 05		 jne	 SHORT $LN42@Insert_nod

; 493  :             _Myhead->_Parent = _Pnode;

  00163	89 71 04	 mov	 DWORD PTR [ecx+4], esi
  00166	eb 0f		 jmp	 SHORT $LN45@Insert_nod
$LN42@Insert_nod:

; 494  :         } else if (_Wherenode == _Wherenode->_Parent->_Right) {

  00168	8b 4a 04	 mov	 ecx, DWORD PTR [edx+4]
  0016b	3b 41 08	 cmp	 eax, DWORD PTR [ecx+8]
  0016e	75 05		 jne	 SHORT $LN44@Insert_nod

; 495  :             _Wherenode->_Parent->_Right = _Pnode;

  00170	89 71 08	 mov	 DWORD PTR [ecx+8], esi

; 496  :         } else {

  00173	eb 02		 jmp	 SHORT $LN45@Insert_nod
$LN44@Insert_nod:

; 497  :             _Wherenode->_Parent->_Left = _Pnode;

  00175	89 31		 mov	 DWORD PTR [ecx], esi
$LN45@Insert_nod:

; 498  :         }
; 499  : 
; 500  :         _Pnode->_Right      = _Wherenode;

  00177	89 46 08	 mov	 DWORD PTR [esi+8], eax

; 501  :         _Wherenode->_Parent = _Pnode;

  0017a	89 72 04	 mov	 DWORD PTR [edx+4], esi
$LN46@Insert_nod:

; 701  :                         _Rrotate(_Pnode);
; 702  :                     }
; 703  : 
; 704  :                     _Pnode->_Parent->_Color          = _Black; // propagate red up

  0017d	8b 48 04	 mov	 ecx, DWORD PTR [eax+4]
  00180	c6 41 0c 01	 mov	 BYTE PTR [ecx+12], 1

; 705  :                     _Pnode->_Parent->_Parent->_Color = _Red;

  00184	8b 48 04	 mov	 ecx, DWORD PTR [eax+4]
  00187	8b 49 04	 mov	 ecx, DWORD PTR [ecx+4]
  0018a	c6 41 0c 00	 mov	 BYTE PTR [ecx+12], 0

; 706  :                     _Lrotate(_Pnode->_Parent->_Parent);

  0018e	8b 48 04	 mov	 ecx, DWORD PTR [eax+4]
  00191	8b 51 04	 mov	 edx, DWORD PTR [ecx+4]

; 461  :         _Nodeptr _Pnode    = _Wherenode->_Right;

  00194	8b 72 08	 mov	 esi, DWORD PTR [edx+8]

; 462  :         _Wherenode->_Right = _Pnode->_Left;

  00197	8b 0e		 mov	 ecx, DWORD PTR [esi]
  00199	89 4a 08	 mov	 DWORD PTR [edx+8], ecx

; 463  : 
; 464  :         if (!_Pnode->_Left->_Isnil) {

  0019c	8b 0e		 mov	 ecx, DWORD PTR [esi]
  0019e	80 79 0d 00	 cmp	 BYTE PTR [ecx+13], 0
  001a2	75 03		 jne	 SHORT $LN27@Insert_nod

; 465  :             _Pnode->_Left->_Parent = _Wherenode;

  001a4	89 51 04	 mov	 DWORD PTR [ecx+4], edx
$LN27@Insert_nod:

; 466  :         }
; 467  : 
; 468  :         _Pnode->_Parent = _Wherenode->_Parent;

  001a7	8b 4a 04	 mov	 ecx, DWORD PTR [edx+4]
  001aa	89 4e 04	 mov	 DWORD PTR [esi+4], ecx

; 469  : 
; 470  :         if (_Wherenode == _Myhead->_Parent) {

  001ad	8b 0b		 mov	 ecx, DWORD PTR [ebx]
  001af	3b 51 04	 cmp	 edx, DWORD PTR [ecx+4]
  001b2	75 05		 jne	 SHORT $LN28@Insert_nod

; 471  :             _Myhead->_Parent = _Pnode;

  001b4	89 71 04	 mov	 DWORD PTR [ecx+4], esi
  001b7	eb 0e		 jmp	 SHORT $LN31@Insert_nod
$LN28@Insert_nod:

; 472  :         } else if (_Wherenode == _Wherenode->_Parent->_Left) {

  001b9	8b 4a 04	 mov	 ecx, DWORD PTR [edx+4]
  001bc	3b 11		 cmp	 edx, DWORD PTR [ecx]
  001be	75 04		 jne	 SHORT $LN30@Insert_nod

; 473  :             _Wherenode->_Parent->_Left = _Pnode;

  001c0	89 31		 mov	 DWORD PTR [ecx], esi

; 474  :         } else {

  001c2	eb 03		 jmp	 SHORT $LN31@Insert_nod
$LN30@Insert_nod:

; 475  :             _Wherenode->_Parent->_Right = _Pnode;

  001c4	89 71 08	 mov	 DWORD PTR [ecx+8], esi
$LN31@Insert_nod:

; 476  :         }
; 477  : 
; 478  :         _Pnode->_Left       = _Wherenode;

  001c7	89 16		 mov	 DWORD PTR [esi], edx
$LN53@Insert_nod:

; 670  :             }
; 671  :         }
; 672  : 
; 673  :         for (_Nodeptr _Pnode = _Newnode; _Pnode->_Parent->_Color == _Red;) {

  001c9	89 72 04	 mov	 DWORD PTR [edx+4], esi
$LN32@Insert_nod:
  001cc	8b 48 04	 mov	 ecx, DWORD PTR [eax+4]
  001cf	80 79 0c 00	 cmp	 BYTE PTR [ecx+12], 0
  001d3	0f 84 87 fe ff
	ff		 je	 $LL2@Insert_nod
  001d9	5e		 pop	 esi
$LN3@Insert_nod:

; 707  :                 }
; 708  :             }
; 709  :         }
; 710  : 
; 711  :         _Head->_Parent->_Color = _Black; // root is always black

  001da	8b 45 fc	 mov	 eax, DWORD PTR __Head$1$[ebp]
  001dd	8b 40 04	 mov	 eax, DWORD PTR [eax+4]
  001e0	c6 40 0c 01	 mov	 BYTE PTR [eax+12], 1

; 712  :         return _Newnode;
; 713  :     }

  001e4	8b c7		 mov	 eax, edi
  001e6	5f		 pop	 edi
  001e7	5b		 pop	 ebx
  001e8	8b e5		 mov	 esp, ebp
  001ea	5d		 pop	 ebp
  001eb	c2 0c 00	 ret	 12			; 0000000cH
?_Insert_node@?$_Tree_val@U?$_Tree_simple_types@U?$pair@$$CBKUSPartyMemberInfo@CPythonPlayer@@@std@@@std@@@std@@QAEPAU?$_Tree_node@U?$pair@$$CBKUSPartyMemberInfo@CPythonPlayer@@@std@@PAX@2@U?$_Tree_id@PAU?$_Tree_node@U?$pair@$$CBKUSPartyMemberInfo@CPythonPlayer@@@std@@PAX@std@@@2@QAU32@@Z ENDP ; std::_Tree_val<std::_Tree_simple_types<std::pair<unsigned long const ,CPythonPlayer::SPartyMemberInfo> > >::_Insert_node
_TEXT	ENDS
; Function compile flags: /Ogtp
; File C:\Program Files\Microsoft Visual Studio\2022\Community\VC\Tools\MSVC\14.34.31933\include\xtree
;	COMDAT ?_Check_grow_by_1@?$_Tree@V?$_Tmap_traits@KUSPartyMemberInfo@CPythonPlayer@@U?$less@K@std@@V?$allocator@U?$pair@$$CBKUSPartyMemberInfo@CPythonPlayer@@@std@@@4@$0A@@std@@@std@@IAEXXZ
_TEXT	SEGMENT
?_Check_grow_by_1@?$_Tree@V?$_Tmap_traits@KUSPartyMemberInfo@CPythonPlayer@@U?$less@K@std@@V?$allocator@U?$pair@$$CBKUSPartyMemberInfo@CPythonPlayer@@@std@@@4@$0A@@std@@@std@@IAEXXZ PROC ; std::_Tree<std::_Tmap_traits<unsigned long,CPythonPlayer::SPartyMemberInfo,std::less<unsigned long>,std::allocator<std::pair<unsigned long const ,CPythonPlayer::SPartyMemberInfo> >,0> >::_Check_grow_by_1, COMDAT
; _this$ = ecx

; 1629 :         if (max_size() == _Get_scary()->_Mysize) {

  00000	81 79 04 c3 c3
	c3 03		 cmp	 DWORD PTR [ecx+4], 63161283 ; 03c3c3c3H
  00007	0f 84 00 00 00
	00		 je	 ?_Throw_tree_length_error@std@@YAXXZ ; std::_Throw_tree_length_error

; 1630 :             _Throw_tree_length_error();
; 1631 :         }
; 1632 :     }

  0000d	c3		 ret	 0
?_Check_grow_by_1@?$_Tree@V?$_Tmap_traits@KUSPartyMemberInfo@CPythonPlayer@@U?$less@K@std@@V?$allocator@U?$pair@$$CBKUSPartyMemberInfo@CPythonPlayer@@@std@@@4@$0A@@std@@@std@@IAEXXZ ENDP ; std::_Tree<std::_Tmap_traits<unsigned long,CPythonPlayer::SPartyMemberInfo,std::less<unsigned long>,std::allocator<std::pair<unsigned long const ,CPythonPlayer::SPartyMemberInfo> >,0> >::_Check_grow_by_1
_TEXT	ENDS
; Function compile flags: /Ogtp
; File C:\Program Files\Microsoft Visual Studio\2022\Community\VC\Tools\MSVC\14.34.31933\include\xmemory
;	COMDAT ??1?$_Tree_temp_node_alloc@V?$allocator@U?$_Tree_node@U?$pair@$$CBKUSPartyMemberInfo@CPythonPlayer@@@std@@PAX@std@@@std@@@std@@QAE@XZ
_TEXT	SEGMENT
??1?$_Tree_temp_node_alloc@V?$allocator@U?$_Tree_node@U?$pair@$$CBKUSPartyMemberInfo@CPythonPlayer@@@std@@PAX@std@@@std@@@std@@QAE@XZ PROC ; std::_Tree_temp_node_alloc<std::allocator<std::_Tree_node<std::pair<unsigned long const ,CPythonPlayer::SPartyMemberInfo>,void *> > >::~_Tree_temp_node_alloc<std::allocator<std::_Tree_node<std::pair<unsigned long const ,CPythonPlayer::SPartyMemberInfo>,void *> > >, COMDAT
; _this$ = ecx

; 1017 :         if (_Ptr) {

  00000	8b 41 04	 mov	 eax, DWORD PTR [ecx+4]
  00003	85 c0		 test	 eax, eax
  00005	74 0b		 je	 SHORT $LN10@Tree_temp_

; 255  :         ::operator delete(_Ptr, _Bytes);

  00007	6a 44		 push	 68			; 00000044H
  00009	50		 push	 eax
  0000a	e8 00 00 00 00	 call	 ??3@YAXPAXI@Z		; operator delete
  0000f	83 c4 08	 add	 esp, 8
$LN10@Tree_temp_:
  00012	c3		 ret	 0
??1?$_Tree_temp_node_alloc@V?$allocator@U?$_Tree_node@U?$pair@$$CBKUSPartyMemberInfo@CPythonPlayer@@@std@@PAX@std@@@std@@@std@@QAE@XZ ENDP ; std::_Tree_temp_node_alloc<std::allocator<std::_Tree_node<std::pair<unsigned long const ,CPythonPlayer::SPartyMemberInfo>,void *> > >::~_Tree_temp_node_alloc<std::allocator<std::_Tree_node<std::pair<unsigned long const ,CPythonPlayer::SPartyMemberInfo>,void *> > >
_TEXT	ENDS
; Function compile flags: /Ogtp
; File C:\Program Files\Microsoft Visual Studio\2022\Community\VC\Tools\MSVC\14.34.31933\include\xmemory
;	COMDAT ??1?$_Alloc_construct_ptr@V?$allocator@U?$_Tree_node@U?$pair@$$CBKUSPartyMemberInfo@CPythonPlayer@@@std@@PAX@std@@@std@@@std@@QAE@XZ
_TEXT	SEGMENT
??1?$_Alloc_construct_ptr@V?$allocator@U?$_Tree_node@U?$pair@$$CBKUSPartyMemberInfo@CPythonPlayer@@@std@@PAX@std@@@std@@@std@@QAE@XZ PROC ; std::_Alloc_construct_ptr<std::allocator<std::_Tree_node<std::pair<unsigned long const ,CPythonPlayer::SPartyMemberInfo>,void *> > >::~_Alloc_construct_ptr<std::allocator<std::_Tree_node<std::pair<unsigned long const ,CPythonPlayer::SPartyMemberInfo>,void *> > >, COMDAT
; _this$ = ecx

; 1017 :         if (_Ptr) {

  00000	8b 41 04	 mov	 eax, DWORD PTR [ecx+4]
  00003	85 c0		 test	 eax, eax
  00005	74 0b		 je	 SHORT $LN8@Alloc_cons

; 255  :         ::operator delete(_Ptr, _Bytes);

  00007	6a 44		 push	 68			; 00000044H
  00009	50		 push	 eax
  0000a	e8 00 00 00 00	 call	 ??3@YAXPAXI@Z		; operator delete
  0000f	83 c4 08	 add	 esp, 8
$LN8@Alloc_cons:

; 1018 :             _Al.deallocate(_Ptr, 1);
; 1019 :         }
; 1020 :     }

  00012	c3		 ret	 0
??1?$_Alloc_construct_ptr@V?$allocator@U?$_Tree_node@U?$pair@$$CBKUSPartyMemberInfo@CPythonPlayer@@@std@@PAX@std@@@std@@@std@@QAE@XZ ENDP ; std::_Alloc_construct_ptr<std::allocator<std::_Tree_node<std::pair<unsigned long const ,CPythonPlayer::SPartyMemberInfo>,void *> > >::~_Alloc_construct_ptr<std::allocator<std::_Tree_node<std::pair<unsigned long const ,CPythonPlayer::SPartyMemberInfo>,void *> > >
_TEXT	ENDS
; Function compile flags: /Ogtp
; File C:\Program Files\Microsoft Visual Studio\2022\Community\VC\Tools\MSVC\14.34.31933\include\xtree
;	COMDAT ?max_size@?$_Tree@V?$_Tmap_traits@KUSPartyMemberInfo@CPythonPlayer@@U?$less@K@std@@V?$allocator@U?$pair@$$CBKUSPartyMemberInfo@CPythonPlayer@@@std@@@4@$0A@@std@@@std@@QBEIXZ
_TEXT	SEGMENT
?max_size@?$_Tree@V?$_Tmap_traits@KUSPartyMemberInfo@CPythonPlayer@@U?$less@K@std@@V?$allocator@U?$pair@$$CBKUSPartyMemberInfo@CPythonPlayer@@@std@@@4@$0A@@std@@@std@@QBEIXZ PROC ; std::_Tree<std::_Tmap_traits<unsigned long,CPythonPlayer::SPartyMemberInfo,std::less<unsigned long>,std::allocator<std::pair<unsigned long const ,CPythonPlayer::SPartyMemberInfo> >,0> >::max_size, COMDAT
; _this$dead$ = ecx

; 1197 :         return (_STD min)(

  00000	b8 c3 c3 c3 03	 mov	 eax, 63161283		; 03c3c3c3H

; 1198 :             static_cast<size_type>((numeric_limits<difference_type>::max)()), _Alnode_traits::max_size(_Getal()));
; 1199 :     }

  00005	c3		 ret	 0
?max_size@?$_Tree@V?$_Tmap_traits@KUSPartyMemberInfo@CPythonPlayer@@U?$less@K@std@@V?$allocator@U?$pair@$$CBKUSPartyMemberInfo@CPythonPlayer@@@std@@@4@$0A@@std@@@std@@QBEIXZ ENDP ; std::_Tree<std::_Tmap_traits<unsigned long,CPythonPlayer::SPartyMemberInfo,std::less<unsigned long>,std::allocator<std::pair<unsigned long const ,CPythonPlayer::SPartyMemberInfo> >,0> >::max_size
_TEXT	ENDS
; Function compile flags: /Ogtp
; File C:\Program Files\Microsoft Visual Studio\2022\Community\VC\Tools\MSVC\14.34.31933\include\xtree
;	COMDAT ?_Getal@?$_Tree@V?$_Tmap_traits@KUSPartyMemberInfo@CPythonPlayer@@U?$less@K@std@@V?$allocator@U?$pair@$$CBKUSPartyMemberInfo@CPythonPlayer@@@std@@@4@$0A@@std@@@std@@IBEABV?$allocator@U?$_Tree_node@U?$pair@$$CBKUSPartyMemberInfo@CPythonPlayer@@@std@@PAX@std@@@2@XZ
_TEXT	SEGMENT
?_Getal@?$_Tree@V?$_Tmap_traits@KUSPartyMemberInfo@CPythonPlayer@@U?$less@K@std@@V?$allocator@U?$pair@$$CBKUSPartyMemberInfo@CPythonPlayer@@@std@@@4@$0A@@std@@@std@@IBEABV?$allocator@U?$_Tree_node@U?$pair@$$CBKUSPartyMemberInfo@CPythonPlayer@@@std@@PAX@std@@@2@XZ PROC ; std::_Tree<std::_Tmap_traits<unsigned long,CPythonPlayer::SPartyMemberInfo,std::less<unsigned long>,std::allocator<std::pair<unsigned long const ,CPythonPlayer::SPartyMemberInfo> >,0> >::_Getal, COMDAT
; _this$ = ecx

; 1963 :         return _Mypair._Myval2._Get_first();

  00000	8b c1		 mov	 eax, ecx

; 1964 :     }

  00002	c3		 ret	 0
?_Getal@?$_Tree@V?$_Tmap_traits@KUSPartyMemberInfo@CPythonPlayer@@U?$less@K@std@@V?$allocator@U?$pair@$$CBKUSPartyMemberInfo@CPythonPlayer@@@std@@@4@$0A@@std@@@std@@IBEABV?$allocator@U?$_Tree_node@U?$pair@$$CBKUSPartyMemberInfo@CPythonPlayer@@@std@@PAX@std@@@2@XZ ENDP ; std::_Tree<std::_Tmap_traits<unsigned long,CPythonPlayer::SPartyMemberInfo,std::less<unsigned long>,std::allocator<std::pair<unsigned long const ,CPythonPlayer::SPartyMemberInfo> >,0> >::_Getal
_TEXT	ENDS
; Function compile flags: /Ogtp
; File C:\Program Files\Microsoft Visual Studio\2022\Community\VC\Tools\MSVC\14.34.31933\include\xmemory
;	COMDAT ?max_size@?$_Default_allocator_traits@V?$allocator@U?$_Tree_node@U?$pair@$$CBKUSPartyMemberInfo@CPythonPlayer@@@std@@PAX@std@@@std@@@std@@SAIABV?$allocator@U?$_Tree_node@U?$pair@$$CBKUSPartyMemberInfo@CPythonPlayer@@@std@@PAX@std@@@2@@Z
_TEXT	SEGMENT
?max_size@?$_Default_allocator_traits@V?$allocator@U?$_Tree_node@U?$pair@$$CBKUSPartyMemberInfo@CPythonPlayer@@@std@@PAX@std@@@std@@@std@@SAIABV?$allocator@U?$_Tree_node@U?$pair@$$CBKUSPartyMemberInfo@CPythonPlayer@@@std@@PAX@std@@@2@@Z PROC ; std::_Default_allocator_traits<std::allocator<std::_Tree_node<std::pair<unsigned long const ,CPythonPlayer::SPartyMemberInfo>,void *> > >::max_size, COMDAT
; ___formal$dead$ = ecx

; 694  :         return static_cast<size_t>(-1) / sizeof(value_type);

  00000	b8 c3 c3 c3 03	 mov	 eax, 63161283		; 03c3c3c3H

; 695  :     }

  00005	c3		 ret	 0
?max_size@?$_Default_allocator_traits@V?$allocator@U?$_Tree_node@U?$pair@$$CBKUSPartyMemberInfo@CPythonPlayer@@@std@@PAX@std@@@std@@@std@@SAIABV?$allocator@U?$_Tree_node@U?$pair@$$CBKUSPartyMemberInfo@CPythonPlayer@@@std@@PAX@std@@@2@@Z ENDP ; std::_Default_allocator_traits<std::allocator<std::_Tree_node<std::pair<unsigned long const ,CPythonPlayer::SPartyMemberInfo>,void *> > >::max_size
_TEXT	ENDS
; Function compile flags: /Ogtp
; File C:\Program Files\Microsoft Visual Studio\2022\Community\VC\Tools\MSVC\14.34.31933\include\xmemory
;	COMDAT ?_Get_first@?$_Compressed_pair@V?$allocator@U?$_Tree_node@U?$pair@$$CBKUSPartyMemberInfo@CPythonPlayer@@@std@@PAX@std@@@std@@V?$_Tree_val@U?$_Tree_simple_types@U?$pair@$$CBKUSPartyMemberInfo@CPythonPlayer@@@std@@@std@@@2@$00@std@@QBEABV?$allocator@U?$_Tree_node@U?$pair@$$CBKUSPartyMemberInfo@CPythonPlayer@@@std@@PAX@std@@@2@XZ
_TEXT	SEGMENT
?_Get_first@?$_Compressed_pair@V?$allocator@U?$_Tree_node@U?$pair@$$CBKUSPartyMemberInfo@CPythonPlayer@@@std@@PAX@std@@@std@@V?$_Tree_val@U?$_Tree_simple_types@U?$pair@$$CBKUSPartyMemberInfo@CPythonPlayer@@@std@@@std@@@2@$00@std@@QBEABV?$allocator@U?$_Tree_node@U?$pair@$$CBKUSPartyMemberInfo@CPythonPlayer@@@std@@PAX@std@@@2@XZ PROC ; std::_Compressed_pair<std::allocator<std::_Tree_node<std::pair<unsigned long const ,CPythonPlayer::SPartyMemberInfo>,void *> >,std::_Tree_val<std::_Tree_simple_types<std::pair<unsigned long const ,CPythonPlayer::SPartyMemberInfo> > >,1>::_Get_first, COMDAT
; _this$ = ecx

; 1388 :         return *this;

  00000	8b c1		 mov	 eax, ecx

; 1389 :     }

  00002	c3		 ret	 0
?_Get_first@?$_Compressed_pair@V?$allocator@U?$_Tree_node@U?$pair@$$CBKUSPartyMemberInfo@CPythonPlayer@@@std@@PAX@std@@@std@@V?$_Tree_val@U?$_Tree_simple_types@U?$pair@$$CBKUSPartyMemberInfo@CPythonPlayer@@@std@@@std@@@2@$00@std@@QBEABV?$allocator@U?$_Tree_node@U?$pair@$$CBKUSPartyMemberInfo@CPythonPlayer@@@std@@PAX@std@@@2@XZ ENDP ; std::_Compressed_pair<std::allocator<std::_Tree_node<std::pair<unsigned long const ,CPythonPlayer::SPartyMemberInfo>,void *> >,std::_Tree_val<std::_Tree_simple_types<std::pair<unsigned long const ,CPythonPlayer::SPartyMemberInfo> > >,1>::_Get_first
_TEXT	ENDS
; Function compile flags: /Ogtp
; File C:\Program Files\Microsoft Visual Studio\2022\Community\VC\Tools\MSVC\14.34.31933\include\xtree
; File C:\Program Files\Microsoft Visual Studio\2022\Community\VC\Tools\MSVC\14.34.31933\include\xmemory
; File C:\Program Files\Microsoft Visual Studio\2022\Community\VC\Tools\MSVC\14.34.31933\include\xtree
; File C:\Program Files\Microsoft Visual Studio\2022\Community\VC\Tools\MSVC\14.34.31933\include\xmemory
; File C:\Program Files\Microsoft Visual Studio\2022\Community\VC\Tools\MSVC\14.34.31933\include\xtree
; File C:\Program Files\Microsoft Visual Studio\2022\Community\VC\Tools\MSVC\14.34.31933\include\xmemory
; File C:\Program Files\Microsoft Visual Studio\2022\Community\VC\Tools\MSVC\14.34.31933\include\utility
; File C:\Program Files\Microsoft Visual Studio\2022\Community\VC\Tools\MSVC\14.34.31933\include\xtree
;	COMDAT ??$?0U?$pair@KUSPartyMemberInfo@CPythonPlayer@@@std@@@?$_Tree_temp_node@V?$allocator@U?$_Tree_node@U?$pair@$$CBKUSPartyMemberInfo@CPythonPlayer@@@std@@PAX@std@@@std@@@std@@QAE@AAV?$allocator@U?$_Tree_node@U?$pair@$$CBKUSPartyMemberInfo@CPythonPlayer@@@std@@PAX@std@@@1@PAU?$_Tree_node@U?$pair@$$CBKUSPartyMemberInfo@CPythonPlayer@@@std@@PAX@1@$$QAU?$pair@KUSPartyMemberInfo@CPythonPlayer@@@1@@Z
_TEXT	SEGMENT
_this$ = -16						; size = 4
__$EHRec$ = -12						; size = 12
__Al_$ = 8						; size = 4
__Myhead$ = 12						; size = 4
_<_Vals_0>$ = 16					; size = 4
??$?0U?$pair@KUSPartyMemberInfo@CPythonPlayer@@@std@@@?$_Tree_temp_node@V?$allocator@U?$_Tree_node@U?$pair@$$CBKUSPartyMemberInfo@CPythonPlayer@@@std@@PAX@std@@@std@@@std@@QAE@AAV?$allocator@U?$_Tree_node@U?$pair@$$CBKUSPartyMemberInfo@CPythonPlayer@@@std@@PAX@std@@@1@PAU?$_Tree_node@U?$pair@$$CBKUSPartyMemberInfo@CPythonPlayer@@@std@@PAX@1@$$QAU?$pair@KUSPartyMemberInfo@CPythonPlayer@@@1@@Z PROC ; std::_Tree_temp_node<std::allocator<std::_Tree_node<std::pair<unsigned long const ,CPythonPlayer::SPartyMemberInfo>,void *> > >::_Tree_temp_node<std::allocator<std::_Tree_node<std::pair<unsigned long const ,CPythonPlayer::SPartyMemberInfo>,void *> > ><std::pair<unsigned long,CPythonPlayer::SPartyMemberInfo> >, COMDAT
; _this$ = ecx

; 806  :         : _Tree_temp_node_alloc<_Alnode>(_Al_) {

  00000	55		 push	 ebp
  00001	8b ec		 mov	 ebp, esp
  00003	6a ff		 push	 -1
  00005	68 00 00 00 00	 push	 __ehhandler$??$?0U?$pair@KUSPartyMemberInfo@CPythonPlayer@@@std@@@?$_Tree_temp_node@V?$allocator@U?$_Tree_node@U?$pair@$$CBKUSPartyMemberInfo@CPythonPlayer@@@std@@PAX@std@@@std@@@std@@QAE@AAV?$allocator@U?$_Tree_node@U?$pair@$$CBKUSPartyMemberInfo@CPythonPlayer@@@std@@PAX@std@@@1@PAU?$_Tree_node@U?$pair@$$CBKUSPartyMemberInfo@CPythonPlayer@@@std@@PAX@1@$$QAU?$pair@KUSPartyMemberInfo@CPythonPlayer@@@1@@Z
  0000a	64 a1 00 00 00
	00		 mov	 eax, DWORD PTR fs:0
  00010	50		 push	 eax
  00011	51		 push	 ecx
  00012	56		 push	 esi
  00013	57		 push	 edi
  00014	a1 00 00 00 00	 mov	 eax, DWORD PTR ___security_cookie
  00019	33 c5		 xor	 eax, ebp
  0001b	50		 push	 eax
  0001c	8d 45 f4	 lea	 eax, DWORD PTR __$EHRec$[ebp]
  0001f	64 a3 00 00 00
	00		 mov	 DWORD PTR fs:0, eax
  00025	8b f9		 mov	 edi, ecx
  00027	89 7d f0	 mov	 DWORD PTR _this$[ebp], edi
; File C:\Program Files\Microsoft Visual Studio\2022\Community\VC\Tools\MSVC\14.34.31933\include\xmemory

; 1005 :     _CONSTEXPR20 explicit _Alloc_construct_ptr(_Alloc& _Al_) : _Al(_Al_), _Ptr(nullptr) {}

  0002a	8b 45 08	 mov	 eax, DWORD PTR __Al_$[ebp]
  0002d	89 07		 mov	 DWORD PTR [edi], eax
  0002f	c7 47 04 00 00
	00 00		 mov	 DWORD PTR [edi+4], 0
; File C:\Program Files\Microsoft Visual Studio\2022\Community\VC\Tools\MSVC\14.34.31933\include\xtree

; 785  :     explicit _Tree_temp_node_alloc(_Alnode& _Al_) : _Alloc_construct_ptr<_Alnode>(_Al_) {

  00036	c7 45 fc 00 00
	00 00		 mov	 DWORD PTR __$EHRec$[ebp+8], 0
; File C:\Program Files\Microsoft Visual Studio\2022\Community\VC\Tools\MSVC\14.34.31933\include\xmemory

; 77   :         return ::operator new(_Bytes);

  0003d	6a 44		 push	 68			; 00000044H

; 1012 :         _Ptr = nullptr; // if allocate throws, prevents double-free

  0003f	c7 47 04 00 00
	00 00		 mov	 DWORD PTR [edi+4], 0

; 77   :         return ::operator new(_Bytes);

  00046	e8 00 00 00 00	 call	 ??2@YAPAXI@Z		; operator new
; File C:\Program Files\Microsoft Visual Studio\2022\Community\VC\Tools\MSVC\14.34.31933\include\xtree

; 808  :         _Construct_in_place(this->_Ptr->_Left, _Myhead);

  0004b	8b 55 10	 mov	 edx, DWORD PTR _<_Vals_0>$[ebp]
; File C:\Program Files\Microsoft Visual Studio\2022\Community\VC\Tools\MSVC\14.34.31933\include\xmemory

; 77   :         return ::operator new(_Bytes);

  0004e	83 c4 04	 add	 esp, 4

; 1013 :         _Ptr = _Al.allocate(1);

  00051	89 47 04	 mov	 DWORD PTR [edi+4], eax
; File C:\Program Files\Microsoft Visual Studio\2022\Community\VC\Tools\MSVC\14.34.31933\include\utility

; 200  :         : first(_STD forward<_Other1>(_Right.first)), second(_STD forward<_Other2>(_Right.second)) {}

  00054	8d 48 14	 lea	 ecx, DWORD PTR [eax+20]
; File C:\Program Files\Microsoft Visual Studio\2022\Community\VC\Tools\MSVC\14.34.31933\include\xtree

; 808  :         _Construct_in_place(this->_Ptr->_Left, _Myhead);

  00057	8b 32		 mov	 esi, DWORD PTR [edx]
  00059	83 c2 04	 add	 edx, 4
  0005c	52		 push	 edx
  0005d	89 70 10	 mov	 DWORD PTR [eax+16], esi
  00060	e8 00 00 00 00	 call	 ??0SPartyMemberInfo@CPythonPlayer@@QAE@$$QAU01@@Z
  00065	8b 47 04	 mov	 eax, DWORD PTR [edi+4]
  00068	8b 4d 0c	 mov	 ecx, DWORD PTR __Myhead$[ebp]
  0006b	89 08		 mov	 DWORD PTR [eax], ecx

; 809  :         _Construct_in_place(this->_Ptr->_Parent, _Myhead);

  0006d	8b 47 04	 mov	 eax, DWORD PTR [edi+4]
  00070	89 48 04	 mov	 DWORD PTR [eax+4], ecx

; 810  :         _Construct_in_place(this->_Ptr->_Right, _Myhead);

  00073	8b 47 04	 mov	 eax, DWORD PTR [edi+4]
  00076	89 48 08	 mov	 DWORD PTR [eax+8], ecx

; 811  :         this->_Ptr->_Color = _Red;

  00079	8b 47 04	 mov	 eax, DWORD PTR [edi+4]
  0007c	c6 40 0c 00	 mov	 BYTE PTR [eax+12], 0

; 812  :         this->_Ptr->_Isnil = false;

  00080	8b 47 04	 mov	 eax, DWORD PTR [edi+4]
  00083	c6 40 0d 00	 mov	 BYTE PTR [eax+13], 0

; 813  :     }

  00087	8b c7		 mov	 eax, edi
  00089	8b 4d f4	 mov	 ecx, DWORD PTR __$EHRec$[ebp]
  0008c	64 89 0d 00 00
	00 00		 mov	 DWORD PTR fs:0, ecx
  00093	59		 pop	 ecx
  00094	5f		 pop	 edi
  00095	5e		 pop	 esi
  00096	8b e5		 mov	 esp, ebp
  00098	5d		 pop	 ebp
  00099	c2 0c 00	 ret	 12			; 0000000cH
_TEXT	ENDS
;	COMDAT text$x
text$x	SEGMENT
__unwindfunclet$??$?0U?$pair@KUSPartyMemberInfo@CPythonPlayer@@@std@@@?$_Tree_temp_node@V?$allocator@U?$_Tree_node@U?$pair@$$CBKUSPartyMemberInfo@CPythonPlayer@@@std@@PAX@std@@@std@@@std@@QAE@AAV?$allocator@U?$_Tree_node@U?$pair@$$CBKUSPartyMemberInfo@CPythonPlayer@@@std@@PAX@std@@@1@PAU?$_Tree_node@U?$pair@$$CBKUSPartyMemberInfo@CPythonPlayer@@@std@@PAX@1@$$QAU?$pair@KUSPartyMemberInfo@CPythonPlayer@@@1@@Z$1:
  00000	8b 4d f0	 mov	 ecx, DWORD PTR _this$[ebp]
  00003	e9 00 00 00 00	 jmp	 ??1?$_Alloc_construct_ptr@V?$allocator@U?$_Tree_node@U?$pair@$$CBKUSPartyMemberInfo@CPythonPlayer@@@std@@PAX@std@@@std@@@std@@QAE@XZ ; std::_Alloc_construct_ptr<std::allocator<std::_Tree_node<std::pair<unsigned long const ,CPythonPlayer::SPartyMemberInfo>,void *> > >::~_Alloc_construct_ptr<std::allocator<std::_Tree_node<std::pair<unsigned long const ,CPythonPlayer::SPartyMemberInfo>,void *> > >
  00008	cc		 int	 3
  00009	cc		 int	 3
  0000a	cc		 int	 3
  0000b	cc		 int	 3
  0000c	cc		 int	 3
__ehhandler$??$?0U?$pair@KUSPartyMemberInfo@CPythonPlayer@@@std@@@?$_Tree_temp_node@V?$allocator@U?$_Tree_node@U?$pair@$$CBKUSPartyMemberInfo@CPythonPlayer@@@std@@PAX@std@@@std@@@std@@QAE@AAV?$allocator@U?$_Tree_node@U?$pair@$$CBKUSPartyMemberInfo@CPythonPlayer@@@std@@PAX@std@@@1@PAU?$_Tree_node@U?$pair@$$CBKUSPartyMemberInfo@CPythonPlayer@@@std@@PAX@1@$$QAU?$pair@KUSPartyMemberInfo@CPythonPlayer@@@1@@Z:
  0000d	90		 npad	 1
  0000e	90		 npad	 1
  0000f	8b 54 24 08	 mov	 edx, DWORD PTR [esp+8]
  00013	8d 42 0c	 lea	 eax, DWORD PTR [edx+12]
  00016	8b 4a f0	 mov	 ecx, DWORD PTR [edx-16]
  00019	33 c8		 xor	 ecx, eax
  0001b	e8 00 00 00 00	 call	 @__security_check_cookie@4
  00020	b8 00 00 00 00	 mov	 eax, OFFSET __ehfuncinfo$??$?0U?$pair@KUSPartyMemberInfo@CPythonPlayer@@@std@@@?$_Tree_temp_node@V?$allocator@U?$_Tree_node@U?$pair@$$CBKUSPartyMemberInfo@CPythonPlayer@@@std@@PAX@std@@@std@@@std@@QAE@AAV?$allocator@U?$_Tree_node@U?$pair@$$CBKUSPartyMemberInfo@CPythonPlayer@@@std@@PAX@std@@@1@PAU?$_Tree_node@U?$pair@$$CBKUSPartyMemberInfo@CPythonPlayer@@@std@@PAX@1@$$QAU?$pair@KUSPartyMemberInfo@CPythonPlayer@@@1@@Z
  00025	e9 00 00 00 00	 jmp	 ___CxxFrameHandler3
text$x	ENDS
??$?0U?$pair@KUSPartyMemberInfo@CPythonPlayer@@@std@@@?$_Tree_temp_node@V?$allocator@U?$_Tree_node@U?$pair@$$CBKUSPartyMemberInfo@CPythonPlayer@@@std@@PAX@std@@@std@@@std@@QAE@AAV?$allocator@U?$_Tree_node@U?$pair@$$CBKUSPartyMemberInfo@CPythonPlayer@@@std@@PAX@std@@@1@PAU?$_Tree_node@U?$pair@$$CBKUSPartyMemberInfo@CPythonPlayer@@@std@@PAX@1@$$QAU?$pair@KUSPartyMemberInfo@CPythonPlayer@@@1@@Z ENDP ; std::_Tree_temp_node<std::allocator<std::_Tree_node<std::pair<unsigned long const ,CPythonPlayer::SPartyMemberInfo>,void *> > >::_Tree_temp_node<std::allocator<std::_Tree_node<std::pair<unsigned long const ,CPythonPlayer::SPartyMemberInfo>,void *> > ><std::pair<unsigned long,CPythonPlayer::SPartyMemberInfo> >
; Function compile flags: /Ogtp
; File C:\Program Files\Microsoft Visual Studio\2022\Community\VC\Tools\MSVC\14.34.31933\include\utility
;	COMDAT ??$?0AAPAU?$_Tree_node@U?$pair@$$CBKUSPartyMemberInfo@CPythonPlayer@@@std@@PAX@std@@_N$0A@@?$pair@PAU?$_Tree_node@U?$pair@$$CBKUSPartyMemberInfo@CPythonPlayer@@@std@@PAX@std@@_N@std@@QAE@AAPAU?$_Tree_node@U?$pair@$$CBKUSPartyMemberInfo@CPythonPlayer@@@std@@PAX@1@$$QA_N@Z
_TEXT	SEGMENT
__Val1$ = 8						; size = 4
__Val2$ = 12						; size = 4
??$?0AAPAU?$_Tree_node@U?$pair@$$CBKUSPartyMemberInfo@CPythonPlayer@@@std@@PAX@std@@_N$0A@@?$pair@PAU?$_Tree_node@U?$pair@$$CBKUSPartyMemberInfo@CPythonPlayer@@@std@@PAX@std@@_N@std@@QAE@AAPAU?$_Tree_node@U?$pair@$$CBKUSPartyMemberInfo@CPythonPlayer@@@std@@PAX@1@$$QA_N@Z PROC ; std::pair<std::_Tree_node<std::pair<unsigned long const ,CPythonPlayer::SPartyMemberInfo>,void *> *,bool>::pair<std::_Tree_node<std::pair<unsigned long const ,CPythonPlayer::SPartyMemberInfo>,void *> *,bool><std::_Tree_node<std::pair<unsigned long const ,CPythonPlayer::SPartyMemberInfo>,void *> * &,bool,0>, COMDAT
; _this$ = ecx

; 172  :         : first(_STD forward<_Other1>(_Val1)), second(_STD forward<_Other2>(_Val2)) {

  00000	55		 push	 ebp
  00001	8b ec		 mov	 ebp, esp
  00003	8b 45 08	 mov	 eax, DWORD PTR __Val1$[ebp]
  00006	8b 00		 mov	 eax, DWORD PTR [eax]
  00008	89 01		 mov	 DWORD PTR [ecx], eax
  0000a	8b 45 0c	 mov	 eax, DWORD PTR __Val2$[ebp]
  0000d	8a 00		 mov	 al, BYTE PTR [eax]
  0000f	88 41 04	 mov	 BYTE PTR [ecx+4], al

; 173  :     }

  00012	8b c1		 mov	 eax, ecx
  00014	5d		 pop	 ebp
  00015	c2 08 00	 ret	 8
??$?0AAPAU?$_Tree_node@U?$pair@$$CBKUSPartyMemberInfo@CPythonPlayer@@@std@@PAX@std@@_N$0A@@?$pair@PAU?$_Tree_node@U?$pair@$$CBKUSPartyMemberInfo@CPythonPlayer@@@std@@PAX@std@@_N@std@@QAE@AAPAU?$_Tree_node@U?$pair@$$CBKUSPartyMemberInfo@CPythonPlayer@@@std@@PAX@1@$$QA_N@Z ENDP ; std::pair<std::_Tree_node<std::pair<unsigned long const ,CPythonPlayer::SPartyMemberInfo>,void *> *,bool>::pair<std::_Tree_node<std::pair<unsigned long const ,CPythonPlayer::SPartyMemberInfo>,void *> *,bool><std::_Tree_node<std::pair<unsigned long const ,CPythonPlayer::SPartyMemberInfo>,void *> * &,bool,0>
_TEXT	ENDS
; Function compile flags: /Ogtp
; File C:\Program Files\Microsoft Visual Studio\2022\Community\VC\Tools\MSVC\14.34.31933\include\utility
;	COMDAT ??$?0PAU?$_Tree_node@U?$pair@$$CBKUSPartyMemberInfo@CPythonPlayer@@@std@@PAX@std@@_N$0A@@?$pair@PAU?$_Tree_node@U?$pair@$$CBKUSPartyMemberInfo@CPythonPlayer@@@std@@PAX@std@@_N@std@@QAE@$$QAPAU?$_Tree_node@U?$pair@$$CBKUSPartyMemberInfo@CPythonPlayer@@@std@@PAX@1@$$QA_N@Z
_TEXT	SEGMENT
__Val1$ = 8						; size = 4
__Val2$ = 12						; size = 4
??$?0PAU?$_Tree_node@U?$pair@$$CBKUSPartyMemberInfo@CPythonPlayer@@@std@@PAX@std@@_N$0A@@?$pair@PAU?$_Tree_node@U?$pair@$$CBKUSPartyMemberInfo@CPythonPlayer@@@std@@PAX@std@@_N@std@@QAE@$$QAPAU?$_Tree_node@U?$pair@$$CBKUSPartyMemberInfo@CPythonPlayer@@@std@@PAX@1@$$QA_N@Z PROC ; std::pair<std::_Tree_node<std::pair<unsigned long const ,CPythonPlayer::SPartyMemberInfo>,void *> *,bool>::pair<std::_Tree_node<std::pair<unsigned long const ,CPythonPlayer::SPartyMemberInfo>,void *> *,bool><std::_Tree_node<std::pair<unsigned long const ,CPythonPlayer::SPartyMemberInfo>,void *> *,bool,0>, COMDAT
; _this$ = ecx

; 172  :         : first(_STD forward<_Other1>(_Val1)), second(_STD forward<_Other2>(_Val2)) {

  00000	55		 push	 ebp
  00001	8b ec		 mov	 ebp, esp
  00003	8b 45 08	 mov	 eax, DWORD PTR __Val1$[ebp]
  00006	8b 00		 mov	 eax, DWORD PTR [eax]
  00008	89 01		 mov	 DWORD PTR [ecx], eax
  0000a	8b 45 0c	 mov	 eax, DWORD PTR __Val2$[ebp]
  0000d	8a 00		 mov	 al, BYTE PTR [eax]
  0000f	88 41 04	 mov	 BYTE PTR [ecx+4], al

; 173  :     }

  00012	8b c1		 mov	 eax, ecx
  00014	5d		 pop	 ebp
  00015	c2 08 00	 ret	 8
??$?0PAU?$_Tree_node@U?$pair@$$CBKUSPartyMemberInfo@CPythonPlayer@@@std@@PAX@std@@_N$0A@@?$pair@PAU?$_Tree_node@U?$pair@$$CBKUSPartyMemberInfo@CPythonPlayer@@@std@@PAX@std@@_N@std@@QAE@$$QAPAU?$_Tree_node@U?$pair@$$CBKUSPartyMemberInfo@CPythonPlayer@@@std@@PAX@1@$$QA_N@Z ENDP ; std::pair<std::_Tree_node<std::pair<unsigned long const ,CPythonPlayer::SPartyMemberInfo>,void *> *,bool>::pair<std::_Tree_node<std::pair<unsigned long const ,CPythonPlayer::SPartyMemberInfo>,void *> *,bool><std::_Tree_node<std::pair<unsigned long const ,CPythonPlayer::SPartyMemberInfo>,void *> *,bool,0>
_TEXT	ENDS
; Function compile flags: /Ogtp
; File C:\Program Files\Microsoft Visual Studio\2022\Community\VC\Tools\MSVC\14.34.31933\include\type_traits
;	COMDAT ??$forward@V?$_Tree_iterator@V?$_Tree_val@U?$_Tree_simple_types@U?$pair@$$CBKUSPartyMemberInfo@CPythonPlayer@@@std@@@std@@@std@@@std@@@std@@YA$$QAV?$_Tree_iterator@V?$_Tree_val@U?$_Tree_simple_types@U?$pair@$$CBKUSPartyMemberInfo@CPythonPlayer@@@std@@@std@@@std@@@0@AAV10@@Z
_TEXT	SEGMENT
??$forward@V?$_Tree_iterator@V?$_Tree_val@U?$_Tree_simple_types@U?$pair@$$CBKUSPartyMemberInfo@CPythonPlayer@@@std@@@std@@@std@@@std@@@std@@YA$$QAV?$_Tree_iterator@V?$_Tree_val@U?$_Tree_simple_types@U?$pair@$$CBKUSPartyMemberInfo@CPythonPlayer@@@std@@@std@@@std@@@0@AAV10@@Z PROC ; std::forward<std::_Tree_iterator<std::_Tree_val<std::_Tree_simple_types<std::pair<unsigned long const ,CPythonPlayer::SPartyMemberInfo> > > > >, COMDAT
; __Arg$ = ecx

; 1426 :     return static_cast<_Ty&&>(_Arg);

  00000	8b c1		 mov	 eax, ecx

; 1427 : }

  00002	c3		 ret	 0
??$forward@V?$_Tree_iterator@V?$_Tree_val@U?$_Tree_simple_types@U?$pair@$$CBKUSPartyMemberInfo@CPythonPlayer@@@std@@@std@@@std@@@std@@@std@@YA$$QAV?$_Tree_iterator@V?$_Tree_val@U?$_Tree_simple_types@U?$pair@$$CBKUSPartyMemberInfo@CPythonPlayer@@@std@@@std@@@std@@@0@AAV10@@Z ENDP ; std::forward<std::_Tree_iterator<std::_Tree_val<std::_Tree_simple_types<std::pair<unsigned long const ,CPythonPlayer::SPartyMemberInfo> > > > >
_TEXT	ENDS
; Function compile flags: /Ogtp
; File C:\Program Files\Microsoft Visual Studio\2022\Community\VC\Tools\MSVC\14.34.31933\include\xutility
; File C:\Program Files\Microsoft Visual Studio\2022\Community\VC\Tools\MSVC\14.34.31933\include\tuple
; File C:\Program Files\Microsoft Visual Studio\2022\Community\VC\Tools\MSVC\14.34.31933\include\utility
; File C:\Program Files\Microsoft Visual Studio\2022\Community\VC\Tools\MSVC\14.34.31933\include\xutility
; File C:\Program Files\Microsoft Visual Studio\2022\Community\VC\Tools\MSVC\14.34.31933\include\utility
; File C:\Program Files\Microsoft Visual Studio\2022\Community\VC\Tools\MSVC\14.34.31933\include\xutility
;	COMDAT ??$construct_at@U?$pair@$$CBKK@std@@ABUpiecewise_construct_t@2@V?$tuple@ABK@2@V?$tuple@$$V@2@$0A@@std@@YAPAU?$pair@$$CBKK@0@QAU10@ABUpiecewise_construct_t@0@$$QAV?$tuple@ABK@0@$$QAV?$tuple@$$V@0@@Z
_TEXT	SEGMENT
_<_Args_1>$ = 8						; size = 4
_<_Args_2>$dead$ = 12					; size = 4
??$construct_at@U?$pair@$$CBKK@std@@ABUpiecewise_construct_t@2@V?$tuple@ABK@2@V?$tuple@$$V@2@$0A@@std@@YAPAU?$pair@$$CBKK@0@QAU10@ABUpiecewise_construct_t@0@$$QAV?$tuple@ABK@0@$$QAV?$tuple@$$V@0@@Z PROC ; std::construct_at<std::pair<unsigned long const ,unsigned long>,std::piecewise_construct_t const &,std::tuple<unsigned long const &>,std::tuple<>,0>, COMDAT
; __Location$ = ecx
; _<_Args_0>$dead$ = edx

; 217  :     noexcept(::new (_Voidify_iter(_Location)) _Ty(_STD forward<_Types>(_Args)...))) /* strengthened */ {

  00000	55		 push	 ebp
  00001	8b ec		 mov	 ebp, esp
; File C:\Program Files\Microsoft Visual Studio\2022\Community\VC\Tools\MSVC\14.34.31933\include\tuple

; 288  :     tuple(tuple&&)      = default;

  00003	8b 45 08	 mov	 eax, DWORD PTR _<_Args_1>$[ebp]
  00006	8b 00		 mov	 eax, DWORD PTR [eax]
; File C:\Program Files\Microsoft Visual Studio\2022\Community\VC\Tools\MSVC\14.34.31933\include\utility

; 214  :         : first(_Tuple_get<_Indexes1>(_STD move(_Val1))...), second(_Tuple_get<_Indexes2>(_STD move(_Val2))...) {}

  00008	8b 00		 mov	 eax, DWORD PTR [eax]
  0000a	89 01		 mov	 DWORD PTR [ecx], eax
; File C:\Program Files\Microsoft Visual Studio\2022\Community\VC\Tools\MSVC\14.34.31933\include\xutility

; 218  :     _MSVC_CONSTEXPR return ::new (_Voidify_iter(_Location)) _Ty(_STD forward<_Types>(_Args)...);

  0000c	8b c1		 mov	 eax, ecx
; File C:\Program Files\Microsoft Visual Studio\2022\Community\VC\Tools\MSVC\14.34.31933\include\utility

; 214  :         : first(_Tuple_get<_Indexes1>(_STD move(_Val1))...), second(_Tuple_get<_Indexes2>(_STD move(_Val2))...) {}

  0000e	c7 41 04 00 00
	00 00		 mov	 DWORD PTR [ecx+4], 0
; File C:\Program Files\Microsoft Visual Studio\2022\Community\VC\Tools\MSVC\14.34.31933\include\xutility

; 219  : }

  00015	5d		 pop	 ebp
  00016	c3		 ret	 0
??$construct_at@U?$pair@$$CBKK@std@@ABUpiecewise_construct_t@2@V?$tuple@ABK@2@V?$tuple@$$V@2@$0A@@std@@YAPAU?$pair@$$CBKK@0@QAU10@ABUpiecewise_construct_t@0@$$QAV?$tuple@ABK@0@$$QAV?$tuple@$$V@0@@Z ENDP ; std::construct_at<std::pair<unsigned long const ,unsigned long>,std::piecewise_construct_t const &,std::tuple<unsigned long const &>,std::tuple<>,0>
_TEXT	ENDS
; Function compile flags: /Ogtp
; File C:\Program Files\Microsoft Visual Studio\2022\Community\VC\Tools\MSVC\14.34.31933\include\utility
;	COMDAT ??$?0ABK$$Z$$V@?$pair@$$CBKK@std@@QAE@Upiecewise_construct_t@1@V?$tuple@ABK@1@V?$tuple@$$V@1@@Z
_TEXT	SEGMENT
___formal$ = 8						; size = 1
__Val1$ = 12						; size = 4
__Val2$ = 16						; size = 1
??$?0ABK$$Z$$V@?$pair@$$CBKK@std@@QAE@Upiecewise_construct_t@1@V?$tuple@ABK@1@V?$tuple@$$V@1@@Z PROC ; std::pair<unsigned long const ,unsigned long>::pair<unsigned long const ,unsigned long><unsigned long const &>, COMDAT
; _this$ = ecx

; 218  :         : pair(_Val1, _Val2, index_sequence_for<_Types1...>{}, index_sequence_for<_Types2...>{}) {}

  00000	55		 push	 ebp
  00001	8b ec		 mov	 ebp, esp

; 214  :         : first(_Tuple_get<_Indexes1>(_STD move(_Val1))...), second(_Tuple_get<_Indexes2>(_STD move(_Val2))...) {}

  00003	8b 45 0c	 mov	 eax, DWORD PTR __Val1$[ebp]
  00006	8b 00		 mov	 eax, DWORD PTR [eax]
  00008	89 01		 mov	 DWORD PTR [ecx], eax

; 218  :         : pair(_Val1, _Val2, index_sequence_for<_Types1...>{}, index_sequence_for<_Types2...>{}) {}

  0000a	8b c1		 mov	 eax, ecx

; 214  :         : first(_Tuple_get<_Indexes1>(_STD move(_Val1))...), second(_Tuple_get<_Indexes2>(_STD move(_Val2))...) {}

  0000c	c7 41 04 00 00
	00 00		 mov	 DWORD PTR [ecx+4], 0

; 218  :         : pair(_Val1, _Val2, index_sequence_for<_Types1...>{}, index_sequence_for<_Types2...>{}) {}

  00013	5d		 pop	 ebp
  00014	c2 0c 00	 ret	 12			; 0000000cH
??$?0ABK$$Z$$V@?$pair@$$CBKK@std@@QAE@Upiecewise_construct_t@1@V?$tuple@ABK@1@V?$tuple@$$V@1@@Z ENDP ; std::pair<unsigned long const ,unsigned long>::pair<unsigned long const ,unsigned long><unsigned long const &>
_TEXT	ENDS
; Function compile flags: /Ogtp
; File C:\Program Files\Microsoft Visual Studio\2022\Community\VC\Tools\MSVC\14.34.31933\include\utility
;	COMDAT ??$exchange@PAU?$_Tree_node@U?$pair@$$CBKUSPartyMemberInfo@CPythonPlayer@@@std@@PAX@std@@$$T@std@@YAPAU?$_Tree_node@U?$pair@$$CBKUSPartyMemberInfo@CPythonPlayer@@@std@@PAX@0@AAPAU10@$$QA$$T@Z
_TEXT	SEGMENT
??$exchange@PAU?$_Tree_node@U?$pair@$$CBKUSPartyMemberInfo@CPythonPlayer@@@std@@PAX@std@@$$T@std@@YAPAU?$_Tree_node@U?$pair@$$CBKUSPartyMemberInfo@CPythonPlayer@@@std@@PAX@0@AAPAU10@$$QA$$T@Z PROC ; std::exchange<std::_Tree_node<std::pair<unsigned long const ,CPythonPlayer::SPartyMemberInfo>,void *> *,std::nullptr_t>, COMDAT
; __Val$ = ecx
; __New_val$ = edx

; 652  :     // assign _New_val to _Val, return previous _Val
; 653  :     _Ty _Old_val = static_cast<_Ty&&>(_Val);

  00000	8b 01		 mov	 eax, DWORD PTR [ecx]

; 654  :     _Val         = static_cast<_Other&&>(_New_val);

  00002	8b 12		 mov	 edx, DWORD PTR [edx]
  00004	89 11		 mov	 DWORD PTR [ecx], edx

; 655  :     return _Old_val;
; 656  : }

  00006	c3		 ret	 0
??$exchange@PAU?$_Tree_node@U?$pair@$$CBKUSPartyMemberInfo@CPythonPlayer@@@std@@PAX@std@@$$T@std@@YAPAU?$_Tree_node@U?$pair@$$CBKUSPartyMemberInfo@CPythonPlayer@@@std@@PAX@0@AAPAU10@$$QA$$T@Z ENDP ; std::exchange<std::_Tree_node<std::pair<unsigned long const ,CPythonPlayer::SPartyMemberInfo>,void *> *,std::nullptr_t>
_TEXT	ENDS
; Function compile flags: /Ogtp
; File C:\Program Files\Microsoft Visual Studio\2022\Community\VC\Tools\MSVC\14.34.31933\include\xtree
; File C:\Program Files\Microsoft Visual Studio\2022\Community\VC\Tools\MSVC\14.34.31933\include\xmemory
; File C:\Program Files\Microsoft Visual Studio\2022\Community\VC\Tools\MSVC\14.34.31933\include\xtree
; File C:\Program Files\Microsoft Visual Studio\2022\Community\VC\Tools\MSVC\14.34.31933\include\xmemory
; File C:\Program Files\Microsoft Visual Studio\2022\Community\VC\Tools\MSVC\14.34.31933\include\xtree
;	COMDAT ??0?$_Tree_temp_node_alloc@V?$allocator@U?$_Tree_node@U?$pair@$$CBKUSPartyMemberInfo@CPythonPlayer@@@std@@PAX@std@@@std@@@std@@QAE@AAV?$allocator@U?$_Tree_node@U?$pair@$$CBKUSPartyMemberInfo@CPythonPlayer@@@std@@PAX@std@@@1@@Z
_TEXT	SEGMENT
_this$ = -16						; size = 4
__$EHRec$ = -12						; size = 12
__Al_$ = 8						; size = 4
??0?$_Tree_temp_node_alloc@V?$allocator@U?$_Tree_node@U?$pair@$$CBKUSPartyMemberInfo@CPythonPlayer@@@std@@PAX@std@@@std@@@std@@QAE@AAV?$allocator@U?$_Tree_node@U?$pair@$$CBKUSPartyMemberInfo@CPythonPlayer@@@std@@PAX@std@@@1@@Z PROC ; std::_Tree_temp_node_alloc<std::allocator<std::_Tree_node<std::pair<unsigned long const ,CPythonPlayer::SPartyMemberInfo>,void *> > >::_Tree_temp_node_alloc<std::allocator<std::_Tree_node<std::pair<unsigned long const ,CPythonPlayer::SPartyMemberInfo>,void *> > >, COMDAT
; _this$ = ecx

; 785  :     explicit _Tree_temp_node_alloc(_Alnode& _Al_) : _Alloc_construct_ptr<_Alnode>(_Al_) {

  00000	55		 push	 ebp
  00001	8b ec		 mov	 ebp, esp
  00003	6a ff		 push	 -1
  00005	68 00 00 00 00	 push	 __ehhandler$??0?$_Tree_temp_node_alloc@V?$allocator@U?$_Tree_node@U?$pair@$$CBKUSPartyMemberInfo@CPythonPlayer@@@std@@PAX@std@@@std@@@std@@QAE@AAV?$allocator@U?$_Tree_node@U?$pair@$$CBKUSPartyMemberInfo@CPythonPlayer@@@std@@PAX@std@@@1@@Z
  0000a	64 a1 00 00 00
	00		 mov	 eax, DWORD PTR fs:0
  00010	50		 push	 eax
  00011	51		 push	 ecx
  00012	56		 push	 esi
  00013	a1 00 00 00 00	 mov	 eax, DWORD PTR ___security_cookie
  00018	33 c5		 xor	 eax, ebp
  0001a	50		 push	 eax
  0001b	8d 45 f4	 lea	 eax, DWORD PTR __$EHRec$[ebp]
  0001e	64 a3 00 00 00
	00		 mov	 DWORD PTR fs:0, eax
  00024	8b f1		 mov	 esi, ecx
  00026	89 75 f0	 mov	 DWORD PTR _this$[ebp], esi
; File C:\Program Files\Microsoft Visual Studio\2022\Community\VC\Tools\MSVC\14.34.31933\include\xmemory

; 1005 :     _CONSTEXPR20 explicit _Alloc_construct_ptr(_Alloc& _Al_) : _Al(_Al_), _Ptr(nullptr) {}

  00029	8b 45 08	 mov	 eax, DWORD PTR __Al_$[ebp]
  0002c	89 06		 mov	 DWORD PTR [esi], eax
  0002e	c7 46 04 00 00
	00 00		 mov	 DWORD PTR [esi+4], 0
; File C:\Program Files\Microsoft Visual Studio\2022\Community\VC\Tools\MSVC\14.34.31933\include\xtree

; 785  :     explicit _Tree_temp_node_alloc(_Alnode& _Al_) : _Alloc_construct_ptr<_Alnode>(_Al_) {

  00035	c7 45 fc 00 00
	00 00		 mov	 DWORD PTR __$EHRec$[ebp+8], 0
; File C:\Program Files\Microsoft Visual Studio\2022\Community\VC\Tools\MSVC\14.34.31933\include\xmemory

; 77   :         return ::operator new(_Bytes);

  0003c	6a 44		 push	 68			; 00000044H

; 1012 :         _Ptr = nullptr; // if allocate throws, prevents double-free

  0003e	c7 46 04 00 00
	00 00		 mov	 DWORD PTR [esi+4], 0

; 77   :         return ::operator new(_Bytes);

  00045	e8 00 00 00 00	 call	 ??2@YAPAXI@Z		; operator new

; 1013 :         _Ptr = _Al.allocate(1);

  0004a	89 46 04	 mov	 DWORD PTR [esi+4], eax

; 77   :         return ::operator new(_Bytes);

  0004d	83 c4 04	 add	 esp, 4
; File C:\Program Files\Microsoft Visual Studio\2022\Community\VC\Tools\MSVC\14.34.31933\include\xtree

; 787  :     }

  00050	8b c6		 mov	 eax, esi
  00052	8b 4d f4	 mov	 ecx, DWORD PTR __$EHRec$[ebp]
  00055	64 89 0d 00 00
	00 00		 mov	 DWORD PTR fs:0, ecx
  0005c	59		 pop	 ecx
  0005d	5e		 pop	 esi
  0005e	8b e5		 mov	 esp, ebp
  00060	5d		 pop	 ebp
  00061	c2 04 00	 ret	 4
_TEXT	ENDS
;	COMDAT text$x
text$x	SEGMENT
__unwindfunclet$??0?$_Tree_temp_node_alloc@V?$allocator@U?$_Tree_node@U?$pair@$$CBKUSPartyMemberInfo@CPythonPlayer@@@std@@PAX@std@@@std@@@std@@QAE@AAV?$allocator@U?$_Tree_node@U?$pair@$$CBKUSPartyMemberInfo@CPythonPlayer@@@std@@PAX@std@@@1@@Z$0:
  00000	8b 4d f0	 mov	 ecx, DWORD PTR _this$[ebp]
  00003	e9 00 00 00 00	 jmp	 ??1?$_Alloc_construct_ptr@V?$allocator@U?$_Tree_node@U?$pair@$$CBKUSPartyMemberInfo@CPythonPlayer@@@std@@PAX@std@@@std@@@std@@QAE@XZ ; std::_Alloc_construct_ptr<std::allocator<std::_Tree_node<std::pair<unsigned long const ,CPythonPlayer::SPartyMemberInfo>,void *> > >::~_Alloc_construct_ptr<std::allocator<std::_Tree_node<std::pair<unsigned long const ,CPythonPlayer::SPartyMemberInfo>,void *> > >
  00008	cc		 int	 3
  00009	cc		 int	 3
  0000a	cc		 int	 3
  0000b	cc		 int	 3
  0000c	cc		 int	 3
__ehhandler$??0?$_Tree_temp_node_alloc@V?$allocator@U?$_Tree_node@U?$pair@$$CBKUSPartyMemberInfo@CPythonPlayer@@@std@@PAX@std@@@std@@@std@@QAE@AAV?$allocator@U?$_Tree_node@U?$pair@$$CBKUSPartyMemberInfo@CPythonPlayer@@@std@@PAX@std@@@1@@Z:
  0000d	90		 npad	 1
  0000e	90		 npad	 1
  0000f	8b 54 24 08	 mov	 edx, DWORD PTR [esp+8]
  00013	8d 42 0c	 lea	 eax, DWORD PTR [edx+12]
  00016	8b 4a f4	 mov	 ecx, DWORD PTR [edx-12]
  00019	33 c8		 xor	 ecx, eax
  0001b	e8 00 00 00 00	 call	 @__security_check_cookie@4
  00020	b8 00 00 00 00	 mov	 eax, OFFSET __ehfuncinfo$??0?$_Tree_temp_node_alloc@V?$allocator@U?$_Tree_node@U?$pair@$$CBKUSPartyMemberInfo@CPythonPlayer@@@std@@PAX@std@@@std@@@std@@QAE@AAV?$allocator@U?$_Tree_node@U?$pair@$$CBKUSPartyMemberInfo@CPythonPlayer@@@std@@PAX@std@@@1@@Z
  00025	e9 00 00 00 00	 jmp	 ___CxxFrameHandler3
text$x	ENDS
??0?$_Tree_temp_node_alloc@V?$allocator@U?$_Tree_node@U?$pair@$$CBKUSPartyMemberInfo@CPythonPlayer@@@std@@PAX@std@@@std@@@std@@QAE@AAV?$allocator@U?$_Tree_node@U?$pair@$$CBKUSPartyMemberInfo@CPythonPlayer@@@std@@PAX@std@@@1@@Z ENDP ; std::_Tree_temp_node_alloc<std::allocator<std::_Tree_node<std::pair<unsigned long const ,CPythonPlayer::SPartyMemberInfo>,void *> > >::_Tree_temp_node_alloc<std::allocator<std::_Tree_node<std::pair<unsigned long const ,CPythonPlayer::SPartyMemberInfo>,void *> > >
; Function compile flags: /Ogtp
; File C:\Program Files\Microsoft Visual Studio\2022\Community\VC\Tools\MSVC\14.34.31933\include\xmemory
;	COMDAT ?_Allocate@?$_Alloc_construct_ptr@V?$allocator@U?$_Tree_node@U?$pair@$$CBKUSPartyMemberInfo@CPythonPlayer@@@std@@PAX@std@@@std@@@std@@QAEXXZ
_TEXT	SEGMENT
?_Allocate@?$_Alloc_construct_ptr@V?$allocator@U?$_Tree_node@U?$pair@$$CBKUSPartyMemberInfo@CPythonPlayer@@@std@@PAX@std@@@std@@@std@@QAEXXZ PROC ; std::_Alloc_construct_ptr<std::allocator<std::_Tree_node<std::pair<unsigned long const ,CPythonPlayer::SPartyMemberInfo>,void *> > >::_Allocate, COMDAT
; _this$ = ecx

; 1011 :     _CONSTEXPR20 void _Allocate() { // disengage *this, then allocate a new memory block

  00000	56		 push	 esi
  00001	8b f1		 mov	 esi, ecx

; 77   :         return ::operator new(_Bytes);

  00003	6a 44		 push	 68			; 00000044H

; 1012 :         _Ptr = nullptr; // if allocate throws, prevents double-free

  00005	c7 46 04 00 00
	00 00		 mov	 DWORD PTR [esi+4], 0

; 77   :         return ::operator new(_Bytes);

  0000c	e8 00 00 00 00	 call	 ??2@YAPAXI@Z		; operator new
  00011	83 c4 04	 add	 esp, 4

; 1013 :         _Ptr = _Al.allocate(1);

  00014	89 46 04	 mov	 DWORD PTR [esi+4], eax
  00017	5e		 pop	 esi

; 1014 :     }

  00018	c3		 ret	 0
?_Allocate@?$_Alloc_construct_ptr@V?$allocator@U?$_Tree_node@U?$pair@$$CBKUSPartyMemberInfo@CPythonPlayer@@@std@@PAX@std@@@std@@@std@@QAEXXZ ENDP ; std::_Alloc_construct_ptr<std::allocator<std::_Tree_node<std::pair<unsigned long const ,CPythonPlayer::SPartyMemberInfo>,void *> > >::_Allocate
_TEXT	ENDS
; Function compile flags: /Ogtp
; File C:\Program Files\Microsoft Visual Studio\2022\Community\VC\Tools\MSVC\14.34.31933\include\xmemory
;	COMDAT ??0?$_Alloc_construct_ptr@V?$allocator@U?$_Tree_node@U?$pair@$$CBKUSPartyMemberInfo@CPythonPlayer@@@std@@PAX@std@@@std@@@std@@QAE@AAV?$allocator@U?$_Tree_node@U?$pair@$$CBKUSPartyMemberInfo@CPythonPlayer@@@std@@PAX@std@@@1@@Z
_TEXT	SEGMENT
__Al_$ = 8						; size = 4
??0?$_Alloc_construct_ptr@V?$allocator@U?$_Tree_node@U?$pair@$$CBKUSPartyMemberInfo@CPythonPlayer@@@std@@PAX@std@@@std@@@std@@QAE@AAV?$allocator@U?$_Tree_node@U?$pair@$$CBKUSPartyMemberInfo@CPythonPlayer@@@std@@PAX@std@@@1@@Z PROC ; std::_Alloc_construct_ptr<std::allocator<std::_Tree_node<std::pair<unsigned long const ,CPythonPlayer::SPartyMemberInfo>,void *> > >::_Alloc_construct_ptr<std::allocator<std::_Tree_node<std::pair<unsigned long const ,CPythonPlayer::SPartyMemberInfo>,void *> > >, COMDAT
; _this$ = ecx

; 1005 :     _CONSTEXPR20 explicit _Alloc_construct_ptr(_Alloc& _Al_) : _Al(_Al_), _Ptr(nullptr) {}

  00000	55		 push	 ebp
  00001	8b ec		 mov	 ebp, esp
  00003	8b 45 08	 mov	 eax, DWORD PTR __Al_$[ebp]
  00006	89 01		 mov	 DWORD PTR [ecx], eax
  00008	8b c1		 mov	 eax, ecx
  0000a	c7 41 04 00 00
	00 00		 mov	 DWORD PTR [ecx+4], 0
  00011	5d		 pop	 ebp
  00012	c2 04 00	 ret	 4
??0?$_Alloc_construct_ptr@V?$allocator@U?$_Tree_node@U?$pair@$$CBKUSPartyMemberInfo@CPythonPlayer@@@std@@PAX@std@@@std@@@std@@QAE@AAV?$allocator@U?$_Tree_node@U?$pair@$$CBKUSPartyMemberInfo@CPythonPlayer@@@std@@PAX@std@@@1@@Z ENDP ; std::_Alloc_construct_ptr<std::allocator<std::_Tree_node<std::pair<unsigned long const ,CPythonPlayer::SPartyMemberInfo>,void *> > >::_Alloc_construct_ptr<std::allocator<std::_Tree_node<std::pair<unsigned long const ,CPythonPlayer::SPartyMemberInfo>,void *> > >
_TEXT	ENDS
; Function compile flags: /Ogtp
; File C:\Program Files\Microsoft Visual Studio\2022\Community\VC\Tools\MSVC\14.34.31933\include\xmemory
;	COMDAT ??$construct@U?$pair@$$CBKUSPartyMemberInfo@CPythonPlayer@@@std@@U?$pair@KUSPartyMemberInfo@CPythonPlayer@@@2@@?$_Default_allocator_traits@V?$allocator@U?$_Tree_node@U?$pair@$$CBKUSPartyMemberInfo@CPythonPlayer@@@std@@PAX@std@@@std@@@std@@SAXAAV?$allocator@U?$_Tree_node@U?$pair@$$CBKUSPartyMemberInfo@CPythonPlayer@@@std@@PAX@std@@@1@QAU?$pair@$$CBKUSPartyMemberInfo@CPythonPlayer@@@1@$$QAU?$pair@KUSPartyMemberInfo@CPythonPlayer@@@1@@Z
_TEXT	SEGMENT
_<_Args_0>$ = 8						; size = 4
??$construct@U?$pair@$$CBKUSPartyMemberInfo@CPythonPlayer@@@std@@U?$pair@KUSPartyMemberInfo@CPythonPlayer@@@2@@?$_Default_allocator_traits@V?$allocator@U?$_Tree_node@U?$pair@$$CBKUSPartyMemberInfo@CPythonPlayer@@@std@@PAX@std@@@std@@@std@@SAXAAV?$allocator@U?$_Tree_node@U?$pair@$$CBKUSPartyMemberInfo@CPythonPlayer@@@std@@PAX@std@@@1@QAU?$pair@$$CBKUSPartyMemberInfo@CPythonPlayer@@@1@$$QAU?$pair@KUSPartyMemberInfo@CPythonPlayer@@@1@@Z PROC ; std::_Default_allocator_traits<std::allocator<std::_Tree_node<std::pair<unsigned long const ,CPythonPlayer::SPartyMemberInfo>,void *> > >::construct<std::pair<unsigned long const ,CPythonPlayer::SPartyMemberInfo>,std::pair<unsigned long,CPythonPlayer::SPartyMemberInfo> >, COMDAT
; ___formal$dead$ = ecx
; __Ptr$ = edx

; 673  :     static _CONSTEXPR20 void construct(_Alloc&, _Objty* const _Ptr, _Types&&... _Args) {

  00000	55		 push	 ebp
  00001	8b ec		 mov	 ebp, esp

; 674  : #if _HAS_CXX20
; 675  :         if (_STD is_constant_evaluated()) {
; 676  :             _STD construct_at(_Ptr, _STD forward<_Types>(_Args)...);
; 677  :         } else
; 678  : #endif // _HAS_CXX20
; 679  :         {
; 680  :             ::new (_Voidify_iter(_Ptr)) _Objty(_STD forward<_Types>(_Args)...);
; 681  :         }
; 682  :     }

  00003	8b 45 08	 mov	 eax, DWORD PTR _<_Args_0>$[ebp]
  00006	8d 4a 04	 lea	 ecx, DWORD PTR [edx+4]
  00009	56		 push	 esi
  0000a	8b 30		 mov	 esi, DWORD PTR [eax]
  0000c	83 c0 04	 add	 eax, 4
  0000f	50		 push	 eax
  00010	89 32		 mov	 DWORD PTR [edx], esi
  00012	e8 00 00 00 00	 call	 ??0SPartyMemberInfo@CPythonPlayer@@QAE@$$QAU01@@Z
  00017	5e		 pop	 esi
  00018	5d		 pop	 ebp
  00019	c3		 ret	 0
??$construct@U?$pair@$$CBKUSPartyMemberInfo@CPythonPlayer@@@std@@U?$pair@KUSPartyMemberInfo@CPythonPlayer@@@2@@?$_Default_allocator_traits@V?$allocator@U?$_Tree_node@U?$pair@$$CBKUSPartyMemberInfo@CPythonPlayer@@@std@@PAX@std@@@std@@@std@@SAXAAV?$allocator@U?$_Tree_node@U?$pair@$$CBKUSPartyMemberInfo@CPythonPlayer@@@std@@PAX@std@@@1@QAU?$pair@$$CBKUSPartyMemberInfo@CPythonPlayer@@@1@$$QAU?$pair@KUSPartyMemberInfo@CPythonPlayer@@@1@@Z ENDP ; std::_Default_allocator_traits<std::allocator<std::_Tree_node<std::pair<unsigned long const ,CPythonPlayer::SPartyMemberInfo>,void *> > >::construct<std::pair<unsigned long const ,CPythonPlayer::SPartyMemberInfo>,std::pair<unsigned long,CPythonPlayer::SPartyMemberInfo> >
_TEXT	ENDS
; Function compile flags: /Ogtp
; File C:\Program Files\Microsoft Visual Studio\2022\Community\VC\Tools\MSVC\14.34.31933\include\xutility
;	COMDAT ??$_Construct_in_place@PAU?$_Tree_node@U?$pair@$$CBKUSPartyMemberInfo@CPythonPlayer@@@std@@PAX@std@@AAPAU12@@std@@YAXAAPAU?$_Tree_node@U?$pair@$$CBKUSPartyMemberInfo@CPythonPlayer@@@std@@PAX@0@0@Z
_TEXT	SEGMENT
??$_Construct_in_place@PAU?$_Tree_node@U?$pair@$$CBKUSPartyMemberInfo@CPythonPlayer@@@std@@PAX@std@@AAPAU12@@std@@YAXAAPAU?$_Tree_node@U?$pair@$$CBKUSPartyMemberInfo@CPythonPlayer@@@std@@PAX@0@0@Z PROC ; std::_Construct_in_place<std::_Tree_node<std::pair<unsigned long const ,CPythonPlayer::SPartyMemberInfo>,void *> *,std::_Tree_node<std::pair<unsigned long const ,CPythonPlayer::SPartyMemberInfo>,void *> * &>, COMDAT
; __Obj$ = ecx
; _<_Args_0>$ = edx

; 225  : #if _HAS_CXX20
; 226  :     if (_STD is_constant_evaluated()) {
; 227  :         _STD construct_at(_STD addressof(_Obj), _STD forward<_Types>(_Args)...);
; 228  :     } else
; 229  : #endif // _HAS_CXX20
; 230  :     {
; 231  :         ::new (_Voidify_iter(_STD addressof(_Obj))) _Ty(_STD forward<_Types>(_Args)...);
; 232  :     }
; 233  : }

  00000	8b 02		 mov	 eax, DWORD PTR [edx]
  00002	89 01		 mov	 DWORD PTR [ecx], eax
  00004	c3		 ret	 0
??$_Construct_in_place@PAU?$_Tree_node@U?$pair@$$CBKUSPartyMemberInfo@CPythonPlayer@@@std@@PAX@std@@AAPAU12@@std@@YAXAAPAU?$_Tree_node@U?$pair@$$CBKUSPartyMemberInfo@CPythonPlayer@@@std@@PAX@0@0@Z ENDP ; std::_Construct_in_place<std::_Tree_node<std::pair<unsigned long const ,CPythonPlayer::SPartyMemberInfo>,void *> *,std::_Tree_node<std::pair<unsigned long const ,CPythonPlayer::SPartyMemberInfo>,void *> * &>
_TEXT	ENDS
; Function compile flags: /Ogtp
; File C:\Program Files\Microsoft Visual Studio\2022\Community\VC\Tools\MSVC\14.34.31933\include\type_traits
;	COMDAT ??$forward@PAU?$_Tree_node@U?$pair@$$CBKUSPartyMemberInfo@CPythonPlayer@@@std@@PAX@std@@@std@@YA$$QAPAU?$_Tree_node@U?$pair@$$CBKUSPartyMemberInfo@CPythonPlayer@@@std@@PAX@0@AAPAU10@@Z
_TEXT	SEGMENT
??$forward@PAU?$_Tree_node@U?$pair@$$CBKUSPartyMemberInfo@CPythonPlayer@@@std@@PAX@std@@@std@@YA$$QAPAU?$_Tree_node@U?$pair@$$CBKUSPartyMemberInfo@CPythonPlayer@@@std@@PAX@0@AAPAU10@@Z PROC ; std::forward<std::_Tree_node<std::pair<unsigned long const ,CPythonPlayer::SPartyMemberInfo>,void *> *>, COMDAT
; __Arg$ = ecx

; 1426 :     return static_cast<_Ty&&>(_Arg);

  00000	8b c1		 mov	 eax, ecx

; 1427 : }

  00002	c3		 ret	 0
??$forward@PAU?$_Tree_node@U?$pair@$$CBKUSPartyMemberInfo@CPythonPlayer@@@std@@PAX@std@@@std@@YA$$QAPAU?$_Tree_node@U?$pair@$$CBKUSPartyMemberInfo@CPythonPlayer@@@std@@PAX@0@AAPAU10@@Z ENDP ; std::forward<std::_Tree_node<std::pair<unsigned long const ,CPythonPlayer::SPartyMemberInfo>,void *> *>
_TEXT	ENDS
; Function compile flags: /Ogtp
; File C:\Program Files\Microsoft Visual Studio\2022\Community\VC\Tools\MSVC\14.34.31933\include\utility
;	COMDAT ??$?0V?$tuple@ABK@std@@V?$tuple@$$V@1@$0A@$$Z$S@?$pair@$$CBKK@std@@QAE@AAV?$tuple@ABK@1@AAV?$tuple@$$V@1@U?$integer_sequence@I$0A@@1@U?$integer_sequence@I$S@1@@Z
_TEXT	SEGMENT
__Val1$ = 8						; size = 4
__Val2$dead$ = 12					; size = 4
___formal$ = 16						; size = 1
___formal$ = 20						; size = 1
??$?0V?$tuple@ABK@std@@V?$tuple@$$V@1@$0A@$$Z$S@?$pair@$$CBKK@std@@QAE@AAV?$tuple@ABK@1@AAV?$tuple@$$V@1@U?$integer_sequence@I$0A@@1@U?$integer_sequence@I$S@1@@Z PROC ; std::pair<unsigned long const ,unsigned long>::pair<unsigned long const ,unsigned long><std::tuple<unsigned long const &>,std::tuple<>,0>, COMDAT
; _this$ = ecx

; 214  :         : first(_Tuple_get<_Indexes1>(_STD move(_Val1))...), second(_Tuple_get<_Indexes2>(_STD move(_Val2))...) {}

  00000	55		 push	 ebp
  00001	8b ec		 mov	 ebp, esp
  00003	8b 45 08	 mov	 eax, DWORD PTR __Val1$[ebp]
  00006	8b 00		 mov	 eax, DWORD PTR [eax]
  00008	8b 00		 mov	 eax, DWORD PTR [eax]
  0000a	89 01		 mov	 DWORD PTR [ecx], eax
  0000c	8b c1		 mov	 eax, ecx
  0000e	c7 41 04 00 00
	00 00		 mov	 DWORD PTR [ecx+4], 0
  00015	5d		 pop	 ebp
  00016	c2 10 00	 ret	 16			; 00000010H
??$?0V?$tuple@ABK@std@@V?$tuple@$$V@1@$0A@$$Z$S@?$pair@$$CBKK@std@@QAE@AAV?$tuple@ABK@1@AAV?$tuple@$$V@1@U?$integer_sequence@I$0A@@1@U?$integer_sequence@I$S@1@@Z ENDP ; std::pair<unsigned long const ,unsigned long>::pair<unsigned long const ,unsigned long><std::tuple<unsigned long const &>,std::tuple<>,0>
_TEXT	ENDS
; Function compile flags: /Ogtp
; File C:\Program Files\Microsoft Visual Studio\2022\Community\VC\Tools\MSVC\14.34.31933\include\utility
;	COMDAT ??$?0KUSPartyMemberInfo@CPythonPlayer@@$0A@@?$pair@$$CBKUSPartyMemberInfo@CPythonPlayer@@@std@@QAE@$$QAU?$pair@KUSPartyMemberInfo@CPythonPlayer@@@1@@Z
_TEXT	SEGMENT
__Right$ = 8						; size = 4
??$?0KUSPartyMemberInfo@CPythonPlayer@@$0A@@?$pair@$$CBKUSPartyMemberInfo@CPythonPlayer@@@std@@QAE@$$QAU?$pair@KUSPartyMemberInfo@CPythonPlayer@@@1@@Z PROC ; std::pair<unsigned long const ,CPythonPlayer::SPartyMemberInfo>::pair<unsigned long const ,CPythonPlayer::SPartyMemberInfo><unsigned long,CPythonPlayer::SPartyMemberInfo,0>, COMDAT
; _this$ = ecx

; 200  :         : first(_STD forward<_Other1>(_Right.first)), second(_STD forward<_Other2>(_Right.second)) {}

  00000	55		 push	 ebp
  00001	8b ec		 mov	 ebp, esp
  00003	8b 55 08	 mov	 edx, DWORD PTR __Right$[ebp]
  00006	56		 push	 esi
  00007	8b f1		 mov	 esi, ecx
  00009	8b 02		 mov	 eax, DWORD PTR [edx]
  0000b	89 06		 mov	 DWORD PTR [esi], eax
  0000d	8d 4e 04	 lea	 ecx, DWORD PTR [esi+4]
  00010	8d 42 04	 lea	 eax, DWORD PTR [edx+4]
  00013	50		 push	 eax
  00014	e8 00 00 00 00	 call	 ??0SPartyMemberInfo@CPythonPlayer@@QAE@$$QAU01@@Z
  00019	8b c6		 mov	 eax, esi
  0001b	5e		 pop	 esi
  0001c	5d		 pop	 ebp
  0001d	c2 04 00	 ret	 4
??$?0KUSPartyMemberInfo@CPythonPlayer@@$0A@@?$pair@$$CBKUSPartyMemberInfo@CPythonPlayer@@@std@@QAE@$$QAU?$pair@KUSPartyMemberInfo@CPythonPlayer@@@1@@Z ENDP ; std::pair<unsigned long const ,CPythonPlayer::SPartyMemberInfo>::pair<unsigned long const ,CPythonPlayer::SPartyMemberInfo><unsigned long,CPythonPlayer::SPartyMemberInfo,0>
_TEXT	ENDS
; Function compile flags: /Ogtp
; File C:\Program Files\Microsoft Visual Studio\2022\Community\VC\Tools\MSVC\14.34.31933\include\xutility
; File C:\Program Files\Microsoft Visual Studio\2022\Community\VC\Tools\MSVC\14.34.31933\include\utility
; File C:\Program Files\Microsoft Visual Studio\2022\Community\VC\Tools\MSVC\14.34.31933\include\xutility
; File C:\Program Files\Microsoft Visual Studio\2022\Community\VC\Tools\MSVC\14.34.31933\include\utility
; File C:\Program Files\Microsoft Visual Studio\2022\Community\VC\Tools\MSVC\14.34.31933\include\xutility
;	COMDAT ??$construct_at@U?$pair@$$CBKUSPartyMemberInfo@CPythonPlayer@@@std@@U?$pair@KUSPartyMemberInfo@CPythonPlayer@@@2@$0A@@std@@YAPAU?$pair@$$CBKUSPartyMemberInfo@CPythonPlayer@@@0@QAU10@$$QAU?$pair@KUSPartyMemberInfo@CPythonPlayer@@@0@@Z
_TEXT	SEGMENT
??$construct_at@U?$pair@$$CBKUSPartyMemberInfo@CPythonPlayer@@@std@@U?$pair@KUSPartyMemberInfo@CPythonPlayer@@@2@$0A@@std@@YAPAU?$pair@$$CBKUSPartyMemberInfo@CPythonPlayer@@@0@QAU10@$$QAU?$pair@KUSPartyMemberInfo@CPythonPlayer@@@0@@Z PROC ; std::construct_at<std::pair<unsigned long const ,CPythonPlayer::SPartyMemberInfo>,std::pair<unsigned long,CPythonPlayer::SPartyMemberInfo>,0>, COMDAT
; __Location$ = ecx
; _<_Args_0>$ = edx
; File C:\Program Files\Microsoft Visual Studio\2022\Community\VC\Tools\MSVC\14.34.31933\include\utility

; 200  :         : first(_STD forward<_Other1>(_Right.first)), second(_STD forward<_Other2>(_Right.second)) {}

  00000	8b 02		 mov	 eax, DWORD PTR [edx]
; File C:\Program Files\Microsoft Visual Studio\2022\Community\VC\Tools\MSVC\14.34.31933\include\xutility

; 217  :     noexcept(::new (_Voidify_iter(_Location)) _Ty(_STD forward<_Types>(_Args)...))) /* strengthened */ {

  00002	56		 push	 esi
  00003	8b f1		 mov	 esi, ecx
; File C:\Program Files\Microsoft Visual Studio\2022\Community\VC\Tools\MSVC\14.34.31933\include\utility

; 200  :         : first(_STD forward<_Other1>(_Right.first)), second(_STD forward<_Other2>(_Right.second)) {}

  00005	89 06		 mov	 DWORD PTR [esi], eax
  00007	8d 4e 04	 lea	 ecx, DWORD PTR [esi+4]
  0000a	8d 42 04	 lea	 eax, DWORD PTR [edx+4]
  0000d	50		 push	 eax
  0000e	e8 00 00 00 00	 call	 ??0SPartyMemberInfo@CPythonPlayer@@QAE@$$QAU01@@Z
; File C:\Program Files\Microsoft Visual Studio\2022\Community\VC\Tools\MSVC\14.34.31933\include\xutility

; 218  :     _MSVC_CONSTEXPR return ::new (_Voidify_iter(_Location)) _Ty(_STD forward<_Types>(_Args)...);

  00013	8b c6		 mov	 eax, esi
  00015	5e		 pop	 esi

; 219  : }

  00016	c3		 ret	 0
??$construct_at@U?$pair@$$CBKUSPartyMemberInfo@CPythonPlayer@@@std@@U?$pair@KUSPartyMemberInfo@CPythonPlayer@@@2@$0A@@std@@YAPAU?$pair@$$CBKUSPartyMemberInfo@CPythonPlayer@@@0@QAU10@$$QAU?$pair@KUSPartyMemberInfo@CPythonPlayer@@@0@@Z ENDP ; std::construct_at<std::pair<unsigned long const ,CPythonPlayer::SPartyMemberInfo>,std::pair<unsigned long,CPythonPlayer::SPartyMemberInfo>,0>
_TEXT	ENDS
; Function compile flags: /Ogtp
; File C:\Program Files\Microsoft Visual Studio\2022\Community\VC\Tools\MSVC\14.34.31933\include\xutility
;	COMDAT ??$_Voidify_iter@PAU?$pair@$$CBKUSPartyMemberInfo@CPythonPlayer@@@std@@@std@@YAPAXPAU?$pair@$$CBKUSPartyMemberInfo@CPythonPlayer@@@0@@Z
_TEXT	SEGMENT
??$_Voidify_iter@PAU?$pair@$$CBKUSPartyMemberInfo@CPythonPlayer@@@std@@@std@@YAPAXPAU?$pair@$$CBKUSPartyMemberInfo@CPythonPlayer@@@0@@Z PROC ; std::_Voidify_iter<std::pair<unsigned long const ,CPythonPlayer::SPartyMemberInfo> *>, COMDAT
; __It$ = ecx

; 201  :     if constexpr (is_pointer_v<_Iter>) {
; 202  :         return const_cast<void*>(static_cast<const volatile void*>(_It));

  00000	8b c1		 mov	 eax, ecx

; 203  :     } else {
; 204  :         return const_cast<void*>(static_cast<const volatile void*>(_STD addressof(*_It)));
; 205  :     }
; 206  : }

  00002	c3		 ret	 0
??$_Voidify_iter@PAU?$pair@$$CBKUSPartyMemberInfo@CPythonPlayer@@@std@@@std@@YAPAXPAU?$pair@$$CBKUSPartyMemberInfo@CPythonPlayer@@@0@@Z ENDP ; std::_Voidify_iter<std::pair<unsigned long const ,CPythonPlayer::SPartyMemberInfo> *>
_TEXT	ENDS
; Function compile flags: /Ogtp
; File C:\Program Files\Microsoft Visual Studio\2022\Community\VC\Tools\MSVC\14.34.31933\include\xutility
;	COMDAT ??$construct_at@PAU?$_Tree_node@U?$pair@$$CBKUSPartyMemberInfo@CPythonPlayer@@@std@@PAX@std@@AAPAU12@$0A@@std@@YAPAPAU?$_Tree_node@U?$pair@$$CBKUSPartyMemberInfo@CPythonPlayer@@@std@@PAX@0@QAPAU10@AAPAU10@@Z
_TEXT	SEGMENT
??$construct_at@PAU?$_Tree_node@U?$pair@$$CBKUSPartyMemberInfo@CPythonPlayer@@@std@@PAX@std@@AAPAU12@$0A@@std@@YAPAPAU?$_Tree_node@U?$pair@$$CBKUSPartyMemberInfo@CPythonPlayer@@@std@@PAX@0@QAPAU10@AAPAU10@@Z PROC ; std::construct_at<std::_Tree_node<std::pair<unsigned long const ,CPythonPlayer::SPartyMemberInfo>,void *> *,std::_Tree_node<std::pair<unsigned long const ,CPythonPlayer::SPartyMemberInfo>,void *> * &,0>, COMDAT
; __Location$ = ecx
; _<_Args_0>$ = edx

; 218  :     _MSVC_CONSTEXPR return ::new (_Voidify_iter(_Location)) _Ty(_STD forward<_Types>(_Args)...);

  00000	8b 02		 mov	 eax, DWORD PTR [edx]
  00002	89 01		 mov	 DWORD PTR [ecx], eax
  00004	8b c1		 mov	 eax, ecx

; 219  : }

  00006	c3		 ret	 0
??$construct_at@PAU?$_Tree_node@U?$pair@$$CBKUSPartyMemberInfo@CPythonPlayer@@@std@@PAX@std@@AAPAU12@$0A@@std@@YAPAPAU?$_Tree_node@U?$pair@$$CBKUSPartyMemberInfo@CPythonPlayer@@@std@@PAX@0@QAPAU10@AAPAU10@@Z ENDP ; std::construct_at<std::_Tree_node<std::pair<unsigned long const ,CPythonPlayer::SPartyMemberInfo>,void *> *,std::_Tree_node<std::pair<unsigned long const ,CPythonPlayer::SPartyMemberInfo>,void *> * &,0>
_TEXT	ENDS
; Function compile flags: /Odsp
;	COMDAT ??_ECPythonPlayer@@W3AEPAXI@Z
_TEXT	SEGMENT
??_ECPythonPlayer@@W3AEPAXI@Z PROC			; [thunk]:CPythonPlayer::`vector deleting destructor', COMDAT
  00000	83 e9 04	 sub	 ecx, 4
  00003	e9 00 00 00 00	 jmp	 ??_ECPythonPlayer@@UAEPAXI@Z
??_ECPythonPlayer@@W3AEPAXI@Z ENDP			; [thunk]:CPythonPlayer::`vector deleting destructor'
_TEXT	ENDS
; Function compile flags: /Ogtp
; File E:\Metin2_server\SolWayneSF v6\ClientVS22\source\UserInterface\GameType.h
;	COMDAT ?IsBeltInventoryCell@SItemPos@@QAE_NXZ
_TEXT	SEGMENT
?IsBeltInventoryCell@SItemPos@@QAE_NXZ PROC		; SItemPos::IsBeltInventoryCell, COMDAT
; _this$ = ecx

; 258  : 		bool bResult = c_Belt_Inventory_Slot_Start <= cell && c_Belt_Inventory_Slot_End > cell;

  00000	66 8b 41 01	 mov	 ax, WORD PTR [ecx+1]
  00004	ba f2 00 00 00	 mov	 edx, 242		; 000000f2H
  00009	66 2b c2	 sub	 ax, dx

; 259  : 		return bResult;

  0000c	66 83 f8 0f	 cmp	 ax, 15			; 0000000fH
  00010	0f 96 c0	 setbe	 al

; 260  : 	}

  00013	c3		 ret	 0
?IsBeltInventoryCell@SItemPos@@QAE_NXZ ENDP		; SItemPos::IsBeltInventoryCell
_TEXT	ENDS
; Function compile flags: /Ogtp
; File E:\Metin2_server\SolWayneSF v6\ClientVS22\source\UserInterface\GameType.h
;	COMDAT ?IsValidCell@SItemPos@@QAE_NXZ
_TEXT	SEGMENT
?IsValidCell@SItemPos@@QAE_NXZ PROC			; SItemPos::IsValidCell, COMDAT
; _this$ = ecx

; 221  : 		switch (window_type)

  00000	0f b6 01	 movzx	 eax, BYTE PTR [ecx]
  00003	83 e8 01	 sub	 eax, 1
  00006	74 27		 je	 SHORT $LN4@IsValidCel
  00008	83 e8 01	 sub	 eax, 1
  0000b	74 15		 je	 SHORT $LN5@IsValidCel
  0000d	83 e8 03	 sub	 eax, 3
  00010	74 03		 je	 SHORT $LN6@IsValidCel

; 231  : 			break;
; 232  : 		default:
; 233  : 			return false;

  00012	32 c0		 xor	 al, al

; 234  : 		}
; 235  : 	}

  00014	c3		 ret	 0
$LN6@IsValidCel:

; 228  : 			break;
; 229  : 		case DRAGON_SOUL_INVENTORY:
; 230  : 			return cell < (DS_INVENTORY_MAX_NUM);

  00015	b8 80 04 00 00	 mov	 eax, 1152		; 00000480H

; 234  : 		}
; 235  : 	}

  0001a	66 39 41 01	 cmp	 WORD PTR [ecx+1], ax
  0001e	0f 92 c0	 setb	 al
  00021	c3		 ret	 0
$LN5@IsValidCel:

; 225  : 			break;
; 226  : 		case EQUIPMENT:
; 227  : 			return cell < c_DragonSoul_Equip_End;

  00022	b8 e0 00 00 00	 mov	 eax, 224		; 000000e0H

; 234  : 		}
; 235  : 	}

  00027	66 39 41 01	 cmp	 WORD PTR [ecx+1], ax
  0002b	0f 92 c0	 setb	 al
  0002e	c3		 ret	 0
$LN4@IsValidCel:

; 222  : 		{
; 223  : 		case INVENTORY:
; 224  : 			return cell < c_Inventory_Count;

  0002f	b8 02 01 00 00	 mov	 eax, 258		; 00000102H

; 234  : 		}
; 235  : 	}

  00034	66 39 41 01	 cmp	 WORD PTR [ecx+1], ax
  00038	0f 92 c0	 setb	 al
  0003b	c3		 ret	 0
?IsValidCell@SItemPos@@QAE_NXZ ENDP			; SItemPos::IsValidCell
_TEXT	ENDS
END
