; Listing generated by Microsoft (R) Optimizing Compiler Version 19.34.31937.0 

	TITLE	e:\metin2_server\solwaynesf v6\clientvs22\vs_files\userinterface\distribute\pythonskillpet.obj
	.686P
	.XMM
	include listing.inc
	.model	flat

INCLUDELIB OLDNAMES

PUBLIC	??_C@_05HKAKDGKI@EMPTY@				; `string'
PUBLIC	??_C@_0BD@HAGHPHEE@?$CFsskill?1pet?1?$CFs?4sub@	; `string'
PUBLIC	??_C@_0DJ@NNOBFEBF@d?3?1ymir?5work?1ui?1pet?1skill_butto@ ; `string'
PUBLIC	??_C@_04LMMJFDCN@AUTO@				; `string'
PUBLIC	??_C@_0P@BFILMCNN@GetSkillbySlot@		; `string'
PUBLIC	??_C@_0N@MMMLGFPG@SetSkillSlot@			; `string'
PUBLIC	??_C@_08MEIGOFDG@petskill@			; `string'
PUBLIC	??_C@_0O@LGLMGJIG@GetEmptySkill@		; `string'
PUBLIC	??_R2CPythonSkillPet@@8				; CPythonSkillPet::`RTTI Base Class Array'
PUBLIC	??_R2?$CSingleton@VCPythonSkillPet@@@@8		; CSingleton<CPythonSkillPet>::`RTTI Base Class Array'
PUBLIC	??_R1A@?0A@EA@CPythonSkillPet@@8		; CPythonSkillPet::`RTTI Base Class Descriptor at (0,-1,0,64)'
PUBLIC	??_R1A@?0A@EA@?$CSingleton@VCPythonSkillPet@@@@8 ; CSingleton<CPythonSkillPet>::`RTTI Base Class Descriptor at (0,-1,0,64)'
PUBLIC	??_R3?$CSingleton@VCPythonSkillPet@@@@8		; CSingleton<CPythonSkillPet>::`RTTI Class Hierarchy Descriptor'
PUBLIC	??_R3CPythonSkillPet@@8				; CPythonSkillPet::`RTTI Class Hierarchy Descriptor'
PUBLIC	??_R0?AV?$CSingleton@VCPythonSkillPet@@@@@8	; CSingleton<CPythonSkillPet> `RTTI Type Descriptor'
PUBLIC	??_R0?AVCPythonSkillPet@@@8			; CPythonSkillPet `RTTI Type Descriptor'
PUBLIC	??_R4?$CSingleton@VCPythonSkillPet@@@@6B@	; CSingleton<CPythonSkillPet>::`RTTI Complete Object Locator'
PUBLIC	??_R4CPythonSkillPet@@6B@			; CPythonSkillPet::`RTTI Complete Object Locator'
PUBLIC	??_7?$CSingleton@VCPythonSkillPet@@@@6B@	; CSingleton<CPythonSkillPet>::`vftable'
PUBLIC	??_7CPythonSkillPet@@6B@			; CPythonSkillPet::`vftable'
EXTRN	?SplitLine@CMemoryTextFileLoader@@QAE_NKPAV?$vector@V?$basic_string@DU?$char_traits@D@std@@V?$allocator@D@2@@std@@V?$allocator@V?$basic_string@DU?$char_traits@D@std@@V?$allocator@D@2@@std@@@2@@std@@PBD@Z:PROC ; CMemoryTextFileLoader::SplitLine
;	COMDAT ??_7CPythonSkillPet@@6B@
CONST	SEGMENT
??_7CPythonSkillPet@@6B@ DD FLAT:??_R4CPythonSkillPet@@6B@ ; CPythonSkillPet::`vftable'
	DD	FLAT:??_ECPythonSkillPet@@UAEPAXI@Z
CONST	ENDS
;	COMDAT ?s_methods@?1??initskillpet@@YAXXZ@4PAUPyMethodDef@@A
_DATA	SEGMENT
?s_methods@?1??initskillpet@@YAXXZ@4PAUPyMethodDef@@A DD FLAT:??_C@_0N@MMMLGFPG@SetSkillSlot@ ; `initskillpet'::`2'::s_methods
	DD	FLAT:?petskillSetSkillSlot@@YAPAU_object@@PAU1@0@Z
	DD	01H
	ORG $+4
	DD	FLAT:??_C@_0N@IEABDKDK@GetIconImage@
	DD	FLAT:?petskillGetIconImage@@YAPAU_object@@PAU1@0@Z
	DD	01H
	ORG $+4
	DD	FLAT:??_C@_0P@BFILMCNN@GetSkillbySlot@
	DD	FLAT:?petskillGetSkillbySlot@@YAPAU_object@@PAU1@0@Z
	DD	01H
	ORG $+4
	DD	FLAT:??_C@_0O@LGLMGJIG@GetEmptySkill@
	DD	FLAT:?petskillGetEmptySkill@@YAPAU_object@@PAU1@0@Z
	DD	01H
	ORG $+4
	DD	00H
	DD	00H
	DD	00H
	ORG $+4
_DATA	ENDS
;	COMDAT ??_7?$CSingleton@VCPythonSkillPet@@@@6B@
CONST	SEGMENT
??_7?$CSingleton@VCPythonSkillPet@@@@6B@ DD FLAT:??_R4?$CSingleton@VCPythonSkillPet@@@@6B@ ; CSingleton<CPythonSkillPet>::`vftable'
	DD	FLAT:??_E?$CSingleton@VCPythonSkillPet@@@@UAEPAXI@Z
CONST	ENDS
;	COMDAT ??_R4CPythonSkillPet@@6B@
rdata$r	SEGMENT
??_R4CPythonSkillPet@@6B@ DD 00H			; CPythonSkillPet::`RTTI Complete Object Locator'
	DD	00H
	DD	00H
	DD	FLAT:??_R0?AVCPythonSkillPet@@@8
	DD	FLAT:??_R3CPythonSkillPet@@8
rdata$r	ENDS
;	COMDAT ??_R4?$CSingleton@VCPythonSkillPet@@@@6B@
rdata$r	SEGMENT
??_R4?$CSingleton@VCPythonSkillPet@@@@6B@ DD 00H	; CSingleton<CPythonSkillPet>::`RTTI Complete Object Locator'
	DD	00H
	DD	00H
	DD	FLAT:??_R0?AV?$CSingleton@VCPythonSkillPet@@@@@8
	DD	FLAT:??_R3?$CSingleton@VCPythonSkillPet@@@@8
rdata$r	ENDS
;	COMDAT ??_R0?AVCPythonSkillPet@@@8
data$rs	SEGMENT
??_R0?AVCPythonSkillPet@@@8 DD FLAT:??_7type_info@@6B@	; CPythonSkillPet `RTTI Type Descriptor'
	DD	00H
	DB	'.?AVCPythonSkillPet@@', 00H
data$rs	ENDS
;	COMDAT ??_R0?AV?$CSingleton@VCPythonSkillPet@@@@@8
data$rs	SEGMENT
??_R0?AV?$CSingleton@VCPythonSkillPet@@@@@8 DD FLAT:??_7type_info@@6B@ ; CSingleton<CPythonSkillPet> `RTTI Type Descriptor'
	DD	00H
	DB	'.?AV?$CSingleton@VCPythonSkillPet@@@@', 00H
data$rs	ENDS
;	COMDAT ??_R3CPythonSkillPet@@8
rdata$r	SEGMENT
??_R3CPythonSkillPet@@8 DD 00H				; CPythonSkillPet::`RTTI Class Hierarchy Descriptor'
	DD	00H
	DD	02H
	DD	FLAT:??_R2CPythonSkillPet@@8
rdata$r	ENDS
;	COMDAT ??_R3?$CSingleton@VCPythonSkillPet@@@@8
rdata$r	SEGMENT
??_R3?$CSingleton@VCPythonSkillPet@@@@8 DD 00H		; CSingleton<CPythonSkillPet>::`RTTI Class Hierarchy Descriptor'
	DD	00H
	DD	01H
	DD	FLAT:??_R2?$CSingleton@VCPythonSkillPet@@@@8
rdata$r	ENDS
;	COMDAT ??_R1A@?0A@EA@?$CSingleton@VCPythonSkillPet@@@@8
rdata$r	SEGMENT
??_R1A@?0A@EA@?$CSingleton@VCPythonSkillPet@@@@8 DD FLAT:??_R0?AV?$CSingleton@VCPythonSkillPet@@@@@8 ; CSingleton<CPythonSkillPet>::`RTTI Base Class Descriptor at (0,-1,0,64)'
	DD	00H
	DD	00H
	DD	0ffffffffH
	DD	00H
	DD	040H
	DD	FLAT:??_R3?$CSingleton@VCPythonSkillPet@@@@8
rdata$r	ENDS
;	COMDAT ??_R1A@?0A@EA@CPythonSkillPet@@8
rdata$r	SEGMENT
??_R1A@?0A@EA@CPythonSkillPet@@8 DD FLAT:??_R0?AVCPythonSkillPet@@@8 ; CPythonSkillPet::`RTTI Base Class Descriptor at (0,-1,0,64)'
	DD	01H
	DD	00H
	DD	0ffffffffH
	DD	00H
	DD	040H
	DD	FLAT:??_R3CPythonSkillPet@@8
rdata$r	ENDS
;	COMDAT ??_R2?$CSingleton@VCPythonSkillPet@@@@8
rdata$r	SEGMENT
??_R2?$CSingleton@VCPythonSkillPet@@@@8 DD FLAT:??_R1A@?0A@EA@?$CSingleton@VCPythonSkillPet@@@@8 ; CSingleton<CPythonSkillPet>::`RTTI Base Class Array'
rdata$r	ENDS
;	COMDAT ??_R2CPythonSkillPet@@8
rdata$r	SEGMENT
??_R2CPythonSkillPet@@8 DD FLAT:??_R1A@?0A@EA@CPythonSkillPet@@8 ; CPythonSkillPet::`RTTI Base Class Array'
	DD	FLAT:??_R1A@?0A@EA@?$CSingleton@VCPythonSkillPet@@@@8
rdata$r	ENDS
;	COMDAT ??_C@_0O@LGLMGJIG@GetEmptySkill@
CONST	SEGMENT
??_C@_0O@LGLMGJIG@GetEmptySkill@ DB 'GetEmptySkill', 00H ; `string'
CONST	ENDS
;	COMDAT ??_C@_08MEIGOFDG@petskill@
CONST	SEGMENT
??_C@_08MEIGOFDG@petskill@ DB 'petskill', 00H		; `string'
CONST	ENDS
;	COMDAT ??_C@_0N@MMMLGFPG@SetSkillSlot@
CONST	SEGMENT
??_C@_0N@MMMLGFPG@SetSkillSlot@ DB 'SetSkillSlot', 00H	; `string'
CONST	ENDS
;	COMDAT ??_C@_0P@BFILMCNN@GetSkillbySlot@
CONST	SEGMENT
??_C@_0P@BFILMCNN@GetSkillbySlot@ DB 'GetSkillbySlot', 00H ; `string'
CONST	ENDS
;	COMDAT ??_C@_04LMMJFDCN@AUTO@
CONST	SEGMENT
??_C@_04LMMJFDCN@AUTO@ DB 'AUTO', 00H			; `string'
CONST	ENDS
;	COMDAT ??_C@_0DJ@NNOBFEBF@d?3?1ymir?5work?1ui?1pet?1skill_butto@
CONST	SEGMENT
??_C@_0DJ@NNOBFEBF@d?3?1ymir?5work?1ui?1pet?1skill_butto@ DB 'd:/ymir wor'
	DB	'k/ui/pet/skill_button/skill_enable_button.sub', 00H ; `string'
CONST	ENDS
;	COMDAT ??_C@_0BD@HAGHPHEE@?$CFsskill?1pet?1?$CFs?4sub@
CONST	SEGMENT
??_C@_0BD@HAGHPHEE@?$CFsskill?1pet?1?$CFs?4sub@ DB '%sskill/pet/%s.sub', 00H ; `string'
CONST	ENDS
;	COMDAT ??_C@_05HKAKDGKI@EMPTY@
CONST	SEGMENT
??_C@_05HKAKDGKI@EMPTY@ DB 'EMPTY', 00H			; `string'
PUBLIC	??$construct_at@U?$pair@$$CBKUSSkillDataPet@CPythonSkillPet@@@std@@U?$pair@KUSSkillDataPet@CPythonSkillPet@@@2@$0A@@std@@YAPAU?$pair@$$CBKUSSkillDataPet@CPythonSkillPet@@@0@QAU10@$$QAU?$pair@KUSSkillDataPet@CPythonSkillPet@@@0@@Z ; std::construct_at<std::pair<unsigned long const ,CPythonSkillPet::SSkillDataPet>,std::pair<unsigned long,CPythonSkillPet::SSkillDataPet>,0>
PUBLIC	??$?0KUSSkillDataPet@CPythonSkillPet@@$0A@@?$pair@$$CBKUSSkillDataPet@CPythonSkillPet@@@std@@QAE@$$QAU?$pair@KUSSkillDataPet@CPythonSkillPet@@@1@@Z ; std::pair<unsigned long const ,CPythonSkillPet::SSkillDataPet>::pair<unsigned long const ,CPythonSkillPet::SSkillDataPet><unsigned long,CPythonSkillPet::SSkillDataPet,0>
PUBLIC	??$?0V?$tuple@ABK@std@@V?$tuple@$$V@1@$0A@$$Z$S@?$pair@$$CBKUSSkillDataPet@CPythonSkillPet@@@std@@QAE@AAV?$tuple@ABK@1@AAV?$tuple@$$V@1@U?$integer_sequence@I$0A@@1@U?$integer_sequence@I$S@1@@Z ; std::pair<unsigned long const ,CPythonSkillPet::SSkillDataPet>::pair<unsigned long const ,CPythonSkillPet::SSkillDataPet><std::tuple<unsigned long const &>,std::tuple<>,0>
PUBLIC	??$construct@U?$pair@$$CBKUSSkillDataPet@CPythonSkillPet@@@std@@U?$pair@KUSSkillDataPet@CPythonSkillPet@@@2@@?$_Default_allocator_traits@V?$allocator@U?$_Tree_node@U?$pair@$$CBKUSSkillDataPet@CPythonSkillPet@@@std@@PAX@std@@@std@@@std@@SAXAAV?$allocator@U?$_Tree_node@U?$pair@$$CBKUSSkillDataPet@CPythonSkillPet@@@std@@PAX@std@@@1@QAU?$pair@$$CBKUSSkillDataPet@CPythonSkillPet@@@1@$$QAU?$pair@KUSSkillDataPet@CPythonSkillPet@@@1@@Z ; std::_Default_allocator_traits<std::allocator<std::_Tree_node<std::pair<unsigned long const ,CPythonSkillPet::SSkillDataPet>,void *> > >::construct<std::pair<unsigned long const ,CPythonSkillPet::SSkillDataPet>,std::pair<unsigned long,CPythonSkillPet::SSkillDataPet> >
PUBLIC	??$construct_at@PAU?$_Tree_node@U?$pair@$$CBKUSSkillDataPet@CPythonSkillPet@@@std@@PAX@std@@AAPAU12@$0A@@std@@YAPAPAU?$_Tree_node@U?$pair@$$CBKUSSkillDataPet@CPythonSkillPet@@@std@@PAX@0@QAPAU10@AAPAU10@@Z ; std::construct_at<std::_Tree_node<std::pair<unsigned long const ,CPythonSkillPet::SSkillDataPet>,void *> *,std::_Tree_node<std::pair<unsigned long const ,CPythonSkillPet::SSkillDataPet>,void *> * &,0>
PUBLIC	??$forward@AAPAU?$_Tree_node@U?$pair@$$CBKUSSkillDataPet@CPythonSkillPet@@@std@@PAX@std@@@std@@YAAAPAU?$_Tree_node@U?$pair@$$CBKUSSkillDataPet@CPythonSkillPet@@@std@@PAX@0@AAPAU10@@Z ; std::forward<std::_Tree_node<std::pair<unsigned long const ,CPythonSkillPet::SSkillDataPet>,void *> * &>
PUBLIC	??$?0ABK$$Z$$V@?$pair@$$CBKUSSkillDataPet@CPythonSkillPet@@@std@@QAE@Upiecewise_construct_t@1@V?$tuple@ABK@1@V?$tuple@$$V@1@@Z ; std::pair<unsigned long const ,CPythonSkillPet::SSkillDataPet>::pair<unsigned long const ,CPythonSkillPet::SSkillDataPet><unsigned long const &>
PUBLIC	??$_Voidify_iter@PAU?$pair@$$CBKUSSkillDataPet@CPythonSkillPet@@@std@@@std@@YAPAXPAU?$pair@$$CBKUSSkillDataPet@CPythonSkillPet@@@0@@Z ; std::_Voidify_iter<std::pair<unsigned long const ,CPythonSkillPet::SSkillDataPet> *>
PUBLIC	??$construct_at@U?$pair@$$CBKUSSkillDataPet@CPythonSkillPet@@@std@@ABUpiecewise_construct_t@2@V?$tuple@ABK@2@V?$tuple@$$V@2@$0A@@std@@YAPAU?$pair@$$CBKUSSkillDataPet@CPythonSkillPet@@@0@QAU10@ABUpiecewise_construct_t@0@$$QAV?$tuple@ABK@0@$$QAV?$tuple@$$V@0@@Z ; std::construct_at<std::pair<unsigned long const ,CPythonSkillPet::SSkillDataPet>,std::piecewise_construct_t const &,std::tuple<unsigned long const &>,std::tuple<>,0>
PUBLIC	??$forward@V?$_Tree_iterator@V?$_Tree_val@U?$_Tree_simple_types@U?$pair@$$CBKUSSkillDataPet@CPythonSkillPet@@@std@@@std@@@std@@@std@@@std@@YA$$QAV?$_Tree_iterator@V?$_Tree_val@U?$_Tree_simple_types@U?$pair@$$CBKUSSkillDataPet@CPythonSkillPet@@@std@@@std@@@std@@@0@AAV10@@Z ; std::forward<std::_Tree_iterator<std::_Tree_val<std::_Tree_simple_types<std::pair<unsigned long const ,CPythonSkillPet::SSkillDataPet> > > > >
PUBLIC	??$?0AAPAU?$_Tree_node@U?$pair@$$CBKUSSkillDataPet@CPythonSkillPet@@@std@@PAX@std@@_N$0A@@?$pair@PAU?$_Tree_node@U?$pair@$$CBKUSSkillDataPet@CPythonSkillPet@@@std@@PAX@std@@_N@std@@QAE@AAPAU?$_Tree_node@U?$pair@$$CBKUSSkillDataPet@CPythonSkillPet@@@std@@PAX@1@$$QA_N@Z ; std::pair<std::_Tree_node<std::pair<unsigned long const ,CPythonSkillPet::SSkillDataPet>,void *> *,bool>::pair<std::_Tree_node<std::pair<unsigned long const ,CPythonSkillPet::SSkillDataPet>,void *> *,bool><std::_Tree_node<std::pair<unsigned long const ,CPythonSkillPet::SSkillDataPet>,void *> * &,bool,0>
PUBLIC	??$?0U?$pair@KUSSkillDataPet@CPythonSkillPet@@@std@@@?$_Tree_temp_node@V?$allocator@U?$_Tree_node@U?$pair@$$CBKUSSkillDataPet@CPythonSkillPet@@@std@@PAX@std@@@std@@@std@@QAE@AAV?$allocator@U?$_Tree_node@U?$pair@$$CBKUSSkillDataPet@CPythonSkillPet@@@std@@PAX@std@@@1@PAU?$_Tree_node@U?$pair@$$CBKUSSkillDataPet@CPythonSkillPet@@@std@@PAX@1@$$QAU?$pair@KUSSkillDataPet@CPythonSkillPet@@@1@@Z ; std::_Tree_temp_node<std::allocator<std::_Tree_node<std::pair<unsigned long const ,CPythonSkillPet::SSkillDataPet>,void *> > >::_Tree_temp_node<std::allocator<std::_Tree_node<std::pair<unsigned long const ,CPythonSkillPet::SSkillDataPet>,void *> > ><std::pair<unsigned long,CPythonSkillPet::SSkillDataPet> >
PUBLIC	?_Extract@?$_In_place_key_extract_map@KU?$pair@KUSSkillDataPet@CPythonSkillPet@@@std@@@std@@SAABKABU?$pair@KUSSkillDataPet@CPythonSkillPet@@@2@@Z ; std::_In_place_key_extract_map<unsigned long,std::pair<unsigned long,CPythonSkillPet::SSkillDataPet> >::_Extract
PUBLIC	??_G?$pair@$$CBKUSSkillDataPet@CPythonSkillPet@@@std@@QAEPAXI@Z ; std::pair<unsigned long const ,CPythonSkillPet::SSkillDataPet>::`scalar deleting destructor'
PUBLIC	??1?$pair@$$CBKUSSkillDataPet@CPythonSkillPet@@@std@@QAE@XZ ; std::pair<unsigned long const ,CPythonSkillPet::SSkillDataPet>::~pair<unsigned long const ,CPythonSkillPet::SSkillDataPet>
PUBLIC	??$destroy_at@U?$pair@$$CBKUSSkillDataPet@CPythonSkillPet@@@std@@@std@@YAXQAU?$pair@$$CBKUSSkillDataPet@CPythonSkillPet@@@0@@Z ; std::destroy_at<std::pair<unsigned long const ,CPythonSkillPet::SSkillDataPet> >
PUBLIC	??$_Voidify_iter@PAPAU?$_Tree_node@U?$pair@$$CBKUSSkillDataPet@CPythonSkillPet@@@std@@PAX@std@@@std@@YAPAXPAPAU?$_Tree_node@U?$pair@$$CBKUSSkillDataPet@CPythonSkillPet@@@std@@PAX@0@@Z ; std::_Voidify_iter<std::_Tree_node<std::pair<unsigned long const ,CPythonSkillPet::SSkillDataPet>,void *> * *>
PUBLIC	??$construct_at@PAU?$_Tree_node@U?$pair@$$CBKUSSkillDataPet@CPythonSkillPet@@@std@@PAX@std@@ABQAU12@$0A@@std@@YAPAPAU?$_Tree_node@U?$pair@$$CBKUSSkillDataPet@CPythonSkillPet@@@std@@PAX@0@QAPAU10@ABQAU10@@Z ; std::construct_at<std::_Tree_node<std::pair<unsigned long const ,CPythonSkillPet::SSkillDataPet>,void *> *,std::_Tree_node<std::pair<unsigned long const ,CPythonSkillPet::SSkillDataPet>,void *> * const &,0>
PUBLIC	??$addressof@PAU?$_Tree_node@U?$pair@$$CBKUSSkillDataPet@CPythonSkillPet@@@std@@PAX@std@@@std@@YAPAPAU?$_Tree_node@U?$pair@$$CBKUSSkillDataPet@CPythonSkillPet@@@std@@PAX@0@AAPAU10@@Z ; std::addressof<std::_Tree_node<std::pair<unsigned long const ,CPythonSkillPet::SSkillDataPet>,void *> *>
PUBLIC	??$forward@PAU?$_Tree_node@U?$pair@$$CBKUSSkillDataPet@CPythonSkillPet@@@std@@PAX@std@@@std@@YA$$QAPAU?$_Tree_node@U?$pair@$$CBKUSSkillDataPet@CPythonSkillPet@@@std@@PAX@0@AAPAU10@@Z ; std::forward<std::_Tree_node<std::pair<unsigned long const ,CPythonSkillPet::SSkillDataPet>,void *> *>
PUBLIC	??$forward@ABQAU?$_Tree_node@U?$pair@$$CBKUSSkillDataPet@CPythonSkillPet@@@std@@PAX@std@@@std@@YAABQAU?$_Tree_node@U?$pair@$$CBKUSSkillDataPet@CPythonSkillPet@@@std@@PAX@0@ABQAU10@@Z ; std::forward<std::_Tree_node<std::pair<unsigned long const ,CPythonSkillPet::SSkillDataPet>,void *> * const &>
PUBLIC	??$_Construct_in_place@PAU?$_Tree_node@U?$pair@$$CBKUSSkillDataPet@CPythonSkillPet@@@std@@PAX@std@@AAPAU12@@std@@YAXAAPAU?$_Tree_node@U?$pair@$$CBKUSSkillDataPet@CPythonSkillPet@@@std@@PAX@0@0@Z ; std::_Construct_in_place<std::_Tree_node<std::pair<unsigned long const ,CPythonSkillPet::SSkillDataPet>,void *> *,std::_Tree_node<std::pair<unsigned long const ,CPythonSkillPet::SSkillDataPet>,void *> * &>
PUBLIC	??$construct@U?$pair@$$CBKUSSkillDataPet@CPythonSkillPet@@@std@@ABUpiecewise_construct_t@2@V?$tuple@ABK@2@V?$tuple@$$V@2@@?$_Default_allocator_traits@V?$allocator@U?$_Tree_node@U?$pair@$$CBKUSSkillDataPet@CPythonSkillPet@@@std@@PAX@std@@@std@@@std@@SAXAAV?$allocator@U?$_Tree_node@U?$pair@$$CBKUSSkillDataPet@CPythonSkillPet@@@std@@PAX@std@@@1@QAU?$pair@$$CBKUSSkillDataPet@CPythonSkillPet@@@1@ABUpiecewise_construct_t@1@$$QAV?$tuple@ABK@1@$$QAV?$tuple@$$V@1@@Z ; std::_Default_allocator_traits<std::allocator<std::_Tree_node<std::pair<unsigned long const ,CPythonSkillPet::SSkillDataPet>,void *> > >::construct<std::pair<unsigned long const ,CPythonSkillPet::SSkillDataPet>,std::piecewise_construct_t const &,std::tuple<unsigned long const &>,std::tuple<> >
PUBLIC	??$_Kfn@$$CBKUSSkillDataPet@CPythonSkillPet@@@?$_Tmap_traits@KUSSkillDataPet@CPythonSkillPet@@U?$less@K@std@@V?$allocator@U?$pair@$$CBKUSSkillDataPet@CPythonSkillPet@@@std@@@4@$0A@@std@@SAABKABU?$pair@$$CBKUSSkillDataPet@CPythonSkillPet@@@1@@Z ; std::_Tmap_traits<unsigned long,CPythonSkillPet::SSkillDataPet,std::less<unsigned long>,std::allocator<std::pair<unsigned long const ,CPythonSkillPet::SSkillDataPet> >,0>::_Kfn<unsigned long const ,CPythonSkillPet::SSkillDataPet>
PUBLIC	??$?0V?$_Tree_iterator@V?$_Tree_val@U?$_Tree_simple_types@U?$pair@$$CBKUSSkillDataPet@CPythonSkillPet@@@std@@@std@@@std@@@std@@AB_N$0A@@?$pair@V?$_Tree_iterator@V?$_Tree_val@U?$_Tree_simple_types@U?$pair@$$CBKUSSkillDataPet@CPythonSkillPet@@@std@@@std@@@std@@@std@@_N@std@@QAE@$$QAV?$_Tree_iterator@V?$_Tree_val@U?$_Tree_simple_types@U?$pair@$$CBKUSSkillDataPet@CPythonSkillPet@@@std@@@std@@@std@@@1@AB_N@Z ; std::pair<std::_Tree_iterator<std::_Tree_val<std::_Tree_simple_types<std::pair<unsigned long const ,CPythonSkillPet::SSkillDataPet> > > >,bool>::pair<std::_Tree_iterator<std::_Tree_val<std::_Tree_simple_types<std::pair<unsigned long const ,CPythonSkillPet::SSkillDataPet> > > >,bool><std::_Tree_iterator<std::_Tree_val<std::_Tree_simple_types<std::pair<unsigned long const ,CPythonSkillPet::SSkillDataPet> > > >,bool const &,0>
PUBLIC	??$_Emplace@U?$pair@KUSSkillDataPet@CPythonSkillPet@@@std@@@?$_Tree@V?$_Tmap_traits@KUSSkillDataPet@CPythonSkillPet@@U?$less@K@std@@V?$allocator@U?$pair@$$CBKUSSkillDataPet@CPythonSkillPet@@@std@@@4@$0A@@std@@@std@@IAE?AU?$pair@PAU?$_Tree_node@U?$pair@$$CBKUSSkillDataPet@CPythonSkillPet@@@std@@PAX@std@@_N@1@$$QAU?$pair@KUSSkillDataPet@CPythonSkillPet@@@1@@Z ; std::_Tree<std::_Tmap_traits<unsigned long,CPythonSkillPet::SSkillDataPet,std::less<unsigned long>,std::allocator<std::pair<unsigned long const ,CPythonSkillPet::SSkillDataPet> >,0> >::_Emplace<std::pair<unsigned long,CPythonSkillPet::SSkillDataPet> >
PUBLIC	?_Get_first@?$_Compressed_pair@U?$less@K@std@@V?$_Compressed_pair@V?$allocator@U?$_Tree_node@U?$pair@$$CBKUSSkillDataPet@CPythonSkillPet@@@std@@PAX@std@@@std@@V?$_Tree_val@U?$_Tree_simple_types@U?$pair@$$CBKUSSkillDataPet@CPythonSkillPet@@@std@@@std@@@2@$00@2@$00@std@@QBEABU?$less@K@2@XZ ; std::_Compressed_pair<std::less<unsigned long>,std::_Compressed_pair<std::allocator<std::_Tree_node<std::pair<unsigned long const ,CPythonSkillPet::SSkillDataPet>,void *> >,std::_Tree_val<std::_Tree_simple_types<std::pair<unsigned long const ,CPythonSkillPet::SSkillDataPet> > >,1>,1>::_Get_first
PUBLIC	??0?$_Alloc_construct_ptr@V?$allocator@U?$_Tree_node@U?$pair@$$CBKUSSkillDataPet@CPythonSkillPet@@@std@@PAX@std@@@std@@@std@@QAE@AAV?$allocator@U?$_Tree_node@U?$pair@$$CBKUSSkillDataPet@CPythonSkillPet@@@std@@PAX@std@@@1@@Z ; std::_Alloc_construct_ptr<std::allocator<std::_Tree_node<std::pair<unsigned long const ,CPythonSkillPet::SSkillDataPet>,void *> > >::_Alloc_construct_ptr<std::allocator<std::_Tree_node<std::pair<unsigned long const ,CPythonSkillPet::SSkillDataPet>,void *> > >
PUBLIC	?_Allocate@?$_Alloc_construct_ptr@V?$allocator@U?$_Tree_node@U?$pair@$$CBKUSSkillDataPet@CPythonSkillPet@@@std@@PAX@std@@@std@@@std@@QAEXXZ ; std::_Alloc_construct_ptr<std::allocator<std::_Tree_node<std::pair<unsigned long const ,CPythonSkillPet::SSkillDataPet>,void *> > >::_Allocate
PUBLIC	??0?$allocator@U?$_Tree_node@U?$pair@$$CBKUSSkillDataPet@CPythonSkillPet@@@std@@PAX@std@@@std@@QAE@XZ ; std::allocator<std::_Tree_node<std::pair<unsigned long const ,CPythonSkillPet::SSkillDataPet>,void *> >::allocator<std::_Tree_node<std::pair<unsigned long const ,CPythonSkillPet::SSkillDataPet>,void *> >
PUBLIC	?deallocate@?$_Default_allocator_traits@V?$allocator@U?$_Tree_node@U?$pair@$$CBKUSSkillDataPet@CPythonSkillPet@@@std@@PAX@std@@@std@@@std@@SAXAAV?$allocator@U?$_Tree_node@U?$pair@$$CBKUSSkillDataPet@CPythonSkillPet@@@std@@PAX@std@@@2@QAU?$_Tree_node@U?$pair@$$CBKUSSkillDataPet@CPythonSkillPet@@@std@@PAX@2@I@Z ; std::_Default_allocator_traits<std::allocator<std::_Tree_node<std::pair<unsigned long const ,CPythonSkillPet::SSkillDataPet>,void *> > >::deallocate
PUBLIC	?_Getcomp@?$_Tree@V?$_Tmap_traits@KUSSkillDataPet@CPythonSkillPet@@U?$less@K@std@@V?$allocator@U?$pair@$$CBKUSSkillDataPet@CPythonSkillPet@@@std@@@4@$0A@@std@@@std@@IBEABU?$less@K@2@XZ ; std::_Tree<std::_Tmap_traits<unsigned long,CPythonSkillPet::SSkillDataPet,std::less<unsigned long>,std::allocator<std::pair<unsigned long const ,CPythonSkillPet::SSkillDataPet> >,0> >::_Getcomp
PUBLIC	??0?$_Tree_val@U?$_Tree_simple_types@U?$pair@$$CBKUSSkillDataPet@CPythonSkillPet@@@std@@@std@@@std@@QAE@XZ ; std::_Tree_val<std::_Tree_simple_types<std::pair<unsigned long const ,CPythonSkillPet::SSkillDataPet> > >::_Tree_val<std::_Tree_simple_types<std::pair<unsigned long const ,CPythonSkillPet::SSkillDataPet> > >
PUBLIC	??0?$_Tree_temp_node_alloc@V?$allocator@U?$_Tree_node@U?$pair@$$CBKUSSkillDataPet@CPythonSkillPet@@@std@@PAX@std@@@std@@@std@@QAE@AAV?$allocator@U?$_Tree_node@U?$pair@$$CBKUSSkillDataPet@CPythonSkillPet@@@std@@PAX@std@@@1@@Z ; std::_Tree_temp_node_alloc<std::allocator<std::_Tree_node<std::pair<unsigned long const ,CPythonSkillPet::SSkillDataPet>,void *> > >::_Tree_temp_node_alloc<std::allocator<std::_Tree_node<std::pair<unsigned long const ,CPythonSkillPet::SSkillDataPet>,void *> > >
PUBLIC	??$_Get_size_of_n@$0GM@@std@@YAII@Z		; std::_Get_size_of_n<108>
PUBLIC	??$addressof@$$CBV?$_Tree_val@U?$_Tree_simple_types@U?$pair@$$CBKUSSkillDataPet@CPythonSkillPet@@@std@@@std@@@std@@@std@@YAPBV?$_Tree_val@U?$_Tree_simple_types@U?$pair@$$CBKUSSkillDataPet@CPythonSkillPet@@@std@@@std@@@0@ABV10@@Z ; std::addressof<std::_Tree_val<std::_Tree_simple_types<std::pair<unsigned long const ,CPythonSkillPet::SSkillDataPet> > > const >
PUBLIC	??$exchange@PAU?$_Tree_node@U?$pair@$$CBKUSSkillDataPet@CPythonSkillPet@@@std@@PAX@std@@$$T@std@@YAPAU?$_Tree_node@U?$pair@$$CBKUSSkillDataPet@CPythonSkillPet@@@std@@PAX@0@AAPAU10@$$QA$$T@Z ; std::exchange<std::_Tree_node<std::pair<unsigned long const ,CPythonSkillPet::SSkillDataPet>,void *> *,std::nullptr_t>
PUBLIC	??$destroy@U?$pair@$$CBKUSSkillDataPet@CPythonSkillPet@@@std@@@?$_Default_allocator_traits@V?$allocator@U?$_Tree_node@U?$pair@$$CBKUSSkillDataPet@CPythonSkillPet@@@std@@PAX@std@@@std@@@std@@SAXAAV?$allocator@U?$_Tree_node@U?$pair@$$CBKUSSkillDataPet@CPythonSkillPet@@@std@@PAX@std@@@1@QAU?$pair@$$CBKUSSkillDataPet@CPythonSkillPet@@@1@@Z ; std::_Default_allocator_traits<std::allocator<std::_Tree_node<std::pair<unsigned long const ,CPythonSkillPet::SSkillDataPet>,void *> > >::destroy<std::pair<unsigned long const ,CPythonSkillPet::SSkillDataPet> >
PUBLIC	??$_Destroy_in_place@PAU?$_Tree_node@U?$pair@$$CBKUSSkillDataPet@CPythonSkillPet@@@std@@PAX@std@@@std@@YAXAAPAU?$_Tree_node@U?$pair@$$CBKUSSkillDataPet@CPythonSkillPet@@@std@@PAX@0@@Z ; std::_Destroy_in_place<std::_Tree_node<std::pair<unsigned long const ,CPythonSkillPet::SSkillDataPet>,void *> *>
PUBLIC	??$_Construct_in_place@PAU?$_Tree_node@U?$pair@$$CBKUSSkillDataPet@CPythonSkillPet@@@std@@PAX@std@@ABQAU12@@std@@YAXAAPAU?$_Tree_node@U?$pair@$$CBKUSSkillDataPet@CPythonSkillPet@@@std@@PAX@0@ABQAU10@@Z ; std::_Construct_in_place<std::_Tree_node<std::pair<unsigned long const ,CPythonSkillPet::SSkillDataPet>,void *> *,std::_Tree_node<std::pair<unsigned long const ,CPythonSkillPet::SSkillDataPet>,void *> * const &>
PUBLIC	??$_Freenode0@V?$allocator@U?$_Tree_node@U?$pair@$$CBKUSSkillDataPet@CPythonSkillPet@@@std@@PAX@std@@@std@@@?$_Tree_node@U?$pair@$$CBKUSSkillDataPet@CPythonSkillPet@@@std@@PAX@std@@SAXAAV?$allocator@U?$_Tree_node@U?$pair@$$CBKUSSkillDataPet@CPythonSkillPet@@@std@@PAX@std@@@1@PAU01@@Z ; std::_Tree_node<std::pair<unsigned long const ,CPythonSkillPet::SSkillDataPet>,void *>::_Freenode0<std::allocator<std::_Tree_node<std::pair<unsigned long const ,CPythonSkillPet::SSkillDataPet>,void *> > >
PUBLIC	??$_Freenode@V?$allocator@U?$_Tree_node@U?$pair@$$CBKUSSkillDataPet@CPythonSkillPet@@@std@@PAX@std@@@std@@@?$_Tree_node@U?$pair@$$CBKUSSkillDataPet@CPythonSkillPet@@@std@@PAX@std@@SAXAAV?$allocator@U?$_Tree_node@U?$pair@$$CBKUSSkillDataPet@CPythonSkillPet@@@std@@PAX@std@@@1@PAU01@@Z ; std::_Tree_node<std::pair<unsigned long const ,CPythonSkillPet::SSkillDataPet>,void *>::_Freenode<std::allocator<std::_Tree_node<std::pair<unsigned long const ,CPythonSkillPet::SSkillDataPet>,void *> > >
PUBLIC	??$exchange@PAU?$_Tree_node@U?$pair@$$CBKUSSkillDataPet@CPythonSkillPet@@@std@@PAX@std@@AAPAU12@@std@@YAPAU?$_Tree_node@U?$pair@$$CBKUSSkillDataPet@CPythonSkillPet@@@std@@PAX@0@AAPAU10@0@Z ; std::exchange<std::_Tree_node<std::pair<unsigned long const ,CPythonSkillPet::SSkillDataPet>,void *> *,std::_Tree_node<std::pair<unsigned long const ,CPythonSkillPet::SSkillDataPet>,void *> * &>
PUBLIC	??$?0PAU?$_Tree_node@U?$pair@$$CBKUSSkillDataPet@CPythonSkillPet@@@std@@PAX@std@@_N$0A@@?$pair@PAU?$_Tree_node@U?$pair@$$CBKUSSkillDataPet@CPythonSkillPet@@@std@@PAX@std@@_N@std@@QAE@$$QAPAU?$_Tree_node@U?$pair@$$CBKUSSkillDataPet@CPythonSkillPet@@@std@@PAX@1@$$QA_N@Z ; std::pair<std::_Tree_node<std::pair<unsigned long const ,CPythonSkillPet::SSkillDataPet>,void *> *,bool>::pair<std::_Tree_node<std::pair<unsigned long const ,CPythonSkillPet::SSkillDataPet>,void *> *,bool><std::_Tree_node<std::pair<unsigned long const ,CPythonSkillPet::SSkillDataPet>,void *> *,bool,0>
PUBLIC	??$?0ABQAU?$_Tree_node@U?$pair@$$CBKUSSkillDataPet@CPythonSkillPet@@@std@@PAX@std@@_N$0A@@?$pair@PAU?$_Tree_node@U?$pair@$$CBKUSSkillDataPet@CPythonSkillPet@@@std@@PAX@std@@_N@std@@QAE@ABQAU?$_Tree_node@U?$pair@$$CBKUSSkillDataPet@CPythonSkillPet@@@std@@PAX@1@$$QA_N@Z ; std::pair<std::_Tree_node<std::pair<unsigned long const ,CPythonSkillPet::SSkillDataPet>,void *> *,bool>::pair<std::_Tree_node<std::pair<unsigned long const ,CPythonSkillPet::SSkillDataPet>,void *> *,bool><std::_Tree_node<std::pair<unsigned long const ,CPythonSkillPet::SSkillDataPet>,void *> * const &,bool,0>
PUBLIC	??$?0ABUpiecewise_construct_t@std@@V?$tuple@ABK@1@V?$tuple@$$V@1@@?$_Tree_temp_node@V?$allocator@U?$_Tree_node@U?$pair@$$CBKUSSkillDataPet@CPythonSkillPet@@@std@@PAX@std@@@std@@@std@@QAE@AAV?$allocator@U?$_Tree_node@U?$pair@$$CBKUSSkillDataPet@CPythonSkillPet@@@std@@PAX@std@@@1@PAU?$_Tree_node@U?$pair@$$CBKUSSkillDataPet@CPythonSkillPet@@@std@@PAX@1@ABUpiecewise_construct_t@1@$$QAV?$tuple@ABK@1@$$QAV?$tuple@$$V@1@@Z ; std::_Tree_temp_node<std::allocator<std::_Tree_node<std::pair<unsigned long const ,CPythonSkillPet::SSkillDataPet>,void *> > >::_Tree_temp_node<std::allocator<std::_Tree_node<std::pair<unsigned long const ,CPythonSkillPet::SSkillDataPet>,void *> > ><std::piecewise_construct_t const &,std::tuple<unsigned long const &>,std::tuple<> >
PUBLIC	??$_Lower_bound_duplicate@K@?$_Tree@V?$_Tmap_traits@KUSSkillDataPet@CPythonSkillPet@@U?$less@K@std@@V?$allocator@U?$pair@$$CBKUSSkillDataPet@CPythonSkillPet@@@std@@@4@$0A@@std@@@std@@IBE_NQAU?$_Tree_node@U?$pair@$$CBKUSSkillDataPet@CPythonSkillPet@@@std@@PAX@1@ABK@Z ; std::_Tree<std::_Tmap_traits<unsigned long,CPythonSkillPet::SSkillDataPet,std::less<unsigned long>,std::allocator<std::pair<unsigned long const ,CPythonSkillPet::SSkillDataPet> >,0> >::_Lower_bound_duplicate<unsigned long>
PUBLIC	??$_Find_lower_bound@K@?$_Tree@V?$_Tmap_traits@KUSSkillDataPet@CPythonSkillPet@@U?$less@K@std@@V?$allocator@U?$pair@$$CBKUSSkillDataPet@CPythonSkillPet@@@std@@@4@$0A@@std@@@std@@IBE?AU?$_Tree_find_result@PAU?$_Tree_node@U?$pair@$$CBKUSSkillDataPet@CPythonSkillPet@@@std@@PAX@std@@@1@ABK@Z ; std::_Tree<std::_Tmap_traits<unsigned long,CPythonSkillPet::SSkillDataPet,std::less<unsigned long>,std::allocator<std::pair<unsigned long const ,CPythonSkillPet::SSkillDataPet> >,0> >::_Find_lower_bound<unsigned long>
PUBLIC	??$forward@W4<unnamed-enum-SKILLPET_TYPE_NONE>@CPythonSkillPet@@@std@@YA$$QAW4<unnamed-enum-SKILLPET_TYPE_NONE>@CPythonSkillPet@@AAW412@@Z ; std::forward<enum CPythonSkillPet::<unnamed-enum-SKILLPET_TYPE_NONE> >
PUBLIC	??$emplace@U?$pair@KUSSkillDataPet@CPythonSkillPet@@@std@@@?$_Tree@V?$_Tmap_traits@KUSSkillDataPet@CPythonSkillPet@@U?$less@K@std@@V?$allocator@U?$pair@$$CBKUSSkillDataPet@CPythonSkillPet@@@std@@@4@$0A@@std@@@std@@QAE?AU?$pair@V?$_Tree_iterator@V?$_Tree_val@U?$_Tree_simple_types@U?$pair@$$CBKUSSkillDataPet@CPythonSkillPet@@@std@@@std@@@std@@@std@@_N@1@$$QAU?$pair@KUSSkillDataPet@CPythonSkillPet@@@1@@Z ; std::_Tree<std::_Tmap_traits<unsigned long,CPythonSkillPet::SSkillDataPet,std::less<unsigned long>,std::allocator<std::pair<unsigned long const ,CPythonSkillPet::SSkillDataPet> >,0> >::emplace<std::pair<unsigned long,CPythonSkillPet::SSkillDataPet> >
PUBLIC	??$forward@U?$pair@KUSSkillDataPet@CPythonSkillPet@@@std@@@std@@YA$$QAU?$pair@KUSSkillDataPet@CPythonSkillPet@@@0@AAU10@@Z ; std::forward<std::pair<unsigned long,CPythonSkillPet::SSkillDataPet> >
PUBLIC	??0SSkillDataPet@CPythonSkillPet@@QAE@$$QAU01@@Z ; CPythonSkillPet::SSkillDataPet::SSkillDataPet
PUBLIC	??$?0AAKUSSkillDataPet@CPythonSkillPet@@$0A@@?$pair@KUSSkillDataPet@CPythonSkillPet@@@std@@QAE@AAK$$QAUSSkillDataPet@CPythonSkillPet@@@Z ; std::pair<unsigned long,CPythonSkillPet::SSkillDataPet>::pair<unsigned long,CPythonSkillPet::SSkillDataPet><unsigned long &,CPythonSkillPet::SSkillDataPet,0>
PUBLIC	??$forward@USSkillDataPet@CPythonSkillPet@@@std@@YA$$QAUSSkillDataPet@CPythonSkillPet@@AAU12@@Z ; std::forward<CPythonSkillPet::SSkillDataPet>
PUBLIC	??$?0$$V@?$_Compressed_pair@V?$allocator@U?$_Tree_node@U?$pair@$$CBKUSSkillDataPet@CPythonSkillPet@@@std@@PAX@std@@@std@@V?$_Tree_val@U?$_Tree_simple_types@U?$pair@$$CBKUSSkillDataPet@CPythonSkillPet@@@std@@@std@@@2@$00@std@@QAE@U_Zero_then_variadic_args_t@1@@Z ; std::_Compressed_pair<std::allocator<std::_Tree_node<std::pair<unsigned long const ,CPythonSkillPet::SSkillDataPet>,void *> >,std::_Tree_val<std::_Tree_simple_types<std::pair<unsigned long const ,CPythonSkillPet::SSkillDataPet> > >,1>::_Compressed_pair<std::allocator<std::_Tree_node<std::pair<unsigned long const ,CPythonSkillPet::SSkillDataPet>,void *> >,std::_Tree_val<std::_Tree_simple_types<std::pair<unsigned long const ,CPythonSkillPet::SSkillDataPet> > >,1><>
PUBLIC	?_Get_first@?$_Compressed_pair@V?$allocator@U?$_Tree_node@U?$pair@$$CBKUSSkillDataPet@CPythonSkillPet@@@std@@PAX@std@@@std@@V?$_Tree_val@U?$_Tree_simple_types@U?$pair@$$CBKUSSkillDataPet@CPythonSkillPet@@@std@@@std@@@2@$00@std@@QBEABV?$allocator@U?$_Tree_node@U?$pair@$$CBKUSSkillDataPet@CPythonSkillPet@@@std@@PAX@std@@@2@XZ ; std::_Compressed_pair<std::allocator<std::_Tree_node<std::pair<unsigned long const ,CPythonSkillPet::SSkillDataPet>,void *> >,std::_Tree_val<std::_Tree_simple_types<std::pair<unsigned long const ,CPythonSkillPet::SSkillDataPet> > >,1>::_Get_first
PUBLIC	?deallocate@?$allocator@U?$_Tree_node@U?$pair@$$CBKUSSkillDataPet@CPythonSkillPet@@@std@@PAX@std@@@std@@QAEXQAU?$_Tree_node@U?$pair@$$CBKUSSkillDataPet@CPythonSkillPet@@@std@@PAX@2@I@Z ; std::allocator<std::_Tree_node<std::pair<unsigned long const ,CPythonSkillPet::SSkillDataPet>,void *> >::deallocate
PUBLIC	?max_size@?$_Default_allocator_traits@V?$allocator@U?$_Tree_node@U?$pair@$$CBKUSSkillDataPet@CPythonSkillPet@@@std@@PAX@std@@@std@@@std@@SAIABV?$allocator@U?$_Tree_node@U?$pair@$$CBKUSSkillDataPet@CPythonSkillPet@@@std@@PAX@std@@@2@@Z ; std::_Default_allocator_traits<std::allocator<std::_Tree_node<std::pair<unsigned long const ,CPythonSkillPet::SSkillDataPet>,void *> > >::max_size
PUBLIC	?_Getal@?$_Tree@V?$_Tmap_traits@KUSSkillDataPet@CPythonSkillPet@@U?$less@K@std@@V?$allocator@U?$pair@$$CBKUSSkillDataPet@CPythonSkillPet@@@std@@@4@$0A@@std@@@std@@IBEABV?$allocator@U?$_Tree_node@U?$pair@$$CBKUSSkillDataPet@CPythonSkillPet@@@std@@PAX@std@@@2@XZ ; std::_Tree<std::_Tmap_traits<unsigned long,CPythonSkillPet::SSkillDataPet,std::less<unsigned long>,std::allocator<std::pair<unsigned long const ,CPythonSkillPet::SSkillDataPet> >,0> >::_Getal
PUBLIC	?max_size@?$_Tree@V?$_Tmap_traits@KUSSkillDataPet@CPythonSkillPet@@U?$less@K@std@@V?$allocator@U?$pair@$$CBKUSSkillDataPet@CPythonSkillPet@@@std@@@4@$0A@@std@@@std@@QBEIXZ ; std::_Tree<std::_Tmap_traits<unsigned long,CPythonSkillPet::SSkillDataPet,std::less<unsigned long>,std::allocator<std::pair<unsigned long const ,CPythonSkillPet::SSkillDataPet> >,0> >::max_size
PUBLIC	?_Lrotate@?$_Tree_val@U?$_Tree_simple_types@U?$pair@$$CBKUSSkillDataPet@CPythonSkillPet@@@std@@@std@@@std@@QAEXPAU?$_Tree_node@U?$pair@$$CBKUSSkillDataPet@CPythonSkillPet@@@std@@PAX@2@@Z ; std::_Tree_val<std::_Tree_simple_types<std::pair<unsigned long const ,CPythonSkillPet::SSkillDataPet> > >::_Lrotate
PUBLIC	?_Rrotate@?$_Tree_val@U?$_Tree_simple_types@U?$pair@$$CBKUSSkillDataPet@CPythonSkillPet@@@std@@@std@@@std@@QAEXPAU?$_Tree_node@U?$pair@$$CBKUSSkillDataPet@CPythonSkillPet@@@std@@PAX@2@@Z ; std::_Tree_val<std::_Tree_simple_types<std::pair<unsigned long const ,CPythonSkillPet::SSkillDataPet> > >::_Rrotate
PUBLIC	??1?$_Alloc_construct_ptr@V?$allocator@U?$_Tree_node@U?$pair@$$CBKUSSkillDataPet@CPythonSkillPet@@@std@@PAX@std@@@std@@@std@@QAE@XZ ; std::_Alloc_construct_ptr<std::allocator<std::_Tree_node<std::pair<unsigned long const ,CPythonSkillPet::SSkillDataPet>,void *> > >::~_Alloc_construct_ptr<std::allocator<std::_Tree_node<std::pair<unsigned long const ,CPythonSkillPet::SSkillDataPet>,void *> > >
PUBLIC	??1?$_Tree_temp_node_alloc@V?$allocator@U?$_Tree_node@U?$pair@$$CBKUSSkillDataPet@CPythonSkillPet@@@std@@PAX@std@@@std@@@std@@QAE@XZ ; std::_Tree_temp_node_alloc<std::allocator<std::_Tree_node<std::pair<unsigned long const ,CPythonSkillPet::SSkillDataPet>,void *> > >::~_Tree_temp_node_alloc<std::allocator<std::_Tree_node<std::pair<unsigned long const ,CPythonSkillPet::SSkillDataPet>,void *> > >
PUBLIC	?allocate@?$allocator@U?$_Tree_node@U?$pair@$$CBKUSSkillDataPet@CPythonSkillPet@@@std@@PAX@std@@@std@@QAEPAU?$_Tree_node@U?$pair@$$CBKUSSkillDataPet@CPythonSkillPet@@@std@@PAX@2@I@Z ; std::allocator<std::_Tree_node<std::pair<unsigned long const ,CPythonSkillPet::SSkillDataPet>,void *> >::allocate
PUBLIC	?_Check_grow_by_1@?$_Tree@V?$_Tmap_traits@KUSSkillDataPet@CPythonSkillPet@@U?$less@K@std@@V?$allocator@U?$pair@$$CBKUSSkillDataPet@CPythonSkillPet@@@std@@@4@$0A@@std@@@std@@IAEXXZ ; std::_Tree<std::_Tmap_traits<unsigned long,CPythonSkillPet::SSkillDataPet,std::less<unsigned long>,std::allocator<std::pair<unsigned long const ,CPythonSkillPet::SSkillDataPet> >,0> >::_Check_grow_by_1
PUBLIC	?_Get_scary@?$_Tree@V?$_Tmap_traits@KUSSkillDataPet@CPythonSkillPet@@U?$less@K@std@@V?$allocator@U?$pair@$$CBKUSSkillDataPet@CPythonSkillPet@@@std@@@4@$0A@@std@@@std@@IBEPBV?$_Tree_val@U?$_Tree_simple_types@U?$pair@$$CBKUSSkillDataPet@CPythonSkillPet@@@std@@@std@@@2@XZ ; std::_Tree<std::_Tmap_traits<unsigned long,CPythonSkillPet::SSkillDataPet,std::less<unsigned long>,std::allocator<std::pair<unsigned long const ,CPythonSkillPet::SSkillDataPet> >,0> >::_Get_scary
PUBLIC	?_Insert_node@?$_Tree_val@U?$_Tree_simple_types@U?$pair@$$CBKUSSkillDataPet@CPythonSkillPet@@@std@@@std@@@std@@QAEPAU?$_Tree_node@U?$pair@$$CBKUSSkillDataPet@CPythonSkillPet@@@std@@PAX@2@U?$_Tree_id@PAU?$_Tree_node@U?$pair@$$CBKUSSkillDataPet@CPythonSkillPet@@@std@@PAX@std@@@2@QAU32@@Z ; std::_Tree_val<std::_Tree_simple_types<std::pair<unsigned long const ,CPythonSkillPet::SSkillDataPet> > >::_Insert_node
PUBLIC	?_Release@?$_Alloc_construct_ptr@V?$allocator@U?$_Tree_node@U?$pair@$$CBKUSSkillDataPet@CPythonSkillPet@@@std@@PAX@std@@@std@@@std@@QAEPAU?$_Tree_node@U?$pair@$$CBKUSSkillDataPet@CPythonSkillPet@@@std@@PAX@2@XZ ; std::_Alloc_construct_ptr<std::allocator<std::_Tree_node<std::pair<unsigned long const ,CPythonSkillPet::SSkillDataPet>,void *> > >::_Release
PUBLIC	??1?$_Tree_temp_node@V?$allocator@U?$_Tree_node@U?$pair@$$CBKUSSkillDataPet@CPythonSkillPet@@@std@@PAX@std@@@std@@@std@@QAE@XZ ; std::_Tree_temp_node<std::allocator<std::_Tree_node<std::pair<unsigned long const ,CPythonSkillPet::SSkillDataPet>,void *> > >::~_Tree_temp_node<std::allocator<std::_Tree_node<std::pair<unsigned long const ,CPythonSkillPet::SSkillDataPet>,void *> > >
PUBLIC	??$_Buyheadnode@V?$allocator@U?$_Tree_node@U?$pair@$$CBKUSSkillDataPet@CPythonSkillPet@@@std@@PAX@std@@@std@@@?$_Tree_node@U?$pair@$$CBKUSSkillDataPet@CPythonSkillPet@@@std@@PAX@std@@SAPAU01@AAV?$allocator@U?$_Tree_node@U?$pair@$$CBKUSSkillDataPet@CPythonSkillPet@@@std@@PAX@std@@@1@@Z ; std::_Tree_node<std::pair<unsigned long const ,CPythonSkillPet::SSkillDataPet>,void *>::_Buyheadnode<std::allocator<std::_Tree_node<std::pair<unsigned long const ,CPythonSkillPet::SSkillDataPet>,void *> > >
PUBLIC	??$?0ABU?$less@K@std@@U_Zero_then_variadic_args_t@1@@?$_Compressed_pair@U?$less@K@std@@V?$_Compressed_pair@V?$allocator@U?$_Tree_node@U?$pair@$$CBKUSSkillDataPet@CPythonSkillPet@@@std@@PAX@std@@@std@@V?$_Tree_val@U?$_Tree_simple_types@U?$pair@$$CBKUSSkillDataPet@CPythonSkillPet@@@std@@@std@@@2@$00@2@$00@std@@QAE@U_One_then_variadic_args_t@1@ABU?$less@K@1@$$QAU_Zero_then_variadic_args_t@1@@Z ; std::_Compressed_pair<std::less<unsigned long>,std::_Compressed_pair<std::allocator<std::_Tree_node<std::pair<unsigned long const ,CPythonSkillPet::SSkillDataPet>,void *> >,std::_Tree_val<std::_Tree_simple_types<std::pair<unsigned long const ,CPythonSkillPet::SSkillDataPet> > >,1>,1>::_Compressed_pair<std::less<unsigned long>,std::_Compressed_pair<std::allocator<std::_Tree_node<std::pair<unsigned long const ,CPythonSkillPet::SSkillDataPet>,void *> >,std::_Tree_val<std::_Tree_simple_types<std::pair<unsigned long const ,CPythonSkillPet::SSkillDataPet> > >,1>,1><std::less<unsigned long> const &,std::_Zero_then_variadic_args_t>
PUBLIC	??$addressof@V?$_Tree_val@U?$_Tree_simple_types@U?$pair@$$CBKUSSkillDataPet@CPythonSkillPet@@@std@@@std@@@std@@@std@@YAPAV?$_Tree_val@U?$_Tree_simple_types@U?$pair@$$CBKUSSkillDataPet@CPythonSkillPet@@@std@@@std@@@0@AAV10@@Z ; std::addressof<std::_Tree_val<std::_Tree_simple_types<std::pair<unsigned long const ,CPythonSkillPet::SSkillDataPet> > > >
PUBLIC	??$addressof@U?$pair@$$CBKUSSkillDataPet@CPythonSkillPet@@@std@@@std@@YAPAU?$pair@$$CBKUSSkillDataPet@CPythonSkillPet@@@0@AAU10@@Z ; std::addressof<std::pair<unsigned long const ,CPythonSkillPet::SSkillDataPet> >
PUBLIC	??$_Erase_head@V?$allocator@U?$_Tree_node@U?$pair@$$CBKUSSkillDataPet@CPythonSkillPet@@@std@@PAX@std@@@std@@@?$_Tree_val@U?$_Tree_simple_types@U?$pair@$$CBKUSSkillDataPet@CPythonSkillPet@@@std@@@std@@@std@@QAEXAAV?$allocator@U?$_Tree_node@U?$pair@$$CBKUSSkillDataPet@CPythonSkillPet@@@std@@PAX@std@@@1@@Z ; std::_Tree_val<std::_Tree_simple_types<std::pair<unsigned long const ,CPythonSkillPet::SSkillDataPet> > >::_Erase_head<std::allocator<std::_Tree_node<std::pair<unsigned long const ,CPythonSkillPet::SSkillDataPet>,void *> > >
PUBLIC	??$_Erase_tree@V?$allocator@U?$_Tree_node@U?$pair@$$CBKUSSkillDataPet@CPythonSkillPet@@@std@@PAX@std@@@std@@@?$_Tree_val@U?$_Tree_simple_types@U?$pair@$$CBKUSSkillDataPet@CPythonSkillPet@@@std@@@std@@@std@@QAEXAAV?$allocator@U?$_Tree_node@U?$pair@$$CBKUSSkillDataPet@CPythonSkillPet@@@std@@PAX@std@@@1@PAU?$_Tree_node@U?$pair@$$CBKUSSkillDataPet@CPythonSkillPet@@@std@@PAX@1@@Z ; std::_Tree_val<std::_Tree_simple_types<std::pair<unsigned long const ,CPythonSkillPet::SSkillDataPet> > >::_Erase_tree<std::allocator<std::_Tree_node<std::pair<unsigned long const ,CPythonSkillPet::SSkillDataPet>,void *> > >
PUBLIC	??$_Find@K@?$_Tree@V?$_Tmap_traits@KUSSkillDataPet@CPythonSkillPet@@U?$less@K@std@@V?$allocator@U?$pair@$$CBKUSSkillDataPet@CPythonSkillPet@@@std@@@4@$0A@@std@@@std@@ABEPAU?$_Tree_node@U?$pair@$$CBKUSSkillDataPet@CPythonSkillPet@@@std@@PAX@1@ABK@Z ; std::_Tree<std::_Tmap_traits<unsigned long,CPythonSkillPet::SSkillDataPet,std::less<unsigned long>,std::allocator<std::pair<unsigned long const ,CPythonSkillPet::SSkillDataPet> >,0> >::_Find<unsigned long>
PUBLIC	??$_Try_emplace@ABK$$V@?$map@KUSSkillDataPet@CPythonSkillPet@@U?$less@K@std@@V?$allocator@U?$pair@$$CBKUSSkillDataPet@CPythonSkillPet@@@std@@@4@@std@@AAE?AU?$pair@PAU?$_Tree_node@U?$pair@$$CBKUSSkillDataPet@CPythonSkillPet@@@std@@PAX@std@@_N@1@ABK@Z ; std::map<unsigned long,CPythonSkillPet::SSkillDataPet,std::less<unsigned long>,std::allocator<std::pair<unsigned long const ,CPythonSkillPet::SSkillDataPet> > >::_Try_emplace<unsigned long const &>
PUBLIC	??$?0AAY04$$CBDW4<unnamed-enum-SKILLPET_TYPE_NONE>@CPythonSkillPet@@$0A@@?$pair@$$CBV?$basic_string@DU?$char_traits@D@std@@V?$allocator@D@2@@std@@K@std@@QAE@AAY04$$CBD$$QAW4<unnamed-enum-SKILLPET_TYPE_NONE>@CPythonSkillPet@@@Z ; std::pair<std::basic_string<char,std::char_traits<char>,std::allocator<char> > const ,unsigned long>::pair<std::basic_string<char,std::char_traits<char>,std::allocator<char> > const ,unsigned long><char const (&)[5],enum CPythonSkillPet::<unnamed-enum-SKILLPET_TYPE_NONE>,0>
PUBLIC	??$?0AAY07$$CBDW4<unnamed-enum-SKILLPET_TYPE_NONE>@CPythonSkillPet@@$0A@@?$pair@$$CBV?$basic_string@DU?$char_traits@D@std@@V?$allocator@D@2@@std@@K@std@@QAE@AAY07$$CBD$$QAW4<unnamed-enum-SKILLPET_TYPE_NONE>@CPythonSkillPet@@@Z ; std::pair<std::basic_string<char,std::char_traits<char>,std::allocator<char> > const ,unsigned long>::pair<std::basic_string<char,std::char_traits<char>,std::allocator<char> > const ,unsigned long><char const (&)[8],enum CPythonSkillPet::<unnamed-enum-SKILLPET_TYPE_NONE>,0>
PUBLIC	??$?0AAY05$$CBDW4<unnamed-enum-SKILLPET_TYPE_NONE>@CPythonSkillPet@@$0A@@?$pair@$$CBV?$basic_string@DU?$char_traits@D@std@@V?$allocator@D@2@@std@@K@std@@QAE@AAY05$$CBD$$QAW4<unnamed-enum-SKILLPET_TYPE_NONE>@CPythonSkillPet@@@Z ; std::pair<std::basic_string<char,std::char_traits<char>,std::allocator<char> > const ,unsigned long>::pair<std::basic_string<char,std::char_traits<char>,std::allocator<char> > const ,unsigned long><char const (&)[6],enum CPythonSkillPet::<unnamed-enum-SKILLPET_TYPE_NONE>,0>
PUBLIC	??$insert@U?$pair@KUSSkillDataPet@CPythonSkillPet@@@std@@$0A@@?$map@KUSSkillDataPet@CPythonSkillPet@@U?$less@K@std@@V?$allocator@U?$pair@$$CBKUSSkillDataPet@CPythonSkillPet@@@std@@@4@@std@@QAE?AU?$pair@V?$_Tree_iterator@V?$_Tree_val@U?$_Tree_simple_types@U?$pair@$$CBKUSSkillDataPet@CPythonSkillPet@@@std@@@std@@@std@@@std@@_N@1@$$QAU?$pair@KUSSkillDataPet@CPythonSkillPet@@@1@@Z ; std::map<unsigned long,CPythonSkillPet::SSkillDataPet,std::less<unsigned long>,std::allocator<std::pair<unsigned long const ,CPythonSkillPet::SSkillDataPet> > >::insert<std::pair<unsigned long,CPythonSkillPet::SSkillDataPet>,0>
PUBLIC	??$make_pair@AAKUSSkillDataPet@CPythonSkillPet@@@std@@YA?AU?$pair@KUSSkillDataPet@CPythonSkillPet@@@0@AAK$$QAUSSkillDataPet@CPythonSkillPet@@@Z ; std::make_pair<unsigned long &,CPythonSkillPet::SSkillDataPet>
PUBLIC	?_Alloc_sentinel_and_proxy@?$_Tree@V?$_Tmap_traits@KUSSkillDataPet@CPythonSkillPet@@U?$less@K@std@@V?$allocator@U?$pair@$$CBKUSSkillDataPet@CPythonSkillPet@@@std@@@4@$0A@@std@@@std@@IAEXXZ ; std::_Tree<std::_Tmap_traits<unsigned long,CPythonSkillPet::SSkillDataPet,std::less<unsigned long>,std::allocator<std::pair<unsigned long const ,CPythonSkillPet::SSkillDataPet> >,0> >::_Alloc_sentinel_and_proxy
PUBLIC	?_Get_first@?$_Compressed_pair@V?$allocator@U?$_Tree_node@U?$pair@$$CBKUSSkillDataPet@CPythonSkillPet@@@std@@PAX@std@@@std@@V?$_Tree_val@U?$_Tree_simple_types@U?$pair@$$CBKUSSkillDataPet@CPythonSkillPet@@@std@@@std@@@2@$00@std@@QAEAAV?$allocator@U?$_Tree_node@U?$pair@$$CBKUSSkillDataPet@CPythonSkillPet@@@std@@PAX@std@@@2@XZ ; std::_Compressed_pair<std::allocator<std::_Tree_node<std::pair<unsigned long const ,CPythonSkillPet::SSkillDataPet>,void *> >,std::_Tree_val<std::_Tree_simple_types<std::pair<unsigned long const ,CPythonSkillPet::SSkillDataPet> > >,1>::_Get_first
PUBLIC	??D?$_Tree_const_iterator@V?$_Tree_val@U?$_Tree_simple_types@U?$pair@$$CBKUSSkillDataPet@CPythonSkillPet@@@std@@@std@@@std@@@std@@QBEABU?$pair@$$CBKUSSkillDataPet@CPythonSkillPet@@@1@XZ ; std::_Tree_const_iterator<std::_Tree_val<std::_Tree_simple_types<std::pair<unsigned long const ,CPythonSkillPet::SSkillDataPet> > > >::operator*
PUBLIC	??0?$_Tree@V?$_Tmap_traits@KUSSkillDataPet@CPythonSkillPet@@U?$less@K@std@@V?$allocator@U?$pair@$$CBKUSSkillDataPet@CPythonSkillPet@@@std@@@4@$0A@@std@@@std@@QAE@ABU?$less@K@1@@Z ; std::_Tree<std::_Tmap_traits<unsigned long,CPythonSkillPet::SSkillDataPet,std::less<unsigned long>,std::allocator<std::pair<unsigned long const ,CPythonSkillPet::SSkillDataPet> >,0> >::_Tree<std::_Tmap_traits<unsigned long,CPythonSkillPet::SSkillDataPet,std::less<unsigned long>,std::allocator<std::pair<unsigned long const ,CPythonSkillPet::SSkillDataPet> >,0> >
PUBLIC	?_Getal@?$_Tree@V?$_Tmap_traits@KUSSkillDataPet@CPythonSkillPet@@U?$less@K@std@@V?$allocator@U?$pair@$$CBKUSSkillDataPet@CPythonSkillPet@@@std@@@4@$0A@@std@@@std@@IAEAAV?$allocator@U?$_Tree_node@U?$pair@$$CBKUSSkillDataPet@CPythonSkillPet@@@std@@PAX@std@@@2@XZ ; std::_Tree<std::_Tmap_traits<unsigned long,CPythonSkillPet::SSkillDataPet,std::less<unsigned long>,std::allocator<std::pair<unsigned long const ,CPythonSkillPet::SSkillDataPet> >,0> >::_Getal
PUBLIC	?_Get_scary@?$_Tree@V?$_Tmap_traits@KUSSkillDataPet@CPythonSkillPet@@U?$less@K@std@@V?$allocator@U?$pair@$$CBKUSSkillDataPet@CPythonSkillPet@@@std@@@4@$0A@@std@@@std@@IAEPAV?$_Tree_val@U?$_Tree_simple_types@U?$pair@$$CBKUSSkillDataPet@CPythonSkillPet@@@std@@@std@@@2@XZ ; std::_Tree<std::_Tmap_traits<unsigned long,CPythonSkillPet::SSkillDataPet,std::less<unsigned long>,std::allocator<std::pair<unsigned long const ,CPythonSkillPet::SSkillDataPet> >,0> >::_Get_scary
PUBLIC	?_Orphan_ptr@?$_Tree_val@U?$_Tree_simple_types@U?$pair@$$CBKUSSkillDataPet@CPythonSkillPet@@@std@@@std@@@std@@QAEXQAU?$_Tree_node@U?$pair@$$CBKUSSkillDataPet@CPythonSkillPet@@@std@@PAX@2@@Z ; std::_Tree_val<std::_Tree_simple_types<std::pair<unsigned long const ,CPythonSkillPet::SSkillDataPet> > >::_Orphan_ptr
PUBLIC	??0?$_Tree_unchecked_const_iterator@V?$_Tree_val@U?$_Tree_simple_types@U?$pair@$$CBKUSSkillDataPet@CPythonSkillPet@@@std@@@std@@@std@@U_Iterator_base0@2@@std@@QAE@PAU?$_Tree_node@U?$pair@$$CBKUSSkillDataPet@CPythonSkillPet@@@std@@PAX@1@PBV?$_Tree_val@U?$_Tree_simple_types@U?$pair@$$CBKUSSkillDataPet@CPythonSkillPet@@@std@@@std@@@1@@Z ; std::_Tree_unchecked_const_iterator<std::_Tree_val<std::_Tree_simple_types<std::pair<unsigned long const ,CPythonSkillPet::SSkillDataPet> > >,std::_Iterator_base0>::_Tree_unchecked_const_iterator<std::_Tree_val<std::_Tree_simple_types<std::pair<unsigned long const ,CPythonSkillPet::SSkillDataPet> > >,std::_Iterator_base0>
PUBLIC	??D?$_Tree_iterator@V?$_Tree_val@U?$_Tree_simple_types@U?$pair@$$CBKUSSkillDataPet@CPythonSkillPet@@@std@@@std@@@std@@@std@@QBEAAU?$pair@$$CBKUSSkillDataPet@CPythonSkillPet@@@1@XZ ; std::_Tree_iterator<std::_Tree_val<std::_Tree_simple_types<std::pair<unsigned long const ,CPythonSkillPet::SSkillDataPet> > > >::operator*
PUBLIC	?pointer_to@?$pointer_traits@PAU?$pair@$$CBKUSSkillDataPet@CPythonSkillPet@@@std@@@std@@SAPAU?$pair@$$CBKUSSkillDataPet@CPythonSkillPet@@@2@AAU32@@Z ; std::pointer_traits<std::pair<unsigned long const ,CPythonSkillPet::SSkillDataPet> *>::pointer_to
PUBLIC	??0?$_Tree_const_iterator@V?$_Tree_val@U?$_Tree_simple_types@U?$pair@$$CBKUSSkillDataPet@CPythonSkillPet@@@std@@@std@@@std@@@std@@QAE@PAU?$_Tree_node@U?$pair@$$CBKUSSkillDataPet@CPythonSkillPet@@@std@@PAX@1@PBV?$_Tree_val@U?$_Tree_simple_types@U?$pair@$$CBKUSSkillDataPet@CPythonSkillPet@@@std@@@std@@@1@@Z ; std::_Tree_const_iterator<std::_Tree_val<std::_Tree_simple_types<std::pair<unsigned long const ,CPythonSkillPet::SSkillDataPet> > > >::_Tree_const_iterator<std::_Tree_val<std::_Tree_simple_types<std::pair<unsigned long const ,CPythonSkillPet::SSkillDataPet> > > >
PUBLIC	??_G?$CSingleton@VCPythonSkillPet@@@@UAEPAXI@Z	; CSingleton<CPythonSkillPet>::`scalar deleting destructor'
PUBLIC	??0?$_Tree_iterator@V?$_Tree_val@U?$_Tree_simple_types@U?$pair@$$CBKUSSkillDataPet@CPythonSkillPet@@@std@@@std@@@std@@@std@@QAE@PAU?$_Tree_node@U?$pair@$$CBKUSSkillDataPet@CPythonSkillPet@@@std@@PAX@1@PBV?$_Tree_val@U?$_Tree_simple_types@U?$pair@$$CBKUSSkillDataPet@CPythonSkillPet@@@std@@@std@@@1@@Z ; std::_Tree_iterator<std::_Tree_val<std::_Tree_simple_types<std::pair<unsigned long const ,CPythonSkillPet::SSkillDataPet> > > >::_Tree_iterator<std::_Tree_val<std::_Tree_simple_types<std::pair<unsigned long const ,CPythonSkillPet::SSkillDataPet> > > >
PUBLIC	??0?$CSingleton@VCPythonSkillPet@@@@QAE@XZ	; CSingleton<CPythonSkillPet>::CSingleton<CPythonSkillPet>
PUBLIC	??1?$CSingleton@VCPythonSkillPet@@@@UAE@XZ	; CSingleton<CPythonSkillPet>::~CSingleton<CPythonSkillPet>
PUBLIC	??1?$_Tree@V?$_Tmap_traits@KUSSkillDataPet@CPythonSkillPet@@U?$less@K@std@@V?$allocator@U?$pair@$$CBKUSSkillDataPet@CPythonSkillPet@@@std@@@4@$0A@@std@@@std@@QAE@XZ ; std::_Tree<std::_Tmap_traits<unsigned long,CPythonSkillPet::SSkillDataPet,std::less<unsigned long>,std::allocator<std::pair<unsigned long const ,CPythonSkillPet::SSkillDataPet> >,0> >::~_Tree<std::_Tmap_traits<unsigned long,CPythonSkillPet::SSkillDataPet,std::less<unsigned long>,std::allocator<std::pair<unsigned long const ,CPythonSkillPet::SSkillDataPet> >,0> >
PUBLIC	?end@?$_Tree@V?$_Tmap_traits@KUSSkillDataPet@CPythonSkillPet@@U?$less@K@std@@V?$allocator@U?$pair@$$CBKUSSkillDataPet@CPythonSkillPet@@@std@@@4@$0A@@std@@@std@@QAE?AV?$_Tree_iterator@V?$_Tree_val@U?$_Tree_simple_types@U?$pair@$$CBKUSSkillDataPet@CPythonSkillPet@@@std@@@std@@@std@@@2@XZ ; std::_Tree<std::_Tmap_traits<unsigned long,CPythonSkillPet::SSkillDataPet,std::less<unsigned long>,std::allocator<std::pair<unsigned long const ,CPythonSkillPet::SSkillDataPet> >,0> >::end
PUBLIC	?clear@?$_Tree@V?$_Tmap_traits@KUSSkillDataPet@CPythonSkillPet@@U?$less@K@std@@V?$allocator@U?$pair@$$CBKUSSkillDataPet@CPythonSkillPet@@@std@@@4@$0A@@std@@@std@@QAEXXZ ; std::_Tree<std::_Tmap_traits<unsigned long,CPythonSkillPet::SSkillDataPet,std::less<unsigned long>,std::allocator<std::pair<unsigned long const ,CPythonSkillPet::SSkillDataPet> >,0> >::clear
PUBLIC	?find@?$_Tree@V?$_Tmap_traits@KUSSkillDataPet@CPythonSkillPet@@U?$less@K@std@@V?$allocator@U?$pair@$$CBKUSSkillDataPet@CPythonSkillPet@@@std@@@4@$0A@@std@@@std@@QAE?AV?$_Tree_iterator@V?$_Tree_val@U?$_Tree_simple_types@U?$pair@$$CBKUSSkillDataPet@CPythonSkillPet@@@std@@@std@@@std@@@2@ABK@Z ; std::_Tree<std::_Tmap_traits<unsigned long,CPythonSkillPet::SSkillDataPet,std::less<unsigned long>,std::allocator<std::pair<unsigned long const ,CPythonSkillPet::SSkillDataPet> >,0> >::find
PUBLIC	??0?$map@KUSSkillDataPet@CPythonSkillPet@@U?$less@K@std@@V?$allocator@U?$pair@$$CBKUSSkillDataPet@CPythonSkillPet@@@std@@@4@@std@@QAE@XZ ; std::map<unsigned long,CPythonSkillPet::SSkillDataPet,std::less<unsigned long>,std::allocator<std::pair<unsigned long const ,CPythonSkillPet::SSkillDataPet> > >::map<unsigned long,CPythonSkillPet::SSkillDataPet,std::less<unsigned long>,std::allocator<std::pair<unsigned long const ,CPythonSkillPet::SSkillDataPet> > >
PUBLIC	??A?$map@KUSSkillDataPet@CPythonSkillPet@@U?$less@K@std@@V?$allocator@U?$pair@$$CBKUSSkillDataPet@CPythonSkillPet@@@std@@@4@@std@@QAEAAUSSkillDataPet@CPythonSkillPet@@ABK@Z ; std::map<unsigned long,CPythonSkillPet::SSkillDataPet,std::less<unsigned long>,std::allocator<std::pair<unsigned long const ,CPythonSkillPet::SSkillDataPet> > >::operator[]
PUBLIC	??8?$_Tree_const_iterator@V?$_Tree_val@U?$_Tree_simple_types@U?$pair@$$CBKUSSkillDataPet@CPythonSkillPet@@@std@@@std@@@std@@@std@@QBE_NABV01@@Z ; std::_Tree_const_iterator<std::_Tree_val<std::_Tree_simple_types<std::pair<unsigned long const ,CPythonSkillPet::SSkillDataPet> > > >::operator==
PUBLIC	??C?$_Tree_iterator@V?$_Tree_val@U?$_Tree_simple_types@U?$pair@$$CBKUSSkillDataPet@CPythonSkillPet@@@std@@@std@@@std@@@std@@QBEPAU?$pair@$$CBKUSSkillDataPet@CPythonSkillPet@@@1@XZ ; std::_Tree_iterator<std::_Tree_val<std::_Tree_simple_types<std::pair<unsigned long const ,CPythonSkillPet::SSkillDataPet> > > >::operator->
PUBLIC	?initskillpet@@YAXXZ				; initskillpet
PUBLIC	?petskillGetEmptySkill@@YAPAU_object@@PAU1@0@Z	; petskillGetEmptySkill
PUBLIC	?petskillGetSkillbySlot@@YAPAU_object@@PAU1@0@Z	; petskillGetSkillbySlot
PUBLIC	?petskillGetIconImage@@YAPAU_object@@PAU1@0@Z	; petskillGetIconImage
PUBLIC	?petskillSetSkillSlot@@YAPAU_object@@PAU1@0@Z	; petskillSetSkillSlot
PUBLIC	?GetSkillIndex@CPythonSkillPet@@QAEHHPAH@Z	; CPythonSkillPet::GetSkillIndex
PUBLIC	?GetSkillData@CPythonSkillPet@@QAEHKPAPAUSSkillDataPet@1@@Z ; CPythonSkillPet::GetSkillData
PUBLIC	?SetSkillbySlot@CPythonSkillPet@@QAEXHH@Z	; CPythonSkillPet::SetSkillbySlot
PUBLIC	??1?$map@KUSSkillDataPet@CPythonSkillPet@@U?$less@K@std@@V?$allocator@U?$pair@$$CBKUSSkillDataPet@CPythonSkillPet@@@std@@@4@@std@@QAE@XZ ; std::map<unsigned long,CPythonSkillPet::SSkillDataPet,std::less<unsigned long>,std::allocator<std::pair<unsigned long const ,CPythonSkillPet::SSkillDataPet> > >::~map<unsigned long,CPythonSkillPet::SSkillDataPet,std::less<unsigned long>,std::allocator<std::pair<unsigned long const ,CPythonSkillPet::SSkillDataPet> > >
PUBLIC	??_GCPythonSkillPet@@UAEPAXI@Z			; CPythonSkillPet::`scalar deleting destructor'
PUBLIC	??0SSkillDataPet@CPythonSkillPet@@QAE@XZ	; CPythonSkillPet::SSkillDataPet::SSkillDataPet
PUBLIC	??1?$pair@KUSSkillDataPet@CPythonSkillPet@@@std@@QAE@XZ ; std::pair<unsigned long,CPythonSkillPet::SSkillDataPet>::~pair<unsigned long,CPythonSkillPet::SSkillDataPet>
PUBLIC	??1SSkillDataPet@CPythonSkillPet@@QAE@XZ	; CPythonSkillPet::SSkillDataPet::~SSkillDataPet
PUBLIC	??0CPythonSkillPet@@QAE@XZ			; CPythonSkillPet::CPythonSkillPet
PUBLIC	??1CPythonSkillPet@@UAE@XZ			; CPythonSkillPet::~CPythonSkillPet
PUBLIC	?Destroy@CPythonSkillPet@@QAEXXZ		; CPythonSkillPet::Destroy
PUBLIC	?RegisterSkillPet@CPythonSkillPet@@QAE_NPBD@Z	; CPythonSkillPet::RegisterSkillPet
EXTRN	??_ECPythonSkillPet@@UAEPAXI@Z:PROC		; CPythonSkillPet::`vector deleting destructor'
EXTRN	??_E?$CSingleton@VCPythonSkillPet@@@@UAEPAXI@Z:PROC ; CSingleton<CPythonSkillPet>::`vector deleting destructor'
;	COMDAT xdata$x
xdata$x	SEGMENT
__ehfuncinfo$?RegisterSkillPet@CPythonSkillPet@@QAE_NPBD@Z DD 019930522H
	DD	05H
	DD	FLAT:__unwindtable$?RegisterSkillPet@CPythonSkillPet@@QAE_NPBD@Z
	DD	2 DUP(00H)
	DD	2 DUP(00H)
	DD	00H
	DD	01H
__unwindtable$?RegisterSkillPet@CPythonSkillPet@@QAE_NPBD@Z DD 0ffffffffH
	DD	FLAT:__unwindfunclet$?RegisterSkillPet@CPythonSkillPet@@QAE_NPBD@Z$0
	DD	00H
	DD	FLAT:__unwindfunclet$?RegisterSkillPet@CPythonSkillPet@@QAE_NPBD@Z$1
	DD	01H
	DD	FLAT:__unwindfunclet$?RegisterSkillPet@CPythonSkillPet@@QAE_NPBD@Z$2
	DD	02H
	DD	FLAT:__unwindfunclet$?RegisterSkillPet@CPythonSkillPet@@QAE_NPBD@Z$3
	DD	03H
	DD	FLAT:__unwindfunclet$?RegisterSkillPet@CPythonSkillPet@@QAE_NPBD@Z$4
xdata$x	ENDS
;	COMDAT xdata$x
xdata$x	SEGMENT
__ehfuncinfo$??0CPythonSkillPet@@QAE@XZ DD 019930522H
	DD	06H
	DD	FLAT:__unwindtable$??0CPythonSkillPet@@QAE@XZ
	DD	2 DUP(00H)
	DD	2 DUP(00H)
	DD	00H
	DD	01H
__unwindtable$??0CPythonSkillPet@@QAE@XZ DD 0ffffffffH
	DD	FLAT:__unwindfunclet$??0CPythonSkillPet@@QAE@XZ$0
	DD	00H
	DD	FLAT:__unwindfunclet$??0CPythonSkillPet@@QAE@XZ$1
	DD	01H
	DD	FLAT:__unwindfunclet$??0CPythonSkillPet@@QAE@XZ$2
	DD	02H
	DD	FLAT:__unwindfunclet$??0CPythonSkillPet@@QAE@XZ$3
	DD	02H
	DD	FLAT:__unwindfunclet$??0CPythonSkillPet@@QAE@XZ$4
	DD	02H
	DD	FLAT:__unwindfunclet$??0CPythonSkillPet@@QAE@XZ$5
xdata$x	ENDS
;	COMDAT xdata$x
xdata$x	SEGMENT
__ehfuncinfo$??0SSkillDataPet@CPythonSkillPet@@QAE@XZ DD 019930522H
	DD	03H
	DD	FLAT:__unwindtable$??0SSkillDataPet@CPythonSkillPet@@QAE@XZ
	DD	2 DUP(00H)
	DD	2 DUP(00H)
	DD	00H
	DD	01H
__unwindtable$??0SSkillDataPet@CPythonSkillPet@@QAE@XZ DD 0ffffffffH
	DD	FLAT:__unwindfunclet$??0SSkillDataPet@CPythonSkillPet@@QAE@XZ$0
	DD	00H
	DD	FLAT:__unwindfunclet$??0SSkillDataPet@CPythonSkillPet@@QAE@XZ$1
	DD	01H
	DD	FLAT:__unwindfunclet$??0SSkillDataPet@CPythonSkillPet@@QAE@XZ$2
xdata$x	ENDS
;	COMDAT xdata$x
xdata$x	SEGMENT
__ehfuncinfo$??A?$map@KUSSkillDataPet@CPythonSkillPet@@U?$less@K@std@@V?$allocator@U?$pair@$$CBKUSSkillDataPet@CPythonSkillPet@@@std@@@4@@std@@QAEAAUSSkillDataPet@CPythonSkillPet@@ABK@Z DD 019930522H
	DD	02H
	DD	FLAT:__unwindtable$??A?$map@KUSSkillDataPet@CPythonSkillPet@@U?$less@K@std@@V?$allocator@U?$pair@$$CBKUSSkillDataPet@CPythonSkillPet@@@std@@@4@@std@@QAEAAUSSkillDataPet@CPythonSkillPet@@ABK@Z
	DD	2 DUP(00H)
	DD	2 DUP(00H)
	DD	00H
	DD	01H
__unwindtable$??A?$map@KUSSkillDataPet@CPythonSkillPet@@U?$less@K@std@@V?$allocator@U?$pair@$$CBKUSSkillDataPet@CPythonSkillPet@@@std@@@4@@std@@QAEAAUSSkillDataPet@CPythonSkillPet@@ABK@Z DD 0ffffffffH
	DD	FLAT:__unwindfunclet$??A?$map@KUSSkillDataPet@CPythonSkillPet@@U?$less@K@std@@V?$allocator@U?$pair@$$CBKUSSkillDataPet@CPythonSkillPet@@@std@@@4@@std@@QAEAAUSSkillDataPet@CPythonSkillPet@@ABK@Z$2
	DD	0ffffffffH
	DD	FLAT:__unwindfunclet$??A?$map@KUSSkillDataPet@CPythonSkillPet@@U?$less@K@std@@V?$allocator@U?$pair@$$CBKUSSkillDataPet@CPythonSkillPet@@@std@@@4@@std@@QAEAAUSSkillDataPet@CPythonSkillPet@@ABK@Z$1
xdata$x	ENDS
;	COMDAT xdata$x
xdata$x	SEGMENT
__ehfuncinfo$??$_Try_emplace@ABK$$V@?$map@KUSSkillDataPet@CPythonSkillPet@@U?$less@K@std@@V?$allocator@U?$pair@$$CBKUSSkillDataPet@CPythonSkillPet@@@std@@@4@@std@@AAE?AU?$pair@PAU?$_Tree_node@U?$pair@$$CBKUSSkillDataPet@CPythonSkillPet@@@std@@PAX@std@@_N@1@ABK@Z DD 019930522H
	DD	02H
	DD	FLAT:__unwindtable$??$_Try_emplace@ABK$$V@?$map@KUSSkillDataPet@CPythonSkillPet@@U?$less@K@std@@V?$allocator@U?$pair@$$CBKUSSkillDataPet@CPythonSkillPet@@@std@@@4@@std@@AAE?AU?$pair@PAU?$_Tree_node@U?$pair@$$CBKUSSkillDataPet@CPythonSkillPet@@@std@@PAX@std@@_N@1@ABK@Z
	DD	2 DUP(00H)
	DD	2 DUP(00H)
	DD	00H
	DD	01H
__unwindtable$??$_Try_emplace@ABK$$V@?$map@KUSSkillDataPet@CPythonSkillPet@@U?$less@K@std@@V?$allocator@U?$pair@$$CBKUSSkillDataPet@CPythonSkillPet@@@std@@@4@@std@@AAE?AU?$pair@PAU?$_Tree_node@U?$pair@$$CBKUSSkillDataPet@CPythonSkillPet@@@std@@PAX@std@@_N@1@ABK@Z DD 0ffffffffH
	DD	FLAT:__unwindfunclet$??$_Try_emplace@ABK$$V@?$map@KUSSkillDataPet@CPythonSkillPet@@U?$less@K@std@@V?$allocator@U?$pair@$$CBKUSSkillDataPet@CPythonSkillPet@@@std@@@4@@std@@AAE?AU?$pair@PAU?$_Tree_node@U?$pair@$$CBKUSSkillDataPet@CPythonSkillPet@@@std@@PAX@std@@_N@1@ABK@Z$2
	DD	0ffffffffH
	DD	FLAT:__unwindfunclet$??$_Try_emplace@ABK$$V@?$map@KUSSkillDataPet@CPythonSkillPet@@U?$less@K@std@@V?$allocator@U?$pair@$$CBKUSSkillDataPet@CPythonSkillPet@@@std@@@4@@std@@AAE?AU?$pair@PAU?$_Tree_node@U?$pair@$$CBKUSSkillDataPet@CPythonSkillPet@@@std@@PAX@std@@_N@1@ABK@Z$1
xdata$x	ENDS
;	COMDAT xdata$x
xdata$x	SEGMENT
__ehfuncinfo$??$emplace@U?$pair@KUSSkillDataPet@CPythonSkillPet@@@std@@@?$_Tree@V?$_Tmap_traits@KUSSkillDataPet@CPythonSkillPet@@U?$less@K@std@@V?$allocator@U?$pair@$$CBKUSSkillDataPet@CPythonSkillPet@@@std@@@4@$0A@@std@@@std@@QAE?AU?$pair@V?$_Tree_iterator@V?$_Tree_val@U?$_Tree_simple_types@U?$pair@$$CBKUSSkillDataPet@CPythonSkillPet@@@std@@@std@@@std@@@std@@_N@1@$$QAU?$pair@KUSSkillDataPet@CPythonSkillPet@@@1@@Z DD 019930522H
	DD	01H
	DD	FLAT:__unwindtable$??$emplace@U?$pair@KUSSkillDataPet@CPythonSkillPet@@@std@@@?$_Tree@V?$_Tmap_traits@KUSSkillDataPet@CPythonSkillPet@@U?$less@K@std@@V?$allocator@U?$pair@$$CBKUSSkillDataPet@CPythonSkillPet@@@std@@@4@$0A@@std@@@std@@QAE?AU?$pair@V?$_Tree_iterator@V?$_Tree_val@U?$_Tree_simple_types@U?$pair@$$CBKUSSkillDataPet@CPythonSkillPet@@@std@@@std@@@std@@@std@@_N@1@$$QAU?$pair@KUSSkillDataPet@CPythonSkillPet@@@1@@Z
	DD	2 DUP(00H)
	DD	2 DUP(00H)
	DD	00H
	DD	01H
__unwindtable$??$emplace@U?$pair@KUSSkillDataPet@CPythonSkillPet@@@std@@@?$_Tree@V?$_Tmap_traits@KUSSkillDataPet@CPythonSkillPet@@U?$less@K@std@@V?$allocator@U?$pair@$$CBKUSSkillDataPet@CPythonSkillPet@@@std@@@4@$0A@@std@@@std@@QAE?AU?$pair@V?$_Tree_iterator@V?$_Tree_val@U?$_Tree_simple_types@U?$pair@$$CBKUSSkillDataPet@CPythonSkillPet@@@std@@@std@@@std@@@std@@_N@1@$$QAU?$pair@KUSSkillDataPet@CPythonSkillPet@@@1@@Z DD 0ffffffffH
	DD	FLAT:__unwindfunclet$??$emplace@U?$pair@KUSSkillDataPet@CPythonSkillPet@@@std@@@?$_Tree@V?$_Tmap_traits@KUSSkillDataPet@CPythonSkillPet@@U?$less@K@std@@V?$allocator@U?$pair@$$CBKUSSkillDataPet@CPythonSkillPet@@@std@@@4@$0A@@std@@@std@@QAE?AU?$pair@V?$_Tree_iterator@V?$_Tree_val@U?$_Tree_simple_types@U?$pair@$$CBKUSSkillDataPet@CPythonSkillPet@@@std@@@std@@@std@@@std@@_N@1@$$QAU?$pair@KUSSkillDataPet@CPythonSkillPet@@@1@@Z$2
xdata$x	ENDS
;	COMDAT xdata$x
xdata$x	SEGMENT
__ehfuncinfo$??$?0ABUpiecewise_construct_t@std@@V?$tuple@ABK@1@V?$tuple@$$V@1@@?$_Tree_temp_node@V?$allocator@U?$_Tree_node@U?$pair@$$CBKUSSkillDataPet@CPythonSkillPet@@@std@@PAX@std@@@std@@@std@@QAE@AAV?$allocator@U?$_Tree_node@U?$pair@$$CBKUSSkillDataPet@CPythonSkillPet@@@std@@PAX@std@@@1@PAU?$_Tree_node@U?$pair@$$CBKUSSkillDataPet@CPythonSkillPet@@@std@@PAX@1@ABUpiecewise_construct_t@1@$$QAV?$tuple@ABK@1@$$QAV?$tuple@$$V@1@@Z DD 019930522H
	DD	02H
	DD	FLAT:__unwindtable$??$?0ABUpiecewise_construct_t@std@@V?$tuple@ABK@1@V?$tuple@$$V@1@@?$_Tree_temp_node@V?$allocator@U?$_Tree_node@U?$pair@$$CBKUSSkillDataPet@CPythonSkillPet@@@std@@PAX@std@@@std@@@std@@QAE@AAV?$allocator@U?$_Tree_node@U?$pair@$$CBKUSSkillDataPet@CPythonSkillPet@@@std@@PAX@std@@@1@PAU?$_Tree_node@U?$pair@$$CBKUSSkillDataPet@CPythonSkillPet@@@std@@PAX@1@ABUpiecewise_construct_t@1@$$QAV?$tuple@ABK@1@$$QAV?$tuple@$$V@1@@Z
	DD	2 DUP(00H)
	DD	2 DUP(00H)
	DD	00H
	DD	01H
__unwindtable$??$?0ABUpiecewise_construct_t@std@@V?$tuple@ABK@1@V?$tuple@$$V@1@@?$_Tree_temp_node@V?$allocator@U?$_Tree_node@U?$pair@$$CBKUSSkillDataPet@CPythonSkillPet@@@std@@PAX@std@@@std@@@std@@QAE@AAV?$allocator@U?$_Tree_node@U?$pair@$$CBKUSSkillDataPet@CPythonSkillPet@@@std@@PAX@std@@@1@PAU?$_Tree_node@U?$pair@$$CBKUSSkillDataPet@CPythonSkillPet@@@std@@PAX@1@ABUpiecewise_construct_t@1@$$QAV?$tuple@ABK@1@$$QAV?$tuple@$$V@1@@Z DD 0ffffffffH
	DD	FLAT:__unwindfunclet$??$?0ABUpiecewise_construct_t@std@@V?$tuple@ABK@1@V?$tuple@$$V@1@@?$_Tree_temp_node@V?$allocator@U?$_Tree_node@U?$pair@$$CBKUSSkillDataPet@CPythonSkillPet@@@std@@PAX@std@@@std@@@std@@QAE@AAV?$allocator@U?$_Tree_node@U?$pair@$$CBKUSSkillDataPet@CPythonSkillPet@@@std@@PAX@std@@@1@PAU?$_Tree_node@U?$pair@$$CBKUSSkillDataPet@CPythonSkillPet@@@std@@PAX@1@ABUpiecewise_construct_t@1@$$QAV?$tuple@ABK@1@$$QAV?$tuple@$$V@1@@Z$1
	DD	0ffffffffH
	DD	FLAT:__unwindfunclet$??$?0ABUpiecewise_construct_t@std@@V?$tuple@ABK@1@V?$tuple@$$V@1@@?$_Tree_temp_node@V?$allocator@U?$_Tree_node@U?$pair@$$CBKUSSkillDataPet@CPythonSkillPet@@@std@@PAX@std@@@std@@@std@@QAE@AAV?$allocator@U?$_Tree_node@U?$pair@$$CBKUSSkillDataPet@CPythonSkillPet@@@std@@PAX@std@@@1@PAU?$_Tree_node@U?$pair@$$CBKUSSkillDataPet@CPythonSkillPet@@@std@@PAX@1@ABUpiecewise_construct_t@1@$$QAV?$tuple@ABK@1@$$QAV?$tuple@$$V@1@@Z$0
xdata$x	ENDS
;	COMDAT xdata$x
xdata$x	SEGMENT
__ehfuncinfo$??0?$_Tree_temp_node_alloc@V?$allocator@U?$_Tree_node@U?$pair@$$CBKUSSkillDataPet@CPythonSkillPet@@@std@@PAX@std@@@std@@@std@@QAE@AAV?$allocator@U?$_Tree_node@U?$pair@$$CBKUSSkillDataPet@CPythonSkillPet@@@std@@PAX@std@@@1@@Z DD 019930522H
	DD	01H
	DD	FLAT:__unwindtable$??0?$_Tree_temp_node_alloc@V?$allocator@U?$_Tree_node@U?$pair@$$CBKUSSkillDataPet@CPythonSkillPet@@@std@@PAX@std@@@std@@@std@@QAE@AAV?$allocator@U?$_Tree_node@U?$pair@$$CBKUSSkillDataPet@CPythonSkillPet@@@std@@PAX@std@@@1@@Z
	DD	2 DUP(00H)
	DD	2 DUP(00H)
	DD	00H
	DD	01H
__unwindtable$??0?$_Tree_temp_node_alloc@V?$allocator@U?$_Tree_node@U?$pair@$$CBKUSSkillDataPet@CPythonSkillPet@@@std@@PAX@std@@@std@@@std@@QAE@AAV?$allocator@U?$_Tree_node@U?$pair@$$CBKUSSkillDataPet@CPythonSkillPet@@@std@@PAX@std@@@1@@Z DD 0ffffffffH
	DD	FLAT:__unwindfunclet$??0?$_Tree_temp_node_alloc@V?$allocator@U?$_Tree_node@U?$pair@$$CBKUSSkillDataPet@CPythonSkillPet@@@std@@PAX@std@@@std@@@std@@QAE@AAV?$allocator@U?$_Tree_node@U?$pair@$$CBKUSSkillDataPet@CPythonSkillPet@@@std@@PAX@std@@@1@@Z$0
xdata$x	ENDS
;	COMDAT xdata$x
xdata$x	SEGMENT
__ehfuncinfo$??$_Emplace@U?$pair@KUSSkillDataPet@CPythonSkillPet@@@std@@@?$_Tree@V?$_Tmap_traits@KUSSkillDataPet@CPythonSkillPet@@U?$less@K@std@@V?$allocator@U?$pair@$$CBKUSSkillDataPet@CPythonSkillPet@@@std@@@4@$0A@@std@@@std@@IAE?AU?$pair@PAU?$_Tree_node@U?$pair@$$CBKUSSkillDataPet@CPythonSkillPet@@@std@@PAX@std@@_N@1@$$QAU?$pair@KUSSkillDataPet@CPythonSkillPet@@@1@@Z DD 019930522H
	DD	01H
	DD	FLAT:__unwindtable$??$_Emplace@U?$pair@KUSSkillDataPet@CPythonSkillPet@@@std@@@?$_Tree@V?$_Tmap_traits@KUSSkillDataPet@CPythonSkillPet@@U?$less@K@std@@V?$allocator@U?$pair@$$CBKUSSkillDataPet@CPythonSkillPet@@@std@@@4@$0A@@std@@@std@@IAE?AU?$pair@PAU?$_Tree_node@U?$pair@$$CBKUSSkillDataPet@CPythonSkillPet@@@std@@PAX@std@@_N@1@$$QAU?$pair@KUSSkillDataPet@CPythonSkillPet@@@1@@Z
	DD	2 DUP(00H)
	DD	2 DUP(00H)
	DD	00H
	DD	01H
__unwindtable$??$_Emplace@U?$pair@KUSSkillDataPet@CPythonSkillPet@@@std@@@?$_Tree@V?$_Tmap_traits@KUSSkillDataPet@CPythonSkillPet@@U?$less@K@std@@V?$allocator@U?$pair@$$CBKUSSkillDataPet@CPythonSkillPet@@@std@@@4@$0A@@std@@@std@@IAE?AU?$pair@PAU?$_Tree_node@U?$pair@$$CBKUSSkillDataPet@CPythonSkillPet@@@std@@PAX@std@@_N@1@$$QAU?$pair@KUSSkillDataPet@CPythonSkillPet@@@1@@Z DD 0ffffffffH
	DD	FLAT:__unwindfunclet$??$_Emplace@U?$pair@KUSSkillDataPet@CPythonSkillPet@@@std@@@?$_Tree@V?$_Tmap_traits@KUSSkillDataPet@CPythonSkillPet@@U?$less@K@std@@V?$allocator@U?$pair@$$CBKUSSkillDataPet@CPythonSkillPet@@@std@@@4@$0A@@std@@@std@@IAE?AU?$pair@PAU?$_Tree_node@U?$pair@$$CBKUSSkillDataPet@CPythonSkillPet@@@std@@PAX@std@@_N@1@$$QAU?$pair@KUSSkillDataPet@CPythonSkillPet@@@1@@Z$2
xdata$x	ENDS
;	COMDAT xdata$x
xdata$x	SEGMENT
__ehfuncinfo$??$?0U?$pair@KUSSkillDataPet@CPythonSkillPet@@@std@@@?$_Tree_temp_node@V?$allocator@U?$_Tree_node@U?$pair@$$CBKUSSkillDataPet@CPythonSkillPet@@@std@@PAX@std@@@std@@@std@@QAE@AAV?$allocator@U?$_Tree_node@U?$pair@$$CBKUSSkillDataPet@CPythonSkillPet@@@std@@PAX@std@@@1@PAU?$_Tree_node@U?$pair@$$CBKUSSkillDataPet@CPythonSkillPet@@@std@@PAX@1@$$QAU?$pair@KUSSkillDataPet@CPythonSkillPet@@@1@@Z DD 019930522H
	DD	01H
	DD	FLAT:__unwindtable$??$?0U?$pair@KUSSkillDataPet@CPythonSkillPet@@@std@@@?$_Tree_temp_node@V?$allocator@U?$_Tree_node@U?$pair@$$CBKUSSkillDataPet@CPythonSkillPet@@@std@@PAX@std@@@std@@@std@@QAE@AAV?$allocator@U?$_Tree_node@U?$pair@$$CBKUSSkillDataPet@CPythonSkillPet@@@std@@PAX@std@@@1@PAU?$_Tree_node@U?$pair@$$CBKUSSkillDataPet@CPythonSkillPet@@@std@@PAX@1@$$QAU?$pair@KUSSkillDataPet@CPythonSkillPet@@@1@@Z
	DD	2 DUP(00H)
	DD	2 DUP(00H)
	DD	00H
	DD	01H
__unwindtable$??$?0U?$pair@KUSSkillDataPet@CPythonSkillPet@@@std@@@?$_Tree_temp_node@V?$allocator@U?$_Tree_node@U?$pair@$$CBKUSSkillDataPet@CPythonSkillPet@@@std@@PAX@std@@@std@@@std@@QAE@AAV?$allocator@U?$_Tree_node@U?$pair@$$CBKUSSkillDataPet@CPythonSkillPet@@@std@@PAX@std@@@1@PAU?$_Tree_node@U?$pair@$$CBKUSSkillDataPet@CPythonSkillPet@@@std@@PAX@1@$$QAU?$pair@KUSSkillDataPet@CPythonSkillPet@@@1@@Z DD 0ffffffffH
	DD	FLAT:__unwindfunclet$??$?0U?$pair@KUSSkillDataPet@CPythonSkillPet@@@std@@@?$_Tree_temp_node@V?$allocator@U?$_Tree_node@U?$pair@$$CBKUSSkillDataPet@CPythonSkillPet@@@std@@PAX@std@@@std@@@std@@QAE@AAV?$allocator@U?$_Tree_node@U?$pair@$$CBKUSSkillDataPet@CPythonSkillPet@@@std@@PAX@std@@@1@PAU?$_Tree_node@U?$pair@$$CBKUSSkillDataPet@CPythonSkillPet@@@std@@PAX@1@$$QAU?$pair@KUSSkillDataPet@CPythonSkillPet@@@1@@Z$1
; Function compile flags: /Ogtp
; File E:\Metin2_server\SolWayneSF v6\ClientVS22\source\UserInterface\PythonSkillPet.cpp
; File C:\Program Files\Microsoft Visual Studio\2022\Community\VC\Tools\MSVC\14.34.31933\include\vector
; File E:\Metin2_server\SolWayneSF v6\ClientVS22\source\UserInterface\PythonSkillPet.cpp
; File C:\Program Files\Microsoft Visual Studio\2022\Community\VC\Tools\MSVC\14.34.31933\include\vector
; File E:\Metin2_server\SolWayneSF v6\ClientVS22\source\UserInterface\PythonSkillPet.cpp
; File C:\Program Files\Microsoft Visual Studio\2022\Community\VC\Tools\MSVC\14.34.31933\include\xstring
; File E:\Metin2_server\SolWayneSF v6\ClientVS22\source\UserInterface\PythonSkillPet.cpp
; File C:\Program Files\Microsoft Visual Studio\2022\Community\VC\Tools\MSVC\14.34.31933\include\utility
; File C:\Program Files\Microsoft Visual Studio\2022\Community\VC\Tools\MSVC\14.34.31933\include\map
; File E:\Metin2_server\SolWayneSF v6\ClientVS22\source\UserInterface\PythonSkillPet.cpp
; File C:\Program Files\Microsoft Visual Studio\2022\Community\VC\Tools\MSVC\14.34.31933\include\map
; File E:\Metin2_server\SolWayneSF v6\ClientVS22\source\UserInterface\PythonSkillPet.cpp
; File C:\Program Files\Microsoft Visual Studio\2022\Community\VC\Tools\MSVC\14.34.31933\include\vector
; File C:\Program Files\Microsoft Visual Studio\2022\Community\VC\Tools\MSVC\14.34.31933\include\xstring
; File C:\Program Files\Microsoft Visual Studio\2022\Community\VC\Tools\MSVC\14.34.31933\include\vector
; File C:\Program Files\Microsoft Visual Studio\2022\Community\VC\Tools\MSVC\14.34.31933\include\xstring
; File E:\Metin2_server\SolWayneSF v6\ClientVS22\source\UserInterface\PythonSkillPet.cpp
; File C:\Program Files\Microsoft Visual Studio\2022\Community\VC\Tools\MSVC\14.34.31933\include\xstring
; File E:\Metin2_server\SolWayneSF v6\ClientVS22\source\UserInterface\PythonSkillPet.cpp
; File C:\Program Files\Microsoft Visual Studio\2022\Community\VC\Tools\MSVC\14.34.31933\include\xstring
; File E:\Metin2_server\SolWayneSF v6\ClientVS22\source\UserInterface\PythonSkillPet.cpp
; File C:\Program Files\Microsoft Visual Studio\2022\Community\VC\Tools\MSVC\14.34.31933\include\xstring
; File E:\Metin2_server\SolWayneSF v6\ClientVS22\source\UserInterface\PythonSkillPet.cpp
; File C:\Program Files\Microsoft Visual Studio\2022\Community\VC\Tools\MSVC\14.34.31933\include\xstring
; File C:\Program Files\Microsoft Visual Studio\2022\Community\VC\Tools\MSVC\14.34.31933\include\xtree
; File E:\Metin2_server\SolWayneSF v6\ClientVS22\source\UserInterface\PythonSkillPet.cpp
; File C:\Program Files\Microsoft Visual Studio\2022\Community\VC\Tools\MSVC\14.34.31933\include\vector
; File C:\Program Files\Microsoft Visual Studio\2022\Community\VC\Tools\MSVC\14.34.31933\include\xtree
; File C:\Program Files\Microsoft Visual Studio\2022\Community\VC\Tools\MSVC\14.34.31933\include\xstring
; File C:\Program Files\Microsoft Visual Studio\2022\Community\VC\Tools\MSVC\14.34.31933\include\vector
; File C:\Program Files\Microsoft Visual Studio\2022\Community\VC\Tools\MSVC\14.34.31933\include\xstring
; File E:\Metin2_server\SolWayneSF v6\ClientVS22\source\UserInterface\PythonSkillPet.cpp
; File C:\Program Files\Microsoft Visual Studio\2022\Community\VC\Tools\MSVC\14.34.31933\include\xtree
; File E:\Metin2_server\SolWayneSF v6\ClientVS22\source\UserInterface\PythonSkillPet.cpp
; File C:\Program Files\Microsoft Visual Studio\2022\Community\VC\Tools\MSVC\14.34.31933\include\vector
; File E:\Metin2_server\SolWayneSF v6\ClientVS22\source\UserInterface\PythonSkillPet.cpp
; File C:\Program Files\Microsoft Visual Studio\2022\Community\VC\Tools\MSVC\14.34.31933\include\vector
; File C:\Program Files\Microsoft Visual Studio\2022\Community\VC\Tools\MSVC\14.34.31933\include\xstring
; File C:\Program Files\Microsoft Visual Studio\2022\Community\VC\Tools\MSVC\14.34.31933\include\vector
; File C:\Program Files\Microsoft Visual Studio\2022\Community\VC\Tools\MSVC\14.34.31933\include\xstring
; File E:\Metin2_server\SolWayneSF v6\ClientVS22\source\UserInterface\PythonSkillPet.cpp
; File C:\Program Files\Microsoft Visual Studio\2022\Community\VC\Tools\MSVC\14.34.31933\include\vector
; File E:\Metin2_server\SolWayneSF v6\ClientVS22\source\UserInterface\PythonSkillPet.cpp
;	COMDAT ?RegisterSkillPet@CPythonSkillPet@@QAE_NPBD@Z
_TEXT	SEGMENT
$T2 = -640						; size = 8
_textFileLoader$ = -632					; size = 16
_this$GSCopy$1$ = -616					; size = 4
_pvData$ = -612						; size = 4
_i$1$ = -608						; size = 4
_TokenVector$ = -604					; size = 12
_iSkillIndex$3 = -592					; size = 4
_kFile$ = -588						; size = 324
$T4 = -264						; size = 88
$T5 = -176						; size = 92
_szIconFileNameHeader$6 = -84				; size = 65
__$ArrayPad$ = -16					; size = 4
__$EHRec$ = -12						; size = 12
_c_szFileName$ = 8					; size = 4
?RegisterSkillPet@CPythonSkillPet@@QAE_NPBD@Z PROC	; CPythonSkillPet::RegisterSkillPet, COMDAT
; _this$ = ecx

; 14   : {

  00000	55		 push	 ebp
  00001	8b ec		 mov	 ebp, esp
  00003	6a ff		 push	 -1
  00005	68 00 00 00 00	 push	 __ehhandler$?RegisterSkillPet@CPythonSkillPet@@QAE_NPBD@Z
  0000a	64 a1 00 00 00
	00		 mov	 eax, DWORD PTR fs:0
  00010	50		 push	 eax
  00011	81 ec 74 02 00
	00		 sub	 esp, 628		; 00000274H
  00017	a1 00 00 00 00	 mov	 eax, DWORD PTR ___security_cookie
  0001c	33 c5		 xor	 eax, ebp
  0001e	89 45 f0	 mov	 DWORD PTR __$ArrayPad$[ebp], eax
  00021	53		 push	 ebx
  00022	56		 push	 esi
  00023	57		 push	 edi
  00024	50		 push	 eax
  00025	8d 45 f4	 lea	 eax, DWORD PTR __$EHRec$[ebp]
  00028	64 a3 00 00 00
	00		 mov	 DWORD PTR fs:0, eax
  0002e	8b f9		 mov	 edi, ecx
  00030	89 bd 98 fd ff
	ff		 mov	 DWORD PTR _this$GSCopy$1$[ebp], edi
  00036	8b 75 08	 mov	 esi, DWORD PTR _c_szFileName$[ebp]

; 15   : 	const VOID* pvData;
; 16   : 	CMappedFile kFile;

  00039	8d 8d b4 fd ff
	ff		 lea	 ecx, DWORD PTR _kFile$[ebp]
  0003f	e8 00 00 00 00	 call	 ??0CMappedFile@@QAE@XZ	; CMappedFile::CMappedFile

; 17   : 	if (!CEterPackManager::Instance().Get(kFile, c_szFileName, &pvData))

  00044	8d 85 9c fd ff
	ff		 lea	 eax, DWORD PTR _pvData$[ebp]
  0004a	c7 45 fc 00 00
	00 00		 mov	 DWORD PTR __$EHRec$[ebp+8], 0
  00051	8b 0d 00 00 00
	00		 mov	 ecx, DWORD PTR ?ms_singleton@?$CSingleton@VCEterPackManager@@@@0PAVCEterPackManager@@A ; CSingleton<CEterPackManager>::ms_singleton
  00057	50		 push	 eax
  00058	56		 push	 esi
  00059	8d 85 b4 fd ff
	ff		 lea	 eax, DWORD PTR _kFile$[ebp]
  0005f	50		 push	 eax
  00060	e8 00 00 00 00	 call	 ?Get@CEterPackManager@@QAE_NAAVCMappedFile@@PBDPAPBX@Z ; CEterPackManager::Get
  00065	84 c0		 test	 al, al
  00067	75 07		 jne	 SHORT $LN8@RegisterSk
  00069	32 db		 xor	 bl, bl
  0006b	e9 e5 02 00 00	 jmp	 $LN19@RegisterSk
$LN8@RegisterSk:

; 18   : 		return false;
; 19   : 
; 20   : 	CMemoryTextFileLoader textFileLoader;

  00070	8d 8d 88 fd ff
	ff		 lea	 ecx, DWORD PTR _textFileLoader$[ebp]
  00076	e8 00 00 00 00	 call	 ??0CMemoryTextFileLoader@@QAE@XZ ; CMemoryTextFileLoader::CMemoryTextFileLoader
  0007b	c6 45 fc 01	 mov	 BYTE PTR __$EHRec$[ebp+8], 1

; 21   : 	textFileLoader.Bind(kFile.Size(), pvData);

  0007f	8d 8d b4 fd ff
	ff		 lea	 ecx, DWORD PTR _kFile$[ebp]
  00085	8b b5 9c fd ff
	ff		 mov	 esi, DWORD PTR _pvData$[ebp]
  0008b	e8 00 00 00 00	 call	 ?Size@CMappedFile@@QAEKXZ ; CMappedFile::Size
  00090	56		 push	 esi
  00091	50		 push	 eax
  00092	8d 8d 88 fd ff
	ff		 lea	 ecx, DWORD PTR _textFileLoader$[ebp]
  00098	e8 00 00 00 00	 call	 ?Bind@CMemoryTextFileLoader@@QAEXHPBX@Z ; CMemoryTextFileLoader::Bind
; File C:\Program Files\Microsoft Visual Studio\2022\Community\VC\Tools\MSVC\14.34.31933\include\vector

; 390  :     _CONSTEXPR20 _Vector_val() noexcept : _Myfirst(), _Mylast(), _Myend() {}

  0009d	c7 85 a4 fd ff
	ff 00 00 00 00	 mov	 DWORD PTR _TokenVector$[ebp], 0
  000a7	c7 85 a8 fd ff
	ff 00 00 00 00	 mov	 DWORD PTR _TokenVector$[ebp+4], 0
  000b1	c7 85 ac fd ff
	ff 00 00 00 00	 mov	 DWORD PTR _TokenVector$[ebp+8], 0
; File E:\Metin2_server\SolWayneSF v6\ClientVS22\source\UserInterface\PythonSkillPet.cpp

; 24   : 	for (DWORD i = 0; i < textFileLoader.GetLineCount()-1; ++i)

  000bb	33 db		 xor	 ebx, ebx
  000bd	c6 45 fc 02	 mov	 BYTE PTR __$EHRec$[ebp+8], 2
  000c1	8d 8d 88 fd ff
	ff		 lea	 ecx, DWORD PTR _textFileLoader$[ebp]
  000c7	89 9d a0 fd ff
	ff		 mov	 DWORD PTR _i$1$[ebp], ebx
  000cd	e8 00 00 00 00	 call	 ?GetLineCount@CMemoryTextFileLoader@@QAEKXZ ; CMemoryTextFileLoader::GetLineCount
  000d2	83 e8 01	 sub	 eax, 1
  000d5	0f 84 62 02 00
	00		 je	 $LN3@RegisterSk
  000db	0f 1f 44 00 00	 npad	 5
$LL4@RegisterSk:

; 25   : 	{
; 26   : 		if (!textFileLoader.SplitLine(i, &TokenVector, "\t"))

  000e0	68 00 00 00 00	 push	 OFFSET ??_C@_01GPOEFGEJ@?7@
  000e5	8d 85 a4 fd ff
	ff		 lea	 eax, DWORD PTR _TokenVector$[ebp]
  000eb	50		 push	 eax
  000ec	53		 push	 ebx
  000ed	8d 8d 88 fd ff
	ff		 lea	 ecx, DWORD PTR _textFileLoader$[ebp]
  000f3	e8 00 00 00 00	 call	 ?SplitLine@CMemoryTextFileLoader@@QAE_NKPAV?$vector@V?$basic_string@DU?$char_traits@D@std@@V?$allocator@D@2@@std@@V?$allocator@V?$basic_string@DU?$char_traits@D@std@@V?$allocator@D@2@@std@@@2@@std@@PBD@Z ; CMemoryTextFileLoader::SplitLine
  000f8	84 c0		 test	 al, al
  000fa	0f 84 80 02 00
	00		 je	 $LN408@RegisterSk
; File C:\Program Files\Microsoft Visual Studio\2022\Community\VC\Tools\MSVC\14.34.31933\include\vector

; 1932 :         return static_cast<size_type>(_My_data._Mylast - _My_data._Myfirst);

  00100	8b 85 a8 fd ff
	ff		 mov	 eax, DWORD PTR _TokenVector$[ebp+4]
  00106	8b 8d a4 fd ff
	ff		 mov	 ecx, DWORD PTR _TokenVector$[ebp]
  0010c	2b c1		 sub	 eax, ecx
  0010e	c1 f8 03	 sar	 eax, 3
  00111	69 c0 ab aa aa
	aa		 imul	 eax, eax, -1431655765
; File E:\Metin2_server\SolWayneSF v6\ClientVS22\source\UserInterface\PythonSkillPet.cpp

; 30   : 		if (DESCPET_TOKEN_TYPE_MAX_NUM > TokenVector.size())

  00117	83 f8 06	 cmp	 eax, 6
  0011a	0f 82 60 02 00
	00		 jb	 $LN408@RegisterSk
; File C:\Program Files\Microsoft Visual Studio\2022\Community\VC\Tools\MSVC\14.34.31933\include\xstring

; 2293 :         if (_Large_string_engaged()) {

  00120	83 79 14 10	 cmp	 DWORD PTR [ecx+20], 16	; 00000010H
  00124	72 02		 jb	 SHORT $LN100@RegisterSk

; 2294 :             _Result = _Unfancy(_Bx._Ptr);

  00126	8b 09		 mov	 ecx, DWORD PTR [ecx]
$LN100@RegisterSk:
; File E:\Metin2_server\SolWayneSF v6\ClientVS22\source\UserInterface\PythonSkillPet.cpp

; 36   : 		DWORD iSkillIndex = atoi(TokenVector[DESCPET_TOKEN_TYPE_VNUM].c_str());

  00128	51		 push	 ecx
  00129	e8 00 00 00 00	 call	 __atoi64
  0012e	83 c4 04	 add	 esp, 4
  00131	89 85 b0 fd ff
	ff		 mov	 DWORD PTR _iSkillIndex$3[ebp], eax
  00137	85 c0		 test	 eax, eax

; 37   : 		if (iSkillIndex == 0)

  00139	0f 84 e3 01 00
	00		 je	 $LN2@RegisterSk

; 57   : 		m_SkillDataPetMap.insert(std::make_pair(iSkillIndex, TSkillDataPet()));

  0013f	8d 8d f8 fe ff
	ff		 lea	 ecx, DWORD PTR $T4[ebp]
  00145	e8 00 00 00 00	 call	 ??0SSkillDataPet@CPythonSkillPet@@QAE@XZ ; CPythonSkillPet::SSkillDataPet::SSkillDataPet
; File C:\Program Files\Microsoft Visual Studio\2022\Community\VC\Tools\MSVC\14.34.31933\include\utility

; 172  :         : first(_STD forward<_Other1>(_Val1)), second(_STD forward<_Other2>(_Val2)) {

  0014a	50		 push	 eax
  0014b	8b 85 b0 fd ff
	ff		 mov	 eax, DWORD PTR _iSkillIndex$3[ebp]
  00151	8d 8d 54 ff ff
	ff		 lea	 ecx, DWORD PTR $T5[ebp+4]
  00157	89 85 50 ff ff
	ff		 mov	 DWORD PTR $T5[ebp], eax
  0015d	e8 00 00 00 00	 call	 ??0SSkillDataPet@CPythonSkillPet@@QAE@$$QAU01@@Z
; File C:\Program Files\Microsoft Visual Studio\2022\Community\VC\Tools\MSVC\14.34.31933\include\map

; 185  :         return this->emplace(_STD forward<_Valty>(_Val));

  00162	8d 85 50 ff ff
	ff		 lea	 eax, DWORD PTR $T5[ebp]
; File E:\Metin2_server\SolWayneSF v6\ClientVS22\source\UserInterface\PythonSkillPet.cpp

; 57   : 		m_SkillDataPetMap.insert(std::make_pair(iSkillIndex, TSkillDataPet()));

  00168	c6 45 fc 04	 mov	 BYTE PTR __$EHRec$[ebp+8], 4
; File C:\Program Files\Microsoft Visual Studio\2022\Community\VC\Tools\MSVC\14.34.31933\include\map

; 185  :         return this->emplace(_STD forward<_Valty>(_Val));

  0016c	50		 push	 eax
  0016d	8d 85 80 fd ff
	ff		 lea	 eax, DWORD PTR $T2[ebp]
  00173	50		 push	 eax
  00174	8d 4f 10	 lea	 ecx, DWORD PTR [edi+16]
  00177	e8 00 00 00 00	 call	 ??$emplace@U?$pair@KUSSkillDataPet@CPythonSkillPet@@@std@@@?$_Tree@V?$_Tmap_traits@KUSSkillDataPet@CPythonSkillPet@@U?$less@K@std@@V?$allocator@U?$pair@$$CBKUSSkillDataPet@CPythonSkillPet@@@std@@@4@$0A@@std@@@std@@QAE?AU?$pair@V?$_Tree_iterator@V?$_Tree_val@U?$_Tree_simple_types@U?$pair@$$CBKUSSkillDataPet@CPythonSkillPet@@@std@@@std@@@std@@@std@@_N@1@$$QAU?$pair@KUSSkillDataPet@CPythonSkillPet@@@1@@Z ; std::_Tree<std::_Tmap_traits<unsigned long,CPythonSkillPet::SSkillDataPet,std::less<unsigned long>,std::allocator<std::pair<unsigned long const ,CPythonSkillPet::SSkillDataPet> >,0> >::emplace<std::pair<unsigned long,CPythonSkillPet::SSkillDataPet> >
  0017c	8d 8d 54 ff ff
	ff		 lea	 ecx, DWORD PTR $T5[ebp+4]
  00182	e8 00 00 00 00	 call	 ??1SSkillDataPet@CPythonSkillPet@@QAE@XZ
; File E:\Metin2_server\SolWayneSF v6\ClientVS22\source\UserInterface\PythonSkillPet.cpp

; 57   : 		m_SkillDataPetMap.insert(std::make_pair(iSkillIndex, TSkillDataPet()));

  00187	8d 8d f8 fe ff
	ff		 lea	 ecx, DWORD PTR $T4[ebp]
  0018d	c6 45 fc 02	 mov	 BYTE PTR __$EHRec$[ebp+8], 2
  00191	e8 00 00 00 00	 call	 ??1SSkillDataPet@CPythonSkillPet@@QAE@XZ

; 58   : 		
; 59   : 		
; 60   : 		
; 61   : 		
; 62   : 		
; 63   : 		//TraceError("SkillPetDesc.line(%d).NO_VNUM_ERROR\n", 5);
; 64   : 		TSkillDataPet & rSkillData = m_SkillDataPetMap[iSkillIndex];

  00196	8d 85 b0 fd ff
	ff		 lea	 eax, DWORD PTR _iSkillIndex$3[ebp]
  0019c	50		 push	 eax
  0019d	8d 4f 10	 lea	 ecx, DWORD PTR [edi+16]
  001a0	e8 00 00 00 00	 call	 ??A?$map@KUSSkillDataPet@CPythonSkillPet@@U?$less@K@std@@V?$allocator@U?$pair@$$CBKUSSkillDataPet@CPythonSkillPet@@@std@@@4@@std@@QAEAAUSSkillDataPet@CPythonSkillPet@@ABK@Z ; std::map<unsigned long,CPythonSkillPet::SSkillDataPet,std::less<unsigned long>,std::allocator<std::pair<unsigned long const ,CPythonSkillPet::SSkillDataPet> > >::operator[]
  001a5	8b d8		 mov	 ebx, eax

; 65   : 
; 66   : 		//TraceError("SkillPetDesc.line(%d).NO_VNUM_ERROR\n", 6);
; 67   : 		// Vnum
; 68   : 		rSkillData.dwSkillIndex = iSkillIndex;		

  001a7	8b 85 b0 fd ff
	ff		 mov	 eax, DWORD PTR _iSkillIndex$3[ebp]
  001ad	89 03		 mov	 DWORD PTR [ebx], eax

; 69   : 		//TraceError("SkillPetDesc.line(%d).NO_VNUM_ERROR\n", 7);
; 70   : 		// Name
; 71   : 		rSkillData.strName = TokenVector[DESCPET_TOKEN_TYPE_NAME];

  001af	8d 73 04	 lea	 esi, DWORD PTR [ebx+4]
; File C:\Program Files\Microsoft Visual Studio\2022\Community\VC\Tools\MSVC\14.34.31933\include\vector

; 1952 :         return _My_data._Myfirst[_Pos];

  001b2	8b 8d a4 fd ff
	ff		 mov	 ecx, DWORD PTR _TokenVector$[ebp]
  001b8	8d 51 18	 lea	 edx, DWORD PTR [ecx+24]
; File C:\Program Files\Microsoft Visual Studio\2022\Community\VC\Tools\MSVC\14.34.31933\include\xstring

; 3303 :         if (this == _STD addressof(_Right)) {

  001bb	3b f2		 cmp	 esi, edx
  001bd	74 1a		 je	 SHORT $LN345@RegisterSk

; 2301 :         return _BUF_SIZE <= _Myres;

  001bf	83 7a 14 10	 cmp	 DWORD PTR [edx+20], 16	; 00000010H

; 3343 :         assign(_Right._Mypair._Myval2._Myptr(), _Right._Mypair._Myval2._Mysize);

  001c3	8b 42 10	 mov	 eax, DWORD PTR [edx+16]

; 2293 :         if (_Large_string_engaged()) {

  001c6	72 02		 jb	 SHORT $LN349@RegisterSk

; 2294 :             _Result = _Unfancy(_Bx._Ptr);

  001c8	8b 12		 mov	 edx, DWORD PTR [edx]
$LN349@RegisterSk:

; 3343 :         assign(_Right._Mypair._Myval2._Myptr(), _Right._Mypair._Myval2._Mysize);

  001ca	50		 push	 eax
  001cb	52		 push	 edx
  001cc	8b ce		 mov	 ecx, esi
  001ce	e8 00 00 00 00	 call	 ?assign@?$basic_string@DU?$char_traits@D@std@@V?$allocator@D@2@@std@@QAEAAV12@QBDI@Z ; std::basic_string<char,std::char_traits<char>,std::allocator<char> >::assign
  001d3	8b 8d a4 fd ff
	ff		 mov	 ecx, DWORD PTR _TokenVector$[ebp]
$LN345@RegisterSk:
; File C:\Program Files\Microsoft Visual Studio\2022\Community\VC\Tools\MSVC\14.34.31933\include\vector

; 1952 :         return _My_data._Myfirst[_Pos];

  001d9	83 c1 30	 add	 ecx, 48			; 00000030H
; File C:\Program Files\Microsoft Visual Studio\2022\Community\VC\Tools\MSVC\14.34.31933\include\xstring

; 2301 :         return _BUF_SIZE <= _Myres;

  001dc	83 79 14 10	 cmp	 DWORD PTR [ecx+20], 16	; 00000010H

; 2293 :         if (_Large_string_engaged()) {

  001e0	72 02		 jb	 SHORT $LN358@RegisterSk

; 2294 :             _Result = _Unfancy(_Bx._Ptr);

  001e2	8b 09		 mov	 ecx, DWORD PTR [ecx]
$LN358@RegisterSk:

; 2301 :         return _BUF_SIZE <= _Myres;

  001e4	83 3d 14 00 00
	00 10		 cmp	 DWORD PTR ?g_strImagePath@@3V?$basic_string@DU?$char_traits@D@std@@V?$allocator@D@2@@std@@A+20, 16 ; 00000010H

; 2292 :         const value_type* _Result = _Bx._Buf;

  001eb	b8 00 00 00 00	 mov	 eax, OFFSET ?g_strImagePath@@3V?$basic_string@DU?$char_traits@D@std@@V?$allocator@D@2@@std@@A ; g_strImagePath
; File E:\Metin2_server\SolWayneSF v6\ClientVS22\source\UserInterface\PythonSkillPet.cpp

; 74   : 		_snprintf(szIconFileNameHeader, sizeof(szIconFileNameHeader), "%sskill/pet/%s.sub", g_strImagePath.c_str(), TokenVector[DESCPET_TOKEN_TYPE_ICON_NAME].c_str());

  001f0	51		 push	 ecx
; File C:\Program Files\Microsoft Visual Studio\2022\Community\VC\Tools\MSVC\14.34.31933\include\xstring

; 2293 :         if (_Large_string_engaged()) {

  001f1	0f 43 05 00 00
	00 00		 cmovae	 eax, DWORD PTR ?g_strImagePath@@3V?$basic_string@DU?$char_traits@D@std@@V?$allocator@D@2@@std@@A
; File E:\Metin2_server\SolWayneSF v6\ClientVS22\source\UserInterface\PythonSkillPet.cpp

; 74   : 		_snprintf(szIconFileNameHeader, sizeof(szIconFileNameHeader), "%sskill/pet/%s.sub", g_strImagePath.c_str(), TokenVector[DESCPET_TOKEN_TYPE_ICON_NAME].c_str());

  001f8	50		 push	 eax
  001f9	68 00 00 00 00	 push	 OFFSET ??_C@_0BD@HAGHPHEE@?$CFsskill?1pet?1?$CFs?4sub@
  001fe	8d 45 ac	 lea	 eax, DWORD PTR _szIconFileNameHeader$6[ebp]
  00201	6a 41		 push	 65			; 00000041H
  00203	50		 push	 eax
  00204	e8 00 00 00 00	 call	 __snprintf
; File C:\Program Files\Microsoft Visual Studio\2022\Community\VC\Tools\MSVC\14.34.31933\include\xstring

; 415  :             return __builtin_strlen(_First);

  00209	8d 4d ac	 lea	 ecx, DWORD PTR _szIconFileNameHeader$6[ebp]
; File E:\Metin2_server\SolWayneSF v6\ClientVS22\source\UserInterface\PythonSkillPet.cpp

; 74   : 		_snprintf(szIconFileNameHeader, sizeof(szIconFileNameHeader), "%sskill/pet/%s.sub", g_strImagePath.c_str(), TokenVector[DESCPET_TOKEN_TYPE_ICON_NAME].c_str());

  0020c	83 c4 14	 add	 esp, 20			; 00000014H
; File C:\Program Files\Microsoft Visual Studio\2022\Community\VC\Tools\MSVC\14.34.31933\include\xstring

; 415  :             return __builtin_strlen(_First);

  0020f	8d 51 01	 lea	 edx, DWORD PTR [ecx+1]
$LL421@RegisterSk:
  00212	8a 01		 mov	 al, BYTE PTR [ecx]
  00214	41		 inc	 ecx
  00215	84 c0		 test	 al, al
  00217	75 f9		 jne	 SHORT $LL421@RegisterSk
  00219	2b ca		 sub	 ecx, edx

; 3546 :         return assign(_Ptr, _Convert_size<size_type>(_Traits::length(_Ptr)));

  0021b	8d 45 ac	 lea	 eax, DWORD PTR _szIconFileNameHeader$6[ebp]
  0021e	51		 push	 ecx
  0021f	50		 push	 eax
; File E:\Metin2_server\SolWayneSF v6\ClientVS22\source\UserInterface\PythonSkillPet.cpp

; 76   : 		rSkillData.strIconFileName = szIconFileNameHeader;

  00220	8d 4b 1c	 lea	 ecx, DWORD PTR [ebx+28]
; File C:\Program Files\Microsoft Visual Studio\2022\Community\VC\Tools\MSVC\14.34.31933\include\xstring

; 3546 :         return assign(_Ptr, _Convert_size<size_type>(_Traits::length(_Ptr)));

  00223	e8 00 00 00 00	 call	 ?assign@?$basic_string@DU?$char_traits@D@std@@V?$allocator@D@2@@std@@QAEAAV12@QBDI@Z ; std::basic_string<char,std::char_traits<char>,std::allocator<char> >::assign
; File C:\Program Files\Microsoft Visual Studio\2022\Community\VC\Tools\MSVC\14.34.31933\include\xtree

; 1126 :         return iterator(_Scary->_Myhead->_Left, _Scary);

  00228	8b 47 18	 mov	 eax, DWORD PTR [edi+24]

; 38   :     _Tree_unchecked_const_iterator(_Nodeptr _Pnode, const _Mytree* _Plist) noexcept : _Ptr(_Pnode) {

  0022b	8b 30		 mov	 esi, DWORD PTR [eax]
  0022d	3b f0		 cmp	 esi, eax
; File E:\Metin2_server\SolWayneSF v6\ClientVS22\source\UserInterface\PythonSkillPet.cpp

; 80   : 		for(; itor != m_SkillPetTypeIndexMap.end(); ++itor){

  0022f	0f 84 96 00 00
	00		 je	 $LN422@RegisterSk
  00235	66 66 66 0f 1f
	84 00 00 00 00
	00		 npad	 11
$LL42@RegisterSk:
; File C:\Program Files\Microsoft Visual Studio\2022\Community\VC\Tools\MSVC\14.34.31933\include\vector

; 1952 :         return _My_data._Myfirst[_Pos];

  00240	8b 85 a4 fd ff
	ff		 mov	 eax, DWORD PTR _TokenVector$[ebp]
; File C:\Program Files\Microsoft Visual Studio\2022\Community\VC\Tools\MSVC\14.34.31933\include\xtree

; 186  :         return this->_Ptr->_Myval;

  00246	8d 4e 10	 lea	 ecx, DWORD PTR [esi+16]
; File C:\Program Files\Microsoft Visual Studio\2022\Community\VC\Tools\MSVC\14.34.31933\include\xstring

; 4792 :         return _Traits_compare<_Traits>(_Mypair._Myval2._Myptr(), _Mypair._Myval2._Mysize,

  00249	8b 79 10	 mov	 edi, DWORD PTR [ecx+16]
; File C:\Program Files\Microsoft Visual Studio\2022\Community\VC\Tools\MSVC\14.34.31933\include\vector

; 1952 :         return _My_data._Myfirst[_Pos];

  0024c	83 c0 48	 add	 eax, 72			; 00000048H
; File C:\Program Files\Microsoft Visual Studio\2022\Community\VC\Tools\MSVC\14.34.31933\include\xstring

; 2301 :         return _BUF_SIZE <= _Myres;

  0024f	83 79 14 10	 cmp	 DWORD PTR [ecx+20], 16	; 00000010H

; 2293 :         if (_Large_string_engaged()) {

  00253	72 02		 jb	 SHORT $LN59@RegisterSk

; 2294 :             _Result = _Unfancy(_Bx._Ptr);

  00255	8b 09		 mov	 ecx, DWORD PTR [ecx]
$LN59@RegisterSk:

; 2301 :         return _BUF_SIZE <= _Myres;

  00257	83 78 14 10	 cmp	 DWORD PTR [eax+20], 16	; 00000010H

; 4792 :         return _Traits_compare<_Traits>(_Mypair._Myval2._Myptr(), _Mypair._Myval2._Mysize,

  0025b	8b 50 10	 mov	 edx, DWORD PTR [eax+16]

; 2293 :         if (_Large_string_engaged()) {

  0025e	72 02		 jb	 SHORT $LN64@RegisterSk

; 2294 :             _Result = _Unfancy(_Bx._Ptr);

  00260	8b 00		 mov	 eax, DWORD PTR [eax]
$LN64@RegisterSk:

; 4792 :         return _Traits_compare<_Traits>(_Mypair._Myval2._Myptr(), _Mypair._Myval2._Mysize,

  00262	57		 push	 edi
  00263	51		 push	 ecx
  00264	52		 push	 edx
  00265	50		 push	 eax
  00266	e8 00 00 00 00	 call	 ??$_Traits_compare@U?$char_traits@D@std@@@std@@YAHQBDI0I@Z ; std::_Traits_compare<std::char_traits<char> >
  0026b	83 c4 10	 add	 esp, 16			; 00000010H
; File E:\Metin2_server\SolWayneSF v6\ClientVS22\source\UserInterface\PythonSkillPet.cpp

; 81   : 			if (TokenVector[DESCPET_TOKEN_TYPE].compare(itor->first) == 0)

  0026e	85 c0		 test	 eax, eax
  00270	75 06		 jne	 SHORT $LN5@RegisterSk

; 82   : 					rSkillData.byType = itor->second;

  00272	8a 46 28	 mov	 al, BYTE PTR [esi+40]
  00275	88 43 34	 mov	 BYTE PTR [ebx+52], al
$LN5@RegisterSk:
; File C:\Program Files\Microsoft Visual Studio\2022\Community\VC\Tools\MSVC\14.34.31933\include\xtree

; 51   :         if (_Ptr->_Right->_Isnil) { // climb looking for right subtree

  00278	8b 46 08	 mov	 eax, DWORD PTR [esi+8]
  0027b	80 78 0d 00	 cmp	 BYTE PTR [eax+13], 0
  0027f	74 23		 je	 SHORT $LN41@RegisterSk

; 52   :             _Nodeptr _Pnode;
; 53   :             while (!(_Pnode = _Ptr->_Parent)->_Isnil && _Ptr == _Pnode->_Right) {

  00281	8b 46 04	 mov	 eax, DWORD PTR [esi+4]
  00284	80 78 0d 00	 cmp	 BYTE PTR [eax+13], 0
  00288	75 16		 jne	 SHORT $LN40@RegisterSk
  0028a	66 0f 1f 44 00
	00		 npad	 6
$LL39@RegisterSk:
  00290	3b 70 08	 cmp	 esi, DWORD PTR [eax+8]
  00293	75 0b		 jne	 SHORT $LN40@RegisterSk

; 54   :                 _Ptr = _Pnode; // ==> parent while right subtree

  00295	8b f0		 mov	 esi, eax
  00297	8b 40 04	 mov	 eax, DWORD PTR [eax+4]
  0029a	80 78 0d 00	 cmp	 BYTE PTR [eax+13], 0
  0029e	74 f0		 je	 SHORT $LL39@RegisterSk
$LN40@RegisterSk:

; 55   :             }
; 56   : 
; 57   :             _Ptr = _Pnode; // ==> parent (head if end())

  002a0	8b f0		 mov	 esi, eax

; 58   :         } else {

  002a2	eb 18		 jmp	 SHORT $LN411@RegisterSk
$LN41@RegisterSk:

; 59   :             _Ptr = _Mytree::_Min(_Ptr->_Right); // ==> smallest of right subtree

  002a4	8b f0		 mov	 esi, eax

; 453  :         while (!_Pnode->_Left->_Isnil) {

  002a6	8b 0e		 mov	 ecx, DWORD PTR [esi]
  002a8	80 79 0d 00	 cmp	 BYTE PTR [ecx+13], 0
  002ac	75 0e		 jne	 SHORT $LN411@RegisterSk
  002ae	66 90		 npad	 2
$LL45@RegisterSk:
  002b0	8b 01		 mov	 eax, DWORD PTR [ecx]

; 454  :             _Pnode = _Pnode->_Left;

  002b2	8b f1		 mov	 esi, ecx
  002b4	8b c8		 mov	 ecx, eax
  002b6	80 78 0d 00	 cmp	 BYTE PTR [eax+13], 0
  002ba	74 f4		 je	 SHORT $LL45@RegisterSk
$LN411@RegisterSk:

; 233  :         return this->_Ptr == _Right._Ptr;

  002bc	8b bd 98 fd ff
	ff		 mov	 edi, DWORD PTR _this$GSCopy$1$[ebp]
  002c2	3b 77 18	 cmp	 esi, DWORD PTR [edi+24]
; File E:\Metin2_server\SolWayneSF v6\ClientVS22\source\UserInterface\PythonSkillPet.cpp

; 80   : 		for(; itor != m_SkillPetTypeIndexMap.end(); ++itor){

  002c5	0f 85 75 ff ff
	ff		 jne	 $LL42@RegisterSk
$LN422@RegisterSk:
; File C:\Program Files\Microsoft Visual Studio\2022\Community\VC\Tools\MSVC\14.34.31933\include\vector

; 1952 :         return _My_data._Myfirst[_Pos];

  002cb	8b 85 a4 fd ff
	ff		 mov	 eax, DWORD PTR _TokenVector$[ebp]
; File E:\Metin2_server\SolWayneSF v6\ClientVS22\source\UserInterface\PythonSkillPet.cpp

; 84   : 		rSkillData.strDescription = TokenVector[DESCPET_TOKEN_TYPE_DESCRIPTION];

  002d1	8d 4b 38	 lea	 ecx, DWORD PTR [ebx+56]
; File C:\Program Files\Microsoft Visual Studio\2022\Community\VC\Tools\MSVC\14.34.31933\include\vector

; 1952 :         return _My_data._Myfirst[_Pos];

  002d4	83 c0 60	 add	 eax, 96			; 00000060H
; File C:\Program Files\Microsoft Visual Studio\2022\Community\VC\Tools\MSVC\14.34.31933\include\xstring

; 3303 :         if (this == _STD addressof(_Right)) {

  002d7	3b c8		 cmp	 ecx, eax
  002d9	74 12		 je	 SHORT $LN70@RegisterSk

; 2301 :         return _BUF_SIZE <= _Myres;

  002db	83 78 14 10	 cmp	 DWORD PTR [eax+20], 16	; 00000010H

; 3343 :         assign(_Right._Mypair._Myval2._Myptr(), _Right._Mypair._Myval2._Mysize);

  002df	8b 50 10	 mov	 edx, DWORD PTR [eax+16]

; 2293 :         if (_Large_string_engaged()) {

  002e2	72 02		 jb	 SHORT $LN74@RegisterSk

; 2294 :             _Result = _Unfancy(_Bx._Ptr);

  002e4	8b 00		 mov	 eax, DWORD PTR [eax]
$LN74@RegisterSk:

; 3343 :         assign(_Right._Mypair._Myval2._Myptr(), _Right._Mypair._Myval2._Mysize);

  002e6	52		 push	 edx
  002e7	50		 push	 eax
  002e8	e8 00 00 00 00	 call	 ?assign@?$basic_string@DU?$char_traits@D@std@@V?$allocator@D@2@@std@@QAEAAV12@QBDI@Z ; std::basic_string<char,std::char_traits<char>,std::allocator<char> >::assign
$LN70@RegisterSk:
; File C:\Program Files\Microsoft Visual Studio\2022\Community\VC\Tools\MSVC\14.34.31933\include\vector

; 1952 :         return _My_data._Myfirst[_Pos];

  002ed	8b 85 a4 fd ff
	ff		 mov	 eax, DWORD PTR _TokenVector$[ebp]
  002f3	83 c0 78	 add	 eax, 120		; 00000078H
; File C:\Program Files\Microsoft Visual Studio\2022\Community\VC\Tools\MSVC\14.34.31933\include\xstring

; 2301 :         return _BUF_SIZE <= _Myres;

  002f6	83 78 14 10	 cmp	 DWORD PTR [eax+20], 16	; 00000010H

; 2293 :         if (_Large_string_engaged()) {

  002fa	72 02		 jb	 SHORT $LN83@RegisterSk

; 2294 :             _Result = _Unfancy(_Bx._Ptr);

  002fc	8b 00		 mov	 eax, DWORD PTR [eax]
$LN83@RegisterSk:
; File E:\Metin2_server\SolWayneSF v6\ClientVS22\source\UserInterface\PythonSkillPet.cpp

; 85   : 		rSkillData.dwskilldelay = atoi(TokenVector[DESCPET_TOKEN_TYPE_DELAY].c_str());

  002fe	50		 push	 eax
  002ff	e8 00 00 00 00	 call	 __atoi64
  00304	83 c4 04	 add	 esp, 4
  00307	89 43 50	 mov	 DWORD PTR [ebx+80], eax

; 86   : 
; 87   : 		
; 88   : 		rSkillData.pImage = (CGraphicImage *)CResourceManager::Instance().GetResourcePointer(szIconFileNameHeader);			

  0030a	8b 0d 00 00 00
	00		 mov	 ecx, DWORD PTR ?ms_singleton@?$CSingleton@VCResourceManager@@@@0PAVCResourceManager@@A ; CSingleton<CResourceManager>::ms_singleton
  00310	8d 45 ac	 lea	 eax, DWORD PTR _szIconFileNameHeader$6[ebp]
  00313	50		 push	 eax
  00314	e8 00 00 00 00	 call	 ?GetResourcePointer@CResourceManager@@QAEPAVCResource@@PBD@Z ; CResourceManager::GetResourcePointer
  00319	89 43 54	 mov	 DWORD PTR [ebx+84], eax
  0031c	8b 9d a0 fd ff
	ff		 mov	 ebx, DWORD PTR _i$1$[ebp]
$LN2@RegisterSk:

; 24   : 	for (DWORD i = 0; i < textFileLoader.GetLineCount()-1; ++i)

  00322	43		 inc	 ebx
  00323	8d 8d 88 fd ff
	ff		 lea	 ecx, DWORD PTR _textFileLoader$[ebp]
  00329	89 9d a0 fd ff
	ff		 mov	 DWORD PTR _i$1$[ebp], ebx
  0032f	e8 00 00 00 00	 call	 ?GetLineCount@CMemoryTextFileLoader@@QAEKXZ ; CMemoryTextFileLoader::GetLineCount
  00334	48		 dec	 eax
  00335	3b d8		 cmp	 ebx, eax
  00337	0f 82 a3 fd ff
	ff		 jb	 $LL4@RegisterSk
$LN3@RegisterSk:

; 92   : 	return true;

  0033d	b3 01		 mov	 bl, 1
$LN21@RegisterSk:
; File C:\Program Files\Microsoft Visual Studio\2022\Community\VC\Tools\MSVC\14.34.31933\include\vector

; 830  :         _Tidy();

  0033f	8d 8d a4 fd ff
	ff		 lea	 ecx, DWORD PTR _TokenVector$[ebp]
  00345	e8 00 00 00 00	 call	 ?_Tidy@?$vector@V?$basic_string@DU?$char_traits@D@std@@V?$allocator@D@2@@std@@V?$allocator@V?$basic_string@DU?$char_traits@D@std@@V?$allocator@D@2@@std@@@2@@std@@AAEXXZ ; std::vector<std::basic_string<char,std::char_traits<char>,std::allocator<char> >,std::allocator<std::basic_string<char,std::char_traits<char>,std::allocator<char> > > >::_Tidy
; File E:\Metin2_server\SolWayneSF v6\ClientVS22\source\UserInterface\PythonSkillPet.cpp

; 92   : 	return true;

  0034a	8d 8d 88 fd ff
	ff		 lea	 ecx, DWORD PTR _textFileLoader$[ebp]
  00350	e8 00 00 00 00	 call	 ??1CMemoryTextFileLoader@@UAE@XZ ; CMemoryTextFileLoader::~CMemoryTextFileLoader
$LN19@RegisterSk:
  00355	8d 8d b4 fd ff
	ff		 lea	 ecx, DWORD PTR _kFile$[ebp]
  0035b	e8 00 00 00 00	 call	 ??1CMappedFile@@UAE@XZ	; CMappedFile::~CMappedFile
  00360	8a c3		 mov	 al, bl

; 93   : }

  00362	8b 4d f4	 mov	 ecx, DWORD PTR __$EHRec$[ebp]
  00365	64 89 0d 00 00
	00 00		 mov	 DWORD PTR fs:0, ecx
  0036c	59		 pop	 ecx
  0036d	5f		 pop	 edi
  0036e	5e		 pop	 esi
  0036f	5b		 pop	 ebx
  00370	8b 4d f0	 mov	 ecx, DWORD PTR __$ArrayPad$[ebp]
  00373	33 cd		 xor	 ecx, ebp
  00375	e8 00 00 00 00	 call	 @__security_check_cookie@4
  0037a	8b e5		 mov	 esp, ebp
  0037c	5d		 pop	 ebp
  0037d	c2 04 00	 ret	 4
$LN408@RegisterSk:
  00380	32 db		 xor	 bl, bl
  00382	eb bb		 jmp	 SHORT $LN21@RegisterSk
_TEXT	ENDS
;	COMDAT text$x
text$x	SEGMENT
__unwindfunclet$?RegisterSkillPet@CPythonSkillPet@@QAE_NPBD@Z$0:
  00000	8d 8d b4 fd ff
	ff		 lea	 ecx, DWORD PTR _kFile$[ebp]
  00006	e9 00 00 00 00	 jmp	 ??1CMappedFile@@UAE@XZ	; CMappedFile::~CMappedFile
__unwindfunclet$?RegisterSkillPet@CPythonSkillPet@@QAE_NPBD@Z$1:
  0000b	8d 8d 88 fd ff
	ff		 lea	 ecx, DWORD PTR _textFileLoader$[ebp]
  00011	e9 00 00 00 00	 jmp	 ??1CMemoryTextFileLoader@@UAE@XZ ; CMemoryTextFileLoader::~CMemoryTextFileLoader
__unwindfunclet$?RegisterSkillPet@CPythonSkillPet@@QAE_NPBD@Z$2:
  00016	8d 8d a4 fd ff
	ff		 lea	 ecx, DWORD PTR _TokenVector$[ebp]
  0001c	e9 00 00 00 00	 jmp	 ??1?$vector@V?$basic_string@DU?$char_traits@D@std@@V?$allocator@D@2@@std@@V?$allocator@V?$basic_string@DU?$char_traits@D@std@@V?$allocator@D@2@@std@@@2@@std@@QAE@XZ ; std::vector<std::basic_string<char,std::char_traits<char>,std::allocator<char> >,std::allocator<std::basic_string<char,std::char_traits<char>,std::allocator<char> > > >::~vector<std::basic_string<char,std::char_traits<char>,std::allocator<char> >,std::allocator<std::basic_string<char,std::char_traits<char>,std::allocator<char> > > >
__unwindfunclet$?RegisterSkillPet@CPythonSkillPet@@QAE_NPBD@Z$3:
  00021	8d 8d f8 fe ff
	ff		 lea	 ecx, DWORD PTR $T4[ebp]
  00027	e9 00 00 00 00	 jmp	 ??1SSkillDataPet@CPythonSkillPet@@QAE@XZ
__unwindfunclet$?RegisterSkillPet@CPythonSkillPet@@QAE_NPBD@Z$4:
  0002c	8d 8d 50 ff ff
	ff		 lea	 ecx, DWORD PTR $T5[ebp]
  00032	e9 00 00 00 00	 jmp	 ??1?$pair@KUSSkillDataPet@CPythonSkillPet@@@std@@QAE@XZ
  00037	cc		 int	 3
  00038	cc		 int	 3
  00039	cc		 int	 3
  0003a	cc		 int	 3
  0003b	cc		 int	 3
__ehhandler$?RegisterSkillPet@CPythonSkillPet@@QAE_NPBD@Z:
  0003c	90		 npad	 1
  0003d	90		 npad	 1
  0003e	8b 54 24 08	 mov	 edx, DWORD PTR [esp+8]
  00042	8d 42 0c	 lea	 eax, DWORD PTR [edx+12]
  00045	8b 8a 7c fd ff
	ff		 mov	 ecx, DWORD PTR [edx-644]
  0004b	33 c8		 xor	 ecx, eax
  0004d	e8 00 00 00 00	 call	 @__security_check_cookie@4
  00052	8b 4a fc	 mov	 ecx, DWORD PTR [edx-4]
  00055	33 c8		 xor	 ecx, eax
  00057	e8 00 00 00 00	 call	 @__security_check_cookie@4
  0005c	b8 00 00 00 00	 mov	 eax, OFFSET __ehfuncinfo$?RegisterSkillPet@CPythonSkillPet@@QAE_NPBD@Z
  00061	e9 00 00 00 00	 jmp	 ___CxxFrameHandler3
text$x	ENDS
?RegisterSkillPet@CPythonSkillPet@@QAE_NPBD@Z ENDP	; CPythonSkillPet::RegisterSkillPet
; Function compile flags: /Ogtp
; File E:\Metin2_server\SolWayneSF v6\ClientVS22\source\UserInterface\PythonSkillPet.cpp
; File C:\Program Files\Microsoft Visual Studio\2022\Community\VC\Tools\MSVC\14.34.31933\include\xtree
; File E:\Metin2_server\SolWayneSF v6\ClientVS22\source\UserInterface\PythonSkillPet.cpp
; File C:\Program Files\Microsoft Visual Studio\2022\Community\VC\Tools\MSVC\14.34.31933\include\xtree
; File E:\Metin2_server\SolWayneSF v6\ClientVS22\source\UserInterface\PythonSkillPet.cpp
;	COMDAT ?Destroy@CPythonSkillPet@@QAEXXZ
_TEXT	SEGMENT
?Destroy@CPythonSkillPet@@QAEXXZ PROC			; CPythonSkillPet::Destroy, COMDAT
; _this$ = ecx

; 105  : {

  00000	56		 push	 esi
; File C:\Program Files\Microsoft Visual Studio\2022\Community\VC\Tools\MSVC\14.34.31933\include\xtree

; 1356 :         auto _Head = _Scary->_Myhead;

  00001	8b 71 10	 mov	 esi, DWORD PTR [ecx+16]
; File E:\Metin2_server\SolWayneSF v6\ClientVS22\source\UserInterface\PythonSkillPet.cpp

; 105  : {

  00004	57		 push	 edi

; 106  : 	
; 107  : 	m_SkillDataPetMap.clear();	

  00005	8d 79 10	 lea	 edi, DWORD PTR [ecx+16]
; File C:\Program Files\Microsoft Visual Studio\2022\Community\VC\Tools\MSVC\14.34.31933\include\xtree

; 1357 :         _Scary->_Erase_tree(_Getal(), _Head->_Parent);

  00008	8b cf		 mov	 ecx, edi
  0000a	ff 76 04	 push	 DWORD PTR [esi+4]
  0000d	57		 push	 edi
  0000e	e8 00 00 00 00	 call	 ??$_Erase_tree@V?$allocator@U?$_Tree_node@U?$pair@$$CBKUSSkillDataPet@CPythonSkillPet@@@std@@PAX@std@@@std@@@?$_Tree_val@U?$_Tree_simple_types@U?$pair@$$CBKUSSkillDataPet@CPythonSkillPet@@@std@@@std@@@std@@QAEXAAV?$allocator@U?$_Tree_node@U?$pair@$$CBKUSSkillDataPet@CPythonSkillPet@@@std@@PAX@std@@@1@PAU?$_Tree_node@U?$pair@$$CBKUSSkillDataPet@CPythonSkillPet@@@std@@PAX@1@@Z ; std::_Tree_val<std::_Tree_simple_types<std::pair<unsigned long const ,CPythonSkillPet::SSkillDataPet> > >::_Erase_tree<std::allocator<std::_Tree_node<std::pair<unsigned long const ,CPythonSkillPet::SSkillDataPet>,void *> > >

; 1358 :         _Head->_Parent  = _Head;

  00013	89 76 04	 mov	 DWORD PTR [esi+4], esi

; 1359 :         _Head->_Left    = _Head;

  00016	89 36		 mov	 DWORD PTR [esi], esi

; 1360 :         _Head->_Right   = _Head;

  00018	89 76 08	 mov	 DWORD PTR [esi+8], esi

; 1361 :         _Scary->_Mysize = 0;

  0001b	c7 47 04 00 00
	00 00		 mov	 DWORD PTR [edi+4], 0
  00022	5f		 pop	 edi
  00023	5e		 pop	 esi
; File E:\Metin2_server\SolWayneSF v6\ClientVS22\source\UserInterface\PythonSkillPet.cpp

; 108  : }

  00024	c3		 ret	 0
?Destroy@CPythonSkillPet@@QAEXXZ ENDP			; CPythonSkillPet::Destroy
_TEXT	ENDS
; Function compile flags: /Ogtp
; File E:\Metin2_server\SolWayneSF v6\ClientVS22\source\UserInterface\PythonSkillPet.cpp
; File C:\Program Files\Microsoft Visual Studio\2022\Community\VC\Tools\MSVC\14.34.31933\include\xtree
; File E:\Metin2_server\SolWayneSF v6\ClientVS22\source\UserInterface\PythonSkillPet.cpp
; File C:\Program Files\Microsoft Visual Studio\2022\Community\VC\Tools\MSVC\14.34.31933\include\xtree
; File C:\Program Files\Microsoft Visual Studio\2022\Community\VC\Tools\MSVC\14.34.31933\include\xmemory
; File C:\Program Files\Microsoft Visual Studio\2022\Community\VC\Tools\MSVC\14.34.31933\include\xtree
; File E:\Metin2_server\SolWayneSF v6\ClientVS22\source\UserInterface\PythonSkillPet.cpp
; File C:\Program Files\Microsoft Visual Studio\2022\Community\VC\Tools\MSVC\14.34.31933\include\xmemory
; File C:\Program Files\Microsoft Visual Studio\2022\Community\VC\Tools\MSVC\14.34.31933\include\xtree
; File C:\Program Files\Microsoft Visual Studio\2022\Community\VC\Tools\MSVC\14.34.31933\include\xmemory
; File E:\Metin2_server\SolWayneSF v6\ClientVS22\source\eterBase\Singleton.h
; File E:\Metin2_server\SolWayneSF v6\ClientVS22\source\UserInterface\PythonSkillPet.cpp
;	COMDAT ??1CPythonSkillPet@@UAE@XZ
_TEXT	SEGMENT
??1CPythonSkillPet@@UAE@XZ PROC				; CPythonSkillPet::~CPythonSkillPet, COMDAT
; _this$ = ecx

; 148  : {

  00000	56		 push	 esi
  00001	57		 push	 edi
  00002	8b f9		 mov	 edi, ecx

; 149  : }

  00004	8d 77 18	 lea	 esi, DWORD PTR [edi+24]
; File C:\Program Files\Microsoft Visual Studio\2022\Community\VC\Tools\MSVC\14.34.31933\include\xtree

; 754  :         _Erase_tree(_Al, _Myhead->_Parent);

  00007	8b ce		 mov	 ecx, esi
; File E:\Metin2_server\SolWayneSF v6\ClientVS22\source\UserInterface\PythonSkillPet.cpp

; 148  : {

  00009	c7 07 00 00 00
	00		 mov	 DWORD PTR [edi], OFFSET ??_7CPythonSkillPet@@6B@
; File C:\Program Files\Microsoft Visual Studio\2022\Community\VC\Tools\MSVC\14.34.31933\include\xtree

; 754  :         _Erase_tree(_Al, _Myhead->_Parent);

  0000f	8b 06		 mov	 eax, DWORD PTR [esi]
  00011	ff 70 04	 push	 DWORD PTR [eax+4]
  00014	56		 push	 esi
  00015	e8 00 00 00 00	 call	 ??$_Erase_tree@V?$allocator@U?$_Tree_node@U?$pair@$$CBV?$basic_string@DU?$char_traits@D@std@@V?$allocator@D@2@@std@@K@std@@PAX@std@@@std@@@?$_Tree_val@U?$_Tree_simple_types@U?$pair@$$CBV?$basic_string@DU?$char_traits@D@std@@V?$allocator@D@2@@std@@K@std@@@std@@@std@@QAEXAAV?$allocator@U?$_Tree_node@U?$pair@$$CBV?$basic_string@DU?$char_traits@D@std@@V?$allocator@D@2@@std@@K@std@@PAX@std@@@1@PAU?$_Tree_node@U?$pair@$$CBV?$basic_string@DU?$char_traits@D@std@@V?$allocator@D@2@@std@@K@std@@PAX@1@@Z ; std::_Tree_val<std::_Tree_simple_types<std::pair<std::basic_string<char,std::char_traits<char>,std::allocator<char> > const ,unsigned long> > >::_Erase_tree<std::allocator<std::_Tree_node<std::pair<std::basic_string<char,std::char_traits<char>,std::allocator<char> > const ,unsigned long>,void *> > >
; File C:\Program Files\Microsoft Visual Studio\2022\Community\VC\Tools\MSVC\14.34.31933\include\xmemory

; 255  :         ::operator delete(_Ptr, _Bytes);

  0001a	6a 2c		 push	 44			; 0000002cH
  0001c	ff 36		 push	 DWORD PTR [esi]
  0001e	e8 00 00 00 00	 call	 ??3@YAXPAXI@Z		; operator delete
; File C:\Program Files\Microsoft Visual Studio\2022\Community\VC\Tools\MSVC\14.34.31933\include\xtree

; 754  :         _Erase_tree(_Al, _Myhead->_Parent);

  00023	8b 47 10	 mov	 eax, DWORD PTR [edi+16]
; File E:\Metin2_server\SolWayneSF v6\ClientVS22\source\UserInterface\PythonSkillPet.cpp

; 149  : }

  00026	8d 77 10	 lea	 esi, DWORD PTR [edi+16]
; File C:\Program Files\Microsoft Visual Studio\2022\Community\VC\Tools\MSVC\14.34.31933\include\xmemory

; 255  :         ::operator delete(_Ptr, _Bytes);

  00029	83 c4 08	 add	 esp, 8
; File C:\Program Files\Microsoft Visual Studio\2022\Community\VC\Tools\MSVC\14.34.31933\include\xtree

; 754  :         _Erase_tree(_Al, _Myhead->_Parent);

  0002c	8b ce		 mov	 ecx, esi
  0002e	ff 70 04	 push	 DWORD PTR [eax+4]
  00031	56		 push	 esi
  00032	e8 00 00 00 00	 call	 ??$_Erase_tree@V?$allocator@U?$_Tree_node@U?$pair@$$CBKUSSkillDataPet@CPythonSkillPet@@@std@@PAX@std@@@std@@@?$_Tree_val@U?$_Tree_simple_types@U?$pair@$$CBKUSSkillDataPet@CPythonSkillPet@@@std@@@std@@@std@@QAEXAAV?$allocator@U?$_Tree_node@U?$pair@$$CBKUSSkillDataPet@CPythonSkillPet@@@std@@PAX@std@@@1@PAU?$_Tree_node@U?$pair@$$CBKUSSkillDataPet@CPythonSkillPet@@@std@@PAX@1@@Z ; std::_Tree_val<std::_Tree_simple_types<std::pair<unsigned long const ,CPythonSkillPet::SSkillDataPet> > >::_Erase_tree<std::allocator<std::_Tree_node<std::pair<unsigned long const ,CPythonSkillPet::SSkillDataPet>,void *> > >
; File C:\Program Files\Microsoft Visual Studio\2022\Community\VC\Tools\MSVC\14.34.31933\include\xmemory

; 255  :         ::operator delete(_Ptr, _Bytes);

  00037	6a 6c		 push	 108			; 0000006cH
  00039	ff 36		 push	 DWORD PTR [esi]
  0003b	e8 00 00 00 00	 call	 ??3@YAXPAXI@Z		; operator delete
  00040	83 c4 08	 add	 esp, 8
; File E:\Metin2_server\SolWayneSF v6\ClientVS22\source\eterBase\Singleton.h

; 19   : 	{ 

  00043	c7 07 00 00 00
	00		 mov	 DWORD PTR [edi], OFFSET ??_7?$CSingleton@VCPythonSkillPet@@@@6B@

; 20   : 		assert(ms_singleton);
; 21   : 		ms_singleton = 0; 

  00049	c7 05 00 00 00
	00 00 00 00 00	 mov	 DWORD PTR ?ms_singleton@?$CSingleton@VCPythonSkillPet@@@@0PAVCPythonSkillPet@@A, 0 ; CSingleton<CPythonSkillPet>::ms_singleton
  00053	5f		 pop	 edi
  00054	5e		 pop	 esi
; File E:\Metin2_server\SolWayneSF v6\ClientVS22\source\UserInterface\PythonSkillPet.cpp

; 149  : }

  00055	c3		 ret	 0
??1CPythonSkillPet@@UAE@XZ ENDP				; CPythonSkillPet::~CPythonSkillPet
_TEXT	ENDS
; Function compile flags: /Ogtp
; File E:\Metin2_server\SolWayneSF v6\ClientVS22\source\UserInterface\PythonSkillPet.cpp
; File E:\Metin2_server\SolWayneSF v6\ClientVS22\source\eterBase\Singleton.h
; File E:\Metin2_server\SolWayneSF v6\ClientVS22\source\UserInterface\PythonSkillPet.cpp
; File C:\Program Files\Microsoft Visual Studio\2022\Community\VC\Tools\MSVC\14.34.31933\include\xmemory
; File C:\Program Files\Microsoft Visual Studio\2022\Community\VC\Tools\MSVC\14.34.31933\include\xtree
; File C:\Program Files\Microsoft Visual Studio\2022\Community\VC\Tools\MSVC\14.34.31933\include\xmemory
; File C:\Program Files\Microsoft Visual Studio\2022\Community\VC\Tools\MSVC\14.34.31933\include\xtree
; File E:\Metin2_server\SolWayneSF v6\ClientVS22\source\UserInterface\PythonSkillPet.cpp
; File C:\Program Files\Microsoft Visual Studio\2022\Community\VC\Tools\MSVC\14.34.31933\include\xmemory
; File C:\Program Files\Microsoft Visual Studio\2022\Community\VC\Tools\MSVC\14.34.31933\include\xtree
; File C:\Program Files\Microsoft Visual Studio\2022\Community\VC\Tools\MSVC\14.34.31933\include\xmemory
; File C:\Program Files\Microsoft Visual Studio\2022\Community\VC\Tools\MSVC\14.34.31933\include\xtree
; File E:\Metin2_server\SolWayneSF v6\ClientVS22\source\UserInterface\PythonSkillPet.cpp
; File C:\Program Files\Microsoft Visual Studio\2022\Community\VC\Tools\MSVC\14.34.31933\include\xstring
; File C:\Program Files\Microsoft Visual Studio\2022\Community\VC\Tools\MSVC\14.34.31933\include\utility
; File E:\Metin2_server\SolWayneSF v6\ClientVS22\source\UserInterface\PythonSkillPet.cpp
; File C:\Program Files\Microsoft Visual Studio\2022\Community\VC\Tools\MSVC\14.34.31933\include\xstring
; File C:\Program Files\Microsoft Visual Studio\2022\Community\VC\Tools\MSVC\14.34.31933\include\xmemory
; File C:\Program Files\Microsoft Visual Studio\2022\Community\VC\Tools\MSVC\14.34.31933\include\xstring
; File C:\Program Files\Microsoft Visual Studio\2022\Community\VC\Tools\MSVC\14.34.31933\include\xmemory
; File C:\Program Files\Microsoft Visual Studio\2022\Community\VC\Tools\MSVC\14.34.31933\include\xstring
; File C:\Program Files\Microsoft Visual Studio\2022\Community\VC\Tools\MSVC\14.34.31933\include\utility
; File E:\Metin2_server\SolWayneSF v6\ClientVS22\source\UserInterface\PythonSkillPet.cpp
; File C:\Program Files\Microsoft Visual Studio\2022\Community\VC\Tools\MSVC\14.34.31933\include\xstring
; File C:\Program Files\Microsoft Visual Studio\2022\Community\VC\Tools\MSVC\14.34.31933\include\xmemory
; File C:\Program Files\Microsoft Visual Studio\2022\Community\VC\Tools\MSVC\14.34.31933\include\xstring
; File C:\Program Files\Microsoft Visual Studio\2022\Community\VC\Tools\MSVC\14.34.31933\include\xmemory
; File C:\Program Files\Microsoft Visual Studio\2022\Community\VC\Tools\MSVC\14.34.31933\include\xstring
; File C:\Program Files\Microsoft Visual Studio\2022\Community\VC\Tools\MSVC\14.34.31933\include\utility
; File E:\Metin2_server\SolWayneSF v6\ClientVS22\source\UserInterface\PythonSkillPet.cpp
; File C:\Program Files\Microsoft Visual Studio\2022\Community\VC\Tools\MSVC\14.34.31933\include\xstring
; File C:\Program Files\Microsoft Visual Studio\2022\Community\VC\Tools\MSVC\14.34.31933\include\xmemory
; File C:\Program Files\Microsoft Visual Studio\2022\Community\VC\Tools\MSVC\14.34.31933\include\xstring
; File C:\Program Files\Microsoft Visual Studio\2022\Community\VC\Tools\MSVC\14.34.31933\include\xmemory
; File E:\Metin2_server\SolWayneSF v6\ClientVS22\source\UserInterface\PythonSkillPet.cpp
; File C:\Program Files\Microsoft Visual Studio\2022\Community\VC\Tools\MSVC\14.34.31933\include\xmemory
; File E:\Metin2_server\SolWayneSF v6\ClientVS22\source\UserInterface\PythonSkillPet.cpp
;	COMDAT ??0CPythonSkillPet@@QAE@XZ
_TEXT	SEGMENT
_this$GSCopy$ = -56					; size = 4
$T2 = -52						; size = 8
$T3 = -52						; size = 8
$T4 = -52						; size = 8
_this$ = -48						; size = 4
_this$ = -48						; size = 4
_this$ = -48						; size = 4
$T5 = -44						; size = 28
$T6 = -44						; size = 28
$T7 = -44						; size = 28
__$ArrayPad$ = -16					; size = 4
__$EHRec$ = -12						; size = 12
??0CPythonSkillPet@@QAE@XZ PROC				; CPythonSkillPet::CPythonSkillPet, COMDAT
; _this$ = ecx

; 125  : {

  00000	55		 push	 ebp
  00001	8b ec		 mov	 ebp, esp
  00003	6a ff		 push	 -1
  00005	68 00 00 00 00	 push	 __ehhandler$??0CPythonSkillPet@@QAE@XZ
  0000a	64 a1 00 00 00
	00		 mov	 eax, DWORD PTR fs:0
  00010	50		 push	 eax
  00011	83 ec 2c	 sub	 esp, 44			; 0000002cH
  00014	a1 00 00 00 00	 mov	 eax, DWORD PTR ___security_cookie
  00019	33 c5		 xor	 eax, ebp
  0001b	89 45 f0	 mov	 DWORD PTR __$ArrayPad$[ebp], eax
  0001e	56		 push	 esi
  0001f	57		 push	 edi
  00020	50		 push	 eax
  00021	8d 45 f4	 lea	 eax, DWORD PTR __$EHRec$[ebp]
  00024	64 a3 00 00 00
	00		 mov	 DWORD PTR fs:0, eax
  0002a	8b f9		 mov	 edi, ecx
  0002c	89 7d d0	 mov	 DWORD PTR _this$[ebp], edi
  0002f	89 7d c8	 mov	 DWORD PTR _this$GSCopy$[ebp], edi
; File E:\Metin2_server\SolWayneSF v6\ClientVS22\source\eterBase\Singleton.h

; 15   : 		ms_singleton = (T*) ((int) this + offset);

  00032	89 3d 00 00 00
	00		 mov	 DWORD PTR ?ms_singleton@?$CSingleton@VCPythonSkillPet@@@@0PAVCPythonSkillPet@@A, edi ; CSingleton<CPythonSkillPet>::ms_singleton
; File E:\Metin2_server\SolWayneSF v6\ClientVS22\source\UserInterface\PythonSkillPet.cpp

; 125  : {

  00038	c7 45 fc 00 00
	00 00		 mov	 DWORD PTR __$EHRec$[ebp+8], 0
  0003f	8d 77 10	 lea	 esi, DWORD PTR [edi+16]
  00042	c7 07 00 00 00
	00		 mov	 DWORD PTR [edi], OFFSET ??_7CPythonSkillPet@@6B@
  00048	89 75 d0	 mov	 DWORD PTR _this$[ebp], esi
; File C:\Program Files\Microsoft Visual Studio\2022\Community\VC\Tools\MSVC\14.34.31933\include\xmemory

; 77   :         return ::operator new(_Bytes);

  0004b	6a 6c		 push	 108			; 0000006cH
; File C:\Program Files\Microsoft Visual Studio\2022\Community\VC\Tools\MSVC\14.34.31933\include\xtree

; 437  :     _Tree_val() noexcept : _Myhead(), _Mysize(0) {}

  0004d	c7 06 00 00 00
	00		 mov	 DWORD PTR [esi], 0
  00053	c7 46 04 00 00
	00 00		 mov	 DWORD PTR [esi+4], 0
; File C:\Program Files\Microsoft Visual Studio\2022\Community\VC\Tools\MSVC\14.34.31933\include\xmemory

; 77   :         return ::operator new(_Bytes);

  0005a	e8 00 00 00 00	 call	 ??2@YAPAXI@Z		; operator new
; File C:\Program Files\Microsoft Visual Studio\2022\Community\VC\Tools\MSVC\14.34.31933\include\xtree

; 347  :         _Construct_in_place(_Pnode->_Left, _Pnode);

  0005f	89 00		 mov	 DWORD PTR [eax], eax

; 348  :         _Construct_in_place(_Pnode->_Parent, _Pnode);

  00061	89 40 04	 mov	 DWORD PTR [eax+4], eax

; 349  :         _Construct_in_place(_Pnode->_Right, _Pnode);

  00064	89 40 08	 mov	 DWORD PTR [eax+8], eax

; 350  :         _Pnode->_Color = _Black;

  00067	66 c7 40 0c 01
	01		 mov	 WORD PTR [eax+12], 257	; 00000101H

; 1941 :         _Scary->_Myhead = _Node::_Buyheadnode(_Getal());

  0006d	89 06		 mov	 DWORD PTR [esi], eax
; File E:\Metin2_server\SolWayneSF v6\ClientVS22\source\UserInterface\PythonSkillPet.cpp

; 125  : {

  0006f	c6 45 fc 01	 mov	 BYTE PTR __$EHRec$[ebp+8], 1
  00073	8d 77 18	 lea	 esi, DWORD PTR [edi+24]
  00076	89 75 d0	 mov	 DWORD PTR _this$[ebp], esi
; File C:\Program Files\Microsoft Visual Studio\2022\Community\VC\Tools\MSVC\14.34.31933\include\xmemory

; 77   :         return ::operator new(_Bytes);

  00079	6a 2c		 push	 44			; 0000002cH
; File C:\Program Files\Microsoft Visual Studio\2022\Community\VC\Tools\MSVC\14.34.31933\include\xtree

; 437  :     _Tree_val() noexcept : _Myhead(), _Mysize(0) {}

  0007b	c7 06 00 00 00
	00		 mov	 DWORD PTR [esi], 0
  00081	c7 46 04 00 00
	00 00		 mov	 DWORD PTR [esi+4], 0
; File C:\Program Files\Microsoft Visual Studio\2022\Community\VC\Tools\MSVC\14.34.31933\include\xmemory

; 77   :         return ::operator new(_Bytes);

  00088	e8 00 00 00 00	 call	 ??2@YAPAXI@Z		; operator new
  0008d	83 c4 08	 add	 esp, 8
; File C:\Program Files\Microsoft Visual Studio\2022\Community\VC\Tools\MSVC\14.34.31933\include\xtree

; 347  :         _Construct_in_place(_Pnode->_Left, _Pnode);

  00090	89 00		 mov	 DWORD PTR [eax], eax

; 348  :         _Construct_in_place(_Pnode->_Parent, _Pnode);

  00092	89 40 04	 mov	 DWORD PTR [eax+4], eax

; 349  :         _Construct_in_place(_Pnode->_Right, _Pnode);

  00095	89 40 08	 mov	 DWORD PTR [eax+8], eax

; 350  :         _Pnode->_Color = _Black;

  00098	66 c7 40 0c 01
	01		 mov	 WORD PTR [eax+12], 257	; 00000101H

; 1941 :         _Scary->_Myhead = _Node::_Buyheadnode(_Getal());

  0009e	89 06		 mov	 DWORD PTR [esi], eax
; File E:\Metin2_server\SolWayneSF v6\ClientVS22\source\UserInterface\PythonSkillPet.cpp

; 138  : 	petslot[0] = 0;

  000a0	c7 47 04 00 00
	00 00		 mov	 DWORD PTR [edi+4], 0
  000a7	0f 57 c0	 xorps	 xmm0, xmm0

; 139  : 	petslot[1] = 0;

  000aa	c7 47 08 00 00
	00 00		 mov	 DWORD PTR [edi+8], 0

; 140  : 	petslot[2] = 0;

  000b1	c7 47 0c 00 00
	00 00		 mov	 DWORD PTR [edi+12], 0
; File C:\Program Files\Microsoft Visual Studio\2022\Community\VC\Tools\MSVC\14.34.31933\include\xstring

; 117  :         _CSTD memmove(_First1, _First2, _Count * sizeof(_Elem));

  000b8	a1 00 00 00 00	 mov	 eax, DWORD PTR ??_C@_05HKAKDGKI@EMPTY@

; 2339 :         _CONSTEXPR20 _Bxty() noexcept : _Buf() {} // user-provided, for fancy pointers

  000bd	0f 11 45 d4	 movups	 XMMWORD PTR $T7[ebp], xmm0

; 117  :         _CSTD memmove(_First1, _First2, _Count * sizeof(_Elem));

  000c1	89 45 d4	 mov	 DWORD PTR $T7[ebp], eax
  000c4	a0 04 00 00 00	 mov	 al, BYTE PTR ??_C@_05HKAKDGKI@EMPTY@+4

; 2748 :             _My_data._Mysize = _Count;

  000c9	c7 45 e4 05 00
	00 00		 mov	 DWORD PTR $T7[ebp+16], 5

; 2749 :             _My_data._Myres  = _BUF_SIZE - 1;

  000d0	c7 45 e8 0f 00
	00 00		 mov	 DWORD PTR $T7[ebp+20], 15 ; 0000000fH

; 117  :         _CSTD memmove(_First1, _First2, _Count * sizeof(_Elem));

  000d7	88 45 d8	 mov	 BYTE PTR $T7[ebp+4], al
; File C:\Program Files\Microsoft Visual Studio\2022\Community\VC\Tools\MSVC\14.34.31933\include\utility

; 172  :         : first(_STD forward<_Other1>(_Val1)), second(_STD forward<_Other2>(_Val2)) {

  000da	c7 45 ec 00 00
	00 00		 mov	 DWORD PTR $T7[ebp+24], 0
; File E:\Metin2_server\SolWayneSF v6\ClientVS22\source\UserInterface\PythonSkillPet.cpp

; 142  : 	m_SkillPetTypeIndexMap.insert(std::map<std::string, DWORD>::value_type("EMPTY", SKILLPET_TYPE_NONE));

  000e1	8d 45 d4	 lea	 eax, DWORD PTR $T7[ebp]
  000e4	c6 45 fc 03	 mov	 BYTE PTR __$EHRec$[ebp+8], 3
  000e8	50		 push	 eax
  000e9	8d 45 cc	 lea	 eax, DWORD PTR $T4[ebp]
  000ec	8b ce		 mov	 ecx, esi
  000ee	50		 push	 eax
  000ef	e8 00 00 00 00	 call	 ??$insert@$0A@$0A@@?$_Tree@V?$_Tmap_traits@V?$basic_string@DU?$char_traits@D@std@@V?$allocator@D@2@@std@@KU?$less@V?$basic_string@DU?$char_traits@D@std@@V?$allocator@D@2@@std@@@2@V?$allocator@U?$pair@$$CBV?$basic_string@DU?$char_traits@D@std@@V?$allocator@D@2@@std@@K@std@@@2@$0A@@std@@@std@@QAE?AU?$pair@V?$_Tree_iterator@V?$_Tree_val@U?$_Tree_simple_types@U?$pair@$$CBV?$basic_string@DU?$char_traits@D@std@@V?$allocator@D@2@@std@@K@std@@@std@@@std@@@std@@_N@1@$$QAU?$pair@$$CBV?$basic_string@DU?$char_traits@D@std@@V?$allocator@D@2@@std@@K@1@@Z ; std::_Tree<std::_Tmap_traits<std::basic_string<char,std::char_traits<char>,std::allocator<char> >,unsigned long,std::less<std::basic_string<char,std::char_traits<char>,std::allocator<char> > >,std::allocator<std::pair<std::basic_string<char,std::char_traits<char>,std::allocator<char> > const ,unsigned long> >,0> >::insert<0,0>
  000f4	c6 45 fc 02	 mov	 BYTE PTR __$EHRec$[ebp+8], 2
; File C:\Program Files\Microsoft Visual Studio\2022\Community\VC\Tools\MSVC\14.34.31933\include\xstring

; 5008 :         if (_My_data._Large_string_engaged()) {

  000f8	8b 4d e8	 mov	 ecx, DWORD PTR $T7[ebp+20]
  000fb	83 f9 10	 cmp	 ecx, 16			; 00000010H
  000fe	72 2c		 jb	 SHORT $LN150@CPythonSki
; File C:\Program Files\Microsoft Visual Studio\2022\Community\VC\Tools\MSVC\14.34.31933\include\xmemory

; 830  :         _Deallocate<_New_alignof<_Ty>>(_Ptr, sizeof(_Ty) * _Count);

  00100	8b 55 d4	 mov	 edx, DWORD PTR $T7[ebp]
; File C:\Program Files\Microsoft Visual Studio\2022\Community\VC\Tools\MSVC\14.34.31933\include\xstring

; 5013 :             _Al.deallocate(_Ptr, _My_data._Myres + 1);

  00103	41		 inc	 ecx
; File C:\Program Files\Microsoft Visual Studio\2022\Community\VC\Tools\MSVC\14.34.31933\include\xmemory

; 830  :         _Deallocate<_New_alignof<_Ty>>(_Ptr, sizeof(_Ty) * _Count);

  00104	8b c2		 mov	 eax, edx

; 251  :         if (_Bytes >= _Big_allocation_threshold) { // boost the alignment of big allocations to help autovectorization

  00106	81 f9 00 10 00
	00		 cmp	 ecx, 4096		; 00001000H
  0010c	72 14		 jb	 SHORT $LN162@CPythonSki

; 150  :     const uintptr_t _Ptr_container   = _Ptr_user[-1];

  0010e	8b 50 fc	 mov	 edx, DWORD PTR [eax-4]
  00111	83 c1 23	 add	 ecx, 35			; 00000023H
  00114	2b c2		 sub	 eax, edx

; 164  :     _STL_VERIFY(_Back_shift >= _Min_back_shift && _Back_shift <= _Non_user_size, "invalid argument");

  00116	83 c0 fc	 add	 eax, -4			; fffffffcH
  00119	83 f8 1f	 cmp	 eax, 31			; 0000001fH
  0011c	0f 87 0e 01 00
	00		 ja	 $LN375@CPythonSki
$LN162@CPythonSki:

; 255  :         ::operator delete(_Ptr, _Bytes);

  00122	51		 push	 ecx
  00123	52		 push	 edx
  00124	e8 00 00 00 00	 call	 ??3@YAXPAXI@Z		; operator delete
  00129	83 c4 08	 add	 esp, 8
$LN150@CPythonSki:
; File C:\Program Files\Microsoft Visual Studio\2022\Community\VC\Tools\MSVC\14.34.31933\include\xstring

; 117  :         _CSTD memmove(_First1, _First2, _Count * sizeof(_Elem));

  0012c	a1 00 00 00 00	 mov	 eax, DWORD PTR ??_C@_07NLANJMCK@PASSIVE@
  00131	0f 57 c0	 xorps	 xmm0, xmm0

; 2339 :         _CONSTEXPR20 _Bxty() noexcept : _Buf() {} // user-provided, for fancy pointers

  00134	0f 11 45 d4	 movups	 XMMWORD PTR $T6[ebp], xmm0

; 117  :         _CSTD memmove(_First1, _First2, _Count * sizeof(_Elem));

  00138	89 45 d4	 mov	 DWORD PTR $T6[ebp], eax
  0013b	66 a1 04 00 00
	00		 mov	 ax, WORD PTR ??_C@_07NLANJMCK@PASSIVE@+4
  00141	66 89 45 d8	 mov	 WORD PTR $T6[ebp+4], ax
  00145	a0 06 00 00 00	 mov	 al, BYTE PTR ??_C@_07NLANJMCK@PASSIVE@+6

; 2748 :             _My_data._Mysize = _Count;

  0014a	c7 45 e4 07 00
	00 00		 mov	 DWORD PTR $T6[ebp+16], 7

; 2749 :             _My_data._Myres  = _BUF_SIZE - 1;

  00151	c7 45 e8 0f 00
	00 00		 mov	 DWORD PTR $T6[ebp+20], 15 ; 0000000fH

; 117  :         _CSTD memmove(_First1, _First2, _Count * sizeof(_Elem));

  00158	88 45 da	 mov	 BYTE PTR $T6[ebp+6], al
; File C:\Program Files\Microsoft Visual Studio\2022\Community\VC\Tools\MSVC\14.34.31933\include\utility

; 172  :         : first(_STD forward<_Other1>(_Val1)), second(_STD forward<_Other2>(_Val2)) {

  0015b	c7 45 ec 01 00
	00 00		 mov	 DWORD PTR $T6[ebp+24], 1
; File E:\Metin2_server\SolWayneSF v6\ClientVS22\source\UserInterface\PythonSkillPet.cpp

; 143  : 	m_SkillPetTypeIndexMap.insert(std::map<std::string, DWORD>::value_type("PASSIVE", SKILLPET_TYPE_PASSIVE));

  00162	8d 45 d4	 lea	 eax, DWORD PTR $T6[ebp]
  00165	c6 45 fc 04	 mov	 BYTE PTR __$EHRec$[ebp+8], 4
  00169	50		 push	 eax
  0016a	8d 45 cc	 lea	 eax, DWORD PTR $T3[ebp]
  0016d	8b ce		 mov	 ecx, esi
  0016f	50		 push	 eax
  00170	e8 00 00 00 00	 call	 ??$insert@$0A@$0A@@?$_Tree@V?$_Tmap_traits@V?$basic_string@DU?$char_traits@D@std@@V?$allocator@D@2@@std@@KU?$less@V?$basic_string@DU?$char_traits@D@std@@V?$allocator@D@2@@std@@@2@V?$allocator@U?$pair@$$CBV?$basic_string@DU?$char_traits@D@std@@V?$allocator@D@2@@std@@K@std@@@2@$0A@@std@@@std@@QAE?AU?$pair@V?$_Tree_iterator@V?$_Tree_val@U?$_Tree_simple_types@U?$pair@$$CBV?$basic_string@DU?$char_traits@D@std@@V?$allocator@D@2@@std@@K@std@@@std@@@std@@@std@@_N@1@$$QAU?$pair@$$CBV?$basic_string@DU?$char_traits@D@std@@V?$allocator@D@2@@std@@K@1@@Z ; std::_Tree<std::_Tmap_traits<std::basic_string<char,std::char_traits<char>,std::allocator<char> >,unsigned long,std::less<std::basic_string<char,std::char_traits<char>,std::allocator<char> > >,std::allocator<std::pair<std::basic_string<char,std::char_traits<char>,std::allocator<char> > const ,unsigned long> >,0> >::insert<0,0>
  00175	c6 45 fc 02	 mov	 BYTE PTR __$EHRec$[ebp+8], 2
; File C:\Program Files\Microsoft Visual Studio\2022\Community\VC\Tools\MSVC\14.34.31933\include\xstring

; 5008 :         if (_My_data._Large_string_engaged()) {

  00179	8b 4d e8	 mov	 ecx, DWORD PTR $T6[ebp+20]
  0017c	83 f9 10	 cmp	 ecx, 16			; 00000010H
  0017f	72 2c		 jb	 SHORT $LN258@CPythonSki
; File C:\Program Files\Microsoft Visual Studio\2022\Community\VC\Tools\MSVC\14.34.31933\include\xmemory

; 830  :         _Deallocate<_New_alignof<_Ty>>(_Ptr, sizeof(_Ty) * _Count);

  00181	8b 55 d4	 mov	 edx, DWORD PTR $T6[ebp]
; File C:\Program Files\Microsoft Visual Studio\2022\Community\VC\Tools\MSVC\14.34.31933\include\xstring

; 5013 :             _Al.deallocate(_Ptr, _My_data._Myres + 1);

  00184	41		 inc	 ecx
; File C:\Program Files\Microsoft Visual Studio\2022\Community\VC\Tools\MSVC\14.34.31933\include\xmemory

; 830  :         _Deallocate<_New_alignof<_Ty>>(_Ptr, sizeof(_Ty) * _Count);

  00185	8b c2		 mov	 eax, edx

; 251  :         if (_Bytes >= _Big_allocation_threshold) { // boost the alignment of big allocations to help autovectorization

  00187	81 f9 00 10 00
	00		 cmp	 ecx, 4096		; 00001000H
  0018d	72 14		 jb	 SHORT $LN270@CPythonSki

; 150  :     const uintptr_t _Ptr_container   = _Ptr_user[-1];

  0018f	8b 50 fc	 mov	 edx, DWORD PTR [eax-4]
  00192	83 c1 23	 add	 ecx, 35			; 00000023H
  00195	2b c2		 sub	 eax, edx

; 164  :     _STL_VERIFY(_Back_shift >= _Min_back_shift && _Back_shift <= _Non_user_size, "invalid argument");

  00197	83 c0 fc	 add	 eax, -4			; fffffffcH
  0019a	83 f8 1f	 cmp	 eax, 31			; 0000001fH
  0019d	0f 87 8d 00 00
	00		 ja	 $LN375@CPythonSki
$LN270@CPythonSki:

; 255  :         ::operator delete(_Ptr, _Bytes);

  001a3	51		 push	 ecx
  001a4	52		 push	 edx
  001a5	e8 00 00 00 00	 call	 ??3@YAXPAXI@Z		; operator delete
  001aa	83 c4 08	 add	 esp, 8
$LN258@CPythonSki:
  001ad	0f 57 c0	 xorps	 xmm0, xmm0
; File C:\Program Files\Microsoft Visual Studio\2022\Community\VC\Tools\MSVC\14.34.31933\include\xstring

; 2748 :             _My_data._Mysize = _Count;

  001b0	c7 45 e4 04 00
	00 00		 mov	 DWORD PTR $T5[ebp+16], 4

; 2339 :         _CONSTEXPR20 _Bxty() noexcept : _Buf() {} // user-provided, for fancy pointers

  001b7	0f 11 45 d4	 movups	 XMMWORD PTR $T5[ebp], xmm0

; 2749 :             _My_data._Myres  = _BUF_SIZE - 1;

  001bb	c7 45 e8 0f 00
	00 00		 mov	 DWORD PTR $T5[ebp+20], 15 ; 0000000fH

; 117  :         _CSTD memmove(_First1, _First2, _Count * sizeof(_Elem));

  001c2	c7 45 d4 41 55
	54 4f		 mov	 DWORD PTR $T5[ebp], 1330926913 ; 4f545541H
; File C:\Program Files\Microsoft Visual Studio\2022\Community\VC\Tools\MSVC\14.34.31933\include\utility

; 172  :         : first(_STD forward<_Other1>(_Val1)), second(_STD forward<_Other2>(_Val2)) {

  001c9	c7 45 ec 02 00
	00 00		 mov	 DWORD PTR $T5[ebp+24], 2
; File E:\Metin2_server\SolWayneSF v6\ClientVS22\source\UserInterface\PythonSkillPet.cpp

; 144  : 	m_SkillPetTypeIndexMap.insert(std::map<std::string, DWORD>::value_type("AUTO", SKILLPET_TYPE_AUTO));

  001d0	8d 45 d4	 lea	 eax, DWORD PTR $T5[ebp]
  001d3	c6 45 fc 05	 mov	 BYTE PTR __$EHRec$[ebp+8], 5
  001d7	50		 push	 eax
  001d8	8d 45 cc	 lea	 eax, DWORD PTR $T2[ebp]
  001db	8b ce		 mov	 ecx, esi
  001dd	50		 push	 eax
  001de	e8 00 00 00 00	 call	 ??$insert@$0A@$0A@@?$_Tree@V?$_Tmap_traits@V?$basic_string@DU?$char_traits@D@std@@V?$allocator@D@2@@std@@KU?$less@V?$basic_string@DU?$char_traits@D@std@@V?$allocator@D@2@@std@@@2@V?$allocator@U?$pair@$$CBV?$basic_string@DU?$char_traits@D@std@@V?$allocator@D@2@@std@@K@std@@@2@$0A@@std@@@std@@QAE?AU?$pair@V?$_Tree_iterator@V?$_Tree_val@U?$_Tree_simple_types@U?$pair@$$CBV?$basic_string@DU?$char_traits@D@std@@V?$allocator@D@2@@std@@K@std@@@std@@@std@@@std@@_N@1@$$QAU?$pair@$$CBV?$basic_string@DU?$char_traits@D@std@@V?$allocator@D@2@@std@@K@1@@Z ; std::_Tree<std::_Tmap_traits<std::basic_string<char,std::char_traits<char>,std::allocator<char> >,unsigned long,std::less<std::basic_string<char,std::char_traits<char>,std::allocator<char> > >,std::allocator<std::pair<std::basic_string<char,std::char_traits<char>,std::allocator<char> > const ,unsigned long> >,0> >::insert<0,0>
; File C:\Program Files\Microsoft Visual Studio\2022\Community\VC\Tools\MSVC\14.34.31933\include\xstring

; 2301 :         return _BUF_SIZE <= _Myres;

  001e3	8b 4d e8	 mov	 ecx, DWORD PTR $T5[ebp+20]
  001e6	83 f9 10	 cmp	 ecx, 16			; 00000010H

; 5008 :         if (_My_data._Large_string_engaged()) {

  001e9	72 28		 jb	 SHORT $LN366@CPythonSki
; File C:\Program Files\Microsoft Visual Studio\2022\Community\VC\Tools\MSVC\14.34.31933\include\xmemory

; 830  :         _Deallocate<_New_alignof<_Ty>>(_Ptr, sizeof(_Ty) * _Count);

  001eb	8b 55 d4	 mov	 edx, DWORD PTR $T5[ebp]
; File C:\Program Files\Microsoft Visual Studio\2022\Community\VC\Tools\MSVC\14.34.31933\include\xstring

; 5013 :             _Al.deallocate(_Ptr, _My_data._Myres + 1);

  001ee	41		 inc	 ecx
; File C:\Program Files\Microsoft Visual Studio\2022\Community\VC\Tools\MSVC\14.34.31933\include\xmemory

; 830  :         _Deallocate<_New_alignof<_Ty>>(_Ptr, sizeof(_Ty) * _Count);

  001ef	8b c2		 mov	 eax, edx

; 251  :         if (_Bytes >= _Big_allocation_threshold) { // boost the alignment of big allocations to help autovectorization

  001f1	81 f9 00 10 00
	00		 cmp	 ecx, 4096		; 00001000H
  001f7	72 10		 jb	 SHORT $LN378@CPythonSki

; 150  :     const uintptr_t _Ptr_container   = _Ptr_user[-1];

  001f9	8b 50 fc	 mov	 edx, DWORD PTR [eax-4]
  001fc	83 c1 23	 add	 ecx, 35			; 00000023H
  001ff	2b c2		 sub	 eax, edx

; 164  :     _STL_VERIFY(_Back_shift >= _Min_back_shift && _Back_shift <= _Non_user_size, "invalid argument");

  00201	83 c0 fc	 add	 eax, -4			; fffffffcH
  00204	83 f8 1f	 cmp	 eax, 31			; 0000001fH
  00207	77 27		 ja	 SHORT $LN375@CPythonSki
$LN378@CPythonSki:

; 255  :         ::operator delete(_Ptr, _Bytes);

  00209	51		 push	 ecx
  0020a	52		 push	 edx
  0020b	e8 00 00 00 00	 call	 ??3@YAXPAXI@Z		; operator delete
  00210	83 c4 08	 add	 esp, 8
$LN366@CPythonSki:
; File E:\Metin2_server\SolWayneSF v6\ClientVS22\source\UserInterface\PythonSkillPet.cpp

; 146  : }

  00213	8b c7		 mov	 eax, edi
  00215	8b 4d f4	 mov	 ecx, DWORD PTR __$EHRec$[ebp]
  00218	64 89 0d 00 00
	00 00		 mov	 DWORD PTR fs:0, ecx
  0021f	59		 pop	 ecx
  00220	5f		 pop	 edi
  00221	5e		 pop	 esi
  00222	8b 4d f0	 mov	 ecx, DWORD PTR __$ArrayPad$[ebp]
  00225	33 cd		 xor	 ecx, ebp
  00227	e8 00 00 00 00	 call	 @__security_check_cookie@4
  0022c	8b e5		 mov	 esp, ebp
  0022e	5d		 pop	 ebp
  0022f	c3		 ret	 0
$LN375@CPythonSki:
; File C:\Program Files\Microsoft Visual Studio\2022\Community\VC\Tools\MSVC\14.34.31933\include\xmemory

; 164  :     _STL_VERIFY(_Back_shift >= _Min_back_shift && _Back_shift <= _Non_user_size, "invalid argument");

  00230	e8 00 00 00 00	 call	 __invalid_parameter_noinfo_noreturn
$LN463@CPythonSki:
  00235	cc		 int	 3
_TEXT	ENDS
;	COMDAT text$x
text$x	SEGMENT
__unwindfunclet$??0CPythonSkillPet@@QAE@XZ$0:
  00000	8b 4d c8	 mov	 ecx, DWORD PTR _this$GSCopy$[ebp]
  00003	e9 00 00 00 00	 jmp	 ??1?$CSingleton@VCPythonSkillPet@@@@UAE@XZ ; CSingleton<CPythonSkillPet>::~CSingleton<CPythonSkillPet>
__unwindfunclet$??0CPythonSkillPet@@QAE@XZ$1:
  00008	8b 4d c8	 mov	 ecx, DWORD PTR _this$GSCopy$[ebp]
  0000b	83 c1 10	 add	 ecx, 16			; 00000010H
  0000e	e9 00 00 00 00	 jmp	 ??1?$map@KUSSkillDataPet@CPythonSkillPet@@U?$less@K@std@@V?$allocator@U?$pair@$$CBKUSSkillDataPet@CPythonSkillPet@@@std@@@4@@std@@QAE@XZ
__unwindfunclet$??0CPythonSkillPet@@QAE@XZ$2:
  00013	8b 4d c8	 mov	 ecx, DWORD PTR _this$GSCopy$[ebp]
  00016	83 c1 18	 add	 ecx, 24			; 00000018H
  00019	e9 00 00 00 00	 jmp	 ??1?$map@V?$basic_string@DU?$char_traits@D@std@@V?$allocator@D@2@@std@@KU?$less@V?$basic_string@DU?$char_traits@D@std@@V?$allocator@D@2@@std@@@2@V?$allocator@U?$pair@$$CBV?$basic_string@DU?$char_traits@D@std@@V?$allocator@D@2@@std@@K@std@@@2@@std@@QAE@XZ
__unwindfunclet$??0CPythonSkillPet@@QAE@XZ$3:
  0001e	8d 4d d4	 lea	 ecx, DWORD PTR $T7[ebp]
  00021	e9 00 00 00 00	 jmp	 ??1?$pair@$$CBV?$basic_string@DU?$char_traits@D@std@@V?$allocator@D@2@@std@@K@std@@QAE@XZ
__unwindfunclet$??0CPythonSkillPet@@QAE@XZ$4:
  00026	8d 4d d4	 lea	 ecx, DWORD PTR $T6[ebp]
  00029	e9 00 00 00 00	 jmp	 ??1?$pair@$$CBV?$basic_string@DU?$char_traits@D@std@@V?$allocator@D@2@@std@@K@std@@QAE@XZ
__unwindfunclet$??0CPythonSkillPet@@QAE@XZ$5:
  0002e	8d 4d d4	 lea	 ecx, DWORD PTR $T5[ebp]
  00031	e9 00 00 00 00	 jmp	 ??1?$pair@$$CBV?$basic_string@DU?$char_traits@D@std@@V?$allocator@D@2@@std@@K@std@@QAE@XZ
  00036	cc		 int	 3
  00037	cc		 int	 3
  00038	cc		 int	 3
  00039	cc		 int	 3
  0003a	cc		 int	 3
__ehhandler$??0CPythonSkillPet@@QAE@XZ:
  0003b	90		 npad	 1
  0003c	90		 npad	 1
  0003d	8b 54 24 08	 mov	 edx, DWORD PTR [esp+8]
  00041	8d 42 0c	 lea	 eax, DWORD PTR [edx+12]
  00044	8b 4a c8	 mov	 ecx, DWORD PTR [edx-56]
  00047	33 c8		 xor	 ecx, eax
  00049	e8 00 00 00 00	 call	 @__security_check_cookie@4
  0004e	8b 4a fc	 mov	 ecx, DWORD PTR [edx-4]
  00051	33 c8		 xor	 ecx, eax
  00053	e8 00 00 00 00	 call	 @__security_check_cookie@4
  00058	b8 00 00 00 00	 mov	 eax, OFFSET __ehfuncinfo$??0CPythonSkillPet@@QAE@XZ
  0005d	e9 00 00 00 00	 jmp	 ___CxxFrameHandler3
text$x	ENDS
??0CPythonSkillPet@@QAE@XZ ENDP				; CPythonSkillPet::CPythonSkillPet
; Function compile flags: /Ogtp
; File C:\Program Files\Microsoft Visual Studio\2022\Community\VC\Tools\MSVC\14.34.31933\include\xstring
; File C:\Program Files\Microsoft Visual Studio\2022\Community\VC\Tools\MSVC\14.34.31933\include\xmemory
; File C:\Program Files\Microsoft Visual Studio\2022\Community\VC\Tools\MSVC\14.34.31933\include\xstring
; File C:\Program Files\Microsoft Visual Studio\2022\Community\VC\Tools\MSVC\14.34.31933\include\xmemory
; File C:\Program Files\Microsoft Visual Studio\2022\Community\VC\Tools\MSVC\14.34.31933\include\xstring
; File C:\Program Files\Microsoft Visual Studio\2022\Community\VC\Tools\MSVC\14.34.31933\include\xmemory
; File C:\Program Files\Microsoft Visual Studio\2022\Community\VC\Tools\MSVC\14.34.31933\include\xstring
; File C:\Program Files\Microsoft Visual Studio\2022\Community\VC\Tools\MSVC\14.34.31933\include\xmemory
; File C:\Program Files\Microsoft Visual Studio\2022\Community\VC\Tools\MSVC\14.34.31933\include\xstring
; File C:\Program Files\Microsoft Visual Studio\2022\Community\VC\Tools\MSVC\14.34.31933\include\xmemory
; File C:\Program Files\Microsoft Visual Studio\2022\Community\VC\Tools\MSVC\14.34.31933\include\xstring
; File C:\Program Files\Microsoft Visual Studio\2022\Community\VC\Tools\MSVC\14.34.31933\include\xmemory
; File C:\Program Files\Microsoft Visual Studio\2022\Community\VC\Tools\MSVC\14.34.31933\include\xstring
; File C:\Program Files\Microsoft Visual Studio\2022\Community\VC\Tools\MSVC\14.34.31933\include\xmemory
;	COMDAT ??1SSkillDataPet@CPythonSkillPet@@QAE@XZ
_TEXT	SEGMENT
??1SSkillDataPet@CPythonSkillPet@@QAE@XZ PROC		; CPythonSkillPet::SSkillDataPet::~SSkillDataPet, COMDAT
; _this$ = ecx
; File C:\Program Files\Microsoft Visual Studio\2022\Community\VC\Tools\MSVC\14.34.31933\include\xstring

; 2301 :         return _BUF_SIZE <= _Myres;

  00000	56		 push	 esi
  00001	8b f1		 mov	 esi, ecx
  00003	8b 4e 4c	 mov	 ecx, DWORD PTR [esi+76]
  00006	83 f9 10	 cmp	 ecx, 16			; 00000010H

; 5008 :         if (_My_data._Large_string_engaged()) {

  00009	72 2c		 jb	 SHORT $LN15@SSkillData
; File C:\Program Files\Microsoft Visual Studio\2022\Community\VC\Tools\MSVC\14.34.31933\include\xmemory

; 830  :         _Deallocate<_New_alignof<_Ty>>(_Ptr, sizeof(_Ty) * _Count);

  0000b	8b 46 38	 mov	 eax, DWORD PTR [esi+56]
; File C:\Program Files\Microsoft Visual Studio\2022\Community\VC\Tools\MSVC\14.34.31933\include\xstring

; 5013 :             _Al.deallocate(_Ptr, _My_data._Myres + 1);

  0000e	41		 inc	 ecx
; File C:\Program Files\Microsoft Visual Studio\2022\Community\VC\Tools\MSVC\14.34.31933\include\xmemory

; 251  :         if (_Bytes >= _Big_allocation_threshold) { // boost the alignment of big allocations to help autovectorization

  0000f	81 f9 00 10 00
	00		 cmp	 ecx, 4096		; 00001000H
  00015	72 16		 jb	 SHORT $LN27@SSkillData

; 150  :     const uintptr_t _Ptr_container   = _Ptr_user[-1];

  00017	8b 50 fc	 mov	 edx, DWORD PTR [eax-4]
  0001a	83 c1 23	 add	 ecx, 35			; 00000023H

; 151  : 
; 152  :     // If the following asserts, it likely means that we are performing
; 153  :     // an aligned delete on memory coming from an unaligned allocation.
; 154  :     _STL_ASSERT(_Ptr_user[-2] == _Big_allocation_sentinel, "invalid argument");
; 155  : 
; 156  :     // Extra paranoia on aligned allocation/deallocation; ensure _Ptr_container is
; 157  :     // in range [_Min_back_shift, _Non_user_size]
; 158  : #ifdef _DEBUG
; 159  :     constexpr uintptr_t _Min_back_shift = 2 * sizeof(void*);
; 160  : #else // ^^^ _DEBUG ^^^ // vvv !_DEBUG vvv
; 161  :     constexpr uintptr_t _Min_back_shift = sizeof(void*);
; 162  : #endif // _DEBUG
; 163  :     const uintptr_t _Back_shift = reinterpret_cast<uintptr_t>(_Ptr) - _Ptr_container;

  0001d	2b c2		 sub	 eax, edx

; 164  :     _STL_VERIFY(_Back_shift >= _Min_back_shift && _Back_shift <= _Non_user_size, "invalid argument");

  0001f	83 c0 fc	 add	 eax, -4			; fffffffcH
  00022	83 f8 1f	 cmp	 eax, 31			; 0000001fH
  00025	0f 87 a4 00 00
	00		 ja	 $LN83@SSkillData

; 165  :     _Ptr = reinterpret_cast<void*>(_Ptr_container);

  0002b	8b c2		 mov	 eax, edx
$LN27@SSkillData:

; 255  :         ::operator delete(_Ptr, _Bytes);

  0002d	51		 push	 ecx
  0002e	50		 push	 eax
  0002f	e8 00 00 00 00	 call	 ??3@YAXPAXI@Z		; operator delete
  00034	83 c4 08	 add	 esp, 8
$LN15@SSkillData:
; File C:\Program Files\Microsoft Visual Studio\2022\Community\VC\Tools\MSVC\14.34.31933\include\xstring

; 5016 :         _My_data._Mysize = 0;

  00037	c7 46 48 00 00
	00 00		 mov	 DWORD PTR [esi+72], 0

; 5017 :         _My_data._Myres  = _BUF_SIZE - 1;

  0003e	c7 46 4c 0f 00
	00 00		 mov	 DWORD PTR [esi+76], 15	; 0000000fH

; 5018 :         // the _Traits::assign is last so the codegen doesn't think the char write can alias this
; 5019 :         _Traits::assign(_My_data._Bx._Buf[0], _Elem());

  00045	c6 46 38 00	 mov	 BYTE PTR [esi+56], 0

; 2301 :         return _BUF_SIZE <= _Myres;

  00049	8b 4e 30	 mov	 ecx, DWORD PTR [esi+48]
  0004c	83 f9 10	 cmp	 ecx, 16			; 00000010H

; 5008 :         if (_My_data._Large_string_engaged()) {

  0004f	72 28		 jb	 SHORT $LN45@SSkillData
; File C:\Program Files\Microsoft Visual Studio\2022\Community\VC\Tools\MSVC\14.34.31933\include\xmemory

; 830  :         _Deallocate<_New_alignof<_Ty>>(_Ptr, sizeof(_Ty) * _Count);

  00051	8b 46 1c	 mov	 eax, DWORD PTR [esi+28]
; File C:\Program Files\Microsoft Visual Studio\2022\Community\VC\Tools\MSVC\14.34.31933\include\xstring

; 5013 :             _Al.deallocate(_Ptr, _My_data._Myres + 1);

  00054	41		 inc	 ecx
; File C:\Program Files\Microsoft Visual Studio\2022\Community\VC\Tools\MSVC\14.34.31933\include\xmemory

; 251  :         if (_Bytes >= _Big_allocation_threshold) { // boost the alignment of big allocations to help autovectorization

  00055	81 f9 00 10 00
	00		 cmp	 ecx, 4096		; 00001000H
  0005b	72 12		 jb	 SHORT $LN57@SSkillData

; 150  :     const uintptr_t _Ptr_container   = _Ptr_user[-1];

  0005d	8b 50 fc	 mov	 edx, DWORD PTR [eax-4]
  00060	83 c1 23	 add	 ecx, 35			; 00000023H

; 151  : 
; 152  :     // If the following asserts, it likely means that we are performing
; 153  :     // an aligned delete on memory coming from an unaligned allocation.
; 154  :     _STL_ASSERT(_Ptr_user[-2] == _Big_allocation_sentinel, "invalid argument");
; 155  : 
; 156  :     // Extra paranoia on aligned allocation/deallocation; ensure _Ptr_container is
; 157  :     // in range [_Min_back_shift, _Non_user_size]
; 158  : #ifdef _DEBUG
; 159  :     constexpr uintptr_t _Min_back_shift = 2 * sizeof(void*);
; 160  : #else // ^^^ _DEBUG ^^^ // vvv !_DEBUG vvv
; 161  :     constexpr uintptr_t _Min_back_shift = sizeof(void*);
; 162  : #endif // _DEBUG
; 163  :     const uintptr_t _Back_shift = reinterpret_cast<uintptr_t>(_Ptr) - _Ptr_container;

  00063	2b c2		 sub	 eax, edx

; 164  :     _STL_VERIFY(_Back_shift >= _Min_back_shift && _Back_shift <= _Non_user_size, "invalid argument");

  00065	83 c0 fc	 add	 eax, -4			; fffffffcH
  00068	83 f8 1f	 cmp	 eax, 31			; 0000001fH
  0006b	77 62		 ja	 SHORT $LN83@SSkillData

; 165  :     _Ptr = reinterpret_cast<void*>(_Ptr_container);

  0006d	8b c2		 mov	 eax, edx
$LN57@SSkillData:

; 255  :         ::operator delete(_Ptr, _Bytes);

  0006f	51		 push	 ecx
  00070	50		 push	 eax
  00071	e8 00 00 00 00	 call	 ??3@YAXPAXI@Z		; operator delete
  00076	83 c4 08	 add	 esp, 8
$LN45@SSkillData:
; File C:\Program Files\Microsoft Visual Studio\2022\Community\VC\Tools\MSVC\14.34.31933\include\xstring

; 5016 :         _My_data._Mysize = 0;

  00079	c7 46 2c 00 00
	00 00		 mov	 DWORD PTR [esi+44], 0

; 5017 :         _My_data._Myres  = _BUF_SIZE - 1;

  00080	c7 46 30 0f 00
	00 00		 mov	 DWORD PTR [esi+48], 15	; 0000000fH

; 5018 :         // the _Traits::assign is last so the codegen doesn't think the char write can alias this
; 5019 :         _Traits::assign(_My_data._Bx._Buf[0], _Elem());

  00087	c6 46 1c 00	 mov	 BYTE PTR [esi+28], 0

; 2301 :         return _BUF_SIZE <= _Myres;

  0008b	8b 4e 18	 mov	 ecx, DWORD PTR [esi+24]
  0008e	83 f9 10	 cmp	 ecx, 16			; 00000010H

; 5008 :         if (_My_data._Large_string_engaged()) {

  00091	72 28		 jb	 SHORT $LN74@SSkillData
; File C:\Program Files\Microsoft Visual Studio\2022\Community\VC\Tools\MSVC\14.34.31933\include\xmemory

; 830  :         _Deallocate<_New_alignof<_Ty>>(_Ptr, sizeof(_Ty) * _Count);

  00093	8b 46 04	 mov	 eax, DWORD PTR [esi+4]
; File C:\Program Files\Microsoft Visual Studio\2022\Community\VC\Tools\MSVC\14.34.31933\include\xstring

; 5013 :             _Al.deallocate(_Ptr, _My_data._Myres + 1);

  00096	41		 inc	 ecx
; File C:\Program Files\Microsoft Visual Studio\2022\Community\VC\Tools\MSVC\14.34.31933\include\xmemory

; 251  :         if (_Bytes >= _Big_allocation_threshold) { // boost the alignment of big allocations to help autovectorization

  00097	81 f9 00 10 00
	00		 cmp	 ecx, 4096		; 00001000H
  0009d	72 12		 jb	 SHORT $LN86@SSkillData

; 150  :     const uintptr_t _Ptr_container   = _Ptr_user[-1];

  0009f	8b 50 fc	 mov	 edx, DWORD PTR [eax-4]
  000a2	83 c1 23	 add	 ecx, 35			; 00000023H

; 151  : 
; 152  :     // If the following asserts, it likely means that we are performing
; 153  :     // an aligned delete on memory coming from an unaligned allocation.
; 154  :     _STL_ASSERT(_Ptr_user[-2] == _Big_allocation_sentinel, "invalid argument");
; 155  : 
; 156  :     // Extra paranoia on aligned allocation/deallocation; ensure _Ptr_container is
; 157  :     // in range [_Min_back_shift, _Non_user_size]
; 158  : #ifdef _DEBUG
; 159  :     constexpr uintptr_t _Min_back_shift = 2 * sizeof(void*);
; 160  : #else // ^^^ _DEBUG ^^^ // vvv !_DEBUG vvv
; 161  :     constexpr uintptr_t _Min_back_shift = sizeof(void*);
; 162  : #endif // _DEBUG
; 163  :     const uintptr_t _Back_shift = reinterpret_cast<uintptr_t>(_Ptr) - _Ptr_container;

  000a5	2b c2		 sub	 eax, edx

; 164  :     _STL_VERIFY(_Back_shift >= _Min_back_shift && _Back_shift <= _Non_user_size, "invalid argument");

  000a7	83 c0 fc	 add	 eax, -4			; fffffffcH
  000aa	83 f8 1f	 cmp	 eax, 31			; 0000001fH
  000ad	77 20		 ja	 SHORT $LN83@SSkillData

; 165  :     _Ptr = reinterpret_cast<void*>(_Ptr_container);

  000af	8b c2		 mov	 eax, edx
$LN86@SSkillData:

; 255  :         ::operator delete(_Ptr, _Bytes);

  000b1	51		 push	 ecx
  000b2	50		 push	 eax
  000b3	e8 00 00 00 00	 call	 ??3@YAXPAXI@Z		; operator delete
  000b8	83 c4 08	 add	 esp, 8
$LN74@SSkillData:
; File C:\Program Files\Microsoft Visual Studio\2022\Community\VC\Tools\MSVC\14.34.31933\include\xstring

; 5016 :         _My_data._Mysize = 0;

  000bb	c7 46 14 00 00
	00 00		 mov	 DWORD PTR [esi+20], 0

; 5017 :         _My_data._Myres  = _BUF_SIZE - 1;

  000c2	c7 46 18 0f 00
	00 00		 mov	 DWORD PTR [esi+24], 15	; 0000000fH

; 5018 :         // the _Traits::assign is last so the codegen doesn't think the char write can alias this
; 5019 :         _Traits::assign(_My_data._Bx._Buf[0], _Elem());

  000c9	c6 46 04 00	 mov	 BYTE PTR [esi+4], 0
  000cd	5e		 pop	 esi
  000ce	c3		 ret	 0
$LN83@SSkillData:
; File C:\Program Files\Microsoft Visual Studio\2022\Community\VC\Tools\MSVC\14.34.31933\include\xmemory

; 164  :     _STL_VERIFY(_Back_shift >= _Min_back_shift && _Back_shift <= _Non_user_size, "invalid argument");

  000cf	e8 00 00 00 00	 call	 __invalid_parameter_noinfo_noreturn
$LN91@SSkillData:
  000d4	cc		 int	 3
??1SSkillDataPet@CPythonSkillPet@@QAE@XZ ENDP		; CPythonSkillPet::SSkillDataPet::~SSkillDataPet
_TEXT	ENDS
; Function compile flags: /Ogtp
;	COMDAT ??1?$pair@KUSSkillDataPet@CPythonSkillPet@@@std@@QAE@XZ
_TEXT	SEGMENT
??1?$pair@KUSSkillDataPet@CPythonSkillPet@@@std@@QAE@XZ PROC ; std::pair<unsigned long,CPythonSkillPet::SSkillDataPet>::~pair<unsigned long,CPythonSkillPet::SSkillDataPet>, COMDAT
; _this$ = ecx
  00000	83 c1 04	 add	 ecx, 4
  00003	e9 00 00 00 00	 jmp	 ??1SSkillDataPet@CPythonSkillPet@@QAE@XZ
??1?$pair@KUSSkillDataPet@CPythonSkillPet@@@std@@QAE@XZ ENDP ; std::pair<unsigned long,CPythonSkillPet::SSkillDataPet>::~pair<unsigned long,CPythonSkillPet::SSkillDataPet>
_TEXT	ENDS
; Function compile flags: /Ogtp
; File E:\Metin2_server\SolWayneSF v6\ClientVS22\source\UserInterface\PythonSkillPet.cpp
; File C:\Program Files\Microsoft Visual Studio\2022\Community\VC\Tools\MSVC\14.34.31933\include\xstring
; File E:\Metin2_server\SolWayneSF v6\ClientVS22\source\UserInterface\PythonSkillPet.cpp
; File C:\Program Files\Microsoft Visual Studio\2022\Community\VC\Tools\MSVC\14.34.31933\include\xstring
; File E:\Metin2_server\SolWayneSF v6\ClientVS22\source\UserInterface\PythonSkillPet.cpp
; File C:\Program Files\Microsoft Visual Studio\2022\Community\VC\Tools\MSVC\14.34.31933\include\xstring
; File E:\Metin2_server\SolWayneSF v6\ClientVS22\source\UserInterface\PythonSkillPet.cpp
; File C:\Program Files\Microsoft Visual Studio\2022\Community\VC\Tools\MSVC\14.34.31933\include\xstring
; File E:\Metin2_server\SolWayneSF v6\ClientVS22\source\UserInterface\PythonSkillPet.cpp
; File C:\Program Files\Microsoft Visual Studio\2022\Community\VC\Tools\MSVC\14.34.31933\include\xstring
; File E:\Metin2_server\SolWayneSF v6\ClientVS22\source\UserInterface\PythonSkillPet.cpp
;	COMDAT ??0SSkillDataPet@CPythonSkillPet@@QAE@XZ
_TEXT	SEGMENT
tv1689 = -24						; size = 4
_this$ = -24						; size = 4
tv1690 = -20						; size = 4
tv1696 = -16						; size = 4
__$EHRec$ = -12						; size = 12
??0SSkillDataPet@CPythonSkillPet@@QAE@XZ PROC		; CPythonSkillPet::SSkillDataPet::SSkillDataPet, COMDAT
; _this$ = ecx

; 111  : {

  00000	55		 push	 ebp
  00001	8b ec		 mov	 ebp, esp
  00003	6a ff		 push	 -1
  00005	68 00 00 00 00	 push	 __ehhandler$??0SSkillDataPet@CPythonSkillPet@@QAE@XZ
  0000a	64 a1 00 00 00
	00		 mov	 eax, DWORD PTR fs:0
  00010	50		 push	 eax
  00011	83 ec 0c	 sub	 esp, 12			; 0000000cH
  00014	56		 push	 esi
  00015	57		 push	 edi
  00016	a1 00 00 00 00	 mov	 eax, DWORD PTR ___security_cookie
  0001b	33 c5		 xor	 eax, ebp
  0001d	50		 push	 eax
  0001e	8d 45 f4	 lea	 eax, DWORD PTR __$EHRec$[ebp]
  00021	64 a3 00 00 00
	00		 mov	 DWORD PTR fs:0, eax
  00027	89 4d e8	 mov	 DWORD PTR _this$[ebp], ecx
  0002a	8d 71 04	 lea	 esi, DWORD PTR [ecx+4]
  0002d	0f 57 c0	 xorps	 xmm0, xmm0
; File C:\Program Files\Microsoft Visual Studio\2022\Community\VC\Tools\MSVC\14.34.31933\include\xstring

; 2339 :         _CONSTEXPR20 _Bxty() noexcept : _Buf() {} // user-provided, for fancy pointers

  00030	0f 11 06	 movups	 XMMWORD PTR [esi], xmm0

; 2348 :     size_type _Mysize = 0; // current length of string

  00033	8d 46 10	 lea	 eax, DWORD PTR [esi+16]

; 4996 :         _My_data._Myres  = _BUF_SIZE - 1;

  00036	c7 46 14 0f 00
	00 00		 mov	 DWORD PTR [esi+20], 15	; 0000000fH
  0003d	c7 00 00 00 00
	00		 mov	 DWORD PTR [eax], 0

; 2348 :     size_type _Mysize = 0; // current length of string

  00043	89 45 f0	 mov	 DWORD PTR tv1696[ebp], eax

; 5000 :         _Traits::assign(_My_data._Bx._Buf[0], _Elem());

  00046	c6 06 00	 mov	 BYTE PTR [esi], 0
; File E:\Metin2_server\SolWayneSF v6\ClientVS22\source\UserInterface\PythonSkillPet.cpp

; 111  : {

  00049	8d 51 1c	 lea	 edx, DWORD PTR [ecx+28]
; File C:\Program Files\Microsoft Visual Studio\2022\Community\VC\Tools\MSVC\14.34.31933\include\xstring

; 2339 :         _CONSTEXPR20 _Bxty() noexcept : _Buf() {} // user-provided, for fancy pointers

  0004c	0f 11 02	 movups	 XMMWORD PTR [edx], xmm0

; 2348 :     size_type _Mysize = 0; // current length of string

  0004f	8d 42 10	 lea	 eax, DWORD PTR [edx+16]

; 4996 :         _My_data._Myres  = _BUF_SIZE - 1;

  00052	c7 42 14 0f 00
	00 00		 mov	 DWORD PTR [edx+20], 15	; 0000000fH
  00059	c7 00 00 00 00
	00		 mov	 DWORD PTR [eax], 0

; 2348 :     size_type _Mysize = 0; // current length of string

  0005f	89 45 e8	 mov	 DWORD PTR tv1689[ebp], eax

; 5000 :         _Traits::assign(_My_data._Bx._Buf[0], _Elem());

  00062	c6 02 00	 mov	 BYTE PTR [edx], 0
; File E:\Metin2_server\SolWayneSF v6\ClientVS22\source\UserInterface\PythonSkillPet.cpp

; 111  : {

  00065	8d 41 38	 lea	 eax, DWORD PTR [ecx+56]
; File C:\Program Files\Microsoft Visual Studio\2022\Community\VC\Tools\MSVC\14.34.31933\include\xstring

; 2339 :         _CONSTEXPR20 _Bxty() noexcept : _Buf() {} // user-provided, for fancy pointers

  00068	0f 11 00	 movups	 XMMWORD PTR [eax], xmm0

; 2348 :     size_type _Mysize = 0; // current length of string

  0006b	8d 78 10	 lea	 edi, DWORD PTR [eax+16]

; 4996 :         _My_data._Myres  = _BUF_SIZE - 1;

  0006e	c7 40 14 0f 00
	00 00		 mov	 DWORD PTR [eax+20], 15	; 0000000fH
  00075	c7 07 00 00 00
	00		 mov	 DWORD PTR [edi], 0

; 2348 :     size_type _Mysize = 0; // current length of string

  0007b	89 7d ec	 mov	 DWORD PTR tv1690[ebp], edi

; 5000 :         _Traits::assign(_My_data._Bx._Buf[0], _Elem());

  0007e	c6 00 00	 mov	 BYTE PTR [eax], 0
; File E:\Metin2_server\SolWayneSF v6\ClientVS22\source\UserInterface\PythonSkillPet.cpp

; 114  : 	dwSkillIndex = 0;

  00081	c7 01 00 00 00
	00		 mov	 DWORD PTR [ecx], 0
; File C:\Program Files\Microsoft Visual Studio\2022\Community\VC\Tools\MSVC\14.34.31933\include\xstring

; 2301 :         return _BUF_SIZE <= _Myres;

  00087	83 7e 14 10	 cmp	 DWORD PTR [esi+20], 16	; 00000010H

; 2284 :         if (_Large_string_engaged()) {

  0008b	72 02		 jb	 SHORT $LN55@SSkillData

; 2285 :             _Result = _Unfancy(_Bx._Ptr);

  0008d	8b 36		 mov	 esi, DWORD PTR [esi]
$LN55@SSkillData:

; 3530 :             _Mypair._Myval2._Mysize = _Count;

  0008f	8b 7d f0	 mov	 edi, DWORD PTR tv1696[ebp]
  00092	c7 07 00 00 00
	00		 mov	 DWORD PTR [edi], 0

; 2284 :         if (_Large_string_engaged()) {

  00098	8b 7d ec	 mov	 edi, DWORD PTR tv1690[ebp]

; 3532 :             _Traits::assign(_Old_ptr[_Count], _Elem());

  0009b	c6 06 00	 mov	 BYTE PTR [esi], 0

; 2301 :         return _BUF_SIZE <= _Myres;

  0009e	83 7a 14 10	 cmp	 DWORD PTR [edx+20], 16	; 00000010H

; 2284 :         if (_Large_string_engaged()) {

  000a2	72 02		 jb	 SHORT $LN154@SSkillData

; 2285 :             _Result = _Unfancy(_Bx._Ptr);

  000a4	8b 12		 mov	 edx, DWORD PTR [edx]
$LN154@SSkillData:

; 3530 :             _Mypair._Myval2._Mysize = _Count;

  000a6	8b 75 e8	 mov	 esi, DWORD PTR tv1689[ebp]
  000a9	c7 06 00 00 00
	00		 mov	 DWORD PTR [esi], 0

; 3531 :             _Traits::move(_Old_ptr, _Ptr, _Count);
; 3532 :             _Traits::assign(_Old_ptr[_Count], _Elem());

  000af	c6 02 00	 mov	 BYTE PTR [edx], 0
; File E:\Metin2_server\SolWayneSF v6\ClientVS22\source\UserInterface\PythonSkillPet.cpp

; 117  : 	byType = 0;			

  000b2	c6 41 34 00	 mov	 BYTE PTR [ecx+52], 0
; File C:\Program Files\Microsoft Visual Studio\2022\Community\VC\Tools\MSVC\14.34.31933\include\xstring

; 2301 :         return _BUF_SIZE <= _Myres;

  000b6	83 78 14 10	 cmp	 DWORD PTR [eax+20], 16	; 00000010H

; 2284 :         if (_Large_string_engaged()) {

  000ba	72 02		 jb	 SHORT $LN252@SSkillData

; 2285 :             _Result = _Unfancy(_Bx._Ptr);

  000bc	8b 00		 mov	 eax, DWORD PTR [eax]
$LN252@SSkillData:

; 3530 :             _Mypair._Myval2._Mysize = _Count;

  000be	c7 07 00 00 00
	00		 mov	 DWORD PTR [edi], 0

; 3531 :             _Traits::move(_Old_ptr, _Ptr, _Count);
; 3532 :             _Traits::assign(_Old_ptr[_Count], _Elem());

  000c4	c6 00 00	 mov	 BYTE PTR [eax], 0
; File E:\Metin2_server\SolWayneSF v6\ClientVS22\source\UserInterface\PythonSkillPet.cpp

; 122  : }

  000c7	8b c1		 mov	 eax, ecx
  000c9	c7 41 50 00 00
	00 00		 mov	 DWORD PTR [ecx+80], 0
  000d0	c7 41 54 00 00
	00 00		 mov	 DWORD PTR [ecx+84], 0
  000d7	8b 4d f4	 mov	 ecx, DWORD PTR __$EHRec$[ebp]
  000da	64 89 0d 00 00
	00 00		 mov	 DWORD PTR fs:0, ecx
  000e1	59		 pop	 ecx
  000e2	5f		 pop	 edi
  000e3	5e		 pop	 esi
  000e4	8b e5		 mov	 esp, ebp
  000e6	5d		 pop	 ebp
  000e7	c3		 ret	 0
_TEXT	ENDS
;	COMDAT text$x
text$x	SEGMENT
__unwindfunclet$??0SSkillDataPet@CPythonSkillPet@@QAE@XZ$0:
  00000	8b 4d e8	 mov	 ecx, DWORD PTR _this$[ebp]
  00003	83 c1 04	 add	 ecx, 4
  00006	e9 00 00 00 00	 jmp	 ??1?$basic_string@DU?$char_traits@D@std@@V?$allocator@D@2@@std@@QAE@XZ ; std::basic_string<char,std::char_traits<char>,std::allocator<char> >::~basic_string<char,std::char_traits<char>,std::allocator<char> >
__unwindfunclet$??0SSkillDataPet@CPythonSkillPet@@QAE@XZ$1:
  0000b	8b 4d e8	 mov	 ecx, DWORD PTR _this$[ebp]
  0000e	83 c1 1c	 add	 ecx, 28			; 0000001cH
  00011	e9 00 00 00 00	 jmp	 ??1?$basic_string@DU?$char_traits@D@std@@V?$allocator@D@2@@std@@QAE@XZ ; std::basic_string<char,std::char_traits<char>,std::allocator<char> >::~basic_string<char,std::char_traits<char>,std::allocator<char> >
__unwindfunclet$??0SSkillDataPet@CPythonSkillPet@@QAE@XZ$2:
  00016	8b 4d e8	 mov	 ecx, DWORD PTR _this$[ebp]
  00019	83 c1 38	 add	 ecx, 56			; 00000038H
  0001c	e9 00 00 00 00	 jmp	 ??1?$basic_string@DU?$char_traits@D@std@@V?$allocator@D@2@@std@@QAE@XZ ; std::basic_string<char,std::char_traits<char>,std::allocator<char> >::~basic_string<char,std::char_traits<char>,std::allocator<char> >
  00021	cc		 int	 3
  00022	cc		 int	 3
  00023	cc		 int	 3
  00024	cc		 int	 3
  00025	cc		 int	 3
__ehhandler$??0SSkillDataPet@CPythonSkillPet@@QAE@XZ:
  00026	90		 npad	 1
  00027	90		 npad	 1
  00028	8b 54 24 08	 mov	 edx, DWORD PTR [esp+8]
  0002c	8d 42 0c	 lea	 eax, DWORD PTR [edx+12]
  0002f	8b 4a e8	 mov	 ecx, DWORD PTR [edx-24]
  00032	33 c8		 xor	 ecx, eax
  00034	e8 00 00 00 00	 call	 @__security_check_cookie@4
  00039	b8 00 00 00 00	 mov	 eax, OFFSET __ehfuncinfo$??0SSkillDataPet@CPythonSkillPet@@QAE@XZ
  0003e	e9 00 00 00 00	 jmp	 ___CxxFrameHandler3
text$x	ENDS
??0SSkillDataPet@CPythonSkillPet@@QAE@XZ ENDP		; CPythonSkillPet::SSkillDataPet::SSkillDataPet
; Function compile flags: /Ogtp
;	COMDAT ??_GCPythonSkillPet@@UAEPAXI@Z
_TEXT	SEGMENT
___flags$ = 8						; size = 4
??_GCPythonSkillPet@@UAEPAXI@Z PROC			; CPythonSkillPet::`scalar deleting destructor', COMDAT
; _this$ = ecx
  00000	55		 push	 ebp
  00001	8b ec		 mov	 ebp, esp
  00003	56		 push	 esi
  00004	8b f1		 mov	 esi, ecx
  00006	e8 00 00 00 00	 call	 ??1CPythonSkillPet@@UAE@XZ ; CPythonSkillPet::~CPythonSkillPet
  0000b	f6 45 08 01	 test	 BYTE PTR ___flags$[ebp], 1
  0000f	74 0b		 je	 SHORT $LN4@scalar
  00011	6a 20		 push	 32			; 00000020H
  00013	56		 push	 esi
  00014	e8 00 00 00 00	 call	 ??3@YAXPAXI@Z		; operator delete
  00019	83 c4 08	 add	 esp, 8
$LN4@scalar:
  0001c	8b c6		 mov	 eax, esi
  0001e	5e		 pop	 esi
  0001f	5d		 pop	 ebp
  00020	c2 04 00	 ret	 4
??_GCPythonSkillPet@@UAEPAXI@Z ENDP			; CPythonSkillPet::`scalar deleting destructor'
_TEXT	ENDS
; Function compile flags: /Ogtp
; File C:\Program Files\Microsoft Visual Studio\2022\Community\VC\Tools\MSVC\14.34.31933\include\xtree
; File C:\Program Files\Microsoft Visual Studio\2022\Community\VC\Tools\MSVC\14.34.31933\include\xmemory
;	COMDAT ??1?$map@KUSSkillDataPet@CPythonSkillPet@@U?$less@K@std@@V?$allocator@U?$pair@$$CBKUSSkillDataPet@CPythonSkillPet@@@std@@@4@@std@@QAE@XZ
_TEXT	SEGMENT
??1?$map@KUSSkillDataPet@CPythonSkillPet@@U?$less@K@std@@V?$allocator@U?$pair@$$CBKUSSkillDataPet@CPythonSkillPet@@@std@@@4@@std@@QAE@XZ PROC ; std::map<unsigned long,CPythonSkillPet::SSkillDataPet,std::less<unsigned long>,std::allocator<std::pair<unsigned long const ,CPythonSkillPet::SSkillDataPet> > >::~map<unsigned long,CPythonSkillPet::SSkillDataPet,std::less<unsigned long>,std::allocator<std::pair<unsigned long const ,CPythonSkillPet::SSkillDataPet> > >, COMDAT
; _this$ = ecx
; File C:\Program Files\Microsoft Visual Studio\2022\Community\VC\Tools\MSVC\14.34.31933\include\xtree

; 754  :         _Erase_tree(_Al, _Myhead->_Parent);

  00000	56		 push	 esi
  00001	8b f1		 mov	 esi, ecx
  00003	8b 06		 mov	 eax, DWORD PTR [esi]
  00005	ff 70 04	 push	 DWORD PTR [eax+4]
  00008	56		 push	 esi
  00009	e8 00 00 00 00	 call	 ??$_Erase_tree@V?$allocator@U?$_Tree_node@U?$pair@$$CBKUSSkillDataPet@CPythonSkillPet@@@std@@PAX@std@@@std@@@?$_Tree_val@U?$_Tree_simple_types@U?$pair@$$CBKUSSkillDataPet@CPythonSkillPet@@@std@@@std@@@std@@QAEXAAV?$allocator@U?$_Tree_node@U?$pair@$$CBKUSSkillDataPet@CPythonSkillPet@@@std@@PAX@std@@@1@PAU?$_Tree_node@U?$pair@$$CBKUSSkillDataPet@CPythonSkillPet@@@std@@PAX@1@@Z ; std::_Tree_val<std::_Tree_simple_types<std::pair<unsigned long const ,CPythonSkillPet::SSkillDataPet> > >::_Erase_tree<std::allocator<std::_Tree_node<std::pair<unsigned long const ,CPythonSkillPet::SSkillDataPet>,void *> > >
; File C:\Program Files\Microsoft Visual Studio\2022\Community\VC\Tools\MSVC\14.34.31933\include\xmemory

; 255  :         ::operator delete(_Ptr, _Bytes);

  0000e	6a 6c		 push	 108			; 0000006cH
  00010	ff 36		 push	 DWORD PTR [esi]
  00012	e8 00 00 00 00	 call	 ??3@YAXPAXI@Z		; operator delete
  00017	83 c4 08	 add	 esp, 8
  0001a	5e		 pop	 esi
  0001b	c3		 ret	 0
??1?$map@KUSSkillDataPet@CPythonSkillPet@@U?$less@K@std@@V?$allocator@U?$pair@$$CBKUSSkillDataPet@CPythonSkillPet@@@std@@@4@@std@@QAE@XZ ENDP ; std::map<unsigned long,CPythonSkillPet::SSkillDataPet,std::less<unsigned long>,std::allocator<std::pair<unsigned long const ,CPythonSkillPet::SSkillDataPet> > >::~map<unsigned long,CPythonSkillPet::SSkillDataPet,std::less<unsigned long>,std::allocator<std::pair<unsigned long const ,CPythonSkillPet::SSkillDataPet> > >
_TEXT	ENDS
; Function compile flags: /Ogtp
; File E:\Metin2_server\SolWayneSF v6\ClientVS22\source\UserInterface\PythonSkillPet.cpp
;	COMDAT ?SetSkillbySlot@CPythonSkillPet@@QAEXHH@Z
_TEXT	SEGMENT
_slot$ = 8						; size = 4
_skillIndex$ = 12					; size = 4
?SetSkillbySlot@CPythonSkillPet@@QAEXHH@Z PROC		; CPythonSkillPet::SetSkillbySlot, COMDAT
; _this$ = ecx

; 153  : {

  00000	55		 push	 ebp
  00001	8b ec		 mov	 ebp, esp

; 154  : 	//TraceError("Setto lo slot %d --> skill %d", slot, skillIndex);
; 155  : 	petslot[slot] = skillIndex;

  00003	8b 45 08	 mov	 eax, DWORD PTR _slot$[ebp]
  00006	8b 55 0c	 mov	 edx, DWORD PTR _skillIndex$[ebp]
  00009	89 54 81 04	 mov	 DWORD PTR [ecx+eax*4+4], edx

; 156  : }

  0000d	5d		 pop	 ebp
  0000e	c2 08 00	 ret	 8
?SetSkillbySlot@CPythonSkillPet@@QAEXHH@Z ENDP		; CPythonSkillPet::SetSkillbySlot
_TEXT	ENDS
; Function compile flags: /Ogtp
; File E:\Metin2_server\SolWayneSF v6\ClientVS22\source\UserInterface\PythonSkillPet.cpp
; File C:\Program Files\Microsoft Visual Studio\2022\Community\VC\Tools\MSVC\14.34.31933\include\xtree
; File E:\Metin2_server\SolWayneSF v6\ClientVS22\source\UserInterface\PythonSkillPet.cpp
; File C:\Program Files\Microsoft Visual Studio\2022\Community\VC\Tools\MSVC\14.34.31933\include\xtree
; File C:\Program Files\Microsoft Visual Studio\2022\Community\VC\Tools\MSVC\14.34.31933\include\xstddef
; File C:\Program Files\Microsoft Visual Studio\2022\Community\VC\Tools\MSVC\14.34.31933\include\xtree
; File E:\Metin2_server\SolWayneSF v6\ClientVS22\source\UserInterface\PythonSkillPet.cpp
;	COMDAT ?GetSkillData@CPythonSkillPet@@QAEHKPAPAUSSkillDataPet@1@@Z
_TEXT	SEGMENT
__Loc$1 = -12						; size = 12
_dwSkillIndex$ = 8					; size = 4
_ppSkillData$ = 12					; size = 4
?GetSkillData@CPythonSkillPet@@QAEHKPAPAUSSkillDataPet@1@@Z PROC ; CPythonSkillPet::GetSkillData, COMDAT
; _this$ = ecx

; 159  : {

  00000	55		 push	 ebp
  00001	8b ec		 mov	 ebp, esp
  00003	83 ec 0c	 sub	 esp, 12			; 0000000cH
  00006	56		 push	 esi
; File C:\Program Files\Microsoft Visual Studio\2022\Community\VC\Tools\MSVC\14.34.31933\include\xtree

; 1367 :         const _Tree_find_result<_Nodeptr> _Loc = _Find_lower_bound(_Keyval);

  00007	8d 45 08	 lea	 eax, DWORD PTR _dwSkillIndex$[ebp]
  0000a	50		 push	 eax
; File E:\Metin2_server\SolWayneSF v6\ClientVS22\source\UserInterface\PythonSkillPet.cpp

; 160  : 	TSkillDataPetMap::iterator it = m_SkillDataPetMap.find(dwSkillIndex);

  0000b	8d 71 10	 lea	 esi, DWORD PTR [ecx+16]
; File C:\Program Files\Microsoft Visual Studio\2022\Community\VC\Tools\MSVC\14.34.31933\include\xtree

; 1367 :         const _Tree_find_result<_Nodeptr> _Loc = _Find_lower_bound(_Keyval);

  0000e	8d 45 f4	 lea	 eax, DWORD PTR __Loc$1[ebp]
  00011	8b ce		 mov	 ecx, esi
  00013	50		 push	 eax
  00014	e8 00 00 00 00	 call	 ??$_Find_lower_bound@K@?$_Tree@V?$_Tmap_traits@KUSSkillDataPet@CPythonSkillPet@@U?$less@K@std@@V?$allocator@U?$pair@$$CBKUSSkillDataPet@CPythonSkillPet@@@std@@@4@$0A@@std@@@std@@IBE?AU?$_Tree_find_result@PAU?$_Tree_node@U?$pair@$$CBKUSSkillDataPet@CPythonSkillPet@@@std@@PAX@std@@@1@ABK@Z ; std::_Tree<std::_Tmap_traits<unsigned long,CPythonSkillPet::SSkillDataPet,std::less<unsigned long>,std::allocator<std::pair<unsigned long const ,CPythonSkillPet::SSkillDataPet> >,0> >::_Find_lower_bound<unsigned long>

; 1605 :         return !_Bound->_Isnil && !_DEBUG_LT_PRED(_Getcomp(), _Keyval, _Traits::_Kfn(_Bound->_Myval));

  00019	8b 4d fc	 mov	 ecx, DWORD PTR __Loc$1[ebp+8]
  0001c	80 79 0d 00	 cmp	 BYTE PTR [ecx+13], 0
  00020	75 20		 jne	 SHORT $LN37@GetSkillDa
; File C:\Program Files\Microsoft Visual Studio\2022\Community\VC\Tools\MSVC\14.34.31933\include\xstddef

; 143  :         return _Left < _Right;

  00022	8b 45 08	 mov	 eax, DWORD PTR _dwSkillIndex$[ebp]
  00025	3b 41 10	 cmp	 eax, DWORD PTR [ecx+16]
; File C:\Program Files\Microsoft Visual Studio\2022\Community\VC\Tools\MSVC\14.34.31933\include\xtree

; 1605 :         return !_Bound->_Isnil && !_DEBUG_LT_PRED(_Getcomp(), _Keyval, _Traits::_Kfn(_Bound->_Myval));

  00028	72 18		 jb	 SHORT $LN37@GetSkillDa

; 233  :         return this->_Ptr == _Right._Ptr;

  0002a	39 0e		 cmp	 DWORD PTR [esi], ecx
; File E:\Metin2_server\SolWayneSF v6\ClientVS22\source\UserInterface\PythonSkillPet.cpp

; 162  : 	if (m_SkillDataPetMap.end() == it)

  0002c	74 14		 je	 SHORT $LN37@GetSkillDa

; 164  : 
; 165  : 	*ppSkillData = &(it->second);

  0002e	8b 45 0c	 mov	 eax, DWORD PTR _ppSkillData$[ebp]
  00031	83 c1 14	 add	 ecx, 20			; 00000014H
  00034	5e		 pop	 esi
  00035	89 08		 mov	 DWORD PTR [eax], ecx

; 166  : 	return TRUE;

  00037	b8 01 00 00 00	 mov	 eax, 1

; 167  : }

  0003c	8b e5		 mov	 esp, ebp
  0003e	5d		 pop	 ebp
  0003f	c2 08 00	 ret	 8
$LN37@GetSkillDa:

; 163  : 		return FALSE;

  00042	33 c0		 xor	 eax, eax
  00044	5e		 pop	 esi

; 167  : }

  00045	8b e5		 mov	 esp, ebp
  00047	5d		 pop	 ebp
  00048	c2 08 00	 ret	 8
?GetSkillData@CPythonSkillPet@@QAEHKPAPAUSSkillDataPet@1@@Z ENDP ; CPythonSkillPet::GetSkillData
_TEXT	ENDS
; Function compile flags: /Ogtp
; File E:\Metin2_server\SolWayneSF v6\ClientVS22\source\UserInterface\PythonSkillPet.cpp
;	COMDAT ?GetSkillIndex@CPythonSkillPet@@QAEHHPAH@Z
_TEXT	SEGMENT
_slot$ = 8						; size = 4
_skillIndex$ = 12					; size = 4
?GetSkillIndex@CPythonSkillPet@@QAEHHPAH@Z PROC		; CPythonSkillPet::GetSkillIndex, COMDAT
; _this$ = ecx

; 170  : {

  00000	55		 push	 ebp
  00001	8b ec		 mov	 ebp, esp

; 171  : 	*skillIndex = petslot[slot];

  00003	8b 45 08	 mov	 eax, DWORD PTR _slot$[ebp]
  00006	8b 4c 81 04	 mov	 ecx, DWORD PTR [ecx+eax*4+4]
  0000a	8b 45 0c	 mov	 eax, DWORD PTR _skillIndex$[ebp]
  0000d	89 08		 mov	 DWORD PTR [eax], ecx

; 172  : 	return TRUE;

  0000f	b8 01 00 00 00	 mov	 eax, 1

; 173  : }

  00014	5d		 pop	 ebp
  00015	c2 08 00	 ret	 8
?GetSkillIndex@CPythonSkillPet@@QAEHHPAH@Z ENDP		; CPythonSkillPet::GetSkillIndex
_TEXT	ENDS
; Function compile flags: /Ogtp
; File E:\Metin2_server\SolWayneSF v6\ClientVS22\source\UserInterface\PythonSkillPet.cpp
;	COMDAT ?petskillSetSkillSlot@@YAPAU_object@@PAU1@0@Z
_TEXT	SEGMENT
_slot$ = -8						; size = 4
_skillIndex$ = -4					; size = 4
_poSelf$ = 8						; size = 4
_poArgs$ = 12						; size = 4
?petskillSetSkillSlot@@YAPAU_object@@PAU1@0@Z PROC	; petskillSetSkillSlot, COMDAT

; 176  : {

  00000	55		 push	 ebp
  00001	8b ec		 mov	 ebp, esp
  00003	83 ec 08	 sub	 esp, 8

; 177  : 	int slot;
; 178  : 	int skillIndex;
; 179  : 
; 180  : 	if (!PyTuple_GetInteger(poArgs, 0, &slot))

  00006	8d 45 f8	 lea	 eax, DWORD PTR _slot$[ebp]
  00009	50		 push	 eax
  0000a	6a 00		 push	 0
  0000c	ff 75 0c	 push	 DWORD PTR _poArgs$[ebp]
  0000f	e8 00 00 00 00	 call	 ?PyTuple_GetInteger@@YA_NPAU_object@@HPAH@Z ; PyTuple_GetInteger
  00014	83 c4 0c	 add	 esp, 12			; 0000000cH
  00017	84 c0		 test	 al, al
  00019	75 09		 jne	 SHORT $LN2@petskillSe
$LN5@petskillSe:

; 186  : }

  0001b	e8 00 00 00 00	 call	 ?Py_BadArgument@@YAPAU_object@@XZ ; Py_BadArgument
  00020	8b e5		 mov	 esp, ebp
  00022	5d		 pop	 ebp
  00023	c3		 ret	 0
$LN2@petskillSe:

; 181  : 		return Py_BadArgument();
; 182  : 	if (!PyTuple_GetInteger(poArgs, 1, &skillIndex))

  00024	8d 45 fc	 lea	 eax, DWORD PTR _skillIndex$[ebp]
  00027	50		 push	 eax
  00028	6a 01		 push	 1
  0002a	ff 75 0c	 push	 DWORD PTR _poArgs$[ebp]
  0002d	e8 00 00 00 00	 call	 ?PyTuple_GetInteger@@YA_NPAU_object@@HPAH@Z ; PyTuple_GetInteger
  00032	83 c4 0c	 add	 esp, 12			; 0000000cH
  00035	84 c0		 test	 al, al
  00037	74 e2		 je	 SHORT $LN5@petskillSe

; 183  : 		return Py_BadArgument();
; 184  : 	CPythonSkillPet::Instance().SetSkillbySlot(slot, skillIndex);

  00039	ff 75 fc	 push	 DWORD PTR _skillIndex$[ebp]
  0003c	8b 0d 00 00 00
	00		 mov	 ecx, DWORD PTR ?ms_singleton@?$CSingleton@VCPythonSkillPet@@@@0PAVCPythonSkillPet@@A ; CSingleton<CPythonSkillPet>::ms_singleton
  00042	ff 75 f8	 push	 DWORD PTR _slot$[ebp]
  00045	e8 00 00 00 00	 call	 ?SetSkillbySlot@CPythonSkillPet@@QAEXHH@Z ; CPythonSkillPet::SetSkillbySlot

; 185  : 	return Py_BuildValue("i", 0);

  0004a	6a 00		 push	 0
  0004c	68 00 00 00 00	 push	 OFFSET ??_C@_01KBJDNOO@i@
  00051	ff 15 00 00 00
	00		 call	 DWORD PTR __imp__Py_BuildValue
  00057	83 c4 08	 add	 esp, 8

; 186  : }

  0005a	8b e5		 mov	 esp, ebp
  0005c	5d		 pop	 ebp
  0005d	c3		 ret	 0
?petskillSetSkillSlot@@YAPAU_object@@PAU1@0@Z ENDP	; petskillSetSkillSlot
_TEXT	ENDS
; Function compile flags: /Ogtp
; File E:\Metin2_server\SolWayneSF v6\ClientVS22\source\UserInterface\PythonSkillPet.cpp
;	COMDAT ?petskillGetIconImage@@YAPAU_object@@PAU1@0@Z
_TEXT	SEGMENT
_c_pSkillData$ = -8					; size = 4
_iSkillIndex$ = -4					; size = 4
_poSelf$ = 8						; size = 4
_poArgs$ = 12						; size = 4
?petskillGetIconImage@@YAPAU_object@@PAU1@0@Z PROC	; petskillGetIconImage, COMDAT

; 189  : {

  00000	55		 push	 ebp
  00001	8b ec		 mov	 ebp, esp
  00003	83 ec 08	 sub	 esp, 8

; 190  : 	int iSkillIndex;
; 191  : 	if (!PyTuple_GetInteger(poArgs, 0, &iSkillIndex))

  00006	8d 45 fc	 lea	 eax, DWORD PTR _iSkillIndex$[ebp]
  00009	50		 push	 eax
  0000a	6a 00		 push	 0
  0000c	ff 75 0c	 push	 DWORD PTR _poArgs$[ebp]
  0000f	e8 00 00 00 00	 call	 ?PyTuple_GetInteger@@YA_NPAU_object@@HPAH@Z ; PyTuple_GetInteger
  00014	83 c4 0c	 add	 esp, 12			; 0000000cH
  00017	84 c0		 test	 al, al
  00019	75 09		 jne	 SHORT $LN2@petskillGe

; 192  : 		return Py_BadArgument();

  0001b	e8 00 00 00 00	 call	 ?Py_BadArgument@@YAPAU_object@@XZ ; Py_BadArgument

; 199  : }

  00020	8b e5		 mov	 esp, ebp
  00022	5d		 pop	 ebp
  00023	c3		 ret	 0
$LN2@petskillGe:

; 193  : 
; 194  : 	CPythonSkillPet::SSkillDataPet * c_pSkillData;
; 195  : 	if (!CPythonSkillPet::Instance().GetSkillData(iSkillIndex, &c_pSkillData))

  00024	8b 0d 00 00 00
	00		 mov	 ecx, DWORD PTR ?ms_singleton@?$CSingleton@VCPythonSkillPet@@@@0PAVCPythonSkillPet@@A ; CSingleton<CPythonSkillPet>::ms_singleton
  0002a	8d 45 f8	 lea	 eax, DWORD PTR _c_pSkillData$[ebp]
  0002d	50		 push	 eax
  0002e	ff 75 fc	 push	 DWORD PTR _iSkillIndex$[ebp]
  00031	e8 00 00 00 00	 call	 ?GetSkillData@CPythonSkillPet@@QAEHKPAPAUSSkillDataPet@1@@Z ; CPythonSkillPet::GetSkillData
  00036	85 c0		 test	 eax, eax
  00038	75 13		 jne	 SHORT $LN3@petskillGe

; 196  : 		return Py_BuildValue("i", 0);	//    0 .

  0003a	50		 push	 eax

; 199  : }

  0003b	68 00 00 00 00	 push	 OFFSET ??_C@_01KBJDNOO@i@
  00040	ff 15 00 00 00
	00		 call	 DWORD PTR __imp__Py_BuildValue
  00046	83 c4 08	 add	 esp, 8
  00049	8b e5		 mov	 esp, ebp
  0004b	5d		 pop	 ebp
  0004c	c3		 ret	 0
$LN3@petskillGe:

; 197  : 
; 198  : 	return Py_BuildValue("i", c_pSkillData->pImage);

  0004d	8b 45 f8	 mov	 eax, DWORD PTR _c_pSkillData$[ebp]
  00050	ff 70 54	 push	 DWORD PTR [eax+84]

; 199  : }

  00053	68 00 00 00 00	 push	 OFFSET ??_C@_01KBJDNOO@i@
  00058	ff 15 00 00 00
	00		 call	 DWORD PTR __imp__Py_BuildValue
  0005e	83 c4 08	 add	 esp, 8
  00061	8b e5		 mov	 esp, ebp
  00063	5d		 pop	 ebp
  00064	c3		 ret	 0
?petskillGetIconImage@@YAPAU_object@@PAU1@0@Z ENDP	; petskillGetIconImage
_TEXT	ENDS
; Function compile flags: /Ogtp
; File E:\Metin2_server\SolWayneSF v6\ClientVS22\source\UserInterface\PythonSkillPet.cpp
;	COMDAT ?petskillGetSkillbySlot@@YAPAU_object@@PAU1@0@Z
_TEXT	SEGMENT
_skillIndex$ = -8					; size = 4
_slot$ = -4						; size = 4
_poSelf$ = 8						; size = 4
_poArgs$ = 12						; size = 4
?petskillGetSkillbySlot@@YAPAU_object@@PAU1@0@Z PROC	; petskillGetSkillbySlot, COMDAT

; 202  : {

  00000	55		 push	 ebp
  00001	8b ec		 mov	 ebp, esp
  00003	83 ec 08	 sub	 esp, 8

; 203  : 	int slot;
; 204  : 	int skillIndex;
; 205  : 	if (!PyTuple_GetInteger(poArgs, 0, &slot))

  00006	8d 45 fc	 lea	 eax, DWORD PTR _slot$[ebp]
  00009	50		 push	 eax
  0000a	6a 00		 push	 0
  0000c	ff 75 0c	 push	 DWORD PTR _poArgs$[ebp]
  0000f	e8 00 00 00 00	 call	 ?PyTuple_GetInteger@@YA_NPAU_object@@HPAH@Z ; PyTuple_GetInteger
  00014	83 c4 0c	 add	 esp, 12			; 0000000cH
  00017	84 c0		 test	 al, al
  00019	75 09		 jne	 SHORT $LN2@petskillGe
$LN7@petskillGe:

; 215  : 
; 216  : }

  0001b	e8 00 00 00 00	 call	 ?Py_BadArgument@@YAPAU_object@@XZ ; Py_BadArgument
  00020	8b e5		 mov	 esp, ebp
  00022	5d		 pop	 ebp
  00023	c3		 ret	 0
$LN2@petskillGe:

; 206  : 		return Py_BadArgument();
; 207  : 
; 208  : 	if (slot > 2)

  00024	8b 45 fc	 mov	 eax, DWORD PTR _slot$[ebp]
  00027	83 f8 02	 cmp	 eax, 2
  0002a	7f ef		 jg	 SHORT $LN7@petskillGe

; 209  : 		return Py_BadArgument();
; 210  : 
; 211  : 	if (!CPythonSkillPet::Instance().GetSkillIndex(slot, &skillIndex))

  0002c	8d 4d f8	 lea	 ecx, DWORD PTR _skillIndex$[ebp]
  0002f	51		 push	 ecx
  00030	8b 0d 00 00 00
	00		 mov	 ecx, DWORD PTR ?ms_singleton@?$CSingleton@VCPythonSkillPet@@@@0PAVCPythonSkillPet@@A ; CSingleton<CPythonSkillPet>::ms_singleton
  00036	50		 push	 eax
  00037	e8 00 00 00 00	 call	 ?GetSkillIndex@CPythonSkillPet@@QAEHHPAH@Z ; CPythonSkillPet::GetSkillIndex
  0003c	85 c0		 test	 eax, eax
  0003e	75 13		 jne	 SHORT $LN4@petskillGe

; 212  : 		return Py_BuildValue("i", 0);

  00040	50		 push	 eax

; 215  : 
; 216  : }

  00041	68 00 00 00 00	 push	 OFFSET ??_C@_01KBJDNOO@i@
  00046	ff 15 00 00 00
	00		 call	 DWORD PTR __imp__Py_BuildValue
  0004c	83 c4 08	 add	 esp, 8
  0004f	8b e5		 mov	 esp, ebp
  00051	5d		 pop	 ebp
  00052	c3		 ret	 0
$LN4@petskillGe:

; 213  : 
; 214  : 	return Py_BuildValue("i", skillIndex);

  00053	ff 75 f8	 push	 DWORD PTR _skillIndex$[ebp]

; 215  : 
; 216  : }

  00056	68 00 00 00 00	 push	 OFFSET ??_C@_01KBJDNOO@i@
  0005b	ff 15 00 00 00
	00		 call	 DWORD PTR __imp__Py_BuildValue
  00061	83 c4 08	 add	 esp, 8
  00064	8b e5		 mov	 esp, ebp
  00066	5d		 pop	 ebp
  00067	c3		 ret	 0
?petskillGetSkillbySlot@@YAPAU_object@@PAU1@0@Z ENDP	; petskillGetSkillbySlot
_TEXT	ENDS
; Function compile flags: /Ogtp
; File E:\Metin2_server\SolWayneSF v6\ClientVS22\source\UserInterface\PythonSkillPet.cpp
;	COMDAT ?petskillGetEmptySkill@@YAPAU_object@@PAU1@0@Z
_TEXT	SEGMENT
_szIconFileNameHeader$ = -72				; size = 65
__$ArrayPad$ = -4					; size = 4
_poSelf$ = 8						; size = 4
_poArgs$ = 12						; size = 4
?petskillGetEmptySkill@@YAPAU_object@@PAU1@0@Z PROC	; petskillGetEmptySkill, COMDAT

; 219  : {

  00000	55		 push	 ebp
  00001	8b ec		 mov	 ebp, esp
  00003	83 ec 48	 sub	 esp, 72			; 00000048H
  00006	a1 00 00 00 00	 mov	 eax, DWORD PTR ___security_cookie
  0000b	33 c5		 xor	 eax, ebp
  0000d	89 45 fc	 mov	 DWORD PTR __$ArrayPad$[ebp], eax

; 220  : 	CGraphicImage * noskillbtn;
; 221  : 	char szIconFileNameHeader[64 + 1];
; 222  : 	_snprintf(szIconFileNameHeader, sizeof(szIconFileNameHeader), "d:/ymir work/ui/pet/skill_button/skill_enable_button.sub");

  00010	68 00 00 00 00	 push	 OFFSET ??_C@_0DJ@NNOBFEBF@d?3?1ymir?5work?1ui?1pet?1skill_butto@
  00015	8d 45 b8	 lea	 eax, DWORD PTR _szIconFileNameHeader$[ebp]
  00018	6a 41		 push	 65			; 00000041H
  0001a	50		 push	 eax
  0001b	e8 00 00 00 00	 call	 __snprintf

; 223  : 	noskillbtn = (CGraphicImage *)CResourceManager::Instance().GetResourcePointer(szIconFileNameHeader);

  00020	8b 0d 00 00 00
	00		 mov	 ecx, DWORD PTR ?ms_singleton@?$CSingleton@VCResourceManager@@@@0PAVCResourceManager@@A ; CSingleton<CResourceManager>::ms_singleton
  00026	8d 45 b8	 lea	 eax, DWORD PTR _szIconFileNameHeader$[ebp]
  00029	83 c4 0c	 add	 esp, 12			; 0000000cH
  0002c	50		 push	 eax
  0002d	e8 00 00 00 00	 call	 ?GetResourcePointer@CResourceManager@@QAEPAVCResource@@PBD@Z ; CResourceManager::GetResourcePointer

; 224  : 	return Py_BuildValue("i", noskillbtn);

  00032	50		 push	 eax
  00033	68 00 00 00 00	 push	 OFFSET ??_C@_01KBJDNOO@i@
  00038	ff 15 00 00 00
	00		 call	 DWORD PTR __imp__Py_BuildValue

; 225  : }

  0003e	8b 4d fc	 mov	 ecx, DWORD PTR __$ArrayPad$[ebp]
  00041	83 c4 08	 add	 esp, 8
  00044	33 cd		 xor	 ecx, ebp
  00046	e8 00 00 00 00	 call	 @__security_check_cookie@4
  0004b	8b e5		 mov	 esp, ebp
  0004d	5d		 pop	 ebp
  0004e	c3		 ret	 0
?petskillGetEmptySkill@@YAPAU_object@@PAU1@0@Z ENDP	; petskillGetEmptySkill
_TEXT	ENDS
; Function compile flags: /Ogtp
; File E:\Metin2_server\SolWayneSF v6\ClientVS22\source\UserInterface\PythonSkillPet.cpp
;	COMDAT ?initskillpet@@YAXXZ
_TEXT	SEGMENT
?initskillpet@@YAXXZ PROC				; initskillpet, COMDAT

; 229  : 	static PyMethodDef s_methods[] =
; 230  : 	{
; 231  : 		///Variabili setting //
; 232  : 		{ "SetSkillSlot",					petskillSetSkillSlot,						METH_VARARGS },
; 233  : 
; 234  : 
; 235  : 		//Variabili Get //
; 236  : 		
; 237  : 		{ "GetIconImage",					petskillGetIconImage,						METH_VARARGS },
; 238  : 		{ "GetSkillbySlot",					petskillGetSkillbySlot ,					METH_VARARGS },
; 239  : 		{ "GetEmptySkill",					petskillGetEmptySkill,						METH_VARARGS },
; 240  : 
; 241  : 		{ NULL,										NULL,										NULL },
; 242  : 	};
; 243  : 
; 244  : 	PyObject * poModule = Py_InitModule("petskill", s_methods);

  00000	68 f5 03 00 00	 push	 1013			; 000003f5H
  00005	6a 00		 push	 0
  00007	6a 00		 push	 0
  00009	68 00 00 00 00	 push	 OFFSET ?s_methods@?1??initskillpet@@YAXXZ@4PAUPyMethodDef@@A
  0000e	68 00 00 00 00	 push	 OFFSET ??_C@_08MEIGOFDG@petskill@
  00013	ff 15 00 00 00
	00		 call	 DWORD PTR __imp__Py_InitModule4
  00019	83 c4 14	 add	 esp, 20			; 00000014H

; 245  : }

  0001c	c3		 ret	 0
?initskillpet@@YAXXZ ENDP				; initskillpet
_TEXT	ENDS
; Function compile flags: /Ogtp
; File C:\Program Files\Microsoft Visual Studio\2022\Community\VC\Tools\MSVC\14.34.31933\include\xtree
;	COMDAT ??C?$_Tree_iterator@V?$_Tree_val@U?$_Tree_simple_types@U?$pair@$$CBKUSSkillDataPet@CPythonSkillPet@@@std@@@std@@@std@@@std@@QBEPAU?$pair@$$CBKUSSkillDataPet@CPythonSkillPet@@@1@XZ
_TEXT	SEGMENT
??C?$_Tree_iterator@V?$_Tree_val@U?$_Tree_simple_types@U?$pair@$$CBKUSSkillDataPet@CPythonSkillPet@@@std@@@std@@@std@@@std@@QBEPAU?$pair@$$CBKUSSkillDataPet@CPythonSkillPet@@@1@XZ PROC ; std::_Tree_iterator<std::_Tree_val<std::_Tree_simple_types<std::pair<unsigned long const ,CPythonSkillPet::SSkillDataPet> > > >::operator->, COMDAT
; _this$ = ecx

; 186  :         return this->_Ptr->_Myval;

  00000	8b 01		 mov	 eax, DWORD PTR [ecx]
  00002	83 c0 10	 add	 eax, 16			; 00000010H

; 279  :         return pointer_traits<pointer>::pointer_to(**this);
; 280  :     }

  00005	c3		 ret	 0
??C?$_Tree_iterator@V?$_Tree_val@U?$_Tree_simple_types@U?$pair@$$CBKUSSkillDataPet@CPythonSkillPet@@@std@@@std@@@std@@@std@@QBEPAU?$pair@$$CBKUSSkillDataPet@CPythonSkillPet@@@1@XZ ENDP ; std::_Tree_iterator<std::_Tree_val<std::_Tree_simple_types<std::pair<unsigned long const ,CPythonSkillPet::SSkillDataPet> > > >::operator->
_TEXT	ENDS
; Function compile flags: /Ogtp
; File C:\Program Files\Microsoft Visual Studio\2022\Community\VC\Tools\MSVC\14.34.31933\include\xtree
;	COMDAT ??8?$_Tree_const_iterator@V?$_Tree_val@U?$_Tree_simple_types@U?$pair@$$CBKUSSkillDataPet@CPythonSkillPet@@@std@@@std@@@std@@@std@@QBE_NABV01@@Z
_TEXT	SEGMENT
__Right$ = 8						; size = 4
??8?$_Tree_const_iterator@V?$_Tree_val@U?$_Tree_simple_types@U?$pair@$$CBKUSSkillDataPet@CPythonSkillPet@@@std@@@std@@@std@@@std@@QBE_NABV01@@Z PROC ; std::_Tree_const_iterator<std::_Tree_val<std::_Tree_simple_types<std::pair<unsigned long const ,CPythonSkillPet::SSkillDataPet> > > >::operator==, COMDAT
; _this$ = ecx

; 228  :     _NODISCARD bool operator==(const _Tree_const_iterator& _Right) const noexcept {

  00000	55		 push	 ebp
  00001	8b ec		 mov	 ebp, esp

; 229  : #if _ITERATOR_DEBUG_LEVEL == 2
; 230  :         _STL_VERIFY(this->_Getcont() == _Right._Getcont(), "map/set iterators incompatible");
; 231  : #endif // _ITERATOR_DEBUG_LEVEL == 2
; 232  : 
; 233  :         return this->_Ptr == _Right._Ptr;

  00003	8b 45 08	 mov	 eax, DWORD PTR __Right$[ebp]
  00006	8b 09		 mov	 ecx, DWORD PTR [ecx]
  00008	3b 08		 cmp	 ecx, DWORD PTR [eax]
  0000a	0f 94 c0	 sete	 al

; 234  :     }

  0000d	5d		 pop	 ebp
  0000e	c2 04 00	 ret	 4
??8?$_Tree_const_iterator@V?$_Tree_val@U?$_Tree_simple_types@U?$pair@$$CBKUSSkillDataPet@CPythonSkillPet@@@std@@@std@@@std@@@std@@QBE_NABV01@@Z ENDP ; std::_Tree_const_iterator<std::_Tree_val<std::_Tree_simple_types<std::pair<unsigned long const ,CPythonSkillPet::SSkillDataPet> > > >::operator==
_TEXT	ENDS
; Function compile flags: /Ogtp
; File C:\Program Files\Microsoft Visual Studio\2022\Community\VC\Tools\MSVC\14.34.31933\include\map
; File C:\Program Files\Microsoft Visual Studio\2022\Community\VC\Tools\MSVC\14.34.31933\include\xtree
; File C:\Program Files\Microsoft Visual Studio\2022\Community\VC\Tools\MSVC\14.34.31933\include\map
; File C:\Program Files\Microsoft Visual Studio\2022\Community\VC\Tools\MSVC\14.34.31933\include\xmemory
; File C:\Program Files\Microsoft Visual Studio\2022\Community\VC\Tools\MSVC\14.34.31933\include\xtree
; File C:\Program Files\Microsoft Visual Studio\2022\Community\VC\Tools\MSVC\14.34.31933\include\xmemory
; File C:\Program Files\Microsoft Visual Studio\2022\Community\VC\Tools\MSVC\14.34.31933\include\xtree
; File C:\Program Files\Microsoft Visual Studio\2022\Community\VC\Tools\MSVC\14.34.31933\include\map
; File C:\Program Files\Microsoft Visual Studio\2022\Community\VC\Tools\MSVC\14.34.31933\include\xtree
; File C:\Program Files\Microsoft Visual Studio\2022\Community\VC\Tools\MSVC\14.34.31933\include\map
; File C:\Program Files\Microsoft Visual Studio\2022\Community\VC\Tools\MSVC\14.34.31933\include\xtree
; File C:\Program Files\Microsoft Visual Studio\2022\Community\VC\Tools\MSVC\14.34.31933\include\map
; File C:\Program Files\Microsoft Visual Studio\2022\Community\VC\Tools\MSVC\14.34.31933\include\xtree
; File C:\Program Files\Microsoft Visual Studio\2022\Community\VC\Tools\MSVC\14.34.31933\include\map
;	COMDAT ??A?$map@KUSSkillDataPet@CPythonSkillPet@@U?$less@K@std@@V?$allocator@U?$pair@$$CBKUSSkillDataPet@CPythonSkillPet@@@std@@@4@@std@@QAEAAUSSkillDataPet@CPythonSkillPet@@ABK@Z
_TEXT	SEGMENT
__Loc$3 = -32						; size = 12
$T4 = -20						; size = 8
__$EHRec$ = -12						; size = 12
__Keyval$ = 8						; size = 4
??A?$map@KUSSkillDataPet@CPythonSkillPet@@U?$less@K@std@@V?$allocator@U?$pair@$$CBKUSSkillDataPet@CPythonSkillPet@@@std@@@4@@std@@QAEAAUSSkillDataPet@CPythonSkillPet@@ABK@Z PROC ; std::map<unsigned long,CPythonSkillPet::SSkillDataPet,std::less<unsigned long>,std::allocator<std::pair<unsigned long const ,CPythonSkillPet::SSkillDataPet> > >::operator[], COMDAT
; _this$ = ecx

; 344  :     mapped_type& operator[](const key_type& _Keyval) {

  00000	55		 push	 ebp
  00001	8b ec		 mov	 ebp, esp
  00003	6a ff		 push	 -1
  00005	68 00 00 00 00	 push	 __ehhandler$??A?$map@KUSSkillDataPet@CPythonSkillPet@@U?$less@K@std@@V?$allocator@U?$pair@$$CBKUSSkillDataPet@CPythonSkillPet@@@std@@@4@@std@@QAEAAUSSkillDataPet@CPythonSkillPet@@ABK@Z
  0000a	64 a1 00 00 00
	00		 mov	 eax, DWORD PTR fs:0
  00010	50		 push	 eax
  00011	83 ec 14	 sub	 esp, 20			; 00000014H
  00014	53		 push	 ebx
  00015	56		 push	 esi
  00016	57		 push	 edi
  00017	a1 00 00 00 00	 mov	 eax, DWORD PTR ___security_cookie
  0001c	33 c5		 xor	 eax, ebp
  0001e	50		 push	 eax
  0001f	8d 45 f4	 lea	 eax, DWORD PTR __$EHRec$[ebp]
  00022	64 a3 00 00 00
	00		 mov	 DWORD PTR fs:0, eax
  00028	8b d9		 mov	 ebx, ecx

; 196  :         const auto _Loc = _Mybase::_Find_lower_bound(_Keyval);

  0002a	8b 75 08	 mov	 esi, DWORD PTR __Keyval$[ebp]
  0002d	8d 45 e0	 lea	 eax, DWORD PTR __Loc$3[ebp]
  00030	56		 push	 esi
  00031	50		 push	 eax
  00032	e8 00 00 00 00	 call	 ??$_Find_lower_bound@K@?$_Tree@V?$_Tmap_traits@KUSSkillDataPet@CPythonSkillPet@@U?$less@K@std@@V?$allocator@U?$pair@$$CBKUSSkillDataPet@CPythonSkillPet@@@std@@@4@$0A@@std@@@std@@IBE?AU?$_Tree_find_result@PAU?$_Tree_node@U?$pair@$$CBKUSSkillDataPet@CPythonSkillPet@@@std@@PAX@std@@@1@ABK@Z ; std::_Tree<std::_Tmap_traits<unsigned long,CPythonSkillPet::SSkillDataPet,std::less<unsigned long>,std::allocator<std::pair<unsigned long const ,CPythonSkillPet::SSkillDataPet> >,0> >::_Find_lower_bound<unsigned long>
; File C:\Program Files\Microsoft Visual Studio\2022\Community\VC\Tools\MSVC\14.34.31933\include\xtree

; 1605 :         return !_Bound->_Isnil && !_DEBUG_LT_PRED(_Getcomp(), _Keyval, _Traits::_Kfn(_Bound->_Myval));

  00037	8b 55 e8	 mov	 edx, DWORD PTR __Loc$3[ebp+8]
  0003a	80 7a 0d 00	 cmp	 BYTE PTR [edx+13], 0
  0003e	75 07		 jne	 SHORT $LN4@operator
  00040	8b 06		 mov	 eax, DWORD PTR [esi]
  00042	3b 42 10	 cmp	 eax, DWORD PTR [edx+16]
  00045	73 60		 jae	 SHORT $LN3@operator
$LN4@operator:

; 1629 :         if (max_size() == _Get_scary()->_Mysize) {

  00047	81 7b 04 97 d0
	5e 02		 cmp	 DWORD PTR [ebx+4], 39768215 ; 025ed097H
  0004e	74 6e		 je	 SHORT $LN122@operator
; File C:\Program Files\Microsoft Visual Studio\2022\Community\VC\Tools\MSVC\14.34.31933\include\map

; 204  :         const auto _Inserted = _Tree_temp_node<_Alnode>(_Mybase::_Getal(), _Scary->_Myhead, piecewise_construct,

  00050	8b 3b		 mov	 edi, DWORD PTR [ebx]
; File C:\Program Files\Microsoft Visual Studio\2022\Community\VC\Tools\MSVC\14.34.31933\include\xmemory

; 1005 :     _CONSTEXPR20 explicit _Alloc_construct_ptr(_Alloc& _Al_) : _Al(_Al_), _Ptr(nullptr) {}

  00052	89 5d ec	 mov	 DWORD PTR $T4[ebp], ebx
; File C:\Program Files\Microsoft Visual Studio\2022\Community\VC\Tools\MSVC\14.34.31933\include\xtree

; 785  :     explicit _Tree_temp_node_alloc(_Alnode& _Al_) : _Alloc_construct_ptr<_Alnode>(_Al_) {

  00055	c7 45 fc 00 00
	00 00		 mov	 DWORD PTR __$EHRec$[ebp+8], 0
; File C:\Program Files\Microsoft Visual Studio\2022\Community\VC\Tools\MSVC\14.34.31933\include\xmemory

; 77   :         return ::operator new(_Bytes);

  0005c	6a 6c		 push	 108			; 0000006cH

; 1012 :         _Ptr = nullptr; // if allocate throws, prevents double-free

  0005e	c7 45 f0 00 00
	00 00		 mov	 DWORD PTR $T4[ebp+4], 0

; 77   :         return ::operator new(_Bytes);

  00065	e8 00 00 00 00	 call	 ??2@YAPAXI@Z		; operator new

; 1013 :         _Ptr = _Al.allocate(1);

  0006a	8b f0		 mov	 esi, eax

; 77   :         return ::operator new(_Bytes);

  0006c	83 c4 04	 add	 esp, 4

; 1013 :         _Ptr = _Al.allocate(1);

  0006f	89 75 f0	 mov	 DWORD PTR $T4[ebp+4], esi
; File C:\Program Files\Microsoft Visual Studio\2022\Community\VC\Tools\MSVC\14.34.31933\include\xtree

; 808  :         _Construct_in_place(this->_Ptr->_Left, _Myhead);

  00072	8b 45 08	 mov	 eax, DWORD PTR __Keyval$[ebp]
  00075	8d 4e 14	 lea	 ecx, DWORD PTR [esi+20]
  00078	c7 45 fc 01 00
	00 00		 mov	 DWORD PTR __$EHRec$[ebp+8], 1
  0007f	8b 00		 mov	 eax, DWORD PTR [eax]
  00081	89 46 10	 mov	 DWORD PTR [esi+16], eax
  00084	e8 00 00 00 00	 call	 ??0SSkillDataPet@CPythonSkillPet@@QAE@XZ ; CPythonSkillPet::SSkillDataPet::SSkillDataPet
; File C:\Program Files\Microsoft Visual Studio\2022\Community\VC\Tools\MSVC\14.34.31933\include\map

; 210  :         return {_Scary->_Insert_node(_Loc._Location, _Inserted), true};

  00089	56		 push	 esi
  0008a	ff 75 e4	 push	 DWORD PTR __Loc$3[ebp+4]
; File C:\Program Files\Microsoft Visual Studio\2022\Community\VC\Tools\MSVC\14.34.31933\include\xtree

; 808  :         _Construct_in_place(this->_Ptr->_Left, _Myhead);

  0008d	89 3e		 mov	 DWORD PTR [esi], edi
; File C:\Program Files\Microsoft Visual Studio\2022\Community\VC\Tools\MSVC\14.34.31933\include\map

; 210  :         return {_Scary->_Insert_node(_Loc._Location, _Inserted), true};

  0008f	8b cb		 mov	 ecx, ebx
  00091	ff 75 e0	 push	 DWORD PTR __Loc$3[ebp]
; File C:\Program Files\Microsoft Visual Studio\2022\Community\VC\Tools\MSVC\14.34.31933\include\xtree

; 809  :         _Construct_in_place(this->_Ptr->_Parent, _Myhead);

  00094	89 7e 04	 mov	 DWORD PTR [esi+4], edi

; 810  :         _Construct_in_place(this->_Ptr->_Right, _Myhead);

  00097	89 7e 08	 mov	 DWORD PTR [esi+8], edi

; 811  :         this->_Ptr->_Color = _Red;

  0009a	66 c7 46 0c 00
	00		 mov	 WORD PTR [esi+12], 0
; File C:\Program Files\Microsoft Visual Studio\2022\Community\VC\Tools\MSVC\14.34.31933\include\map

; 210  :         return {_Scary->_Insert_node(_Loc._Location, _Inserted), true};

  000a0	e8 00 00 00 00	 call	 ?_Insert_node@?$_Tree_val@U?$_Tree_simple_types@U?$pair@$$CBKUSSkillDataPet@CPythonSkillPet@@@std@@@std@@@std@@QAEPAU?$_Tree_node@U?$pair@$$CBKUSSkillDataPet@CPythonSkillPet@@@std@@PAX@2@U?$_Tree_id@PAU?$_Tree_node@U?$pair@$$CBKUSSkillDataPet@CPythonSkillPet@@@std@@PAX@std@@@2@QAU32@@Z ; std::_Tree_val<std::_Tree_simple_types<std::pair<unsigned long const ,CPythonSkillPet::SSkillDataPet> > >::_Insert_node
  000a5	8b d0		 mov	 edx, eax
$LN3@operator:

; 345  :         return _Try_emplace(_Keyval).first->_Myval.second;

  000a7	8d 42 14	 lea	 eax, DWORD PTR [edx+20]

; 346  :     }

  000aa	8b 4d f4	 mov	 ecx, DWORD PTR __$EHRec$[ebp]
  000ad	64 89 0d 00 00
	00 00		 mov	 DWORD PTR fs:0, ecx
  000b4	59		 pop	 ecx
  000b5	5f		 pop	 edi
  000b6	5e		 pop	 esi
  000b7	5b		 pop	 ebx
  000b8	8b e5		 mov	 esp, ebp
  000ba	5d		 pop	 ebp
  000bb	c2 04 00	 ret	 4
$LN122@operator:
; File C:\Program Files\Microsoft Visual Studio\2022\Community\VC\Tools\MSVC\14.34.31933\include\xtree

; 1630 :             _Throw_tree_length_error();

  000be	e8 00 00 00 00	 call	 ?_Throw_tree_length_error@std@@YAXXZ ; std::_Throw_tree_length_error
$LN120@operator:
  000c3	cc		 int	 3
_TEXT	ENDS
;	COMDAT text$x
text$x	SEGMENT
__unwindfunclet$??A?$map@KUSSkillDataPet@CPythonSkillPet@@U?$less@K@std@@V?$allocator@U?$pair@$$CBKUSSkillDataPet@CPythonSkillPet@@@std@@@4@@std@@QAEAAUSSkillDataPet@CPythonSkillPet@@ABK@Z$2:
  00000	8d 4d ec	 lea	 ecx, DWORD PTR $T4[ebp]
  00003	e9 00 00 00 00	 jmp	 ??1?$_Alloc_construct_ptr@V?$allocator@U?$_Tree_node@U?$pair@$$CBKUSSkillDataPet@CPythonSkillPet@@@std@@PAX@std@@@std@@@std@@QAE@XZ ; std::_Alloc_construct_ptr<std::allocator<std::_Tree_node<std::pair<unsigned long const ,CPythonSkillPet::SSkillDataPet>,void *> > >::~_Alloc_construct_ptr<std::allocator<std::_Tree_node<std::pair<unsigned long const ,CPythonSkillPet::SSkillDataPet>,void *> > >
__unwindfunclet$??A?$map@KUSSkillDataPet@CPythonSkillPet@@U?$less@K@std@@V?$allocator@U?$pair@$$CBKUSSkillDataPet@CPythonSkillPet@@@std@@@4@@std@@QAEAAUSSkillDataPet@CPythonSkillPet@@ABK@Z$1:
  00008	8d 4d ec	 lea	 ecx, DWORD PTR $T4[ebp]
  0000b	e9 00 00 00 00	 jmp	 ??1?$_Tree_temp_node_alloc@V?$allocator@U?$_Tree_node@U?$pair@$$CBKUSSkillDataPet@CPythonSkillPet@@@std@@PAX@std@@@std@@@std@@QAE@XZ
  00010	cc		 int	 3
  00011	cc		 int	 3
  00012	cc		 int	 3
  00013	cc		 int	 3
  00014	cc		 int	 3
__ehhandler$??A?$map@KUSSkillDataPet@CPythonSkillPet@@U?$less@K@std@@V?$allocator@U?$pair@$$CBKUSSkillDataPet@CPythonSkillPet@@@std@@@4@@std@@QAEAAUSSkillDataPet@CPythonSkillPet@@ABK@Z:
  00015	90		 npad	 1
  00016	90		 npad	 1
  00017	8b 54 24 08	 mov	 edx, DWORD PTR [esp+8]
  0001b	8d 42 0c	 lea	 eax, DWORD PTR [edx+12]
  0001e	8b 4a dc	 mov	 ecx, DWORD PTR [edx-36]
  00021	33 c8		 xor	 ecx, eax
  00023	e8 00 00 00 00	 call	 @__security_check_cookie@4
  00028	b8 00 00 00 00	 mov	 eax, OFFSET __ehfuncinfo$??A?$map@KUSSkillDataPet@CPythonSkillPet@@U?$less@K@std@@V?$allocator@U?$pair@$$CBKUSSkillDataPet@CPythonSkillPet@@@std@@@4@@std@@QAEAAUSSkillDataPet@CPythonSkillPet@@ABK@Z
  0002d	e9 00 00 00 00	 jmp	 ___CxxFrameHandler3
text$x	ENDS
??A?$map@KUSSkillDataPet@CPythonSkillPet@@U?$less@K@std@@V?$allocator@U?$pair@$$CBKUSSkillDataPet@CPythonSkillPet@@@std@@@4@@std@@QAEAAUSSkillDataPet@CPythonSkillPet@@ABK@Z ENDP ; std::map<unsigned long,CPythonSkillPet::SSkillDataPet,std::less<unsigned long>,std::allocator<std::pair<unsigned long const ,CPythonSkillPet::SSkillDataPet> > >::operator[]
; Function compile flags: /Ogtp
; File C:\Program Files\Microsoft Visual Studio\2022\Community\VC\Tools\MSVC\14.34.31933\include\map
; File C:\Program Files\Microsoft Visual Studio\2022\Community\VC\Tools\MSVC\14.34.31933\include\xmemory
; File C:\Program Files\Microsoft Visual Studio\2022\Community\VC\Tools\MSVC\14.34.31933\include\map
; File C:\Program Files\Microsoft Visual Studio\2022\Community\VC\Tools\MSVC\14.34.31933\include\xtree
; File C:\Program Files\Microsoft Visual Studio\2022\Community\VC\Tools\MSVC\14.34.31933\include\xmemory
; File C:\Program Files\Microsoft Visual Studio\2022\Community\VC\Tools\MSVC\14.34.31933\include\xtree
; File C:\Program Files\Microsoft Visual Studio\2022\Community\VC\Tools\MSVC\14.34.31933\include\map
;	COMDAT ??0?$map@KUSSkillDataPet@CPythonSkillPet@@U?$less@K@std@@V?$allocator@U?$pair@$$CBKUSSkillDataPet@CPythonSkillPet@@@std@@@4@@std@@QAE@XZ
_TEXT	SEGMENT
_this$ = -4						; size = 4
??0?$map@KUSSkillDataPet@CPythonSkillPet@@U?$less@K@std@@V?$allocator@U?$pair@$$CBKUSSkillDataPet@CPythonSkillPet@@@std@@@4@@std@@QAE@XZ PROC ; std::map<unsigned long,CPythonSkillPet::SSkillDataPet,std::less<unsigned long>,std::allocator<std::pair<unsigned long const ,CPythonSkillPet::SSkillDataPet> > >::map<unsigned long,CPythonSkillPet::SSkillDataPet,std::less<unsigned long>,std::allocator<std::pair<unsigned long const ,CPythonSkillPet::SSkillDataPet> > >, COMDAT
; _this$ = ecx

; 105  :     map() : _Mybase(key_compare()) {}

  00000	55		 push	 ebp
  00001	8b ec		 mov	 ebp, esp
  00003	51		 push	 ecx
  00004	56		 push	 esi
  00005	8b f1		 mov	 esi, ecx
; File C:\Program Files\Microsoft Visual Studio\2022\Community\VC\Tools\MSVC\14.34.31933\include\xmemory

; 77   :         return ::operator new(_Bytes);

  00007	6a 6c		 push	 108			; 0000006cH
; File C:\Program Files\Microsoft Visual Studio\2022\Community\VC\Tools\MSVC\14.34.31933\include\map

; 105  :     map() : _Mybase(key_compare()) {}

  00009	89 75 fc	 mov	 DWORD PTR _this$[ebp], esi
; File C:\Program Files\Microsoft Visual Studio\2022\Community\VC\Tools\MSVC\14.34.31933\include\xtree

; 437  :     _Tree_val() noexcept : _Myhead(), _Mysize(0) {}

  0000c	c7 06 00 00 00
	00		 mov	 DWORD PTR [esi], 0
  00012	c7 46 04 00 00
	00 00		 mov	 DWORD PTR [esi+4], 0
; File C:\Program Files\Microsoft Visual Studio\2022\Community\VC\Tools\MSVC\14.34.31933\include\xmemory

; 77   :         return ::operator new(_Bytes);

  00019	e8 00 00 00 00	 call	 ??2@YAPAXI@Z		; operator new
  0001e	83 c4 04	 add	 esp, 4
; File C:\Program Files\Microsoft Visual Studio\2022\Community\VC\Tools\MSVC\14.34.31933\include\xtree

; 347  :         _Construct_in_place(_Pnode->_Left, _Pnode);

  00021	89 00		 mov	 DWORD PTR [eax], eax

; 348  :         _Construct_in_place(_Pnode->_Parent, _Pnode);

  00023	89 40 04	 mov	 DWORD PTR [eax+4], eax

; 349  :         _Construct_in_place(_Pnode->_Right, _Pnode);

  00026	89 40 08	 mov	 DWORD PTR [eax+8], eax

; 350  :         _Pnode->_Color = _Black;

  00029	66 c7 40 0c 01
	01		 mov	 WORD PTR [eax+12], 257	; 00000101H

; 1941 :         _Scary->_Myhead = _Node::_Buyheadnode(_Getal());

  0002f	89 06		 mov	 DWORD PTR [esi], eax
; File C:\Program Files\Microsoft Visual Studio\2022\Community\VC\Tools\MSVC\14.34.31933\include\map

; 105  :     map() : _Mybase(key_compare()) {}

  00031	8b c6		 mov	 eax, esi
  00033	5e		 pop	 esi
  00034	8b e5		 mov	 esp, ebp
  00036	5d		 pop	 ebp
  00037	c3		 ret	 0
??0?$map@KUSSkillDataPet@CPythonSkillPet@@U?$less@K@std@@V?$allocator@U?$pair@$$CBKUSSkillDataPet@CPythonSkillPet@@@std@@@4@@std@@QAE@XZ ENDP ; std::map<unsigned long,CPythonSkillPet::SSkillDataPet,std::less<unsigned long>,std::allocator<std::pair<unsigned long const ,CPythonSkillPet::SSkillDataPet> > >::map<unsigned long,CPythonSkillPet::SSkillDataPet,std::less<unsigned long>,std::allocator<std::pair<unsigned long const ,CPythonSkillPet::SSkillDataPet> > >
_TEXT	ENDS
; Function compile flags: /Ogtp
; File C:\Program Files\Microsoft Visual Studio\2022\Community\VC\Tools\MSVC\14.34.31933\include\xtree
; File C:\Program Files\Microsoft Visual Studio\2022\Community\VC\Tools\MSVC\14.34.31933\include\xstddef
; File C:\Program Files\Microsoft Visual Studio\2022\Community\VC\Tools\MSVC\14.34.31933\include\xtree
;	COMDAT ?find@?$_Tree@V?$_Tmap_traits@KUSSkillDataPet@CPythonSkillPet@@U?$less@K@std@@V?$allocator@U?$pair@$$CBKUSSkillDataPet@CPythonSkillPet@@@std@@@4@$0A@@std@@@std@@QAE?AV?$_Tree_iterator@V?$_Tree_val@U?$_Tree_simple_types@U?$pair@$$CBKUSSkillDataPet@CPythonSkillPet@@@std@@@std@@@std@@@2@ABK@Z
_TEXT	SEGMENT
__Loc$1 = -12						; size = 12
___$ReturnUdt$ = 8					; size = 4
__Keyval$ = 12						; size = 4
?find@?$_Tree@V?$_Tmap_traits@KUSSkillDataPet@CPythonSkillPet@@U?$less@K@std@@V?$allocator@U?$pair@$$CBKUSSkillDataPet@CPythonSkillPet@@@std@@@4@$0A@@std@@@std@@QAE?AV?$_Tree_iterator@V?$_Tree_val@U?$_Tree_simple_types@U?$pair@$$CBKUSSkillDataPet@CPythonSkillPet@@@std@@@std@@@std@@@2@ABK@Z PROC ; std::_Tree<std::_Tmap_traits<unsigned long,CPythonSkillPet::SSkillDataPet,std::less<unsigned long>,std::allocator<std::pair<unsigned long const ,CPythonSkillPet::SSkillDataPet> >,0> >::find, COMDAT
; _this$ = ecx

; 1376 :     _NODISCARD iterator find(const key_type& _Keyval) {

  00000	55		 push	 ebp
  00001	8b ec		 mov	 ebp, esp
  00003	83 ec 0c	 sub	 esp, 12			; 0000000cH
  00006	56		 push	 esi

; 1367 :         const _Tree_find_result<_Nodeptr> _Loc = _Find_lower_bound(_Keyval);

  00007	8b 75 0c	 mov	 esi, DWORD PTR __Keyval$[ebp]
  0000a	8d 45 f4	 lea	 eax, DWORD PTR __Loc$1[ebp]

; 1376 :     _NODISCARD iterator find(const key_type& _Keyval) {

  0000d	57		 push	 edi

; 1367 :         const _Tree_find_result<_Nodeptr> _Loc = _Find_lower_bound(_Keyval);

  0000e	56		 push	 esi
  0000f	50		 push	 eax

; 1376 :     _NODISCARD iterator find(const key_type& _Keyval) {

  00010	8b f9		 mov	 edi, ecx

; 1367 :         const _Tree_find_result<_Nodeptr> _Loc = _Find_lower_bound(_Keyval);

  00012	e8 00 00 00 00	 call	 ??$_Find_lower_bound@K@?$_Tree@V?$_Tmap_traits@KUSSkillDataPet@CPythonSkillPet@@U?$less@K@std@@V?$allocator@U?$pair@$$CBKUSSkillDataPet@CPythonSkillPet@@@std@@@4@$0A@@std@@@std@@IBE?AU?$_Tree_find_result@PAU?$_Tree_node@U?$pair@$$CBKUSSkillDataPet@CPythonSkillPet@@@std@@PAX@std@@@1@ABK@Z ; std::_Tree<std::_Tmap_traits<unsigned long,CPythonSkillPet::SSkillDataPet,std::less<unsigned long>,std::allocator<std::pair<unsigned long const ,CPythonSkillPet::SSkillDataPet> >,0> >::_Find_lower_bound<unsigned long>

; 1605 :         return !_Bound->_Isnil && !_DEBUG_LT_PRED(_Getcomp(), _Keyval, _Traits::_Kfn(_Bound->_Myval));

  00017	8b 55 fc	 mov	 edx, DWORD PTR __Loc$1[ebp+8]
  0001a	80 7a 0d 00	 cmp	 BYTE PTR [edx+13], 0
  0001e	75 14		 jne	 SHORT $LN4@find
; File C:\Program Files\Microsoft Visual Studio\2022\Community\VC\Tools\MSVC\14.34.31933\include\xstddef

; 143  :         return _Left < _Right;

  00020	8b 06		 mov	 eax, DWORD PTR [esi]
  00022	3b 42 10	 cmp	 eax, DWORD PTR [edx+16]
; File C:\Program Files\Microsoft Visual Studio\2022\Community\VC\Tools\MSVC\14.34.31933\include\xtree

; 1605 :         return !_Bound->_Isnil && !_DEBUG_LT_PRED(_Getcomp(), _Keyval, _Traits::_Kfn(_Bound->_Myval));

  00025	72 0d		 jb	 SHORT $LN4@find

; 38   :     _Tree_unchecked_const_iterator(_Nodeptr _Pnode, const _Mytree* _Plist) noexcept : _Ptr(_Pnode) {

  00027	8b 45 08	 mov	 eax, DWORD PTR ___$ReturnUdt$[ebp]
  0002a	5f		 pop	 edi

; 1377 :         return iterator(_Find(_Keyval), _Get_scary());
; 1378 :     }

  0002b	5e		 pop	 esi

; 38   :     _Tree_unchecked_const_iterator(_Nodeptr _Pnode, const _Mytree* _Plist) noexcept : _Ptr(_Pnode) {

  0002c	89 10		 mov	 DWORD PTR [eax], edx

; 1377 :         return iterator(_Find(_Keyval), _Get_scary());
; 1378 :     }

  0002e	8b e5		 mov	 esp, ebp
  00030	5d		 pop	 ebp
  00031	c2 08 00	 ret	 8
$LN4@find:

; 38   :     _Tree_unchecked_const_iterator(_Nodeptr _Pnode, const _Mytree* _Plist) noexcept : _Ptr(_Pnode) {

  00034	8b 45 08	 mov	 eax, DWORD PTR ___$ReturnUdt$[ebp]

; 1372 :         return _Get_scary()->_Myhead;

  00037	8b 0f		 mov	 ecx, DWORD PTR [edi]
  00039	5f		 pop	 edi

; 1377 :         return iterator(_Find(_Keyval), _Get_scary());
; 1378 :     }

  0003a	5e		 pop	 esi

; 38   :     _Tree_unchecked_const_iterator(_Nodeptr _Pnode, const _Mytree* _Plist) noexcept : _Ptr(_Pnode) {

  0003b	89 08		 mov	 DWORD PTR [eax], ecx

; 1377 :         return iterator(_Find(_Keyval), _Get_scary());
; 1378 :     }

  0003d	8b e5		 mov	 esp, ebp
  0003f	5d		 pop	 ebp
  00040	c2 08 00	 ret	 8
?find@?$_Tree@V?$_Tmap_traits@KUSSkillDataPet@CPythonSkillPet@@U?$less@K@std@@V?$allocator@U?$pair@$$CBKUSSkillDataPet@CPythonSkillPet@@@std@@@4@$0A@@std@@@std@@QAE?AV?$_Tree_iterator@V?$_Tree_val@U?$_Tree_simple_types@U?$pair@$$CBKUSSkillDataPet@CPythonSkillPet@@@std@@@std@@@std@@@2@ABK@Z ENDP ; std::_Tree<std::_Tmap_traits<unsigned long,CPythonSkillPet::SSkillDataPet,std::less<unsigned long>,std::allocator<std::pair<unsigned long const ,CPythonSkillPet::SSkillDataPet> >,0> >::find
_TEXT	ENDS
; Function compile flags: /Ogtp
; File C:\Program Files\Microsoft Visual Studio\2022\Community\VC\Tools\MSVC\14.34.31933\include\xtree
;	COMDAT ?clear@?$_Tree@V?$_Tmap_traits@KUSSkillDataPet@CPythonSkillPet@@U?$less@K@std@@V?$allocator@U?$pair@$$CBKUSSkillDataPet@CPythonSkillPet@@@std@@@4@$0A@@std@@@std@@QAEXXZ
_TEXT	SEGMENT
?clear@?$_Tree@V?$_Tmap_traits@KUSSkillDataPet@CPythonSkillPet@@U?$less@K@std@@V?$allocator@U?$pair@$$CBKUSSkillDataPet@CPythonSkillPet@@@std@@@4@$0A@@std@@@std@@QAEXXZ PROC ; std::_Tree<std::_Tmap_traits<unsigned long,CPythonSkillPet::SSkillDataPet,std::less<unsigned long>,std::allocator<std::pair<unsigned long const ,CPythonSkillPet::SSkillDataPet> >,0> >::clear, COMDAT
; _this$ = ecx

; 1353 :     void clear() noexcept {

  00000	56		 push	 esi
  00001	57		 push	 edi
  00002	8b f9		 mov	 edi, ecx

; 1354 :         const auto _Scary = _Get_scary();
; 1355 :         _Scary->_Orphan_ptr(nullptr);
; 1356 :         auto _Head = _Scary->_Myhead;

  00004	8b 37		 mov	 esi, DWORD PTR [edi]

; 1357 :         _Scary->_Erase_tree(_Getal(), _Head->_Parent);

  00006	ff 76 04	 push	 DWORD PTR [esi+4]
  00009	57		 push	 edi
  0000a	e8 00 00 00 00	 call	 ??$_Erase_tree@V?$allocator@U?$_Tree_node@U?$pair@$$CBKUSSkillDataPet@CPythonSkillPet@@@std@@PAX@std@@@std@@@?$_Tree_val@U?$_Tree_simple_types@U?$pair@$$CBKUSSkillDataPet@CPythonSkillPet@@@std@@@std@@@std@@QAEXAAV?$allocator@U?$_Tree_node@U?$pair@$$CBKUSSkillDataPet@CPythonSkillPet@@@std@@PAX@std@@@1@PAU?$_Tree_node@U?$pair@$$CBKUSSkillDataPet@CPythonSkillPet@@@std@@PAX@1@@Z ; std::_Tree_val<std::_Tree_simple_types<std::pair<unsigned long const ,CPythonSkillPet::SSkillDataPet> > >::_Erase_tree<std::allocator<std::_Tree_node<std::pair<unsigned long const ,CPythonSkillPet::SSkillDataPet>,void *> > >

; 1358 :         _Head->_Parent  = _Head;

  0000f	89 76 04	 mov	 DWORD PTR [esi+4], esi

; 1359 :         _Head->_Left    = _Head;

  00012	89 36		 mov	 DWORD PTR [esi], esi

; 1360 :         _Head->_Right   = _Head;

  00014	89 76 08	 mov	 DWORD PTR [esi+8], esi

; 1361 :         _Scary->_Mysize = 0;

  00017	c7 47 04 00 00
	00 00		 mov	 DWORD PTR [edi+4], 0
  0001e	5f		 pop	 edi
  0001f	5e		 pop	 esi

; 1362 :     }

  00020	c3		 ret	 0
?clear@?$_Tree@V?$_Tmap_traits@KUSSkillDataPet@CPythonSkillPet@@U?$less@K@std@@V?$allocator@U?$pair@$$CBKUSSkillDataPet@CPythonSkillPet@@@std@@@4@$0A@@std@@@std@@QAEXXZ ENDP ; std::_Tree<std::_Tmap_traits<unsigned long,CPythonSkillPet::SSkillDataPet,std::less<unsigned long>,std::allocator<std::pair<unsigned long const ,CPythonSkillPet::SSkillDataPet> >,0> >::clear
_TEXT	ENDS
; Function compile flags: /Ogtp
; File C:\Program Files\Microsoft Visual Studio\2022\Community\VC\Tools\MSVC\14.34.31933\include\xtree
;	COMDAT ?end@?$_Tree@V?$_Tmap_traits@KUSSkillDataPet@CPythonSkillPet@@U?$less@K@std@@V?$allocator@U?$pair@$$CBKUSSkillDataPet@CPythonSkillPet@@@std@@@4@$0A@@std@@@std@@QAE?AV?$_Tree_iterator@V?$_Tree_val@U?$_Tree_simple_types@U?$pair@$$CBKUSSkillDataPet@CPythonSkillPet@@@std@@@std@@@std@@@2@XZ
_TEXT	SEGMENT
___$ReturnUdt$ = 8					; size = 4
?end@?$_Tree@V?$_Tmap_traits@KUSSkillDataPet@CPythonSkillPet@@U?$less@K@std@@V?$allocator@U?$pair@$$CBKUSSkillDataPet@CPythonSkillPet@@@std@@@4@$0A@@std@@@std@@QAE?AV?$_Tree_iterator@V?$_Tree_val@U?$_Tree_simple_types@U?$pair@$$CBKUSSkillDataPet@CPythonSkillPet@@@std@@@std@@@std@@@2@XZ PROC ; std::_Tree<std::_Tmap_traits<unsigned long,CPythonSkillPet::SSkillDataPet,std::less<unsigned long>,std::allocator<std::pair<unsigned long const ,CPythonSkillPet::SSkillDataPet> >,0> >::end, COMDAT
; _this$ = ecx

; 1134 :     _NODISCARD iterator end() noexcept {

  00000	55		 push	 ebp
  00001	8b ec		 mov	 ebp, esp

; 38   :     _Tree_unchecked_const_iterator(_Nodeptr _Pnode, const _Mytree* _Plist) noexcept : _Ptr(_Pnode) {

  00003	8b 45 08	 mov	 eax, DWORD PTR ___$ReturnUdt$[ebp]
  00006	8b 09		 mov	 ecx, DWORD PTR [ecx]
  00008	89 08		 mov	 DWORD PTR [eax], ecx

; 1135 :         const auto _Scary = _Get_scary();
; 1136 :         return iterator(_Scary->_Myhead, _Scary);
; 1137 :     }

  0000a	5d		 pop	 ebp
  0000b	c2 04 00	 ret	 4
?end@?$_Tree@V?$_Tmap_traits@KUSSkillDataPet@CPythonSkillPet@@U?$less@K@std@@V?$allocator@U?$pair@$$CBKUSSkillDataPet@CPythonSkillPet@@@std@@@4@$0A@@std@@@std@@QAE?AV?$_Tree_iterator@V?$_Tree_val@U?$_Tree_simple_types@U?$pair@$$CBKUSSkillDataPet@CPythonSkillPet@@@std@@@std@@@std@@@2@XZ ENDP ; std::_Tree<std::_Tmap_traits<unsigned long,CPythonSkillPet::SSkillDataPet,std::less<unsigned long>,std::allocator<std::pair<unsigned long const ,CPythonSkillPet::SSkillDataPet> >,0> >::end
_TEXT	ENDS
; Function compile flags: /Ogtp
; File C:\Program Files\Microsoft Visual Studio\2022\Community\VC\Tools\MSVC\14.34.31933\include\xtree
; File C:\Program Files\Microsoft Visual Studio\2022\Community\VC\Tools\MSVC\14.34.31933\include\xmemory
; File C:\Program Files\Microsoft Visual Studio\2022\Community\VC\Tools\MSVC\14.34.31933\include\xtree
;	COMDAT ??1?$_Tree@V?$_Tmap_traits@KUSSkillDataPet@CPythonSkillPet@@U?$less@K@std@@V?$allocator@U?$pair@$$CBKUSSkillDataPet@CPythonSkillPet@@@std@@@4@$0A@@std@@@std@@QAE@XZ
_TEXT	SEGMENT
??1?$_Tree@V?$_Tmap_traits@KUSSkillDataPet@CPythonSkillPet@@U?$less@K@std@@V?$allocator@U?$pair@$$CBKUSSkillDataPet@CPythonSkillPet@@@std@@@4@$0A@@std@@@std@@QAE@XZ PROC ; std::_Tree<std::_Tmap_traits<unsigned long,CPythonSkillPet::SSkillDataPet,std::less<unsigned long>,std::allocator<std::pair<unsigned long const ,CPythonSkillPet::SSkillDataPet> >,0> >::~_Tree<std::_Tmap_traits<unsigned long,CPythonSkillPet::SSkillDataPet,std::less<unsigned long>,std::allocator<std::pair<unsigned long const ,CPythonSkillPet::SSkillDataPet> >,0> >, COMDAT
; _this$ = ecx

; 1079 :     ~_Tree() noexcept {

  00000	56		 push	 esi
  00001	8b f1		 mov	 esi, ecx

; 754  :         _Erase_tree(_Al, _Myhead->_Parent);

  00003	8b 06		 mov	 eax, DWORD PTR [esi]
  00005	ff 70 04	 push	 DWORD PTR [eax+4]
  00008	56		 push	 esi
  00009	e8 00 00 00 00	 call	 ??$_Erase_tree@V?$allocator@U?$_Tree_node@U?$pair@$$CBKUSSkillDataPet@CPythonSkillPet@@@std@@PAX@std@@@std@@@?$_Tree_val@U?$_Tree_simple_types@U?$pair@$$CBKUSSkillDataPet@CPythonSkillPet@@@std@@@std@@@std@@QAEXAAV?$allocator@U?$_Tree_node@U?$pair@$$CBKUSSkillDataPet@CPythonSkillPet@@@std@@PAX@std@@@1@PAU?$_Tree_node@U?$pair@$$CBKUSSkillDataPet@CPythonSkillPet@@@std@@PAX@1@@Z ; std::_Tree_val<std::_Tree_simple_types<std::pair<unsigned long const ,CPythonSkillPet::SSkillDataPet> > >::_Erase_tree<std::allocator<std::_Tree_node<std::pair<unsigned long const ,CPythonSkillPet::SSkillDataPet>,void *> > >
; File C:\Program Files\Microsoft Visual Studio\2022\Community\VC\Tools\MSVC\14.34.31933\include\xmemory

; 255  :         ::operator delete(_Ptr, _Bytes);

  0000e	6a 6c		 push	 108			; 0000006cH
  00010	ff 36		 push	 DWORD PTR [esi]
  00012	e8 00 00 00 00	 call	 ??3@YAXPAXI@Z		; operator delete
  00017	83 c4 08	 add	 esp, 8
  0001a	5e		 pop	 esi
; File C:\Program Files\Microsoft Visual Studio\2022\Community\VC\Tools\MSVC\14.34.31933\include\xtree

; 1086 :     }

  0001b	c3		 ret	 0
??1?$_Tree@V?$_Tmap_traits@KUSSkillDataPet@CPythonSkillPet@@U?$less@K@std@@V?$allocator@U?$pair@$$CBKUSSkillDataPet@CPythonSkillPet@@@std@@@4@$0A@@std@@@std@@QAE@XZ ENDP ; std::_Tree<std::_Tmap_traits<unsigned long,CPythonSkillPet::SSkillDataPet,std::less<unsigned long>,std::allocator<std::pair<unsigned long const ,CPythonSkillPet::SSkillDataPet> >,0> >::~_Tree<std::_Tmap_traits<unsigned long,CPythonSkillPet::SSkillDataPet,std::less<unsigned long>,std::allocator<std::pair<unsigned long const ,CPythonSkillPet::SSkillDataPet> >,0> >
_TEXT	ENDS
; Function compile flags: /Ogtp
; File E:\Metin2_server\SolWayneSF v6\ClientVS22\source\eterBase\Singleton.h
;	COMDAT ??1?$CSingleton@VCPythonSkillPet@@@@UAE@XZ
_TEXT	SEGMENT
??1?$CSingleton@VCPythonSkillPet@@@@UAE@XZ PROC		; CSingleton<CPythonSkillPet>::~CSingleton<CPythonSkillPet>, COMDAT
; _this$ = ecx

; 19   : 	{ 

  00000	c7 01 00 00 00
	00		 mov	 DWORD PTR [ecx], OFFSET ??_7?$CSingleton@VCPythonSkillPet@@@@6B@

; 20   : 		assert(ms_singleton);
; 21   : 		ms_singleton = 0; 

  00006	c7 05 00 00 00
	00 00 00 00 00	 mov	 DWORD PTR ?ms_singleton@?$CSingleton@VCPythonSkillPet@@@@0PAVCPythonSkillPet@@A, 0 ; CSingleton<CPythonSkillPet>::ms_singleton

; 22   : 	}

  00010	c3		 ret	 0
??1?$CSingleton@VCPythonSkillPet@@@@UAE@XZ ENDP		; CSingleton<CPythonSkillPet>::~CSingleton<CPythonSkillPet>
_TEXT	ENDS
; Function compile flags: /Ogtp
; File E:\Metin2_server\SolWayneSF v6\ClientVS22\source\eterBase\Singleton.h
;	COMDAT ??0?$CSingleton@VCPythonSkillPet@@@@QAE@XZ
_TEXT	SEGMENT
??0?$CSingleton@VCPythonSkillPet@@@@QAE@XZ PROC		; CSingleton<CPythonSkillPet>::CSingleton<CPythonSkillPet>, COMDAT
; _this$ = ecx

; 12   : 	{ 

  00000	c7 01 00 00 00
	00		 mov	 DWORD PTR [ecx], OFFSET ??_7?$CSingleton@VCPythonSkillPet@@@@6B@

; 13   : 		assert(!ms_singleton);
; 14   : 		int offset = (int) (T*) 1 - (int) (CSingleton <T>*) (T*) 1; 
; 15   : 		ms_singleton = (T*) ((int) this + offset);
; 16   : 	} 

  00006	8b c1		 mov	 eax, ecx
  00008	89 0d 00 00 00
	00		 mov	 DWORD PTR ?ms_singleton@?$CSingleton@VCPythonSkillPet@@@@0PAVCPythonSkillPet@@A, ecx ; CSingleton<CPythonSkillPet>::ms_singleton
  0000e	c3		 ret	 0
??0?$CSingleton@VCPythonSkillPet@@@@QAE@XZ ENDP		; CSingleton<CPythonSkillPet>::CSingleton<CPythonSkillPet>
_TEXT	ENDS
; Function compile flags: /Ogtp
; File C:\Program Files\Microsoft Visual Studio\2022\Community\VC\Tools\MSVC\14.34.31933\include\xtree
;	COMDAT ??0?$_Tree_iterator@V?$_Tree_val@U?$_Tree_simple_types@U?$pair@$$CBKUSSkillDataPet@CPythonSkillPet@@@std@@@std@@@std@@@std@@QAE@PAU?$_Tree_node@U?$pair@$$CBKUSSkillDataPet@CPythonSkillPet@@@std@@PAX@1@PBV?$_Tree_val@U?$_Tree_simple_types@U?$pair@$$CBKUSSkillDataPet@CPythonSkillPet@@@std@@@std@@@1@@Z
_TEXT	SEGMENT
___param0$ = 8						; size = 4
___param1$dead$ = 12					; size = 4
??0?$_Tree_iterator@V?$_Tree_val@U?$_Tree_simple_types@U?$pair@$$CBKUSSkillDataPet@CPythonSkillPet@@@std@@@std@@@std@@@std@@QAE@PAU?$_Tree_node@U?$pair@$$CBKUSSkillDataPet@CPythonSkillPet@@@std@@PAX@1@PBV?$_Tree_val@U?$_Tree_simple_types@U?$pair@$$CBKUSSkillDataPet@CPythonSkillPet@@@std@@@std@@@1@@Z PROC ; std::_Tree_iterator<std::_Tree_val<std::_Tree_simple_types<std::pair<unsigned long const ,CPythonSkillPet::SSkillDataPet> > > >::_Tree_iterator<std::_Tree_val<std::_Tree_simple_types<std::pair<unsigned long const ,CPythonSkillPet::SSkillDataPet> > > >, COMDAT
; _this$ = ecx
  00000	55		 push	 ebp
  00001	8b ec		 mov	 ebp, esp

; 38   :     _Tree_unchecked_const_iterator(_Nodeptr _Pnode, const _Mytree* _Plist) noexcept : _Ptr(_Pnode) {

  00003	8b 45 08	 mov	 eax, DWORD PTR ___param0$[ebp]
  00006	89 01		 mov	 DWORD PTR [ecx], eax
  00008	8b c1		 mov	 eax, ecx
  0000a	5d		 pop	 ebp
  0000b	c2 08 00	 ret	 8
??0?$_Tree_iterator@V?$_Tree_val@U?$_Tree_simple_types@U?$pair@$$CBKUSSkillDataPet@CPythonSkillPet@@@std@@@std@@@std@@@std@@QAE@PAU?$_Tree_node@U?$pair@$$CBKUSSkillDataPet@CPythonSkillPet@@@std@@PAX@1@PBV?$_Tree_val@U?$_Tree_simple_types@U?$pair@$$CBKUSSkillDataPet@CPythonSkillPet@@@std@@@std@@@1@@Z ENDP ; std::_Tree_iterator<std::_Tree_val<std::_Tree_simple_types<std::pair<unsigned long const ,CPythonSkillPet::SSkillDataPet> > > >::_Tree_iterator<std::_Tree_val<std::_Tree_simple_types<std::pair<unsigned long const ,CPythonSkillPet::SSkillDataPet> > > >
_TEXT	ENDS
; Function compile flags: /Ogtp
; File E:\Metin2_server\SolWayneSF v6\ClientVS22\source\eterBase\Singleton.h
;	COMDAT ??_G?$CSingleton@VCPythonSkillPet@@@@UAEPAXI@Z
_TEXT	SEGMENT
___flags$ = 8						; size = 4
??_G?$CSingleton@VCPythonSkillPet@@@@UAEPAXI@Z PROC	; CSingleton<CPythonSkillPet>::`scalar deleting destructor', COMDAT
; _this$ = ecx
  00000	55		 push	 ebp
  00001	8b ec		 mov	 ebp, esp
  00003	f6 45 08 01	 test	 BYTE PTR ___flags$[ebp], 1

; 19   : 	{ 

  00007	56		 push	 esi
  00008	8b f1		 mov	 esi, ecx

; 20   : 		assert(ms_singleton);
; 21   : 		ms_singleton = 0; 

  0000a	c7 05 00 00 00
	00 00 00 00 00	 mov	 DWORD PTR ?ms_singleton@?$CSingleton@VCPythonSkillPet@@@@0PAVCPythonSkillPet@@A, 0 ; CSingleton<CPythonSkillPet>::ms_singleton
  00014	c7 06 00 00 00
	00		 mov	 DWORD PTR [esi], OFFSET ??_7?$CSingleton@VCPythonSkillPet@@@@6B@
  0001a	74 0b		 je	 SHORT $LN6@scalar
  0001c	6a 04		 push	 4
  0001e	56		 push	 esi
  0001f	e8 00 00 00 00	 call	 ??3@YAXPAXI@Z		; operator delete
  00024	83 c4 08	 add	 esp, 8
$LN6@scalar:
  00027	8b c6		 mov	 eax, esi
  00029	5e		 pop	 esi
  0002a	5d		 pop	 ebp
  0002b	c2 04 00	 ret	 4
??_G?$CSingleton@VCPythonSkillPet@@@@UAEPAXI@Z ENDP	; CSingleton<CPythonSkillPet>::`scalar deleting destructor'
_TEXT	ENDS
; Function compile flags: /Ogtp
; File C:\Program Files\Microsoft Visual Studio\2022\Community\VC\Tools\MSVC\14.34.31933\include\xtree
;	COMDAT ??0?$_Tree_const_iterator@V?$_Tree_val@U?$_Tree_simple_types@U?$pair@$$CBKUSSkillDataPet@CPythonSkillPet@@@std@@@std@@@std@@@std@@QAE@PAU?$_Tree_node@U?$pair@$$CBKUSSkillDataPet@CPythonSkillPet@@@std@@PAX@1@PBV?$_Tree_val@U?$_Tree_simple_types@U?$pair@$$CBKUSSkillDataPet@CPythonSkillPet@@@std@@@std@@@1@@Z
_TEXT	SEGMENT
___param0$ = 8						; size = 4
___param1$dead$ = 12					; size = 4
??0?$_Tree_const_iterator@V?$_Tree_val@U?$_Tree_simple_types@U?$pair@$$CBKUSSkillDataPet@CPythonSkillPet@@@std@@@std@@@std@@@std@@QAE@PAU?$_Tree_node@U?$pair@$$CBKUSSkillDataPet@CPythonSkillPet@@@std@@PAX@1@PBV?$_Tree_val@U?$_Tree_simple_types@U?$pair@$$CBKUSSkillDataPet@CPythonSkillPet@@@std@@@std@@@1@@Z PROC ; std::_Tree_const_iterator<std::_Tree_val<std::_Tree_simple_types<std::pair<unsigned long const ,CPythonSkillPet::SSkillDataPet> > > >::_Tree_const_iterator<std::_Tree_val<std::_Tree_simple_types<std::pair<unsigned long const ,CPythonSkillPet::SSkillDataPet> > > >, COMDAT
; _this$ = ecx
  00000	55		 push	 ebp
  00001	8b ec		 mov	 ebp, esp

; 38   :     _Tree_unchecked_const_iterator(_Nodeptr _Pnode, const _Mytree* _Plist) noexcept : _Ptr(_Pnode) {

  00003	8b 45 08	 mov	 eax, DWORD PTR ___param0$[ebp]
  00006	89 01		 mov	 DWORD PTR [ecx], eax
  00008	8b c1		 mov	 eax, ecx
  0000a	5d		 pop	 ebp
  0000b	c2 08 00	 ret	 8
??0?$_Tree_const_iterator@V?$_Tree_val@U?$_Tree_simple_types@U?$pair@$$CBKUSSkillDataPet@CPythonSkillPet@@@std@@@std@@@std@@@std@@QAE@PAU?$_Tree_node@U?$pair@$$CBKUSSkillDataPet@CPythonSkillPet@@@std@@PAX@1@PBV?$_Tree_val@U?$_Tree_simple_types@U?$pair@$$CBKUSSkillDataPet@CPythonSkillPet@@@std@@@std@@@1@@Z ENDP ; std::_Tree_const_iterator<std::_Tree_val<std::_Tree_simple_types<std::pair<unsigned long const ,CPythonSkillPet::SSkillDataPet> > > >::_Tree_const_iterator<std::_Tree_val<std::_Tree_simple_types<std::pair<unsigned long const ,CPythonSkillPet::SSkillDataPet> > > >
_TEXT	ENDS
; Function compile flags: /Ogtp
; File C:\Program Files\Microsoft Visual Studio\2022\Community\VC\Tools\MSVC\14.34.31933\include\xutility
;	COMDAT ?pointer_to@?$pointer_traits@PAU?$pair@$$CBKUSSkillDataPet@CPythonSkillPet@@@std@@@std@@SAPAU?$pair@$$CBKUSSkillDataPet@CPythonSkillPet@@@2@AAU32@@Z
_TEXT	SEGMENT
?pointer_to@?$pointer_traits@PAU?$pair@$$CBKUSSkillDataPet@CPythonSkillPet@@@std@@@std@@SAPAU?$pair@$$CBKUSSkillDataPet@CPythonSkillPet@@@2@AAU32@@Z PROC ; std::pointer_traits<std::pair<unsigned long const ,CPythonSkillPet::SSkillDataPet> *>::pointer_to, COMDAT
; __Val$ = ecx

; 268  :         return _STD addressof(_Val);

  00000	8b c1		 mov	 eax, ecx

; 269  :     }

  00002	c3		 ret	 0
?pointer_to@?$pointer_traits@PAU?$pair@$$CBKUSSkillDataPet@CPythonSkillPet@@@std@@@std@@SAPAU?$pair@$$CBKUSSkillDataPet@CPythonSkillPet@@@2@AAU32@@Z ENDP ; std::pointer_traits<std::pair<unsigned long const ,CPythonSkillPet::SSkillDataPet> *>::pointer_to
_TEXT	ENDS
; Function compile flags: /Ogtp
; File C:\Program Files\Microsoft Visual Studio\2022\Community\VC\Tools\MSVC\14.34.31933\include\xtree
;	COMDAT ??D?$_Tree_iterator@V?$_Tree_val@U?$_Tree_simple_types@U?$pair@$$CBKUSSkillDataPet@CPythonSkillPet@@@std@@@std@@@std@@@std@@QBEAAU?$pair@$$CBKUSSkillDataPet@CPythonSkillPet@@@1@XZ
_TEXT	SEGMENT
??D?$_Tree_iterator@V?$_Tree_val@U?$_Tree_simple_types@U?$pair@$$CBKUSSkillDataPet@CPythonSkillPet@@@std@@@std@@@std@@@std@@QBEAAU?$pair@$$CBKUSSkillDataPet@CPythonSkillPet@@@1@XZ PROC ; std::_Tree_iterator<std::_Tree_val<std::_Tree_simple_types<std::pair<unsigned long const ,CPythonSkillPet::SSkillDataPet> > > >::operator*, COMDAT
; _this$ = ecx

; 186  :         return this->_Ptr->_Myval;

  00000	8b 01		 mov	 eax, DWORD PTR [ecx]
  00002	83 c0 10	 add	 eax, 16			; 00000010H

; 275  :         return const_cast<reference>(_Mybase::operator*());
; 276  :     }

  00005	c3		 ret	 0
??D?$_Tree_iterator@V?$_Tree_val@U?$_Tree_simple_types@U?$pair@$$CBKUSSkillDataPet@CPythonSkillPet@@@std@@@std@@@std@@@std@@QBEAAU?$pair@$$CBKUSSkillDataPet@CPythonSkillPet@@@1@XZ ENDP ; std::_Tree_iterator<std::_Tree_val<std::_Tree_simple_types<std::pair<unsigned long const ,CPythonSkillPet::SSkillDataPet> > > >::operator*
_TEXT	ENDS
; Function compile flags: /Ogtp
; File C:\Program Files\Microsoft Visual Studio\2022\Community\VC\Tools\MSVC\14.34.31933\include\xtree
;	COMDAT ??0?$_Tree_unchecked_const_iterator@V?$_Tree_val@U?$_Tree_simple_types@U?$pair@$$CBKUSSkillDataPet@CPythonSkillPet@@@std@@@std@@@std@@U_Iterator_base0@2@@std@@QAE@PAU?$_Tree_node@U?$pair@$$CBKUSSkillDataPet@CPythonSkillPet@@@std@@PAX@1@PBV?$_Tree_val@U?$_Tree_simple_types@U?$pair@$$CBKUSSkillDataPet@CPythonSkillPet@@@std@@@std@@@1@@Z
_TEXT	SEGMENT
__Pnode$ = 8						; size = 4
__Plist$dead$ = 12					; size = 4
??0?$_Tree_unchecked_const_iterator@V?$_Tree_val@U?$_Tree_simple_types@U?$pair@$$CBKUSSkillDataPet@CPythonSkillPet@@@std@@@std@@@std@@U_Iterator_base0@2@@std@@QAE@PAU?$_Tree_node@U?$pair@$$CBKUSSkillDataPet@CPythonSkillPet@@@std@@PAX@1@PBV?$_Tree_val@U?$_Tree_simple_types@U?$pair@$$CBKUSSkillDataPet@CPythonSkillPet@@@std@@@std@@@1@@Z PROC ; std::_Tree_unchecked_const_iterator<std::_Tree_val<std::_Tree_simple_types<std::pair<unsigned long const ,CPythonSkillPet::SSkillDataPet> > >,std::_Iterator_base0>::_Tree_unchecked_const_iterator<std::_Tree_val<std::_Tree_simple_types<std::pair<unsigned long const ,CPythonSkillPet::SSkillDataPet> > >,std::_Iterator_base0>, COMDAT
; _this$ = ecx

; 38   :     _Tree_unchecked_const_iterator(_Nodeptr _Pnode, const _Mytree* _Plist) noexcept : _Ptr(_Pnode) {

  00000	55		 push	 ebp
  00001	8b ec		 mov	 ebp, esp
  00003	8b 45 08	 mov	 eax, DWORD PTR __Pnode$[ebp]
  00006	89 01		 mov	 DWORD PTR [ecx], eax

; 39   :         this->_Adopt(_Plist);
; 40   :     }

  00008	8b c1		 mov	 eax, ecx
  0000a	5d		 pop	 ebp
  0000b	c2 08 00	 ret	 8
??0?$_Tree_unchecked_const_iterator@V?$_Tree_val@U?$_Tree_simple_types@U?$pair@$$CBKUSSkillDataPet@CPythonSkillPet@@@std@@@std@@@std@@U_Iterator_base0@2@@std@@QAE@PAU?$_Tree_node@U?$pair@$$CBKUSSkillDataPet@CPythonSkillPet@@@std@@PAX@1@PBV?$_Tree_val@U?$_Tree_simple_types@U?$pair@$$CBKUSSkillDataPet@CPythonSkillPet@@@std@@@std@@@1@@Z ENDP ; std::_Tree_unchecked_const_iterator<std::_Tree_val<std::_Tree_simple_types<std::pair<unsigned long const ,CPythonSkillPet::SSkillDataPet> > >,std::_Iterator_base0>::_Tree_unchecked_const_iterator<std::_Tree_val<std::_Tree_simple_types<std::pair<unsigned long const ,CPythonSkillPet::SSkillDataPet> > >,std::_Iterator_base0>
_TEXT	ENDS
; Function compile flags: /Ogtp
; File C:\Program Files\Microsoft Visual Studio\2022\Community\VC\Tools\MSVC\14.34.31933\include\xtree
;	COMDAT ?_Orphan_ptr@?$_Tree_val@U?$_Tree_simple_types@U?$pair@$$CBKUSSkillDataPet@CPythonSkillPet@@@std@@@std@@@std@@QAEXQAU?$_Tree_node@U?$pair@$$CBKUSSkillDataPet@CPythonSkillPet@@@std@@PAX@2@@Z
_TEXT	SEGMENT
__Ptr$dead$ = 8						; size = 4
?_Orphan_ptr@?$_Tree_val@U?$_Tree_simple_types@U?$pair@$$CBKUSSkillDataPet@CPythonSkillPet@@@std@@@std@@@std@@QAEXQAU?$_Tree_node@U?$pair@$$CBKUSSkillDataPet@CPythonSkillPet@@@std@@PAX@2@@Z PROC ; std::_Tree_val<std::_Tree_simple_types<std::pair<unsigned long const ,CPythonSkillPet::SSkillDataPet> > >::_Orphan_ptr, COMDAT
; _this$dead$ = ecx

; 716  : #if _ITERATOR_DEBUG_LEVEL == 2
; 717  :         _Lockit _Lock(_LOCK_DEBUG);
; 718  :         _Iterator_base12** _Pnext = &this->_Myproxy->_Myfirstiter;
; 719  :         while (*_Pnext) {
; 720  :             const auto _Pnextptr = static_cast<const_iterator&>(**_Pnext)._Ptr;
; 721  :             if (_Pnextptr == _Myhead || (_Ptr != nullptr && _Pnextptr != _Ptr)) {
; 722  :                 _Pnext = &(*_Pnext)->_Mynextiter;
; 723  :             } else { // orphan the iterator
; 724  :                 (*_Pnext)->_Myproxy = nullptr;
; 725  :                 *_Pnext             = (*_Pnext)->_Mynextiter;
; 726  :             }
; 727  :         }
; 728  : #else // ^^^ _ITERATOR_DEBUG_LEVEL == 2 ^^^ // vvv _ITERATOR_DEBUG_LEVEL != 2 vvv
; 729  :         (void) _Ptr;
; 730  : #endif // _ITERATOR_DEBUG_LEVEL == 2
; 731  :     }

  00000	c2 04 00	 ret	 4
?_Orphan_ptr@?$_Tree_val@U?$_Tree_simple_types@U?$pair@$$CBKUSSkillDataPet@CPythonSkillPet@@@std@@@std@@@std@@QAEXQAU?$_Tree_node@U?$pair@$$CBKUSSkillDataPet@CPythonSkillPet@@@std@@PAX@2@@Z ENDP ; std::_Tree_val<std::_Tree_simple_types<std::pair<unsigned long const ,CPythonSkillPet::SSkillDataPet> > >::_Orphan_ptr
_TEXT	ENDS
; Function compile flags: /Ogtp
; File C:\Program Files\Microsoft Visual Studio\2022\Community\VC\Tools\MSVC\14.34.31933\include\xtree
;	COMDAT ?_Get_scary@?$_Tree@V?$_Tmap_traits@KUSSkillDataPet@CPythonSkillPet@@U?$less@K@std@@V?$allocator@U?$pair@$$CBKUSSkillDataPet@CPythonSkillPet@@@std@@@4@$0A@@std@@@std@@IAEPAV?$_Tree_val@U?$_Tree_simple_types@U?$pair@$$CBKUSSkillDataPet@CPythonSkillPet@@@std@@@std@@@2@XZ
_TEXT	SEGMENT
?_Get_scary@?$_Tree@V?$_Tmap_traits@KUSSkillDataPet@CPythonSkillPet@@U?$less@K@std@@V?$allocator@U?$pair@$$CBKUSSkillDataPet@CPythonSkillPet@@@std@@@4@$0A@@std@@@std@@IAEPAV?$_Tree_val@U?$_Tree_simple_types@U?$pair@$$CBKUSSkillDataPet@CPythonSkillPet@@@std@@@std@@@2@XZ PROC ; std::_Tree<std::_Tmap_traits<unsigned long,CPythonSkillPet::SSkillDataPet,std::less<unsigned long>,std::allocator<std::pair<unsigned long const ,CPythonSkillPet::SSkillDataPet> >,0> >::_Get_scary, COMDAT
; _this$ = ecx

; 1967 :         return _STD addressof(_Mypair._Myval2._Myval2);

  00000	8b c1		 mov	 eax, ecx

; 1968 :     }

  00002	c3		 ret	 0
?_Get_scary@?$_Tree@V?$_Tmap_traits@KUSSkillDataPet@CPythonSkillPet@@U?$less@K@std@@V?$allocator@U?$pair@$$CBKUSSkillDataPet@CPythonSkillPet@@@std@@@4@$0A@@std@@@std@@IAEPAV?$_Tree_val@U?$_Tree_simple_types@U?$pair@$$CBKUSSkillDataPet@CPythonSkillPet@@@std@@@std@@@2@XZ ENDP ; std::_Tree<std::_Tmap_traits<unsigned long,CPythonSkillPet::SSkillDataPet,std::less<unsigned long>,std::allocator<std::pair<unsigned long const ,CPythonSkillPet::SSkillDataPet> >,0> >::_Get_scary
_TEXT	ENDS
; Function compile flags: /Ogtp
; File C:\Program Files\Microsoft Visual Studio\2022\Community\VC\Tools\MSVC\14.34.31933\include\xtree
;	COMDAT ?_Getal@?$_Tree@V?$_Tmap_traits@KUSSkillDataPet@CPythonSkillPet@@U?$less@K@std@@V?$allocator@U?$pair@$$CBKUSSkillDataPet@CPythonSkillPet@@@std@@@4@$0A@@std@@@std@@IAEAAV?$allocator@U?$_Tree_node@U?$pair@$$CBKUSSkillDataPet@CPythonSkillPet@@@std@@PAX@std@@@2@XZ
_TEXT	SEGMENT
?_Getal@?$_Tree@V?$_Tmap_traits@KUSSkillDataPet@CPythonSkillPet@@U?$less@K@std@@V?$allocator@U?$pair@$$CBKUSSkillDataPet@CPythonSkillPet@@@std@@@4@$0A@@std@@@std@@IAEAAV?$allocator@U?$_Tree_node@U?$pair@$$CBKUSSkillDataPet@CPythonSkillPet@@@std@@PAX@std@@@2@XZ PROC ; std::_Tree<std::_Tmap_traits<unsigned long,CPythonSkillPet::SSkillDataPet,std::less<unsigned long>,std::allocator<std::pair<unsigned long const ,CPythonSkillPet::SSkillDataPet> >,0> >::_Getal, COMDAT
; _this$ = ecx

; 1959 :         return _Mypair._Myval2._Get_first();

  00000	8b c1		 mov	 eax, ecx

; 1960 :     }

  00002	c3		 ret	 0
?_Getal@?$_Tree@V?$_Tmap_traits@KUSSkillDataPet@CPythonSkillPet@@U?$less@K@std@@V?$allocator@U?$pair@$$CBKUSSkillDataPet@CPythonSkillPet@@@std@@@4@$0A@@std@@@std@@IAEAAV?$allocator@U?$_Tree_node@U?$pair@$$CBKUSSkillDataPet@CPythonSkillPet@@@std@@PAX@std@@@2@XZ ENDP ; std::_Tree<std::_Tmap_traits<unsigned long,CPythonSkillPet::SSkillDataPet,std::less<unsigned long>,std::allocator<std::pair<unsigned long const ,CPythonSkillPet::SSkillDataPet> >,0> >::_Getal
_TEXT	ENDS
; Function compile flags: /Ogtp
; File C:\Program Files\Microsoft Visual Studio\2022\Community\VC\Tools\MSVC\14.34.31933\include\xtree
; File C:\Program Files\Microsoft Visual Studio\2022\Community\VC\Tools\MSVC\14.34.31933\include\xmemory
; File C:\Program Files\Microsoft Visual Studio\2022\Community\VC\Tools\MSVC\14.34.31933\include\xtree
; File C:\Program Files\Microsoft Visual Studio\2022\Community\VC\Tools\MSVC\14.34.31933\include\xmemory
; File C:\Program Files\Microsoft Visual Studio\2022\Community\VC\Tools\MSVC\14.34.31933\include\xtree
;	COMDAT ??0?$_Tree@V?$_Tmap_traits@KUSSkillDataPet@CPythonSkillPet@@U?$less@K@std@@V?$allocator@U?$pair@$$CBKUSSkillDataPet@CPythonSkillPet@@@std@@@4@$0A@@std@@@std@@QAE@ABU?$less@K@1@@Z
_TEXT	SEGMENT
__Parg$dead$ = 8					; size = 4
??0?$_Tree@V?$_Tmap_traits@KUSSkillDataPet@CPythonSkillPet@@U?$less@K@std@@V?$allocator@U?$pair@$$CBKUSSkillDataPet@CPythonSkillPet@@@std@@@4@$0A@@std@@@std@@QAE@ABU?$less@K@1@@Z PROC ; std::_Tree<std::_Tmap_traits<unsigned long,CPythonSkillPet::SSkillDataPet,std::less<unsigned long>,std::allocator<std::pair<unsigned long const ,CPythonSkillPet::SSkillDataPet> >,0> >::_Tree<std::_Tmap_traits<unsigned long,CPythonSkillPet::SSkillDataPet,std::less<unsigned long>,std::allocator<std::pair<unsigned long const ,CPythonSkillPet::SSkillDataPet> >,0> >, COMDAT
; _this$ = ecx

; 882  :     _Tree(const key_compare& _Parg) : _Mypair(_One_then_variadic_args_t{}, _Parg, _Zero_then_variadic_args_t{}) {

  00000	56		 push	 esi
  00001	8b f1		 mov	 esi, ecx
; File C:\Program Files\Microsoft Visual Studio\2022\Community\VC\Tools\MSVC\14.34.31933\include\xmemory

; 77   :         return ::operator new(_Bytes);

  00003	6a 6c		 push	 108			; 0000006cH
; File C:\Program Files\Microsoft Visual Studio\2022\Community\VC\Tools\MSVC\14.34.31933\include\xtree

; 437  :     _Tree_val() noexcept : _Myhead(), _Mysize(0) {}

  00005	c7 06 00 00 00
	00		 mov	 DWORD PTR [esi], 0
  0000b	c7 46 04 00 00
	00 00		 mov	 DWORD PTR [esi+4], 0
; File C:\Program Files\Microsoft Visual Studio\2022\Community\VC\Tools\MSVC\14.34.31933\include\xmemory

; 77   :         return ::operator new(_Bytes);

  00012	e8 00 00 00 00	 call	 ??2@YAPAXI@Z		; operator new
  00017	83 c4 04	 add	 esp, 4
; File C:\Program Files\Microsoft Visual Studio\2022\Community\VC\Tools\MSVC\14.34.31933\include\xtree

; 347  :         _Construct_in_place(_Pnode->_Left, _Pnode);

  0001a	89 00		 mov	 DWORD PTR [eax], eax

; 348  :         _Construct_in_place(_Pnode->_Parent, _Pnode);

  0001c	89 40 04	 mov	 DWORD PTR [eax+4], eax

; 349  :         _Construct_in_place(_Pnode->_Right, _Pnode);

  0001f	89 40 08	 mov	 DWORD PTR [eax+8], eax

; 350  :         _Pnode->_Color = _Black;

  00022	66 c7 40 0c 01
	01		 mov	 WORD PTR [eax+12], 257	; 00000101H

; 1941 :         _Scary->_Myhead = _Node::_Buyheadnode(_Getal());

  00028	89 06		 mov	 DWORD PTR [esi], eax

; 883  :         _Alloc_sentinel_and_proxy();
; 884  :     }

  0002a	8b c6		 mov	 eax, esi
  0002c	5e		 pop	 esi
  0002d	c2 04 00	 ret	 4
??0?$_Tree@V?$_Tmap_traits@KUSSkillDataPet@CPythonSkillPet@@U?$less@K@std@@V?$allocator@U?$pair@$$CBKUSSkillDataPet@CPythonSkillPet@@@std@@@4@$0A@@std@@@std@@QAE@ABU?$less@K@1@@Z ENDP ; std::_Tree<std::_Tmap_traits<unsigned long,CPythonSkillPet::SSkillDataPet,std::less<unsigned long>,std::allocator<std::pair<unsigned long const ,CPythonSkillPet::SSkillDataPet> >,0> >::_Tree<std::_Tmap_traits<unsigned long,CPythonSkillPet::SSkillDataPet,std::less<unsigned long>,std::allocator<std::pair<unsigned long const ,CPythonSkillPet::SSkillDataPet> >,0> >
_TEXT	ENDS
; Function compile flags: /Ogtp
; File C:\Program Files\Microsoft Visual Studio\2022\Community\VC\Tools\MSVC\14.34.31933\include\xtree
;	COMDAT ??D?$_Tree_const_iterator@V?$_Tree_val@U?$_Tree_simple_types@U?$pair@$$CBKUSSkillDataPet@CPythonSkillPet@@@std@@@std@@@std@@@std@@QBEABU?$pair@$$CBKUSSkillDataPet@CPythonSkillPet@@@1@XZ
_TEXT	SEGMENT
??D?$_Tree_const_iterator@V?$_Tree_val@U?$_Tree_simple_types@U?$pair@$$CBKUSSkillDataPet@CPythonSkillPet@@@std@@@std@@@std@@@std@@QBEABU?$pair@$$CBKUSSkillDataPet@CPythonSkillPet@@@1@XZ PROC ; std::_Tree_const_iterator<std::_Tree_val<std::_Tree_simple_types<std::pair<unsigned long const ,CPythonSkillPet::SSkillDataPet> > > >::operator*, COMDAT
; _this$ = ecx

; 180  : #if _ITERATOR_DEBUG_LEVEL == 2
; 181  :         const auto _Mycont = static_cast<const _Mytree*>(this->_Getcont());
; 182  :         _STL_ASSERT(_Mycont, "cannot dereference value-initialized map/set iterator");
; 183  :         _STL_VERIFY(this->_Ptr != _Mycont->_Myhead, "cannot dereference end map/set iterator");
; 184  : #endif // _ITERATOR_DEBUG_LEVEL == 2
; 185  : 
; 186  :         return this->_Ptr->_Myval;

  00000	8b 01		 mov	 eax, DWORD PTR [ecx]
  00002	83 c0 10	 add	 eax, 16			; 00000010H

; 187  :     }

  00005	c3		 ret	 0
??D?$_Tree_const_iterator@V?$_Tree_val@U?$_Tree_simple_types@U?$pair@$$CBKUSSkillDataPet@CPythonSkillPet@@@std@@@std@@@std@@@std@@QBEABU?$pair@$$CBKUSSkillDataPet@CPythonSkillPet@@@1@XZ ENDP ; std::_Tree_const_iterator<std::_Tree_val<std::_Tree_simple_types<std::pair<unsigned long const ,CPythonSkillPet::SSkillDataPet> > > >::operator*
_TEXT	ENDS
; Function compile flags: /Ogtp
; File C:\Program Files\Microsoft Visual Studio\2022\Community\VC\Tools\MSVC\14.34.31933\include\xmemory
;	COMDAT ?_Get_first@?$_Compressed_pair@V?$allocator@U?$_Tree_node@U?$pair@$$CBKUSSkillDataPet@CPythonSkillPet@@@std@@PAX@std@@@std@@V?$_Tree_val@U?$_Tree_simple_types@U?$pair@$$CBKUSSkillDataPet@CPythonSkillPet@@@std@@@std@@@2@$00@std@@QAEAAV?$allocator@U?$_Tree_node@U?$pair@$$CBKUSSkillDataPet@CPythonSkillPet@@@std@@PAX@std@@@2@XZ
_TEXT	SEGMENT
?_Get_first@?$_Compressed_pair@V?$allocator@U?$_Tree_node@U?$pair@$$CBKUSSkillDataPet@CPythonSkillPet@@@std@@PAX@std@@@std@@V?$_Tree_val@U?$_Tree_simple_types@U?$pair@$$CBKUSSkillDataPet@CPythonSkillPet@@@std@@@std@@@2@$00@std@@QAEAAV?$allocator@U?$_Tree_node@U?$pair@$$CBKUSSkillDataPet@CPythonSkillPet@@@std@@PAX@std@@@2@XZ PROC ; std::_Compressed_pair<std::allocator<std::_Tree_node<std::pair<unsigned long const ,CPythonSkillPet::SSkillDataPet>,void *> >,std::_Tree_val<std::_Tree_simple_types<std::pair<unsigned long const ,CPythonSkillPet::SSkillDataPet> > >,1>::_Get_first, COMDAT
; _this$ = ecx

; 1384 :         return *this;

  00000	8b c1		 mov	 eax, ecx

; 1385 :     }

  00002	c3		 ret	 0
?_Get_first@?$_Compressed_pair@V?$allocator@U?$_Tree_node@U?$pair@$$CBKUSSkillDataPet@CPythonSkillPet@@@std@@PAX@std@@@std@@V?$_Tree_val@U?$_Tree_simple_types@U?$pair@$$CBKUSSkillDataPet@CPythonSkillPet@@@std@@@std@@@2@$00@std@@QAEAAV?$allocator@U?$_Tree_node@U?$pair@$$CBKUSSkillDataPet@CPythonSkillPet@@@std@@PAX@std@@@2@XZ ENDP ; std::_Compressed_pair<std::allocator<std::_Tree_node<std::pair<unsigned long const ,CPythonSkillPet::SSkillDataPet>,void *> >,std::_Tree_val<std::_Tree_simple_types<std::pair<unsigned long const ,CPythonSkillPet::SSkillDataPet> > >,1>::_Get_first
_TEXT	ENDS
; Function compile flags: /Ogtp
; File C:\Program Files\Microsoft Visual Studio\2022\Community\VC\Tools\MSVC\14.34.31933\include\xtree
; File C:\Program Files\Microsoft Visual Studio\2022\Community\VC\Tools\MSVC\14.34.31933\include\xmemory
; File C:\Program Files\Microsoft Visual Studio\2022\Community\VC\Tools\MSVC\14.34.31933\include\xtree
; File C:\Program Files\Microsoft Visual Studio\2022\Community\VC\Tools\MSVC\14.34.31933\include\xmemory
; File C:\Program Files\Microsoft Visual Studio\2022\Community\VC\Tools\MSVC\14.34.31933\include\xtree
;	COMDAT ?_Alloc_sentinel_and_proxy@?$_Tree@V?$_Tmap_traits@KUSSkillDataPet@CPythonSkillPet@@U?$less@K@std@@V?$allocator@U?$pair@$$CBKUSSkillDataPet@CPythonSkillPet@@@std@@@4@$0A@@std@@@std@@IAEXXZ
_TEXT	SEGMENT
?_Alloc_sentinel_and_proxy@?$_Tree@V?$_Tmap_traits@KUSSkillDataPet@CPythonSkillPet@@U?$less@K@std@@V?$allocator@U?$pair@$$CBKUSSkillDataPet@CPythonSkillPet@@@std@@@4@$0A@@std@@@std@@IAEXXZ PROC ; std::_Tree<std::_Tmap_traits<unsigned long,CPythonSkillPet::SSkillDataPet,std::less<unsigned long>,std::allocator<std::pair<unsigned long const ,CPythonSkillPet::SSkillDataPet> >,0> >::_Alloc_sentinel_and_proxy, COMDAT
; _this$ = ecx

; 1937 :     void _Alloc_sentinel_and_proxy() {

  00000	56		 push	 esi
; File C:\Program Files\Microsoft Visual Studio\2022\Community\VC\Tools\MSVC\14.34.31933\include\xmemory

; 77   :         return ::operator new(_Bytes);

  00001	6a 6c		 push	 108			; 0000006cH
; File C:\Program Files\Microsoft Visual Studio\2022\Community\VC\Tools\MSVC\14.34.31933\include\xtree

; 1937 :     void _Alloc_sentinel_and_proxy() {

  00003	8b f1		 mov	 esi, ecx
; File C:\Program Files\Microsoft Visual Studio\2022\Community\VC\Tools\MSVC\14.34.31933\include\xmemory

; 77   :         return ::operator new(_Bytes);

  00005	e8 00 00 00 00	 call	 ??2@YAPAXI@Z		; operator new
  0000a	83 c4 04	 add	 esp, 4
; File C:\Program Files\Microsoft Visual Studio\2022\Community\VC\Tools\MSVC\14.34.31933\include\xtree

; 347  :         _Construct_in_place(_Pnode->_Left, _Pnode);

  0000d	89 00		 mov	 DWORD PTR [eax], eax

; 348  :         _Construct_in_place(_Pnode->_Parent, _Pnode);

  0000f	89 40 04	 mov	 DWORD PTR [eax+4], eax

; 349  :         _Construct_in_place(_Pnode->_Right, _Pnode);

  00012	89 40 08	 mov	 DWORD PTR [eax+8], eax

; 350  :         _Pnode->_Color = _Black;

  00015	66 c7 40 0c 01
	01		 mov	 WORD PTR [eax+12], 257	; 00000101H

; 1938 :         const auto _Scary = _Get_scary();
; 1939 :         auto&& _Alproxy   = _GET_PROXY_ALLOCATOR(_Alnode, _Getal());
; 1940 :         _Container_proxy_ptr<_Alnode> _Proxy(_Alproxy, *_Scary);
; 1941 :         _Scary->_Myhead = _Node::_Buyheadnode(_Getal());

  0001b	89 06		 mov	 DWORD PTR [esi], eax
  0001d	5e		 pop	 esi

; 1942 :         _Proxy._Release();
; 1943 :     }

  0001e	c3		 ret	 0
?_Alloc_sentinel_and_proxy@?$_Tree@V?$_Tmap_traits@KUSSkillDataPet@CPythonSkillPet@@U?$less@K@std@@V?$allocator@U?$pair@$$CBKUSSkillDataPet@CPythonSkillPet@@@std@@@4@$0A@@std@@@std@@IAEXXZ ENDP ; std::_Tree<std::_Tmap_traits<unsigned long,CPythonSkillPet::SSkillDataPet,std::less<unsigned long>,std::allocator<std::pair<unsigned long const ,CPythonSkillPet::SSkillDataPet> >,0> >::_Alloc_sentinel_and_proxy
_TEXT	ENDS
; Function compile flags: /Ogtp
; File C:\Program Files\Microsoft Visual Studio\2022\Community\VC\Tools\MSVC\14.34.31933\include\utility
;	COMDAT ??$make_pair@AAKUSSkillDataPet@CPythonSkillPet@@@std@@YA?AU?$pair@KUSSkillDataPet@CPythonSkillPet@@@0@AAK$$QAUSSkillDataPet@CPythonSkillPet@@@Z
_TEXT	SEGMENT
__Val2$ = 8						; size = 4
??$make_pair@AAKUSSkillDataPet@CPythonSkillPet@@@std@@YA?AU?$pair@KUSSkillDataPet@CPythonSkillPet@@@0@AAK$$QAUSSkillDataPet@CPythonSkillPet@@@Z PROC ; std::make_pair<unsigned long &,CPythonSkillPet::SSkillDataPet>, COMDAT
; ___$ReturnUdt$ = ecx
; __Val1$ = edx

; 443  :         is_nothrow_constructible_v<_Unrefwrap_t<_Ty2>, _Ty2>) /* strengthened */ {

  00000	55		 push	 ebp
  00001	8b ec		 mov	 ebp, esp

; 172  :         : first(_STD forward<_Other1>(_Val1)), second(_STD forward<_Other2>(_Val2)) {

  00003	8b 02		 mov	 eax, DWORD PTR [edx]

; 443  :         is_nothrow_constructible_v<_Unrefwrap_t<_Ty2>, _Ty2>) /* strengthened */ {

  00005	56		 push	 esi

; 172  :         : first(_STD forward<_Other1>(_Val1)), second(_STD forward<_Other2>(_Val2)) {

  00006	ff 75 08	 push	 DWORD PTR __Val2$[ebp]

; 443  :         is_nothrow_constructible_v<_Unrefwrap_t<_Ty2>, _Ty2>) /* strengthened */ {

  00009	8b f1		 mov	 esi, ecx

; 172  :         : first(_STD forward<_Other1>(_Val1)), second(_STD forward<_Other2>(_Val2)) {

  0000b	8d 4e 04	 lea	 ecx, DWORD PTR [esi+4]
  0000e	89 06		 mov	 DWORD PTR [esi], eax
  00010	e8 00 00 00 00	 call	 ??0SSkillDataPet@CPythonSkillPet@@QAE@$$QAU01@@Z

; 444  :     // return pair composed from arguments
; 445  :     using _Mypair = pair<_Unrefwrap_t<_Ty1>, _Unrefwrap_t<_Ty2>>;
; 446  :     return _Mypair(_STD forward<_Ty1>(_Val1), _STD forward<_Ty2>(_Val2));

  00015	8b c6		 mov	 eax, esi
  00017	5e		 pop	 esi

; 447  : }

  00018	5d		 pop	 ebp
  00019	c3		 ret	 0
??$make_pair@AAKUSSkillDataPet@CPythonSkillPet@@@std@@YA?AU?$pair@KUSSkillDataPet@CPythonSkillPet@@@0@AAK$$QAUSSkillDataPet@CPythonSkillPet@@@Z ENDP ; std::make_pair<unsigned long &,CPythonSkillPet::SSkillDataPet>
_TEXT	ENDS
; Function compile flags: /Ogtp
; File C:\Program Files\Microsoft Visual Studio\2022\Community\VC\Tools\MSVC\14.34.31933\include\map
;	COMDAT ??$insert@U?$pair@KUSSkillDataPet@CPythonSkillPet@@@std@@$0A@@?$map@KUSSkillDataPet@CPythonSkillPet@@U?$less@K@std@@V?$allocator@U?$pair@$$CBKUSSkillDataPet@CPythonSkillPet@@@std@@@4@@std@@QAE?AU?$pair@V?$_Tree_iterator@V?$_Tree_val@U?$_Tree_simple_types@U?$pair@$$CBKUSSkillDataPet@CPythonSkillPet@@@std@@@std@@@std@@@std@@_N@1@$$QAU?$pair@KUSSkillDataPet@CPythonSkillPet@@@1@@Z
_TEXT	SEGMENT
___$ReturnUdt$ = 8					; size = 4
__Val$ = 12						; size = 4
??$insert@U?$pair@KUSSkillDataPet@CPythonSkillPet@@@std@@$0A@@?$map@KUSSkillDataPet@CPythonSkillPet@@U?$less@K@std@@V?$allocator@U?$pair@$$CBKUSSkillDataPet@CPythonSkillPet@@@std@@@4@@std@@QAE?AU?$pair@V?$_Tree_iterator@V?$_Tree_val@U?$_Tree_simple_types@U?$pair@$$CBKUSSkillDataPet@CPythonSkillPet@@@std@@@std@@@std@@@std@@_N@1@$$QAU?$pair@KUSSkillDataPet@CPythonSkillPet@@@1@@Z PROC ; std::map<unsigned long,CPythonSkillPet::SSkillDataPet,std::less<unsigned long>,std::allocator<std::pair<unsigned long const ,CPythonSkillPet::SSkillDataPet> > >::insert<std::pair<unsigned long,CPythonSkillPet::SSkillDataPet>,0>, COMDAT
; _this$ = ecx

; 184  :     pair<iterator, bool> insert(_Valty&& _Val) {

  00000	55		 push	 ebp
  00001	8b ec		 mov	 ebp, esp

; 185  :         return this->emplace(_STD forward<_Valty>(_Val));

  00003	ff 75 0c	 push	 DWORD PTR __Val$[ebp]
  00006	ff 75 08	 push	 DWORD PTR ___$ReturnUdt$[ebp]
  00009	e8 00 00 00 00	 call	 ??$emplace@U?$pair@KUSSkillDataPet@CPythonSkillPet@@@std@@@?$_Tree@V?$_Tmap_traits@KUSSkillDataPet@CPythonSkillPet@@U?$less@K@std@@V?$allocator@U?$pair@$$CBKUSSkillDataPet@CPythonSkillPet@@@std@@@4@$0A@@std@@@std@@QAE?AU?$pair@V?$_Tree_iterator@V?$_Tree_val@U?$_Tree_simple_types@U?$pair@$$CBKUSSkillDataPet@CPythonSkillPet@@@std@@@std@@@std@@@std@@_N@1@$$QAU?$pair@KUSSkillDataPet@CPythonSkillPet@@@1@@Z ; std::_Tree<std::_Tmap_traits<unsigned long,CPythonSkillPet::SSkillDataPet,std::less<unsigned long>,std::allocator<std::pair<unsigned long const ,CPythonSkillPet::SSkillDataPet> >,0> >::emplace<std::pair<unsigned long,CPythonSkillPet::SSkillDataPet> >
  0000e	8b 45 08	 mov	 eax, DWORD PTR ___$ReturnUdt$[ebp]

; 186  :     }

  00011	5d		 pop	 ebp
  00012	c2 08 00	 ret	 8
??$insert@U?$pair@KUSSkillDataPet@CPythonSkillPet@@@std@@$0A@@?$map@KUSSkillDataPet@CPythonSkillPet@@U?$less@K@std@@V?$allocator@U?$pair@$$CBKUSSkillDataPet@CPythonSkillPet@@@std@@@4@@std@@QAE?AU?$pair@V?$_Tree_iterator@V?$_Tree_val@U?$_Tree_simple_types@U?$pair@$$CBKUSSkillDataPet@CPythonSkillPet@@@std@@@std@@@std@@@std@@_N@1@$$QAU?$pair@KUSSkillDataPet@CPythonSkillPet@@@1@@Z ENDP ; std::map<unsigned long,CPythonSkillPet::SSkillDataPet,std::less<unsigned long>,std::allocator<std::pair<unsigned long const ,CPythonSkillPet::SSkillDataPet> > >::insert<std::pair<unsigned long,CPythonSkillPet::SSkillDataPet>,0>
_TEXT	ENDS
; Function compile flags: /Ogtp
; File C:\Program Files\Microsoft Visual Studio\2022\Community\VC\Tools\MSVC\14.34.31933\include\utility
; File C:\Program Files\Microsoft Visual Studio\2022\Community\VC\Tools\MSVC\14.34.31933\include\xstring
; File C:\Program Files\Microsoft Visual Studio\2022\Community\VC\Tools\MSVC\14.34.31933\include\utility
; File C:\Program Files\Microsoft Visual Studio\2022\Community\VC\Tools\MSVC\14.34.31933\include\xstring
; File C:\Program Files\Microsoft Visual Studio\2022\Community\VC\Tools\MSVC\14.34.31933\include\utility
;	COMDAT ??$?0AAY05$$CBDW4<unnamed-enum-SKILLPET_TYPE_NONE>@CPythonSkillPet@@$0A@@?$pair@$$CBV?$basic_string@DU?$char_traits@D@std@@V?$allocator@D@2@@std@@K@std@@QAE@AAY05$$CBD$$QAW4<unnamed-enum-SKILLPET_TYPE_NONE>@CPythonSkillPet@@@Z
_TEXT	SEGMENT
_this$ = -4						; size = 4
__Val1$dead$ = 8					; size = 4
__Val2$ = 12						; size = 4
??$?0AAY05$$CBDW4<unnamed-enum-SKILLPET_TYPE_NONE>@CPythonSkillPet@@$0A@@?$pair@$$CBV?$basic_string@DU?$char_traits@D@std@@V?$allocator@D@2@@std@@K@std@@QAE@AAY05$$CBD$$QAW4<unnamed-enum-SKILLPET_TYPE_NONE>@CPythonSkillPet@@@Z PROC ; std::pair<std::basic_string<char,std::char_traits<char>,std::allocator<char> > const ,unsigned long>::pair<std::basic_string<char,std::char_traits<char>,std::allocator<char> > const ,unsigned long><char const (&)[6],enum CPythonSkillPet::<unnamed-enum-SKILLPET_TYPE_NONE>,0>, COMDAT
; _this$ = ecx

; 172  :         : first(_STD forward<_Other1>(_Val1)), second(_STD forward<_Other2>(_Val2)) {

  00000	55		 push	 ebp
  00001	8b ec		 mov	 ebp, esp
  00003	51		 push	 ecx
  00004	56		 push	 esi
  00005	8b f1		 mov	 esi, ecx
  00007	0f 57 c0	 xorps	 xmm0, xmm0
; File C:\Program Files\Microsoft Visual Studio\2022\Community\VC\Tools\MSVC\14.34.31933\include\xstring

; 2674 :         _Construct<_Construct_strategy::_From_ptr>(_Ptr, _Convert_size<size_type>(_Traits::length(_Ptr)));

  0000a	6a 05		 push	 5
  0000c	68 00 00 00 00	 push	 OFFSET ??_C@_05HKAKDGKI@EMPTY@
; File C:\Program Files\Microsoft Visual Studio\2022\Community\VC\Tools\MSVC\14.34.31933\include\utility

; 172  :         : first(_STD forward<_Other1>(_Val1)), second(_STD forward<_Other2>(_Val2)) {

  00011	89 75 fc	 mov	 DWORD PTR _this$[ebp], esi
; File C:\Program Files\Microsoft Visual Studio\2022\Community\VC\Tools\MSVC\14.34.31933\include\xstring

; 2339 :         _CONSTEXPR20 _Bxty() noexcept : _Buf() {} // user-provided, for fancy pointers

  00014	0f 11 06	 movups	 XMMWORD PTR [esi], xmm0

; 2348 :     size_type _Mysize = 0; // current length of string

  00017	c7 46 10 00 00
	00 00		 mov	 DWORD PTR [esi+16], 0

; 2349 :     size_type _Myres  = 0; // current storage reserved for string

  0001e	c7 46 14 00 00
	00 00		 mov	 DWORD PTR [esi+20], 0

; 2674 :         _Construct<_Construct_strategy::_From_ptr>(_Ptr, _Convert_size<size_type>(_Traits::length(_Ptr)));

  00025	e8 00 00 00 00	 call	 ??$_Construct@$00PBD@?$basic_string@DU?$char_traits@D@std@@V?$allocator@D@2@@std@@AAEXQBDI@Z ; std::basic_string<char,std::char_traits<char>,std::allocator<char> >::_Construct<1,char const *>
; File C:\Program Files\Microsoft Visual Studio\2022\Community\VC\Tools\MSVC\14.34.31933\include\utility

; 172  :         : first(_STD forward<_Other1>(_Val1)), second(_STD forward<_Other2>(_Val2)) {

  0002a	8b 45 0c	 mov	 eax, DWORD PTR __Val2$[ebp]
  0002d	8b 00		 mov	 eax, DWORD PTR [eax]
  0002f	89 46 18	 mov	 DWORD PTR [esi+24], eax

; 173  :     }

  00032	8b c6		 mov	 eax, esi
  00034	5e		 pop	 esi
  00035	8b e5		 mov	 esp, ebp
  00037	5d		 pop	 ebp
  00038	c2 08 00	 ret	 8
??$?0AAY05$$CBDW4<unnamed-enum-SKILLPET_TYPE_NONE>@CPythonSkillPet@@$0A@@?$pair@$$CBV?$basic_string@DU?$char_traits@D@std@@V?$allocator@D@2@@std@@K@std@@QAE@AAY05$$CBD$$QAW4<unnamed-enum-SKILLPET_TYPE_NONE>@CPythonSkillPet@@@Z ENDP ; std::pair<std::basic_string<char,std::char_traits<char>,std::allocator<char> > const ,unsigned long>::pair<std::basic_string<char,std::char_traits<char>,std::allocator<char> > const ,unsigned long><char const (&)[6],enum CPythonSkillPet::<unnamed-enum-SKILLPET_TYPE_NONE>,0>
_TEXT	ENDS
; Function compile flags: /Ogtp
; File C:\Program Files\Microsoft Visual Studio\2022\Community\VC\Tools\MSVC\14.34.31933\include\utility
; File C:\Program Files\Microsoft Visual Studio\2022\Community\VC\Tools\MSVC\14.34.31933\include\xstring
; File C:\Program Files\Microsoft Visual Studio\2022\Community\VC\Tools\MSVC\14.34.31933\include\utility
; File C:\Program Files\Microsoft Visual Studio\2022\Community\VC\Tools\MSVC\14.34.31933\include\xstring
; File C:\Program Files\Microsoft Visual Studio\2022\Community\VC\Tools\MSVC\14.34.31933\include\utility
;	COMDAT ??$?0AAY07$$CBDW4<unnamed-enum-SKILLPET_TYPE_NONE>@CPythonSkillPet@@$0A@@?$pair@$$CBV?$basic_string@DU?$char_traits@D@std@@V?$allocator@D@2@@std@@K@std@@QAE@AAY07$$CBD$$QAW4<unnamed-enum-SKILLPET_TYPE_NONE>@CPythonSkillPet@@@Z
_TEXT	SEGMENT
_this$ = -4						; size = 4
__Val1$dead$ = 8					; size = 4
__Val2$ = 12						; size = 4
??$?0AAY07$$CBDW4<unnamed-enum-SKILLPET_TYPE_NONE>@CPythonSkillPet@@$0A@@?$pair@$$CBV?$basic_string@DU?$char_traits@D@std@@V?$allocator@D@2@@std@@K@std@@QAE@AAY07$$CBD$$QAW4<unnamed-enum-SKILLPET_TYPE_NONE>@CPythonSkillPet@@@Z PROC ; std::pair<std::basic_string<char,std::char_traits<char>,std::allocator<char> > const ,unsigned long>::pair<std::basic_string<char,std::char_traits<char>,std::allocator<char> > const ,unsigned long><char const (&)[8],enum CPythonSkillPet::<unnamed-enum-SKILLPET_TYPE_NONE>,0>, COMDAT
; _this$ = ecx

; 172  :         : first(_STD forward<_Other1>(_Val1)), second(_STD forward<_Other2>(_Val2)) {

  00000	55		 push	 ebp
  00001	8b ec		 mov	 ebp, esp
  00003	51		 push	 ecx
  00004	56		 push	 esi
  00005	8b f1		 mov	 esi, ecx
  00007	0f 57 c0	 xorps	 xmm0, xmm0
; File C:\Program Files\Microsoft Visual Studio\2022\Community\VC\Tools\MSVC\14.34.31933\include\xstring

; 2674 :         _Construct<_Construct_strategy::_From_ptr>(_Ptr, _Convert_size<size_type>(_Traits::length(_Ptr)));

  0000a	6a 07		 push	 7
  0000c	68 00 00 00 00	 push	 OFFSET ??_C@_07NLANJMCK@PASSIVE@
; File C:\Program Files\Microsoft Visual Studio\2022\Community\VC\Tools\MSVC\14.34.31933\include\utility

; 172  :         : first(_STD forward<_Other1>(_Val1)), second(_STD forward<_Other2>(_Val2)) {

  00011	89 75 fc	 mov	 DWORD PTR _this$[ebp], esi
; File C:\Program Files\Microsoft Visual Studio\2022\Community\VC\Tools\MSVC\14.34.31933\include\xstring

; 2339 :         _CONSTEXPR20 _Bxty() noexcept : _Buf() {} // user-provided, for fancy pointers

  00014	0f 11 06	 movups	 XMMWORD PTR [esi], xmm0

; 2348 :     size_type _Mysize = 0; // current length of string

  00017	c7 46 10 00 00
	00 00		 mov	 DWORD PTR [esi+16], 0

; 2349 :     size_type _Myres  = 0; // current storage reserved for string

  0001e	c7 46 14 00 00
	00 00		 mov	 DWORD PTR [esi+20], 0

; 2674 :         _Construct<_Construct_strategy::_From_ptr>(_Ptr, _Convert_size<size_type>(_Traits::length(_Ptr)));

  00025	e8 00 00 00 00	 call	 ??$_Construct@$00PBD@?$basic_string@DU?$char_traits@D@std@@V?$allocator@D@2@@std@@AAEXQBDI@Z ; std::basic_string<char,std::char_traits<char>,std::allocator<char> >::_Construct<1,char const *>
; File C:\Program Files\Microsoft Visual Studio\2022\Community\VC\Tools\MSVC\14.34.31933\include\utility

; 172  :         : first(_STD forward<_Other1>(_Val1)), second(_STD forward<_Other2>(_Val2)) {

  0002a	8b 45 0c	 mov	 eax, DWORD PTR __Val2$[ebp]
  0002d	8b 00		 mov	 eax, DWORD PTR [eax]
  0002f	89 46 18	 mov	 DWORD PTR [esi+24], eax

; 173  :     }

  00032	8b c6		 mov	 eax, esi
  00034	5e		 pop	 esi
  00035	8b e5		 mov	 esp, ebp
  00037	5d		 pop	 ebp
  00038	c2 08 00	 ret	 8
??$?0AAY07$$CBDW4<unnamed-enum-SKILLPET_TYPE_NONE>@CPythonSkillPet@@$0A@@?$pair@$$CBV?$basic_string@DU?$char_traits@D@std@@V?$allocator@D@2@@std@@K@std@@QAE@AAY07$$CBD$$QAW4<unnamed-enum-SKILLPET_TYPE_NONE>@CPythonSkillPet@@@Z ENDP ; std::pair<std::basic_string<char,std::char_traits<char>,std::allocator<char> > const ,unsigned long>::pair<std::basic_string<char,std::char_traits<char>,std::allocator<char> > const ,unsigned long><char const (&)[8],enum CPythonSkillPet::<unnamed-enum-SKILLPET_TYPE_NONE>,0>
_TEXT	ENDS
; Function compile flags: /Ogtp
; File C:\Program Files\Microsoft Visual Studio\2022\Community\VC\Tools\MSVC\14.34.31933\include\utility
; File C:\Program Files\Microsoft Visual Studio\2022\Community\VC\Tools\MSVC\14.34.31933\include\xstring
; File C:\Program Files\Microsoft Visual Studio\2022\Community\VC\Tools\MSVC\14.34.31933\include\utility
; File C:\Program Files\Microsoft Visual Studio\2022\Community\VC\Tools\MSVC\14.34.31933\include\xstring
; File C:\Program Files\Microsoft Visual Studio\2022\Community\VC\Tools\MSVC\14.34.31933\include\utility
;	COMDAT ??$?0AAY04$$CBDW4<unnamed-enum-SKILLPET_TYPE_NONE>@CPythonSkillPet@@$0A@@?$pair@$$CBV?$basic_string@DU?$char_traits@D@std@@V?$allocator@D@2@@std@@K@std@@QAE@AAY04$$CBD$$QAW4<unnamed-enum-SKILLPET_TYPE_NONE>@CPythonSkillPet@@@Z
_TEXT	SEGMENT
_this$ = -4						; size = 4
__Val1$dead$ = 8					; size = 4
__Val2$ = 12						; size = 4
??$?0AAY04$$CBDW4<unnamed-enum-SKILLPET_TYPE_NONE>@CPythonSkillPet@@$0A@@?$pair@$$CBV?$basic_string@DU?$char_traits@D@std@@V?$allocator@D@2@@std@@K@std@@QAE@AAY04$$CBD$$QAW4<unnamed-enum-SKILLPET_TYPE_NONE>@CPythonSkillPet@@@Z PROC ; std::pair<std::basic_string<char,std::char_traits<char>,std::allocator<char> > const ,unsigned long>::pair<std::basic_string<char,std::char_traits<char>,std::allocator<char> > const ,unsigned long><char const (&)[5],enum CPythonSkillPet::<unnamed-enum-SKILLPET_TYPE_NONE>,0>, COMDAT
; _this$ = ecx

; 172  :         : first(_STD forward<_Other1>(_Val1)), second(_STD forward<_Other2>(_Val2)) {

  00000	55		 push	 ebp
  00001	8b ec		 mov	 ebp, esp
  00003	51		 push	 ecx
  00004	56		 push	 esi
  00005	8b f1		 mov	 esi, ecx
  00007	0f 57 c0	 xorps	 xmm0, xmm0
; File C:\Program Files\Microsoft Visual Studio\2022\Community\VC\Tools\MSVC\14.34.31933\include\xstring

; 2674 :         _Construct<_Construct_strategy::_From_ptr>(_Ptr, _Convert_size<size_type>(_Traits::length(_Ptr)));

  0000a	6a 04		 push	 4
  0000c	68 00 00 00 00	 push	 OFFSET ??_C@_04LMMJFDCN@AUTO@
; File C:\Program Files\Microsoft Visual Studio\2022\Community\VC\Tools\MSVC\14.34.31933\include\utility

; 172  :         : first(_STD forward<_Other1>(_Val1)), second(_STD forward<_Other2>(_Val2)) {

  00011	89 75 fc	 mov	 DWORD PTR _this$[ebp], esi
; File C:\Program Files\Microsoft Visual Studio\2022\Community\VC\Tools\MSVC\14.34.31933\include\xstring

; 2339 :         _CONSTEXPR20 _Bxty() noexcept : _Buf() {} // user-provided, for fancy pointers

  00014	0f 11 06	 movups	 XMMWORD PTR [esi], xmm0

; 2348 :     size_type _Mysize = 0; // current length of string

  00017	c7 46 10 00 00
	00 00		 mov	 DWORD PTR [esi+16], 0

; 2349 :     size_type _Myres  = 0; // current storage reserved for string

  0001e	c7 46 14 00 00
	00 00		 mov	 DWORD PTR [esi+20], 0

; 2674 :         _Construct<_Construct_strategy::_From_ptr>(_Ptr, _Convert_size<size_type>(_Traits::length(_Ptr)));

  00025	e8 00 00 00 00	 call	 ??$_Construct@$00PBD@?$basic_string@DU?$char_traits@D@std@@V?$allocator@D@2@@std@@AAEXQBDI@Z ; std::basic_string<char,std::char_traits<char>,std::allocator<char> >::_Construct<1,char const *>
; File C:\Program Files\Microsoft Visual Studio\2022\Community\VC\Tools\MSVC\14.34.31933\include\utility

; 172  :         : first(_STD forward<_Other1>(_Val1)), second(_STD forward<_Other2>(_Val2)) {

  0002a	8b 45 0c	 mov	 eax, DWORD PTR __Val2$[ebp]
  0002d	8b 00		 mov	 eax, DWORD PTR [eax]
  0002f	89 46 18	 mov	 DWORD PTR [esi+24], eax

; 173  :     }

  00032	8b c6		 mov	 eax, esi
  00034	5e		 pop	 esi
  00035	8b e5		 mov	 esp, ebp
  00037	5d		 pop	 ebp
  00038	c2 08 00	 ret	 8
??$?0AAY04$$CBDW4<unnamed-enum-SKILLPET_TYPE_NONE>@CPythonSkillPet@@$0A@@?$pair@$$CBV?$basic_string@DU?$char_traits@D@std@@V?$allocator@D@2@@std@@K@std@@QAE@AAY04$$CBD$$QAW4<unnamed-enum-SKILLPET_TYPE_NONE>@CPythonSkillPet@@@Z ENDP ; std::pair<std::basic_string<char,std::char_traits<char>,std::allocator<char> > const ,unsigned long>::pair<std::basic_string<char,std::char_traits<char>,std::allocator<char> > const ,unsigned long><char const (&)[5],enum CPythonSkillPet::<unnamed-enum-SKILLPET_TYPE_NONE>,0>
_TEXT	ENDS
; Function compile flags: /Ogtp
; File C:\Program Files\Microsoft Visual Studio\2022\Community\VC\Tools\MSVC\14.34.31933\include\map
; File C:\Program Files\Microsoft Visual Studio\2022\Community\VC\Tools\MSVC\14.34.31933\include\xtree
; File C:\Program Files\Microsoft Visual Studio\2022\Community\VC\Tools\MSVC\14.34.31933\include\utility
; File C:\Program Files\Microsoft Visual Studio\2022\Community\VC\Tools\MSVC\14.34.31933\include\map
; File C:\Program Files\Microsoft Visual Studio\2022\Community\VC\Tools\MSVC\14.34.31933\include\xtree
; File C:\Program Files\Microsoft Visual Studio\2022\Community\VC\Tools\MSVC\14.34.31933\include\map
; File C:\Program Files\Microsoft Visual Studio\2022\Community\VC\Tools\MSVC\14.34.31933\include\xmemory
; File C:\Program Files\Microsoft Visual Studio\2022\Community\VC\Tools\MSVC\14.34.31933\include\xtree
; File C:\Program Files\Microsoft Visual Studio\2022\Community\VC\Tools\MSVC\14.34.31933\include\xmemory
; File C:\Program Files\Microsoft Visual Studio\2022\Community\VC\Tools\MSVC\14.34.31933\include\xtree
; File C:\Program Files\Microsoft Visual Studio\2022\Community\VC\Tools\MSVC\14.34.31933\include\map
; File C:\Program Files\Microsoft Visual Studio\2022\Community\VC\Tools\MSVC\14.34.31933\include\xtree
; File C:\Program Files\Microsoft Visual Studio\2022\Community\VC\Tools\MSVC\14.34.31933\include\map
; File C:\Program Files\Microsoft Visual Studio\2022\Community\VC\Tools\MSVC\14.34.31933\include\xtree
; File C:\Program Files\Microsoft Visual Studio\2022\Community\VC\Tools\MSVC\14.34.31933\include\map
; File C:\Program Files\Microsoft Visual Studio\2022\Community\VC\Tools\MSVC\14.34.31933\include\utility
; File C:\Program Files\Microsoft Visual Studio\2022\Community\VC\Tools\MSVC\14.34.31933\include\map
; File C:\Program Files\Microsoft Visual Studio\2022\Community\VC\Tools\MSVC\14.34.31933\include\utility
; File C:\Program Files\Microsoft Visual Studio\2022\Community\VC\Tools\MSVC\14.34.31933\include\map
; File C:\Program Files\Microsoft Visual Studio\2022\Community\VC\Tools\MSVC\14.34.31933\include\xtree
; File C:\Program Files\Microsoft Visual Studio\2022\Community\VC\Tools\MSVC\14.34.31933\include\map
;	COMDAT ??$_Try_emplace@ABK$$V@?$map@KUSSkillDataPet@CPythonSkillPet@@U?$less@K@std@@V?$allocator@U?$pair@$$CBKUSSkillDataPet@CPythonSkillPet@@@std@@@4@@std@@AAE?AU?$pair@PAU?$_Tree_node@U?$pair@$$CBKUSSkillDataPet@CPythonSkillPet@@@std@@PAX@std@@_N@1@ABK@Z
_TEXT	SEGMENT
__Loc$ = -32						; size = 12
$T2 = -20						; size = 8
__$EHRec$ = -12						; size = 12
___$ReturnUdt$ = 8					; size = 4
__Keyval$ = 12						; size = 4
??$_Try_emplace@ABK$$V@?$map@KUSSkillDataPet@CPythonSkillPet@@U?$less@K@std@@V?$allocator@U?$pair@$$CBKUSSkillDataPet@CPythonSkillPet@@@std@@@4@@std@@AAE?AU?$pair@PAU?$_Tree_node@U?$pair@$$CBKUSSkillDataPet@CPythonSkillPet@@@std@@PAX@std@@_N@1@ABK@Z PROC ; std::map<unsigned long,CPythonSkillPet::SSkillDataPet,std::less<unsigned long>,std::allocator<std::pair<unsigned long const ,CPythonSkillPet::SSkillDataPet> > >::_Try_emplace<unsigned long const &>, COMDAT
; _this$ = ecx

; 195  :     pair<_Nodeptr, bool> _Try_emplace(_Keyty&& _Keyval, _Mappedty&&... _Mapval) {

  00000	55		 push	 ebp
  00001	8b ec		 mov	 ebp, esp
  00003	6a ff		 push	 -1
  00005	68 00 00 00 00	 push	 __ehhandler$??$_Try_emplace@ABK$$V@?$map@KUSSkillDataPet@CPythonSkillPet@@U?$less@K@std@@V?$allocator@U?$pair@$$CBKUSSkillDataPet@CPythonSkillPet@@@std@@@4@@std@@AAE?AU?$pair@PAU?$_Tree_node@U?$pair@$$CBKUSSkillDataPet@CPythonSkillPet@@@std@@PAX@std@@_N@1@ABK@Z
  0000a	64 a1 00 00 00
	00		 mov	 eax, DWORD PTR fs:0
  00010	50		 push	 eax
  00011	83 ec 14	 sub	 esp, 20			; 00000014H
  00014	53		 push	 ebx
  00015	56		 push	 esi
  00016	57		 push	 edi
  00017	a1 00 00 00 00	 mov	 eax, DWORD PTR ___security_cookie
  0001c	33 c5		 xor	 eax, ebp
  0001e	50		 push	 eax
  0001f	8d 45 f4	 lea	 eax, DWORD PTR __$EHRec$[ebp]
  00022	64 a3 00 00 00
	00		 mov	 DWORD PTR fs:0, eax
  00028	8b d9		 mov	 ebx, ecx

; 196  :         const auto _Loc = _Mybase::_Find_lower_bound(_Keyval);

  0002a	8b 75 0c	 mov	 esi, DWORD PTR __Keyval$[ebp]
  0002d	8d 45 e0	 lea	 eax, DWORD PTR __Loc$[ebp]
  00030	56		 push	 esi
  00031	50		 push	 eax
  00032	e8 00 00 00 00	 call	 ??$_Find_lower_bound@K@?$_Tree@V?$_Tmap_traits@KUSSkillDataPet@CPythonSkillPet@@U?$less@K@std@@V?$allocator@U?$pair@$$CBKUSSkillDataPet@CPythonSkillPet@@@std@@@4@$0A@@std@@@std@@IBE?AU?$_Tree_find_result@PAU?$_Tree_node@U?$pair@$$CBKUSSkillDataPet@CPythonSkillPet@@@std@@PAX@std@@@1@ABK@Z ; std::_Tree<std::_Tmap_traits<unsigned long,CPythonSkillPet::SSkillDataPet,std::less<unsigned long>,std::allocator<std::pair<unsigned long const ,CPythonSkillPet::SSkillDataPet> >,0> >::_Find_lower_bound<unsigned long>
; File C:\Program Files\Microsoft Visual Studio\2022\Community\VC\Tools\MSVC\14.34.31933\include\xtree

; 1605 :         return !_Bound->_Isnil && !_DEBUG_LT_PRED(_Getcomp(), _Keyval, _Traits::_Kfn(_Bound->_Myval));

  00037	8b 55 e8	 mov	 edx, DWORD PTR __Loc$[ebp+8]
  0003a	80 7a 0d 00	 cmp	 BYTE PTR [edx+13], 0
  0003e	75 24		 jne	 SHORT $LN2@Try_emplac
  00040	8b 06		 mov	 eax, DWORD PTR [esi]
  00042	3b 42 10	 cmp	 eax, DWORD PTR [edx+16]
  00045	72 1d		 jb	 SHORT $LN2@Try_emplac
; File C:\Program Files\Microsoft Visual Studio\2022\Community\VC\Tools\MSVC\14.34.31933\include\utility

; 172  :         : first(_STD forward<_Other1>(_Val1)), second(_STD forward<_Other2>(_Val2)) {

  00047	8b 45 08	 mov	 eax, DWORD PTR ___$ReturnUdt$[ebp]
  0004a	89 10		 mov	 DWORD PTR [eax], edx
  0004c	c6 40 04 00	 mov	 BYTE PTR [eax+4], 0
; File C:\Program Files\Microsoft Visual Studio\2022\Community\VC\Tools\MSVC\14.34.31933\include\map

; 211  :     }

  00050	8b 4d f4	 mov	 ecx, DWORD PTR __$EHRec$[ebp]
  00053	64 89 0d 00 00
	00 00		 mov	 DWORD PTR fs:0, ecx
  0005a	59		 pop	 ecx
  0005b	5f		 pop	 edi
  0005c	5e		 pop	 esi
  0005d	5b		 pop	 ebx
  0005e	8b e5		 mov	 esp, ebp
  00060	5d		 pop	 ebp
  00061	c2 08 00	 ret	 8
$LN2@Try_emplac:
; File C:\Program Files\Microsoft Visual Studio\2022\Community\VC\Tools\MSVC\14.34.31933\include\xtree

; 1629 :         if (max_size() == _Get_scary()->_Mysize) {

  00064	81 7b 04 97 d0
	5e 02		 cmp	 DWORD PTR [ebx+4], 39768215 ; 025ed097H
  0006b	74 74		 je	 SHORT $LN119@Try_emplac
; File C:\Program Files\Microsoft Visual Studio\2022\Community\VC\Tools\MSVC\14.34.31933\include\map

; 204  :         const auto _Inserted = _Tree_temp_node<_Alnode>(_Mybase::_Getal(), _Scary->_Myhead, piecewise_construct,

  0006d	8b 3b		 mov	 edi, DWORD PTR [ebx]
; File C:\Program Files\Microsoft Visual Studio\2022\Community\VC\Tools\MSVC\14.34.31933\include\xmemory

; 1005 :     _CONSTEXPR20 explicit _Alloc_construct_ptr(_Alloc& _Al_) : _Al(_Al_), _Ptr(nullptr) {}

  0006f	89 5d ec	 mov	 DWORD PTR $T2[ebp], ebx
; File C:\Program Files\Microsoft Visual Studio\2022\Community\VC\Tools\MSVC\14.34.31933\include\xtree

; 785  :     explicit _Tree_temp_node_alloc(_Alnode& _Al_) : _Alloc_construct_ptr<_Alnode>(_Al_) {

  00072	c7 45 fc 00 00
	00 00		 mov	 DWORD PTR __$EHRec$[ebp+8], 0
; File C:\Program Files\Microsoft Visual Studio\2022\Community\VC\Tools\MSVC\14.34.31933\include\xmemory

; 77   :         return ::operator new(_Bytes);

  00079	6a 6c		 push	 108			; 0000006cH

; 1012 :         _Ptr = nullptr; // if allocate throws, prevents double-free

  0007b	c7 45 f0 00 00
	00 00		 mov	 DWORD PTR $T2[ebp+4], 0

; 77   :         return ::operator new(_Bytes);

  00082	e8 00 00 00 00	 call	 ??2@YAPAXI@Z		; operator new

; 1013 :         _Ptr = _Al.allocate(1);

  00087	8b f0		 mov	 esi, eax

; 77   :         return ::operator new(_Bytes);

  00089	83 c4 04	 add	 esp, 4

; 1013 :         _Ptr = _Al.allocate(1);

  0008c	89 75 f0	 mov	 DWORD PTR $T2[ebp+4], esi
; File C:\Program Files\Microsoft Visual Studio\2022\Community\VC\Tools\MSVC\14.34.31933\include\xtree

; 808  :         _Construct_in_place(this->_Ptr->_Left, _Myhead);

  0008f	8b 55 0c	 mov	 edx, DWORD PTR __Keyval$[ebp]
  00092	8d 4e 14	 lea	 ecx, DWORD PTR [esi+20]
  00095	c7 45 fc 01 00
	00 00		 mov	 DWORD PTR __$EHRec$[ebp+8], 1
  0009c	8b 12		 mov	 edx, DWORD PTR [edx]
  0009e	89 56 10	 mov	 DWORD PTR [esi+16], edx
  000a1	e8 00 00 00 00	 call	 ??0SSkillDataPet@CPythonSkillPet@@QAE@XZ ; CPythonSkillPet::SSkillDataPet::SSkillDataPet
; File C:\Program Files\Microsoft Visual Studio\2022\Community\VC\Tools\MSVC\14.34.31933\include\map

; 210  :         return {_Scary->_Insert_node(_Loc._Location, _Inserted), true};

  000a6	56		 push	 esi
  000a7	ff 75 e4	 push	 DWORD PTR __Loc$[ebp+4]
; File C:\Program Files\Microsoft Visual Studio\2022\Community\VC\Tools\MSVC\14.34.31933\include\xtree

; 808  :         _Construct_in_place(this->_Ptr->_Left, _Myhead);

  000aa	89 3e		 mov	 DWORD PTR [esi], edi
; File C:\Program Files\Microsoft Visual Studio\2022\Community\VC\Tools\MSVC\14.34.31933\include\map

; 210  :         return {_Scary->_Insert_node(_Loc._Location, _Inserted), true};

  000ac	8b cb		 mov	 ecx, ebx
  000ae	ff 75 e0	 push	 DWORD PTR __Loc$[ebp]
; File C:\Program Files\Microsoft Visual Studio\2022\Community\VC\Tools\MSVC\14.34.31933\include\xtree

; 809  :         _Construct_in_place(this->_Ptr->_Parent, _Myhead);

  000b1	89 7e 04	 mov	 DWORD PTR [esi+4], edi

; 810  :         _Construct_in_place(this->_Ptr->_Right, _Myhead);

  000b4	89 7e 08	 mov	 DWORD PTR [esi+8], edi

; 811  :         this->_Ptr->_Color = _Red;

  000b7	66 c7 46 0c 00
	00		 mov	 WORD PTR [esi+12], 0
; File C:\Program Files\Microsoft Visual Studio\2022\Community\VC\Tools\MSVC\14.34.31933\include\map

; 210  :         return {_Scary->_Insert_node(_Loc._Location, _Inserted), true};

  000bd	e8 00 00 00 00	 call	 ?_Insert_node@?$_Tree_val@U?$_Tree_simple_types@U?$pair@$$CBKUSSkillDataPet@CPythonSkillPet@@@std@@@std@@@std@@QAEPAU?$_Tree_node@U?$pair@$$CBKUSSkillDataPet@CPythonSkillPet@@@std@@PAX@2@U?$_Tree_id@PAU?$_Tree_node@U?$pair@$$CBKUSSkillDataPet@CPythonSkillPet@@@std@@PAX@std@@@2@QAU32@@Z ; std::_Tree_val<std::_Tree_simple_types<std::pair<unsigned long const ,CPythonSkillPet::SSkillDataPet> > >::_Insert_node
; File C:\Program Files\Microsoft Visual Studio\2022\Community\VC\Tools\MSVC\14.34.31933\include\utility

; 172  :         : first(_STD forward<_Other1>(_Val1)), second(_STD forward<_Other2>(_Val2)) {

  000c2	8b 4d 08	 mov	 ecx, DWORD PTR ___$ReturnUdt$[ebp]
  000c5	89 01		 mov	 DWORD PTR [ecx], eax
; File C:\Program Files\Microsoft Visual Studio\2022\Community\VC\Tools\MSVC\14.34.31933\include\map

; 210  :         return {_Scary->_Insert_node(_Loc._Location, _Inserted), true};

  000c7	8b c1		 mov	 eax, ecx
; File C:\Program Files\Microsoft Visual Studio\2022\Community\VC\Tools\MSVC\14.34.31933\include\utility

; 172  :         : first(_STD forward<_Other1>(_Val1)), second(_STD forward<_Other2>(_Val2)) {

  000c9	c6 41 04 01	 mov	 BYTE PTR [ecx+4], 1
; File C:\Program Files\Microsoft Visual Studio\2022\Community\VC\Tools\MSVC\14.34.31933\include\map

; 211  :     }

  000cd	8b 4d f4	 mov	 ecx, DWORD PTR __$EHRec$[ebp]
  000d0	64 89 0d 00 00
	00 00		 mov	 DWORD PTR fs:0, ecx
  000d7	59		 pop	 ecx
  000d8	5f		 pop	 edi
  000d9	5e		 pop	 esi
  000da	5b		 pop	 ebx
  000db	8b e5		 mov	 esp, ebp
  000dd	5d		 pop	 ebp
  000de	c2 08 00	 ret	 8
$LN119@Try_emplac:
; File C:\Program Files\Microsoft Visual Studio\2022\Community\VC\Tools\MSVC\14.34.31933\include\xtree

; 1630 :             _Throw_tree_length_error();

  000e1	e8 00 00 00 00	 call	 ?_Throw_tree_length_error@std@@YAXXZ ; std::_Throw_tree_length_error
$LN117@Try_emplac:
  000e6	cc		 int	 3
_TEXT	ENDS
;	COMDAT text$x
text$x	SEGMENT
__unwindfunclet$??$_Try_emplace@ABK$$V@?$map@KUSSkillDataPet@CPythonSkillPet@@U?$less@K@std@@V?$allocator@U?$pair@$$CBKUSSkillDataPet@CPythonSkillPet@@@std@@@4@@std@@AAE?AU?$pair@PAU?$_Tree_node@U?$pair@$$CBKUSSkillDataPet@CPythonSkillPet@@@std@@PAX@std@@_N@1@ABK@Z$2:
  00000	8d 4d ec	 lea	 ecx, DWORD PTR $T2[ebp]
  00003	e9 00 00 00 00	 jmp	 ??1?$_Alloc_construct_ptr@V?$allocator@U?$_Tree_node@U?$pair@$$CBKUSSkillDataPet@CPythonSkillPet@@@std@@PAX@std@@@std@@@std@@QAE@XZ ; std::_Alloc_construct_ptr<std::allocator<std::_Tree_node<std::pair<unsigned long const ,CPythonSkillPet::SSkillDataPet>,void *> > >::~_Alloc_construct_ptr<std::allocator<std::_Tree_node<std::pair<unsigned long const ,CPythonSkillPet::SSkillDataPet>,void *> > >
__unwindfunclet$??$_Try_emplace@ABK$$V@?$map@KUSSkillDataPet@CPythonSkillPet@@U?$less@K@std@@V?$allocator@U?$pair@$$CBKUSSkillDataPet@CPythonSkillPet@@@std@@@4@@std@@AAE?AU?$pair@PAU?$_Tree_node@U?$pair@$$CBKUSSkillDataPet@CPythonSkillPet@@@std@@PAX@std@@_N@1@ABK@Z$1:
  00008	8d 4d ec	 lea	 ecx, DWORD PTR $T2[ebp]
  0000b	e9 00 00 00 00	 jmp	 ??1?$_Tree_temp_node_alloc@V?$allocator@U?$_Tree_node@U?$pair@$$CBKUSSkillDataPet@CPythonSkillPet@@@std@@PAX@std@@@std@@@std@@QAE@XZ
  00010	cc		 int	 3
  00011	cc		 int	 3
  00012	cc		 int	 3
  00013	cc		 int	 3
  00014	cc		 int	 3
__ehhandler$??$_Try_emplace@ABK$$V@?$map@KUSSkillDataPet@CPythonSkillPet@@U?$less@K@std@@V?$allocator@U?$pair@$$CBKUSSkillDataPet@CPythonSkillPet@@@std@@@4@@std@@AAE?AU?$pair@PAU?$_Tree_node@U?$pair@$$CBKUSSkillDataPet@CPythonSkillPet@@@std@@PAX@std@@_N@1@ABK@Z:
  00015	90		 npad	 1
  00016	90		 npad	 1
  00017	8b 54 24 08	 mov	 edx, DWORD PTR [esp+8]
  0001b	8d 42 0c	 lea	 eax, DWORD PTR [edx+12]
  0001e	8b 4a dc	 mov	 ecx, DWORD PTR [edx-36]
  00021	33 c8		 xor	 ecx, eax
  00023	e8 00 00 00 00	 call	 @__security_check_cookie@4
  00028	b8 00 00 00 00	 mov	 eax, OFFSET __ehfuncinfo$??$_Try_emplace@ABK$$V@?$map@KUSSkillDataPet@CPythonSkillPet@@U?$less@K@std@@V?$allocator@U?$pair@$$CBKUSSkillDataPet@CPythonSkillPet@@@std@@@4@@std@@AAE?AU?$pair@PAU?$_Tree_node@U?$pair@$$CBKUSSkillDataPet@CPythonSkillPet@@@std@@PAX@std@@_N@1@ABK@Z
  0002d	e9 00 00 00 00	 jmp	 ___CxxFrameHandler3
text$x	ENDS
??$_Try_emplace@ABK$$V@?$map@KUSSkillDataPet@CPythonSkillPet@@U?$less@K@std@@V?$allocator@U?$pair@$$CBKUSSkillDataPet@CPythonSkillPet@@@std@@@4@@std@@AAE?AU?$pair@PAU?$_Tree_node@U?$pair@$$CBKUSSkillDataPet@CPythonSkillPet@@@std@@PAX@std@@_N@1@ABK@Z ENDP ; std::map<unsigned long,CPythonSkillPet::SSkillDataPet,std::less<unsigned long>,std::allocator<std::pair<unsigned long const ,CPythonSkillPet::SSkillDataPet> > >::_Try_emplace<unsigned long const &>
; Function compile flags: /Ogtp
; File C:\Program Files\Microsoft Visual Studio\2022\Community\VC\Tools\MSVC\14.34.31933\include\xtree
; File C:\Program Files\Microsoft Visual Studio\2022\Community\VC\Tools\MSVC\14.34.31933\include\xstddef
; File C:\Program Files\Microsoft Visual Studio\2022\Community\VC\Tools\MSVC\14.34.31933\include\xtree
;	COMDAT ??$_Find@K@?$_Tree@V?$_Tmap_traits@KUSSkillDataPet@CPythonSkillPet@@U?$less@K@std@@V?$allocator@U?$pair@$$CBKUSSkillDataPet@CPythonSkillPet@@@std@@@4@$0A@@std@@@std@@ABEPAU?$_Tree_node@U?$pair@$$CBKUSSkillDataPet@CPythonSkillPet@@@std@@PAX@1@ABK@Z
_TEXT	SEGMENT
__Loc$ = -12						; size = 12
__Keyval$ = 8						; size = 4
??$_Find@K@?$_Tree@V?$_Tmap_traits@KUSSkillDataPet@CPythonSkillPet@@U?$less@K@std@@V?$allocator@U?$pair@$$CBKUSSkillDataPet@CPythonSkillPet@@@std@@@4@$0A@@std@@@std@@ABEPAU?$_Tree_node@U?$pair@$$CBKUSSkillDataPet@CPythonSkillPet@@@std@@PAX@1@ABK@Z PROC ; std::_Tree<std::_Tmap_traits<unsigned long,CPythonSkillPet::SSkillDataPet,std::less<unsigned long>,std::allocator<std::pair<unsigned long const ,CPythonSkillPet::SSkillDataPet> >,0> >::_Find<unsigned long>, COMDAT
; _this$ = ecx

; 1366 :     _NODISCARD _Nodeptr _Find(const _Other& _Keyval) const {

  00000	55		 push	 ebp
  00001	8b ec		 mov	 ebp, esp
  00003	83 ec 0c	 sub	 esp, 12			; 0000000cH
  00006	56		 push	 esi
  00007	57		 push	 edi

; 1367 :         const _Tree_find_result<_Nodeptr> _Loc = _Find_lower_bound(_Keyval);

  00008	8b 7d 08	 mov	 edi, DWORD PTR __Keyval$[ebp]
  0000b	8d 45 f4	 lea	 eax, DWORD PTR __Loc$[ebp]
  0000e	57		 push	 edi
  0000f	50		 push	 eax
  00010	8b f1		 mov	 esi, ecx
  00012	e8 00 00 00 00	 call	 ??$_Find_lower_bound@K@?$_Tree@V?$_Tmap_traits@KUSSkillDataPet@CPythonSkillPet@@U?$less@K@std@@V?$allocator@U?$pair@$$CBKUSSkillDataPet@CPythonSkillPet@@@std@@@4@$0A@@std@@@std@@IBE?AU?$_Tree_find_result@PAU?$_Tree_node@U?$pair@$$CBKUSSkillDataPet@CPythonSkillPet@@@std@@PAX@std@@@1@ABK@Z ; std::_Tree<std::_Tmap_traits<unsigned long,CPythonSkillPet::SSkillDataPet,std::less<unsigned long>,std::allocator<std::pair<unsigned long const ,CPythonSkillPet::SSkillDataPet> >,0> >::_Find_lower_bound<unsigned long>

; 1605 :         return !_Bound->_Isnil && !_DEBUG_LT_PRED(_Getcomp(), _Keyval, _Traits::_Kfn(_Bound->_Myval));

  00017	8b 45 fc	 mov	 eax, DWORD PTR __Loc$[ebp+8]
  0001a	80 78 0d 00	 cmp	 BYTE PTR [eax+13], 0
  0001e	75 07		 jne	 SHORT $LN2@Find
; File C:\Program Files\Microsoft Visual Studio\2022\Community\VC\Tools\MSVC\14.34.31933\include\xstddef

; 143  :         return _Left < _Right;

  00020	8b 0f		 mov	 ecx, DWORD PTR [edi]
  00022	3b 48 10	 cmp	 ecx, DWORD PTR [eax+16]
; File C:\Program Files\Microsoft Visual Studio\2022\Community\VC\Tools\MSVC\14.34.31933\include\xtree

; 1605 :         return !_Bound->_Isnil && !_DEBUG_LT_PRED(_Getcomp(), _Keyval, _Traits::_Kfn(_Bound->_Myval));

  00025	73 02		 jae	 SHORT $LN1@Find
$LN2@Find:

; 1368 :         if (_Lower_bound_duplicate(_Loc._Bound, _Keyval)) {
; 1369 :             return _Loc._Bound;
; 1370 :         }
; 1371 : 
; 1372 :         return _Get_scary()->_Myhead;

  00027	8b 06		 mov	 eax, DWORD PTR [esi]
$LN1@Find:
  00029	5f		 pop	 edi

; 1373 :     }

  0002a	5e		 pop	 esi
  0002b	8b e5		 mov	 esp, ebp
  0002d	5d		 pop	 ebp
  0002e	c2 04 00	 ret	 4
??$_Find@K@?$_Tree@V?$_Tmap_traits@KUSSkillDataPet@CPythonSkillPet@@U?$less@K@std@@V?$allocator@U?$pair@$$CBKUSSkillDataPet@CPythonSkillPet@@@std@@@4@$0A@@std@@@std@@ABEPAU?$_Tree_node@U?$pair@$$CBKUSSkillDataPet@CPythonSkillPet@@@std@@PAX@1@ABK@Z ENDP ; std::_Tree<std::_Tmap_traits<unsigned long,CPythonSkillPet::SSkillDataPet,std::less<unsigned long>,std::allocator<std::pair<unsigned long const ,CPythonSkillPet::SSkillDataPet> >,0> >::_Find<unsigned long>
_TEXT	ENDS
; Function compile flags: /Ogtp
; File C:\Program Files\Microsoft Visual Studio\2022\Community\VC\Tools\MSVC\14.34.31933\include\xtree
; File C:\Program Files\Microsoft Visual Studio\2022\Community\VC\Tools\MSVC\14.34.31933\include\utility
; File C:\Program Files\Microsoft Visual Studio\2022\Community\VC\Tools\MSVC\14.34.31933\include\xtree
; File C:\Program Files\Microsoft Visual Studio\2022\Community\VC\Tools\MSVC\14.34.31933\include\xmemory
; File C:\Program Files\Microsoft Visual Studio\2022\Community\VC\Tools\MSVC\14.34.31933\include\xtree
; File C:\Program Files\Microsoft Visual Studio\2022\Community\VC\Tools\MSVC\14.34.31933\include\xmemory
; File C:\Program Files\Microsoft Visual Studio\2022\Community\VC\Tools\MSVC\14.34.31933\include\xtree
;	COMDAT ??$_Erase_tree@V?$allocator@U?$_Tree_node@U?$pair@$$CBKUSSkillDataPet@CPythonSkillPet@@@std@@PAX@std@@@std@@@?$_Tree_val@U?$_Tree_simple_types@U?$pair@$$CBKUSSkillDataPet@CPythonSkillPet@@@std@@@std@@@std@@QAEXAAV?$allocator@U?$_Tree_node@U?$pair@$$CBKUSSkillDataPet@CPythonSkillPet@@@std@@PAX@std@@@1@PAU?$_Tree_node@U?$pair@$$CBKUSSkillDataPet@CPythonSkillPet@@@std@@PAX@1@@Z
_TEXT	SEGMENT
_this$1$ = -4						; size = 4
__Al$ = 8						; size = 4
__Rootnode$ = 12					; size = 4
??$_Erase_tree@V?$allocator@U?$_Tree_node@U?$pair@$$CBKUSSkillDataPet@CPythonSkillPet@@@std@@PAX@std@@@std@@@?$_Tree_val@U?$_Tree_simple_types@U?$pair@$$CBKUSSkillDataPet@CPythonSkillPet@@@std@@@std@@@std@@QAEXAAV?$allocator@U?$_Tree_node@U?$pair@$$CBKUSSkillDataPet@CPythonSkillPet@@@std@@PAX@std@@@1@PAU?$_Tree_node@U?$pair@$$CBKUSSkillDataPet@CPythonSkillPet@@@std@@PAX@1@@Z PROC ; std::_Tree_val<std::_Tree_simple_types<std::pair<unsigned long const ,CPythonSkillPet::SSkillDataPet> > >::_Erase_tree<std::allocator<std::_Tree_node<std::pair<unsigned long const ,CPythonSkillPet::SSkillDataPet>,void *> > >, COMDAT
; _this$ = ecx

; 744  :     void _Erase_tree(_Alnode& _Al, _Nodeptr _Rootnode) noexcept {

  00000	55		 push	 ebp
  00001	8b ec		 mov	 ebp, esp
  00003	51		 push	 ecx
  00004	56		 push	 esi

; 745  :         while (!_Rootnode->_Isnil) { // free subtrees, then node

  00005	8b 75 0c	 mov	 esi, DWORD PTR __Rootnode$[ebp]
  00008	8b c1		 mov	 eax, ecx
  0000a	89 45 fc	 mov	 DWORD PTR _this$1$[ebp], eax
  0000d	80 7e 0d 00	 cmp	 BYTE PTR [esi+13], 0
  00011	75 32		 jne	 SHORT $LN3@Erase_tree
  00013	53		 push	 ebx
  00014	8b 5d 08	 mov	 ebx, DWORD PTR __Al$[ebp]
  00017	57		 push	 edi
$LL2@Erase_tree:

; 746  :             _Erase_tree(_Al, _Rootnode->_Right);

  00018	ff 76 08	 push	 DWORD PTR [esi+8]
  0001b	8b c8		 mov	 ecx, eax
  0001d	53		 push	 ebx
  0001e	e8 00 00 00 00	 call	 ??$_Erase_tree@V?$allocator@U?$_Tree_node@U?$pair@$$CBKUSSkillDataPet@CPythonSkillPet@@@std@@PAX@std@@@std@@@?$_Tree_val@U?$_Tree_simple_types@U?$pair@$$CBKUSSkillDataPet@CPythonSkillPet@@@std@@@std@@@std@@QAEXAAV?$allocator@U?$_Tree_node@U?$pair@$$CBKUSSkillDataPet@CPythonSkillPet@@@std@@PAX@std@@@1@PAU?$_Tree_node@U?$pair@$$CBKUSSkillDataPet@CPythonSkillPet@@@std@@PAX@1@@Z ; std::_Tree_val<std::_Tree_simple_types<std::pair<unsigned long const ,CPythonSkillPet::SSkillDataPet> > >::_Erase_tree<std::allocator<std::_Tree_node<std::pair<unsigned long const ,CPythonSkillPet::SSkillDataPet>,void *> > >
; File C:\Program Files\Microsoft Visual Studio\2022\Community\VC\Tools\MSVC\14.34.31933\include\utility

; 653  :     _Ty _Old_val = static_cast<_Ty&&>(_Val);

  00023	8b fe		 mov	 edi, esi

; 654  :     _Val         = static_cast<_Other&&>(_New_val);

  00025	8b 36		 mov	 esi, DWORD PTR [esi]
; File C:\Program Files\Microsoft Visual Studio\2022\Community\VC\Tools\MSVC\14.34.31933\include\xtree

; 382  :         allocator_traits<_Alloc>::destroy(_Al, _STD addressof(_Ptr->_Myval));

  00027	8d 4f 14	 lea	 ecx, DWORD PTR [edi+20]
  0002a	e8 00 00 00 00	 call	 ??1SSkillDataPet@CPythonSkillPet@@QAE@XZ
; File C:\Program Files\Microsoft Visual Studio\2022\Community\VC\Tools\MSVC\14.34.31933\include\xmemory

; 255  :         ::operator delete(_Ptr, _Bytes);

  0002f	6a 6c		 push	 108			; 0000006cH
  00031	57		 push	 edi
  00032	e8 00 00 00 00	 call	 ??3@YAXPAXI@Z		; operator delete
; File C:\Program Files\Microsoft Visual Studio\2022\Community\VC\Tools\MSVC\14.34.31933\include\xtree

; 745  :         while (!_Rootnode->_Isnil) { // free subtrees, then node

  00037	8b 45 fc	 mov	 eax, DWORD PTR _this$1$[ebp]
; File C:\Program Files\Microsoft Visual Studio\2022\Community\VC\Tools\MSVC\14.34.31933\include\xmemory

; 255  :         ::operator delete(_Ptr, _Bytes);

  0003a	83 c4 08	 add	 esp, 8
; File C:\Program Files\Microsoft Visual Studio\2022\Community\VC\Tools\MSVC\14.34.31933\include\xtree

; 745  :         while (!_Rootnode->_Isnil) { // free subtrees, then node

  0003d	80 7e 0d 00	 cmp	 BYTE PTR [esi+13], 0
  00041	74 d5		 je	 SHORT $LL2@Erase_tree
  00043	5f		 pop	 edi
  00044	5b		 pop	 ebx
$LN3@Erase_tree:
  00045	5e		 pop	 esi

; 747  :             _Alnode::value_type::_Freenode(_Al, _STD exchange(_Rootnode, _Rootnode->_Left));
; 748  :         }
; 749  :     }

  00046	8b e5		 mov	 esp, ebp
  00048	5d		 pop	 ebp
  00049	c2 08 00	 ret	 8
??$_Erase_tree@V?$allocator@U?$_Tree_node@U?$pair@$$CBKUSSkillDataPet@CPythonSkillPet@@@std@@PAX@std@@@std@@@?$_Tree_val@U?$_Tree_simple_types@U?$pair@$$CBKUSSkillDataPet@CPythonSkillPet@@@std@@@std@@@std@@QAEXAAV?$allocator@U?$_Tree_node@U?$pair@$$CBKUSSkillDataPet@CPythonSkillPet@@@std@@PAX@std@@@1@PAU?$_Tree_node@U?$pair@$$CBKUSSkillDataPet@CPythonSkillPet@@@std@@PAX@1@@Z ENDP ; std::_Tree_val<std::_Tree_simple_types<std::pair<unsigned long const ,CPythonSkillPet::SSkillDataPet> > >::_Erase_tree<std::allocator<std::_Tree_node<std::pair<unsigned long const ,CPythonSkillPet::SSkillDataPet>,void *> > >
_TEXT	ENDS
; Function compile flags: /Ogtp
; File C:\Program Files\Microsoft Visual Studio\2022\Community\VC\Tools\MSVC\14.34.31933\include\xtree
; File C:\Program Files\Microsoft Visual Studio\2022\Community\VC\Tools\MSVC\14.34.31933\include\xmemory
; File C:\Program Files\Microsoft Visual Studio\2022\Community\VC\Tools\MSVC\14.34.31933\include\xtree
;	COMDAT ??$_Erase_head@V?$allocator@U?$_Tree_node@U?$pair@$$CBKUSSkillDataPet@CPythonSkillPet@@@std@@PAX@std@@@std@@@?$_Tree_val@U?$_Tree_simple_types@U?$pair@$$CBKUSSkillDataPet@CPythonSkillPet@@@std@@@std@@@std@@QAEXAAV?$allocator@U?$_Tree_node@U?$pair@$$CBKUSSkillDataPet@CPythonSkillPet@@@std@@PAX@std@@@1@@Z
_TEXT	SEGMENT
__Al$ = 8						; size = 4
??$_Erase_head@V?$allocator@U?$_Tree_node@U?$pair@$$CBKUSSkillDataPet@CPythonSkillPet@@@std@@PAX@std@@@std@@@?$_Tree_val@U?$_Tree_simple_types@U?$pair@$$CBKUSSkillDataPet@CPythonSkillPet@@@std@@@std@@@std@@QAEXAAV?$allocator@U?$_Tree_node@U?$pair@$$CBKUSSkillDataPet@CPythonSkillPet@@@std@@PAX@std@@@1@@Z PROC ; std::_Tree_val<std::_Tree_simple_types<std::pair<unsigned long const ,CPythonSkillPet::SSkillDataPet> > >::_Erase_head<std::allocator<std::_Tree_node<std::pair<unsigned long const ,CPythonSkillPet::SSkillDataPet>,void *> > >, COMDAT
; _this$ = ecx

; 752  :     void _Erase_head(_Alnode& _Al) noexcept {

  00000	55		 push	 ebp
  00001	8b ec		 mov	 ebp, esp
  00003	56		 push	 esi
  00004	8b f1		 mov	 esi, ecx

; 753  :         this->_Orphan_all();
; 754  :         _Erase_tree(_Al, _Myhead->_Parent);

  00006	8b 06		 mov	 eax, DWORD PTR [esi]
  00008	ff 70 04	 push	 DWORD PTR [eax+4]
  0000b	ff 75 08	 push	 DWORD PTR __Al$[ebp]
  0000e	e8 00 00 00 00	 call	 ??$_Erase_tree@V?$allocator@U?$_Tree_node@U?$pair@$$CBKUSSkillDataPet@CPythonSkillPet@@@std@@PAX@std@@@std@@@?$_Tree_val@U?$_Tree_simple_types@U?$pair@$$CBKUSSkillDataPet@CPythonSkillPet@@@std@@@std@@@std@@QAEXAAV?$allocator@U?$_Tree_node@U?$pair@$$CBKUSSkillDataPet@CPythonSkillPet@@@std@@PAX@std@@@1@PAU?$_Tree_node@U?$pair@$$CBKUSSkillDataPet@CPythonSkillPet@@@std@@PAX@1@@Z ; std::_Tree_val<std::_Tree_simple_types<std::pair<unsigned long const ,CPythonSkillPet::SSkillDataPet> > >::_Erase_tree<std::allocator<std::_Tree_node<std::pair<unsigned long const ,CPythonSkillPet::SSkillDataPet>,void *> > >
; File C:\Program Files\Microsoft Visual Studio\2022\Community\VC\Tools\MSVC\14.34.31933\include\xmemory

; 255  :         ::operator delete(_Ptr, _Bytes);

  00013	6a 6c		 push	 108			; 0000006cH
  00015	ff 36		 push	 DWORD PTR [esi]
  00017	e8 00 00 00 00	 call	 ??3@YAXPAXI@Z		; operator delete
  0001c	83 c4 08	 add	 esp, 8
  0001f	5e		 pop	 esi
; File C:\Program Files\Microsoft Visual Studio\2022\Community\VC\Tools\MSVC\14.34.31933\include\xtree

; 756  :     }

  00020	5d		 pop	 ebp
  00021	c2 04 00	 ret	 4
??$_Erase_head@V?$allocator@U?$_Tree_node@U?$pair@$$CBKUSSkillDataPet@CPythonSkillPet@@@std@@PAX@std@@@std@@@?$_Tree_val@U?$_Tree_simple_types@U?$pair@$$CBKUSSkillDataPet@CPythonSkillPet@@@std@@@std@@@std@@QAEXAAV?$allocator@U?$_Tree_node@U?$pair@$$CBKUSSkillDataPet@CPythonSkillPet@@@std@@PAX@std@@@1@@Z ENDP ; std::_Tree_val<std::_Tree_simple_types<std::pair<unsigned long const ,CPythonSkillPet::SSkillDataPet> > >::_Erase_head<std::allocator<std::_Tree_node<std::pair<unsigned long const ,CPythonSkillPet::SSkillDataPet>,void *> > >
_TEXT	ENDS
; Function compile flags: /Ogtp
; File C:\Program Files\Microsoft Visual Studio\2022\Community\VC\Tools\MSVC\14.34.31933\include\xstddef
;	COMDAT ??$addressof@U?$pair@$$CBKUSSkillDataPet@CPythonSkillPet@@@std@@@std@@YAPAU?$pair@$$CBKUSSkillDataPet@CPythonSkillPet@@@0@AAU10@@Z
_TEXT	SEGMENT
??$addressof@U?$pair@$$CBKUSSkillDataPet@CPythonSkillPet@@@std@@@std@@YAPAU?$pair@$$CBKUSSkillDataPet@CPythonSkillPet@@@0@AAU10@@Z PROC ; std::addressof<std::pair<unsigned long const ,CPythonSkillPet::SSkillDataPet> >, COMDAT
; __Val$ = ecx

; 281  :     return __builtin_addressof(_Val);

  00000	8b c1		 mov	 eax, ecx

; 282  : }

  00002	c3		 ret	 0
??$addressof@U?$pair@$$CBKUSSkillDataPet@CPythonSkillPet@@@std@@@std@@YAPAU?$pair@$$CBKUSSkillDataPet@CPythonSkillPet@@@0@AAU10@@Z ENDP ; std::addressof<std::pair<unsigned long const ,CPythonSkillPet::SSkillDataPet> >
_TEXT	ENDS
; Function compile flags: /Ogtp
; File C:\Program Files\Microsoft Visual Studio\2022\Community\VC\Tools\MSVC\14.34.31933\include\xstddef
;	COMDAT ??$addressof@V?$_Tree_val@U?$_Tree_simple_types@U?$pair@$$CBKUSSkillDataPet@CPythonSkillPet@@@std@@@std@@@std@@@std@@YAPAV?$_Tree_val@U?$_Tree_simple_types@U?$pair@$$CBKUSSkillDataPet@CPythonSkillPet@@@std@@@std@@@0@AAV10@@Z
_TEXT	SEGMENT
??$addressof@V?$_Tree_val@U?$_Tree_simple_types@U?$pair@$$CBKUSSkillDataPet@CPythonSkillPet@@@std@@@std@@@std@@@std@@YAPAV?$_Tree_val@U?$_Tree_simple_types@U?$pair@$$CBKUSSkillDataPet@CPythonSkillPet@@@std@@@std@@@0@AAV10@@Z PROC ; std::addressof<std::_Tree_val<std::_Tree_simple_types<std::pair<unsigned long const ,CPythonSkillPet::SSkillDataPet> > > >, COMDAT
; __Val$ = ecx

; 281  :     return __builtin_addressof(_Val);

  00000	8b c1		 mov	 eax, ecx

; 282  : }

  00002	c3		 ret	 0
??$addressof@V?$_Tree_val@U?$_Tree_simple_types@U?$pair@$$CBKUSSkillDataPet@CPythonSkillPet@@@std@@@std@@@std@@@std@@YAPAV?$_Tree_val@U?$_Tree_simple_types@U?$pair@$$CBKUSSkillDataPet@CPythonSkillPet@@@std@@@std@@@0@AAV10@@Z ENDP ; std::addressof<std::_Tree_val<std::_Tree_simple_types<std::pair<unsigned long const ,CPythonSkillPet::SSkillDataPet> > > >
_TEXT	ENDS
; Function compile flags: /Ogtp
; File C:\Program Files\Microsoft Visual Studio\2022\Community\VC\Tools\MSVC\14.34.31933\include\xmemory
; File C:\Program Files\Microsoft Visual Studio\2022\Community\VC\Tools\MSVC\14.34.31933\include\xtree
; File C:\Program Files\Microsoft Visual Studio\2022\Community\VC\Tools\MSVC\14.34.31933\include\xmemory
; File C:\Program Files\Microsoft Visual Studio\2022\Community\VC\Tools\MSVC\14.34.31933\include\xtree
; File C:\Program Files\Microsoft Visual Studio\2022\Community\VC\Tools\MSVC\14.34.31933\include\xmemory
;	COMDAT ??$?0ABU?$less@K@std@@U_Zero_then_variadic_args_t@1@@?$_Compressed_pair@U?$less@K@std@@V?$_Compressed_pair@V?$allocator@U?$_Tree_node@U?$pair@$$CBKUSSkillDataPet@CPythonSkillPet@@@std@@PAX@std@@@std@@V?$_Tree_val@U?$_Tree_simple_types@U?$pair@$$CBKUSSkillDataPet@CPythonSkillPet@@@std@@@std@@@2@$00@2@$00@std@@QAE@U_One_then_variadic_args_t@1@ABU?$less@K@1@$$QAU_Zero_then_variadic_args_t@1@@Z
_TEXT	SEGMENT
___formal$ = 8						; size = 1
__Val1$dead$ = 12					; size = 4
_<_Val2_0>$dead$ = 16					; size = 4
??$?0ABU?$less@K@std@@U_Zero_then_variadic_args_t@1@@?$_Compressed_pair@U?$less@K@std@@V?$_Compressed_pair@V?$allocator@U?$_Tree_node@U?$pair@$$CBKUSSkillDataPet@CPythonSkillPet@@@std@@PAX@std@@@std@@V?$_Tree_val@U?$_Tree_simple_types@U?$pair@$$CBKUSSkillDataPet@CPythonSkillPet@@@std@@@std@@@2@$00@2@$00@std@@QAE@U_One_then_variadic_args_t@1@ABU?$less@K@1@$$QAU_Zero_then_variadic_args_t@1@@Z PROC ; std::_Compressed_pair<std::less<unsigned long>,std::_Compressed_pair<std::allocator<std::_Tree_node<std::pair<unsigned long const ,CPythonSkillPet::SSkillDataPet>,void *> >,std::_Tree_val<std::_Tree_simple_types<std::pair<unsigned long const ,CPythonSkillPet::SSkillDataPet> > >,1>,1>::_Compressed_pair<std::less<unsigned long>,std::_Compressed_pair<std::allocator<std::_Tree_node<std::pair<unsigned long const ,CPythonSkillPet::SSkillDataPet>,void *> >,std::_Tree_val<std::_Tree_simple_types<std::pair<unsigned long const ,CPythonSkillPet::SSkillDataPet> > >,1>,1><std::less<unsigned long> const &,std::_Zero_then_variadic_args_t>, COMDAT
; _this$ = ecx
; File C:\Program Files\Microsoft Visual Studio\2022\Community\VC\Tools\MSVC\14.34.31933\include\xtree

; 437  :     _Tree_val() noexcept : _Myhead(), _Mysize(0) {}

  00000	c7 01 00 00 00
	00		 mov	 DWORD PTR [ecx], 0
; File C:\Program Files\Microsoft Visual Studio\2022\Community\VC\Tools\MSVC\14.34.31933\include\xmemory

; 1381 :         : _Ty1(_STD forward<_Other1>(_Val1)), _Myval2(_STD forward<_Other2>(_Val2)...) {}

  00006	8b c1		 mov	 eax, ecx
; File C:\Program Files\Microsoft Visual Studio\2022\Community\VC\Tools\MSVC\14.34.31933\include\xtree

; 437  :     _Tree_val() noexcept : _Myhead(), _Mysize(0) {}

  00008	c7 41 04 00 00
	00 00		 mov	 DWORD PTR [ecx+4], 0
; File C:\Program Files\Microsoft Visual Studio\2022\Community\VC\Tools\MSVC\14.34.31933\include\xmemory

; 1381 :         : _Ty1(_STD forward<_Other1>(_Val1)), _Myval2(_STD forward<_Other2>(_Val2)...) {}

  0000f	c2 0c 00	 ret	 12			; 0000000cH
??$?0ABU?$less@K@std@@U_Zero_then_variadic_args_t@1@@?$_Compressed_pair@U?$less@K@std@@V?$_Compressed_pair@V?$allocator@U?$_Tree_node@U?$pair@$$CBKUSSkillDataPet@CPythonSkillPet@@@std@@PAX@std@@@std@@V?$_Tree_val@U?$_Tree_simple_types@U?$pair@$$CBKUSSkillDataPet@CPythonSkillPet@@@std@@@std@@@2@$00@2@$00@std@@QAE@U_One_then_variadic_args_t@1@ABU?$less@K@1@$$QAU_Zero_then_variadic_args_t@1@@Z ENDP ; std::_Compressed_pair<std::less<unsigned long>,std::_Compressed_pair<std::allocator<std::_Tree_node<std::pair<unsigned long const ,CPythonSkillPet::SSkillDataPet>,void *> >,std::_Tree_val<std::_Tree_simple_types<std::pair<unsigned long const ,CPythonSkillPet::SSkillDataPet> > >,1>,1>::_Compressed_pair<std::less<unsigned long>,std::_Compressed_pair<std::allocator<std::_Tree_node<std::pair<unsigned long const ,CPythonSkillPet::SSkillDataPet>,void *> >,std::_Tree_val<std::_Tree_simple_types<std::pair<unsigned long const ,CPythonSkillPet::SSkillDataPet> > >,1>,1><std::less<unsigned long> const &,std::_Zero_then_variadic_args_t>
_TEXT	ENDS
; Function compile flags: /Ogtp
; File C:\Program Files\Microsoft Visual Studio\2022\Community\VC\Tools\MSVC\14.34.31933\include\xtree
; File C:\Program Files\Microsoft Visual Studio\2022\Community\VC\Tools\MSVC\14.34.31933\include\xmemory
; File C:\Program Files\Microsoft Visual Studio\2022\Community\VC\Tools\MSVC\14.34.31933\include\xtree
;	COMDAT ??$_Buyheadnode@V?$allocator@U?$_Tree_node@U?$pair@$$CBKUSSkillDataPet@CPythonSkillPet@@@std@@PAX@std@@@std@@@?$_Tree_node@U?$pair@$$CBKUSSkillDataPet@CPythonSkillPet@@@std@@PAX@std@@SAPAU01@AAV?$allocator@U?$_Tree_node@U?$pair@$$CBKUSSkillDataPet@CPythonSkillPet@@@std@@PAX@std@@@1@@Z
_TEXT	SEGMENT
??$_Buyheadnode@V?$allocator@U?$_Tree_node@U?$pair@$$CBKUSSkillDataPet@CPythonSkillPet@@@std@@PAX@std@@@std@@@?$_Tree_node@U?$pair@$$CBKUSSkillDataPet@CPythonSkillPet@@@std@@PAX@std@@SAPAU01@AAV?$allocator@U?$_Tree_node@U?$pair@$$CBKUSSkillDataPet@CPythonSkillPet@@@std@@PAX@std@@@1@@Z PROC ; std::_Tree_node<std::pair<unsigned long const ,CPythonSkillPet::SSkillDataPet>,void *>::_Buyheadnode<std::allocator<std::_Tree_node<std::pair<unsigned long const ,CPythonSkillPet::SSkillDataPet>,void *> > >, COMDAT
; __Al$dead$ = ecx
; File C:\Program Files\Microsoft Visual Studio\2022\Community\VC\Tools\MSVC\14.34.31933\include\xmemory

; 77   :         return ::operator new(_Bytes);

  00000	6a 6c		 push	 108			; 0000006cH
  00002	e8 00 00 00 00	 call	 ??2@YAPAXI@Z		; operator new
  00007	83 c4 04	 add	 esp, 4
; File C:\Program Files\Microsoft Visual Studio\2022\Community\VC\Tools\MSVC\14.34.31933\include\xtree

; 347  :         _Construct_in_place(_Pnode->_Left, _Pnode);

  0000a	89 00		 mov	 DWORD PTR [eax], eax

; 348  :         _Construct_in_place(_Pnode->_Parent, _Pnode);

  0000c	89 40 04	 mov	 DWORD PTR [eax+4], eax

; 349  :         _Construct_in_place(_Pnode->_Right, _Pnode);

  0000f	89 40 08	 mov	 DWORD PTR [eax+8], eax

; 350  :         _Pnode->_Color = _Black;

  00012	66 c7 40 0c 01
	01		 mov	 WORD PTR [eax+12], 257	; 00000101H

; 351  :         _Pnode->_Isnil = true;
; 352  :         return _Pnode;
; 353  :     }

  00018	c3		 ret	 0
??$_Buyheadnode@V?$allocator@U?$_Tree_node@U?$pair@$$CBKUSSkillDataPet@CPythonSkillPet@@@std@@PAX@std@@@std@@@?$_Tree_node@U?$pair@$$CBKUSSkillDataPet@CPythonSkillPet@@@std@@PAX@std@@SAPAU01@AAV?$allocator@U?$_Tree_node@U?$pair@$$CBKUSSkillDataPet@CPythonSkillPet@@@std@@PAX@std@@@1@@Z ENDP ; std::_Tree_node<std::pair<unsigned long const ,CPythonSkillPet::SSkillDataPet>,void *>::_Buyheadnode<std::allocator<std::_Tree_node<std::pair<unsigned long const ,CPythonSkillPet::SSkillDataPet>,void *> > >
_TEXT	ENDS
; Function compile flags: /Ogtp
; File C:\Program Files\Microsoft Visual Studio\2022\Community\VC\Tools\MSVC\14.34.31933\include\xtree
; File C:\Program Files\Microsoft Visual Studio\2022\Community\VC\Tools\MSVC\14.34.31933\include\xmemory
; File C:\Program Files\Microsoft Visual Studio\2022\Community\VC\Tools\MSVC\14.34.31933\include\xtree
;	COMDAT ??1?$_Tree_temp_node@V?$allocator@U?$_Tree_node@U?$pair@$$CBKUSSkillDataPet@CPythonSkillPet@@@std@@PAX@std@@@std@@@std@@QAE@XZ
_TEXT	SEGMENT
??1?$_Tree_temp_node@V?$allocator@U?$_Tree_node@U?$pair@$$CBKUSSkillDataPet@CPythonSkillPet@@@std@@PAX@std@@@std@@@std@@QAE@XZ PROC ; std::_Tree_temp_node<std::allocator<std::_Tree_node<std::pair<unsigned long const ,CPythonSkillPet::SSkillDataPet>,void *> > >::~_Tree_temp_node<std::allocator<std::_Tree_node<std::pair<unsigned long const ,CPythonSkillPet::SSkillDataPet>,void *> > >, COMDAT
; _this$ = ecx

; 818  :     ~_Tree_temp_node() {

  00000	56		 push	 esi
  00001	8b f1		 mov	 esi, ecx

; 819  :         if (this->_Ptr) {

  00003	8b 4e 04	 mov	 ecx, DWORD PTR [esi+4]
  00006	85 c9		 test	 ecx, ecx
  00008	74 08		 je	 SHORT $LN37@Tree_temp_

; 820  :             _Destroy_in_place(this->_Ptr->_Left);
; 821  :             _Destroy_in_place(this->_Ptr->_Parent);
; 822  :             _Destroy_in_place(this->_Ptr->_Right);
; 823  :             _Alnode_traits::destroy(this->_Al, _STD addressof(this->_Ptr->_Myval));

  0000a	83 c1 14	 add	 ecx, 20			; 00000014H
  0000d	e8 00 00 00 00	 call	 ??1SSkillDataPet@CPythonSkillPet@@QAE@XZ
$LN37@Tree_temp_:
; File C:\Program Files\Microsoft Visual Studio\2022\Community\VC\Tools\MSVC\14.34.31933\include\xmemory

; 1017 :         if (_Ptr) {

  00012	8b 46 04	 mov	 eax, DWORD PTR [esi+4]
  00015	5e		 pop	 esi
  00016	85 c0		 test	 eax, eax
  00018	74 0b		 je	 SHORT $LN14@Tree_temp_

; 255  :         ::operator delete(_Ptr, _Bytes);

  0001a	6a 6c		 push	 108			; 0000006cH
  0001c	50		 push	 eax
  0001d	e8 00 00 00 00	 call	 ??3@YAXPAXI@Z		; operator delete
  00022	83 c4 08	 add	 esp, 8
$LN14@Tree_temp_:
; File C:\Program Files\Microsoft Visual Studio\2022\Community\VC\Tools\MSVC\14.34.31933\include\xtree

; 825  :     }

  00025	c3		 ret	 0
??1?$_Tree_temp_node@V?$allocator@U?$_Tree_node@U?$pair@$$CBKUSSkillDataPet@CPythonSkillPet@@@std@@PAX@std@@@std@@@std@@QAE@XZ ENDP ; std::_Tree_temp_node<std::allocator<std::_Tree_node<std::pair<unsigned long const ,CPythonSkillPet::SSkillDataPet>,void *> > >::~_Tree_temp_node<std::allocator<std::_Tree_node<std::pair<unsigned long const ,CPythonSkillPet::SSkillDataPet>,void *> > >
_TEXT	ENDS
; Function compile flags: /Ogtp
; File C:\Program Files\Microsoft Visual Studio\2022\Community\VC\Tools\MSVC\14.34.31933\include\xmemory
; File C:\Program Files\Microsoft Visual Studio\2022\Community\VC\Tools\MSVC\14.34.31933\include\utility
; File C:\Program Files\Microsoft Visual Studio\2022\Community\VC\Tools\MSVC\14.34.31933\include\xmemory
;	COMDAT ?_Release@?$_Alloc_construct_ptr@V?$allocator@U?$_Tree_node@U?$pair@$$CBKUSSkillDataPet@CPythonSkillPet@@@std@@PAX@std@@@std@@@std@@QAEPAU?$_Tree_node@U?$pair@$$CBKUSSkillDataPet@CPythonSkillPet@@@std@@PAX@2@XZ
_TEXT	SEGMENT
?_Release@?$_Alloc_construct_ptr@V?$allocator@U?$_Tree_node@U?$pair@$$CBKUSSkillDataPet@CPythonSkillPet@@@std@@PAX@std@@@std@@@std@@QAEPAU?$_Tree_node@U?$pair@$$CBKUSSkillDataPet@CPythonSkillPet@@@std@@PAX@2@XZ PROC ; std::_Alloc_construct_ptr<std::allocator<std::_Tree_node<std::pair<unsigned long const ,CPythonSkillPet::SSkillDataPet>,void *> > >::_Release, COMDAT
; _this$ = ecx
; File C:\Program Files\Microsoft Visual Studio\2022\Community\VC\Tools\MSVC\14.34.31933\include\utility

; 653  :     _Ty _Old_val = static_cast<_Ty&&>(_Val);

  00000	8b 41 04	 mov	 eax, DWORD PTR [ecx+4]

; 654  :     _Val         = static_cast<_Other&&>(_New_val);

  00003	c7 41 04 00 00
	00 00		 mov	 DWORD PTR [ecx+4], 0
; File C:\Program Files\Microsoft Visual Studio\2022\Community\VC\Tools\MSVC\14.34.31933\include\xmemory

; 1009 :     }

  0000a	c3		 ret	 0
?_Release@?$_Alloc_construct_ptr@V?$allocator@U?$_Tree_node@U?$pair@$$CBKUSSkillDataPet@CPythonSkillPet@@@std@@PAX@std@@@std@@@std@@QAEPAU?$_Tree_node@U?$pair@$$CBKUSSkillDataPet@CPythonSkillPet@@@std@@PAX@2@XZ ENDP ; std::_Alloc_construct_ptr<std::allocator<std::_Tree_node<std::pair<unsigned long const ,CPythonSkillPet::SSkillDataPet>,void *> > >::_Release
_TEXT	ENDS
; Function compile flags: /Ogtp
; File C:\Program Files\Microsoft Visual Studio\2022\Community\VC\Tools\MSVC\14.34.31933\include\xtree
;	COMDAT ?_Insert_node@?$_Tree_val@U?$_Tree_simple_types@U?$pair@$$CBKUSSkillDataPet@CPythonSkillPet@@@std@@@std@@@std@@QAEPAU?$_Tree_node@U?$pair@$$CBKUSSkillDataPet@CPythonSkillPet@@@std@@PAX@2@U?$_Tree_id@PAU?$_Tree_node@U?$pair@$$CBKUSSkillDataPet@CPythonSkillPet@@@std@@PAX@std@@@2@QAU32@@Z
_TEXT	SEGMENT
__Head$1$ = -4						; size = 4
__Loc$ = 8						; size = 8
__Newnode$ = 16						; size = 4
?_Insert_node@?$_Tree_val@U?$_Tree_simple_types@U?$pair@$$CBKUSSkillDataPet@CPythonSkillPet@@@std@@@std@@@std@@QAEPAU?$_Tree_node@U?$pair@$$CBKUSSkillDataPet@CPythonSkillPet@@@std@@PAX@2@U?$_Tree_id@PAU?$_Tree_node@U?$pair@$$CBKUSSkillDataPet@CPythonSkillPet@@@std@@PAX@std@@@2@QAU32@@Z PROC ; std::_Tree_val<std::_Tree_simple_types<std::pair<unsigned long const ,CPythonSkillPet::SSkillDataPet> > >::_Insert_node, COMDAT
; _this$ = ecx

; 646  :     _Nodeptr _Insert_node(const _Tree_id<_Nodeptr> _Loc, const _Nodeptr _Newnode) noexcept {

  00000	55		 push	 ebp
  00001	8b ec		 mov	 ebp, esp
  00003	51		 push	 ecx

; 647  :         ++_Mysize;
; 648  :         const auto _Head  = _Myhead;
; 649  :         _Newnode->_Parent = _Loc._Parent;

  00004	8b 55 08	 mov	 edx, DWORD PTR __Loc$[ebp]
  00007	53		 push	 ebx
  00008	8b d9		 mov	 ebx, ecx
  0000a	57		 push	 edi
  0000b	8b 7d 10	 mov	 edi, DWORD PTR __Newnode$[ebp]
  0000e	8b 03		 mov	 eax, DWORD PTR [ebx]
  00010	ff 43 04	 inc	 DWORD PTR [ebx+4]
  00013	89 45 fc	 mov	 DWORD PTR __Head$1$[ebp], eax
  00016	89 57 04	 mov	 DWORD PTR [edi+4], edx

; 650  :         if (_Loc._Parent == _Head) { // first node in tree, just set head values

  00019	3b d0		 cmp	 edx, eax
  0001b	75 16		 jne	 SHORT $LN5@Insert_nod

; 651  :             _Head->_Left     = _Newnode;

  0001d	89 38		 mov	 DWORD PTR [eax], edi

; 652  :             _Head->_Parent   = _Newnode;

  0001f	89 78 04	 mov	 DWORD PTR [eax+4], edi

; 653  :             _Head->_Right    = _Newnode;

  00022	89 78 08	 mov	 DWORD PTR [eax+8], edi

; 712  :         return _Newnode;
; 713  :     }

  00025	8b c7		 mov	 eax, edi
  00027	c6 47 0c 01	 mov	 BYTE PTR [edi+12], 1
  0002b	5f		 pop	 edi
  0002c	5b		 pop	 ebx
  0002d	8b e5		 mov	 esp, ebp
  0002f	5d		 pop	 ebp
  00030	c2 0c 00	 ret	 12			; 0000000cH
$LN5@Insert_nod:

; 654  :             _Newnode->_Color = _Black; // the root is black
; 655  :             return _Newnode;
; 656  :         }
; 657  : 
; 658  :         _STL_INTERNAL_CHECK(_Loc._Child != _Tree_child::_Unused);
; 659  :         if (_Loc._Child == _Tree_child::_Right) { // add to right of _Loc._Parent

  00033	83 7d 0c 00	 cmp	 DWORD PTR __Loc$[ebp+4], 0
  00037	75 0d		 jne	 SHORT $LN6@Insert_nod

; 660  :             _STL_INTERNAL_CHECK(_Loc._Parent->_Right->_Isnil);
; 661  :             _Loc._Parent->_Right = _Newnode;

  00039	89 7a 08	 mov	 DWORD PTR [edx+8], edi

; 662  :             if (_Loc._Parent == _Head->_Right) { // remember rightmost node

  0003c	3b 50 08	 cmp	 edx, DWORD PTR [eax+8]
  0003f	75 0d		 jne	 SHORT $LN9@Insert_nod

; 663  :                 _Head->_Right = _Newnode;

  00041	89 78 08	 mov	 DWORD PTR [eax+8], edi

; 664  :             }
; 665  :         } else { // add to left of _Loc._Parent

  00044	eb 08		 jmp	 SHORT $LN9@Insert_nod
$LN6@Insert_nod:

; 666  :             _STL_INTERNAL_CHECK(_Loc._Parent->_Left->_Isnil);
; 667  :             _Loc._Parent->_Left = _Newnode;

  00046	89 3a		 mov	 DWORD PTR [edx], edi

; 668  :             if (_Loc._Parent == _Head->_Left) { // remember leftmost node

  00048	3b 10		 cmp	 edx, DWORD PTR [eax]
  0004a	75 02		 jne	 SHORT $LN9@Insert_nod

; 669  :                 _Head->_Left = _Newnode;

  0004c	89 38		 mov	 DWORD PTR [eax], edi
$LN9@Insert_nod:

; 670  :             }
; 671  :         }
; 672  : 
; 673  :         for (_Nodeptr _Pnode = _Newnode; _Pnode->_Parent->_Color == _Red;) {

  0004e	8b 4f 04	 mov	 ecx, DWORD PTR [edi+4]
  00051	8b c7		 mov	 eax, edi
  00053	80 79 0c 00	 cmp	 BYTE PTR [ecx+12], 0
  00057	0f 85 7d 01 00
	00		 jne	 $LN3@Insert_nod
  0005d	56		 push	 esi
  0005e	66 90		 npad	 2
$LL2@Insert_nod:

; 674  :             if (_Pnode->_Parent == _Pnode->_Parent->_Parent->_Left) { // fixup red-red in left subtree

  00060	8b 50 04	 mov	 edx, DWORD PTR [eax+4]
  00063	8b 72 04	 mov	 esi, DWORD PTR [edx+4]
  00066	8b 0e		 mov	 ecx, DWORD PTR [esi]
  00068	3b d1		 cmp	 edx, ecx
  0006a	0f 85 aa 00 00
	00		 jne	 $LN10@Insert_nod

; 675  :                 const auto _Parent_sibling = _Pnode->_Parent->_Parent->_Right;

  00070	8b 4e 08	 mov	 ecx, DWORD PTR [esi+8]

; 676  :                 if (_Parent_sibling->_Color == _Red) { // parent's sibling has two red children, blacken both

  00073	80 79 0c 00	 cmp	 BYTE PTR [ecx+12], 0
  00077	0f 84 a3 00 00
	00		 je	 $LN54@Insert_nod

; 677  :                     _Pnode->_Parent->_Color          = _Black;
; 678  :                     _Parent_sibling->_Color          = _Black;
; 679  :                     _Pnode->_Parent->_Parent->_Color = _Red;
; 680  :                     _Pnode                           = _Pnode->_Parent->_Parent;
; 681  :                 } else { // parent's sibling has red and black children
; 682  :                     if (_Pnode == _Pnode->_Parent->_Right) { // rotate right child to left

  0007d	8b 72 08	 mov	 esi, DWORD PTR [edx+8]
  00080	3b c6		 cmp	 eax, esi
  00082	75 37		 jne	 SHORT $LN51@Insert_nod

; 462  :         _Wherenode->_Right = _Pnode->_Left;

  00084	8b 0e		 mov	 ecx, DWORD PTR [esi]

; 683  :                         _Pnode = _Pnode->_Parent;

  00086	8b c2		 mov	 eax, edx

; 462  :         _Wherenode->_Right = _Pnode->_Left;

  00088	89 4a 08	 mov	 DWORD PTR [edx+8], ecx

; 463  : 
; 464  :         if (!_Pnode->_Left->_Isnil) {

  0008b	8b 0e		 mov	 ecx, DWORD PTR [esi]
  0008d	80 79 0d 00	 cmp	 BYTE PTR [ecx+13], 0
  00091	75 03		 jne	 SHORT $LN34@Insert_nod

; 465  :             _Pnode->_Left->_Parent = _Wherenode;

  00093	89 41 04	 mov	 DWORD PTR [ecx+4], eax
$LN34@Insert_nod:

; 466  :         }
; 467  : 
; 468  :         _Pnode->_Parent = _Wherenode->_Parent;

  00096	8b 4a 04	 mov	 ecx, DWORD PTR [edx+4]
  00099	89 4e 04	 mov	 DWORD PTR [esi+4], ecx

; 469  : 
; 470  :         if (_Wherenode == _Myhead->_Parent) {

  0009c	8b 0b		 mov	 ecx, DWORD PTR [ebx]
  0009e	3b 41 04	 cmp	 eax, DWORD PTR [ecx+4]
  000a1	75 05		 jne	 SHORT $LN35@Insert_nod

; 471  :             _Myhead->_Parent = _Pnode;

  000a3	89 71 04	 mov	 DWORD PTR [ecx+4], esi
  000a6	eb 0e		 jmp	 SHORT $LN38@Insert_nod
$LN35@Insert_nod:

; 472  :         } else if (_Wherenode == _Wherenode->_Parent->_Left) {

  000a8	8b 4a 04	 mov	 ecx, DWORD PTR [edx+4]
  000ab	3b 01		 cmp	 eax, DWORD PTR [ecx]
  000ad	75 04		 jne	 SHORT $LN37@Insert_nod

; 473  :             _Wherenode->_Parent->_Left = _Pnode;

  000af	89 31		 mov	 DWORD PTR [ecx], esi

; 474  :         } else {

  000b1	eb 03		 jmp	 SHORT $LN38@Insert_nod
$LN37@Insert_nod:

; 475  :             _Wherenode->_Parent->_Right = _Pnode;

  000b3	89 71 08	 mov	 DWORD PTR [ecx+8], esi
$LN38@Insert_nod:

; 476  :         }
; 477  : 
; 478  :         _Pnode->_Left       = _Wherenode;

  000b6	89 06		 mov	 DWORD PTR [esi], eax

; 479  :         _Wherenode->_Parent = _Pnode;

  000b8	89 72 04	 mov	 DWORD PTR [edx+4], esi
$LN51@Insert_nod:

; 684  :                         _Lrotate(_Pnode);
; 685  :                     }
; 686  : 
; 687  :                     _Pnode->_Parent->_Color          = _Black; // propagate red up

  000bb	8b 48 04	 mov	 ecx, DWORD PTR [eax+4]
  000be	c6 41 0c 01	 mov	 BYTE PTR [ecx+12], 1

; 688  :                     _Pnode->_Parent->_Parent->_Color = _Red;

  000c2	8b 48 04	 mov	 ecx, DWORD PTR [eax+4]
  000c5	8b 49 04	 mov	 ecx, DWORD PTR [ecx+4]
  000c8	c6 41 0c 00	 mov	 BYTE PTR [ecx+12], 0

; 689  :                     _Rrotate(_Pnode->_Parent->_Parent);

  000cc	8b 48 04	 mov	 ecx, DWORD PTR [eax+4]
  000cf	8b 51 04	 mov	 edx, DWORD PTR [ecx+4]

; 483  :         _Nodeptr _Pnode   = _Wherenode->_Left;

  000d2	8b 32		 mov	 esi, DWORD PTR [edx]

; 484  :         _Wherenode->_Left = _Pnode->_Right;

  000d4	8b 4e 08	 mov	 ecx, DWORD PTR [esi+8]
  000d7	89 0a		 mov	 DWORD PTR [edx], ecx

; 485  : 
; 486  :         if (!_Pnode->_Right->_Isnil) {

  000d9	8b 4e 08	 mov	 ecx, DWORD PTR [esi+8]
  000dc	80 79 0d 00	 cmp	 BYTE PTR [ecx+13], 0
  000e0	75 03		 jne	 SHORT $LN20@Insert_nod

; 487  :             _Pnode->_Right->_Parent = _Wherenode;

  000e2	89 51 04	 mov	 DWORD PTR [ecx+4], edx
$LN20@Insert_nod:

; 488  :         }
; 489  : 
; 490  :         _Pnode->_Parent = _Wherenode->_Parent;

  000e5	8b 4a 04	 mov	 ecx, DWORD PTR [edx+4]
  000e8	89 4e 04	 mov	 DWORD PTR [esi+4], ecx

; 491  : 
; 492  :         if (_Wherenode == _Myhead->_Parent) {

  000eb	8b 0b		 mov	 ecx, DWORD PTR [ebx]
  000ed	3b 51 04	 cmp	 edx, DWORD PTR [ecx+4]
  000f0	75 0b		 jne	 SHORT $LN21@Insert_nod

; 493  :             _Myhead->_Parent = _Pnode;

  000f2	89 71 04	 mov	 DWORD PTR [ecx+4], esi

; 498  :         }
; 499  : 
; 500  :         _Pnode->_Right      = _Wherenode;

  000f5	89 56 08	 mov	 DWORD PTR [esi+8], edx

; 690  :                 }
; 691  :             } else { // fixup red-red in right subtree

  000f8	e9 cc 00 00 00	 jmp	 $LN53@Insert_nod
$LN21@Insert_nod:

; 494  :         } else if (_Wherenode == _Wherenode->_Parent->_Right) {

  000fd	8b 4a 04	 mov	 ecx, DWORD PTR [edx+4]
  00100	3b 51 08	 cmp	 edx, DWORD PTR [ecx+8]
  00103	75 0b		 jne	 SHORT $LN23@Insert_nod

; 495  :             _Wherenode->_Parent->_Right = _Pnode;

  00105	89 71 08	 mov	 DWORD PTR [ecx+8], esi

; 498  :         }
; 499  : 
; 500  :         _Pnode->_Right      = _Wherenode;

  00108	89 56 08	 mov	 DWORD PTR [esi+8], edx

; 690  :                 }
; 691  :             } else { // fixup red-red in right subtree

  0010b	e9 b9 00 00 00	 jmp	 $LN53@Insert_nod
$LN23@Insert_nod:

; 497  :             _Wherenode->_Parent->_Left = _Pnode;

  00110	89 31		 mov	 DWORD PTR [ecx], esi

; 498  :         }
; 499  : 
; 500  :         _Pnode->_Right      = _Wherenode;

  00112	89 56 08	 mov	 DWORD PTR [esi+8], edx

; 690  :                 }
; 691  :             } else { // fixup red-red in right subtree

  00115	e9 af 00 00 00	 jmp	 $LN53@Insert_nod
$LN10@Insert_nod:

; 692  :                 const auto _Parent_sibling = _Pnode->_Parent->_Parent->_Left;
; 693  :                 if (_Parent_sibling->_Color == _Red) { // parent's sibling has two red children, blacken both

  0011a	80 79 0c 00	 cmp	 BYTE PTR [ecx+12], 0
  0011e	75 1d		 jne	 SHORT $LN15@Insert_nod
$LN54@Insert_nod:

; 670  :             }
; 671  :         }
; 672  : 
; 673  :         for (_Nodeptr _Pnode = _Newnode; _Pnode->_Parent->_Color == _Red;) {

  00120	c6 42 0c 01	 mov	 BYTE PTR [edx+12], 1
  00124	c6 41 0c 01	 mov	 BYTE PTR [ecx+12], 1
  00128	8b 48 04	 mov	 ecx, DWORD PTR [eax+4]
  0012b	8b 49 04	 mov	 ecx, DWORD PTR [ecx+4]
  0012e	c6 41 0c 00	 mov	 BYTE PTR [ecx+12], 0
  00132	8b 48 04	 mov	 ecx, DWORD PTR [eax+4]
  00135	8b 41 04	 mov	 eax, DWORD PTR [ecx+4]
  00138	e9 8f 00 00 00	 jmp	 $LN32@Insert_nod
$LN15@Insert_nod:

; 694  :                     _Pnode->_Parent->_Color          = _Black;
; 695  :                     _Parent_sibling->_Color          = _Black;
; 696  :                     _Pnode->_Parent->_Parent->_Color = _Red;
; 697  :                     _Pnode                           = _Pnode->_Parent->_Parent;
; 698  :                 } else { // parent's sibling has red and black children
; 699  :                     if (_Pnode == _Pnode->_Parent->_Left) { // rotate left child to right

  0013d	8b 32		 mov	 esi, DWORD PTR [edx]
  0013f	3b c6		 cmp	 eax, esi
  00141	75 3a		 jne	 SHORT $LN46@Insert_nod

; 484  :         _Wherenode->_Left = _Pnode->_Right;

  00143	8b 4e 08	 mov	 ecx, DWORD PTR [esi+8]

; 700  :                         _Pnode = _Pnode->_Parent;

  00146	8b c2		 mov	 eax, edx

; 484  :         _Wherenode->_Left = _Pnode->_Right;

  00148	89 08		 mov	 DWORD PTR [eax], ecx

; 485  : 
; 486  :         if (!_Pnode->_Right->_Isnil) {

  0014a	8b 4e 08	 mov	 ecx, DWORD PTR [esi+8]
  0014d	80 79 0d 00	 cmp	 BYTE PTR [ecx+13], 0
  00151	75 03		 jne	 SHORT $LN41@Insert_nod

; 487  :             _Pnode->_Right->_Parent = _Wherenode;

  00153	89 41 04	 mov	 DWORD PTR [ecx+4], eax
$LN41@Insert_nod:

; 488  :         }
; 489  : 
; 490  :         _Pnode->_Parent = _Wherenode->_Parent;

  00156	8b 4a 04	 mov	 ecx, DWORD PTR [edx+4]
  00159	89 4e 04	 mov	 DWORD PTR [esi+4], ecx

; 491  : 
; 492  :         if (_Wherenode == _Myhead->_Parent) {

  0015c	8b 0b		 mov	 ecx, DWORD PTR [ebx]
  0015e	3b 41 04	 cmp	 eax, DWORD PTR [ecx+4]
  00161	75 05		 jne	 SHORT $LN42@Insert_nod

; 493  :             _Myhead->_Parent = _Pnode;

  00163	89 71 04	 mov	 DWORD PTR [ecx+4], esi
  00166	eb 0f		 jmp	 SHORT $LN45@Insert_nod
$LN42@Insert_nod:

; 494  :         } else if (_Wherenode == _Wherenode->_Parent->_Right) {

  00168	8b 4a 04	 mov	 ecx, DWORD PTR [edx+4]
  0016b	3b 41 08	 cmp	 eax, DWORD PTR [ecx+8]
  0016e	75 05		 jne	 SHORT $LN44@Insert_nod

; 495  :             _Wherenode->_Parent->_Right = _Pnode;

  00170	89 71 08	 mov	 DWORD PTR [ecx+8], esi

; 496  :         } else {

  00173	eb 02		 jmp	 SHORT $LN45@Insert_nod
$LN44@Insert_nod:

; 497  :             _Wherenode->_Parent->_Left = _Pnode;

  00175	89 31		 mov	 DWORD PTR [ecx], esi
$LN45@Insert_nod:

; 498  :         }
; 499  : 
; 500  :         _Pnode->_Right      = _Wherenode;

  00177	89 46 08	 mov	 DWORD PTR [esi+8], eax

; 501  :         _Wherenode->_Parent = _Pnode;

  0017a	89 72 04	 mov	 DWORD PTR [edx+4], esi
$LN46@Insert_nod:

; 701  :                         _Rrotate(_Pnode);
; 702  :                     }
; 703  : 
; 704  :                     _Pnode->_Parent->_Color          = _Black; // propagate red up

  0017d	8b 48 04	 mov	 ecx, DWORD PTR [eax+4]
  00180	c6 41 0c 01	 mov	 BYTE PTR [ecx+12], 1

; 705  :                     _Pnode->_Parent->_Parent->_Color = _Red;

  00184	8b 48 04	 mov	 ecx, DWORD PTR [eax+4]
  00187	8b 49 04	 mov	 ecx, DWORD PTR [ecx+4]
  0018a	c6 41 0c 00	 mov	 BYTE PTR [ecx+12], 0

; 706  :                     _Lrotate(_Pnode->_Parent->_Parent);

  0018e	8b 48 04	 mov	 ecx, DWORD PTR [eax+4]
  00191	8b 51 04	 mov	 edx, DWORD PTR [ecx+4]

; 461  :         _Nodeptr _Pnode    = _Wherenode->_Right;

  00194	8b 72 08	 mov	 esi, DWORD PTR [edx+8]

; 462  :         _Wherenode->_Right = _Pnode->_Left;

  00197	8b 0e		 mov	 ecx, DWORD PTR [esi]
  00199	89 4a 08	 mov	 DWORD PTR [edx+8], ecx

; 463  : 
; 464  :         if (!_Pnode->_Left->_Isnil) {

  0019c	8b 0e		 mov	 ecx, DWORD PTR [esi]
  0019e	80 79 0d 00	 cmp	 BYTE PTR [ecx+13], 0
  001a2	75 03		 jne	 SHORT $LN27@Insert_nod

; 465  :             _Pnode->_Left->_Parent = _Wherenode;

  001a4	89 51 04	 mov	 DWORD PTR [ecx+4], edx
$LN27@Insert_nod:

; 466  :         }
; 467  : 
; 468  :         _Pnode->_Parent = _Wherenode->_Parent;

  001a7	8b 4a 04	 mov	 ecx, DWORD PTR [edx+4]
  001aa	89 4e 04	 mov	 DWORD PTR [esi+4], ecx

; 469  : 
; 470  :         if (_Wherenode == _Myhead->_Parent) {

  001ad	8b 0b		 mov	 ecx, DWORD PTR [ebx]
  001af	3b 51 04	 cmp	 edx, DWORD PTR [ecx+4]
  001b2	75 05		 jne	 SHORT $LN28@Insert_nod

; 471  :             _Myhead->_Parent = _Pnode;

  001b4	89 71 04	 mov	 DWORD PTR [ecx+4], esi
  001b7	eb 0e		 jmp	 SHORT $LN31@Insert_nod
$LN28@Insert_nod:

; 472  :         } else if (_Wherenode == _Wherenode->_Parent->_Left) {

  001b9	8b 4a 04	 mov	 ecx, DWORD PTR [edx+4]
  001bc	3b 11		 cmp	 edx, DWORD PTR [ecx]
  001be	75 04		 jne	 SHORT $LN30@Insert_nod

; 473  :             _Wherenode->_Parent->_Left = _Pnode;

  001c0	89 31		 mov	 DWORD PTR [ecx], esi

; 474  :         } else {

  001c2	eb 03		 jmp	 SHORT $LN31@Insert_nod
$LN30@Insert_nod:

; 475  :             _Wherenode->_Parent->_Right = _Pnode;

  001c4	89 71 08	 mov	 DWORD PTR [ecx+8], esi
$LN31@Insert_nod:

; 476  :         }
; 477  : 
; 478  :         _Pnode->_Left       = _Wherenode;

  001c7	89 16		 mov	 DWORD PTR [esi], edx
$LN53@Insert_nod:

; 670  :             }
; 671  :         }
; 672  : 
; 673  :         for (_Nodeptr _Pnode = _Newnode; _Pnode->_Parent->_Color == _Red;) {

  001c9	89 72 04	 mov	 DWORD PTR [edx+4], esi
$LN32@Insert_nod:
  001cc	8b 48 04	 mov	 ecx, DWORD PTR [eax+4]
  001cf	80 79 0c 00	 cmp	 BYTE PTR [ecx+12], 0
  001d3	0f 84 87 fe ff
	ff		 je	 $LL2@Insert_nod
  001d9	5e		 pop	 esi
$LN3@Insert_nod:

; 707  :                 }
; 708  :             }
; 709  :         }
; 710  : 
; 711  :         _Head->_Parent->_Color = _Black; // root is always black

  001da	8b 45 fc	 mov	 eax, DWORD PTR __Head$1$[ebp]
  001dd	8b 40 04	 mov	 eax, DWORD PTR [eax+4]
  001e0	c6 40 0c 01	 mov	 BYTE PTR [eax+12], 1

; 712  :         return _Newnode;
; 713  :     }

  001e4	8b c7		 mov	 eax, edi
  001e6	5f		 pop	 edi
  001e7	5b		 pop	 ebx
  001e8	8b e5		 mov	 esp, ebp
  001ea	5d		 pop	 ebp
  001eb	c2 0c 00	 ret	 12			; 0000000cH
?_Insert_node@?$_Tree_val@U?$_Tree_simple_types@U?$pair@$$CBKUSSkillDataPet@CPythonSkillPet@@@std@@@std@@@std@@QAEPAU?$_Tree_node@U?$pair@$$CBKUSSkillDataPet@CPythonSkillPet@@@std@@PAX@2@U?$_Tree_id@PAU?$_Tree_node@U?$pair@$$CBKUSSkillDataPet@CPythonSkillPet@@@std@@PAX@std@@@2@QAU32@@Z ENDP ; std::_Tree_val<std::_Tree_simple_types<std::pair<unsigned long const ,CPythonSkillPet::SSkillDataPet> > >::_Insert_node
_TEXT	ENDS
; Function compile flags: /Ogtp
; File C:\Program Files\Microsoft Visual Studio\2022\Community\VC\Tools\MSVC\14.34.31933\include\xtree
;	COMDAT ?_Get_scary@?$_Tree@V?$_Tmap_traits@KUSSkillDataPet@CPythonSkillPet@@U?$less@K@std@@V?$allocator@U?$pair@$$CBKUSSkillDataPet@CPythonSkillPet@@@std@@@4@$0A@@std@@@std@@IBEPBV?$_Tree_val@U?$_Tree_simple_types@U?$pair@$$CBKUSSkillDataPet@CPythonSkillPet@@@std@@@std@@@2@XZ
_TEXT	SEGMENT
?_Get_scary@?$_Tree@V?$_Tmap_traits@KUSSkillDataPet@CPythonSkillPet@@U?$less@K@std@@V?$allocator@U?$pair@$$CBKUSSkillDataPet@CPythonSkillPet@@@std@@@4@$0A@@std@@@std@@IBEPBV?$_Tree_val@U?$_Tree_simple_types@U?$pair@$$CBKUSSkillDataPet@CPythonSkillPet@@@std@@@std@@@2@XZ PROC ; std::_Tree<std::_Tmap_traits<unsigned long,CPythonSkillPet::SSkillDataPet,std::less<unsigned long>,std::allocator<std::pair<unsigned long const ,CPythonSkillPet::SSkillDataPet> >,0> >::_Get_scary, COMDAT
; _this$ = ecx

; 1971 :         return _STD addressof(_Mypair._Myval2._Myval2);

  00000	8b c1		 mov	 eax, ecx

; 1972 :     }

  00002	c3		 ret	 0
?_Get_scary@?$_Tree@V?$_Tmap_traits@KUSSkillDataPet@CPythonSkillPet@@U?$less@K@std@@V?$allocator@U?$pair@$$CBKUSSkillDataPet@CPythonSkillPet@@@std@@@4@$0A@@std@@@std@@IBEPBV?$_Tree_val@U?$_Tree_simple_types@U?$pair@$$CBKUSSkillDataPet@CPythonSkillPet@@@std@@@std@@@2@XZ ENDP ; std::_Tree<std::_Tmap_traits<unsigned long,CPythonSkillPet::SSkillDataPet,std::less<unsigned long>,std::allocator<std::pair<unsigned long const ,CPythonSkillPet::SSkillDataPet> >,0> >::_Get_scary
_TEXT	ENDS
; Function compile flags: /Ogtp
; File C:\Program Files\Microsoft Visual Studio\2022\Community\VC\Tools\MSVC\14.34.31933\include\xtree
;	COMDAT ?_Check_grow_by_1@?$_Tree@V?$_Tmap_traits@KUSSkillDataPet@CPythonSkillPet@@U?$less@K@std@@V?$allocator@U?$pair@$$CBKUSSkillDataPet@CPythonSkillPet@@@std@@@4@$0A@@std@@@std@@IAEXXZ
_TEXT	SEGMENT
?_Check_grow_by_1@?$_Tree@V?$_Tmap_traits@KUSSkillDataPet@CPythonSkillPet@@U?$less@K@std@@V?$allocator@U?$pair@$$CBKUSSkillDataPet@CPythonSkillPet@@@std@@@4@$0A@@std@@@std@@IAEXXZ PROC ; std::_Tree<std::_Tmap_traits<unsigned long,CPythonSkillPet::SSkillDataPet,std::less<unsigned long>,std::allocator<std::pair<unsigned long const ,CPythonSkillPet::SSkillDataPet> >,0> >::_Check_grow_by_1, COMDAT
; _this$ = ecx

; 1629 :         if (max_size() == _Get_scary()->_Mysize) {

  00000	81 79 04 97 d0
	5e 02		 cmp	 DWORD PTR [ecx+4], 39768215 ; 025ed097H
  00007	0f 84 00 00 00
	00		 je	 ?_Throw_tree_length_error@std@@YAXXZ ; std::_Throw_tree_length_error

; 1630 :             _Throw_tree_length_error();
; 1631 :         }
; 1632 :     }

  0000d	c3		 ret	 0
?_Check_grow_by_1@?$_Tree@V?$_Tmap_traits@KUSSkillDataPet@CPythonSkillPet@@U?$less@K@std@@V?$allocator@U?$pair@$$CBKUSSkillDataPet@CPythonSkillPet@@@std@@@4@$0A@@std@@@std@@IAEXXZ ENDP ; std::_Tree<std::_Tmap_traits<unsigned long,CPythonSkillPet::SSkillDataPet,std::less<unsigned long>,std::allocator<std::pair<unsigned long const ,CPythonSkillPet::SSkillDataPet> >,0> >::_Check_grow_by_1
_TEXT	ENDS
; Function compile flags: /Ogtp
; File C:\Program Files\Microsoft Visual Studio\2022\Community\VC\Tools\MSVC\14.34.31933\include\xmemory
;	COMDAT ?allocate@?$allocator@U?$_Tree_node@U?$pair@$$CBKUSSkillDataPet@CPythonSkillPet@@@std@@PAX@std@@@std@@QAEPAU?$_Tree_node@U?$pair@$$CBKUSSkillDataPet@CPythonSkillPet@@@std@@PAX@2@I@Z
_TEXT	SEGMENT
__Count$dead$ = 8					; size = 4
?allocate@?$allocator@U?$_Tree_node@U?$pair@$$CBKUSSkillDataPet@CPythonSkillPet@@@std@@PAX@std@@@std@@QAEPAU?$_Tree_node@U?$pair@$$CBKUSSkillDataPet@CPythonSkillPet@@@std@@PAX@2@I@Z PROC ; std::allocator<std::_Tree_node<std::pair<unsigned long const ,CPythonSkillPet::SSkillDataPet>,void *> >::allocate, COMDAT
; _this$dead$ = ecx

; 77   :         return ::operator new(_Bytes);

  00000	6a 6c		 push	 108			; 0000006cH
  00002	e8 00 00 00 00	 call	 ??2@YAPAXI@Z		; operator new
  00007	83 c4 04	 add	 esp, 4

; 834  :         static_assert(sizeof(value_type) > 0, "value_type must be complete before calling allocate.");
; 835  :         return static_cast<_Ty*>(_Allocate<_New_alignof<_Ty>>(_Get_size_of_n<sizeof(_Ty)>(_Count)));
; 836  :     }

  0000a	c2 04 00	 ret	 4
?allocate@?$allocator@U?$_Tree_node@U?$pair@$$CBKUSSkillDataPet@CPythonSkillPet@@@std@@PAX@std@@@std@@QAEPAU?$_Tree_node@U?$pair@$$CBKUSSkillDataPet@CPythonSkillPet@@@std@@PAX@2@I@Z ENDP ; std::allocator<std::_Tree_node<std::pair<unsigned long const ,CPythonSkillPet::SSkillDataPet>,void *> >::allocate
_TEXT	ENDS
; Function compile flags: /Ogtp
; File C:\Program Files\Microsoft Visual Studio\2022\Community\VC\Tools\MSVC\14.34.31933\include\xmemory
;	COMDAT ??1?$_Tree_temp_node_alloc@V?$allocator@U?$_Tree_node@U?$pair@$$CBKUSSkillDataPet@CPythonSkillPet@@@std@@PAX@std@@@std@@@std@@QAE@XZ
_TEXT	SEGMENT
??1?$_Tree_temp_node_alloc@V?$allocator@U?$_Tree_node@U?$pair@$$CBKUSSkillDataPet@CPythonSkillPet@@@std@@PAX@std@@@std@@@std@@QAE@XZ PROC ; std::_Tree_temp_node_alloc<std::allocator<std::_Tree_node<std::pair<unsigned long const ,CPythonSkillPet::SSkillDataPet>,void *> > >::~_Tree_temp_node_alloc<std::allocator<std::_Tree_node<std::pair<unsigned long const ,CPythonSkillPet::SSkillDataPet>,void *> > >, COMDAT
; _this$ = ecx

; 1017 :         if (_Ptr) {

  00000	8b 41 04	 mov	 eax, DWORD PTR [ecx+4]
  00003	85 c0		 test	 eax, eax
  00005	74 0b		 je	 SHORT $LN10@Tree_temp_

; 255  :         ::operator delete(_Ptr, _Bytes);

  00007	6a 6c		 push	 108			; 0000006cH
  00009	50		 push	 eax
  0000a	e8 00 00 00 00	 call	 ??3@YAXPAXI@Z		; operator delete
  0000f	83 c4 08	 add	 esp, 8
$LN10@Tree_temp_:
  00012	c3		 ret	 0
??1?$_Tree_temp_node_alloc@V?$allocator@U?$_Tree_node@U?$pair@$$CBKUSSkillDataPet@CPythonSkillPet@@@std@@PAX@std@@@std@@@std@@QAE@XZ ENDP ; std::_Tree_temp_node_alloc<std::allocator<std::_Tree_node<std::pair<unsigned long const ,CPythonSkillPet::SSkillDataPet>,void *> > >::~_Tree_temp_node_alloc<std::allocator<std::_Tree_node<std::pair<unsigned long const ,CPythonSkillPet::SSkillDataPet>,void *> > >
_TEXT	ENDS
; Function compile flags: /Ogtp
; File C:\Program Files\Microsoft Visual Studio\2022\Community\VC\Tools\MSVC\14.34.31933\include\xmemory
;	COMDAT ??1?$_Alloc_construct_ptr@V?$allocator@U?$_Tree_node@U?$pair@$$CBKUSSkillDataPet@CPythonSkillPet@@@std@@PAX@std@@@std@@@std@@QAE@XZ
_TEXT	SEGMENT
??1?$_Alloc_construct_ptr@V?$allocator@U?$_Tree_node@U?$pair@$$CBKUSSkillDataPet@CPythonSkillPet@@@std@@PAX@std@@@std@@@std@@QAE@XZ PROC ; std::_Alloc_construct_ptr<std::allocator<std::_Tree_node<std::pair<unsigned long const ,CPythonSkillPet::SSkillDataPet>,void *> > >::~_Alloc_construct_ptr<std::allocator<std::_Tree_node<std::pair<unsigned long const ,CPythonSkillPet::SSkillDataPet>,void *> > >, COMDAT
; _this$ = ecx

; 1017 :         if (_Ptr) {

  00000	8b 41 04	 mov	 eax, DWORD PTR [ecx+4]
  00003	85 c0		 test	 eax, eax
  00005	74 0b		 je	 SHORT $LN8@Alloc_cons

; 255  :         ::operator delete(_Ptr, _Bytes);

  00007	6a 6c		 push	 108			; 0000006cH
  00009	50		 push	 eax
  0000a	e8 00 00 00 00	 call	 ??3@YAXPAXI@Z		; operator delete
  0000f	83 c4 08	 add	 esp, 8
$LN8@Alloc_cons:

; 1018 :             _Al.deallocate(_Ptr, 1);
; 1019 :         }
; 1020 :     }

  00012	c3		 ret	 0
??1?$_Alloc_construct_ptr@V?$allocator@U?$_Tree_node@U?$pair@$$CBKUSSkillDataPet@CPythonSkillPet@@@std@@PAX@std@@@std@@@std@@QAE@XZ ENDP ; std::_Alloc_construct_ptr<std::allocator<std::_Tree_node<std::pair<unsigned long const ,CPythonSkillPet::SSkillDataPet>,void *> > >::~_Alloc_construct_ptr<std::allocator<std::_Tree_node<std::pair<unsigned long const ,CPythonSkillPet::SSkillDataPet>,void *> > >
_TEXT	ENDS
; Function compile flags: /Ogtp
; File C:\Program Files\Microsoft Visual Studio\2022\Community\VC\Tools\MSVC\14.34.31933\include\xtree
;	COMDAT ?_Rrotate@?$_Tree_val@U?$_Tree_simple_types@U?$pair@$$CBKUSSkillDataPet@CPythonSkillPet@@@std@@@std@@@std@@QAEXPAU?$_Tree_node@U?$pair@$$CBKUSSkillDataPet@CPythonSkillPet@@@std@@PAX@2@@Z
_TEXT	SEGMENT
__Wherenode$ = 8					; size = 4
?_Rrotate@?$_Tree_val@U?$_Tree_simple_types@U?$pair@$$CBKUSSkillDataPet@CPythonSkillPet@@@std@@@std@@@std@@QAEXPAU?$_Tree_node@U?$pair@$$CBKUSSkillDataPet@CPythonSkillPet@@@std@@PAX@2@@Z PROC ; std::_Tree_val<std::_Tree_simple_types<std::pair<unsigned long const ,CPythonSkillPet::SSkillDataPet> > >::_Rrotate, COMDAT
; _this$ = ecx

; 482  :     void _Rrotate(_Nodeptr _Wherenode) noexcept { // promote left node to root of subtree

  00000	55		 push	 ebp
  00001	8b ec		 mov	 ebp, esp

; 483  :         _Nodeptr _Pnode   = _Wherenode->_Left;

  00003	8b 55 08	 mov	 edx, DWORD PTR __Wherenode$[ebp]
  00006	56		 push	 esi
  00007	8b 32		 mov	 esi, DWORD PTR [edx]

; 484  :         _Wherenode->_Left = _Pnode->_Right;

  00009	8b 46 08	 mov	 eax, DWORD PTR [esi+8]
  0000c	89 02		 mov	 DWORD PTR [edx], eax

; 485  : 
; 486  :         if (!_Pnode->_Right->_Isnil) {

  0000e	8b 46 08	 mov	 eax, DWORD PTR [esi+8]
  00011	80 78 0d 00	 cmp	 BYTE PTR [eax+13], 0
  00015	75 03		 jne	 SHORT $LN2@Rrotate

; 487  :             _Pnode->_Right->_Parent = _Wherenode;

  00017	89 50 04	 mov	 DWORD PTR [eax+4], edx
$LN2@Rrotate:

; 488  :         }
; 489  : 
; 490  :         _Pnode->_Parent = _Wherenode->_Parent;

  0001a	8b 42 04	 mov	 eax, DWORD PTR [edx+4]
  0001d	89 46 04	 mov	 DWORD PTR [esi+4], eax

; 491  : 
; 492  :         if (_Wherenode == _Myhead->_Parent) {

  00020	8b 01		 mov	 eax, DWORD PTR [ecx]
  00022	3b 50 04	 cmp	 edx, DWORD PTR [eax+4]
  00025	75 0e		 jne	 SHORT $LN3@Rrotate

; 493  :             _Myhead->_Parent = _Pnode;

  00027	89 70 04	 mov	 DWORD PTR [eax+4], esi

; 498  :         }
; 499  : 
; 500  :         _Pnode->_Right      = _Wherenode;
; 501  :         _Wherenode->_Parent = _Pnode;
; 502  :     }

  0002a	89 56 08	 mov	 DWORD PTR [esi+8], edx
  0002d	89 72 04	 mov	 DWORD PTR [edx+4], esi
  00030	5e		 pop	 esi
  00031	5d		 pop	 ebp
  00032	c2 04 00	 ret	 4
$LN3@Rrotate:

; 494  :         } else if (_Wherenode == _Wherenode->_Parent->_Right) {

  00035	8b 42 04	 mov	 eax, DWORD PTR [edx+4]
  00038	3b 50 08	 cmp	 edx, DWORD PTR [eax+8]
  0003b	75 0e		 jne	 SHORT $LN5@Rrotate

; 495  :             _Wherenode->_Parent->_Right = _Pnode;

  0003d	89 70 08	 mov	 DWORD PTR [eax+8], esi

; 498  :         }
; 499  : 
; 500  :         _Pnode->_Right      = _Wherenode;
; 501  :         _Wherenode->_Parent = _Pnode;
; 502  :     }

  00040	89 56 08	 mov	 DWORD PTR [esi+8], edx
  00043	89 72 04	 mov	 DWORD PTR [edx+4], esi
  00046	5e		 pop	 esi
  00047	5d		 pop	 ebp
  00048	c2 04 00	 ret	 4
$LN5@Rrotate:

; 496  :         } else {
; 497  :             _Wherenode->_Parent->_Left = _Pnode;

  0004b	89 30		 mov	 DWORD PTR [eax], esi

; 498  :         }
; 499  : 
; 500  :         _Pnode->_Right      = _Wherenode;
; 501  :         _Wherenode->_Parent = _Pnode;
; 502  :     }

  0004d	89 56 08	 mov	 DWORD PTR [esi+8], edx
  00050	89 72 04	 mov	 DWORD PTR [edx+4], esi
  00053	5e		 pop	 esi
  00054	5d		 pop	 ebp
  00055	c2 04 00	 ret	 4
?_Rrotate@?$_Tree_val@U?$_Tree_simple_types@U?$pair@$$CBKUSSkillDataPet@CPythonSkillPet@@@std@@@std@@@std@@QAEXPAU?$_Tree_node@U?$pair@$$CBKUSSkillDataPet@CPythonSkillPet@@@std@@PAX@2@@Z ENDP ; std::_Tree_val<std::_Tree_simple_types<std::pair<unsigned long const ,CPythonSkillPet::SSkillDataPet> > >::_Rrotate
_TEXT	ENDS
; Function compile flags: /Ogtp
; File C:\Program Files\Microsoft Visual Studio\2022\Community\VC\Tools\MSVC\14.34.31933\include\xtree
;	COMDAT ?_Lrotate@?$_Tree_val@U?$_Tree_simple_types@U?$pair@$$CBKUSSkillDataPet@CPythonSkillPet@@@std@@@std@@@std@@QAEXPAU?$_Tree_node@U?$pair@$$CBKUSSkillDataPet@CPythonSkillPet@@@std@@PAX@2@@Z
_TEXT	SEGMENT
__Wherenode$ = 8					; size = 4
?_Lrotate@?$_Tree_val@U?$_Tree_simple_types@U?$pair@$$CBKUSSkillDataPet@CPythonSkillPet@@@std@@@std@@@std@@QAEXPAU?$_Tree_node@U?$pair@$$CBKUSSkillDataPet@CPythonSkillPet@@@std@@PAX@2@@Z PROC ; std::_Tree_val<std::_Tree_simple_types<std::pair<unsigned long const ,CPythonSkillPet::SSkillDataPet> > >::_Lrotate, COMDAT
; _this$ = ecx

; 460  :     void _Lrotate(_Nodeptr _Wherenode) noexcept { // promote right node to root of subtree

  00000	55		 push	 ebp
  00001	8b ec		 mov	 ebp, esp

; 461  :         _Nodeptr _Pnode    = _Wherenode->_Right;

  00003	8b 55 08	 mov	 edx, DWORD PTR __Wherenode$[ebp]
  00006	56		 push	 esi
  00007	8b 72 08	 mov	 esi, DWORD PTR [edx+8]

; 462  :         _Wherenode->_Right = _Pnode->_Left;

  0000a	8b 06		 mov	 eax, DWORD PTR [esi]
  0000c	89 42 08	 mov	 DWORD PTR [edx+8], eax

; 463  : 
; 464  :         if (!_Pnode->_Left->_Isnil) {

  0000f	8b 06		 mov	 eax, DWORD PTR [esi]
  00011	80 78 0d 00	 cmp	 BYTE PTR [eax+13], 0
  00015	75 03		 jne	 SHORT $LN2@Lrotate

; 465  :             _Pnode->_Left->_Parent = _Wherenode;

  00017	89 50 04	 mov	 DWORD PTR [eax+4], edx
$LN2@Lrotate:

; 466  :         }
; 467  : 
; 468  :         _Pnode->_Parent = _Wherenode->_Parent;

  0001a	8b 42 04	 mov	 eax, DWORD PTR [edx+4]
  0001d	89 46 04	 mov	 DWORD PTR [esi+4], eax

; 469  : 
; 470  :         if (_Wherenode == _Myhead->_Parent) {

  00020	8b 01		 mov	 eax, DWORD PTR [ecx]
  00022	3b 50 04	 cmp	 edx, DWORD PTR [eax+4]
  00025	75 0d		 jne	 SHORT $LN3@Lrotate

; 471  :             _Myhead->_Parent = _Pnode;

  00027	89 70 04	 mov	 DWORD PTR [eax+4], esi

; 476  :         }
; 477  : 
; 478  :         _Pnode->_Left       = _Wherenode;
; 479  :         _Wherenode->_Parent = _Pnode;
; 480  :     }

  0002a	89 16		 mov	 DWORD PTR [esi], edx
  0002c	89 72 04	 mov	 DWORD PTR [edx+4], esi
  0002f	5e		 pop	 esi
  00030	5d		 pop	 ebp
  00031	c2 04 00	 ret	 4
$LN3@Lrotate:

; 472  :         } else if (_Wherenode == _Wherenode->_Parent->_Left) {

  00034	8b 42 04	 mov	 eax, DWORD PTR [edx+4]
  00037	3b 10		 cmp	 edx, DWORD PTR [eax]
  00039	75 0c		 jne	 SHORT $LN5@Lrotate

; 473  :             _Wherenode->_Parent->_Left = _Pnode;

  0003b	89 30		 mov	 DWORD PTR [eax], esi

; 476  :         }
; 477  : 
; 478  :         _Pnode->_Left       = _Wherenode;
; 479  :         _Wherenode->_Parent = _Pnode;
; 480  :     }

  0003d	89 16		 mov	 DWORD PTR [esi], edx
  0003f	89 72 04	 mov	 DWORD PTR [edx+4], esi
  00042	5e		 pop	 esi
  00043	5d		 pop	 ebp
  00044	c2 04 00	 ret	 4
$LN5@Lrotate:

; 474  :         } else {
; 475  :             _Wherenode->_Parent->_Right = _Pnode;

  00047	89 70 08	 mov	 DWORD PTR [eax+8], esi

; 476  :         }
; 477  : 
; 478  :         _Pnode->_Left       = _Wherenode;
; 479  :         _Wherenode->_Parent = _Pnode;
; 480  :     }

  0004a	89 16		 mov	 DWORD PTR [esi], edx
  0004c	89 72 04	 mov	 DWORD PTR [edx+4], esi
  0004f	5e		 pop	 esi
  00050	5d		 pop	 ebp
  00051	c2 04 00	 ret	 4
?_Lrotate@?$_Tree_val@U?$_Tree_simple_types@U?$pair@$$CBKUSSkillDataPet@CPythonSkillPet@@@std@@@std@@@std@@QAEXPAU?$_Tree_node@U?$pair@$$CBKUSSkillDataPet@CPythonSkillPet@@@std@@PAX@2@@Z ENDP ; std::_Tree_val<std::_Tree_simple_types<std::pair<unsigned long const ,CPythonSkillPet::SSkillDataPet> > >::_Lrotate
_TEXT	ENDS
; Function compile flags: /Ogtp
; File C:\Program Files\Microsoft Visual Studio\2022\Community\VC\Tools\MSVC\14.34.31933\include\xtree
;	COMDAT ?max_size@?$_Tree@V?$_Tmap_traits@KUSSkillDataPet@CPythonSkillPet@@U?$less@K@std@@V?$allocator@U?$pair@$$CBKUSSkillDataPet@CPythonSkillPet@@@std@@@4@$0A@@std@@@std@@QBEIXZ
_TEXT	SEGMENT
?max_size@?$_Tree@V?$_Tmap_traits@KUSSkillDataPet@CPythonSkillPet@@U?$less@K@std@@V?$allocator@U?$pair@$$CBKUSSkillDataPet@CPythonSkillPet@@@std@@@4@$0A@@std@@@std@@QBEIXZ PROC ; std::_Tree<std::_Tmap_traits<unsigned long,CPythonSkillPet::SSkillDataPet,std::less<unsigned long>,std::allocator<std::pair<unsigned long const ,CPythonSkillPet::SSkillDataPet> >,0> >::max_size, COMDAT
; _this$dead$ = ecx

; 1197 :         return (_STD min)(

  00000	b8 97 d0 5e 02	 mov	 eax, 39768215		; 025ed097H

; 1198 :             static_cast<size_type>((numeric_limits<difference_type>::max)()), _Alnode_traits::max_size(_Getal()));
; 1199 :     }

  00005	c3		 ret	 0
?max_size@?$_Tree@V?$_Tmap_traits@KUSSkillDataPet@CPythonSkillPet@@U?$less@K@std@@V?$allocator@U?$pair@$$CBKUSSkillDataPet@CPythonSkillPet@@@std@@@4@$0A@@std@@@std@@QBEIXZ ENDP ; std::_Tree<std::_Tmap_traits<unsigned long,CPythonSkillPet::SSkillDataPet,std::less<unsigned long>,std::allocator<std::pair<unsigned long const ,CPythonSkillPet::SSkillDataPet> >,0> >::max_size
_TEXT	ENDS
; Function compile flags: /Ogtp
; File C:\Program Files\Microsoft Visual Studio\2022\Community\VC\Tools\MSVC\14.34.31933\include\xtree
;	COMDAT ?_Getal@?$_Tree@V?$_Tmap_traits@KUSSkillDataPet@CPythonSkillPet@@U?$less@K@std@@V?$allocator@U?$pair@$$CBKUSSkillDataPet@CPythonSkillPet@@@std@@@4@$0A@@std@@@std@@IBEABV?$allocator@U?$_Tree_node@U?$pair@$$CBKUSSkillDataPet@CPythonSkillPet@@@std@@PAX@std@@@2@XZ
_TEXT	SEGMENT
?_Getal@?$_Tree@V?$_Tmap_traits@KUSSkillDataPet@CPythonSkillPet@@U?$less@K@std@@V?$allocator@U?$pair@$$CBKUSSkillDataPet@CPythonSkillPet@@@std@@@4@$0A@@std@@@std@@IBEABV?$allocator@U?$_Tree_node@U?$pair@$$CBKUSSkillDataPet@CPythonSkillPet@@@std@@PAX@std@@@2@XZ PROC ; std::_Tree<std::_Tmap_traits<unsigned long,CPythonSkillPet::SSkillDataPet,std::less<unsigned long>,std::allocator<std::pair<unsigned long const ,CPythonSkillPet::SSkillDataPet> >,0> >::_Getal, COMDAT
; _this$ = ecx

; 1963 :         return _Mypair._Myval2._Get_first();

  00000	8b c1		 mov	 eax, ecx

; 1964 :     }

  00002	c3		 ret	 0
?_Getal@?$_Tree@V?$_Tmap_traits@KUSSkillDataPet@CPythonSkillPet@@U?$less@K@std@@V?$allocator@U?$pair@$$CBKUSSkillDataPet@CPythonSkillPet@@@std@@@4@$0A@@std@@@std@@IBEABV?$allocator@U?$_Tree_node@U?$pair@$$CBKUSSkillDataPet@CPythonSkillPet@@@std@@PAX@std@@@2@XZ ENDP ; std::_Tree<std::_Tmap_traits<unsigned long,CPythonSkillPet::SSkillDataPet,std::less<unsigned long>,std::allocator<std::pair<unsigned long const ,CPythonSkillPet::SSkillDataPet> >,0> >::_Getal
_TEXT	ENDS
; Function compile flags: /Ogtp
; File C:\Program Files\Microsoft Visual Studio\2022\Community\VC\Tools\MSVC\14.34.31933\include\xmemory
;	COMDAT ?max_size@?$_Default_allocator_traits@V?$allocator@U?$_Tree_node@U?$pair@$$CBKUSSkillDataPet@CPythonSkillPet@@@std@@PAX@std@@@std@@@std@@SAIABV?$allocator@U?$_Tree_node@U?$pair@$$CBKUSSkillDataPet@CPythonSkillPet@@@std@@PAX@std@@@2@@Z
_TEXT	SEGMENT
?max_size@?$_Default_allocator_traits@V?$allocator@U?$_Tree_node@U?$pair@$$CBKUSSkillDataPet@CPythonSkillPet@@@std@@PAX@std@@@std@@@std@@SAIABV?$allocator@U?$_Tree_node@U?$pair@$$CBKUSSkillDataPet@CPythonSkillPet@@@std@@PAX@std@@@2@@Z PROC ; std::_Default_allocator_traits<std::allocator<std::_Tree_node<std::pair<unsigned long const ,CPythonSkillPet::SSkillDataPet>,void *> > >::max_size, COMDAT
; ___formal$dead$ = ecx

; 694  :         return static_cast<size_t>(-1) / sizeof(value_type);

  00000	b8 97 d0 5e 02	 mov	 eax, 39768215		; 025ed097H

; 695  :     }

  00005	c3		 ret	 0
?max_size@?$_Default_allocator_traits@V?$allocator@U?$_Tree_node@U?$pair@$$CBKUSSkillDataPet@CPythonSkillPet@@@std@@PAX@std@@@std@@@std@@SAIABV?$allocator@U?$_Tree_node@U?$pair@$$CBKUSSkillDataPet@CPythonSkillPet@@@std@@PAX@std@@@2@@Z ENDP ; std::_Default_allocator_traits<std::allocator<std::_Tree_node<std::pair<unsigned long const ,CPythonSkillPet::SSkillDataPet>,void *> > >::max_size
_TEXT	ENDS
; Function compile flags: /Ogtp
; File C:\Program Files\Microsoft Visual Studio\2022\Community\VC\Tools\MSVC\14.34.31933\include\xmemory
;	COMDAT ?deallocate@?$allocator@U?$_Tree_node@U?$pair@$$CBKUSSkillDataPet@CPythonSkillPet@@@std@@PAX@std@@@std@@QAEXQAU?$_Tree_node@U?$pair@$$CBKUSSkillDataPet@CPythonSkillPet@@@std@@PAX@2@I@Z
_TEXT	SEGMENT
__Ptr$ = 8						; size = 4
__Count$dead$ = 12					; size = 4
?deallocate@?$allocator@U?$_Tree_node@U?$pair@$$CBKUSSkillDataPet@CPythonSkillPet@@@std@@PAX@std@@@std@@QAEXQAU?$_Tree_node@U?$pair@$$CBKUSSkillDataPet@CPythonSkillPet@@@std@@PAX@2@I@Z PROC ; std::allocator<std::_Tree_node<std::pair<unsigned long const ,CPythonSkillPet::SSkillDataPet>,void *> >::deallocate, COMDAT
; _this$dead$ = ecx

; 827  :     _CONSTEXPR20 void deallocate(_Ty* const _Ptr, const size_t _Count) {

  00000	55		 push	 ebp
  00001	8b ec		 mov	 ebp, esp

; 255  :         ::operator delete(_Ptr, _Bytes);

  00003	6a 6c		 push	 108			; 0000006cH
  00005	ff 75 08	 push	 DWORD PTR __Ptr$[ebp]
  00008	e8 00 00 00 00	 call	 ??3@YAXPAXI@Z		; operator delete
  0000d	83 c4 08	 add	 esp, 8

; 828  :         _STL_ASSERT(_Ptr != nullptr || _Count == 0, "null pointer cannot point to a block of non-zero size");
; 829  :         // no overflow check on the following multiply; we assume _Allocate did that check
; 830  :         _Deallocate<_New_alignof<_Ty>>(_Ptr, sizeof(_Ty) * _Count);
; 831  :     }

  00010	5d		 pop	 ebp
  00011	c2 08 00	 ret	 8
?deallocate@?$allocator@U?$_Tree_node@U?$pair@$$CBKUSSkillDataPet@CPythonSkillPet@@@std@@PAX@std@@@std@@QAEXQAU?$_Tree_node@U?$pair@$$CBKUSSkillDataPet@CPythonSkillPet@@@std@@PAX@2@I@Z ENDP ; std::allocator<std::_Tree_node<std::pair<unsigned long const ,CPythonSkillPet::SSkillDataPet>,void *> >::deallocate
_TEXT	ENDS
; Function compile flags: /Ogtp
; File C:\Program Files\Microsoft Visual Studio\2022\Community\VC\Tools\MSVC\14.34.31933\include\xmemory
;	COMDAT ?_Get_first@?$_Compressed_pair@V?$allocator@U?$_Tree_node@U?$pair@$$CBKUSSkillDataPet@CPythonSkillPet@@@std@@PAX@std@@@std@@V?$_Tree_val@U?$_Tree_simple_types@U?$pair@$$CBKUSSkillDataPet@CPythonSkillPet@@@std@@@std@@@2@$00@std@@QBEABV?$allocator@U?$_Tree_node@U?$pair@$$CBKUSSkillDataPet@CPythonSkillPet@@@std@@PAX@std@@@2@XZ
_TEXT	SEGMENT
?_Get_first@?$_Compressed_pair@V?$allocator@U?$_Tree_node@U?$pair@$$CBKUSSkillDataPet@CPythonSkillPet@@@std@@PAX@std@@@std@@V?$_Tree_val@U?$_Tree_simple_types@U?$pair@$$CBKUSSkillDataPet@CPythonSkillPet@@@std@@@std@@@2@$00@std@@QBEABV?$allocator@U?$_Tree_node@U?$pair@$$CBKUSSkillDataPet@CPythonSkillPet@@@std@@PAX@std@@@2@XZ PROC ; std::_Compressed_pair<std::allocator<std::_Tree_node<std::pair<unsigned long const ,CPythonSkillPet::SSkillDataPet>,void *> >,std::_Tree_val<std::_Tree_simple_types<std::pair<unsigned long const ,CPythonSkillPet::SSkillDataPet> > >,1>::_Get_first, COMDAT
; _this$ = ecx

; 1388 :         return *this;

  00000	8b c1		 mov	 eax, ecx

; 1389 :     }

  00002	c3		 ret	 0
?_Get_first@?$_Compressed_pair@V?$allocator@U?$_Tree_node@U?$pair@$$CBKUSSkillDataPet@CPythonSkillPet@@@std@@PAX@std@@@std@@V?$_Tree_val@U?$_Tree_simple_types@U?$pair@$$CBKUSSkillDataPet@CPythonSkillPet@@@std@@@std@@@2@$00@std@@QBEABV?$allocator@U?$_Tree_node@U?$pair@$$CBKUSSkillDataPet@CPythonSkillPet@@@std@@PAX@std@@@2@XZ ENDP ; std::_Compressed_pair<std::allocator<std::_Tree_node<std::pair<unsigned long const ,CPythonSkillPet::SSkillDataPet>,void *> >,std::_Tree_val<std::_Tree_simple_types<std::pair<unsigned long const ,CPythonSkillPet::SSkillDataPet> > >,1>::_Get_first
_TEXT	ENDS
; Function compile flags: /Ogtp
; File C:\Program Files\Microsoft Visual Studio\2022\Community\VC\Tools\MSVC\14.34.31933\include\xmemory
; File C:\Program Files\Microsoft Visual Studio\2022\Community\VC\Tools\MSVC\14.34.31933\include\xtree
; File C:\Program Files\Microsoft Visual Studio\2022\Community\VC\Tools\MSVC\14.34.31933\include\xmemory
; File C:\Program Files\Microsoft Visual Studio\2022\Community\VC\Tools\MSVC\14.34.31933\include\xtree
; File C:\Program Files\Microsoft Visual Studio\2022\Community\VC\Tools\MSVC\14.34.31933\include\xmemory
;	COMDAT ??$?0$$V@?$_Compressed_pair@V?$allocator@U?$_Tree_node@U?$pair@$$CBKUSSkillDataPet@CPythonSkillPet@@@std@@PAX@std@@@std@@V?$_Tree_val@U?$_Tree_simple_types@U?$pair@$$CBKUSSkillDataPet@CPythonSkillPet@@@std@@@std@@@2@$00@std@@QAE@U_Zero_then_variadic_args_t@1@@Z
_TEXT	SEGMENT
___formal$ = 8						; size = 1
??$?0$$V@?$_Compressed_pair@V?$allocator@U?$_Tree_node@U?$pair@$$CBKUSSkillDataPet@CPythonSkillPet@@@std@@PAX@std@@@std@@V?$_Tree_val@U?$_Tree_simple_types@U?$pair@$$CBKUSSkillDataPet@CPythonSkillPet@@@std@@@std@@@2@$00@std@@QAE@U_Zero_then_variadic_args_t@1@@Z PROC ; std::_Compressed_pair<std::allocator<std::_Tree_node<std::pair<unsigned long const ,CPythonSkillPet::SSkillDataPet>,void *> >,std::_Tree_val<std::_Tree_simple_types<std::pair<unsigned long const ,CPythonSkillPet::SSkillDataPet> > >,1>::_Compressed_pair<std::allocator<std::_Tree_node<std::pair<unsigned long const ,CPythonSkillPet::SSkillDataPet>,void *> >,std::_Tree_val<std::_Tree_simple_types<std::pair<unsigned long const ,CPythonSkillPet::SSkillDataPet> > >,1><>, COMDAT
; _this$ = ecx
; File C:\Program Files\Microsoft Visual Studio\2022\Community\VC\Tools\MSVC\14.34.31933\include\xtree

; 437  :     _Tree_val() noexcept : _Myhead(), _Mysize(0) {}

  00000	c7 01 00 00 00
	00		 mov	 DWORD PTR [ecx], 0
; File C:\Program Files\Microsoft Visual Studio\2022\Community\VC\Tools\MSVC\14.34.31933\include\xmemory

; 1376 :         : _Ty1(), _Myval2(_STD forward<_Other2>(_Val2)...) {}

  00006	8b c1		 mov	 eax, ecx
; File C:\Program Files\Microsoft Visual Studio\2022\Community\VC\Tools\MSVC\14.34.31933\include\xtree

; 437  :     _Tree_val() noexcept : _Myhead(), _Mysize(0) {}

  00008	c7 41 04 00 00
	00 00		 mov	 DWORD PTR [ecx+4], 0
; File C:\Program Files\Microsoft Visual Studio\2022\Community\VC\Tools\MSVC\14.34.31933\include\xmemory

; 1376 :         : _Ty1(), _Myval2(_STD forward<_Other2>(_Val2)...) {}

  0000f	c2 04 00	 ret	 4
??$?0$$V@?$_Compressed_pair@V?$allocator@U?$_Tree_node@U?$pair@$$CBKUSSkillDataPet@CPythonSkillPet@@@std@@PAX@std@@@std@@V?$_Tree_val@U?$_Tree_simple_types@U?$pair@$$CBKUSSkillDataPet@CPythonSkillPet@@@std@@@std@@@2@$00@std@@QAE@U_Zero_then_variadic_args_t@1@@Z ENDP ; std::_Compressed_pair<std::allocator<std::_Tree_node<std::pair<unsigned long const ,CPythonSkillPet::SSkillDataPet>,void *> >,std::_Tree_val<std::_Tree_simple_types<std::pair<unsigned long const ,CPythonSkillPet::SSkillDataPet> > >,1>::_Compressed_pair<std::allocator<std::_Tree_node<std::pair<unsigned long const ,CPythonSkillPet::SSkillDataPet>,void *> >,std::_Tree_val<std::_Tree_simple_types<std::pair<unsigned long const ,CPythonSkillPet::SSkillDataPet> > >,1><>
_TEXT	ENDS
; Function compile flags: /Ogtp
; File C:\Program Files\Microsoft Visual Studio\2022\Community\VC\Tools\MSVC\14.34.31933\include\type_traits
;	COMDAT ??$forward@USSkillDataPet@CPythonSkillPet@@@std@@YA$$QAUSSkillDataPet@CPythonSkillPet@@AAU12@@Z
_TEXT	SEGMENT
??$forward@USSkillDataPet@CPythonSkillPet@@@std@@YA$$QAUSSkillDataPet@CPythonSkillPet@@AAU12@@Z PROC ; std::forward<CPythonSkillPet::SSkillDataPet>, COMDAT
; __Arg$ = ecx

; 1426 :     return static_cast<_Ty&&>(_Arg);

  00000	8b c1		 mov	 eax, ecx

; 1427 : }

  00002	c3		 ret	 0
??$forward@USSkillDataPet@CPythonSkillPet@@@std@@YA$$QAUSSkillDataPet@CPythonSkillPet@@AAU12@@Z ENDP ; std::forward<CPythonSkillPet::SSkillDataPet>
_TEXT	ENDS
; Function compile flags: /Ogtp
; File C:\Program Files\Microsoft Visual Studio\2022\Community\VC\Tools\MSVC\14.34.31933\include\utility
;	COMDAT ??$?0AAKUSSkillDataPet@CPythonSkillPet@@$0A@@?$pair@KUSSkillDataPet@CPythonSkillPet@@@std@@QAE@AAK$$QAUSSkillDataPet@CPythonSkillPet@@@Z
_TEXT	SEGMENT
__Val1$ = 8						; size = 4
__Val2$ = 12						; size = 4
??$?0AAKUSSkillDataPet@CPythonSkillPet@@$0A@@?$pair@KUSSkillDataPet@CPythonSkillPet@@@std@@QAE@AAK$$QAUSSkillDataPet@CPythonSkillPet@@@Z PROC ; std::pair<unsigned long,CPythonSkillPet::SSkillDataPet>::pair<unsigned long,CPythonSkillPet::SSkillDataPet><unsigned long &,CPythonSkillPet::SSkillDataPet,0>, COMDAT
; _this$ = ecx

; 172  :         : first(_STD forward<_Other1>(_Val1)), second(_STD forward<_Other2>(_Val2)) {

  00000	55		 push	 ebp
  00001	8b ec		 mov	 ebp, esp
  00003	8b 45 08	 mov	 eax, DWORD PTR __Val1$[ebp]
  00006	56		 push	 esi
  00007	ff 75 0c	 push	 DWORD PTR __Val2$[ebp]
  0000a	8b f1		 mov	 esi, ecx
  0000c	8b 00		 mov	 eax, DWORD PTR [eax]
  0000e	8d 4e 04	 lea	 ecx, DWORD PTR [esi+4]
  00011	89 06		 mov	 DWORD PTR [esi], eax
  00013	e8 00 00 00 00	 call	 ??0SSkillDataPet@CPythonSkillPet@@QAE@$$QAU01@@Z

; 173  :     }

  00018	8b c6		 mov	 eax, esi
  0001a	5e		 pop	 esi
  0001b	5d		 pop	 ebp
  0001c	c2 08 00	 ret	 8
??$?0AAKUSSkillDataPet@CPythonSkillPet@@$0A@@?$pair@KUSSkillDataPet@CPythonSkillPet@@@std@@QAE@AAK$$QAUSSkillDataPet@CPythonSkillPet@@@Z ENDP ; std::pair<unsigned long,CPythonSkillPet::SSkillDataPet>::pair<unsigned long,CPythonSkillPet::SSkillDataPet><unsigned long &,CPythonSkillPet::SSkillDataPet,0>
_TEXT	ENDS
; Function compile flags: /Ogtp
; File C:\Program Files\Microsoft Visual Studio\2022\Community\VC\Tools\MSVC\14.34.31933\include\xmemory
; File C:\Program Files\Microsoft Visual Studio\2022\Community\VC\Tools\MSVC\14.34.31933\include\xstring
; File C:\Program Files\Microsoft Visual Studio\2022\Community\VC\Tools\MSVC\14.34.31933\include\xmemory
; File C:\Program Files\Microsoft Visual Studio\2022\Community\VC\Tools\MSVC\14.34.31933\include\xstring
; File C:\Program Files\Microsoft Visual Studio\2022\Community\VC\Tools\MSVC\14.34.31933\include\xmemory
; File C:\Program Files\Microsoft Visual Studio\2022\Community\VC\Tools\MSVC\14.34.31933\include\xstring
;	COMDAT ??0SSkillDataPet@CPythonSkillPet@@QAE@$$QAU01@@Z
_TEXT	SEGMENT
___that$ = 8						; size = 4
??0SSkillDataPet@CPythonSkillPet@@QAE@$$QAU01@@Z PROC	; CPythonSkillPet::SSkillDataPet::SSkillDataPet, COMDAT
; _this$ = ecx
  00000	55		 push	 ebp
  00001	8b ec		 mov	 ebp, esp
; File C:\Program Files\Microsoft Visual Studio\2022\Community\VC\Tools\MSVC\14.34.31933\include\xmemory

; 1381 :         : _Ty1(_STD forward<_Other1>(_Val1)), _Myval2(_STD forward<_Other2>(_Val2)...) {}

  00003	8b 55 08	 mov	 edx, DWORD PTR ___that$[ebp]
  00006	0f 57 c0	 xorps	 xmm0, xmm0
  00009	8b 02		 mov	 eax, DWORD PTR [edx]
  0000b	89 01		 mov	 DWORD PTR [ecx], eax
; File C:\Program Files\Microsoft Visual Studio\2022\Community\VC\Tools\MSVC\14.34.31933\include\xstring

; 2339 :         _CONSTEXPR20 _Bxty() noexcept : _Buf() {} // user-provided, for fancy pointers

  0000d	0f 11 41 04	 movups	 XMMWORD PTR [ecx+4], xmm0

; 2348 :     size_type _Mysize = 0; // current length of string

  00011	c7 41 14 00 00
	00 00		 mov	 DWORD PTR [ecx+20], 0

; 2349 :     size_type _Myres  = 0; // current storage reserved for string

  00018	c7 41 18 00 00
	00 00		 mov	 DWORD PTR [ecx+24], 0

; 3137 :         _CSTD memcpy(_My_data_mem, _Right_data_mem, _Memcpy_val_size);

  0001f	0f 10 42 04	 movups	 xmm0, XMMWORD PTR [edx+4]
  00023	0f 11 41 04	 movups	 XMMWORD PTR [ecx+4], xmm0
  00027	f3 0f 7e 42 14	 movq	 xmm0, QWORD PTR [edx+20]
  0002c	66 0f d6 41 14	 movq	 QWORD PTR [ecx+20], xmm0
  00031	0f 57 c0	 xorps	 xmm0, xmm0
; File C:\Program Files\Microsoft Visual Studio\2022\Community\VC\Tools\MSVC\14.34.31933\include\xmemory

; 1381 :         : _Ty1(_STD forward<_Other1>(_Val1)), _Myval2(_STD forward<_Other2>(_Val2)...) {}

  00034	c7 42 14 00 00
	00 00		 mov	 DWORD PTR [edx+20], 0
  0003b	c7 42 18 0f 00
	00 00		 mov	 DWORD PTR [edx+24], 15	; 0000000fH
  00042	c6 42 04 00	 mov	 BYTE PTR [edx+4], 0
; File C:\Program Files\Microsoft Visual Studio\2022\Community\VC\Tools\MSVC\14.34.31933\include\xstring

; 2339 :         _CONSTEXPR20 _Bxty() noexcept : _Buf() {} // user-provided, for fancy pointers

  00046	0f 11 41 1c	 movups	 XMMWORD PTR [ecx+28], xmm0

; 2348 :     size_type _Mysize = 0; // current length of string

  0004a	c7 41 2c 00 00
	00 00		 mov	 DWORD PTR [ecx+44], 0

; 2349 :     size_type _Myres  = 0; // current storage reserved for string

  00051	c7 41 30 00 00
	00 00		 mov	 DWORD PTR [ecx+48], 0

; 3137 :         _CSTD memcpy(_My_data_mem, _Right_data_mem, _Memcpy_val_size);

  00058	0f 10 42 1c	 movups	 xmm0, XMMWORD PTR [edx+28]
  0005c	0f 11 41 1c	 movups	 XMMWORD PTR [ecx+28], xmm0
  00060	f3 0f 7e 42 2c	 movq	 xmm0, QWORD PTR [edx+44]
  00065	66 0f d6 41 2c	 movq	 QWORD PTR [ecx+44], xmm0
  0006a	0f 57 c0	 xorps	 xmm0, xmm0
; File C:\Program Files\Microsoft Visual Studio\2022\Community\VC\Tools\MSVC\14.34.31933\include\xmemory

; 1381 :         : _Ty1(_STD forward<_Other1>(_Val1)), _Myval2(_STD forward<_Other2>(_Val2)...) {}

  0006d	c7 42 2c 00 00
	00 00		 mov	 DWORD PTR [edx+44], 0
  00074	c7 42 30 0f 00
	00 00		 mov	 DWORD PTR [edx+48], 15	; 0000000fH
  0007b	c6 42 1c 00	 mov	 BYTE PTR [edx+28], 0
  0007f	8a 42 34	 mov	 al, BYTE PTR [edx+52]
  00082	88 41 34	 mov	 BYTE PTR [ecx+52], al
; File C:\Program Files\Microsoft Visual Studio\2022\Community\VC\Tools\MSVC\14.34.31933\include\xstring

; 2339 :         _CONSTEXPR20 _Bxty() noexcept : _Buf() {} // user-provided, for fancy pointers

  00085	0f 11 41 38	 movups	 XMMWORD PTR [ecx+56], xmm0

; 2348 :     size_type _Mysize = 0; // current length of string

  00089	c7 41 48 00 00
	00 00		 mov	 DWORD PTR [ecx+72], 0

; 2349 :     size_type _Myres  = 0; // current storage reserved for string

  00090	c7 41 4c 00 00
	00 00		 mov	 DWORD PTR [ecx+76], 0

; 3137 :         _CSTD memcpy(_My_data_mem, _Right_data_mem, _Memcpy_val_size);

  00097	0f 10 42 38	 movups	 xmm0, XMMWORD PTR [edx+56]
  0009b	0f 11 41 38	 movups	 XMMWORD PTR [ecx+56], xmm0
  0009f	f3 0f 7e 42 48	 movq	 xmm0, QWORD PTR [edx+72]
  000a4	66 0f d6 41 48	 movq	 QWORD PTR [ecx+72], xmm0
  000a9	c7 42 48 00 00
	00 00		 mov	 DWORD PTR [edx+72], 0
  000b0	c7 42 4c 0f 00
	00 00		 mov	 DWORD PTR [edx+76], 15	; 0000000fH
  000b7	c6 42 38 00	 mov	 BYTE PTR [edx+56], 0
  000bb	8b 42 50	 mov	 eax, DWORD PTR [edx+80]
  000be	89 41 50	 mov	 DWORD PTR [ecx+80], eax
  000c1	8b 42 54	 mov	 eax, DWORD PTR [edx+84]
  000c4	89 41 54	 mov	 DWORD PTR [ecx+84], eax
  000c7	8b c1		 mov	 eax, ecx
  000c9	5d		 pop	 ebp
  000ca	c2 04 00	 ret	 4
??0SSkillDataPet@CPythonSkillPet@@QAE@$$QAU01@@Z ENDP	; CPythonSkillPet::SSkillDataPet::SSkillDataPet
_TEXT	ENDS
; Function compile flags: /Ogtp
; File C:\Program Files\Microsoft Visual Studio\2022\Community\VC\Tools\MSVC\14.34.31933\include\type_traits
;	COMDAT ??$forward@U?$pair@KUSSkillDataPet@CPythonSkillPet@@@std@@@std@@YA$$QAU?$pair@KUSSkillDataPet@CPythonSkillPet@@@0@AAU10@@Z
_TEXT	SEGMENT
??$forward@U?$pair@KUSSkillDataPet@CPythonSkillPet@@@std@@@std@@YA$$QAU?$pair@KUSSkillDataPet@CPythonSkillPet@@@0@AAU10@@Z PROC ; std::forward<std::pair<unsigned long,CPythonSkillPet::SSkillDataPet> >, COMDAT
; __Arg$ = ecx

; 1426 :     return static_cast<_Ty&&>(_Arg);

  00000	8b c1		 mov	 eax, ecx

; 1427 : }

  00002	c3		 ret	 0
??$forward@U?$pair@KUSSkillDataPet@CPythonSkillPet@@@std@@@std@@YA$$QAU?$pair@KUSSkillDataPet@CPythonSkillPet@@@0@AAU10@@Z ENDP ; std::forward<std::pair<unsigned long,CPythonSkillPet::SSkillDataPet> >
_TEXT	ENDS
; Function compile flags: /Ogtp
; File C:\Program Files\Microsoft Visual Studio\2022\Community\VC\Tools\MSVC\14.34.31933\include\xtree
; File C:\Program Files\Microsoft Visual Studio\2022\Community\VC\Tools\MSVC\14.34.31933\include\utility
; File C:\Program Files\Microsoft Visual Studio\2022\Community\VC\Tools\MSVC\14.34.31933\include\xtree
; File C:\Program Files\Microsoft Visual Studio\2022\Community\VC\Tools\MSVC\14.34.31933\include\xmemory
; File C:\Program Files\Microsoft Visual Studio\2022\Community\VC\Tools\MSVC\14.34.31933\include\xtree
; File C:\Program Files\Microsoft Visual Studio\2022\Community\VC\Tools\MSVC\14.34.31933\include\xmemory
; File C:\Program Files\Microsoft Visual Studio\2022\Community\VC\Tools\MSVC\14.34.31933\include\xtree
; File C:\Program Files\Microsoft Visual Studio\2022\Community\VC\Tools\MSVC\14.34.31933\include\utility
; File C:\Program Files\Microsoft Visual Studio\2022\Community\VC\Tools\MSVC\14.34.31933\include\xtree
;	COMDAT ??$emplace@U?$pair@KUSSkillDataPet@CPythonSkillPet@@@std@@@?$_Tree@V?$_Tmap_traits@KUSSkillDataPet@CPythonSkillPet@@U?$less@K@std@@V?$allocator@U?$pair@$$CBKUSSkillDataPet@CPythonSkillPet@@@std@@@4@$0A@@std@@@std@@QAE?AU?$pair@V?$_Tree_iterator@V?$_Tree_val@U?$_Tree_simple_types@U?$pair@$$CBKUSSkillDataPet@CPythonSkillPet@@@std@@@std@@@std@@@std@@_N@1@$$QAU?$pair@KUSSkillDataPet@CPythonSkillPet@@@1@@Z
_TEXT	SEGMENT
__Loc$2 = -40						; size = 12
$T3 = -28						; size = 12
$T4 = -24						; size = 8
_this$1$ = -16						; size = 4
__$EHRec$ = -12						; size = 12
___$ReturnUdt$ = 8					; size = 4
_<_Vals_0>$ = 12					; size = 4
??$emplace@U?$pair@KUSSkillDataPet@CPythonSkillPet@@@std@@@?$_Tree@V?$_Tmap_traits@KUSSkillDataPet@CPythonSkillPet@@U?$less@K@std@@V?$allocator@U?$pair@$$CBKUSSkillDataPet@CPythonSkillPet@@@std@@@4@$0A@@std@@@std@@QAE?AU?$pair@V?$_Tree_iterator@V?$_Tree_val@U?$_Tree_simple_types@U?$pair@$$CBKUSSkillDataPet@CPythonSkillPet@@@std@@@std@@@std@@@std@@_N@1@$$QAU?$pair@KUSSkillDataPet@CPythonSkillPet@@@1@@Z PROC ; std::_Tree<std::_Tmap_traits<unsigned long,CPythonSkillPet::SSkillDataPet,std::less<unsigned long>,std::allocator<std::pair<unsigned long const ,CPythonSkillPet::SSkillDataPet> >,0> >::emplace<std::pair<unsigned long,CPythonSkillPet::SSkillDataPet> >, COMDAT
; _this$ = ecx

; 1031 :     pair<iterator, bool> emplace(_Valtys&&... _Vals) {

  00000	55		 push	 ebp
  00001	8b ec		 mov	 ebp, esp
  00003	6a ff		 push	 -1
  00005	68 00 00 00 00	 push	 __ehhandler$??$emplace@U?$pair@KUSSkillDataPet@CPythonSkillPet@@@std@@@?$_Tree@V?$_Tmap_traits@KUSSkillDataPet@CPythonSkillPet@@U?$less@K@std@@V?$allocator@U?$pair@$$CBKUSSkillDataPet@CPythonSkillPet@@@std@@@4@$0A@@std@@@std@@QAE?AU?$pair@V?$_Tree_iterator@V?$_Tree_val@U?$_Tree_simple_types@U?$pair@$$CBKUSSkillDataPet@CPythonSkillPet@@@std@@@std@@@std@@@std@@_N@1@$$QAU?$pair@KUSSkillDataPet@CPythonSkillPet@@@1@@Z
  0000a	64 a1 00 00 00
	00		 mov	 eax, DWORD PTR fs:0
  00010	50		 push	 eax
  00011	83 ec 1c	 sub	 esp, 28			; 0000001cH
  00014	53		 push	 ebx
  00015	56		 push	 esi
  00016	57		 push	 edi
  00017	a1 00 00 00 00	 mov	 eax, DWORD PTR ___security_cookie
  0001c	33 c5		 xor	 eax, ebp
  0001e	50		 push	 eax
  0001f	8d 45 f4	 lea	 eax, DWORD PTR __$EHRec$[ebp]
  00022	64 a3 00 00 00
	00		 mov	 DWORD PTR fs:0, eax
  00028	8b f1		 mov	 esi, ecx
  0002a	89 75 f0	 mov	 DWORD PTR _this$1$[ebp], esi

; 1001 :             _Loc                = _Find_lower_bound(_Keyval);

  0002d	8b 7d 0c	 mov	 edi, DWORD PTR _<_Vals_0>$[ebp]
  00030	8d 45 e4	 lea	 eax, DWORD PTR $T3[ebp]
  00033	57		 push	 edi
  00034	50		 push	 eax
  00035	e8 00 00 00 00	 call	 ??$_Find_lower_bound@K@?$_Tree@V?$_Tmap_traits@KUSSkillDataPet@CPythonSkillPet@@U?$less@K@std@@V?$allocator@U?$pair@$$CBKUSSkillDataPet@CPythonSkillPet@@@std@@@4@$0A@@std@@@std@@IBE?AU?$_Tree_find_result@PAU?$_Tree_node@U?$pair@$$CBKUSSkillDataPet@CPythonSkillPet@@@std@@PAX@std@@@1@ABK@Z ; std::_Tree<std::_Tmap_traits<unsigned long,CPythonSkillPet::SSkillDataPet,std::less<unsigned long>,std::allocator<std::pair<unsigned long const ,CPythonSkillPet::SSkillDataPet> >,0> >::_Find_lower_bound<unsigned long>
  0003a	8b 48 08	 mov	 ecx, DWORD PTR [eax+8]
  0003d	f3 0f 7e 00	 movq	 xmm0, QWORD PTR [eax]
  00041	66 0f d6 45 d8	 movq	 QWORD PTR __Loc$2[ebp], xmm0

; 1605 :         return !_Bound->_Isnil && !_DEBUG_LT_PRED(_Getcomp(), _Keyval, _Traits::_Kfn(_Bound->_Myval));

  00046	80 79 0d 00	 cmp	 BYTE PTR [ecx+13], 0
  0004a	75 0b		 jne	 SHORT $LN4@emplace
  0004c	8b 07		 mov	 eax, DWORD PTR [edi]
  0004e	3b 41 10	 cmp	 eax, DWORD PTR [ecx+16]
  00051	72 04		 jb	 SHORT $LN4@emplace
; File C:\Program Files\Microsoft Visual Studio\2022\Community\VC\Tools\MSVC\14.34.31933\include\utility

; 172  :         : first(_STD forward<_Other1>(_Val1)), second(_STD forward<_Other2>(_Val2)) {

  00053	32 d2		 xor	 dl, dl
; File C:\Program Files\Microsoft Visual Studio\2022\Community\VC\Tools\MSVC\14.34.31933\include\xtree

; 1003 :                 return {_Loc._Bound, false};

  00055	eb 5d		 jmp	 SHORT $LN97@emplace
$LN4@emplace:

; 1629 :         if (max_size() == _Get_scary()->_Mysize) {

  00057	81 7e 04 97 d0
	5e 02		 cmp	 DWORD PTR [esi+4], 39768215 ; 025ed097H
  0005e	74 70		 je	 SHORT $LN113@emplace

; 1007 :             _Inserted = _Tree_temp_node<_Alnode>(_Getal(), _Scary->_Myhead, _STD forward<_Valtys>(_Vals)...)._Release();

  00060	8b 1e		 mov	 ebx, DWORD PTR [esi]
; File C:\Program Files\Microsoft Visual Studio\2022\Community\VC\Tools\MSVC\14.34.31933\include\xmemory

; 1005 :     _CONSTEXPR20 explicit _Alloc_construct_ptr(_Alloc& _Al_) : _Al(_Al_), _Ptr(nullptr) {}

  00062	89 75 e8	 mov	 DWORD PTR $T4[ebp], esi
; File C:\Program Files\Microsoft Visual Studio\2022\Community\VC\Tools\MSVC\14.34.31933\include\xtree

; 785  :     explicit _Tree_temp_node_alloc(_Alnode& _Al_) : _Alloc_construct_ptr<_Alnode>(_Al_) {

  00065	c7 45 fc 00 00
	00 00		 mov	 DWORD PTR __$EHRec$[ebp+8], 0
; File C:\Program Files\Microsoft Visual Studio\2022\Community\VC\Tools\MSVC\14.34.31933\include\xmemory

; 77   :         return ::operator new(_Bytes);

  0006c	6a 6c		 push	 108			; 0000006cH

; 1012 :         _Ptr = nullptr; // if allocate throws, prevents double-free

  0006e	c7 45 ec 00 00
	00 00		 mov	 DWORD PTR $T4[ebp+4], 0

; 77   :         return ::operator new(_Bytes);

  00075	e8 00 00 00 00	 call	 ??2@YAPAXI@Z		; operator new

; 1013 :         _Ptr = _Al.allocate(1);

  0007a	8b f8		 mov	 edi, eax

; 77   :         return ::operator new(_Bytes);

  0007c	83 c4 04	 add	 esp, 4
; File C:\Program Files\Microsoft Visual Studio\2022\Community\VC\Tools\MSVC\14.34.31933\include\xtree

; 808  :         _Construct_in_place(this->_Ptr->_Left, _Myhead);

  0007f	8b 45 0c	 mov	 eax, DWORD PTR _<_Vals_0>$[ebp]
  00082	8d 4f 14	 lea	 ecx, DWORD PTR [edi+20]
  00085	8b 10		 mov	 edx, DWORD PTR [eax]
  00087	8d 70 04	 lea	 esi, DWORD PTR [eax+4]
  0008a	56		 push	 esi
  0008b	89 57 10	 mov	 DWORD PTR [edi+16], edx
  0008e	e8 00 00 00 00	 call	 ??0SSkillDataPet@CPythonSkillPet@@QAE@$$QAU01@@Z

; 1026 :         return {_Scary->_Insert_node(_Loc._Location, _Inserted), true};

  00093	8b 4d f0	 mov	 ecx, DWORD PTR _this$1$[ebp]
  00096	57		 push	 edi
  00097	ff 75 dc	 push	 DWORD PTR __Loc$2[ebp+4]

; 808  :         _Construct_in_place(this->_Ptr->_Left, _Myhead);

  0009a	89 1f		 mov	 DWORD PTR [edi], ebx

; 1026 :         return {_Scary->_Insert_node(_Loc._Location, _Inserted), true};

  0009c	ff 75 d8	 push	 DWORD PTR __Loc$2[ebp]

; 809  :         _Construct_in_place(this->_Ptr->_Parent, _Myhead);

  0009f	89 5f 04	 mov	 DWORD PTR [edi+4], ebx

; 810  :         _Construct_in_place(this->_Ptr->_Right, _Myhead);

  000a2	89 5f 08	 mov	 DWORD PTR [edi+8], ebx

; 811  :         this->_Ptr->_Color = _Red;

  000a5	66 c7 47 0c 00
	00		 mov	 WORD PTR [edi+12], 0

; 1026 :         return {_Scary->_Insert_node(_Loc._Location, _Inserted), true};

  000ab	e8 00 00 00 00	 call	 ?_Insert_node@?$_Tree_val@U?$_Tree_simple_types@U?$pair@$$CBKUSSkillDataPet@CPythonSkillPet@@@std@@@std@@@std@@QAEPAU?$_Tree_node@U?$pair@$$CBKUSSkillDataPet@CPythonSkillPet@@@std@@PAX@2@U?$_Tree_id@PAU?$_Tree_node@U?$pair@$$CBKUSSkillDataPet@CPythonSkillPet@@@std@@PAX@std@@@2@QAU32@@Z ; std::_Tree_val<std::_Tree_simple_types<std::pair<unsigned long const ,CPythonSkillPet::SSkillDataPet> > >::_Insert_node
; File C:\Program Files\Microsoft Visual Studio\2022\Community\VC\Tools\MSVC\14.34.31933\include\utility

; 172  :         : first(_STD forward<_Other1>(_Val1)), second(_STD forward<_Other2>(_Val2)) {

  000b0	8b c8		 mov	 ecx, eax
  000b2	b2 01		 mov	 dl, 1
$LN97@emplace:
  000b4	8b 45 08	 mov	 eax, DWORD PTR ___$ReturnUdt$[ebp]
  000b7	89 08		 mov	 DWORD PTR [eax], ecx
  000b9	88 50 04	 mov	 BYTE PTR [eax+4], dl
; File C:\Program Files\Microsoft Visual Studio\2022\Community\VC\Tools\MSVC\14.34.31933\include\xtree

; 1034 :     }

  000bc	8b 4d f4	 mov	 ecx, DWORD PTR __$EHRec$[ebp]
  000bf	64 89 0d 00 00
	00 00		 mov	 DWORD PTR fs:0, ecx
  000c6	59		 pop	 ecx
  000c7	5f		 pop	 edi
  000c8	5e		 pop	 esi
  000c9	5b		 pop	 ebx
  000ca	8b e5		 mov	 esp, ebp
  000cc	5d		 pop	 ebp
  000cd	c2 08 00	 ret	 8
$LN113@emplace:

; 1630 :             _Throw_tree_length_error();

  000d0	e8 00 00 00 00	 call	 ?_Throw_tree_length_error@std@@YAXXZ ; std::_Throw_tree_length_error
$LN111@emplace:
  000d5	cc		 int	 3
_TEXT	ENDS
;	COMDAT text$x
text$x	SEGMENT
__unwindfunclet$??$emplace@U?$pair@KUSSkillDataPet@CPythonSkillPet@@@std@@@?$_Tree@V?$_Tmap_traits@KUSSkillDataPet@CPythonSkillPet@@U?$less@K@std@@V?$allocator@U?$pair@$$CBKUSSkillDataPet@CPythonSkillPet@@@std@@@4@$0A@@std@@@std@@QAE?AU?$pair@V?$_Tree_iterator@V?$_Tree_val@U?$_Tree_simple_types@U?$pair@$$CBKUSSkillDataPet@CPythonSkillPet@@@std@@@std@@@std@@@std@@_N@1@$$QAU?$pair@KUSSkillDataPet@CPythonSkillPet@@@1@@Z$2:
  00000	8d 4d e8	 lea	 ecx, DWORD PTR $T4[ebp]
  00003	e9 00 00 00 00	 jmp	 ??1?$_Alloc_construct_ptr@V?$allocator@U?$_Tree_node@U?$pair@$$CBKUSSkillDataPet@CPythonSkillPet@@@std@@PAX@std@@@std@@@std@@QAE@XZ ; std::_Alloc_construct_ptr<std::allocator<std::_Tree_node<std::pair<unsigned long const ,CPythonSkillPet::SSkillDataPet>,void *> > >::~_Alloc_construct_ptr<std::allocator<std::_Tree_node<std::pair<unsigned long const ,CPythonSkillPet::SSkillDataPet>,void *> > >
  00008	cc		 int	 3
  00009	cc		 int	 3
  0000a	cc		 int	 3
  0000b	cc		 int	 3
  0000c	cc		 int	 3
__ehhandler$??$emplace@U?$pair@KUSSkillDataPet@CPythonSkillPet@@@std@@@?$_Tree@V?$_Tmap_traits@KUSSkillDataPet@CPythonSkillPet@@U?$less@K@std@@V?$allocator@U?$pair@$$CBKUSSkillDataPet@CPythonSkillPet@@@std@@@4@$0A@@std@@@std@@QAE?AU?$pair@V?$_Tree_iterator@V?$_Tree_val@U?$_Tree_simple_types@U?$pair@$$CBKUSSkillDataPet@CPythonSkillPet@@@std@@@std@@@std@@@std@@_N@1@$$QAU?$pair@KUSSkillDataPet@CPythonSkillPet@@@1@@Z:
  0000d	90		 npad	 1
  0000e	90		 npad	 1
  0000f	8b 54 24 08	 mov	 edx, DWORD PTR [esp+8]
  00013	8d 42 0c	 lea	 eax, DWORD PTR [edx+12]
  00016	8b 4a d4	 mov	 ecx, DWORD PTR [edx-44]
  00019	33 c8		 xor	 ecx, eax
  0001b	e8 00 00 00 00	 call	 @__security_check_cookie@4
  00020	b8 00 00 00 00	 mov	 eax, OFFSET __ehfuncinfo$??$emplace@U?$pair@KUSSkillDataPet@CPythonSkillPet@@@std@@@?$_Tree@V?$_Tmap_traits@KUSSkillDataPet@CPythonSkillPet@@U?$less@K@std@@V?$allocator@U?$pair@$$CBKUSSkillDataPet@CPythonSkillPet@@@std@@@4@$0A@@std@@@std@@QAE?AU?$pair@V?$_Tree_iterator@V?$_Tree_val@U?$_Tree_simple_types@U?$pair@$$CBKUSSkillDataPet@CPythonSkillPet@@@std@@@std@@@std@@@std@@_N@1@$$QAU?$pair@KUSSkillDataPet@CPythonSkillPet@@@1@@Z
  00025	e9 00 00 00 00	 jmp	 ___CxxFrameHandler3
text$x	ENDS
??$emplace@U?$pair@KUSSkillDataPet@CPythonSkillPet@@@std@@@?$_Tree@V?$_Tmap_traits@KUSSkillDataPet@CPythonSkillPet@@U?$less@K@std@@V?$allocator@U?$pair@$$CBKUSSkillDataPet@CPythonSkillPet@@@std@@@4@$0A@@std@@@std@@QAE?AU?$pair@V?$_Tree_iterator@V?$_Tree_val@U?$_Tree_simple_types@U?$pair@$$CBKUSSkillDataPet@CPythonSkillPet@@@std@@@std@@@std@@@std@@_N@1@$$QAU?$pair@KUSSkillDataPet@CPythonSkillPet@@@1@@Z ENDP ; std::_Tree<std::_Tmap_traits<unsigned long,CPythonSkillPet::SSkillDataPet,std::less<unsigned long>,std::allocator<std::pair<unsigned long const ,CPythonSkillPet::SSkillDataPet> >,0> >::emplace<std::pair<unsigned long,CPythonSkillPet::SSkillDataPet> >
; Function compile flags: /Ogtp
; File C:\Program Files\Microsoft Visual Studio\2022\Community\VC\Tools\MSVC\14.34.31933\include\type_traits
;	COMDAT ??$forward@W4<unnamed-enum-SKILLPET_TYPE_NONE>@CPythonSkillPet@@@std@@YA$$QAW4<unnamed-enum-SKILLPET_TYPE_NONE>@CPythonSkillPet@@AAW412@@Z
_TEXT	SEGMENT
??$forward@W4<unnamed-enum-SKILLPET_TYPE_NONE>@CPythonSkillPet@@@std@@YA$$QAW4<unnamed-enum-SKILLPET_TYPE_NONE>@CPythonSkillPet@@AAW412@@Z PROC ; std::forward<enum CPythonSkillPet::<unnamed-enum-SKILLPET_TYPE_NONE> >, COMDAT
; __Arg$ = ecx

; 1426 :     return static_cast<_Ty&&>(_Arg);

  00000	8b c1		 mov	 eax, ecx

; 1427 : }

  00002	c3		 ret	 0
??$forward@W4<unnamed-enum-SKILLPET_TYPE_NONE>@CPythonSkillPet@@@std@@YA$$QAW4<unnamed-enum-SKILLPET_TYPE_NONE>@CPythonSkillPet@@AAW412@@Z ENDP ; std::forward<enum CPythonSkillPet::<unnamed-enum-SKILLPET_TYPE_NONE> >
_TEXT	ENDS
; Function compile flags: /Ogtp
; File C:\Program Files\Microsoft Visual Studio\2022\Community\VC\Tools\MSVC\14.34.31933\include\xtree
; File C:\Program Files\Microsoft Visual Studio\2022\Community\VC\Tools\MSVC\14.34.31933\include\xstddef
; File C:\Program Files\Microsoft Visual Studio\2022\Community\VC\Tools\MSVC\14.34.31933\include\xtree
; File C:\Program Files\Microsoft Visual Studio\2022\Community\VC\Tools\MSVC\14.34.31933\include\xstddef
; File C:\Program Files\Microsoft Visual Studio\2022\Community\VC\Tools\MSVC\14.34.31933\include\xtree
;	COMDAT ??$_Find_lower_bound@K@?$_Tree@V?$_Tmap_traits@KUSSkillDataPet@CPythonSkillPet@@U?$less@K@std@@V?$allocator@U?$pair@$$CBKUSSkillDataPet@CPythonSkillPet@@@std@@@4@$0A@@std@@@std@@IBE?AU?$_Tree_find_result@PAU?$_Tree_node@U?$pair@$$CBKUSSkillDataPet@CPythonSkillPet@@@std@@PAX@std@@@1@ABK@Z
_TEXT	SEGMENT
___$ReturnUdt$ = 8					; size = 4
__Keyval$ = 12						; size = 4
??$_Find_lower_bound@K@?$_Tree@V?$_Tmap_traits@KUSSkillDataPet@CPythonSkillPet@@U?$less@K@std@@V?$allocator@U?$pair@$$CBKUSSkillDataPet@CPythonSkillPet@@@std@@@4@$0A@@std@@@std@@IBE?AU?$_Tree_find_result@PAU?$_Tree_node@U?$pair@$$CBKUSSkillDataPet@CPythonSkillPet@@@std@@PAX@std@@@1@ABK@Z PROC ; std::_Tree<std::_Tmap_traits<unsigned long,CPythonSkillPet::SSkillDataPet,std::less<unsigned long>,std::allocator<std::pair<unsigned long const ,CPythonSkillPet::SSkillDataPet> >,0> >::_Find_lower_bound<unsigned long>, COMDAT
; _this$ = ecx

; 1609 :     _Tree_find_result<_Nodeptr> _Find_lower_bound(const _Keyty& _Keyval) const {

  00000	55		 push	 ebp
  00001	8b ec		 mov	 ebp, esp

; 1610 :         const auto _Scary = _Get_scary();
; 1611 :         _Tree_find_result<_Nodeptr> _Result{{_Scary->_Myhead->_Parent, _Tree_child::_Right}, _Scary->_Myhead};

  00003	8b 09		 mov	 ecx, DWORD PTR [ecx]
  00005	8b 55 08	 mov	 edx, DWORD PTR ___$ReturnUdt$[ebp]
  00008	8b 41 04	 mov	 eax, DWORD PTR [ecx+4]
  0000b	89 02		 mov	 DWORD PTR [edx], eax
  0000d	c7 42 04 00 00
	00 00		 mov	 DWORD PTR [edx+4], 0
  00014	89 4a 08	 mov	 DWORD PTR [edx+8], ecx

; 1612 :         _Nodeptr _Trynode = _Result._Location._Parent;
; 1613 :         while (!_Trynode->_Isnil) {

  00017	80 78 0d 00	 cmp	 BYTE PTR [eax+13], 0
  0001b	75 28		 jne	 SHORT $LN12@Find_lower
; File C:\Program Files\Microsoft Visual Studio\2022\Community\VC\Tools\MSVC\14.34.31933\include\xstddef

; 143  :         return _Left < _Right;

  0001d	8b 4d 0c	 mov	 ecx, DWORD PTR __Keyval$[ebp]
  00020	56		 push	 esi
  00021	8b 31		 mov	 esi, DWORD PTR [ecx]
$LL2@Find_lower:
; File C:\Program Files\Microsoft Visual Studio\2022\Community\VC\Tools\MSVC\14.34.31933\include\xtree

; 1614 :             _Result._Location._Parent = _Trynode;

  00023	89 02		 mov	 DWORD PTR [edx], eax
; File C:\Program Files\Microsoft Visual Studio\2022\Community\VC\Tools\MSVC\14.34.31933\include\xstddef

; 143  :         return _Left < _Right;

  00025	39 70 10	 cmp	 DWORD PTR [eax+16], esi
; File C:\Program Files\Microsoft Visual Studio\2022\Community\VC\Tools\MSVC\14.34.31933\include\xtree

; 1615 :             if (_DEBUG_LT_PRED(_Getcomp(), _Traits::_Kfn(_Trynode->_Myval), _Keyval)) {

  00028	73 07		 jae	 SHORT $LN4@Find_lower

; 1616 :                 _Result._Location._Child = _Tree_child::_Right;
; 1617 :                 _Trynode                 = _Trynode->_Right;

  0002a	8b 40 08	 mov	 eax, DWORD PTR [eax+8]
  0002d	33 c9		 xor	 ecx, ecx

; 1618 :             } else {

  0002f	eb 0a		 jmp	 SHORT $LN5@Find_lower
$LN4@Find_lower:

; 1619 :                 _Result._Location._Child = _Tree_child::_Left;
; 1620 :                 _Result._Bound           = _Trynode;

  00031	89 42 08	 mov	 DWORD PTR [edx+8], eax

; 1621 :                 _Trynode                 = _Trynode->_Left;

  00034	b9 01 00 00 00	 mov	 ecx, 1
  00039	8b 00		 mov	 eax, DWORD PTR [eax]
$LN5@Find_lower:

; 1612 :         _Nodeptr _Trynode = _Result._Location._Parent;
; 1613 :         while (!_Trynode->_Isnil) {

  0003b	89 4a 04	 mov	 DWORD PTR [edx+4], ecx
  0003e	80 78 0d 00	 cmp	 BYTE PTR [eax+13], 0
  00042	74 df		 je	 SHORT $LL2@Find_lower

; 1622 :             }
; 1623 :         }
; 1624 : 
; 1625 :         return _Result;

  00044	5e		 pop	 esi
$LN12@Find_lower:

; 1626 :     }

  00045	8b c2		 mov	 eax, edx
  00047	5d		 pop	 ebp
  00048	c2 08 00	 ret	 8
??$_Find_lower_bound@K@?$_Tree@V?$_Tmap_traits@KUSSkillDataPet@CPythonSkillPet@@U?$less@K@std@@V?$allocator@U?$pair@$$CBKUSSkillDataPet@CPythonSkillPet@@@std@@@4@$0A@@std@@@std@@IBE?AU?$_Tree_find_result@PAU?$_Tree_node@U?$pair@$$CBKUSSkillDataPet@CPythonSkillPet@@@std@@PAX@std@@@1@ABK@Z ENDP ; std::_Tree<std::_Tmap_traits<unsigned long,CPythonSkillPet::SSkillDataPet,std::less<unsigned long>,std::allocator<std::pair<unsigned long const ,CPythonSkillPet::SSkillDataPet> >,0> >::_Find_lower_bound<unsigned long>
_TEXT	ENDS
; Function compile flags: /Ogtp
; File C:\Program Files\Microsoft Visual Studio\2022\Community\VC\Tools\MSVC\14.34.31933\include\xtree
; File C:\Program Files\Microsoft Visual Studio\2022\Community\VC\Tools\MSVC\14.34.31933\include\xstddef
; File C:\Program Files\Microsoft Visual Studio\2022\Community\VC\Tools\MSVC\14.34.31933\include\xtree
;	COMDAT ??$_Lower_bound_duplicate@K@?$_Tree@V?$_Tmap_traits@KUSSkillDataPet@CPythonSkillPet@@U?$less@K@std@@V?$allocator@U?$pair@$$CBKUSSkillDataPet@CPythonSkillPet@@@std@@@4@$0A@@std@@@std@@IBE_NQAU?$_Tree_node@U?$pair@$$CBKUSSkillDataPet@CPythonSkillPet@@@std@@PAX@1@ABK@Z
_TEXT	SEGMENT
__Bound$ = 8						; size = 4
__Keyval$ = 12						; size = 4
??$_Lower_bound_duplicate@K@?$_Tree@V?$_Tmap_traits@KUSSkillDataPet@CPythonSkillPet@@U?$less@K@std@@V?$allocator@U?$pair@$$CBKUSSkillDataPet@CPythonSkillPet@@@std@@@4@$0A@@std@@@std@@IBE_NQAU?$_Tree_node@U?$pair@$$CBKUSSkillDataPet@CPythonSkillPet@@@std@@PAX@1@ABK@Z PROC ; std::_Tree<std::_Tmap_traits<unsigned long,CPythonSkillPet::SSkillDataPet,std::less<unsigned long>,std::allocator<std::pair<unsigned long const ,CPythonSkillPet::SSkillDataPet> >,0> >::_Lower_bound_duplicate<unsigned long>, COMDAT
; _this$dead$ = ecx

; 1604 :     bool _Lower_bound_duplicate(const _Nodeptr _Bound, const _Keyty& _Keyval) const {

  00000	55		 push	 ebp
  00001	8b ec		 mov	 ebp, esp

; 1605 :         return !_Bound->_Isnil && !_DEBUG_LT_PRED(_Getcomp(), _Keyval, _Traits::_Kfn(_Bound->_Myval));

  00003	8b 4d 08	 mov	 ecx, DWORD PTR __Bound$[ebp]
  00006	80 79 0d 00	 cmp	 BYTE PTR [ecx+13], 0
  0000a	75 10		 jne	 SHORT $LN3@Lower_boun
; File C:\Program Files\Microsoft Visual Studio\2022\Community\VC\Tools\MSVC\14.34.31933\include\xstddef

; 143  :         return _Left < _Right;

  0000c	8b 45 0c	 mov	 eax, DWORD PTR __Keyval$[ebp]
  0000f	8b 00		 mov	 eax, DWORD PTR [eax]
  00011	3b 41 10	 cmp	 eax, DWORD PTR [ecx+16]
; File C:\Program Files\Microsoft Visual Studio\2022\Community\VC\Tools\MSVC\14.34.31933\include\xtree

; 1605 :         return !_Bound->_Isnil && !_DEBUG_LT_PRED(_Getcomp(), _Keyval, _Traits::_Kfn(_Bound->_Myval));

  00014	72 06		 jb	 SHORT $LN3@Lower_boun
  00016	b0 01		 mov	 al, 1

; 1606 :     }

  00018	5d		 pop	 ebp
  00019	c2 08 00	 ret	 8
$LN3@Lower_boun:

; 1605 :         return !_Bound->_Isnil && !_DEBUG_LT_PRED(_Getcomp(), _Keyval, _Traits::_Kfn(_Bound->_Myval));

  0001c	32 c0		 xor	 al, al

; 1606 :     }

  0001e	5d		 pop	 ebp
  0001f	c2 08 00	 ret	 8
??$_Lower_bound_duplicate@K@?$_Tree@V?$_Tmap_traits@KUSSkillDataPet@CPythonSkillPet@@U?$less@K@std@@V?$allocator@U?$pair@$$CBKUSSkillDataPet@CPythonSkillPet@@@std@@@4@$0A@@std@@@std@@IBE_NQAU?$_Tree_node@U?$pair@$$CBKUSSkillDataPet@CPythonSkillPet@@@std@@PAX@1@ABK@Z ENDP ; std::_Tree<std::_Tmap_traits<unsigned long,CPythonSkillPet::SSkillDataPet,std::less<unsigned long>,std::allocator<std::pair<unsigned long const ,CPythonSkillPet::SSkillDataPet> >,0> >::_Lower_bound_duplicate<unsigned long>
_TEXT	ENDS
; Function compile flags: /Ogtp
; File C:\Program Files\Microsoft Visual Studio\2022\Community\VC\Tools\MSVC\14.34.31933\include\xtree
; File C:\Program Files\Microsoft Visual Studio\2022\Community\VC\Tools\MSVC\14.34.31933\include\xmemory
; File C:\Program Files\Microsoft Visual Studio\2022\Community\VC\Tools\MSVC\14.34.31933\include\xtree
; File C:\Program Files\Microsoft Visual Studio\2022\Community\VC\Tools\MSVC\14.34.31933\include\xmemory
; File C:\Program Files\Microsoft Visual Studio\2022\Community\VC\Tools\MSVC\14.34.31933\include\tuple
; File C:\Program Files\Microsoft Visual Studio\2022\Community\VC\Tools\MSVC\14.34.31933\include\utility
; File C:\Program Files\Microsoft Visual Studio\2022\Community\VC\Tools\MSVC\14.34.31933\include\xtree
; File C:\Program Files\Microsoft Visual Studio\2022\Community\VC\Tools\MSVC\14.34.31933\include\tuple
; File C:\Program Files\Microsoft Visual Studio\2022\Community\VC\Tools\MSVC\14.34.31933\include\xtree
;	COMDAT ??$?0ABUpiecewise_construct_t@std@@V?$tuple@ABK@1@V?$tuple@$$V@1@@?$_Tree_temp_node@V?$allocator@U?$_Tree_node@U?$pair@$$CBKUSSkillDataPet@CPythonSkillPet@@@std@@PAX@std@@@std@@@std@@QAE@AAV?$allocator@U?$_Tree_node@U?$pair@$$CBKUSSkillDataPet@CPythonSkillPet@@@std@@PAX@std@@@1@PAU?$_Tree_node@U?$pair@$$CBKUSSkillDataPet@CPythonSkillPet@@@std@@PAX@1@ABUpiecewise_construct_t@1@$$QAV?$tuple@ABK@1@$$QAV?$tuple@$$V@1@@Z
_TEXT	SEGMENT
_this$ = -16						; size = 4
__$EHRec$ = -12						; size = 12
__Al_$ = 8						; size = 4
__Myhead$ = 12						; size = 4
_<_Vals_0>$dead$ = 16					; size = 4
_<_Vals_1>$ = 20					; size = 4
_<_Vals_2>$dead$ = 24					; size = 4
??$?0ABUpiecewise_construct_t@std@@V?$tuple@ABK@1@V?$tuple@$$V@1@@?$_Tree_temp_node@V?$allocator@U?$_Tree_node@U?$pair@$$CBKUSSkillDataPet@CPythonSkillPet@@@std@@PAX@std@@@std@@@std@@QAE@AAV?$allocator@U?$_Tree_node@U?$pair@$$CBKUSSkillDataPet@CPythonSkillPet@@@std@@PAX@std@@@1@PAU?$_Tree_node@U?$pair@$$CBKUSSkillDataPet@CPythonSkillPet@@@std@@PAX@1@ABUpiecewise_construct_t@1@$$QAV?$tuple@ABK@1@$$QAV?$tuple@$$V@1@@Z PROC ; std::_Tree_temp_node<std::allocator<std::_Tree_node<std::pair<unsigned long const ,CPythonSkillPet::SSkillDataPet>,void *> > >::_Tree_temp_node<std::allocator<std::_Tree_node<std::pair<unsigned long const ,CPythonSkillPet::SSkillDataPet>,void *> > ><std::piecewise_construct_t const &,std::tuple<unsigned long const &>,std::tuple<> >, COMDAT
; _this$ = ecx

; 806  :         : _Tree_temp_node_alloc<_Alnode>(_Al_) {

  00000	55		 push	 ebp
  00001	8b ec		 mov	 ebp, esp
  00003	6a ff		 push	 -1
  00005	68 00 00 00 00	 push	 __ehhandler$??$?0ABUpiecewise_construct_t@std@@V?$tuple@ABK@1@V?$tuple@$$V@1@@?$_Tree_temp_node@V?$allocator@U?$_Tree_node@U?$pair@$$CBKUSSkillDataPet@CPythonSkillPet@@@std@@PAX@std@@@std@@@std@@QAE@AAV?$allocator@U?$_Tree_node@U?$pair@$$CBKUSSkillDataPet@CPythonSkillPet@@@std@@PAX@std@@@1@PAU?$_Tree_node@U?$pair@$$CBKUSSkillDataPet@CPythonSkillPet@@@std@@PAX@1@ABUpiecewise_construct_t@1@$$QAV?$tuple@ABK@1@$$QAV?$tuple@$$V@1@@Z
  0000a	64 a1 00 00 00
	00		 mov	 eax, DWORD PTR fs:0
  00010	50		 push	 eax
  00011	51		 push	 ecx
  00012	56		 push	 esi
  00013	a1 00 00 00 00	 mov	 eax, DWORD PTR ___security_cookie
  00018	33 c5		 xor	 eax, ebp
  0001a	50		 push	 eax
  0001b	8d 45 f4	 lea	 eax, DWORD PTR __$EHRec$[ebp]
  0001e	64 a3 00 00 00
	00		 mov	 DWORD PTR fs:0, eax
  00024	8b f1		 mov	 esi, ecx
  00026	89 75 f0	 mov	 DWORD PTR _this$[ebp], esi
; File C:\Program Files\Microsoft Visual Studio\2022\Community\VC\Tools\MSVC\14.34.31933\include\xmemory

; 1005 :     _CONSTEXPR20 explicit _Alloc_construct_ptr(_Alloc& _Al_) : _Al(_Al_), _Ptr(nullptr) {}

  00029	8b 45 08	 mov	 eax, DWORD PTR __Al_$[ebp]
  0002c	89 06		 mov	 DWORD PTR [esi], eax
  0002e	c7 46 04 00 00
	00 00		 mov	 DWORD PTR [esi+4], 0
; File C:\Program Files\Microsoft Visual Studio\2022\Community\VC\Tools\MSVC\14.34.31933\include\xtree

; 785  :     explicit _Tree_temp_node_alloc(_Alnode& _Al_) : _Alloc_construct_ptr<_Alnode>(_Al_) {

  00035	c7 45 fc 00 00
	00 00		 mov	 DWORD PTR __$EHRec$[ebp+8], 0
; File C:\Program Files\Microsoft Visual Studio\2022\Community\VC\Tools\MSVC\14.34.31933\include\xmemory

; 77   :         return ::operator new(_Bytes);

  0003c	6a 6c		 push	 108			; 0000006cH

; 1012 :         _Ptr = nullptr; // if allocate throws, prevents double-free

  0003e	c7 46 04 00 00
	00 00		 mov	 DWORD PTR [esi+4], 0

; 77   :         return ::operator new(_Bytes);

  00045	e8 00 00 00 00	 call	 ??2@YAPAXI@Z		; operator new
  0004a	83 c4 04	 add	 esp, 4

; 1013 :         _Ptr = _Al.allocate(1);

  0004d	89 46 04	 mov	 DWORD PTR [esi+4], eax
; File C:\Program Files\Microsoft Visual Studio\2022\Community\VC\Tools\MSVC\14.34.31933\include\tuple

; 288  :     tuple(tuple&&)      = default;

  00050	8b 55 14	 mov	 edx, DWORD PTR _<_Vals_1>$[ebp]
; File C:\Program Files\Microsoft Visual Studio\2022\Community\VC\Tools\MSVC\14.34.31933\include\utility

; 214  :         : first(_Tuple_get<_Indexes1>(_STD move(_Val1))...), second(_Tuple_get<_Indexes2>(_STD move(_Val2))...) {}

  00053	8d 48 14	 lea	 ecx, DWORD PTR [eax+20]
; File C:\Program Files\Microsoft Visual Studio\2022\Community\VC\Tools\MSVC\14.34.31933\include\xtree

; 806  :         : _Tree_temp_node_alloc<_Alnode>(_Al_) {

  00056	c7 45 fc 01 00
	00 00		 mov	 DWORD PTR __$EHRec$[ebp+8], 1
; File C:\Program Files\Microsoft Visual Studio\2022\Community\VC\Tools\MSVC\14.34.31933\include\tuple

; 288  :     tuple(tuple&&)      = default;

  0005d	8b 12		 mov	 edx, DWORD PTR [edx]
; File C:\Program Files\Microsoft Visual Studio\2022\Community\VC\Tools\MSVC\14.34.31933\include\xtree

; 808  :         _Construct_in_place(this->_Ptr->_Left, _Myhead);

  0005f	8b 12		 mov	 edx, DWORD PTR [edx]
  00061	89 50 10	 mov	 DWORD PTR [eax+16], edx
  00064	e8 00 00 00 00	 call	 ??0SSkillDataPet@CPythonSkillPet@@QAE@XZ ; CPythonSkillPet::SSkillDataPet::SSkillDataPet
  00069	8b 46 04	 mov	 eax, DWORD PTR [esi+4]
  0006c	8b 4d 0c	 mov	 ecx, DWORD PTR __Myhead$[ebp]
  0006f	89 08		 mov	 DWORD PTR [eax], ecx

; 809  :         _Construct_in_place(this->_Ptr->_Parent, _Myhead);

  00071	8b 46 04	 mov	 eax, DWORD PTR [esi+4]
  00074	89 48 04	 mov	 DWORD PTR [eax+4], ecx

; 810  :         _Construct_in_place(this->_Ptr->_Right, _Myhead);

  00077	8b 46 04	 mov	 eax, DWORD PTR [esi+4]
  0007a	89 48 08	 mov	 DWORD PTR [eax+8], ecx

; 811  :         this->_Ptr->_Color = _Red;

  0007d	8b 46 04	 mov	 eax, DWORD PTR [esi+4]
  00080	c6 40 0c 00	 mov	 BYTE PTR [eax+12], 0

; 812  :         this->_Ptr->_Isnil = false;

  00084	8b 46 04	 mov	 eax, DWORD PTR [esi+4]
  00087	c6 40 0d 00	 mov	 BYTE PTR [eax+13], 0

; 813  :     }

  0008b	8b c6		 mov	 eax, esi
  0008d	8b 4d f4	 mov	 ecx, DWORD PTR __$EHRec$[ebp]
  00090	64 89 0d 00 00
	00 00		 mov	 DWORD PTR fs:0, ecx
  00097	59		 pop	 ecx
  00098	5e		 pop	 esi
  00099	8b e5		 mov	 esp, ebp
  0009b	5d		 pop	 ebp
  0009c	c2 14 00	 ret	 20			; 00000014H
_TEXT	ENDS
;	COMDAT text$x
text$x	SEGMENT
__unwindfunclet$??$?0ABUpiecewise_construct_t@std@@V?$tuple@ABK@1@V?$tuple@$$V@1@@?$_Tree_temp_node@V?$allocator@U?$_Tree_node@U?$pair@$$CBKUSSkillDataPet@CPythonSkillPet@@@std@@PAX@std@@@std@@@std@@QAE@AAV?$allocator@U?$_Tree_node@U?$pair@$$CBKUSSkillDataPet@CPythonSkillPet@@@std@@PAX@std@@@1@PAU?$_Tree_node@U?$pair@$$CBKUSSkillDataPet@CPythonSkillPet@@@std@@PAX@1@ABUpiecewise_construct_t@1@$$QAV?$tuple@ABK@1@$$QAV?$tuple@$$V@1@@Z$1:
  00000	8b 4d f0	 mov	 ecx, DWORD PTR _this$[ebp]
  00003	e9 00 00 00 00	 jmp	 ??1?$_Alloc_construct_ptr@V?$allocator@U?$_Tree_node@U?$pair@$$CBKUSSkillDataPet@CPythonSkillPet@@@std@@PAX@std@@@std@@@std@@QAE@XZ ; std::_Alloc_construct_ptr<std::allocator<std::_Tree_node<std::pair<unsigned long const ,CPythonSkillPet::SSkillDataPet>,void *> > >::~_Alloc_construct_ptr<std::allocator<std::_Tree_node<std::pair<unsigned long const ,CPythonSkillPet::SSkillDataPet>,void *> > >
__unwindfunclet$??$?0ABUpiecewise_construct_t@std@@V?$tuple@ABK@1@V?$tuple@$$V@1@@?$_Tree_temp_node@V?$allocator@U?$_Tree_node@U?$pair@$$CBKUSSkillDataPet@CPythonSkillPet@@@std@@PAX@std@@@std@@@std@@QAE@AAV?$allocator@U?$_Tree_node@U?$pair@$$CBKUSSkillDataPet@CPythonSkillPet@@@std@@PAX@std@@@1@PAU?$_Tree_node@U?$pair@$$CBKUSSkillDataPet@CPythonSkillPet@@@std@@PAX@1@ABUpiecewise_construct_t@1@$$QAV?$tuple@ABK@1@$$QAV?$tuple@$$V@1@@Z$0:
  00008	8b 4d f0	 mov	 ecx, DWORD PTR _this$[ebp]
  0000b	e9 00 00 00 00	 jmp	 ??1?$_Tree_temp_node_alloc@V?$allocator@U?$_Tree_node@U?$pair@$$CBKUSSkillDataPet@CPythonSkillPet@@@std@@PAX@std@@@std@@@std@@QAE@XZ
  00010	cc		 int	 3
  00011	cc		 int	 3
  00012	cc		 int	 3
  00013	cc		 int	 3
  00014	cc		 int	 3
__ehhandler$??$?0ABUpiecewise_construct_t@std@@V?$tuple@ABK@1@V?$tuple@$$V@1@@?$_Tree_temp_node@V?$allocator@U?$_Tree_node@U?$pair@$$CBKUSSkillDataPet@CPythonSkillPet@@@std@@PAX@std@@@std@@@std@@QAE@AAV?$allocator@U?$_Tree_node@U?$pair@$$CBKUSSkillDataPet@CPythonSkillPet@@@std@@PAX@std@@@1@PAU?$_Tree_node@U?$pair@$$CBKUSSkillDataPet@CPythonSkillPet@@@std@@PAX@1@ABUpiecewise_construct_t@1@$$QAV?$tuple@ABK@1@$$QAV?$tuple@$$V@1@@Z:
  00015	90		 npad	 1
  00016	90		 npad	 1
  00017	8b 54 24 08	 mov	 edx, DWORD PTR [esp+8]
  0001b	8d 42 0c	 lea	 eax, DWORD PTR [edx+12]
  0001e	8b 4a f4	 mov	 ecx, DWORD PTR [edx-12]
  00021	33 c8		 xor	 ecx, eax
  00023	e8 00 00 00 00	 call	 @__security_check_cookie@4
  00028	b8 00 00 00 00	 mov	 eax, OFFSET __ehfuncinfo$??$?0ABUpiecewise_construct_t@std@@V?$tuple@ABK@1@V?$tuple@$$V@1@@?$_Tree_temp_node@V?$allocator@U?$_Tree_node@U?$pair@$$CBKUSSkillDataPet@CPythonSkillPet@@@std@@PAX@std@@@std@@@std@@QAE@AAV?$allocator@U?$_Tree_node@U?$pair@$$CBKUSSkillDataPet@CPythonSkillPet@@@std@@PAX@std@@@1@PAU?$_Tree_node@U?$pair@$$CBKUSSkillDataPet@CPythonSkillPet@@@std@@PAX@1@ABUpiecewise_construct_t@1@$$QAV?$tuple@ABK@1@$$QAV?$tuple@$$V@1@@Z
  0002d	e9 00 00 00 00	 jmp	 ___CxxFrameHandler3
text$x	ENDS
??$?0ABUpiecewise_construct_t@std@@V?$tuple@ABK@1@V?$tuple@$$V@1@@?$_Tree_temp_node@V?$allocator@U?$_Tree_node@U?$pair@$$CBKUSSkillDataPet@CPythonSkillPet@@@std@@PAX@std@@@std@@@std@@QAE@AAV?$allocator@U?$_Tree_node@U?$pair@$$CBKUSSkillDataPet@CPythonSkillPet@@@std@@PAX@std@@@1@PAU?$_Tree_node@U?$pair@$$CBKUSSkillDataPet@CPythonSkillPet@@@std@@PAX@1@ABUpiecewise_construct_t@1@$$QAV?$tuple@ABK@1@$$QAV?$tuple@$$V@1@@Z ENDP ; std::_Tree_temp_node<std::allocator<std::_Tree_node<std::pair<unsigned long const ,CPythonSkillPet::SSkillDataPet>,void *> > >::_Tree_temp_node<std::allocator<std::_Tree_node<std::pair<unsigned long const ,CPythonSkillPet::SSkillDataPet>,void *> > ><std::piecewise_construct_t const &,std::tuple<unsigned long const &>,std::tuple<> >
; Function compile flags: /Ogtp
; File C:\Program Files\Microsoft Visual Studio\2022\Community\VC\Tools\MSVC\14.34.31933\include\utility
;	COMDAT ??$?0ABQAU?$_Tree_node@U?$pair@$$CBKUSSkillDataPet@CPythonSkillPet@@@std@@PAX@std@@_N$0A@@?$pair@PAU?$_Tree_node@U?$pair@$$CBKUSSkillDataPet@CPythonSkillPet@@@std@@PAX@std@@_N@std@@QAE@ABQAU?$_Tree_node@U?$pair@$$CBKUSSkillDataPet@CPythonSkillPet@@@std@@PAX@1@$$QA_N@Z
_TEXT	SEGMENT
__Val1$ = 8						; size = 4
__Val2$ = 12						; size = 4
??$?0ABQAU?$_Tree_node@U?$pair@$$CBKUSSkillDataPet@CPythonSkillPet@@@std@@PAX@std@@_N$0A@@?$pair@PAU?$_Tree_node@U?$pair@$$CBKUSSkillDataPet@CPythonSkillPet@@@std@@PAX@std@@_N@std@@QAE@ABQAU?$_Tree_node@U?$pair@$$CBKUSSkillDataPet@CPythonSkillPet@@@std@@PAX@1@$$QA_N@Z PROC ; std::pair<std::_Tree_node<std::pair<unsigned long const ,CPythonSkillPet::SSkillDataPet>,void *> *,bool>::pair<std::_Tree_node<std::pair<unsigned long const ,CPythonSkillPet::SSkillDataPet>,void *> *,bool><std::_Tree_node<std::pair<unsigned long const ,CPythonSkillPet::SSkillDataPet>,void *> * const &,bool,0>, COMDAT
; _this$ = ecx

; 172  :         : first(_STD forward<_Other1>(_Val1)), second(_STD forward<_Other2>(_Val2)) {

  00000	55		 push	 ebp
  00001	8b ec		 mov	 ebp, esp
  00003	8b 45 08	 mov	 eax, DWORD PTR __Val1$[ebp]
  00006	8b 00		 mov	 eax, DWORD PTR [eax]
  00008	89 01		 mov	 DWORD PTR [ecx], eax
  0000a	8b 45 0c	 mov	 eax, DWORD PTR __Val2$[ebp]
  0000d	8a 00		 mov	 al, BYTE PTR [eax]
  0000f	88 41 04	 mov	 BYTE PTR [ecx+4], al

; 173  :     }

  00012	8b c1		 mov	 eax, ecx
  00014	5d		 pop	 ebp
  00015	c2 08 00	 ret	 8
??$?0ABQAU?$_Tree_node@U?$pair@$$CBKUSSkillDataPet@CPythonSkillPet@@@std@@PAX@std@@_N$0A@@?$pair@PAU?$_Tree_node@U?$pair@$$CBKUSSkillDataPet@CPythonSkillPet@@@std@@PAX@std@@_N@std@@QAE@ABQAU?$_Tree_node@U?$pair@$$CBKUSSkillDataPet@CPythonSkillPet@@@std@@PAX@1@$$QA_N@Z ENDP ; std::pair<std::_Tree_node<std::pair<unsigned long const ,CPythonSkillPet::SSkillDataPet>,void *> *,bool>::pair<std::_Tree_node<std::pair<unsigned long const ,CPythonSkillPet::SSkillDataPet>,void *> *,bool><std::_Tree_node<std::pair<unsigned long const ,CPythonSkillPet::SSkillDataPet>,void *> * const &,bool,0>
_TEXT	ENDS
; Function compile flags: /Ogtp
; File C:\Program Files\Microsoft Visual Studio\2022\Community\VC\Tools\MSVC\14.34.31933\include\utility
;	COMDAT ??$?0PAU?$_Tree_node@U?$pair@$$CBKUSSkillDataPet@CPythonSkillPet@@@std@@PAX@std@@_N$0A@@?$pair@PAU?$_Tree_node@U?$pair@$$CBKUSSkillDataPet@CPythonSkillPet@@@std@@PAX@std@@_N@std@@QAE@$$QAPAU?$_Tree_node@U?$pair@$$CBKUSSkillDataPet@CPythonSkillPet@@@std@@PAX@1@$$QA_N@Z
_TEXT	SEGMENT
__Val1$ = 8						; size = 4
__Val2$ = 12						; size = 4
??$?0PAU?$_Tree_node@U?$pair@$$CBKUSSkillDataPet@CPythonSkillPet@@@std@@PAX@std@@_N$0A@@?$pair@PAU?$_Tree_node@U?$pair@$$CBKUSSkillDataPet@CPythonSkillPet@@@std@@PAX@std@@_N@std@@QAE@$$QAPAU?$_Tree_node@U?$pair@$$CBKUSSkillDataPet@CPythonSkillPet@@@std@@PAX@1@$$QA_N@Z PROC ; std::pair<std::_Tree_node<std::pair<unsigned long const ,CPythonSkillPet::SSkillDataPet>,void *> *,bool>::pair<std::_Tree_node<std::pair<unsigned long const ,CPythonSkillPet::SSkillDataPet>,void *> *,bool><std::_Tree_node<std::pair<unsigned long const ,CPythonSkillPet::SSkillDataPet>,void *> *,bool,0>, COMDAT
; _this$ = ecx

; 172  :         : first(_STD forward<_Other1>(_Val1)), second(_STD forward<_Other2>(_Val2)) {

  00000	55		 push	 ebp
  00001	8b ec		 mov	 ebp, esp
  00003	8b 45 08	 mov	 eax, DWORD PTR __Val1$[ebp]
  00006	8b 00		 mov	 eax, DWORD PTR [eax]
  00008	89 01		 mov	 DWORD PTR [ecx], eax
  0000a	8b 45 0c	 mov	 eax, DWORD PTR __Val2$[ebp]
  0000d	8a 00		 mov	 al, BYTE PTR [eax]
  0000f	88 41 04	 mov	 BYTE PTR [ecx+4], al

; 173  :     }

  00012	8b c1		 mov	 eax, ecx
  00014	5d		 pop	 ebp
  00015	c2 08 00	 ret	 8
??$?0PAU?$_Tree_node@U?$pair@$$CBKUSSkillDataPet@CPythonSkillPet@@@std@@PAX@std@@_N$0A@@?$pair@PAU?$_Tree_node@U?$pair@$$CBKUSSkillDataPet@CPythonSkillPet@@@std@@PAX@std@@_N@std@@QAE@$$QAPAU?$_Tree_node@U?$pair@$$CBKUSSkillDataPet@CPythonSkillPet@@@std@@PAX@1@$$QA_N@Z ENDP ; std::pair<std::_Tree_node<std::pair<unsigned long const ,CPythonSkillPet::SSkillDataPet>,void *> *,bool>::pair<std::_Tree_node<std::pair<unsigned long const ,CPythonSkillPet::SSkillDataPet>,void *> *,bool><std::_Tree_node<std::pair<unsigned long const ,CPythonSkillPet::SSkillDataPet>,void *> *,bool,0>
_TEXT	ENDS
; Function compile flags: /Ogtp
; File C:\Program Files\Microsoft Visual Studio\2022\Community\VC\Tools\MSVC\14.34.31933\include\utility
;	COMDAT ??$exchange@PAU?$_Tree_node@U?$pair@$$CBKUSSkillDataPet@CPythonSkillPet@@@std@@PAX@std@@AAPAU12@@std@@YAPAU?$_Tree_node@U?$pair@$$CBKUSSkillDataPet@CPythonSkillPet@@@std@@PAX@0@AAPAU10@0@Z
_TEXT	SEGMENT
??$exchange@PAU?$_Tree_node@U?$pair@$$CBKUSSkillDataPet@CPythonSkillPet@@@std@@PAX@std@@AAPAU12@@std@@YAPAU?$_Tree_node@U?$pair@$$CBKUSSkillDataPet@CPythonSkillPet@@@std@@PAX@0@AAPAU10@0@Z PROC ; std::exchange<std::_Tree_node<std::pair<unsigned long const ,CPythonSkillPet::SSkillDataPet>,void *> *,std::_Tree_node<std::pair<unsigned long const ,CPythonSkillPet::SSkillDataPet>,void *> * &>, COMDAT
; __Val$ = ecx
; __New_val$ = edx

; 652  :     // assign _New_val to _Val, return previous _Val
; 653  :     _Ty _Old_val = static_cast<_Ty&&>(_Val);

  00000	8b 01		 mov	 eax, DWORD PTR [ecx]

; 654  :     _Val         = static_cast<_Other&&>(_New_val);

  00002	8b 12		 mov	 edx, DWORD PTR [edx]
  00004	89 11		 mov	 DWORD PTR [ecx], edx

; 655  :     return _Old_val;
; 656  : }

  00006	c3		 ret	 0
??$exchange@PAU?$_Tree_node@U?$pair@$$CBKUSSkillDataPet@CPythonSkillPet@@@std@@PAX@std@@AAPAU12@@std@@YAPAU?$_Tree_node@U?$pair@$$CBKUSSkillDataPet@CPythonSkillPet@@@std@@PAX@0@AAPAU10@0@Z ENDP ; std::exchange<std::_Tree_node<std::pair<unsigned long const ,CPythonSkillPet::SSkillDataPet>,void *> *,std::_Tree_node<std::pair<unsigned long const ,CPythonSkillPet::SSkillDataPet>,void *> * &>
_TEXT	ENDS
; Function compile flags: /Ogtp
; File C:\Program Files\Microsoft Visual Studio\2022\Community\VC\Tools\MSVC\14.34.31933\include\xtree
; File C:\Program Files\Microsoft Visual Studio\2022\Community\VC\Tools\MSVC\14.34.31933\include\xmemory
; File C:\Program Files\Microsoft Visual Studio\2022\Community\VC\Tools\MSVC\14.34.31933\include\xtree
;	COMDAT ??$_Freenode@V?$allocator@U?$_Tree_node@U?$pair@$$CBKUSSkillDataPet@CPythonSkillPet@@@std@@PAX@std@@@std@@@?$_Tree_node@U?$pair@$$CBKUSSkillDataPet@CPythonSkillPet@@@std@@PAX@std@@SAXAAV?$allocator@U?$_Tree_node@U?$pair@$$CBKUSSkillDataPet@CPythonSkillPet@@@std@@PAX@std@@@1@PAU01@@Z
_TEXT	SEGMENT
??$_Freenode@V?$allocator@U?$_Tree_node@U?$pair@$$CBKUSSkillDataPet@CPythonSkillPet@@@std@@PAX@std@@@std@@@?$_Tree_node@U?$pair@$$CBKUSSkillDataPet@CPythonSkillPet@@@std@@PAX@std@@SAXAAV?$allocator@U?$_Tree_node@U?$pair@$$CBKUSSkillDataPet@CPythonSkillPet@@@std@@PAX@std@@@1@PAU01@@Z PROC ; std::_Tree_node<std::pair<unsigned long const ,CPythonSkillPet::SSkillDataPet>,void *>::_Freenode<std::allocator<std::_Tree_node<std::pair<unsigned long const ,CPythonSkillPet::SSkillDataPet>,void *> > >, COMDAT
; __Al$dead$ = ecx
; __Ptr$ = edx

; 380  :     static void _Freenode(_Alloc& _Al, _Nodeptr _Ptr) noexcept {

  00000	56		 push	 esi
  00001	8b f2		 mov	 esi, edx

; 381  :         static_assert(is_same_v<typename _Alloc::value_type, _Tree_node>, "Bad _Freenode call");
; 382  :         allocator_traits<_Alloc>::destroy(_Al, _STD addressof(_Ptr->_Myval));

  00003	8d 4e 14	 lea	 ecx, DWORD PTR [esi+20]
  00006	e8 00 00 00 00	 call	 ??1SSkillDataPet@CPythonSkillPet@@QAE@XZ
; File C:\Program Files\Microsoft Visual Studio\2022\Community\VC\Tools\MSVC\14.34.31933\include\xmemory

; 255  :         ::operator delete(_Ptr, _Bytes);

  0000b	6a 6c		 push	 108			; 0000006cH
  0000d	56		 push	 esi
  0000e	e8 00 00 00 00	 call	 ??3@YAXPAXI@Z		; operator delete
  00013	83 c4 08	 add	 esp, 8
  00016	5e		 pop	 esi
; File C:\Program Files\Microsoft Visual Studio\2022\Community\VC\Tools\MSVC\14.34.31933\include\xtree

; 384  :     }

  00017	c3		 ret	 0
??$_Freenode@V?$allocator@U?$_Tree_node@U?$pair@$$CBKUSSkillDataPet@CPythonSkillPet@@@std@@PAX@std@@@std@@@?$_Tree_node@U?$pair@$$CBKUSSkillDataPet@CPythonSkillPet@@@std@@PAX@std@@SAXAAV?$allocator@U?$_Tree_node@U?$pair@$$CBKUSSkillDataPet@CPythonSkillPet@@@std@@PAX@std@@@1@PAU01@@Z ENDP ; std::_Tree_node<std::pair<unsigned long const ,CPythonSkillPet::SSkillDataPet>,void *>::_Freenode<std::allocator<std::_Tree_node<std::pair<unsigned long const ,CPythonSkillPet::SSkillDataPet>,void *> > >
_TEXT	ENDS
; Function compile flags: /Ogtp
; File C:\Program Files\Microsoft Visual Studio\2022\Community\VC\Tools\MSVC\14.34.31933\include\xtree
; File C:\Program Files\Microsoft Visual Studio\2022\Community\VC\Tools\MSVC\14.34.31933\include\xmemory
; File C:\Program Files\Microsoft Visual Studio\2022\Community\VC\Tools\MSVC\14.34.31933\include\xtree
;	COMDAT ??$_Freenode0@V?$allocator@U?$_Tree_node@U?$pair@$$CBKUSSkillDataPet@CPythonSkillPet@@@std@@PAX@std@@@std@@@?$_Tree_node@U?$pair@$$CBKUSSkillDataPet@CPythonSkillPet@@@std@@PAX@std@@SAXAAV?$allocator@U?$_Tree_node@U?$pair@$$CBKUSSkillDataPet@CPythonSkillPet@@@std@@PAX@std@@@1@PAU01@@Z
_TEXT	SEGMENT
??$_Freenode0@V?$allocator@U?$_Tree_node@U?$pair@$$CBKUSSkillDataPet@CPythonSkillPet@@@std@@PAX@std@@@std@@@?$_Tree_node@U?$pair@$$CBKUSSkillDataPet@CPythonSkillPet@@@std@@PAX@std@@SAXAAV?$allocator@U?$_Tree_node@U?$pair@$$CBKUSSkillDataPet@CPythonSkillPet@@@std@@PAX@std@@@1@PAU01@@Z PROC ; std::_Tree_node<std::pair<unsigned long const ,CPythonSkillPet::SSkillDataPet>,void *>::_Freenode0<std::allocator<std::_Tree_node<std::pair<unsigned long const ,CPythonSkillPet::SSkillDataPet>,void *> > >, COMDAT
; __Al$dead$ = ecx
; __Ptr$ = edx
; File C:\Program Files\Microsoft Visual Studio\2022\Community\VC\Tools\MSVC\14.34.31933\include\xmemory

; 255  :         ::operator delete(_Ptr, _Bytes);

  00000	6a 6c		 push	 108			; 0000006cH
  00002	52		 push	 edx
  00003	e8 00 00 00 00	 call	 ??3@YAXPAXI@Z		; operator delete
  00008	83 c4 08	 add	 esp, 8
; File C:\Program Files\Microsoft Visual Studio\2022\Community\VC\Tools\MSVC\14.34.31933\include\xtree

; 377  :     }

  0000b	c3		 ret	 0
??$_Freenode0@V?$allocator@U?$_Tree_node@U?$pair@$$CBKUSSkillDataPet@CPythonSkillPet@@@std@@PAX@std@@@std@@@?$_Tree_node@U?$pair@$$CBKUSSkillDataPet@CPythonSkillPet@@@std@@PAX@std@@SAXAAV?$allocator@U?$_Tree_node@U?$pair@$$CBKUSSkillDataPet@CPythonSkillPet@@@std@@PAX@std@@@1@PAU01@@Z ENDP ; std::_Tree_node<std::pair<unsigned long const ,CPythonSkillPet::SSkillDataPet>,void *>::_Freenode0<std::allocator<std::_Tree_node<std::pair<unsigned long const ,CPythonSkillPet::SSkillDataPet>,void *> > >
_TEXT	ENDS
; Function compile flags: /Ogtp
; File C:\Program Files\Microsoft Visual Studio\2022\Community\VC\Tools\MSVC\14.34.31933\include\xutility
;	COMDAT ??$_Construct_in_place@PAU?$_Tree_node@U?$pair@$$CBKUSSkillDataPet@CPythonSkillPet@@@std@@PAX@std@@ABQAU12@@std@@YAXAAPAU?$_Tree_node@U?$pair@$$CBKUSSkillDataPet@CPythonSkillPet@@@std@@PAX@0@ABQAU10@@Z
_TEXT	SEGMENT
??$_Construct_in_place@PAU?$_Tree_node@U?$pair@$$CBKUSSkillDataPet@CPythonSkillPet@@@std@@PAX@std@@ABQAU12@@std@@YAXAAPAU?$_Tree_node@U?$pair@$$CBKUSSkillDataPet@CPythonSkillPet@@@std@@PAX@0@ABQAU10@@Z PROC ; std::_Construct_in_place<std::_Tree_node<std::pair<unsigned long const ,CPythonSkillPet::SSkillDataPet>,void *> *,std::_Tree_node<std::pair<unsigned long const ,CPythonSkillPet::SSkillDataPet>,void *> * const &>, COMDAT
; __Obj$ = ecx
; _<_Args_0>$ = edx

; 225  : #if _HAS_CXX20
; 226  :     if (_STD is_constant_evaluated()) {
; 227  :         _STD construct_at(_STD addressof(_Obj), _STD forward<_Types>(_Args)...);
; 228  :     } else
; 229  : #endif // _HAS_CXX20
; 230  :     {
; 231  :         ::new (_Voidify_iter(_STD addressof(_Obj))) _Ty(_STD forward<_Types>(_Args)...);
; 232  :     }
; 233  : }

  00000	8b 02		 mov	 eax, DWORD PTR [edx]
  00002	89 01		 mov	 DWORD PTR [ecx], eax
  00004	c3		 ret	 0
??$_Construct_in_place@PAU?$_Tree_node@U?$pair@$$CBKUSSkillDataPet@CPythonSkillPet@@@std@@PAX@std@@ABQAU12@@std@@YAXAAPAU?$_Tree_node@U?$pair@$$CBKUSSkillDataPet@CPythonSkillPet@@@std@@PAX@0@ABQAU10@@Z ENDP ; std::_Construct_in_place<std::_Tree_node<std::pair<unsigned long const ,CPythonSkillPet::SSkillDataPet>,void *> *,std::_Tree_node<std::pair<unsigned long const ,CPythonSkillPet::SSkillDataPet>,void *> * const &>
_TEXT	ENDS
; Function compile flags: /Ogtp
; File C:\Program Files\Microsoft Visual Studio\2022\Community\VC\Tools\MSVC\14.34.31933\include\xmemory
;	COMDAT ??$_Destroy_in_place@PAU?$_Tree_node@U?$pair@$$CBKUSSkillDataPet@CPythonSkillPet@@@std@@PAX@std@@@std@@YAXAAPAU?$_Tree_node@U?$pair@$$CBKUSSkillDataPet@CPythonSkillPet@@@std@@PAX@0@@Z
_TEXT	SEGMENT
??$_Destroy_in_place@PAU?$_Tree_node@U?$pair@$$CBKUSSkillDataPet@CPythonSkillPet@@@std@@PAX@std@@@std@@YAXAAPAU?$_Tree_node@U?$pair@$$CBKUSSkillDataPet@CPythonSkillPet@@@std@@PAX@0@@Z PROC ; std::_Destroy_in_place<std::_Tree_node<std::pair<unsigned long const ,CPythonSkillPet::SSkillDataPet>,void *> *>, COMDAT
; __Obj$dead$ = ecx

; 295  :     if constexpr (is_array_v<_Ty>) {
; 296  :         _Destroy_range(_Obj, _Obj + extent_v<_Ty>);
; 297  :     } else {
; 298  :         _Obj.~_Ty();
; 299  :     }
; 300  : }

  00000	c2 00 00	 ret	 0
??$_Destroy_in_place@PAU?$_Tree_node@U?$pair@$$CBKUSSkillDataPet@CPythonSkillPet@@@std@@PAX@std@@@std@@YAXAAPAU?$_Tree_node@U?$pair@$$CBKUSSkillDataPet@CPythonSkillPet@@@std@@PAX@0@@Z ENDP ; std::_Destroy_in_place<std::_Tree_node<std::pair<unsigned long const ,CPythonSkillPet::SSkillDataPet>,void *> *>
_TEXT	ENDS
; Function compile flags: /Ogtp
; File C:\Program Files\Microsoft Visual Studio\2022\Community\VC\Tools\MSVC\14.34.31933\include\xmemory
;	COMDAT ??$destroy@U?$pair@$$CBKUSSkillDataPet@CPythonSkillPet@@@std@@@?$_Default_allocator_traits@V?$allocator@U?$_Tree_node@U?$pair@$$CBKUSSkillDataPet@CPythonSkillPet@@@std@@PAX@std@@@std@@@std@@SAXAAV?$allocator@U?$_Tree_node@U?$pair@$$CBKUSSkillDataPet@CPythonSkillPet@@@std@@PAX@std@@@1@QAU?$pair@$$CBKUSSkillDataPet@CPythonSkillPet@@@1@@Z
_TEXT	SEGMENT
??$destroy@U?$pair@$$CBKUSSkillDataPet@CPythonSkillPet@@@std@@@?$_Default_allocator_traits@V?$allocator@U?$_Tree_node@U?$pair@$$CBKUSSkillDataPet@CPythonSkillPet@@@std@@PAX@std@@@std@@@std@@SAXAAV?$allocator@U?$_Tree_node@U?$pair@$$CBKUSSkillDataPet@CPythonSkillPet@@@std@@PAX@std@@@1@QAU?$pair@$$CBKUSSkillDataPet@CPythonSkillPet@@@1@@Z PROC ; std::_Default_allocator_traits<std::allocator<std::_Tree_node<std::pair<unsigned long const ,CPythonSkillPet::SSkillDataPet>,void *> > >::destroy<std::pair<unsigned long const ,CPythonSkillPet::SSkillDataPet> >, COMDAT
; ___formal$dead$ = ecx
; __Ptr$ = edx

; 685  :     static _CONSTEXPR20 void destroy(_Alloc&, _Uty* const _Ptr) {

  00000	8d 4a 04	 lea	 ecx, DWORD PTR [edx+4]
  00003	e9 00 00 00 00	 jmp	 ??1SSkillDataPet@CPythonSkillPet@@QAE@XZ
??$destroy@U?$pair@$$CBKUSSkillDataPet@CPythonSkillPet@@@std@@@?$_Default_allocator_traits@V?$allocator@U?$_Tree_node@U?$pair@$$CBKUSSkillDataPet@CPythonSkillPet@@@std@@PAX@std@@@std@@@std@@SAXAAV?$allocator@U?$_Tree_node@U?$pair@$$CBKUSSkillDataPet@CPythonSkillPet@@@std@@PAX@std@@@1@QAU?$pair@$$CBKUSSkillDataPet@CPythonSkillPet@@@1@@Z ENDP ; std::_Default_allocator_traits<std::allocator<std::_Tree_node<std::pair<unsigned long const ,CPythonSkillPet::SSkillDataPet>,void *> > >::destroy<std::pair<unsigned long const ,CPythonSkillPet::SSkillDataPet> >
_TEXT	ENDS
; Function compile flags: /Ogtp
; File C:\Program Files\Microsoft Visual Studio\2022\Community\VC\Tools\MSVC\14.34.31933\include\utility
;	COMDAT ??$exchange@PAU?$_Tree_node@U?$pair@$$CBKUSSkillDataPet@CPythonSkillPet@@@std@@PAX@std@@$$T@std@@YAPAU?$_Tree_node@U?$pair@$$CBKUSSkillDataPet@CPythonSkillPet@@@std@@PAX@0@AAPAU10@$$QA$$T@Z
_TEXT	SEGMENT
??$exchange@PAU?$_Tree_node@U?$pair@$$CBKUSSkillDataPet@CPythonSkillPet@@@std@@PAX@std@@$$T@std@@YAPAU?$_Tree_node@U?$pair@$$CBKUSSkillDataPet@CPythonSkillPet@@@std@@PAX@0@AAPAU10@$$QA$$T@Z PROC ; std::exchange<std::_Tree_node<std::pair<unsigned long const ,CPythonSkillPet::SSkillDataPet>,void *> *,std::nullptr_t>, COMDAT
; __Val$ = ecx
; __New_val$ = edx

; 652  :     // assign _New_val to _Val, return previous _Val
; 653  :     _Ty _Old_val = static_cast<_Ty&&>(_Val);

  00000	8b 01		 mov	 eax, DWORD PTR [ecx]

; 654  :     _Val         = static_cast<_Other&&>(_New_val);

  00002	8b 12		 mov	 edx, DWORD PTR [edx]
  00004	89 11		 mov	 DWORD PTR [ecx], edx

; 655  :     return _Old_val;
; 656  : }

  00006	c3		 ret	 0
??$exchange@PAU?$_Tree_node@U?$pair@$$CBKUSSkillDataPet@CPythonSkillPet@@@std@@PAX@std@@$$T@std@@YAPAU?$_Tree_node@U?$pair@$$CBKUSSkillDataPet@CPythonSkillPet@@@std@@PAX@0@AAPAU10@$$QA$$T@Z ENDP ; std::exchange<std::_Tree_node<std::pair<unsigned long const ,CPythonSkillPet::SSkillDataPet>,void *> *,std::nullptr_t>
_TEXT	ENDS
; Function compile flags: /Ogtp
; File C:\Program Files\Microsoft Visual Studio\2022\Community\VC\Tools\MSVC\14.34.31933\include\xstddef
;	COMDAT ??$addressof@$$CBV?$_Tree_val@U?$_Tree_simple_types@U?$pair@$$CBKUSSkillDataPet@CPythonSkillPet@@@std@@@std@@@std@@@std@@YAPBV?$_Tree_val@U?$_Tree_simple_types@U?$pair@$$CBKUSSkillDataPet@CPythonSkillPet@@@std@@@std@@@0@ABV10@@Z
_TEXT	SEGMENT
??$addressof@$$CBV?$_Tree_val@U?$_Tree_simple_types@U?$pair@$$CBKUSSkillDataPet@CPythonSkillPet@@@std@@@std@@@std@@@std@@YAPBV?$_Tree_val@U?$_Tree_simple_types@U?$pair@$$CBKUSSkillDataPet@CPythonSkillPet@@@std@@@std@@@0@ABV10@@Z PROC ; std::addressof<std::_Tree_val<std::_Tree_simple_types<std::pair<unsigned long const ,CPythonSkillPet::SSkillDataPet> > > const >, COMDAT
; __Val$ = ecx

; 281  :     return __builtin_addressof(_Val);

  00000	8b c1		 mov	 eax, ecx

; 282  : }

  00002	c3		 ret	 0
??$addressof@$$CBV?$_Tree_val@U?$_Tree_simple_types@U?$pair@$$CBKUSSkillDataPet@CPythonSkillPet@@@std@@@std@@@std@@@std@@YAPBV?$_Tree_val@U?$_Tree_simple_types@U?$pair@$$CBKUSSkillDataPet@CPythonSkillPet@@@std@@@std@@@0@ABV10@@Z ENDP ; std::addressof<std::_Tree_val<std::_Tree_simple_types<std::pair<unsigned long const ,CPythonSkillPet::SSkillDataPet> > > const >
_TEXT	ENDS
; Function compile flags: /Ogtp
; File C:\Program Files\Microsoft Visual Studio\2022\Community\VC\Tools\MSVC\14.34.31933\include\xmemory
;	COMDAT ??$_Get_size_of_n@$0GM@@std@@YAII@Z
_TEXT	SEGMENT
??$_Get_size_of_n@$0GM@@std@@YAII@Z PROC		; std::_Get_size_of_n<108>, COMDAT
; __Count$dead$ = ecx

; 56   :     constexpr bool _Overflow_is_possible = _Ty_size > 1;
; 57   : 
; 58   :     if constexpr (_Overflow_is_possible) {
; 59   :         constexpr size_t _Max_possible = static_cast<size_t>(-1) / _Ty_size;
; 60   :         if (_Count > _Max_possible) {
; 61   :             _Throw_bad_array_new_length(); // multiply overflow
; 62   :         }
; 63   :     }
; 64   : 
; 65   :     return _Count * _Ty_size;

  00000	b8 6c 00 00 00	 mov	 eax, 108		; 0000006cH

; 66   : }

  00005	c3		 ret	 0
??$_Get_size_of_n@$0GM@@std@@YAII@Z ENDP		; std::_Get_size_of_n<108>
_TEXT	ENDS
; Function compile flags: /Ogtp
; File C:\Program Files\Microsoft Visual Studio\2022\Community\VC\Tools\MSVC\14.34.31933\include\xtree
; File C:\Program Files\Microsoft Visual Studio\2022\Community\VC\Tools\MSVC\14.34.31933\include\xmemory
; File C:\Program Files\Microsoft Visual Studio\2022\Community\VC\Tools\MSVC\14.34.31933\include\xtree
; File C:\Program Files\Microsoft Visual Studio\2022\Community\VC\Tools\MSVC\14.34.31933\include\xmemory
; File C:\Program Files\Microsoft Visual Studio\2022\Community\VC\Tools\MSVC\14.34.31933\include\xtree
;	COMDAT ??0?$_Tree_temp_node_alloc@V?$allocator@U?$_Tree_node@U?$pair@$$CBKUSSkillDataPet@CPythonSkillPet@@@std@@PAX@std@@@std@@@std@@QAE@AAV?$allocator@U?$_Tree_node@U?$pair@$$CBKUSSkillDataPet@CPythonSkillPet@@@std@@PAX@std@@@1@@Z
_TEXT	SEGMENT
_this$ = -16						; size = 4
__$EHRec$ = -12						; size = 12
__Al_$ = 8						; size = 4
??0?$_Tree_temp_node_alloc@V?$allocator@U?$_Tree_node@U?$pair@$$CBKUSSkillDataPet@CPythonSkillPet@@@std@@PAX@std@@@std@@@std@@QAE@AAV?$allocator@U?$_Tree_node@U?$pair@$$CBKUSSkillDataPet@CPythonSkillPet@@@std@@PAX@std@@@1@@Z PROC ; std::_Tree_temp_node_alloc<std::allocator<std::_Tree_node<std::pair<unsigned long const ,CPythonSkillPet::SSkillDataPet>,void *> > >::_Tree_temp_node_alloc<std::allocator<std::_Tree_node<std::pair<unsigned long const ,CPythonSkillPet::SSkillDataPet>,void *> > >, COMDAT
; _this$ = ecx

; 785  :     explicit _Tree_temp_node_alloc(_Alnode& _Al_) : _Alloc_construct_ptr<_Alnode>(_Al_) {

  00000	55		 push	 ebp
  00001	8b ec		 mov	 ebp, esp
  00003	6a ff		 push	 -1
  00005	68 00 00 00 00	 push	 __ehhandler$??0?$_Tree_temp_node_alloc@V?$allocator@U?$_Tree_node@U?$pair@$$CBKUSSkillDataPet@CPythonSkillPet@@@std@@PAX@std@@@std@@@std@@QAE@AAV?$allocator@U?$_Tree_node@U?$pair@$$CBKUSSkillDataPet@CPythonSkillPet@@@std@@PAX@std@@@1@@Z
  0000a	64 a1 00 00 00
	00		 mov	 eax, DWORD PTR fs:0
  00010	50		 push	 eax
  00011	51		 push	 ecx
  00012	56		 push	 esi
  00013	a1 00 00 00 00	 mov	 eax, DWORD PTR ___security_cookie
  00018	33 c5		 xor	 eax, ebp
  0001a	50		 push	 eax
  0001b	8d 45 f4	 lea	 eax, DWORD PTR __$EHRec$[ebp]
  0001e	64 a3 00 00 00
	00		 mov	 DWORD PTR fs:0, eax
  00024	8b f1		 mov	 esi, ecx
  00026	89 75 f0	 mov	 DWORD PTR _this$[ebp], esi
; File C:\Program Files\Microsoft Visual Studio\2022\Community\VC\Tools\MSVC\14.34.31933\include\xmemory

; 1005 :     _CONSTEXPR20 explicit _Alloc_construct_ptr(_Alloc& _Al_) : _Al(_Al_), _Ptr(nullptr) {}

  00029	8b 45 08	 mov	 eax, DWORD PTR __Al_$[ebp]
  0002c	89 06		 mov	 DWORD PTR [esi], eax
  0002e	c7 46 04 00 00
	00 00		 mov	 DWORD PTR [esi+4], 0
; File C:\Program Files\Microsoft Visual Studio\2022\Community\VC\Tools\MSVC\14.34.31933\include\xtree

; 785  :     explicit _Tree_temp_node_alloc(_Alnode& _Al_) : _Alloc_construct_ptr<_Alnode>(_Al_) {

  00035	c7 45 fc 00 00
	00 00		 mov	 DWORD PTR __$EHRec$[ebp+8], 0
; File C:\Program Files\Microsoft Visual Studio\2022\Community\VC\Tools\MSVC\14.34.31933\include\xmemory

; 77   :         return ::operator new(_Bytes);

  0003c	6a 6c		 push	 108			; 0000006cH

; 1012 :         _Ptr = nullptr; // if allocate throws, prevents double-free

  0003e	c7 46 04 00 00
	00 00		 mov	 DWORD PTR [esi+4], 0

; 77   :         return ::operator new(_Bytes);

  00045	e8 00 00 00 00	 call	 ??2@YAPAXI@Z		; operator new

; 1013 :         _Ptr = _Al.allocate(1);

  0004a	89 46 04	 mov	 DWORD PTR [esi+4], eax

; 77   :         return ::operator new(_Bytes);

  0004d	83 c4 04	 add	 esp, 4
; File C:\Program Files\Microsoft Visual Studio\2022\Community\VC\Tools\MSVC\14.34.31933\include\xtree

; 787  :     }

  00050	8b c6		 mov	 eax, esi
  00052	8b 4d f4	 mov	 ecx, DWORD PTR __$EHRec$[ebp]
  00055	64 89 0d 00 00
	00 00		 mov	 DWORD PTR fs:0, ecx
  0005c	59		 pop	 ecx
  0005d	5e		 pop	 esi
  0005e	8b e5		 mov	 esp, ebp
  00060	5d		 pop	 ebp
  00061	c2 04 00	 ret	 4
_TEXT	ENDS
;	COMDAT text$x
text$x	SEGMENT
__unwindfunclet$??0?$_Tree_temp_node_alloc@V?$allocator@U?$_Tree_node@U?$pair@$$CBKUSSkillDataPet@CPythonSkillPet@@@std@@PAX@std@@@std@@@std@@QAE@AAV?$allocator@U?$_Tree_node@U?$pair@$$CBKUSSkillDataPet@CPythonSkillPet@@@std@@PAX@std@@@1@@Z$0:
  00000	8b 4d f0	 mov	 ecx, DWORD PTR _this$[ebp]
  00003	e9 00 00 00 00	 jmp	 ??1?$_Alloc_construct_ptr@V?$allocator@U?$_Tree_node@U?$pair@$$CBKUSSkillDataPet@CPythonSkillPet@@@std@@PAX@std@@@std@@@std@@QAE@XZ ; std::_Alloc_construct_ptr<std::allocator<std::_Tree_node<std::pair<unsigned long const ,CPythonSkillPet::SSkillDataPet>,void *> > >::~_Alloc_construct_ptr<std::allocator<std::_Tree_node<std::pair<unsigned long const ,CPythonSkillPet::SSkillDataPet>,void *> > >
  00008	cc		 int	 3
  00009	cc		 int	 3
  0000a	cc		 int	 3
  0000b	cc		 int	 3
  0000c	cc		 int	 3
__ehhandler$??0?$_Tree_temp_node_alloc@V?$allocator@U?$_Tree_node@U?$pair@$$CBKUSSkillDataPet@CPythonSkillPet@@@std@@PAX@std@@@std@@@std@@QAE@AAV?$allocator@U?$_Tree_node@U?$pair@$$CBKUSSkillDataPet@CPythonSkillPet@@@std@@PAX@std@@@1@@Z:
  0000d	90		 npad	 1
  0000e	90		 npad	 1
  0000f	8b 54 24 08	 mov	 edx, DWORD PTR [esp+8]
  00013	8d 42 0c	 lea	 eax, DWORD PTR [edx+12]
  00016	8b 4a f4	 mov	 ecx, DWORD PTR [edx-12]
  00019	33 c8		 xor	 ecx, eax
  0001b	e8 00 00 00 00	 call	 @__security_check_cookie@4
  00020	b8 00 00 00 00	 mov	 eax, OFFSET __ehfuncinfo$??0?$_Tree_temp_node_alloc@V?$allocator@U?$_Tree_node@U?$pair@$$CBKUSSkillDataPet@CPythonSkillPet@@@std@@PAX@std@@@std@@@std@@QAE@AAV?$allocator@U?$_Tree_node@U?$pair@$$CBKUSSkillDataPet@CPythonSkillPet@@@std@@PAX@std@@@1@@Z
  00025	e9 00 00 00 00	 jmp	 ___CxxFrameHandler3
text$x	ENDS
??0?$_Tree_temp_node_alloc@V?$allocator@U?$_Tree_node@U?$pair@$$CBKUSSkillDataPet@CPythonSkillPet@@@std@@PAX@std@@@std@@@std@@QAE@AAV?$allocator@U?$_Tree_node@U?$pair@$$CBKUSSkillDataPet@CPythonSkillPet@@@std@@PAX@std@@@1@@Z ENDP ; std::_Tree_temp_node_alloc<std::allocator<std::_Tree_node<std::pair<unsigned long const ,CPythonSkillPet::SSkillDataPet>,void *> > >::_Tree_temp_node_alloc<std::allocator<std::_Tree_node<std::pair<unsigned long const ,CPythonSkillPet::SSkillDataPet>,void *> > >
; Function compile flags: /Ogtp
; File C:\Program Files\Microsoft Visual Studio\2022\Community\VC\Tools\MSVC\14.34.31933\include\xtree
;	COMDAT ??0?$_Tree_val@U?$_Tree_simple_types@U?$pair@$$CBKUSSkillDataPet@CPythonSkillPet@@@std@@@std@@@std@@QAE@XZ
_TEXT	SEGMENT
??0?$_Tree_val@U?$_Tree_simple_types@U?$pair@$$CBKUSSkillDataPet@CPythonSkillPet@@@std@@@std@@@std@@QAE@XZ PROC ; std::_Tree_val<std::_Tree_simple_types<std::pair<unsigned long const ,CPythonSkillPet::SSkillDataPet> > >::_Tree_val<std::_Tree_simple_types<std::pair<unsigned long const ,CPythonSkillPet::SSkillDataPet> > >, COMDAT
; _this$ = ecx

; 437  :     _Tree_val() noexcept : _Myhead(), _Mysize(0) {}

  00000	c7 01 00 00 00
	00		 mov	 DWORD PTR [ecx], 0
  00006	8b c1		 mov	 eax, ecx
  00008	c7 41 04 00 00
	00 00		 mov	 DWORD PTR [ecx+4], 0
  0000f	c3		 ret	 0
??0?$_Tree_val@U?$_Tree_simple_types@U?$pair@$$CBKUSSkillDataPet@CPythonSkillPet@@@std@@@std@@@std@@QAE@XZ ENDP ; std::_Tree_val<std::_Tree_simple_types<std::pair<unsigned long const ,CPythonSkillPet::SSkillDataPet> > >::_Tree_val<std::_Tree_simple_types<std::pair<unsigned long const ,CPythonSkillPet::SSkillDataPet> > >
_TEXT	ENDS
; Function compile flags: /Ogtp
; File C:\Program Files\Microsoft Visual Studio\2022\Community\VC\Tools\MSVC\14.34.31933\include\xtree
;	COMDAT ?_Getcomp@?$_Tree@V?$_Tmap_traits@KUSSkillDataPet@CPythonSkillPet@@U?$less@K@std@@V?$allocator@U?$pair@$$CBKUSSkillDataPet@CPythonSkillPet@@@std@@@4@$0A@@std@@@std@@IBEABU?$less@K@2@XZ
_TEXT	SEGMENT
?_Getcomp@?$_Tree@V?$_Tmap_traits@KUSSkillDataPet@CPythonSkillPet@@U?$less@K@std@@V?$allocator@U?$pair@$$CBKUSSkillDataPet@CPythonSkillPet@@@std@@@4@$0A@@std@@@std@@IBEABU?$less@K@2@XZ PROC ; std::_Tree<std::_Tmap_traits<unsigned long,CPythonSkillPet::SSkillDataPet,std::less<unsigned long>,std::allocator<std::pair<unsigned long const ,CPythonSkillPet::SSkillDataPet> >,0> >::_Getcomp, COMDAT
; _this$ = ecx

; 1955 :         return _Mypair._Get_first();

  00000	8b c1		 mov	 eax, ecx

; 1956 :     }

  00002	c3		 ret	 0
?_Getcomp@?$_Tree@V?$_Tmap_traits@KUSSkillDataPet@CPythonSkillPet@@U?$less@K@std@@V?$allocator@U?$pair@$$CBKUSSkillDataPet@CPythonSkillPet@@@std@@@4@$0A@@std@@@std@@IBEABU?$less@K@2@XZ ENDP ; std::_Tree<std::_Tmap_traits<unsigned long,CPythonSkillPet::SSkillDataPet,std::less<unsigned long>,std::allocator<std::pair<unsigned long const ,CPythonSkillPet::SSkillDataPet> >,0> >::_Getcomp
_TEXT	ENDS
; Function compile flags: /Ogtp
; File C:\Program Files\Microsoft Visual Studio\2022\Community\VC\Tools\MSVC\14.34.31933\include\xmemory
;	COMDAT ?deallocate@?$_Default_allocator_traits@V?$allocator@U?$_Tree_node@U?$pair@$$CBKUSSkillDataPet@CPythonSkillPet@@@std@@PAX@std@@@std@@@std@@SAXAAV?$allocator@U?$_Tree_node@U?$pair@$$CBKUSSkillDataPet@CPythonSkillPet@@@std@@PAX@std@@@2@QAU?$_Tree_node@U?$pair@$$CBKUSSkillDataPet@CPythonSkillPet@@@std@@PAX@2@I@Z
_TEXT	SEGMENT
__Count$dead$ = 8					; size = 4
?deallocate@?$_Default_allocator_traits@V?$allocator@U?$_Tree_node@U?$pair@$$CBKUSSkillDataPet@CPythonSkillPet@@@std@@PAX@std@@@std@@@std@@SAXAAV?$allocator@U?$_Tree_node@U?$pair@$$CBKUSSkillDataPet@CPythonSkillPet@@@std@@PAX@std@@@2@QAU?$_Tree_node@U?$pair@$$CBKUSSkillDataPet@CPythonSkillPet@@@std@@PAX@2@I@Z PROC ; std::_Default_allocator_traits<std::allocator<std::_Tree_node<std::pair<unsigned long const ,CPythonSkillPet::SSkillDataPet>,void *> > >::deallocate, COMDAT
; __Al$dead$ = ecx
; __Ptr$ = edx

; 255  :         ::operator delete(_Ptr, _Bytes);

  00000	6a 6c		 push	 108			; 0000006cH
  00002	52		 push	 edx
  00003	e8 00 00 00 00	 call	 ??3@YAXPAXI@Z		; operator delete
  00008	83 c4 08	 add	 esp, 8

; 660  :         // no overflow check on the following multiply; we assume _Allocate did that check
; 661  : #if _HAS_CXX20 // TRANSITION, GH-1532
; 662  :         if (_STD is_constant_evaluated()) {
; 663  :             _Al.deallocate(_Ptr, _Count);
; 664  :         } else
; 665  : #endif // _HAS_CXX20
; 666  :         {
; 667  :             (void) _Al;
; 668  :             _Deallocate<_New_alignof<value_type>>(_Ptr, sizeof(value_type) * _Count);
; 669  :         }
; 670  :     }

  0000b	c3		 ret	 0
?deallocate@?$_Default_allocator_traits@V?$allocator@U?$_Tree_node@U?$pair@$$CBKUSSkillDataPet@CPythonSkillPet@@@std@@PAX@std@@@std@@@std@@SAXAAV?$allocator@U?$_Tree_node@U?$pair@$$CBKUSSkillDataPet@CPythonSkillPet@@@std@@PAX@std@@@2@QAU?$_Tree_node@U?$pair@$$CBKUSSkillDataPet@CPythonSkillPet@@@std@@PAX@2@I@Z ENDP ; std::_Default_allocator_traits<std::allocator<std::_Tree_node<std::pair<unsigned long const ,CPythonSkillPet::SSkillDataPet>,void *> > >::deallocate
_TEXT	ENDS
; Function compile flags: /Ogtp
; File C:\Program Files\Microsoft Visual Studio\2022\Community\VC\Tools\MSVC\14.34.31933\include\xmemory
;	COMDAT ??0?$allocator@U?$_Tree_node@U?$pair@$$CBKUSSkillDataPet@CPythonSkillPet@@@std@@PAX@std@@@std@@QAE@XZ
_TEXT	SEGMENT
??0?$allocator@U?$_Tree_node@U?$pair@$$CBKUSSkillDataPet@CPythonSkillPet@@@std@@PAX@std@@@std@@QAE@XZ PROC ; std::allocator<std::_Tree_node<std::pair<unsigned long const ,CPythonSkillPet::SSkillDataPet>,void *> >::allocator<std::_Tree_node<std::pair<unsigned long const ,CPythonSkillPet::SSkillDataPet>,void *> >, COMDAT
; _this$ = ecx

; 819  :     constexpr allocator() noexcept {}

  00000	8b c1		 mov	 eax, ecx
  00002	c3		 ret	 0
??0?$allocator@U?$_Tree_node@U?$pair@$$CBKUSSkillDataPet@CPythonSkillPet@@@std@@PAX@std@@@std@@QAE@XZ ENDP ; std::allocator<std::_Tree_node<std::pair<unsigned long const ,CPythonSkillPet::SSkillDataPet>,void *> >::allocator<std::_Tree_node<std::pair<unsigned long const ,CPythonSkillPet::SSkillDataPet>,void *> >
_TEXT	ENDS
; Function compile flags: /Ogtp
; File C:\Program Files\Microsoft Visual Studio\2022\Community\VC\Tools\MSVC\14.34.31933\include\xmemory
;	COMDAT ?_Allocate@?$_Alloc_construct_ptr@V?$allocator@U?$_Tree_node@U?$pair@$$CBKUSSkillDataPet@CPythonSkillPet@@@std@@PAX@std@@@std@@@std@@QAEXXZ
_TEXT	SEGMENT
?_Allocate@?$_Alloc_construct_ptr@V?$allocator@U?$_Tree_node@U?$pair@$$CBKUSSkillDataPet@CPythonSkillPet@@@std@@PAX@std@@@std@@@std@@QAEXXZ PROC ; std::_Alloc_construct_ptr<std::allocator<std::_Tree_node<std::pair<unsigned long const ,CPythonSkillPet::SSkillDataPet>,void *> > >::_Allocate, COMDAT
; _this$ = ecx

; 1011 :     _CONSTEXPR20 void _Allocate() { // disengage *this, then allocate a new memory block

  00000	56		 push	 esi
  00001	8b f1		 mov	 esi, ecx

; 77   :         return ::operator new(_Bytes);

  00003	6a 6c		 push	 108			; 0000006cH

; 1012 :         _Ptr = nullptr; // if allocate throws, prevents double-free

  00005	c7 46 04 00 00
	00 00		 mov	 DWORD PTR [esi+4], 0

; 77   :         return ::operator new(_Bytes);

  0000c	e8 00 00 00 00	 call	 ??2@YAPAXI@Z		; operator new
  00011	83 c4 04	 add	 esp, 4

; 1013 :         _Ptr = _Al.allocate(1);

  00014	89 46 04	 mov	 DWORD PTR [esi+4], eax
  00017	5e		 pop	 esi

; 1014 :     }

  00018	c3		 ret	 0
?_Allocate@?$_Alloc_construct_ptr@V?$allocator@U?$_Tree_node@U?$pair@$$CBKUSSkillDataPet@CPythonSkillPet@@@std@@PAX@std@@@std@@@std@@QAEXXZ ENDP ; std::_Alloc_construct_ptr<std::allocator<std::_Tree_node<std::pair<unsigned long const ,CPythonSkillPet::SSkillDataPet>,void *> > >::_Allocate
_TEXT	ENDS
; Function compile flags: /Ogtp
; File C:\Program Files\Microsoft Visual Studio\2022\Community\VC\Tools\MSVC\14.34.31933\include\xmemory
;	COMDAT ??0?$_Alloc_construct_ptr@V?$allocator@U?$_Tree_node@U?$pair@$$CBKUSSkillDataPet@CPythonSkillPet@@@std@@PAX@std@@@std@@@std@@QAE@AAV?$allocator@U?$_Tree_node@U?$pair@$$CBKUSSkillDataPet@CPythonSkillPet@@@std@@PAX@std@@@1@@Z
_TEXT	SEGMENT
__Al_$ = 8						; size = 4
??0?$_Alloc_construct_ptr@V?$allocator@U?$_Tree_node@U?$pair@$$CBKUSSkillDataPet@CPythonSkillPet@@@std@@PAX@std@@@std@@@std@@QAE@AAV?$allocator@U?$_Tree_node@U?$pair@$$CBKUSSkillDataPet@CPythonSkillPet@@@std@@PAX@std@@@1@@Z PROC ; std::_Alloc_construct_ptr<std::allocator<std::_Tree_node<std::pair<unsigned long const ,CPythonSkillPet::SSkillDataPet>,void *> > >::_Alloc_construct_ptr<std::allocator<std::_Tree_node<std::pair<unsigned long const ,CPythonSkillPet::SSkillDataPet>,void *> > >, COMDAT
; _this$ = ecx

; 1005 :     _CONSTEXPR20 explicit _Alloc_construct_ptr(_Alloc& _Al_) : _Al(_Al_), _Ptr(nullptr) {}

  00000	55		 push	 ebp
  00001	8b ec		 mov	 ebp, esp
  00003	8b 45 08	 mov	 eax, DWORD PTR __Al_$[ebp]
  00006	89 01		 mov	 DWORD PTR [ecx], eax
  00008	8b c1		 mov	 eax, ecx
  0000a	c7 41 04 00 00
	00 00		 mov	 DWORD PTR [ecx+4], 0
  00011	5d		 pop	 ebp
  00012	c2 04 00	 ret	 4
??0?$_Alloc_construct_ptr@V?$allocator@U?$_Tree_node@U?$pair@$$CBKUSSkillDataPet@CPythonSkillPet@@@std@@PAX@std@@@std@@@std@@QAE@AAV?$allocator@U?$_Tree_node@U?$pair@$$CBKUSSkillDataPet@CPythonSkillPet@@@std@@PAX@std@@@1@@Z ENDP ; std::_Alloc_construct_ptr<std::allocator<std::_Tree_node<std::pair<unsigned long const ,CPythonSkillPet::SSkillDataPet>,void *> > >::_Alloc_construct_ptr<std::allocator<std::_Tree_node<std::pair<unsigned long const ,CPythonSkillPet::SSkillDataPet>,void *> > >
_TEXT	ENDS
; Function compile flags: /Ogtp
; File C:\Program Files\Microsoft Visual Studio\2022\Community\VC\Tools\MSVC\14.34.31933\include\xmemory
;	COMDAT ?_Get_first@?$_Compressed_pair@U?$less@K@std@@V?$_Compressed_pair@V?$allocator@U?$_Tree_node@U?$pair@$$CBKUSSkillDataPet@CPythonSkillPet@@@std@@PAX@std@@@std@@V?$_Tree_val@U?$_Tree_simple_types@U?$pair@$$CBKUSSkillDataPet@CPythonSkillPet@@@std@@@std@@@2@$00@2@$00@std@@QBEABU?$less@K@2@XZ
_TEXT	SEGMENT
?_Get_first@?$_Compressed_pair@U?$less@K@std@@V?$_Compressed_pair@V?$allocator@U?$_Tree_node@U?$pair@$$CBKUSSkillDataPet@CPythonSkillPet@@@std@@PAX@std@@@std@@V?$_Tree_val@U?$_Tree_simple_types@U?$pair@$$CBKUSSkillDataPet@CPythonSkillPet@@@std@@@std@@@2@$00@2@$00@std@@QBEABU?$less@K@2@XZ PROC ; std::_Compressed_pair<std::less<unsigned long>,std::_Compressed_pair<std::allocator<std::_Tree_node<std::pair<unsigned long const ,CPythonSkillPet::SSkillDataPet>,void *> >,std::_Tree_val<std::_Tree_simple_types<std::pair<unsigned long const ,CPythonSkillPet::SSkillDataPet> > >,1>,1>::_Get_first, COMDAT
; _this$ = ecx

; 1388 :         return *this;

  00000	8b c1		 mov	 eax, ecx

; 1389 :     }

  00002	c3		 ret	 0
?_Get_first@?$_Compressed_pair@U?$less@K@std@@V?$_Compressed_pair@V?$allocator@U?$_Tree_node@U?$pair@$$CBKUSSkillDataPet@CPythonSkillPet@@@std@@PAX@std@@@std@@V?$_Tree_val@U?$_Tree_simple_types@U?$pair@$$CBKUSSkillDataPet@CPythonSkillPet@@@std@@@std@@@2@$00@2@$00@std@@QBEABU?$less@K@2@XZ ENDP ; std::_Compressed_pair<std::less<unsigned long>,std::_Compressed_pair<std::allocator<std::_Tree_node<std::pair<unsigned long const ,CPythonSkillPet::SSkillDataPet>,void *> >,std::_Tree_val<std::_Tree_simple_types<std::pair<unsigned long const ,CPythonSkillPet::SSkillDataPet> > >,1>,1>::_Get_first
_TEXT	ENDS
; Function compile flags: /Ogtp
; File C:\Program Files\Microsoft Visual Studio\2022\Community\VC\Tools\MSVC\14.34.31933\include\xtree
; File C:\Program Files\Microsoft Visual Studio\2022\Community\VC\Tools\MSVC\14.34.31933\include\utility
; File C:\Program Files\Microsoft Visual Studio\2022\Community\VC\Tools\MSVC\14.34.31933\include\xtree
; File C:\Program Files\Microsoft Visual Studio\2022\Community\VC\Tools\MSVC\14.34.31933\include\xmemory
; File C:\Program Files\Microsoft Visual Studio\2022\Community\VC\Tools\MSVC\14.34.31933\include\xtree
; File C:\Program Files\Microsoft Visual Studio\2022\Community\VC\Tools\MSVC\14.34.31933\include\xmemory
; File C:\Program Files\Microsoft Visual Studio\2022\Community\VC\Tools\MSVC\14.34.31933\include\xtree
; File C:\Program Files\Microsoft Visual Studio\2022\Community\VC\Tools\MSVC\14.34.31933\include\utility
; File C:\Program Files\Microsoft Visual Studio\2022\Community\VC\Tools\MSVC\14.34.31933\include\xtree
; File C:\Program Files\Microsoft Visual Studio\2022\Community\VC\Tools\MSVC\14.34.31933\include\utility
; File C:\Program Files\Microsoft Visual Studio\2022\Community\VC\Tools\MSVC\14.34.31933\include\xtree
;	COMDAT ??$_Emplace@U?$pair@KUSSkillDataPet@CPythonSkillPet@@@std@@@?$_Tree@V?$_Tmap_traits@KUSSkillDataPet@CPythonSkillPet@@U?$less@K@std@@V?$allocator@U?$pair@$$CBKUSSkillDataPet@CPythonSkillPet@@@std@@@4@$0A@@std@@@std@@IAE?AU?$pair@PAU?$_Tree_node@U?$pair@$$CBKUSSkillDataPet@CPythonSkillPet@@@std@@PAX@std@@_N@1@$$QAU?$pair@KUSSkillDataPet@CPythonSkillPet@@@1@@Z
_TEXT	SEGMENT
__Loc$ = -40						; size = 12
$T2 = -28						; size = 12
$T3 = -24						; size = 8
_this$1$ = -16						; size = 4
__$EHRec$ = -12						; size = 12
___$ReturnUdt$ = 8					; size = 4
_<_Vals_0>$ = 12					; size = 4
??$_Emplace@U?$pair@KUSSkillDataPet@CPythonSkillPet@@@std@@@?$_Tree@V?$_Tmap_traits@KUSSkillDataPet@CPythonSkillPet@@U?$less@K@std@@V?$allocator@U?$pair@$$CBKUSSkillDataPet@CPythonSkillPet@@@std@@@4@$0A@@std@@@std@@IAE?AU?$pair@PAU?$_Tree_node@U?$pair@$$CBKUSSkillDataPet@CPythonSkillPet@@@std@@PAX@std@@_N@1@$$QAU?$pair@KUSSkillDataPet@CPythonSkillPet@@@1@@Z PROC ; std::_Tree<std::_Tmap_traits<unsigned long,CPythonSkillPet::SSkillDataPet,std::less<unsigned long>,std::allocator<std::pair<unsigned long const ,CPythonSkillPet::SSkillDataPet> >,0> >::_Emplace<std::pair<unsigned long,CPythonSkillPet::SSkillDataPet> >, COMDAT
; _this$ = ecx

; 994  :     pair<_Nodeptr, bool> _Emplace(_Valtys&&... _Vals) {

  00000	55		 push	 ebp
  00001	8b ec		 mov	 ebp, esp
  00003	6a ff		 push	 -1
  00005	68 00 00 00 00	 push	 __ehhandler$??$_Emplace@U?$pair@KUSSkillDataPet@CPythonSkillPet@@@std@@@?$_Tree@V?$_Tmap_traits@KUSSkillDataPet@CPythonSkillPet@@U?$less@K@std@@V?$allocator@U?$pair@$$CBKUSSkillDataPet@CPythonSkillPet@@@std@@@4@$0A@@std@@@std@@IAE?AU?$pair@PAU?$_Tree_node@U?$pair@$$CBKUSSkillDataPet@CPythonSkillPet@@@std@@PAX@std@@_N@1@$$QAU?$pair@KUSSkillDataPet@CPythonSkillPet@@@1@@Z
  0000a	64 a1 00 00 00
	00		 mov	 eax, DWORD PTR fs:0
  00010	50		 push	 eax
  00011	83 ec 1c	 sub	 esp, 28			; 0000001cH
  00014	53		 push	 ebx
  00015	56		 push	 esi
  00016	57		 push	 edi
  00017	a1 00 00 00 00	 mov	 eax, DWORD PTR ___security_cookie
  0001c	33 c5		 xor	 eax, ebp
  0001e	50		 push	 eax
  0001f	8d 45 f4	 lea	 eax, DWORD PTR __$EHRec$[ebp]
  00022	64 a3 00 00 00
	00		 mov	 DWORD PTR fs:0, eax
  00028	8b f1		 mov	 esi, ecx
  0002a	89 75 f0	 mov	 DWORD PTR _this$1$[ebp], esi

; 995  :         using _In_place_key_extractor = typename _Traits::template _In_place_key_extractor<_Remove_cvref_t<_Valtys>...>;
; 996  :         const auto _Scary             = _Get_scary();
; 997  :         _Tree_find_result<_Nodeptr> _Loc;
; 998  :         _Nodeptr _Inserted;
; 999  :         if constexpr (!_Multi && _In_place_key_extractor::_Extractable) {
; 1000 :             const auto& _Keyval = _In_place_key_extractor::_Extract(_Vals...);
; 1001 :             _Loc                = _Find_lower_bound(_Keyval);

  0002d	8b 7d 0c	 mov	 edi, DWORD PTR _<_Vals_0>$[ebp]
  00030	8d 45 e4	 lea	 eax, DWORD PTR $T2[ebp]
  00033	57		 push	 edi
  00034	50		 push	 eax
  00035	e8 00 00 00 00	 call	 ??$_Find_lower_bound@K@?$_Tree@V?$_Tmap_traits@KUSSkillDataPet@CPythonSkillPet@@U?$less@K@std@@V?$allocator@U?$pair@$$CBKUSSkillDataPet@CPythonSkillPet@@@std@@@4@$0A@@std@@@std@@IBE?AU?$_Tree_find_result@PAU?$_Tree_node@U?$pair@$$CBKUSSkillDataPet@CPythonSkillPet@@@std@@PAX@std@@@1@ABK@Z ; std::_Tree<std::_Tmap_traits<unsigned long,CPythonSkillPet::SSkillDataPet,std::less<unsigned long>,std::allocator<std::pair<unsigned long const ,CPythonSkillPet::SSkillDataPet> >,0> >::_Find_lower_bound<unsigned long>
  0003a	8b 48 08	 mov	 ecx, DWORD PTR [eax+8]
  0003d	f3 0f 7e 00	 movq	 xmm0, QWORD PTR [eax]
  00041	66 0f d6 45 d8	 movq	 QWORD PTR __Loc$[ebp], xmm0

; 1605 :         return !_Bound->_Isnil && !_DEBUG_LT_PRED(_Getcomp(), _Keyval, _Traits::_Kfn(_Bound->_Myval));

  00046	80 79 0d 00	 cmp	 BYTE PTR [ecx+13], 0
  0004a	75 24		 jne	 SHORT $LN2@Emplace
  0004c	8b 07		 mov	 eax, DWORD PTR [edi]
  0004e	3b 41 10	 cmp	 eax, DWORD PTR [ecx+16]
  00051	72 1d		 jb	 SHORT $LN2@Emplace
; File C:\Program Files\Microsoft Visual Studio\2022\Community\VC\Tools\MSVC\14.34.31933\include\utility

; 172  :         : first(_STD forward<_Other1>(_Val1)), second(_STD forward<_Other2>(_Val2)) {

  00053	8b 45 08	 mov	 eax, DWORD PTR ___$ReturnUdt$[ebp]
  00056	89 08		 mov	 DWORD PTR [eax], ecx
  00058	c6 40 04 00	 mov	 BYTE PTR [eax+4], 0
; File C:\Program Files\Microsoft Visual Studio\2022\Community\VC\Tools\MSVC\14.34.31933\include\xtree

; 1027 :     }

  0005c	8b 4d f4	 mov	 ecx, DWORD PTR __$EHRec$[ebp]
  0005f	64 89 0d 00 00
	00 00		 mov	 DWORD PTR fs:0, ecx
  00066	59		 pop	 ecx
  00067	5f		 pop	 edi
  00068	5e		 pop	 esi
  00069	5b		 pop	 ebx
  0006a	8b e5		 mov	 esp, ebp
  0006c	5d		 pop	 ebp
  0006d	c2 08 00	 ret	 8
$LN2@Emplace:

; 1629 :         if (max_size() == _Get_scary()->_Mysize) {

  00070	81 7e 04 97 d0
	5e 02		 cmp	 DWORD PTR [esi+4], 39768215 ; 025ed097H
  00077	74 6f		 je	 SHORT $LN102@Emplace

; 1002 :             if (_Lower_bound_duplicate(_Loc._Bound, _Keyval)) {
; 1003 :                 return {_Loc._Bound, false};
; 1004 :             }
; 1005 : 
; 1006 :             _Check_grow_by_1();
; 1007 :             _Inserted = _Tree_temp_node<_Alnode>(_Getal(), _Scary->_Myhead, _STD forward<_Valtys>(_Vals)...)._Release();

  00079	8b 1e		 mov	 ebx, DWORD PTR [esi]
; File C:\Program Files\Microsoft Visual Studio\2022\Community\VC\Tools\MSVC\14.34.31933\include\xmemory

; 1005 :     _CONSTEXPR20 explicit _Alloc_construct_ptr(_Alloc& _Al_) : _Al(_Al_), _Ptr(nullptr) {}

  0007b	89 75 e8	 mov	 DWORD PTR $T3[ebp], esi
; File C:\Program Files\Microsoft Visual Studio\2022\Community\VC\Tools\MSVC\14.34.31933\include\xtree

; 785  :     explicit _Tree_temp_node_alloc(_Alnode& _Al_) : _Alloc_construct_ptr<_Alnode>(_Al_) {

  0007e	c7 45 fc 00 00
	00 00		 mov	 DWORD PTR __$EHRec$[ebp+8], 0
; File C:\Program Files\Microsoft Visual Studio\2022\Community\VC\Tools\MSVC\14.34.31933\include\xmemory

; 77   :         return ::operator new(_Bytes);

  00085	6a 6c		 push	 108			; 0000006cH

; 1012 :         _Ptr = nullptr; // if allocate throws, prevents double-free

  00087	c7 45 ec 00 00
	00 00		 mov	 DWORD PTR $T3[ebp+4], 0

; 77   :         return ::operator new(_Bytes);

  0008e	e8 00 00 00 00	 call	 ??2@YAPAXI@Z		; operator new

; 1013 :         _Ptr = _Al.allocate(1);

  00093	8b f8		 mov	 edi, eax

; 77   :         return ::operator new(_Bytes);

  00095	83 c4 04	 add	 esp, 4
; File C:\Program Files\Microsoft Visual Studio\2022\Community\VC\Tools\MSVC\14.34.31933\include\xtree

; 808  :         _Construct_in_place(this->_Ptr->_Left, _Myhead);

  00098	8b 45 0c	 mov	 eax, DWORD PTR _<_Vals_0>$[ebp]
  0009b	8d 4f 14	 lea	 ecx, DWORD PTR [edi+20]
  0009e	8b 10		 mov	 edx, DWORD PTR [eax]
  000a0	8d 70 04	 lea	 esi, DWORD PTR [eax+4]
  000a3	56		 push	 esi
  000a4	89 57 10	 mov	 DWORD PTR [edi+16], edx
  000a7	e8 00 00 00 00	 call	 ??0SSkillDataPet@CPythonSkillPet@@QAE@$$QAU01@@Z

; 1026 :         return {_Scary->_Insert_node(_Loc._Location, _Inserted), true};

  000ac	8b 4d f0	 mov	 ecx, DWORD PTR _this$1$[ebp]
  000af	57		 push	 edi
  000b0	ff 75 dc	 push	 DWORD PTR __Loc$[ebp+4]

; 808  :         _Construct_in_place(this->_Ptr->_Left, _Myhead);

  000b3	89 1f		 mov	 DWORD PTR [edi], ebx

; 1026 :         return {_Scary->_Insert_node(_Loc._Location, _Inserted), true};

  000b5	ff 75 d8	 push	 DWORD PTR __Loc$[ebp]

; 809  :         _Construct_in_place(this->_Ptr->_Parent, _Myhead);

  000b8	89 5f 04	 mov	 DWORD PTR [edi+4], ebx

; 810  :         _Construct_in_place(this->_Ptr->_Right, _Myhead);

  000bb	89 5f 08	 mov	 DWORD PTR [edi+8], ebx

; 811  :         this->_Ptr->_Color = _Red;

  000be	66 c7 47 0c 00
	00		 mov	 WORD PTR [edi+12], 0

; 1026 :         return {_Scary->_Insert_node(_Loc._Location, _Inserted), true};

  000c4	e8 00 00 00 00	 call	 ?_Insert_node@?$_Tree_val@U?$_Tree_simple_types@U?$pair@$$CBKUSSkillDataPet@CPythonSkillPet@@@std@@@std@@@std@@QAEPAU?$_Tree_node@U?$pair@$$CBKUSSkillDataPet@CPythonSkillPet@@@std@@PAX@2@U?$_Tree_id@PAU?$_Tree_node@U?$pair@$$CBKUSSkillDataPet@CPythonSkillPet@@@std@@PAX@std@@@2@QAU32@@Z ; std::_Tree_val<std::_Tree_simple_types<std::pair<unsigned long const ,CPythonSkillPet::SSkillDataPet> > >::_Insert_node
; File C:\Program Files\Microsoft Visual Studio\2022\Community\VC\Tools\MSVC\14.34.31933\include\utility

; 172  :         : first(_STD forward<_Other1>(_Val1)), second(_STD forward<_Other2>(_Val2)) {

  000c9	8b 4d 08	 mov	 ecx, DWORD PTR ___$ReturnUdt$[ebp]
  000cc	89 01		 mov	 DWORD PTR [ecx], eax
; File C:\Program Files\Microsoft Visual Studio\2022\Community\VC\Tools\MSVC\14.34.31933\include\xtree

; 1026 :         return {_Scary->_Insert_node(_Loc._Location, _Inserted), true};

  000ce	8b c1		 mov	 eax, ecx
; File C:\Program Files\Microsoft Visual Studio\2022\Community\VC\Tools\MSVC\14.34.31933\include\utility

; 172  :         : first(_STD forward<_Other1>(_Val1)), second(_STD forward<_Other2>(_Val2)) {

  000d0	c6 41 04 01	 mov	 BYTE PTR [ecx+4], 1
; File C:\Program Files\Microsoft Visual Studio\2022\Community\VC\Tools\MSVC\14.34.31933\include\xtree

; 1027 :     }

  000d4	8b 4d f4	 mov	 ecx, DWORD PTR __$EHRec$[ebp]
  000d7	64 89 0d 00 00
	00 00		 mov	 DWORD PTR fs:0, ecx
  000de	59		 pop	 ecx
  000df	5f		 pop	 edi
  000e0	5e		 pop	 esi
  000e1	5b		 pop	 ebx
  000e2	8b e5		 mov	 esp, ebp
  000e4	5d		 pop	 ebp
  000e5	c2 08 00	 ret	 8
$LN102@Emplace:

; 1630 :             _Throw_tree_length_error();

  000e8	e8 00 00 00 00	 call	 ?_Throw_tree_length_error@std@@YAXXZ ; std::_Throw_tree_length_error
$LN100@Emplace:
  000ed	cc		 int	 3
_TEXT	ENDS
;	COMDAT text$x
text$x	SEGMENT
__unwindfunclet$??$_Emplace@U?$pair@KUSSkillDataPet@CPythonSkillPet@@@std@@@?$_Tree@V?$_Tmap_traits@KUSSkillDataPet@CPythonSkillPet@@U?$less@K@std@@V?$allocator@U?$pair@$$CBKUSSkillDataPet@CPythonSkillPet@@@std@@@4@$0A@@std@@@std@@IAE?AU?$pair@PAU?$_Tree_node@U?$pair@$$CBKUSSkillDataPet@CPythonSkillPet@@@std@@PAX@std@@_N@1@$$QAU?$pair@KUSSkillDataPet@CPythonSkillPet@@@1@@Z$2:
  00000	8d 4d e8	 lea	 ecx, DWORD PTR $T3[ebp]
  00003	e9 00 00 00 00	 jmp	 ??1?$_Alloc_construct_ptr@V?$allocator@U?$_Tree_node@U?$pair@$$CBKUSSkillDataPet@CPythonSkillPet@@@std@@PAX@std@@@std@@@std@@QAE@XZ ; std::_Alloc_construct_ptr<std::allocator<std::_Tree_node<std::pair<unsigned long const ,CPythonSkillPet::SSkillDataPet>,void *> > >::~_Alloc_construct_ptr<std::allocator<std::_Tree_node<std::pair<unsigned long const ,CPythonSkillPet::SSkillDataPet>,void *> > >
  00008	cc		 int	 3
  00009	cc		 int	 3
  0000a	cc		 int	 3
  0000b	cc		 int	 3
  0000c	cc		 int	 3
__ehhandler$??$_Emplace@U?$pair@KUSSkillDataPet@CPythonSkillPet@@@std@@@?$_Tree@V?$_Tmap_traits@KUSSkillDataPet@CPythonSkillPet@@U?$less@K@std@@V?$allocator@U?$pair@$$CBKUSSkillDataPet@CPythonSkillPet@@@std@@@4@$0A@@std@@@std@@IAE?AU?$pair@PAU?$_Tree_node@U?$pair@$$CBKUSSkillDataPet@CPythonSkillPet@@@std@@PAX@std@@_N@1@$$QAU?$pair@KUSSkillDataPet@CPythonSkillPet@@@1@@Z:
  0000d	90		 npad	 1
  0000e	90		 npad	 1
  0000f	8b 54 24 08	 mov	 edx, DWORD PTR [esp+8]
  00013	8d 42 0c	 lea	 eax, DWORD PTR [edx+12]
  00016	8b 4a d4	 mov	 ecx, DWORD PTR [edx-44]
  00019	33 c8		 xor	 ecx, eax
  0001b	e8 00 00 00 00	 call	 @__security_check_cookie@4
  00020	b8 00 00 00 00	 mov	 eax, OFFSET __ehfuncinfo$??$_Emplace@U?$pair@KUSSkillDataPet@CPythonSkillPet@@@std@@@?$_Tree@V?$_Tmap_traits@KUSSkillDataPet@CPythonSkillPet@@U?$less@K@std@@V?$allocator@U?$pair@$$CBKUSSkillDataPet@CPythonSkillPet@@@std@@@4@$0A@@std@@@std@@IAE?AU?$pair@PAU?$_Tree_node@U?$pair@$$CBKUSSkillDataPet@CPythonSkillPet@@@std@@PAX@std@@_N@1@$$QAU?$pair@KUSSkillDataPet@CPythonSkillPet@@@1@@Z
  00025	e9 00 00 00 00	 jmp	 ___CxxFrameHandler3
text$x	ENDS
??$_Emplace@U?$pair@KUSSkillDataPet@CPythonSkillPet@@@std@@@?$_Tree@V?$_Tmap_traits@KUSSkillDataPet@CPythonSkillPet@@U?$less@K@std@@V?$allocator@U?$pair@$$CBKUSSkillDataPet@CPythonSkillPet@@@std@@@4@$0A@@std@@@std@@IAE?AU?$pair@PAU?$_Tree_node@U?$pair@$$CBKUSSkillDataPet@CPythonSkillPet@@@std@@PAX@std@@_N@1@$$QAU?$pair@KUSSkillDataPet@CPythonSkillPet@@@1@@Z ENDP ; std::_Tree<std::_Tmap_traits<unsigned long,CPythonSkillPet::SSkillDataPet,std::less<unsigned long>,std::allocator<std::pair<unsigned long const ,CPythonSkillPet::SSkillDataPet> >,0> >::_Emplace<std::pair<unsigned long,CPythonSkillPet::SSkillDataPet> >
; Function compile flags: /Ogtp
; File C:\Program Files\Microsoft Visual Studio\2022\Community\VC\Tools\MSVC\14.34.31933\include\utility
;	COMDAT ??$?0V?$_Tree_iterator@V?$_Tree_val@U?$_Tree_simple_types@U?$pair@$$CBKUSSkillDataPet@CPythonSkillPet@@@std@@@std@@@std@@@std@@AB_N$0A@@?$pair@V?$_Tree_iterator@V?$_Tree_val@U?$_Tree_simple_types@U?$pair@$$CBKUSSkillDataPet@CPythonSkillPet@@@std@@@std@@@std@@@std@@_N@std@@QAE@$$QAV?$_Tree_iterator@V?$_Tree_val@U?$_Tree_simple_types@U?$pair@$$CBKUSSkillDataPet@CPythonSkillPet@@@std@@@std@@@std@@@1@AB_N@Z
_TEXT	SEGMENT
__Val1$ = 8						; size = 4
__Val2$ = 12						; size = 4
??$?0V?$_Tree_iterator@V?$_Tree_val@U?$_Tree_simple_types@U?$pair@$$CBKUSSkillDataPet@CPythonSkillPet@@@std@@@std@@@std@@@std@@AB_N$0A@@?$pair@V?$_Tree_iterator@V?$_Tree_val@U?$_Tree_simple_types@U?$pair@$$CBKUSSkillDataPet@CPythonSkillPet@@@std@@@std@@@std@@@std@@_N@std@@QAE@$$QAV?$_Tree_iterator@V?$_Tree_val@U?$_Tree_simple_types@U?$pair@$$CBKUSSkillDataPet@CPythonSkillPet@@@std@@@std@@@std@@@1@AB_N@Z PROC ; std::pair<std::_Tree_iterator<std::_Tree_val<std::_Tree_simple_types<std::pair<unsigned long const ,CPythonSkillPet::SSkillDataPet> > > >,bool>::pair<std::_Tree_iterator<std::_Tree_val<std::_Tree_simple_types<std::pair<unsigned long const ,CPythonSkillPet::SSkillDataPet> > > >,bool><std::_Tree_iterator<std::_Tree_val<std::_Tree_simple_types<std::pair<unsigned long const ,CPythonSkillPet::SSkillDataPet> > > >,bool const &,0>, COMDAT
; _this$ = ecx

; 172  :         : first(_STD forward<_Other1>(_Val1)), second(_STD forward<_Other2>(_Val2)) {

  00000	55		 push	 ebp
  00001	8b ec		 mov	 ebp, esp
  00003	8b 45 08	 mov	 eax, DWORD PTR __Val1$[ebp]
  00006	8b 00		 mov	 eax, DWORD PTR [eax]
  00008	89 01		 mov	 DWORD PTR [ecx], eax
  0000a	8b 45 0c	 mov	 eax, DWORD PTR __Val2$[ebp]
  0000d	8a 00		 mov	 al, BYTE PTR [eax]
  0000f	88 41 04	 mov	 BYTE PTR [ecx+4], al

; 173  :     }

  00012	8b c1		 mov	 eax, ecx
  00014	5d		 pop	 ebp
  00015	c2 08 00	 ret	 8
??$?0V?$_Tree_iterator@V?$_Tree_val@U?$_Tree_simple_types@U?$pair@$$CBKUSSkillDataPet@CPythonSkillPet@@@std@@@std@@@std@@@std@@AB_N$0A@@?$pair@V?$_Tree_iterator@V?$_Tree_val@U?$_Tree_simple_types@U?$pair@$$CBKUSSkillDataPet@CPythonSkillPet@@@std@@@std@@@std@@@std@@_N@std@@QAE@$$QAV?$_Tree_iterator@V?$_Tree_val@U?$_Tree_simple_types@U?$pair@$$CBKUSSkillDataPet@CPythonSkillPet@@@std@@@std@@@std@@@1@AB_N@Z ENDP ; std::pair<std::_Tree_iterator<std::_Tree_val<std::_Tree_simple_types<std::pair<unsigned long const ,CPythonSkillPet::SSkillDataPet> > > >,bool>::pair<std::_Tree_iterator<std::_Tree_val<std::_Tree_simple_types<std::pair<unsigned long const ,CPythonSkillPet::SSkillDataPet> > > >,bool><std::_Tree_iterator<std::_Tree_val<std::_Tree_simple_types<std::pair<unsigned long const ,CPythonSkillPet::SSkillDataPet> > > >,bool const &,0>
_TEXT	ENDS
; Function compile flags: /Ogtp
; File C:\Program Files\Microsoft Visual Studio\2022\Community\VC\Tools\MSVC\14.34.31933\include\map
;	COMDAT ??$_Kfn@$$CBKUSSkillDataPet@CPythonSkillPet@@@?$_Tmap_traits@KUSSkillDataPet@CPythonSkillPet@@U?$less@K@std@@V?$allocator@U?$pair@$$CBKUSSkillDataPet@CPythonSkillPet@@@std@@@4@$0A@@std@@SAABKABU?$pair@$$CBKUSSkillDataPet@CPythonSkillPet@@@1@@Z
_TEXT	SEGMENT
??$_Kfn@$$CBKUSSkillDataPet@CPythonSkillPet@@@?$_Tmap_traits@KUSSkillDataPet@CPythonSkillPet@@U?$less@K@std@@V?$allocator@U?$pair@$$CBKUSSkillDataPet@CPythonSkillPet@@@std@@@4@$0A@@std@@SAABKABU?$pair@$$CBKUSSkillDataPet@CPythonSkillPet@@@1@@Z PROC ; std::_Tmap_traits<unsigned long,CPythonSkillPet::SSkillDataPet,std::less<unsigned long>,std::allocator<std::pair<unsigned long const ,CPythonSkillPet::SSkillDataPet> >,0>::_Kfn<unsigned long const ,CPythonSkillPet::SSkillDataPet>, COMDAT
; __Val$ = ecx

; 68   :         return _Val.first;

  00000	8b c1		 mov	 eax, ecx

; 69   :     }

  00002	c3		 ret	 0
??$_Kfn@$$CBKUSSkillDataPet@CPythonSkillPet@@@?$_Tmap_traits@KUSSkillDataPet@CPythonSkillPet@@U?$less@K@std@@V?$allocator@U?$pair@$$CBKUSSkillDataPet@CPythonSkillPet@@@std@@@4@$0A@@std@@SAABKABU?$pair@$$CBKUSSkillDataPet@CPythonSkillPet@@@1@@Z ENDP ; std::_Tmap_traits<unsigned long,CPythonSkillPet::SSkillDataPet,std::less<unsigned long>,std::allocator<std::pair<unsigned long const ,CPythonSkillPet::SSkillDataPet> >,0>::_Kfn<unsigned long const ,CPythonSkillPet::SSkillDataPet>
_TEXT	ENDS
; Function compile flags: /Ogtp
; File C:\Program Files\Microsoft Visual Studio\2022\Community\VC\Tools\MSVC\14.34.31933\include\xmemory
; File C:\Program Files\Microsoft Visual Studio\2022\Community\VC\Tools\MSVC\14.34.31933\include\utility
; File C:\Program Files\Microsoft Visual Studio\2022\Community\VC\Tools\MSVC\14.34.31933\include\xmemory
; File C:\Program Files\Microsoft Visual Studio\2022\Community\VC\Tools\MSVC\14.34.31933\include\utility
; File C:\Program Files\Microsoft Visual Studio\2022\Community\VC\Tools\MSVC\14.34.31933\include\xmemory
;	COMDAT ??$construct@U?$pair@$$CBKUSSkillDataPet@CPythonSkillPet@@@std@@ABUpiecewise_construct_t@2@V?$tuple@ABK@2@V?$tuple@$$V@2@@?$_Default_allocator_traits@V?$allocator@U?$_Tree_node@U?$pair@$$CBKUSSkillDataPet@CPythonSkillPet@@@std@@PAX@std@@@std@@@std@@SAXAAV?$allocator@U?$_Tree_node@U?$pair@$$CBKUSSkillDataPet@CPythonSkillPet@@@std@@PAX@std@@@1@QAU?$pair@$$CBKUSSkillDataPet@CPythonSkillPet@@@1@ABUpiecewise_construct_t@1@$$QAV?$tuple@ABK@1@$$QAV?$tuple@$$V@1@@Z
_TEXT	SEGMENT
_<_Args_0>$dead$ = 8					; size = 4
_<_Args_1>$ = 12					; size = 4
_<_Args_2>$dead$ = 16					; size = 4
??$construct@U?$pair@$$CBKUSSkillDataPet@CPythonSkillPet@@@std@@ABUpiecewise_construct_t@2@V?$tuple@ABK@2@V?$tuple@$$V@2@@?$_Default_allocator_traits@V?$allocator@U?$_Tree_node@U?$pair@$$CBKUSSkillDataPet@CPythonSkillPet@@@std@@PAX@std@@@std@@@std@@SAXAAV?$allocator@U?$_Tree_node@U?$pair@$$CBKUSSkillDataPet@CPythonSkillPet@@@std@@PAX@std@@@1@QAU?$pair@$$CBKUSSkillDataPet@CPythonSkillPet@@@1@ABUpiecewise_construct_t@1@$$QAV?$tuple@ABK@1@$$QAV?$tuple@$$V@1@@Z PROC ; std::_Default_allocator_traits<std::allocator<std::_Tree_node<std::pair<unsigned long const ,CPythonSkillPet::SSkillDataPet>,void *> > >::construct<std::pair<unsigned long const ,CPythonSkillPet::SSkillDataPet>,std::piecewise_construct_t const &,std::tuple<unsigned long const &>,std::tuple<> >, COMDAT
; ___formal$dead$ = ecx
; __Ptr$ = edx

; 673  :     static _CONSTEXPR20 void construct(_Alloc&, _Objty* const _Ptr, _Types&&... _Args) {

  00000	55		 push	 ebp
  00001	8b ec		 mov	 ebp, esp
; File C:\Program Files\Microsoft Visual Studio\2022\Community\VC\Tools\MSVC\14.34.31933\include\utility

; 214  :         : first(_Tuple_get<_Indexes1>(_STD move(_Val1))...), second(_Tuple_get<_Indexes2>(_STD move(_Val2))...) {}

  00003	8b 45 0c	 mov	 eax, DWORD PTR _<_Args_1>$[ebp]
; File C:\Program Files\Microsoft Visual Studio\2022\Community\VC\Tools\MSVC\14.34.31933\include\xmemory

; 682  :     }

  00006	8d 4a 04	 lea	 ecx, DWORD PTR [edx+4]
; File C:\Program Files\Microsoft Visual Studio\2022\Community\VC\Tools\MSVC\14.34.31933\include\utility

; 214  :         : first(_Tuple_get<_Indexes1>(_STD move(_Val1))...), second(_Tuple_get<_Indexes2>(_STD move(_Val2))...) {}

  00009	8b 00		 mov	 eax, DWORD PTR [eax]
; File C:\Program Files\Microsoft Visual Studio\2022\Community\VC\Tools\MSVC\14.34.31933\include\xmemory

; 682  :     }

  0000b	8b 00		 mov	 eax, DWORD PTR [eax]
  0000d	89 02		 mov	 DWORD PTR [edx], eax
  0000f	5d		 pop	 ebp
  00010	e9 00 00 00 00	 jmp	 ??0SSkillDataPet@CPythonSkillPet@@QAE@XZ ; CPythonSkillPet::SSkillDataPet::SSkillDataPet
??$construct@U?$pair@$$CBKUSSkillDataPet@CPythonSkillPet@@@std@@ABUpiecewise_construct_t@2@V?$tuple@ABK@2@V?$tuple@$$V@2@@?$_Default_allocator_traits@V?$allocator@U?$_Tree_node@U?$pair@$$CBKUSSkillDataPet@CPythonSkillPet@@@std@@PAX@std@@@std@@@std@@SAXAAV?$allocator@U?$_Tree_node@U?$pair@$$CBKUSSkillDataPet@CPythonSkillPet@@@std@@PAX@std@@@1@QAU?$pair@$$CBKUSSkillDataPet@CPythonSkillPet@@@1@ABUpiecewise_construct_t@1@$$QAV?$tuple@ABK@1@$$QAV?$tuple@$$V@1@@Z ENDP ; std::_Default_allocator_traits<std::allocator<std::_Tree_node<std::pair<unsigned long const ,CPythonSkillPet::SSkillDataPet>,void *> > >::construct<std::pair<unsigned long const ,CPythonSkillPet::SSkillDataPet>,std::piecewise_construct_t const &,std::tuple<unsigned long const &>,std::tuple<> >
_TEXT	ENDS
; Function compile flags: /Ogtp
; File C:\Program Files\Microsoft Visual Studio\2022\Community\VC\Tools\MSVC\14.34.31933\include\xutility
;	COMDAT ??$_Construct_in_place@PAU?$_Tree_node@U?$pair@$$CBKUSSkillDataPet@CPythonSkillPet@@@std@@PAX@std@@AAPAU12@@std@@YAXAAPAU?$_Tree_node@U?$pair@$$CBKUSSkillDataPet@CPythonSkillPet@@@std@@PAX@0@0@Z
_TEXT	SEGMENT
??$_Construct_in_place@PAU?$_Tree_node@U?$pair@$$CBKUSSkillDataPet@CPythonSkillPet@@@std@@PAX@std@@AAPAU12@@std@@YAXAAPAU?$_Tree_node@U?$pair@$$CBKUSSkillDataPet@CPythonSkillPet@@@std@@PAX@0@0@Z PROC ; std::_Construct_in_place<std::_Tree_node<std::pair<unsigned long const ,CPythonSkillPet::SSkillDataPet>,void *> *,std::_Tree_node<std::pair<unsigned long const ,CPythonSkillPet::SSkillDataPet>,void *> * &>, COMDAT
; __Obj$ = ecx
; _<_Args_0>$ = edx

; 225  : #if _HAS_CXX20
; 226  :     if (_STD is_constant_evaluated()) {
; 227  :         _STD construct_at(_STD addressof(_Obj), _STD forward<_Types>(_Args)...);
; 228  :     } else
; 229  : #endif // _HAS_CXX20
; 230  :     {
; 231  :         ::new (_Voidify_iter(_STD addressof(_Obj))) _Ty(_STD forward<_Types>(_Args)...);
; 232  :     }
; 233  : }

  00000	8b 02		 mov	 eax, DWORD PTR [edx]
  00002	89 01		 mov	 DWORD PTR [ecx], eax
  00004	c3		 ret	 0
??$_Construct_in_place@PAU?$_Tree_node@U?$pair@$$CBKUSSkillDataPet@CPythonSkillPet@@@std@@PAX@std@@AAPAU12@@std@@YAXAAPAU?$_Tree_node@U?$pair@$$CBKUSSkillDataPet@CPythonSkillPet@@@std@@PAX@0@0@Z ENDP ; std::_Construct_in_place<std::_Tree_node<std::pair<unsigned long const ,CPythonSkillPet::SSkillDataPet>,void *> *,std::_Tree_node<std::pair<unsigned long const ,CPythonSkillPet::SSkillDataPet>,void *> * &>
_TEXT	ENDS
; Function compile flags: /Ogtp
; File C:\Program Files\Microsoft Visual Studio\2022\Community\VC\Tools\MSVC\14.34.31933\include\type_traits
;	COMDAT ??$forward@ABQAU?$_Tree_node@U?$pair@$$CBKUSSkillDataPet@CPythonSkillPet@@@std@@PAX@std@@@std@@YAABQAU?$_Tree_node@U?$pair@$$CBKUSSkillDataPet@CPythonSkillPet@@@std@@PAX@0@ABQAU10@@Z
_TEXT	SEGMENT
??$forward@ABQAU?$_Tree_node@U?$pair@$$CBKUSSkillDataPet@CPythonSkillPet@@@std@@PAX@std@@@std@@YAABQAU?$_Tree_node@U?$pair@$$CBKUSSkillDataPet@CPythonSkillPet@@@std@@PAX@0@ABQAU10@@Z PROC ; std::forward<std::_Tree_node<std::pair<unsigned long const ,CPythonSkillPet::SSkillDataPet>,void *> * const &>, COMDAT
; __Arg$ = ecx

; 1426 :     return static_cast<_Ty&&>(_Arg);

  00000	8b c1		 mov	 eax, ecx

; 1427 : }

  00002	c3		 ret	 0
??$forward@ABQAU?$_Tree_node@U?$pair@$$CBKUSSkillDataPet@CPythonSkillPet@@@std@@PAX@std@@@std@@YAABQAU?$_Tree_node@U?$pair@$$CBKUSSkillDataPet@CPythonSkillPet@@@std@@PAX@0@ABQAU10@@Z ENDP ; std::forward<std::_Tree_node<std::pair<unsigned long const ,CPythonSkillPet::SSkillDataPet>,void *> * const &>
_TEXT	ENDS
; Function compile flags: /Ogtp
; File C:\Program Files\Microsoft Visual Studio\2022\Community\VC\Tools\MSVC\14.34.31933\include\type_traits
;	COMDAT ??$forward@PAU?$_Tree_node@U?$pair@$$CBKUSSkillDataPet@CPythonSkillPet@@@std@@PAX@std@@@std@@YA$$QAPAU?$_Tree_node@U?$pair@$$CBKUSSkillDataPet@CPythonSkillPet@@@std@@PAX@0@AAPAU10@@Z
_TEXT	SEGMENT
??$forward@PAU?$_Tree_node@U?$pair@$$CBKUSSkillDataPet@CPythonSkillPet@@@std@@PAX@std@@@std@@YA$$QAPAU?$_Tree_node@U?$pair@$$CBKUSSkillDataPet@CPythonSkillPet@@@std@@PAX@0@AAPAU10@@Z PROC ; std::forward<std::_Tree_node<std::pair<unsigned long const ,CPythonSkillPet::SSkillDataPet>,void *> *>, COMDAT
; __Arg$ = ecx

; 1426 :     return static_cast<_Ty&&>(_Arg);

  00000	8b c1		 mov	 eax, ecx

; 1427 : }

  00002	c3		 ret	 0
??$forward@PAU?$_Tree_node@U?$pair@$$CBKUSSkillDataPet@CPythonSkillPet@@@std@@PAX@std@@@std@@YA$$QAPAU?$_Tree_node@U?$pair@$$CBKUSSkillDataPet@CPythonSkillPet@@@std@@PAX@0@AAPAU10@@Z ENDP ; std::forward<std::_Tree_node<std::pair<unsigned long const ,CPythonSkillPet::SSkillDataPet>,void *> *>
_TEXT	ENDS
; Function compile flags: /Ogtp
; File C:\Program Files\Microsoft Visual Studio\2022\Community\VC\Tools\MSVC\14.34.31933\include\xstddef
;	COMDAT ??$addressof@PAU?$_Tree_node@U?$pair@$$CBKUSSkillDataPet@CPythonSkillPet@@@std@@PAX@std@@@std@@YAPAPAU?$_Tree_node@U?$pair@$$CBKUSSkillDataPet@CPythonSkillPet@@@std@@PAX@0@AAPAU10@@Z
_TEXT	SEGMENT
??$addressof@PAU?$_Tree_node@U?$pair@$$CBKUSSkillDataPet@CPythonSkillPet@@@std@@PAX@std@@@std@@YAPAPAU?$_Tree_node@U?$pair@$$CBKUSSkillDataPet@CPythonSkillPet@@@std@@PAX@0@AAPAU10@@Z PROC ; std::addressof<std::_Tree_node<std::pair<unsigned long const ,CPythonSkillPet::SSkillDataPet>,void *> *>, COMDAT
; __Val$ = ecx

; 281  :     return __builtin_addressof(_Val);

  00000	8b c1		 mov	 eax, ecx

; 282  : }

  00002	c3		 ret	 0
??$addressof@PAU?$_Tree_node@U?$pair@$$CBKUSSkillDataPet@CPythonSkillPet@@@std@@PAX@std@@@std@@YAPAPAU?$_Tree_node@U?$pair@$$CBKUSSkillDataPet@CPythonSkillPet@@@std@@PAX@0@AAPAU10@@Z ENDP ; std::addressof<std::_Tree_node<std::pair<unsigned long const ,CPythonSkillPet::SSkillDataPet>,void *> *>
_TEXT	ENDS
; Function compile flags: /Ogtp
; File C:\Program Files\Microsoft Visual Studio\2022\Community\VC\Tools\MSVC\14.34.31933\include\xutility
;	COMDAT ??$construct_at@PAU?$_Tree_node@U?$pair@$$CBKUSSkillDataPet@CPythonSkillPet@@@std@@PAX@std@@ABQAU12@$0A@@std@@YAPAPAU?$_Tree_node@U?$pair@$$CBKUSSkillDataPet@CPythonSkillPet@@@std@@PAX@0@QAPAU10@ABQAU10@@Z
_TEXT	SEGMENT
??$construct_at@PAU?$_Tree_node@U?$pair@$$CBKUSSkillDataPet@CPythonSkillPet@@@std@@PAX@std@@ABQAU12@$0A@@std@@YAPAPAU?$_Tree_node@U?$pair@$$CBKUSSkillDataPet@CPythonSkillPet@@@std@@PAX@0@QAPAU10@ABQAU10@@Z PROC ; std::construct_at<std::_Tree_node<std::pair<unsigned long const ,CPythonSkillPet::SSkillDataPet>,void *> *,std::_Tree_node<std::pair<unsigned long const ,CPythonSkillPet::SSkillDataPet>,void *> * const &,0>, COMDAT
; __Location$ = ecx
; _<_Args_0>$ = edx

; 218  :     _MSVC_CONSTEXPR return ::new (_Voidify_iter(_Location)) _Ty(_STD forward<_Types>(_Args)...);

  00000	8b 02		 mov	 eax, DWORD PTR [edx]
  00002	89 01		 mov	 DWORD PTR [ecx], eax
  00004	8b c1		 mov	 eax, ecx

; 219  : }

  00006	c3		 ret	 0
??$construct_at@PAU?$_Tree_node@U?$pair@$$CBKUSSkillDataPet@CPythonSkillPet@@@std@@PAX@std@@ABQAU12@$0A@@std@@YAPAPAU?$_Tree_node@U?$pair@$$CBKUSSkillDataPet@CPythonSkillPet@@@std@@PAX@0@QAPAU10@ABQAU10@@Z ENDP ; std::construct_at<std::_Tree_node<std::pair<unsigned long const ,CPythonSkillPet::SSkillDataPet>,void *> *,std::_Tree_node<std::pair<unsigned long const ,CPythonSkillPet::SSkillDataPet>,void *> * const &,0>
_TEXT	ENDS
; Function compile flags: /Ogtp
; File C:\Program Files\Microsoft Visual Studio\2022\Community\VC\Tools\MSVC\14.34.31933\include\xutility
;	COMDAT ??$_Voidify_iter@PAPAU?$_Tree_node@U?$pair@$$CBKUSSkillDataPet@CPythonSkillPet@@@std@@PAX@std@@@std@@YAPAXPAPAU?$_Tree_node@U?$pair@$$CBKUSSkillDataPet@CPythonSkillPet@@@std@@PAX@0@@Z
_TEXT	SEGMENT
??$_Voidify_iter@PAPAU?$_Tree_node@U?$pair@$$CBKUSSkillDataPet@CPythonSkillPet@@@std@@PAX@std@@@std@@YAPAXPAPAU?$_Tree_node@U?$pair@$$CBKUSSkillDataPet@CPythonSkillPet@@@std@@PAX@0@@Z PROC ; std::_Voidify_iter<std::_Tree_node<std::pair<unsigned long const ,CPythonSkillPet::SSkillDataPet>,void *> * *>, COMDAT
; __It$ = ecx

; 201  :     if constexpr (is_pointer_v<_Iter>) {
; 202  :         return const_cast<void*>(static_cast<const volatile void*>(_It));

  00000	8b c1		 mov	 eax, ecx

; 203  :     } else {
; 204  :         return const_cast<void*>(static_cast<const volatile void*>(_STD addressof(*_It)));
; 205  :     }
; 206  : }

  00002	c3		 ret	 0
??$_Voidify_iter@PAPAU?$_Tree_node@U?$pair@$$CBKUSSkillDataPet@CPythonSkillPet@@@std@@PAX@std@@@std@@YAPAXPAPAU?$_Tree_node@U?$pair@$$CBKUSSkillDataPet@CPythonSkillPet@@@std@@PAX@0@@Z ENDP ; std::_Voidify_iter<std::_Tree_node<std::pair<unsigned long const ,CPythonSkillPet::SSkillDataPet>,void *> * *>
_TEXT	ENDS
; Function compile flags: /Ogtp
; File C:\Program Files\Microsoft Visual Studio\2022\Community\VC\Tools\MSVC\14.34.31933\include\xmemory
;	COMDAT ??$destroy_at@U?$pair@$$CBKUSSkillDataPet@CPythonSkillPet@@@std@@@std@@YAXQAU?$pair@$$CBKUSSkillDataPet@CPythonSkillPet@@@0@@Z
_TEXT	SEGMENT
??$destroy_at@U?$pair@$$CBKUSSkillDataPet@CPythonSkillPet@@@std@@@std@@YAXQAU?$pair@$$CBKUSSkillDataPet@CPythonSkillPet@@@0@@Z PROC ; std::destroy_at<std::pair<unsigned long const ,CPythonSkillPet::SSkillDataPet> >, COMDAT
; __Location$ = ecx

; 304  : _CONSTEXPR20 void destroy_at(_Ty* const _Location) noexcept /* strengthened */ {

  00000	83 c1 04	 add	 ecx, 4
  00003	e9 00 00 00 00	 jmp	 ??1SSkillDataPet@CPythonSkillPet@@QAE@XZ
??$destroy_at@U?$pair@$$CBKUSSkillDataPet@CPythonSkillPet@@@std@@@std@@YAXQAU?$pair@$$CBKUSSkillDataPet@CPythonSkillPet@@@0@@Z ENDP ; std::destroy_at<std::pair<unsigned long const ,CPythonSkillPet::SSkillDataPet> >
_TEXT	ENDS
; Function compile flags: /Ogtp
;	COMDAT ??1?$pair@$$CBKUSSkillDataPet@CPythonSkillPet@@@std@@QAE@XZ
_TEXT	SEGMENT
??1?$pair@$$CBKUSSkillDataPet@CPythonSkillPet@@@std@@QAE@XZ PROC ; std::pair<unsigned long const ,CPythonSkillPet::SSkillDataPet>::~pair<unsigned long const ,CPythonSkillPet::SSkillDataPet>, COMDAT
; _this$ = ecx
  00000	83 c1 04	 add	 ecx, 4
  00003	e9 00 00 00 00	 jmp	 ??1SSkillDataPet@CPythonSkillPet@@QAE@XZ
??1?$pair@$$CBKUSSkillDataPet@CPythonSkillPet@@@std@@QAE@XZ ENDP ; std::pair<unsigned long const ,CPythonSkillPet::SSkillDataPet>::~pair<unsigned long const ,CPythonSkillPet::SSkillDataPet>
_TEXT	ENDS
; Function compile flags: /Ogtp
;	COMDAT ??_G?$pair@$$CBKUSSkillDataPet@CPythonSkillPet@@@std@@QAEPAXI@Z
_TEXT	SEGMENT
___flags$dead$ = 8					; size = 4
??_G?$pair@$$CBKUSSkillDataPet@CPythonSkillPet@@@std@@QAEPAXI@Z PROC ; std::pair<unsigned long const ,CPythonSkillPet::SSkillDataPet>::`scalar deleting destructor', COMDAT
; _this$ = ecx
  00000	56		 push	 esi
  00001	8b f1		 mov	 esi, ecx
  00003	8d 4e 04	 lea	 ecx, DWORD PTR [esi+4]
  00006	e8 00 00 00 00	 call	 ??1SSkillDataPet@CPythonSkillPet@@QAE@XZ
  0000b	8b c6		 mov	 eax, esi
  0000d	5e		 pop	 esi
  0000e	c2 04 00	 ret	 4
??_G?$pair@$$CBKUSSkillDataPet@CPythonSkillPet@@@std@@QAEPAXI@Z ENDP ; std::pair<unsigned long const ,CPythonSkillPet::SSkillDataPet>::`scalar deleting destructor'
_TEXT	ENDS
; Function compile flags: /Ogtp
; File C:\Program Files\Microsoft Visual Studio\2022\Community\VC\Tools\MSVC\14.34.31933\include\xmemory
;	COMDAT ?_Extract@?$_In_place_key_extract_map@KU?$pair@KUSSkillDataPet@CPythonSkillPet@@@std@@@std@@SAABKABU?$pair@KUSSkillDataPet@CPythonSkillPet@@@2@@Z
_TEXT	SEGMENT
?_Extract@?$_In_place_key_extract_map@KU?$pair@KUSSkillDataPet@CPythonSkillPet@@@std@@@std@@SAABKABU?$pair@KUSSkillDataPet@CPythonSkillPet@@@2@@Z PROC ; std::_In_place_key_extract_map<unsigned long,std::pair<unsigned long,CPythonSkillPet::SSkillDataPet> >::_Extract, COMDAT
; __Val$ = ecx

; 1974 :         return _Val.first;

  00000	8b c1		 mov	 eax, ecx

; 1975 :     }

  00002	c3		 ret	 0
?_Extract@?$_In_place_key_extract_map@KU?$pair@KUSSkillDataPet@CPythonSkillPet@@@std@@@std@@SAABKABU?$pair@KUSSkillDataPet@CPythonSkillPet@@@2@@Z ENDP ; std::_In_place_key_extract_map<unsigned long,std::pair<unsigned long,CPythonSkillPet::SSkillDataPet> >::_Extract
_TEXT	ENDS
; Function compile flags: /Ogtp
; File C:\Program Files\Microsoft Visual Studio\2022\Community\VC\Tools\MSVC\14.34.31933\include\xtree
; File C:\Program Files\Microsoft Visual Studio\2022\Community\VC\Tools\MSVC\14.34.31933\include\xmemory
; File C:\Program Files\Microsoft Visual Studio\2022\Community\VC\Tools\MSVC\14.34.31933\include\xtree
; File C:\Program Files\Microsoft Visual Studio\2022\Community\VC\Tools\MSVC\14.34.31933\include\xmemory
; File C:\Program Files\Microsoft Visual Studio\2022\Community\VC\Tools\MSVC\14.34.31933\include\xtree
; File C:\Program Files\Microsoft Visual Studio\2022\Community\VC\Tools\MSVC\14.34.31933\include\xmemory
; File C:\Program Files\Microsoft Visual Studio\2022\Community\VC\Tools\MSVC\14.34.31933\include\utility
; File C:\Program Files\Microsoft Visual Studio\2022\Community\VC\Tools\MSVC\14.34.31933\include\xtree
;	COMDAT ??$?0U?$pair@KUSSkillDataPet@CPythonSkillPet@@@std@@@?$_Tree_temp_node@V?$allocator@U?$_Tree_node@U?$pair@$$CBKUSSkillDataPet@CPythonSkillPet@@@std@@PAX@std@@@std@@@std@@QAE@AAV?$allocator@U?$_Tree_node@U?$pair@$$CBKUSSkillDataPet@CPythonSkillPet@@@std@@PAX@std@@@1@PAU?$_Tree_node@U?$pair@$$CBKUSSkillDataPet@CPythonSkillPet@@@std@@PAX@1@$$QAU?$pair@KUSSkillDataPet@CPythonSkillPet@@@1@@Z
_TEXT	SEGMENT
_this$ = -16						; size = 4
__$EHRec$ = -12						; size = 12
__Al_$ = 8						; size = 4
__Myhead$ = 12						; size = 4
_<_Vals_0>$ = 16					; size = 4
??$?0U?$pair@KUSSkillDataPet@CPythonSkillPet@@@std@@@?$_Tree_temp_node@V?$allocator@U?$_Tree_node@U?$pair@$$CBKUSSkillDataPet@CPythonSkillPet@@@std@@PAX@std@@@std@@@std@@QAE@AAV?$allocator@U?$_Tree_node@U?$pair@$$CBKUSSkillDataPet@CPythonSkillPet@@@std@@PAX@std@@@1@PAU?$_Tree_node@U?$pair@$$CBKUSSkillDataPet@CPythonSkillPet@@@std@@PAX@1@$$QAU?$pair@KUSSkillDataPet@CPythonSkillPet@@@1@@Z PROC ; std::_Tree_temp_node<std::allocator<std::_Tree_node<std::pair<unsigned long const ,CPythonSkillPet::SSkillDataPet>,void *> > >::_Tree_temp_node<std::allocator<std::_Tree_node<std::pair<unsigned long const ,CPythonSkillPet::SSkillDataPet>,void *> > ><std::pair<unsigned long,CPythonSkillPet::SSkillDataPet> >, COMDAT
; _this$ = ecx

; 806  :         : _Tree_temp_node_alloc<_Alnode>(_Al_) {

  00000	55		 push	 ebp
  00001	8b ec		 mov	 ebp, esp
  00003	6a ff		 push	 -1
  00005	68 00 00 00 00	 push	 __ehhandler$??$?0U?$pair@KUSSkillDataPet@CPythonSkillPet@@@std@@@?$_Tree_temp_node@V?$allocator@U?$_Tree_node@U?$pair@$$CBKUSSkillDataPet@CPythonSkillPet@@@std@@PAX@std@@@std@@@std@@QAE@AAV?$allocator@U?$_Tree_node@U?$pair@$$CBKUSSkillDataPet@CPythonSkillPet@@@std@@PAX@std@@@1@PAU?$_Tree_node@U?$pair@$$CBKUSSkillDataPet@CPythonSkillPet@@@std@@PAX@1@$$QAU?$pair@KUSSkillDataPet@CPythonSkillPet@@@1@@Z
  0000a	64 a1 00 00 00
	00		 mov	 eax, DWORD PTR fs:0
  00010	50		 push	 eax
  00011	51		 push	 ecx
  00012	56		 push	 esi
  00013	57		 push	 edi
  00014	a1 00 00 00 00	 mov	 eax, DWORD PTR ___security_cookie
  00019	33 c5		 xor	 eax, ebp
  0001b	50		 push	 eax
  0001c	8d 45 f4	 lea	 eax, DWORD PTR __$EHRec$[ebp]
  0001f	64 a3 00 00 00
	00		 mov	 DWORD PTR fs:0, eax
  00025	8b f9		 mov	 edi, ecx
  00027	89 7d f0	 mov	 DWORD PTR _this$[ebp], edi
; File C:\Program Files\Microsoft Visual Studio\2022\Community\VC\Tools\MSVC\14.34.31933\include\xmemory

; 1005 :     _CONSTEXPR20 explicit _Alloc_construct_ptr(_Alloc& _Al_) : _Al(_Al_), _Ptr(nullptr) {}

  0002a	8b 45 08	 mov	 eax, DWORD PTR __Al_$[ebp]
  0002d	89 07		 mov	 DWORD PTR [edi], eax
  0002f	c7 47 04 00 00
	00 00		 mov	 DWORD PTR [edi+4], 0
; File C:\Program Files\Microsoft Visual Studio\2022\Community\VC\Tools\MSVC\14.34.31933\include\xtree

; 785  :     explicit _Tree_temp_node_alloc(_Alnode& _Al_) : _Alloc_construct_ptr<_Alnode>(_Al_) {

  00036	c7 45 fc 00 00
	00 00		 mov	 DWORD PTR __$EHRec$[ebp+8], 0
; File C:\Program Files\Microsoft Visual Studio\2022\Community\VC\Tools\MSVC\14.34.31933\include\xmemory

; 77   :         return ::operator new(_Bytes);

  0003d	6a 6c		 push	 108			; 0000006cH

; 1012 :         _Ptr = nullptr; // if allocate throws, prevents double-free

  0003f	c7 47 04 00 00
	00 00		 mov	 DWORD PTR [edi+4], 0

; 77   :         return ::operator new(_Bytes);

  00046	e8 00 00 00 00	 call	 ??2@YAPAXI@Z		; operator new
; File C:\Program Files\Microsoft Visual Studio\2022\Community\VC\Tools\MSVC\14.34.31933\include\xtree

; 808  :         _Construct_in_place(this->_Ptr->_Left, _Myhead);

  0004b	8b 55 10	 mov	 edx, DWORD PTR _<_Vals_0>$[ebp]
; File C:\Program Files\Microsoft Visual Studio\2022\Community\VC\Tools\MSVC\14.34.31933\include\xmemory

; 77   :         return ::operator new(_Bytes);

  0004e	83 c4 04	 add	 esp, 4

; 1013 :         _Ptr = _Al.allocate(1);

  00051	89 47 04	 mov	 DWORD PTR [edi+4], eax
; File C:\Program Files\Microsoft Visual Studio\2022\Community\VC\Tools\MSVC\14.34.31933\include\utility

; 200  :         : first(_STD forward<_Other1>(_Right.first)), second(_STD forward<_Other2>(_Right.second)) {}

  00054	8d 48 14	 lea	 ecx, DWORD PTR [eax+20]
; File C:\Program Files\Microsoft Visual Studio\2022\Community\VC\Tools\MSVC\14.34.31933\include\xtree

; 808  :         _Construct_in_place(this->_Ptr->_Left, _Myhead);

  00057	8b 32		 mov	 esi, DWORD PTR [edx]
  00059	83 c2 04	 add	 edx, 4
  0005c	52		 push	 edx
  0005d	89 70 10	 mov	 DWORD PTR [eax+16], esi
  00060	e8 00 00 00 00	 call	 ??0SSkillDataPet@CPythonSkillPet@@QAE@$$QAU01@@Z
  00065	8b 47 04	 mov	 eax, DWORD PTR [edi+4]
  00068	8b 4d 0c	 mov	 ecx, DWORD PTR __Myhead$[ebp]
  0006b	89 08		 mov	 DWORD PTR [eax], ecx

; 809  :         _Construct_in_place(this->_Ptr->_Parent, _Myhead);

  0006d	8b 47 04	 mov	 eax, DWORD PTR [edi+4]
  00070	89 48 04	 mov	 DWORD PTR [eax+4], ecx

; 810  :         _Construct_in_place(this->_Ptr->_Right, _Myhead);

  00073	8b 47 04	 mov	 eax, DWORD PTR [edi+4]
  00076	89 48 08	 mov	 DWORD PTR [eax+8], ecx

; 811  :         this->_Ptr->_Color = _Red;

  00079	8b 47 04	 mov	 eax, DWORD PTR [edi+4]
  0007c	c6 40 0c 00	 mov	 BYTE PTR [eax+12], 0

; 812  :         this->_Ptr->_Isnil = false;

  00080	8b 47 04	 mov	 eax, DWORD PTR [edi+4]
  00083	c6 40 0d 00	 mov	 BYTE PTR [eax+13], 0

; 813  :     }

  00087	8b c7		 mov	 eax, edi
  00089	8b 4d f4	 mov	 ecx, DWORD PTR __$EHRec$[ebp]
  0008c	64 89 0d 00 00
	00 00		 mov	 DWORD PTR fs:0, ecx
  00093	59		 pop	 ecx
  00094	5f		 pop	 edi
  00095	5e		 pop	 esi
  00096	8b e5		 mov	 esp, ebp
  00098	5d		 pop	 ebp
  00099	c2 0c 00	 ret	 12			; 0000000cH
_TEXT	ENDS
;	COMDAT text$x
text$x	SEGMENT
__unwindfunclet$??$?0U?$pair@KUSSkillDataPet@CPythonSkillPet@@@std@@@?$_Tree_temp_node@V?$allocator@U?$_Tree_node@U?$pair@$$CBKUSSkillDataPet@CPythonSkillPet@@@std@@PAX@std@@@std@@@std@@QAE@AAV?$allocator@U?$_Tree_node@U?$pair@$$CBKUSSkillDataPet@CPythonSkillPet@@@std@@PAX@std@@@1@PAU?$_Tree_node@U?$pair@$$CBKUSSkillDataPet@CPythonSkillPet@@@std@@PAX@1@$$QAU?$pair@KUSSkillDataPet@CPythonSkillPet@@@1@@Z$1:
  00000	8b 4d f0	 mov	 ecx, DWORD PTR _this$[ebp]
  00003	e9 00 00 00 00	 jmp	 ??1?$_Alloc_construct_ptr@V?$allocator@U?$_Tree_node@U?$pair@$$CBKUSSkillDataPet@CPythonSkillPet@@@std@@PAX@std@@@std@@@std@@QAE@XZ ; std::_Alloc_construct_ptr<std::allocator<std::_Tree_node<std::pair<unsigned long const ,CPythonSkillPet::SSkillDataPet>,void *> > >::~_Alloc_construct_ptr<std::allocator<std::_Tree_node<std::pair<unsigned long const ,CPythonSkillPet::SSkillDataPet>,void *> > >
  00008	cc		 int	 3
  00009	cc		 int	 3
  0000a	cc		 int	 3
  0000b	cc		 int	 3
  0000c	cc		 int	 3
__ehhandler$??$?0U?$pair@KUSSkillDataPet@CPythonSkillPet@@@std@@@?$_Tree_temp_node@V?$allocator@U?$_Tree_node@U?$pair@$$CBKUSSkillDataPet@CPythonSkillPet@@@std@@PAX@std@@@std@@@std@@QAE@AAV?$allocator@U?$_Tree_node@U?$pair@$$CBKUSSkillDataPet@CPythonSkillPet@@@std@@PAX@std@@@1@PAU?$_Tree_node@U?$pair@$$CBKUSSkillDataPet@CPythonSkillPet@@@std@@PAX@1@$$QAU?$pair@KUSSkillDataPet@CPythonSkillPet@@@1@@Z:
  0000d	90		 npad	 1
  0000e	90		 npad	 1
  0000f	8b 54 24 08	 mov	 edx, DWORD PTR [esp+8]
  00013	8d 42 0c	 lea	 eax, DWORD PTR [edx+12]
  00016	8b 4a f0	 mov	 ecx, DWORD PTR [edx-16]
  00019	33 c8		 xor	 ecx, eax
  0001b	e8 00 00 00 00	 call	 @__security_check_cookie@4
  00020	b8 00 00 00 00	 mov	 eax, OFFSET __ehfuncinfo$??$?0U?$pair@KUSSkillDataPet@CPythonSkillPet@@@std@@@?$_Tree_temp_node@V?$allocator@U?$_Tree_node@U?$pair@$$CBKUSSkillDataPet@CPythonSkillPet@@@std@@PAX@std@@@std@@@std@@QAE@AAV?$allocator@U?$_Tree_node@U?$pair@$$CBKUSSkillDataPet@CPythonSkillPet@@@std@@PAX@std@@@1@PAU?$_Tree_node@U?$pair@$$CBKUSSkillDataPet@CPythonSkillPet@@@std@@PAX@1@$$QAU?$pair@KUSSkillDataPet@CPythonSkillPet@@@1@@Z
  00025	e9 00 00 00 00	 jmp	 ___CxxFrameHandler3
text$x	ENDS
??$?0U?$pair@KUSSkillDataPet@CPythonSkillPet@@@std@@@?$_Tree_temp_node@V?$allocator@U?$_Tree_node@U?$pair@$$CBKUSSkillDataPet@CPythonSkillPet@@@std@@PAX@std@@@std@@@std@@QAE@AAV?$allocator@U?$_Tree_node@U?$pair@$$CBKUSSkillDataPet@CPythonSkillPet@@@std@@PAX@std@@@1@PAU?$_Tree_node@U?$pair@$$CBKUSSkillDataPet@CPythonSkillPet@@@std@@PAX@1@$$QAU?$pair@KUSSkillDataPet@CPythonSkillPet@@@1@@Z ENDP ; std::_Tree_temp_node<std::allocator<std::_Tree_node<std::pair<unsigned long const ,CPythonSkillPet::SSkillDataPet>,void *> > >::_Tree_temp_node<std::allocator<std::_Tree_node<std::pair<unsigned long const ,CPythonSkillPet::SSkillDataPet>,void *> > ><std::pair<unsigned long,CPythonSkillPet::SSkillDataPet> >
; Function compile flags: /Ogtp
; File C:\Program Files\Microsoft Visual Studio\2022\Community\VC\Tools\MSVC\14.34.31933\include\utility
;	COMDAT ??$?0AAPAU?$_Tree_node@U?$pair@$$CBKUSSkillDataPet@CPythonSkillPet@@@std@@PAX@std@@_N$0A@@?$pair@PAU?$_Tree_node@U?$pair@$$CBKUSSkillDataPet@CPythonSkillPet@@@std@@PAX@std@@_N@std@@QAE@AAPAU?$_Tree_node@U?$pair@$$CBKUSSkillDataPet@CPythonSkillPet@@@std@@PAX@1@$$QA_N@Z
_TEXT	SEGMENT
__Val1$ = 8						; size = 4
__Val2$ = 12						; size = 4
??$?0AAPAU?$_Tree_node@U?$pair@$$CBKUSSkillDataPet@CPythonSkillPet@@@std@@PAX@std@@_N$0A@@?$pair@PAU?$_Tree_node@U?$pair@$$CBKUSSkillDataPet@CPythonSkillPet@@@std@@PAX@std@@_N@std@@QAE@AAPAU?$_Tree_node@U?$pair@$$CBKUSSkillDataPet@CPythonSkillPet@@@std@@PAX@1@$$QA_N@Z PROC ; std::pair<std::_Tree_node<std::pair<unsigned long const ,CPythonSkillPet::SSkillDataPet>,void *> *,bool>::pair<std::_Tree_node<std::pair<unsigned long const ,CPythonSkillPet::SSkillDataPet>,void *> *,bool><std::_Tree_node<std::pair<unsigned long const ,CPythonSkillPet::SSkillDataPet>,void *> * &,bool,0>, COMDAT
; _this$ = ecx

; 172  :         : first(_STD forward<_Other1>(_Val1)), second(_STD forward<_Other2>(_Val2)) {

  00000	55		 push	 ebp
  00001	8b ec		 mov	 ebp, esp
  00003	8b 45 08	 mov	 eax, DWORD PTR __Val1$[ebp]
  00006	8b 00		 mov	 eax, DWORD PTR [eax]
  00008	89 01		 mov	 DWORD PTR [ecx], eax
  0000a	8b 45 0c	 mov	 eax, DWORD PTR __Val2$[ebp]
  0000d	8a 00		 mov	 al, BYTE PTR [eax]
  0000f	88 41 04	 mov	 BYTE PTR [ecx+4], al

; 173  :     }

  00012	8b c1		 mov	 eax, ecx
  00014	5d		 pop	 ebp
  00015	c2 08 00	 ret	 8
??$?0AAPAU?$_Tree_node@U?$pair@$$CBKUSSkillDataPet@CPythonSkillPet@@@std@@PAX@std@@_N$0A@@?$pair@PAU?$_Tree_node@U?$pair@$$CBKUSSkillDataPet@CPythonSkillPet@@@std@@PAX@std@@_N@std@@QAE@AAPAU?$_Tree_node@U?$pair@$$CBKUSSkillDataPet@CPythonSkillPet@@@std@@PAX@1@$$QA_N@Z ENDP ; std::pair<std::_Tree_node<std::pair<unsigned long const ,CPythonSkillPet::SSkillDataPet>,void *> *,bool>::pair<std::_Tree_node<std::pair<unsigned long const ,CPythonSkillPet::SSkillDataPet>,void *> *,bool><std::_Tree_node<std::pair<unsigned long const ,CPythonSkillPet::SSkillDataPet>,void *> * &,bool,0>
_TEXT	ENDS
; Function compile flags: /Ogtp
; File C:\Program Files\Microsoft Visual Studio\2022\Community\VC\Tools\MSVC\14.34.31933\include\type_traits
;	COMDAT ??$forward@V?$_Tree_iterator@V?$_Tree_val@U?$_Tree_simple_types@U?$pair@$$CBKUSSkillDataPet@CPythonSkillPet@@@std@@@std@@@std@@@std@@@std@@YA$$QAV?$_Tree_iterator@V?$_Tree_val@U?$_Tree_simple_types@U?$pair@$$CBKUSSkillDataPet@CPythonSkillPet@@@std@@@std@@@std@@@0@AAV10@@Z
_TEXT	SEGMENT
??$forward@V?$_Tree_iterator@V?$_Tree_val@U?$_Tree_simple_types@U?$pair@$$CBKUSSkillDataPet@CPythonSkillPet@@@std@@@std@@@std@@@std@@@std@@YA$$QAV?$_Tree_iterator@V?$_Tree_val@U?$_Tree_simple_types@U?$pair@$$CBKUSSkillDataPet@CPythonSkillPet@@@std@@@std@@@std@@@0@AAV10@@Z PROC ; std::forward<std::_Tree_iterator<std::_Tree_val<std::_Tree_simple_types<std::pair<unsigned long const ,CPythonSkillPet::SSkillDataPet> > > > >, COMDAT
; __Arg$ = ecx

; 1426 :     return static_cast<_Ty&&>(_Arg);

  00000	8b c1		 mov	 eax, ecx

; 1427 : }

  00002	c3		 ret	 0
??$forward@V?$_Tree_iterator@V?$_Tree_val@U?$_Tree_simple_types@U?$pair@$$CBKUSSkillDataPet@CPythonSkillPet@@@std@@@std@@@std@@@std@@@std@@YA$$QAV?$_Tree_iterator@V?$_Tree_val@U?$_Tree_simple_types@U?$pair@$$CBKUSSkillDataPet@CPythonSkillPet@@@std@@@std@@@std@@@0@AAV10@@Z ENDP ; std::forward<std::_Tree_iterator<std::_Tree_val<std::_Tree_simple_types<std::pair<unsigned long const ,CPythonSkillPet::SSkillDataPet> > > > >
_TEXT	ENDS
; Function compile flags: /Ogtp
; File C:\Program Files\Microsoft Visual Studio\2022\Community\VC\Tools\MSVC\14.34.31933\include\xutility
; File C:\Program Files\Microsoft Visual Studio\2022\Community\VC\Tools\MSVC\14.34.31933\include\tuple
; File C:\Program Files\Microsoft Visual Studio\2022\Community\VC\Tools\MSVC\14.34.31933\include\xutility
; File C:\Program Files\Microsoft Visual Studio\2022\Community\VC\Tools\MSVC\14.34.31933\include\tuple
; File C:\Program Files\Microsoft Visual Studio\2022\Community\VC\Tools\MSVC\14.34.31933\include\utility
; File C:\Program Files\Microsoft Visual Studio\2022\Community\VC\Tools\MSVC\14.34.31933\include\xutility
;	COMDAT ??$construct_at@U?$pair@$$CBKUSSkillDataPet@CPythonSkillPet@@@std@@ABUpiecewise_construct_t@2@V?$tuple@ABK@2@V?$tuple@$$V@2@$0A@@std@@YAPAU?$pair@$$CBKUSSkillDataPet@CPythonSkillPet@@@0@QAU10@ABUpiecewise_construct_t@0@$$QAV?$tuple@ABK@0@$$QAV?$tuple@$$V@0@@Z
_TEXT	SEGMENT
_<_Args_1>$ = 8						; size = 4
_<_Args_2>$dead$ = 12					; size = 4
??$construct_at@U?$pair@$$CBKUSSkillDataPet@CPythonSkillPet@@@std@@ABUpiecewise_construct_t@2@V?$tuple@ABK@2@V?$tuple@$$V@2@$0A@@std@@YAPAU?$pair@$$CBKUSSkillDataPet@CPythonSkillPet@@@0@QAU10@ABUpiecewise_construct_t@0@$$QAV?$tuple@ABK@0@$$QAV?$tuple@$$V@0@@Z PROC ; std::construct_at<std::pair<unsigned long const ,CPythonSkillPet::SSkillDataPet>,std::piecewise_construct_t const &,std::tuple<unsigned long const &>,std::tuple<>,0>, COMDAT
; __Location$ = ecx
; _<_Args_0>$dead$ = edx

; 217  :     noexcept(::new (_Voidify_iter(_Location)) _Ty(_STD forward<_Types>(_Args)...))) /* strengthened */ {

  00000	55		 push	 ebp
  00001	8b ec		 mov	 ebp, esp
; File C:\Program Files\Microsoft Visual Studio\2022\Community\VC\Tools\MSVC\14.34.31933\include\tuple

; 288  :     tuple(tuple&&)      = default;

  00003	8b 45 08	 mov	 eax, DWORD PTR _<_Args_1>$[ebp]
; File C:\Program Files\Microsoft Visual Studio\2022\Community\VC\Tools\MSVC\14.34.31933\include\xutility

; 217  :     noexcept(::new (_Voidify_iter(_Location)) _Ty(_STD forward<_Types>(_Args)...))) /* strengthened */ {

  00006	56		 push	 esi
  00007	8b f1		 mov	 esi, ecx
; File C:\Program Files\Microsoft Visual Studio\2022\Community\VC\Tools\MSVC\14.34.31933\include\tuple

; 288  :     tuple(tuple&&)      = default;

  00009	8b 00		 mov	 eax, DWORD PTR [eax]
; File C:\Program Files\Microsoft Visual Studio\2022\Community\VC\Tools\MSVC\14.34.31933\include\utility

; 214  :         : first(_Tuple_get<_Indexes1>(_STD move(_Val1))...), second(_Tuple_get<_Indexes2>(_STD move(_Val2))...) {}

  0000b	8d 4e 04	 lea	 ecx, DWORD PTR [esi+4]
  0000e	8b 00		 mov	 eax, DWORD PTR [eax]
  00010	89 06		 mov	 DWORD PTR [esi], eax
  00012	e8 00 00 00 00	 call	 ??0SSkillDataPet@CPythonSkillPet@@QAE@XZ ; CPythonSkillPet::SSkillDataPet::SSkillDataPet
; File C:\Program Files\Microsoft Visual Studio\2022\Community\VC\Tools\MSVC\14.34.31933\include\xutility

; 218  :     _MSVC_CONSTEXPR return ::new (_Voidify_iter(_Location)) _Ty(_STD forward<_Types>(_Args)...);

  00017	8b c6		 mov	 eax, esi

; 219  : }

  00019	5e		 pop	 esi
  0001a	5d		 pop	 ebp
  0001b	c3		 ret	 0
??$construct_at@U?$pair@$$CBKUSSkillDataPet@CPythonSkillPet@@@std@@ABUpiecewise_construct_t@2@V?$tuple@ABK@2@V?$tuple@$$V@2@$0A@@std@@YAPAU?$pair@$$CBKUSSkillDataPet@CPythonSkillPet@@@0@QAU10@ABUpiecewise_construct_t@0@$$QAV?$tuple@ABK@0@$$QAV?$tuple@$$V@0@@Z ENDP ; std::construct_at<std::pair<unsigned long const ,CPythonSkillPet::SSkillDataPet>,std::piecewise_construct_t const &,std::tuple<unsigned long const &>,std::tuple<>,0>
_TEXT	ENDS
; Function compile flags: /Ogtp
; File C:\Program Files\Microsoft Visual Studio\2022\Community\VC\Tools\MSVC\14.34.31933\include\xutility
;	COMDAT ??$_Voidify_iter@PAU?$pair@$$CBKUSSkillDataPet@CPythonSkillPet@@@std@@@std@@YAPAXPAU?$pair@$$CBKUSSkillDataPet@CPythonSkillPet@@@0@@Z
_TEXT	SEGMENT
??$_Voidify_iter@PAU?$pair@$$CBKUSSkillDataPet@CPythonSkillPet@@@std@@@std@@YAPAXPAU?$pair@$$CBKUSSkillDataPet@CPythonSkillPet@@@0@@Z PROC ; std::_Voidify_iter<std::pair<unsigned long const ,CPythonSkillPet::SSkillDataPet> *>, COMDAT
; __It$ = ecx

; 201  :     if constexpr (is_pointer_v<_Iter>) {
; 202  :         return const_cast<void*>(static_cast<const volatile void*>(_It));

  00000	8b c1		 mov	 eax, ecx

; 203  :     } else {
; 204  :         return const_cast<void*>(static_cast<const volatile void*>(_STD addressof(*_It)));
; 205  :     }
; 206  : }

  00002	c3		 ret	 0
??$_Voidify_iter@PAU?$pair@$$CBKUSSkillDataPet@CPythonSkillPet@@@std@@@std@@YAPAXPAU?$pair@$$CBKUSSkillDataPet@CPythonSkillPet@@@0@@Z ENDP ; std::_Voidify_iter<std::pair<unsigned long const ,CPythonSkillPet::SSkillDataPet> *>
_TEXT	ENDS
; Function compile flags: /Ogtp
; File C:\Program Files\Microsoft Visual Studio\2022\Community\VC\Tools\MSVC\14.34.31933\include\utility
;	COMDAT ??$?0ABK$$Z$$V@?$pair@$$CBKUSSkillDataPet@CPythonSkillPet@@@std@@QAE@Upiecewise_construct_t@1@V?$tuple@ABK@1@V?$tuple@$$V@1@@Z
_TEXT	SEGMENT
_this$ = -4						; size = 4
___formal$ = 8						; size = 1
__Val1$ = 12						; size = 4
__Val2$ = 16						; size = 1
??$?0ABK$$Z$$V@?$pair@$$CBKUSSkillDataPet@CPythonSkillPet@@@std@@QAE@Upiecewise_construct_t@1@V?$tuple@ABK@1@V?$tuple@$$V@1@@Z PROC ; std::pair<unsigned long const ,CPythonSkillPet::SSkillDataPet>::pair<unsigned long const ,CPythonSkillPet::SSkillDataPet><unsigned long const &>, COMDAT
; _this$ = ecx

; 218  :         : pair(_Val1, _Val2, index_sequence_for<_Types1...>{}, index_sequence_for<_Types2...>{}) {}

  00000	55		 push	 ebp
  00001	8b ec		 mov	 ebp, esp
  00003	51		 push	 ecx

; 214  :         : first(_Tuple_get<_Indexes1>(_STD move(_Val1))...), second(_Tuple_get<_Indexes2>(_STD move(_Val2))...) {}

  00004	8b 45 0c	 mov	 eax, DWORD PTR __Val1$[ebp]

; 218  :         : pair(_Val1, _Val2, index_sequence_for<_Types1...>{}, index_sequence_for<_Types2...>{}) {}

  00007	56		 push	 esi
  00008	8b f1		 mov	 esi, ecx
  0000a	89 75 fc	 mov	 DWORD PTR _this$[ebp], esi

; 214  :         : first(_Tuple_get<_Indexes1>(_STD move(_Val1))...), second(_Tuple_get<_Indexes2>(_STD move(_Val2))...) {}

  0000d	8b 00		 mov	 eax, DWORD PTR [eax]
  0000f	8d 4e 04	 lea	 ecx, DWORD PTR [esi+4]
  00012	89 06		 mov	 DWORD PTR [esi], eax
  00014	e8 00 00 00 00	 call	 ??0SSkillDataPet@CPythonSkillPet@@QAE@XZ ; CPythonSkillPet::SSkillDataPet::SSkillDataPet

; 218  :         : pair(_Val1, _Val2, index_sequence_for<_Types1...>{}, index_sequence_for<_Types2...>{}) {}

  00019	8b c6		 mov	 eax, esi
  0001b	5e		 pop	 esi
  0001c	8b e5		 mov	 esp, ebp
  0001e	5d		 pop	 ebp
  0001f	c2 0c 00	 ret	 12			; 0000000cH
??$?0ABK$$Z$$V@?$pair@$$CBKUSSkillDataPet@CPythonSkillPet@@@std@@QAE@Upiecewise_construct_t@1@V?$tuple@ABK@1@V?$tuple@$$V@1@@Z ENDP ; std::pair<unsigned long const ,CPythonSkillPet::SSkillDataPet>::pair<unsigned long const ,CPythonSkillPet::SSkillDataPet><unsigned long const &>
_TEXT	ENDS
; Function compile flags: /Ogtp
; File C:\Program Files\Microsoft Visual Studio\2022\Community\VC\Tools\MSVC\14.34.31933\include\type_traits
;	COMDAT ??$forward@AAPAU?$_Tree_node@U?$pair@$$CBKUSSkillDataPet@CPythonSkillPet@@@std@@PAX@std@@@std@@YAAAPAU?$_Tree_node@U?$pair@$$CBKUSSkillDataPet@CPythonSkillPet@@@std@@PAX@0@AAPAU10@@Z
_TEXT	SEGMENT
??$forward@AAPAU?$_Tree_node@U?$pair@$$CBKUSSkillDataPet@CPythonSkillPet@@@std@@PAX@std@@@std@@YAAAPAU?$_Tree_node@U?$pair@$$CBKUSSkillDataPet@CPythonSkillPet@@@std@@PAX@0@AAPAU10@@Z PROC ; std::forward<std::_Tree_node<std::pair<unsigned long const ,CPythonSkillPet::SSkillDataPet>,void *> * &>, COMDAT
; __Arg$ = ecx

; 1426 :     return static_cast<_Ty&&>(_Arg);

  00000	8b c1		 mov	 eax, ecx

; 1427 : }

  00002	c3		 ret	 0
??$forward@AAPAU?$_Tree_node@U?$pair@$$CBKUSSkillDataPet@CPythonSkillPet@@@std@@PAX@std@@@std@@YAAAPAU?$_Tree_node@U?$pair@$$CBKUSSkillDataPet@CPythonSkillPet@@@std@@PAX@0@AAPAU10@@Z ENDP ; std::forward<std::_Tree_node<std::pair<unsigned long const ,CPythonSkillPet::SSkillDataPet>,void *> * &>
_TEXT	ENDS
; Function compile flags: /Ogtp
; File C:\Program Files\Microsoft Visual Studio\2022\Community\VC\Tools\MSVC\14.34.31933\include\xutility
;	COMDAT ??$construct_at@PAU?$_Tree_node@U?$pair@$$CBKUSSkillDataPet@CPythonSkillPet@@@std@@PAX@std@@AAPAU12@$0A@@std@@YAPAPAU?$_Tree_node@U?$pair@$$CBKUSSkillDataPet@CPythonSkillPet@@@std@@PAX@0@QAPAU10@AAPAU10@@Z
_TEXT	SEGMENT
??$construct_at@PAU?$_Tree_node@U?$pair@$$CBKUSSkillDataPet@CPythonSkillPet@@@std@@PAX@std@@AAPAU12@$0A@@std@@YAPAPAU?$_Tree_node@U?$pair@$$CBKUSSkillDataPet@CPythonSkillPet@@@std@@PAX@0@QAPAU10@AAPAU10@@Z PROC ; std::construct_at<std::_Tree_node<std::pair<unsigned long const ,CPythonSkillPet::SSkillDataPet>,void *> *,std::_Tree_node<std::pair<unsigned long const ,CPythonSkillPet::SSkillDataPet>,void *> * &,0>, COMDAT
; __Location$ = ecx
; _<_Args_0>$ = edx

; 218  :     _MSVC_CONSTEXPR return ::new (_Voidify_iter(_Location)) _Ty(_STD forward<_Types>(_Args)...);

  00000	8b 02		 mov	 eax, DWORD PTR [edx]
  00002	89 01		 mov	 DWORD PTR [ecx], eax
  00004	8b c1		 mov	 eax, ecx

; 219  : }

  00006	c3		 ret	 0
??$construct_at@PAU?$_Tree_node@U?$pair@$$CBKUSSkillDataPet@CPythonSkillPet@@@std@@PAX@std@@AAPAU12@$0A@@std@@YAPAPAU?$_Tree_node@U?$pair@$$CBKUSSkillDataPet@CPythonSkillPet@@@std@@PAX@0@QAPAU10@AAPAU10@@Z ENDP ; std::construct_at<std::_Tree_node<std::pair<unsigned long const ,CPythonSkillPet::SSkillDataPet>,void *> *,std::_Tree_node<std::pair<unsigned long const ,CPythonSkillPet::SSkillDataPet>,void *> * &,0>
_TEXT	ENDS
; Function compile flags: /Ogtp
; File C:\Program Files\Microsoft Visual Studio\2022\Community\VC\Tools\MSVC\14.34.31933\include\xmemory
;	COMDAT ??$construct@U?$pair@$$CBKUSSkillDataPet@CPythonSkillPet@@@std@@U?$pair@KUSSkillDataPet@CPythonSkillPet@@@2@@?$_Default_allocator_traits@V?$allocator@U?$_Tree_node@U?$pair@$$CBKUSSkillDataPet@CPythonSkillPet@@@std@@PAX@std@@@std@@@std@@SAXAAV?$allocator@U?$_Tree_node@U?$pair@$$CBKUSSkillDataPet@CPythonSkillPet@@@std@@PAX@std@@@1@QAU?$pair@$$CBKUSSkillDataPet@CPythonSkillPet@@@1@$$QAU?$pair@KUSSkillDataPet@CPythonSkillPet@@@1@@Z
_TEXT	SEGMENT
_<_Args_0>$ = 8						; size = 4
??$construct@U?$pair@$$CBKUSSkillDataPet@CPythonSkillPet@@@std@@U?$pair@KUSSkillDataPet@CPythonSkillPet@@@2@@?$_Default_allocator_traits@V?$allocator@U?$_Tree_node@U?$pair@$$CBKUSSkillDataPet@CPythonSkillPet@@@std@@PAX@std@@@std@@@std@@SAXAAV?$allocator@U?$_Tree_node@U?$pair@$$CBKUSSkillDataPet@CPythonSkillPet@@@std@@PAX@std@@@1@QAU?$pair@$$CBKUSSkillDataPet@CPythonSkillPet@@@1@$$QAU?$pair@KUSSkillDataPet@CPythonSkillPet@@@1@@Z PROC ; std::_Default_allocator_traits<std::allocator<std::_Tree_node<std::pair<unsigned long const ,CPythonSkillPet::SSkillDataPet>,void *> > >::construct<std::pair<unsigned long const ,CPythonSkillPet::SSkillDataPet>,std::pair<unsigned long,CPythonSkillPet::SSkillDataPet> >, COMDAT
; ___formal$dead$ = ecx
; __Ptr$ = edx

; 673  :     static _CONSTEXPR20 void construct(_Alloc&, _Objty* const _Ptr, _Types&&... _Args) {

  00000	55		 push	 ebp
  00001	8b ec		 mov	 ebp, esp

; 674  : #if _HAS_CXX20
; 675  :         if (_STD is_constant_evaluated()) {
; 676  :             _STD construct_at(_Ptr, _STD forward<_Types>(_Args)...);
; 677  :         } else
; 678  : #endif // _HAS_CXX20
; 679  :         {
; 680  :             ::new (_Voidify_iter(_Ptr)) _Objty(_STD forward<_Types>(_Args)...);
; 681  :         }
; 682  :     }

  00003	8b 45 08	 mov	 eax, DWORD PTR _<_Args_0>$[ebp]
  00006	8d 4a 04	 lea	 ecx, DWORD PTR [edx+4]
  00009	56		 push	 esi
  0000a	8b 30		 mov	 esi, DWORD PTR [eax]
  0000c	83 c0 04	 add	 eax, 4
  0000f	50		 push	 eax
  00010	89 32		 mov	 DWORD PTR [edx], esi
  00012	e8 00 00 00 00	 call	 ??0SSkillDataPet@CPythonSkillPet@@QAE@$$QAU01@@Z
  00017	5e		 pop	 esi
  00018	5d		 pop	 ebp
  00019	c3		 ret	 0
??$construct@U?$pair@$$CBKUSSkillDataPet@CPythonSkillPet@@@std@@U?$pair@KUSSkillDataPet@CPythonSkillPet@@@2@@?$_Default_allocator_traits@V?$allocator@U?$_Tree_node@U?$pair@$$CBKUSSkillDataPet@CPythonSkillPet@@@std@@PAX@std@@@std@@@std@@SAXAAV?$allocator@U?$_Tree_node@U?$pair@$$CBKUSSkillDataPet@CPythonSkillPet@@@std@@PAX@std@@@1@QAU?$pair@$$CBKUSSkillDataPet@CPythonSkillPet@@@1@$$QAU?$pair@KUSSkillDataPet@CPythonSkillPet@@@1@@Z ENDP ; std::_Default_allocator_traits<std::allocator<std::_Tree_node<std::pair<unsigned long const ,CPythonSkillPet::SSkillDataPet>,void *> > >::construct<std::pair<unsigned long const ,CPythonSkillPet::SSkillDataPet>,std::pair<unsigned long,CPythonSkillPet::SSkillDataPet> >
_TEXT	ENDS
; Function compile flags: /Ogtp
; File C:\Program Files\Microsoft Visual Studio\2022\Community\VC\Tools\MSVC\14.34.31933\include\utility
;	COMDAT ??$?0V?$tuple@ABK@std@@V?$tuple@$$V@1@$0A@$$Z$S@?$pair@$$CBKUSSkillDataPet@CPythonSkillPet@@@std@@QAE@AAV?$tuple@ABK@1@AAV?$tuple@$$V@1@U?$integer_sequence@I$0A@@1@U?$integer_sequence@I$S@1@@Z
_TEXT	SEGMENT
_this$ = -4						; size = 4
__Val1$ = 8						; size = 4
__Val2$dead$ = 12					; size = 4
___formal$ = 16						; size = 1
___formal$ = 20						; size = 1
??$?0V?$tuple@ABK@std@@V?$tuple@$$V@1@$0A@$$Z$S@?$pair@$$CBKUSSkillDataPet@CPythonSkillPet@@@std@@QAE@AAV?$tuple@ABK@1@AAV?$tuple@$$V@1@U?$integer_sequence@I$0A@@1@U?$integer_sequence@I$S@1@@Z PROC ; std::pair<unsigned long const ,CPythonSkillPet::SSkillDataPet>::pair<unsigned long const ,CPythonSkillPet::SSkillDataPet><std::tuple<unsigned long const &>,std::tuple<>,0>, COMDAT
; _this$ = ecx

; 214  :         : first(_Tuple_get<_Indexes1>(_STD move(_Val1))...), second(_Tuple_get<_Indexes2>(_STD move(_Val2))...) {}

  00000	55		 push	 ebp
  00001	8b ec		 mov	 ebp, esp
  00003	51		 push	 ecx
  00004	8b 45 08	 mov	 eax, DWORD PTR __Val1$[ebp]
  00007	56		 push	 esi
  00008	8b f1		 mov	 esi, ecx
  0000a	89 75 fc	 mov	 DWORD PTR _this$[ebp], esi
  0000d	8b 00		 mov	 eax, DWORD PTR [eax]
  0000f	8d 4e 04	 lea	 ecx, DWORD PTR [esi+4]
  00012	8b 00		 mov	 eax, DWORD PTR [eax]
  00014	89 06		 mov	 DWORD PTR [esi], eax
  00016	e8 00 00 00 00	 call	 ??0SSkillDataPet@CPythonSkillPet@@QAE@XZ ; CPythonSkillPet::SSkillDataPet::SSkillDataPet
  0001b	8b c6		 mov	 eax, esi
  0001d	5e		 pop	 esi
  0001e	8b e5		 mov	 esp, ebp
  00020	5d		 pop	 ebp
  00021	c2 10 00	 ret	 16			; 00000010H
??$?0V?$tuple@ABK@std@@V?$tuple@$$V@1@$0A@$$Z$S@?$pair@$$CBKUSSkillDataPet@CPythonSkillPet@@@std@@QAE@AAV?$tuple@ABK@1@AAV?$tuple@$$V@1@U?$integer_sequence@I$0A@@1@U?$integer_sequence@I$S@1@@Z ENDP ; std::pair<unsigned long const ,CPythonSkillPet::SSkillDataPet>::pair<unsigned long const ,CPythonSkillPet::SSkillDataPet><std::tuple<unsigned long const &>,std::tuple<>,0>
_TEXT	ENDS
; Function compile flags: /Ogtp
; File C:\Program Files\Microsoft Visual Studio\2022\Community\VC\Tools\MSVC\14.34.31933\include\utility
;	COMDAT ??$?0KUSSkillDataPet@CPythonSkillPet@@$0A@@?$pair@$$CBKUSSkillDataPet@CPythonSkillPet@@@std@@QAE@$$QAU?$pair@KUSSkillDataPet@CPythonSkillPet@@@1@@Z
_TEXT	SEGMENT
__Right$ = 8						; size = 4
??$?0KUSSkillDataPet@CPythonSkillPet@@$0A@@?$pair@$$CBKUSSkillDataPet@CPythonSkillPet@@@std@@QAE@$$QAU?$pair@KUSSkillDataPet@CPythonSkillPet@@@1@@Z PROC ; std::pair<unsigned long const ,CPythonSkillPet::SSkillDataPet>::pair<unsigned long const ,CPythonSkillPet::SSkillDataPet><unsigned long,CPythonSkillPet::SSkillDataPet,0>, COMDAT
; _this$ = ecx

; 200  :         : first(_STD forward<_Other1>(_Right.first)), second(_STD forward<_Other2>(_Right.second)) {}

  00000	55		 push	 ebp
  00001	8b ec		 mov	 ebp, esp
  00003	8b 55 08	 mov	 edx, DWORD PTR __Right$[ebp]
  00006	56		 push	 esi
  00007	8b f1		 mov	 esi, ecx
  00009	8b 02		 mov	 eax, DWORD PTR [edx]
  0000b	89 06		 mov	 DWORD PTR [esi], eax
  0000d	8d 4e 04	 lea	 ecx, DWORD PTR [esi+4]
  00010	8d 42 04	 lea	 eax, DWORD PTR [edx+4]
  00013	50		 push	 eax
  00014	e8 00 00 00 00	 call	 ??0SSkillDataPet@CPythonSkillPet@@QAE@$$QAU01@@Z
  00019	8b c6		 mov	 eax, esi
  0001b	5e		 pop	 esi
  0001c	5d		 pop	 ebp
  0001d	c2 04 00	 ret	 4
??$?0KUSSkillDataPet@CPythonSkillPet@@$0A@@?$pair@$$CBKUSSkillDataPet@CPythonSkillPet@@@std@@QAE@$$QAU?$pair@KUSSkillDataPet@CPythonSkillPet@@@1@@Z ENDP ; std::pair<unsigned long const ,CPythonSkillPet::SSkillDataPet>::pair<unsigned long const ,CPythonSkillPet::SSkillDataPet><unsigned long,CPythonSkillPet::SSkillDataPet,0>
_TEXT	ENDS
; Function compile flags: /Ogtp
; File C:\Program Files\Microsoft Visual Studio\2022\Community\VC\Tools\MSVC\14.34.31933\include\xutility
; File C:\Program Files\Microsoft Visual Studio\2022\Community\VC\Tools\MSVC\14.34.31933\include\utility
; File C:\Program Files\Microsoft Visual Studio\2022\Community\VC\Tools\MSVC\14.34.31933\include\xutility
; File C:\Program Files\Microsoft Visual Studio\2022\Community\VC\Tools\MSVC\14.34.31933\include\utility
; File C:\Program Files\Microsoft Visual Studio\2022\Community\VC\Tools\MSVC\14.34.31933\include\xutility
;	COMDAT ??$construct_at@U?$pair@$$CBKUSSkillDataPet@CPythonSkillPet@@@std@@U?$pair@KUSSkillDataPet@CPythonSkillPet@@@2@$0A@@std@@YAPAU?$pair@$$CBKUSSkillDataPet@CPythonSkillPet@@@0@QAU10@$$QAU?$pair@KUSSkillDataPet@CPythonSkillPet@@@0@@Z
_TEXT	SEGMENT
??$construct_at@U?$pair@$$CBKUSSkillDataPet@CPythonSkillPet@@@std@@U?$pair@KUSSkillDataPet@CPythonSkillPet@@@2@$0A@@std@@YAPAU?$pair@$$CBKUSSkillDataPet@CPythonSkillPet@@@0@QAU10@$$QAU?$pair@KUSSkillDataPet@CPythonSkillPet@@@0@@Z PROC ; std::construct_at<std::pair<unsigned long const ,CPythonSkillPet::SSkillDataPet>,std::pair<unsigned long,CPythonSkillPet::SSkillDataPet>,0>, COMDAT
; __Location$ = ecx
; _<_Args_0>$ = edx
; File C:\Program Files\Microsoft Visual Studio\2022\Community\VC\Tools\MSVC\14.34.31933\include\utility

; 200  :         : first(_STD forward<_Other1>(_Right.first)), second(_STD forward<_Other2>(_Right.second)) {}

  00000	8b 02		 mov	 eax, DWORD PTR [edx]
; File C:\Program Files\Microsoft Visual Studio\2022\Community\VC\Tools\MSVC\14.34.31933\include\xutility

; 217  :     noexcept(::new (_Voidify_iter(_Location)) _Ty(_STD forward<_Types>(_Args)...))) /* strengthened */ {

  00002	56		 push	 esi
  00003	8b f1		 mov	 esi, ecx
; File C:\Program Files\Microsoft Visual Studio\2022\Community\VC\Tools\MSVC\14.34.31933\include\utility

; 200  :         : first(_STD forward<_Other1>(_Right.first)), second(_STD forward<_Other2>(_Right.second)) {}

  00005	89 06		 mov	 DWORD PTR [esi], eax
  00007	8d 4e 04	 lea	 ecx, DWORD PTR [esi+4]
  0000a	8d 42 04	 lea	 eax, DWORD PTR [edx+4]
  0000d	50		 push	 eax
  0000e	e8 00 00 00 00	 call	 ??0SSkillDataPet@CPythonSkillPet@@QAE@$$QAU01@@Z
; File C:\Program Files\Microsoft Visual Studio\2022\Community\VC\Tools\MSVC\14.34.31933\include\xutility

; 218  :     _MSVC_CONSTEXPR return ::new (_Voidify_iter(_Location)) _Ty(_STD forward<_Types>(_Args)...);

  00013	8b c6		 mov	 eax, esi
  00015	5e		 pop	 esi

; 219  : }

  00016	c3		 ret	 0
??$construct_at@U?$pair@$$CBKUSSkillDataPet@CPythonSkillPet@@@std@@U?$pair@KUSSkillDataPet@CPythonSkillPet@@@2@$0A@@std@@YAPAU?$pair@$$CBKUSSkillDataPet@CPythonSkillPet@@@0@QAU10@$$QAU?$pair@KUSSkillDataPet@CPythonSkillPet@@@0@@Z ENDP ; std::construct_at<std::pair<unsigned long const ,CPythonSkillPet::SSkillDataPet>,std::pair<unsigned long,CPythonSkillPet::SSkillDataPet>,0>
_TEXT	ENDS
END
