; Listing generated by Microsoft (R) Optimizing Compiler Version 19.34.31937.0 

	TITLE	e:\metin2_server\solwaynesf v6\clientvs22\vs_files\userinterface\distribute\pythonnetworkstreamphasegameitem.obj
	.686P
	.XMM
	include listing.inc
	.model	flat

INCLUDELIB OLDNAMES

PUBLIC	??_C@_0BC@GDFDGKCD@OpenSafeboxWindow@		; `string'
PUBLIC	??_C@_0P@BMBKKGBC@OnSafeBoxError@		; `string'
PUBLIC	??_C@_0P@OIFPJOPL@OpenMallWindow@		; `string'
PUBLIC	??_C@_0BE@OHCDIKPF@RefreshSafeboxMoney@		; `string'
PUBLIC	??_C@_0BG@ELBKFGDM@BINARY_Highlight_Item@	; `string'
PUBLIC	??_C@_0DB@JMGJIAKF@?5?$DO?$DO?5CPythonNetworkStream?3?3RecvM@ ; `string'
PUBLIC	??_C@_0BJ@GJICJJME@SendShopBuyPacket?5Error?6@	; `string'
PUBLIC	??_C@_0BJ@ENIABNOP@SendShopEndPacket?5Error?6@	; `string'
PUBLIC	??_C@_0BN@PEGCCLIG@SendShopAddSellPacket?5Error?6@ ; `string'
PUBLIC	??_C@_0BK@NFAAJDME@SendShopSellPacket?5Error?6@	; `string'
PUBLIC	??_C@_0BG@KBOLGOPL@CANNOT_EQUIP_EXCHANGE@	; `string'
PUBLIC	??_C@_0CP@FAIPFIGP@?5SendShopSellPacketNew?$CIbySlot?$DN?$CF@ ; `string'
PUBLIC	??_C@_0BC@GKDHAPBC@CANNOT_EQUIP_SHOP@		; `string'
PUBLIC	??_C@_0BL@HGBMODPD@BINARY_AppendNotifyMessage@	; `string'
PUBLIC	??_C@_0BO@FFKONCIG@SendItemUseToItemPacket?5Error@ ; `string'
PUBLIC	??_C@_0BI@ECNPLDED@SendItemUsePacket?5Error@	; `string'
PUBLIC	??_C@_0BM@ICMBBAFL@SendItemDestroyPacket?5Error@ ; `string'
PUBLIC	??_C@_0BJ@OIBPCJHH@SendItemDropPacket?5Error@	; `string'
PUBLIC	??_C@_0BL@DCHNPPOD@SendItemPickUpPacket?5Error@	; `string'
PUBLIC	??_C@_0BJ@LGMFALEM@SendItemMovePacket?5Error@	; `string'
PUBLIC	??_C@_0BN@BNCAGMGN@SendQuickSlotDelPacket?5Error@ ; `string'
PUBLIC	??_C@_0BN@ONNLHEKF@SendQuickSlotAddPacket?5Error@ ; `string'
PUBLIC	??_C@_0DL@PLJBBCEI@?$CFd?5?$LE?B?5?$LO?x?$LE?B?5?$LN?$LK?F?d?$LM?H?5?$MA?L?F?e?F?$KO?5?$LJ?x?H?$KD?$MA?T@ ; `string'
PUBLIC	??_C@_0BO@MHEMOJBJ@SendQuickSlotSwapPacket?5Error@ ; `string'
PUBLIC	??_C@_0CJ@JCBKPBPN@BINARY_DragonSoulRefineWindow_R@ ; `string'
PUBLIC	??_C@_0CD@JEDDBPLN@BINARY_DragonSoulRefineWindow_O@ ; `string'
PUBLIC	??_C@_0CM@IKKNFKOL@BINARY_DragonSoulRefineWindow_R@ ; `string'
PUBLIC	?ms_singleton@?$CSingleton@VCPythonSafeBox@@@@0PAVCPythonSafeBox@@A ; CSingleton<CPythonSafeBox>::ms_singleton
;	COMDAT ?ms_singleton@?$CSingleton@VCPythonSafeBox@@@@0PAVCPythonSafeBox@@A
_BSS	SEGMENT
?ms_singleton@?$CSingleton@VCPythonSafeBox@@@@0PAVCPythonSafeBox@@A DD 01H DUP (?) ; CSingleton<CPythonSafeBox>::ms_singleton
_BSS	ENDS
;	COMDAT ??_C@_0CM@IKKNFKOL@BINARY_DragonSoulRefineWindow_R@
CONST	SEGMENT
??_C@_0CM@IKKNFKOL@BINARY_DragonSoulRefineWindow_R@ DB 'BINARY_DragonSoul'
	DB	'RefineWindow_RefineSucceed', 00H		; `string'
CONST	ENDS
;	COMDAT ??_C@_0CD@JEDDBPLN@BINARY_DragonSoulRefineWindow_O@
CONST	SEGMENT
??_C@_0CD@JEDDBPLN@BINARY_DragonSoulRefineWindow_O@ DB 'BINARY_DragonSoul'
	DB	'RefineWindow_Open', 00H			; `string'
CONST	ENDS
;	COMDAT ??_C@_0CJ@JCBKPBPN@BINARY_DragonSoulRefineWindow_R@
CONST	SEGMENT
??_C@_0CJ@JCBKPBPN@BINARY_DragonSoulRefineWindow_R@ DB 'BINARY_DragonSoul'
	DB	'RefineWindow_RefineFail', 00H		; `string'
CONST	ENDS
;	COMDAT ??_C@_0BO@MHEMOJBJ@SendQuickSlotSwapPacket?5Error@
CONST	SEGMENT
??_C@_0BO@MHEMOJBJ@SendQuickSlotSwapPacket?5Error@ DB 'SendQuickSlotSwapP'
	DB	'acket Error', 00H				; `string'
CONST	ENDS
;	COMDAT ??_C@_0DL@PLJBBCEI@?$CFd?5?$LE?B?5?$LO?x?$LE?B?5?$LN?$LK?F?d?$LM?H?5?$MA?L?F?e?F?$KO?5?$LJ?x?H?$KD?$MA?T@
CONST	SEGMENT
??_C@_0DL@PLJBBCEI@?$CFd?5?$LE?B?5?$LO?x?$LE?B?5?$LN?$LK?F?d?$LM?H?5?$MA?L?F?e?F?$KO?5?$LJ?x?H?$KD?$MA?T@ DB '%'
	DB	'd ', 0b4H, 0c2H, ' ', 0beH, 0f8H, 0b4H, 0c2H, ' ', 0bdH, 0baH
	DB	0c6H, 0e4H, 0bcH, 0c8H, ' ', 0c0H, 0ccH, 0c6H, 0e5H, 0c6H, 0aeH
	DB	' ', 0b9H, 0f8H, 0c8H, 0a3H, 0c0H, 0d4H, 0b4H, 0cfH, 0b4H, 0d9H
	DB	'.TPacketGCSpecialEffect', 00H		; `string'
CONST	ENDS
;	COMDAT ??_C@_0BN@ONNLHEKF@SendQuickSlotAddPacket?5Error@
CONST	SEGMENT
??_C@_0BN@ONNLHEKF@SendQuickSlotAddPacket?5Error@ DB 'SendQuickSlotAddPac'
	DB	'ket Error', 00H				; `string'
CONST	ENDS
;	COMDAT ??_C@_0BN@BNCAGMGN@SendQuickSlotDelPacket?5Error@
CONST	SEGMENT
??_C@_0BN@BNCAGMGN@SendQuickSlotDelPacket?5Error@ DB 'SendQuickSlotDelPac'
	DB	'ket Error', 00H				; `string'
CONST	ENDS
;	COMDAT ??_C@_0BJ@LGMFALEM@SendItemMovePacket?5Error@
CONST	SEGMENT
??_C@_0BJ@LGMFALEM@SendItemMovePacket?5Error@ DB 'SendItemMovePacket Erro'
	DB	'r', 00H					; `string'
CONST	ENDS
;	COMDAT ??_C@_0BL@DCHNPPOD@SendItemPickUpPacket?5Error@
CONST	SEGMENT
??_C@_0BL@DCHNPPOD@SendItemPickUpPacket?5Error@ DB 'SendItemPickUpPacket '
	DB	'Error', 00H					; `string'
CONST	ENDS
;	COMDAT ??_C@_0BJ@OIBPCJHH@SendItemDropPacket?5Error@
CONST	SEGMENT
??_C@_0BJ@OIBPCJHH@SendItemDropPacket?5Error@ DB 'SendItemDropPacket Erro'
	DB	'r', 00H					; `string'
CONST	ENDS
;	COMDAT ??_C@_0BM@ICMBBAFL@SendItemDestroyPacket?5Error@
CONST	SEGMENT
??_C@_0BM@ICMBBAFL@SendItemDestroyPacket?5Error@ DB 'SendItemDestroyPacke'
	DB	't Error', 00H				; `string'
CONST	ENDS
;	COMDAT ??_C@_0BI@ECNPLDED@SendItemUsePacket?5Error@
CONST	SEGMENT
??_C@_0BI@ECNPLDED@SendItemUsePacket?5Error@ DB 'SendItemUsePacket Error', 00H ; `string'
CONST	ENDS
;	COMDAT ??_C@_0BO@FFKONCIG@SendItemUseToItemPacket?5Error@
CONST	SEGMENT
??_C@_0BO@FFKONCIG@SendItemUseToItemPacket?5Error@ DB 'SendItemUseToItemP'
	DB	'acket Error', 00H				; `string'
CONST	ENDS
;	COMDAT ??_C@_0BL@HGBMODPD@BINARY_AppendNotifyMessage@
CONST	SEGMENT
??_C@_0BL@HGBMODPD@BINARY_AppendNotifyMessage@ DB 'BINARY_AppendNotifyMes'
	DB	'sage', 00H					; `string'
CONST	ENDS
;	COMDAT ??_C@_0BC@GKDHAPBC@CANNOT_EQUIP_SHOP@
CONST	SEGMENT
??_C@_0BC@GKDHAPBC@CANNOT_EQUIP_SHOP@ DB 'CANNOT_EQUIP_SHOP', 00H ; `string'
CONST	ENDS
;	COMDAT ??_C@_0CP@FAIPFIGP@?5SendShopSellPacketNew?$CIbySlot?$DN?$CF@
CONST	SEGMENT
??_C@_0CP@FAIPFIGP@?5SendShopSellPacketNew?$CIbySlot?$DN?$CF@ DB ' SendSh'
	DB	'opSellPacketNew(bySlot=%d, byCount=%d)', 0aH, 00H ; `string'
CONST	ENDS
;	COMDAT ??_C@_0BG@KBOLGOPL@CANNOT_EQUIP_EXCHANGE@
CONST	SEGMENT
??_C@_0BG@KBOLGOPL@CANNOT_EQUIP_EXCHANGE@ DB 'CANNOT_EQUIP_EXCHANGE', 00H ; `string'
CONST	ENDS
;	COMDAT ??_C@_0BK@NFAAJDME@SendShopSellPacket?5Error?6@
CONST	SEGMENT
??_C@_0BK@NFAAJDME@SendShopSellPacket?5Error?6@ DB 'SendShopSellPacket Er'
	DB	'ror', 0aH, 00H				; `string'
CONST	ENDS
;	COMDAT ??_C@_0BN@PEGCCLIG@SendShopAddSellPacket?5Error?6@
CONST	SEGMENT
??_C@_0BN@PEGCCLIG@SendShopAddSellPacket?5Error?6@ DB 'SendShopAddSellPac'
	DB	'ket Error', 0aH, 00H			; `string'
CONST	ENDS
;	COMDAT ??_C@_0BJ@ENIABNOP@SendShopEndPacket?5Error?6@
CONST	SEGMENT
??_C@_0BJ@ENIABNOP@SendShopEndPacket?5Error?6@ DB 'SendShopEndPacket Erro'
	DB	'r', 0aH, 00H				; `string'
CONST	ENDS
;	COMDAT ??_C@_0BJ@GJICJJME@SendShopBuyPacket?5Error?6@
CONST	SEGMENT
??_C@_0BJ@GJICJJME@SendShopBuyPacket?5Error?6@ DB 'SendShopBuyPacket Erro'
	DB	'r', 0aH, 00H				; `string'
CONST	ENDS
;	COMDAT ??_C@_0DB@JMGJIAKF@?5?$DO?$DO?5CPythonNetworkStream?3?3RecvM@
CONST	SEGMENT
??_C@_0DB@JMGJIAKF@?5?$DO?$DO?5CPythonNetworkStream?3?3RecvM@ DB ' >> CPy'
	DB	'thonNetworkStream::RecvMallItemDelPacket', 0aH, 00H ; `string'
CONST	ENDS
;	COMDAT ??_C@_0BG@ELBKFGDM@BINARY_Highlight_Item@
CONST	SEGMENT
??_C@_0BG@ELBKFGDM@BINARY_Highlight_Item@ DB 'BINARY_Highlight_Item', 00H ; `string'
CONST	ENDS
;	COMDAT ??_C@_0BE@OHCDIKPF@RefreshSafeboxMoney@
CONST	SEGMENT
??_C@_0BE@OHCDIKPF@RefreshSafeboxMoney@ DB 'RefreshSafeboxMoney', 00H ; `string'
CONST	ENDS
;	COMDAT ??_C@_0P@OIFPJOPL@OpenMallWindow@
CONST	SEGMENT
??_C@_0P@OIFPJOPL@OpenMallWindow@ DB 'OpenMallWindow', 00H ; `string'
CONST	ENDS
;	COMDAT ??_C@_0P@BMBKKGBC@OnSafeBoxError@
CONST	SEGMENT
??_C@_0P@BMBKKGBC@OnSafeBoxError@ DB 'OnSafeBoxError', 00H ; `string'
CONST	ENDS
;	COMDAT ??_C@_0BC@GDFDGKCD@OpenSafeboxWindow@
CONST	SEGMENT
??_C@_0BC@GDFDGKCD@OpenSafeboxWindow@ DB 'OpenSafeboxWindow', 00H ; `string'
PUBLIC	?IsEquipCell@SItemPos@@QAE_NXZ			; SItemPos::IsEquipCell
PUBLIC	?Instance@?$CSingleton@VCPythonSafeBox@@@@SAAAVCPythonSafeBox@@XZ ; CSingleton<CPythonSafeBox>::Instance
PUBLIC	?SendQuickSlotMovePacket@CPythonNetworkStream@@QAE_NEE@Z ; CPythonNetworkStream::SendQuickSlotMovePacket
PUBLIC	?SendQuickSlotDelPacket@CPythonNetworkStream@@QAE_NE@Z ; CPythonNetworkStream::SendQuickSlotDelPacket
PUBLIC	?SendQuickSlotAddPacket@CPythonNetworkStream@@QAE_NEEE@Z ; CPythonNetworkStream::SendQuickSlotAddPacket
PUBLIC	?__PlayMallItemDropSound@CPythonNetworkStream@@IAEXI@Z ; CPythonNetworkStream::__PlayMallItemDropSound
PUBLIC	?__PlaySafeBoxItemDropSound@CPythonNetworkStream@@IAEXI@Z ; CPythonNetworkStream::__PlaySafeBoxItemDropSound
PUBLIC	?__PlayInventoryItemDropSound@CPythonNetworkStream@@IAEXUSItemPos@@@Z ; CPythonNetworkStream::__PlayInventoryItemDropSound
PUBLIC	?__PlayInventoryItemUseSound@CPythonNetworkStream@@IAEXUSItemPos@@@Z ; CPythonNetworkStream::__PlayInventoryItemUseSound
PUBLIC	?__IsEquipItemInSlot@CPythonNetworkStream@@IAE_NUSItemPos@@@Z ; CPythonNetworkStream::__IsEquipItemInSlot
PUBLIC	??0command_item_destroy@@QAE@XZ			; command_item_destroy::command_item_destroy
PUBLIC	??0command_item_drop2@@QAE@XZ			; command_item_drop2::command_item_drop2
PUBLIC	??0command_item_drop@@QAE@XZ			; command_item_drop::command_item_drop
PUBLIC	??0command_item_use_to_item@@QAE@XZ		; command_item_use_to_item::command_item_use_to_item
PUBLIC	??0command_item_use@@QAE@XZ			; command_item_use::command_item_use
PUBLIC	??0packet_update_item@@QAE@XZ			; packet_update_item::packet_update_item
PUBLIC	??0packet_use_item@@QAE@XZ			; packet_use_item::packet_use_item
PUBLIC	??0packet_set_item@@QAE@XZ			; packet_set_item::packet_set_item
PUBLIC	??0command_mall_checkout@@QAE@XZ		; command_mall_checkout::command_mall_checkout
PUBLIC	??0packet_set_item2@@QAE@XZ			; packet_set_item2::packet_set_item2
PUBLIC	??0command_item_move@@QAE@XZ			; command_item_move::command_item_move
PUBLIC	??0command_safebox_checkout@@QAE@XZ		; command_safebox_checkout::command_safebox_checkout
PUBLIC	??0command_safebox_checkin@@QAE@XZ		; command_safebox_checkin::command_safebox_checkin
PUBLIC	??0SPacketGCDragonSoulRefine@@QAE@XZ		; SPacketGCDragonSoulRefine::SPacketGCDragonSoulRefine
PUBLIC	?RecvItemSetPacket@CPythonNetworkStream@@IAE_NXZ ; CPythonNetworkStream::RecvItemSetPacket
PUBLIC	?RecvItemSetPacket2@CPythonNetworkStream@@IAE_NXZ ; CPythonNetworkStream::RecvItemSetPacket2
PUBLIC	?RecvItemUsePacket@CPythonNetworkStream@@IAE_NXZ ; CPythonNetworkStream::RecvItemUsePacket
PUBLIC	?RecvItemUpdatePacket@CPythonNetworkStream@@IAE_NXZ ; CPythonNetworkStream::RecvItemUpdatePacket
PUBLIC	?RecvItemGroundAddPacket@CPythonNetworkStream@@IAE_NXZ ; CPythonNetworkStream::RecvItemGroundAddPacket
PUBLIC	?RecvItemGroundDelPacket@CPythonNetworkStream@@IAE_NXZ ; CPythonNetworkStream::RecvItemGroundDelPacket
PUBLIC	?RecvItemOwnership@CPythonNetworkStream@@IAE_NXZ ; CPythonNetworkStream::RecvItemOwnership
PUBLIC	?RecvQuickSlotAddPacket@CPythonNetworkStream@@IAE_NXZ ; CPythonNetworkStream::RecvQuickSlotAddPacket
PUBLIC	?RecvQuickSlotDelPacket@CPythonNetworkStream@@IAE_NXZ ; CPythonNetworkStream::RecvQuickSlotDelPacket
PUBLIC	?RecvQuickSlotMovePacket@CPythonNetworkStream@@IAE_NXZ ; CPythonNetworkStream::RecvQuickSlotMovePacket
PUBLIC	?RecvSafeBoxSetPacket@CPythonNetworkStream@@IAE_NXZ ; CPythonNetworkStream::RecvSafeBoxSetPacket
PUBLIC	?RecvSafeBoxDelPacket@CPythonNetworkStream@@IAE_NXZ ; CPythonNetworkStream::RecvSafeBoxDelPacket
PUBLIC	?RecvSafeBoxWrongPasswordPacket@CPythonNetworkStream@@IAE_NXZ ; CPythonNetworkStream::RecvSafeBoxWrongPasswordPacket
PUBLIC	?RecvSafeBoxSizePacket@CPythonNetworkStream@@IAE_NXZ ; CPythonNetworkStream::RecvSafeBoxSizePacket
PUBLIC	?RecvSafeBoxMoneyChangePacket@CPythonNetworkStream@@IAE_NXZ ; CPythonNetworkStream::RecvSafeBoxMoneyChangePacket
PUBLIC	?RecvSpecialEffect@CPythonNetworkStream@@IAE_NXZ ; CPythonNetworkStream::RecvSpecialEffect
PUBLIC	?RecvMallOpenPacket@CPythonNetworkStream@@QAE_NXZ ; CPythonNetworkStream::RecvMallOpenPacket
PUBLIC	?RecvMallItemSetPacket@CPythonNetworkStream@@QAE_NXZ ; CPythonNetworkStream::RecvMallItemSetPacket
PUBLIC	?RecvMallItemDelPacket@CPythonNetworkStream@@QAE_NXZ ; CPythonNetworkStream::RecvMallItemDelPacket
PUBLIC	?RecvSpecificEffect@CPythonNetworkStream@@IAE_NXZ ; CPythonNetworkStream::RecvSpecificEffect
PUBLIC	?RecvDragonSoulRefine@CPythonNetworkStream@@IAE_NXZ ; CPythonNetworkStream::RecvDragonSoulRefine
PUBLIC	?SendItemUsePacket@CPythonNetworkStream@@QAE_NUSItemPos@@@Z ; CPythonNetworkStream::SendItemUsePacket
PUBLIC	?SendItemUseToItemPacket@CPythonNetworkStream@@QAE_NUSItemPos@@0@Z ; CPythonNetworkStream::SendItemUseToItemPacket
PUBLIC	?SendItemDropPacket@CPythonNetworkStream@@QAE_NUSItemPos@@K@Z ; CPythonNetworkStream::SendItemDropPacket
PUBLIC	?SendItemDestroyPacket@CPythonNetworkStream@@QAE_NUSItemPos@@@Z ; CPythonNetworkStream::SendItemDestroyPacket
PUBLIC	?SendItemDropPacketNew@CPythonNetworkStream@@QAE_NUSItemPos@@KK@Z ; CPythonNetworkStream::SendItemDropPacketNew
PUBLIC	?SendItemMovePacket@CPythonNetworkStream@@QAE_NUSItemPos@@0E@Z ; CPythonNetworkStream::SendItemMovePacket
PUBLIC	?SendItemPickUpPacket@CPythonNetworkStream@@QAE_NK@Z ; CPythonNetworkStream::SendItemPickUpPacket
PUBLIC	?SendShopEndPacket@CPythonNetworkStream@@QAE_NXZ ; CPythonNetworkStream::SendShopEndPacket
PUBLIC	?SendShopBuyPacket@CPythonNetworkStream@@QAE_NE@Z ; CPythonNetworkStream::SendShopBuyPacket
PUBLIC	?SendShopSellPacket@CPythonNetworkStream@@QAE_NE@Z ; CPythonNetworkStream::SendShopSellPacket
PUBLIC	?SendShopSellPacketNew@CPythonNetworkStream@@QAE_NEE@Z ; CPythonNetworkStream::SendShopSellPacketNew
PUBLIC	?SendSafeBoxMoneyPacket@CPythonNetworkStream@@QAE_NEK@Z ; CPythonNetworkStream::SendSafeBoxMoneyPacket
PUBLIC	?SendSafeBoxCheckinPacket@CPythonNetworkStream@@QAE_NUSItemPos@@E@Z ; CPythonNetworkStream::SendSafeBoxCheckinPacket
PUBLIC	?SendSafeBoxCheckoutPacket@CPythonNetworkStream@@QAE_NEUSItemPos@@@Z ; CPythonNetworkStream::SendSafeBoxCheckoutPacket
PUBLIC	?SendSafeBoxItemMovePacket@CPythonNetworkStream@@QAE_NEEE@Z ; CPythonNetworkStream::SendSafeBoxItemMovePacket
PUBLIC	?SendMallCheckoutPacket@CPythonNetworkStream@@QAE_NEUSItemPos@@@Z ; CPythonNetworkStream::SendMallCheckoutPacket
; Function compile flags: /Ogtp
; File E:\Metin2_server\SolWayneSF v6\ClientVS22\source\UserInterface\PythonNetworkStreamPhaseGameItem.cpp
;	COMDAT ?SendMallCheckoutPacket@CPythonNetworkStream@@QAE_NEUSItemPos@@@Z
_TEXT	SEGMENT
_kMallCheckoutPacket$ = -8				; size = 5
_byMallPos$ = 8						; size = 1
_InventoryPos$ = 12					; size = 3
?SendMallCheckoutPacket@CPythonNetworkStream@@QAE_NEUSItemPos@@@Z PROC ; CPythonNetworkStream::SendMallCheckoutPacket, COMDAT
; _this$ = ecx

; 150  : {

  00000	55		 push	 ebp
  00001	8b ec		 mov	 ebp, esp
  00003	83 ec 08	 sub	 esp, 8
  00006	53		 push	 ebx

; 151  : 	__PlayMallItemDropSound(byMallPos);

  00007	8a 5d 08	 mov	 bl, BYTE PTR _byMallPos$[ebp]
  0000a	56		 push	 esi
  0000b	0f b6 c3	 movzx	 eax, bl
  0000e	8b f1		 mov	 esi, ecx
  00010	50		 push	 eax
  00011	e8 00 00 00 00	 call	 ?__PlayMallItemDropSound@CPythonNetworkStream@@IAEXI@Z ; CPythonNetworkStream::__PlayMallItemDropSound

; 152  : 
; 153  : 	TPacketCGMallCheckout kMallCheckoutPacket;
; 154  : 	kMallCheckoutPacket.bHeader = HEADER_CG_MALL_CHECKOUT;
; 155  : 	kMallCheckoutPacket.bMallPos = byMallPos;
; 156  : 	kMallCheckoutPacket.ItemPos = InventoryPos;

  00016	66 8b 45 0c	 mov	 ax, WORD PTR _InventoryPos$[ebp]

; 157  : 	if (!Send(sizeof(kMallCheckoutPacket), &kMallCheckoutPacket))

  0001a	8b ce		 mov	 ecx, esi
  0001c	66 89 45 fa	 mov	 WORD PTR _kMallCheckoutPacket$[ebp+2], ax
  00020	8a 45 0e	 mov	 al, BYTE PTR _InventoryPos$[ebp+2]
  00023	88 45 fc	 mov	 BYTE PTR _kMallCheckoutPacket$[ebp+4], al
  00026	8d 45 f8	 lea	 eax, DWORD PTR _kMallCheckoutPacket$[ebp]
  00029	50		 push	 eax
  0002a	6a 05		 push	 5
  0002c	c6 45 f8 45	 mov	 BYTE PTR _kMallCheckoutPacket$[ebp], 69 ; 00000045H
  00030	88 5d f9	 mov	 BYTE PTR _kMallCheckoutPacket$[ebp+1], bl
  00033	e8 00 00 00 00	 call	 ?Send@CNetworkStream@@QAE_NHPBX@Z ; CNetworkStream::Send
  00038	84 c0		 test	 al, al
  0003a	75 08		 jne	 SHORT $LN2@SendMallCh

; 161  : }

  0003c	5e		 pop	 esi
  0003d	5b		 pop	 ebx
  0003e	8b e5		 mov	 esp, ebp
  00040	5d		 pop	 ebp
  00041	c2 08 00	 ret	 8
$LN2@SendMallCh:

; 158  : 		return false;
; 159  : 
; 160  : 	return SendSequence();

  00044	8b ce		 mov	 ecx, esi
  00046	e8 00 00 00 00	 call	 ?SendSequence@CNetworkStream@@QAE_NXZ ; CNetworkStream::SendSequence
  0004b	5e		 pop	 esi

; 161  : }

  0004c	5b		 pop	 ebx
  0004d	8b e5		 mov	 esp, ebp
  0004f	5d		 pop	 ebp
  00050	c2 08 00	 ret	 8
?SendMallCheckoutPacket@CPythonNetworkStream@@QAE_NEUSItemPos@@@Z ENDP ; CPythonNetworkStream::SendMallCheckoutPacket
_TEXT	ENDS
; Function compile flags: /Ogtp
; File E:\Metin2_server\SolWayneSF v6\ClientVS22\source\UserInterface\PythonNetworkStreamPhaseGameItem.cpp
;	COMDAT ?SendSafeBoxItemMovePacket@CPythonNetworkStream@@QAE_NEEE@Z
_TEXT	SEGMENT
_kItemMove$ = -8					; size = 8
_bySourcePos$ = 8					; size = 1
_byTargetPos$ = 12					; size = 1
_byCount$ = 16						; size = 1
?SendSafeBoxItemMovePacket@CPythonNetworkStream@@QAE_NEEE@Z PROC ; CPythonNetworkStream::SendSafeBoxItemMovePacket, COMDAT
; _this$ = ecx

; 58   : {

  00000	55		 push	 ebp
  00001	8b ec		 mov	 ebp, esp
  00003	83 ec 08	 sub	 esp, 8

; 59   : 	__PlaySafeBoxItemDropSound(bySourcePos);

  00006	0f b6 45 08	 movzx	 eax, BYTE PTR _bySourcePos$[ebp]
  0000a	53		 push	 ebx
  0000b	56		 push	 esi
  0000c	50		 push	 eax
  0000d	8b f1		 mov	 esi, ecx
  0000f	e8 00 00 00 00	 call	 ?__PlaySafeBoxItemDropSound@CPythonNetworkStream@@IAEXI@Z ; CPythonNetworkStream::__PlaySafeBoxItemDropSound

; 60   : 
; 61   : 	TPacketCGItemMove kItemMove;
; 62   : 	kItemMove.header = HEADER_CG_SAFEBOX_ITEM_MOVE;
; 63   : 	kItemMove.pos = TItemPos(INVENTORY, bySourcePos);

  00014	0f b6 45 08	 movzx	 eax, BYTE PTR _bySourcePos$[ebp]

; 64   : 	kItemMove.num = byCount;
; 65   : 	kItemMove.change_pos = TItemPos(INVENTORY, byTargetPos);
; 66   : 	if (!Send(sizeof(kItemMove), &kItemMove))

  00018	8b ce		 mov	 ecx, esi
  0001a	66 89 45 fa	 mov	 WORD PTR _kItemMove$[ebp+2], ax
  0001e	8a 45 10	 mov	 al, BYTE PTR _byCount$[ebp]
  00021	88 45 ff	 mov	 BYTE PTR _kItemMove$[ebp+7], al
  00024	0f b6 45 0c	 movzx	 eax, BYTE PTR _byTargetPos$[ebp]
  00028	66 89 45 fd	 mov	 WORD PTR _kItemMove$[ebp+5], ax
  0002c	8d 45 f8	 lea	 eax, DWORD PTR _kItemMove$[ebp]
  0002f	50		 push	 eax
  00030	6a 08		 push	 8
  00032	66 c7 45 f8 4d
	01		 mov	 WORD PTR _kItemMove$[ebp], 333 ; 0000014dH
  00038	c6 45 fc 01	 mov	 BYTE PTR _kItemMove$[ebp+4], 1
  0003c	e8 00 00 00 00	 call	 ?Send@CNetworkStream@@QAE_NHPBX@Z ; CNetworkStream::Send
  00041	84 c0		 test	 al, al
  00043	75 08		 jne	 SHORT $LN2@SendSafeBo

; 70   : }

  00045	5e		 pop	 esi
  00046	5b		 pop	 ebx
  00047	8b e5		 mov	 esp, ebp
  00049	5d		 pop	 ebp
  0004a	c2 0c 00	 ret	 12			; 0000000cH
$LN2@SendSafeBo:

; 67   : 		return false;
; 68   : 
; 69   : 	return SendSequence();

  0004d	8b ce		 mov	 ecx, esi
  0004f	e8 00 00 00 00	 call	 ?SendSequence@CNetworkStream@@QAE_NXZ ; CNetworkStream::SendSequence
  00054	5e		 pop	 esi

; 70   : }

  00055	5b		 pop	 ebx
  00056	8b e5		 mov	 esp, ebp
  00058	5d		 pop	 ebp
  00059	c2 0c 00	 ret	 12			; 0000000cH
?SendSafeBoxItemMovePacket@CPythonNetworkStream@@QAE_NEEE@Z ENDP ; CPythonNetworkStream::SendSafeBoxItemMovePacket
_TEXT	ENDS
; Function compile flags: /Ogtp
; File E:\Metin2_server\SolWayneSF v6\ClientVS22\source\UserInterface\PythonNetworkStreamPhaseGameItem.cpp
;	COMDAT ?SendSafeBoxCheckoutPacket@CPythonNetworkStream@@QAE_NEUSItemPos@@@Z
_TEXT	SEGMENT
_kSafeboxCheckout$ = -8					; size = 5
_bySafeBoxPos$ = 8					; size = 1
_InventoryPos$ = 12					; size = 3
?SendSafeBoxCheckoutPacket@CPythonNetworkStream@@QAE_NEUSItemPos@@@Z PROC ; CPythonNetworkStream::SendSafeBoxCheckoutPacket, COMDAT
; _this$ = ecx

; 44   : {

  00000	55		 push	 ebp
  00001	8b ec		 mov	 ebp, esp
  00003	83 ec 08	 sub	 esp, 8
  00006	53		 push	 ebx

; 45   : 	__PlaySafeBoxItemDropSound(bySafeBoxPos);

  00007	8a 5d 08	 mov	 bl, BYTE PTR _bySafeBoxPos$[ebp]
  0000a	56		 push	 esi
  0000b	0f b6 c3	 movzx	 eax, bl
  0000e	8b f1		 mov	 esi, ecx
  00010	50		 push	 eax
  00011	e8 00 00 00 00	 call	 ?__PlaySafeBoxItemDropSound@CPythonNetworkStream@@IAEXI@Z ; CPythonNetworkStream::__PlaySafeBoxItemDropSound

; 46   : 
; 47   : 	TPacketCGSafeboxCheckout kSafeboxCheckout;
; 48   : 	kSafeboxCheckout.bHeader = HEADER_CG_SAFEBOX_CHECKOUT;
; 49   : 	kSafeboxCheckout.bSafePos = bySafeBoxPos;
; 50   : 	kSafeboxCheckout.ItemPos = InventoryPos;

  00016	66 8b 45 0c	 mov	 ax, WORD PTR _InventoryPos$[ebp]

; 51   : 	if (!Send(sizeof(kSafeboxCheckout), &kSafeboxCheckout))

  0001a	8b ce		 mov	 ecx, esi
  0001c	66 89 45 fa	 mov	 WORD PTR _kSafeboxCheckout$[ebp+2], ax
  00020	8a 45 0e	 mov	 al, BYTE PTR _InventoryPos$[ebp+2]
  00023	88 45 fc	 mov	 BYTE PTR _kSafeboxCheckout$[ebp+4], al
  00026	8d 45 f8	 lea	 eax, DWORD PTR _kSafeboxCheckout$[ebp]
  00029	50		 push	 eax
  0002a	6a 05		 push	 5
  0002c	c6 45 f8 47	 mov	 BYTE PTR _kSafeboxCheckout$[ebp], 71 ; 00000047H
  00030	88 5d f9	 mov	 BYTE PTR _kSafeboxCheckout$[ebp+1], bl
  00033	e8 00 00 00 00	 call	 ?Send@CNetworkStream@@QAE_NHPBX@Z ; CNetworkStream::Send
  00038	84 c0		 test	 al, al
  0003a	75 08		 jne	 SHORT $LN2@SendSafeBo

; 55   : }

  0003c	5e		 pop	 esi
  0003d	5b		 pop	 ebx
  0003e	8b e5		 mov	 esp, ebp
  00040	5d		 pop	 ebp
  00041	c2 08 00	 ret	 8
$LN2@SendSafeBo:

; 52   : 		return false;
; 53   : 
; 54   : 	return SendSequence();

  00044	8b ce		 mov	 ecx, esi
  00046	e8 00 00 00 00	 call	 ?SendSequence@CNetworkStream@@QAE_NXZ ; CNetworkStream::SendSequence
  0004b	5e		 pop	 esi

; 55   : }

  0004c	5b		 pop	 ebx
  0004d	8b e5		 mov	 esp, ebp
  0004f	5d		 pop	 ebp
  00050	c2 08 00	 ret	 8
?SendSafeBoxCheckoutPacket@CPythonNetworkStream@@QAE_NEUSItemPos@@@Z ENDP ; CPythonNetworkStream::SendSafeBoxCheckoutPacket
_TEXT	ENDS
; Function compile flags: /Ogtp
; File E:\Metin2_server\SolWayneSF v6\ClientVS22\source\UserInterface\PythonNetworkStreamPhaseGameItem.cpp
;	COMDAT ?SendSafeBoxCheckinPacket@CPythonNetworkStream@@QAE_NUSItemPos@@E@Z
_TEXT	SEGMENT
_kSafeboxCheckin$ = -8					; size = 5
_InventoryPos$ = 8					; size = 3
_bySafeBoxPos$ = 12					; size = 1
?SendSafeBoxCheckinPacket@CPythonNetworkStream@@QAE_NUSItemPos@@E@Z PROC ; CPythonNetworkStream::SendSafeBoxCheckinPacket, COMDAT
; _this$ = ecx

; 30   : {

  00000	55		 push	 ebp
  00001	8b ec		 mov	 ebp, esp
  00003	83 ec 08	 sub	 esp, 8

; 31   : 	__PlayInventoryItemDropSound(InventoryPos);

  00006	66 8b 45 08	 mov	 ax, WORD PTR _InventoryPos$[ebp]
  0000a	56		 push	 esi
  0000b	51		 push	 ecx
  0000c	8b d4		 mov	 edx, esp
  0000e	8b f1		 mov	 esi, ecx
  00010	66 89 02	 mov	 WORD PTR [edx], ax
  00013	8a 45 0a	 mov	 al, BYTE PTR _InventoryPos$[ebp+2]
  00016	88 42 02	 mov	 BYTE PTR [edx+2], al
  00019	e8 00 00 00 00	 call	 ?__PlayInventoryItemDropSound@CPythonNetworkStream@@IAEXUSItemPos@@@Z ; CPythonNetworkStream::__PlayInventoryItemDropSound

; 32   : 
; 33   : 	TPacketCGSafeboxCheckin kSafeboxCheckin;
; 34   : 	kSafeboxCheckin.bHeader = HEADER_CG_SAFEBOX_CHECKIN;
; 35   : 	kSafeboxCheckin.ItemPos = InventoryPos;

  0001e	66 8b 45 08	 mov	 ax, WORD PTR _InventoryPos$[ebp]

; 36   : 	kSafeboxCheckin.bSafePos = bySafeBoxPos;
; 37   : 	if (!Send(sizeof(kSafeboxCheckin), &kSafeboxCheckin))

  00022	8b ce		 mov	 ecx, esi
  00024	66 89 45 fa	 mov	 WORD PTR _kSafeboxCheckin$[ebp+2], ax
  00028	8a 45 0a	 mov	 al, BYTE PTR _InventoryPos$[ebp+2]
  0002b	88 45 fc	 mov	 BYTE PTR _kSafeboxCheckin$[ebp+4], al
  0002e	8a 45 0c	 mov	 al, BYTE PTR _bySafeBoxPos$[ebp]
  00031	88 45 f9	 mov	 BYTE PTR _kSafeboxCheckin$[ebp+1], al
  00034	8d 45 f8	 lea	 eax, DWORD PTR _kSafeboxCheckin$[ebp]
  00037	50		 push	 eax
  00038	6a 05		 push	 5
  0003a	c6 45 f8 46	 mov	 BYTE PTR _kSafeboxCheckin$[ebp], 70 ; 00000046H
  0003e	e8 00 00 00 00	 call	 ?Send@CNetworkStream@@QAE_NHPBX@Z ; CNetworkStream::Send
  00043	84 c0		 test	 al, al
  00045	75 07		 jne	 SHORT $LN2@SendSafeBo

; 41   : }

  00047	5e		 pop	 esi
  00048	8b e5		 mov	 esp, ebp
  0004a	5d		 pop	 ebp
  0004b	c2 08 00	 ret	 8
$LN2@SendSafeBo:

; 38   : 		return false;
; 39   : 
; 40   : 	return SendSequence();

  0004e	8b ce		 mov	 ecx, esi
  00050	e8 00 00 00 00	 call	 ?SendSequence@CNetworkStream@@QAE_NXZ ; CNetworkStream::SendSequence

; 41   : }

  00055	5e		 pop	 esi
  00056	8b e5		 mov	 esp, ebp
  00058	5d		 pop	 ebp
  00059	c2 08 00	 ret	 8
?SendSafeBoxCheckinPacket@CPythonNetworkStream@@QAE_NUSItemPos@@E@Z ENDP ; CPythonNetworkStream::SendSafeBoxCheckinPacket
_TEXT	ENDS
; Function compile flags: /Ogtp
; File E:\Metin2_server\SolWayneSF v6\ClientVS22\source\UserInterface\PythonNetworkStreamPhaseGameItem.cpp
;	COMDAT ?SendSafeBoxMoneyPacket@CPythonNetworkStream@@QAE_NEK@Z
_TEXT	SEGMENT
_byState$dead$ = 8					; size = 1
_dwMoney$dead$ = 12					; size = 4
?SendSafeBoxMoneyPacket@CPythonNetworkStream@@QAE_NEK@Z PROC ; CPythonNetworkStream::SendSafeBoxMoneyPacket, COMDAT
; _this$dead$ = ecx

; 16   : 	assert(!"CPythonNetworkStream::SendSafeBoxMoneyPacket - 사용하지 않는 함수");
; 17   : 	return false;

  00000	32 c0		 xor	 al, al

; 18   : 
; 19   : //	TPacketCGSafeboxMoney kSafeboxMoney;
; 20   : //	kSafeboxMoney.bHeader = HEADER_CG_SAFEBOX_MONEY;
; 21   : //	kSafeboxMoney.bState = byState;
; 22   : //	kSafeboxMoney.dwMoney = dwMoney;
; 23   : //	if (!Send(sizeof(kSafeboxMoney), &kSafeboxMoney))
; 24   : //		return false;
; 25   : //
; 26   : //	return SendSequence();
; 27   : }

  00002	c2 08 00	 ret	 8
?SendSafeBoxMoneyPacket@CPythonNetworkStream@@QAE_NEK@Z ENDP ; CPythonNetworkStream::SendSafeBoxMoneyPacket
_TEXT	ENDS
; Function compile flags: /Ogtp
; File E:\Metin2_server\SolWayneSF v6\ClientVS22\source\UserInterface\PythonNetworkStreamPhaseGameItem.cpp
;	COMDAT ?SendShopSellPacketNew@CPythonNetworkStream@@QAE_NEE@Z
_TEXT	SEGMENT
_PacketShop$ = -4					; size = 2
_bySlot$ = 8						; size = 1
_byCount$ = 12						; size = 1
?SendShopSellPacketNew@CPythonNetworkStream@@QAE_NEE@Z PROC ; CPythonNetworkStream::SendShopSellPacketNew, COMDAT
; _this$ = ecx

; 456  : {

  00000	55		 push	 ebp
  00001	8b ec		 mov	 ebp, esp
  00003	51		 push	 ecx
  00004	56		 push	 esi
  00005	8b f1		 mov	 esi, ecx

; 457  : 	if (!__CanActMainInstance())

  00007	e8 00 00 00 00	 call	 ?__CanActMainInstance@CPythonNetworkStream@@IAE_NXZ ; CPythonNetworkStream::__CanActMainInstance
  0000c	84 c0		 test	 al, al
  0000e	75 09		 jne	 SHORT $LN2@SendShopSe

; 458  : 		return true;

  00010	b0 01		 mov	 al, 1
  00012	5e		 pop	 esi

; 483  : }

  00013	8b e5		 mov	 esp, ebp
  00015	5d		 pop	 ebp
  00016	c2 08 00	 ret	 8
$LN2@SendShopSe:

; 459  : 
; 460  : 	TPacketCGShop PacketShop;
; 461  : 	PacketShop.header = HEADER_CG_SHOP;
; 462  : 	PacketShop.subheader = SHOP_SUBHEADER_CG_SELL2;
; 463  : 
; 464  : 	if (!Send(sizeof(TPacketCGShop), &PacketShop))

  00019	8d 45 fc	 lea	 eax, DWORD PTR _PacketShop$[ebp]
  0001c	66 c7 45 fc 32
	03		 mov	 WORD PTR _PacketShop$[ebp], 818 ; 00000332H
  00022	50		 push	 eax
  00023	6a 02		 push	 2
  00025	8b ce		 mov	 ecx, esi
  00027	e8 00 00 00 00	 call	 ?Send@CNetworkStream@@QAE_NHPBX@Z ; CNetworkStream::Send
  0002c	84 c0		 test	 al, al
  0002e	75 16		 jne	 SHORT $LN3@SendShopSe

; 465  : 	{
; 466  : 		Tracef("SendShopSellPacket Error\n");

  00030	68 00 00 00 00	 push	 OFFSET ??_C@_0BK@NFAAJDME@SendShopSellPacket?5Error?6@

; 483  : }

  00035	e8 00 00 00 00	 call	 ?Tracef@@YAXPBDZZ	; Tracef
  0003a	83 c4 04	 add	 esp, 4
  0003d	32 c0		 xor	 al, al
  0003f	5e		 pop	 esi
  00040	8b e5		 mov	 esp, ebp
  00042	5d		 pop	 ebp
  00043	c2 08 00	 ret	 8
$LN3@SendShopSe:

; 467  : 		return false;
; 468  : 	}
; 469  : 	if (!Send(sizeof(BYTE), &bySlot))

  00046	8d 45 08	 lea	 eax, DWORD PTR _bySlot$[ebp]
  00049	8b ce		 mov	 ecx, esi
  0004b	50		 push	 eax
  0004c	6a 01		 push	 1
  0004e	e8 00 00 00 00	 call	 ?Send@CNetworkStream@@QAE_NHPBX@Z ; CNetworkStream::Send
  00053	84 c0		 test	 al, al
  00055	74 36		 je	 SHORT $LN7@SendShopSe

; 470  : 	{
; 471  : 		Tracef("SendShopAddSellPacket Error\n");
; 472  : 		return false;
; 473  : 	}
; 474  : 	if (!Send(sizeof(BYTE), &byCount))

  00057	8d 45 0c	 lea	 eax, DWORD PTR _byCount$[ebp]
  0005a	8b ce		 mov	 ecx, esi
  0005c	50		 push	 eax
  0005d	6a 01		 push	 1
  0005f	e8 00 00 00 00	 call	 ?Send@CNetworkStream@@QAE_NHPBX@Z ; CNetworkStream::Send
  00064	84 c0		 test	 al, al
  00066	74 25		 je	 SHORT $LN7@SendShopSe

; 477  : 		return false;
; 478  : 	}
; 479  : 
; 480  : 	Tracef(" SendShopSellPacketNew(bySlot=%d, byCount=%d)\n", bySlot, byCount);

  00068	0f b6 45 0c	 movzx	 eax, BYTE PTR _byCount$[ebp]
  0006c	50		 push	 eax
  0006d	0f b6 45 08	 movzx	 eax, BYTE PTR _bySlot$[ebp]
  00071	50		 push	 eax
  00072	68 00 00 00 00	 push	 OFFSET ??_C@_0CP@FAIPFIGP@?5SendShopSellPacketNew?$CIbySlot?$DN?$CF@
  00077	e8 00 00 00 00	 call	 ?Tracef@@YAXPBDZZ	; Tracef
  0007c	83 c4 0c	 add	 esp, 12			; 0000000cH

; 481  : 
; 482  : 	return SendSequence();

  0007f	8b ce		 mov	 ecx, esi
  00081	e8 00 00 00 00	 call	 ?SendSequence@CNetworkStream@@QAE_NXZ ; CNetworkStream::SendSequence
  00086	5e		 pop	 esi

; 483  : }

  00087	8b e5		 mov	 esp, ebp
  00089	5d		 pop	 ebp
  0008a	c2 08 00	 ret	 8
$LN7@SendShopSe:

; 475  : 	{
; 476  : 		Tracef("SendShopAddSellPacket Error\n");

  0008d	68 00 00 00 00	 push	 OFFSET ??_C@_0BN@PEGCCLIG@SendShopAddSellPacket?5Error?6@

; 483  : }

  00092	e8 00 00 00 00	 call	 ?Tracef@@YAXPBDZZ	; Tracef
  00097	83 c4 04	 add	 esp, 4
  0009a	32 c0		 xor	 al, al
  0009c	5e		 pop	 esi
  0009d	8b e5		 mov	 esp, ebp
  0009f	5d		 pop	 ebp
  000a0	c2 08 00	 ret	 8
?SendShopSellPacketNew@CPythonNetworkStream@@QAE_NEE@Z ENDP ; CPythonNetworkStream::SendShopSellPacketNew
_TEXT	ENDS
; Function compile flags: /Ogtp
; File E:\Metin2_server\SolWayneSF v6\ClientVS22\source\UserInterface\PythonNetworkStreamPhaseGameItem.cpp
;	COMDAT ?SendShopSellPacket@CPythonNetworkStream@@QAE_NE@Z
_TEXT	SEGMENT
_PacketShop$ = -4					; size = 2
_bySlot$ = 8						; size = 1
?SendShopSellPacket@CPythonNetworkStream@@QAE_NE@Z PROC	; CPythonNetworkStream::SendShopSellPacket, COMDAT
; _this$ = ecx

; 433  : {

  00000	55		 push	 ebp
  00001	8b ec		 mov	 ebp, esp
  00003	51		 push	 ecx
  00004	56		 push	 esi
  00005	8b f1		 mov	 esi, ecx

; 434  : 	if (!__CanActMainInstance())

  00007	e8 00 00 00 00	 call	 ?__CanActMainInstance@CPythonNetworkStream@@IAE_NXZ ; CPythonNetworkStream::__CanActMainInstance
  0000c	84 c0		 test	 al, al
  0000e	75 09		 jne	 SHORT $LN2@SendShopSe

; 435  : 		return true;

  00010	b0 01		 mov	 al, 1
  00012	5e		 pop	 esi

; 453  : }

  00013	8b e5		 mov	 esp, ebp
  00015	5d		 pop	 ebp
  00016	c2 04 00	 ret	 4
$LN2@SendShopSe:

; 436  : 
; 437  : 	TPacketCGShop PacketShop;
; 438  : 	PacketShop.header = HEADER_CG_SHOP;
; 439  : 	PacketShop.subheader = SHOP_SUBHEADER_CG_SELL;
; 440  : 
; 441  : 	if (!Send(sizeof(TPacketCGShop), &PacketShop))

  00019	8d 45 fc	 lea	 eax, DWORD PTR _PacketShop$[ebp]
  0001c	66 c7 45 fc 32
	02		 mov	 WORD PTR _PacketShop$[ebp], 562 ; 00000232H
  00022	50		 push	 eax
  00023	6a 02		 push	 2
  00025	8b ce		 mov	 ecx, esi
  00027	e8 00 00 00 00	 call	 ?Send@CNetworkStream@@QAE_NHPBX@Z ; CNetworkStream::Send
  0002c	84 c0		 test	 al, al
  0002e	75 16		 jne	 SHORT $LN3@SendShopSe

; 442  : 	{
; 443  : 		Tracef("SendShopSellPacket Error\n");

  00030	68 00 00 00 00	 push	 OFFSET ??_C@_0BK@NFAAJDME@SendShopSellPacket?5Error?6@
  00035	e8 00 00 00 00	 call	 ?Tracef@@YAXPBDZZ	; Tracef
  0003a	83 c4 04	 add	 esp, 4

; 444  : 		return false;

  0003d	32 c0		 xor	 al, al
  0003f	5e		 pop	 esi

; 453  : }

  00040	8b e5		 mov	 esp, ebp
  00042	5d		 pop	 ebp
  00043	c2 04 00	 ret	 4
$LN3@SendShopSe:

; 445  : 	}
; 446  : 	if (!Send(sizeof(BYTE), &bySlot))

  00046	8d 45 08	 lea	 eax, DWORD PTR _bySlot$[ebp]
  00049	8b ce		 mov	 ecx, esi
  0004b	50		 push	 eax
  0004c	6a 01		 push	 1
  0004e	e8 00 00 00 00	 call	 ?Send@CNetworkStream@@QAE_NHPBX@Z ; CNetworkStream::Send
  00053	84 c0		 test	 al, al
  00055	75 16		 jne	 SHORT $LN4@SendShopSe

; 447  : 	{
; 448  : 		Tracef("SendShopAddSellPacket Error\n");

  00057	68 00 00 00 00	 push	 OFFSET ??_C@_0BN@PEGCCLIG@SendShopAddSellPacket?5Error?6@
  0005c	e8 00 00 00 00	 call	 ?Tracef@@YAXPBDZZ	; Tracef
  00061	83 c4 04	 add	 esp, 4

; 449  : 		return false;

  00064	32 c0		 xor	 al, al
  00066	5e		 pop	 esi

; 453  : }

  00067	8b e5		 mov	 esp, ebp
  00069	5d		 pop	 ebp
  0006a	c2 04 00	 ret	 4
$LN4@SendShopSe:

; 450  : 	}
; 451  : 
; 452  : 	return SendSequence();

  0006d	8b ce		 mov	 ecx, esi
  0006f	e8 00 00 00 00	 call	 ?SendSequence@CNetworkStream@@QAE_NXZ ; CNetworkStream::SendSequence
  00074	5e		 pop	 esi

; 453  : }

  00075	8b e5		 mov	 esp, ebp
  00077	5d		 pop	 ebp
  00078	c2 04 00	 ret	 4
?SendShopSellPacket@CPythonNetworkStream@@QAE_NE@Z ENDP	; CPythonNetworkStream::SendShopSellPacket
_TEXT	ENDS
; Function compile flags: /Ogtp
; File E:\Metin2_server\SolWayneSF v6\ClientVS22\source\UserInterface\PythonNetworkStreamPhaseGameItem.cpp
;	COMDAT ?SendShopBuyPacket@CPythonNetworkStream@@QAE_NE@Z
_TEXT	SEGMENT
_PacketShop$ = -8					; size = 2
_bCount$ = -1						; size = 1
_bPos$ = 8						; size = 1
?SendShopBuyPacket@CPythonNetworkStream@@QAE_NE@Z PROC	; CPythonNetworkStream::SendShopBuyPacket, COMDAT
; _this$ = ecx

; 402  : {

  00000	55		 push	 ebp
  00001	8b ec		 mov	 ebp, esp
  00003	83 ec 08	 sub	 esp, 8
  00006	56		 push	 esi
  00007	8b f1		 mov	 esi, ecx

; 403  : 	if (!__CanActMainInstance())

  00009	e8 00 00 00 00	 call	 ?__CanActMainInstance@CPythonNetworkStream@@IAE_NXZ ; CPythonNetworkStream::__CanActMainInstance
  0000e	84 c0		 test	 al, al
  00010	75 09		 jne	 SHORT $LN2@SendShopBu

; 404  : 		return true;

  00012	b0 01		 mov	 al, 1
  00014	5e		 pop	 esi

; 430  : }

  00015	8b e5		 mov	 esp, ebp
  00017	5d		 pop	 ebp
  00018	c2 04 00	 ret	 4
$LN2@SendShopBu:

; 405  : 	
; 406  : 	TPacketCGShop PacketShop;
; 407  : 	PacketShop.header = HEADER_CG_SHOP;
; 408  : 	PacketShop.subheader = SHOP_SUBHEADER_CG_BUY;
; 409  : 
; 410  : 	if (!Send(sizeof(TPacketCGShop), &PacketShop))

  0001b	8d 45 f8	 lea	 eax, DWORD PTR _PacketShop$[ebp]
  0001e	66 c7 45 f8 32
	01		 mov	 WORD PTR _PacketShop$[ebp], 306 ; 00000132H
  00024	50		 push	 eax
  00025	6a 02		 push	 2
  00027	8b ce		 mov	 ecx, esi
  00029	e8 00 00 00 00	 call	 ?Send@CNetworkStream@@QAE_NHPBX@Z ; CNetworkStream::Send
  0002e	84 c0		 test	 al, al
  00030	74 34		 je	 SHORT $LN7@SendShopBu

; 411  : 	{
; 412  : 		Tracef("SendShopBuyPacket Error\n");
; 413  : 		return false;
; 414  : 	}
; 415  : 
; 416  : 	BYTE bCount=1;
; 417  : 	if (!Send(sizeof(BYTE), &bCount))

  00032	8d 45 ff	 lea	 eax, DWORD PTR _bCount$[ebp]
  00035	c6 45 ff 01	 mov	 BYTE PTR _bCount$[ebp], 1
  00039	50		 push	 eax
  0003a	6a 01		 push	 1
  0003c	8b ce		 mov	 ecx, esi
  0003e	e8 00 00 00 00	 call	 ?Send@CNetworkStream@@QAE_NHPBX@Z ; CNetworkStream::Send
  00043	84 c0		 test	 al, al
  00045	74 1f		 je	 SHORT $LN7@SendShopBu

; 418  : 	{
; 419  : 		Tracef("SendShopBuyPacket Error\n");
; 420  : 		return false;
; 421  : 	}
; 422  : 
; 423  : 	if (!Send(sizeof(BYTE), &bPos))

  00047	8d 45 08	 lea	 eax, DWORD PTR _bPos$[ebp]
  0004a	8b ce		 mov	 ecx, esi
  0004c	50		 push	 eax
  0004d	6a 01		 push	 1
  0004f	e8 00 00 00 00	 call	 ?Send@CNetworkStream@@QAE_NHPBX@Z ; CNetworkStream::Send
  00054	84 c0		 test	 al, al
  00056	74 0e		 je	 SHORT $LN7@SendShopBu

; 427  : 	}
; 428  : 
; 429  : 	return SendSequence();

  00058	8b ce		 mov	 ecx, esi
  0005a	e8 00 00 00 00	 call	 ?SendSequence@CNetworkStream@@QAE_NXZ ; CNetworkStream::SendSequence
  0005f	5e		 pop	 esi

; 430  : }

  00060	8b e5		 mov	 esp, ebp
  00062	5d		 pop	 ebp
  00063	c2 04 00	 ret	 4
$LN7@SendShopBu:

; 424  : 	{
; 425  : 		Tracef("SendShopBuyPacket Error\n");

  00066	68 00 00 00 00	 push	 OFFSET ??_C@_0BJ@GJICJJME@SendShopBuyPacket?5Error?6@
  0006b	e8 00 00 00 00	 call	 ?Tracef@@YAXPBDZZ	; Tracef
  00070	83 c4 04	 add	 esp, 4

; 426  : 		return false;

  00073	32 c0		 xor	 al, al
  00075	5e		 pop	 esi

; 430  : }

  00076	8b e5		 mov	 esp, ebp
  00078	5d		 pop	 ebp
  00079	c2 04 00	 ret	 4
?SendShopBuyPacket@CPythonNetworkStream@@QAE_NE@Z ENDP	; CPythonNetworkStream::SendShopBuyPacket
_TEXT	ENDS
; Function compile flags: /Ogtp
; File E:\Metin2_server\SolWayneSF v6\ClientVS22\source\UserInterface\PythonNetworkStreamPhaseGameItem.cpp
;	COMDAT ?SendShopEndPacket@CPythonNetworkStream@@QAE_NXZ
_TEXT	SEGMENT
_packet_shop$ = -4					; size = 2
?SendShopEndPacket@CPythonNetworkStream@@QAE_NXZ PROC	; CPythonNetworkStream::SendShopEndPacket, COMDAT
; _this$ = ecx

; 384  : {

  00000	55		 push	 ebp
  00001	8b ec		 mov	 ebp, esp
  00003	51		 push	 ecx
  00004	56		 push	 esi
  00005	8b f1		 mov	 esi, ecx

; 385  : 	if (!__CanActMainInstance())

  00007	e8 00 00 00 00	 call	 ?__CanActMainInstance@CPythonNetworkStream@@IAE_NXZ ; CPythonNetworkStream::__CanActMainInstance
  0000c	84 c0		 test	 al, al
  0000e	75 07		 jne	 SHORT $LN2@SendShopEn

; 386  : 		return true;

  00010	b0 01		 mov	 al, 1
  00012	5e		 pop	 esi

; 399  : }

  00013	8b e5		 mov	 esp, ebp
  00015	5d		 pop	 ebp
  00016	c3		 ret	 0
$LN2@SendShopEn:

; 387  : 
; 388  : 	TPacketCGShop packet_shop;
; 389  : 	packet_shop.header = HEADER_CG_SHOP;
; 390  : 	packet_shop.subheader = SHOP_SUBHEADER_CG_END;
; 391  : 
; 392  : 	if (!Send(sizeof(packet_shop), &packet_shop))

  00017	8d 45 fc	 lea	 eax, DWORD PTR _packet_shop$[ebp]
  0001a	66 c7 45 fc 32
	00		 mov	 WORD PTR _packet_shop$[ebp], 50 ; 00000032H
  00020	50		 push	 eax
  00021	6a 02		 push	 2
  00023	8b ce		 mov	 ecx, esi
  00025	e8 00 00 00 00	 call	 ?Send@CNetworkStream@@QAE_NHPBX@Z ; CNetworkStream::Send
  0002a	84 c0		 test	 al, al
  0002c	75 14		 jne	 SHORT $LN3@SendShopEn

; 393  : 	{
; 394  : 		Tracef("SendShopEndPacket Error\n");

  0002e	68 00 00 00 00	 push	 OFFSET ??_C@_0BJ@ENIABNOP@SendShopEndPacket?5Error?6@
  00033	e8 00 00 00 00	 call	 ?Tracef@@YAXPBDZZ	; Tracef
  00038	83 c4 04	 add	 esp, 4

; 395  : 		return false;

  0003b	32 c0		 xor	 al, al
  0003d	5e		 pop	 esi

; 399  : }

  0003e	8b e5		 mov	 esp, ebp
  00040	5d		 pop	 ebp
  00041	c3		 ret	 0
$LN3@SendShopEn:

; 396  : 	}
; 397  : 
; 398  : 	return SendSequence();

  00042	8b ce		 mov	 ecx, esi
  00044	e8 00 00 00 00	 call	 ?SendSequence@CNetworkStream@@QAE_NXZ ; CNetworkStream::SendSequence
  00049	5e		 pop	 esi

; 399  : }

  0004a	8b e5		 mov	 esp, ebp
  0004c	5d		 pop	 ebp
  0004d	c3		 ret	 0
?SendShopEndPacket@CPythonNetworkStream@@QAE_NXZ ENDP	; CPythonNetworkStream::SendShopEndPacket
_TEXT	ENDS
; Function compile flags: /Ogtp
; File E:\Metin2_server\SolWayneSF v6\ClientVS22\source\UserInterface\PythonNetworkStreamPhaseGameItem.cpp
;	COMDAT ?SendItemPickUpPacket@CPythonNetworkStream@@QAE_NK@Z
_TEXT	SEGMENT
_itemPickUpPacket$ = -8					; size = 5
_vid$ = 8						; size = 4
?SendItemPickUpPacket@CPythonNetworkStream@@QAE_NK@Z PROC ; CPythonNetworkStream::SendItemPickUpPacket, COMDAT
; _this$ = ecx

; 705  : {

  00000	55		 push	 ebp
  00001	8b ec		 mov	 ebp, esp
  00003	83 ec 08	 sub	 esp, 8
  00006	56		 push	 esi
  00007	8b f1		 mov	 esi, ecx

; 706  : 	if (!__CanActMainInstance())

  00009	e8 00 00 00 00	 call	 ?__CanActMainInstance@CPythonNetworkStream@@IAE_NXZ ; CPythonNetworkStream::__CanActMainInstance
  0000e	84 c0		 test	 al, al
  00010	75 09		 jne	 SHORT $LN2@SendItemPi

; 707  : 		return true;

  00012	b0 01		 mov	 al, 1
  00014	5e		 pop	 esi

; 720  : }

  00015	8b e5		 mov	 esp, ebp
  00017	5d		 pop	 ebp
  00018	c2 04 00	 ret	 4
$LN2@SendItemPi:

; 708  : 
; 709  : 	TPacketCGItemPickUp	itemPickUpPacket;
; 710  : 	itemPickUpPacket.header = HEADER_CG_ITEM_PICKUP;
; 711  : 	itemPickUpPacket.vid = vid;

  0001b	8b 45 08	 mov	 eax, DWORD PTR _vid$[ebp]

; 712  : 
; 713  : 	if (!Send(sizeof(TPacketCGItemPickUp), &itemPickUpPacket))

  0001e	8b ce		 mov	 ecx, esi
  00020	89 45 f9	 mov	 DWORD PTR _itemPickUpPacket$[ebp+1], eax
  00023	8d 45 f8	 lea	 eax, DWORD PTR _itemPickUpPacket$[ebp]
  00026	50		 push	 eax
  00027	6a 05		 push	 5
  00029	c6 45 f8 0f	 mov	 BYTE PTR _itemPickUpPacket$[ebp], 15 ; 0000000fH
  0002d	e8 00 00 00 00	 call	 ?Send@CNetworkStream@@QAE_NHPBX@Z ; CNetworkStream::Send
  00032	84 c0		 test	 al, al
  00034	75 16		 jne	 SHORT $LN3@SendItemPi

; 714  : 	{
; 715  : 		Tracen("SendItemPickUpPacket Error");

  00036	68 00 00 00 00	 push	 OFFSET ??_C@_0BL@DCHNPPOD@SendItemPickUpPacket?5Error@
  0003b	e8 00 00 00 00	 call	 ?Tracen@@YAXPBD@Z	; Tracen
  00040	83 c4 04	 add	 esp, 4

; 716  : 		return false;

  00043	32 c0		 xor	 al, al
  00045	5e		 pop	 esi

; 720  : }

  00046	8b e5		 mov	 esp, ebp
  00048	5d		 pop	 ebp
  00049	c2 04 00	 ret	 4
$LN3@SendItemPi:

; 717  : 	}
; 718  : 
; 719  : 	return SendSequence();

  0004c	8b ce		 mov	 ecx, esi
  0004e	e8 00 00 00 00	 call	 ?SendSequence@CNetworkStream@@QAE_NXZ ; CNetworkStream::SendSequence
  00053	5e		 pop	 esi

; 720  : }

  00054	8b e5		 mov	 esp, ebp
  00056	5d		 pop	 ebp
  00057	c2 04 00	 ret	 4
?SendItemPickUpPacket@CPythonNetworkStream@@QAE_NK@Z ENDP ; CPythonNetworkStream::SendItemPickUpPacket
_TEXT	ENDS
; Function compile flags: /Ogtp
; File E:\Metin2_server\SolWayneSF v6\ClientVS22\source\UserInterface\PythonNetworkStreamPhaseGameItem.cpp
;	COMDAT ?SendItemMovePacket@CPythonNetworkStream@@QAE_NUSItemPos@@0E@Z
_TEXT	SEGMENT
_itemMovePacket$ = -8					; size = 8
_pos$ = 8						; size = 3
_change_pos$ = 12					; size = 3
_num$ = 16						; size = 1
?SendItemMovePacket@CPythonNetworkStream@@QAE_NUSItemPos@@0E@Z PROC ; CPythonNetworkStream::SendItemMovePacket, COMDAT
; _this$ = ecx

; 659  : {	

  00000	55		 push	 ebp
  00001	8b ec		 mov	 ebp, esp
  00003	83 ec 08	 sub	 esp, 8
  00006	56		 push	 esi
  00007	8b f1		 mov	 esi, ecx

; 660  : 	if (!__CanActMainInstance())

  00009	e8 00 00 00 00	 call	 ?__CanActMainInstance@CPythonNetworkStream@@IAE_NXZ ; CPythonNetworkStream::__CanActMainInstance
  0000e	84 c0		 test	 al, al
  00010	74 68		 je	 SHORT $LN19@SendItemMo

; 661  : 		return true;
; 662  : 	
; 663  : 	if (__IsEquipItemInSlot(pos))

  00012	66 8b 45 08	 mov	 ax, WORD PTR _pos$[ebp]
  00016	51		 push	 ecx
  00017	8b d4		 mov	 edx, esp
  00019	66 89 02	 mov	 WORD PTR [edx], ax
  0001c	8a 45 0a	 mov	 al, BYTE PTR _pos$[ebp+2]
  0001f	88 42 02	 mov	 BYTE PTR [edx+2], al
  00022	e8 00 00 00 00	 call	 ?__IsEquipItemInSlot@CPythonNetworkStream@@IAE_NUSItemPos@@@Z ; CPythonNetworkStream::__IsEquipItemInSlot
  00027	84 c0		 test	 al, al
  00029	0f 84 8b 00 00
	00		 je	 $LN10@SendItemMo

; 664  : 	{
; 665  : 		if (CPythonExchange::Instance().isTrading())

  0002f	8b 0d 00 00 00
	00		 mov	 ecx, DWORD PTR ?ms_singleton@?$CSingleton@VCPythonExchange@@@@0PAVCPythonExchange@@A ; CSingleton<CPythonExchange>::ms_singleton
  00035	e8 00 00 00 00	 call	 ?isTrading@CPythonExchange@@QAE_NXZ ; CPythonExchange::isTrading
  0003a	84 c0		 test	 al, al
  0003c	74 45		 je	 SHORT $LN5@SendItemMo

; 666  : 		{
; 667  : 			if (pos.IsEquipCell() || change_pos.IsEquipCell())

  0003e	8d 4d 08	 lea	 ecx, DWORD PTR _pos$[ebp]
  00041	e8 00 00 00 00	 call	 ?IsEquipCell@SItemPos@@QAE_NXZ ; SItemPos::IsEquipCell
  00046	84 c0		 test	 al, al
  00048	75 0c		 jne	 SHORT $LN6@SendItemMo
  0004a	8d 4d 0c	 lea	 ecx, DWORD PTR _change_pos$[ebp]
  0004d	e8 00 00 00 00	 call	 ?IsEquipCell@SItemPos@@QAE_NXZ ; SItemPos::IsEquipCell
  00052	84 c0		 test	 al, al
  00054	74 2d		 je	 SHORT $LN5@SendItemMo
$LN6@SendItemMo:

; 668  : 			{
; 669  : 				PyCallClassMemberFunc(m_apoPhaseWnd[PHASE_WINDOW_GAME], "BINARY_AppendNotifyMessage", Py_BuildValue("(s)", "CANNOT_EQUIP_EXCHANGE"));

  00056	68 00 00 00 00	 push	 OFFSET ??_C@_0BG@KBOLGOPL@CANNOT_EQUIP_EXCHANGE@
$LN21@SendItemMo:

; 702  : }

  0005b	68 00 00 00 00	 push	 OFFSET ??_C@_03KJMMOONA@?$CIs?$CJ@
  00060	ff 15 00 00 00
	00		 call	 DWORD PTR __imp__Py_BuildValue
  00066	50		 push	 eax
  00067	68 00 00 00 00	 push	 OFFSET ??_C@_0BL@HGBMODPD@BINARY_AppendNotifyMessage@
  0006c	ff b6 90 01 00
	00		 push	 DWORD PTR [esi+400]
  00072	e8 00 00 00 00	 call	 ?PyCallClassMemberFunc@@YA_NPAU_object@@PBD0@Z ; PyCallClassMemberFunc
  00077	83 c4 14	 add	 esp, 20			; 00000014H
$LN19@SendItemMo:
  0007a	b0 01		 mov	 al, 1
  0007c	5e		 pop	 esi
  0007d	8b e5		 mov	 esp, ebp
  0007f	5d		 pop	 ebp
  00080	c2 0c 00	 ret	 12			; 0000000cH
$LN5@SendItemMo:

; 670  : 				return true;
; 671  : 			}
; 672  : 		}
; 673  : 
; 674  : 		if (CPythonShop::Instance().IsOpen())

  00083	8b 0d 00 00 00
	00		 mov	 ecx, DWORD PTR ?ms_singleton@?$CSingleton@VCPythonShop@@@@0PAVCPythonShop@@A ; CSingleton<CPythonShop>::ms_singleton
  00089	e8 00 00 00 00	 call	 ?IsOpen@CPythonShop@@QAEHXZ ; CPythonShop::IsOpen
  0008e	85 c0		 test	 eax, eax
  00090	74 1f		 je	 SHORT $LN8@SendItemMo

; 675  : 		{
; 676  : 			if (pos.IsEquipCell() || change_pos.IsEquipCell())

  00092	8d 4d 08	 lea	 ecx, DWORD PTR _pos$[ebp]
  00095	e8 00 00 00 00	 call	 ?IsEquipCell@SItemPos@@QAE_NXZ ; SItemPos::IsEquipCell
  0009a	84 c0		 test	 al, al
  0009c	75 0c		 jne	 SHORT $LN9@SendItemMo
  0009e	8d 4d 0c	 lea	 ecx, DWORD PTR _change_pos$[ebp]
  000a1	e8 00 00 00 00	 call	 ?IsEquipCell@SItemPos@@QAE_NXZ ; SItemPos::IsEquipCell
  000a6	84 c0		 test	 al, al
  000a8	74 07		 je	 SHORT $LN8@SendItemMo
$LN9@SendItemMo:

; 677  : 			{
; 678  : 				PyCallClassMemberFunc(m_apoPhaseWnd[PHASE_WINDOW_GAME], "BINARY_AppendNotifyMessage", Py_BuildValue("(s)", "CANNOT_EQUIP_SHOP"));

  000aa	68 00 00 00 00	 push	 OFFSET ??_C@_0BC@GKDHAPBC@CANNOT_EQUIP_SHOP@

; 679  : 				return true;

  000af	eb aa		 jmp	 SHORT $LN21@SendItemMo
$LN8@SendItemMo:

; 680  : 			}
; 681  : 		}
; 682  : 
; 683  : 		if (__IsPlayerAttacking())

  000b1	e8 00 00 00 00	 call	 ?__IsPlayerAttacking@CPythonNetworkStream@@IAE_NXZ ; CPythonNetworkStream::__IsPlayerAttacking
  000b6	84 c0		 test	 al, al
  000b8	75 c0		 jne	 SHORT $LN19@SendItemMo
$LN10@SendItemMo:

; 684  : 			return true;
; 685  : 	}
; 686  : 
; 687  : 	__PlayInventoryItemDropSound(pos);

  000ba	66 8b 45 08	 mov	 ax, WORD PTR _pos$[ebp]
  000be	51		 push	 ecx
  000bf	8b cc		 mov	 ecx, esp
  000c1	66 89 01	 mov	 WORD PTR [ecx], ax
  000c4	8a 45 0a	 mov	 al, BYTE PTR _pos$[ebp+2]
  000c7	88 41 02	 mov	 BYTE PTR [ecx+2], al
  000ca	e8 00 00 00 00	 call	 ?__PlayInventoryItemDropSound@CPythonNetworkStream@@IAEXUSItemPos@@@Z ; CPythonNetworkStream::__PlayInventoryItemDropSound

; 688  : 
; 689  : 	TPacketCGItemMove	itemMovePacket;
; 690  : 	itemMovePacket.header = HEADER_CG_ITEM_MOVE;
; 691  : 	itemMovePacket.pos = pos;

  000cf	66 8b 45 08	 mov	 ax, WORD PTR _pos$[ebp]

; 692  : 	itemMovePacket.change_pos = change_pos;
; 693  : 	itemMovePacket.num = num;
; 694  : 
; 695  : 	if (!Send(sizeof(TPacketCGItemMove), &itemMovePacket))

  000d3	8b ce		 mov	 ecx, esi
  000d5	66 89 45 f9	 mov	 WORD PTR _itemMovePacket$[ebp+1], ax
  000d9	8a 45 0a	 mov	 al, BYTE PTR _pos$[ebp+2]
  000dc	88 45 fb	 mov	 BYTE PTR _itemMovePacket$[ebp+3], al
  000df	66 8b 45 0c	 mov	 ax, WORD PTR _change_pos$[ebp]
  000e3	66 89 45 fc	 mov	 WORD PTR _itemMovePacket$[ebp+4], ax
  000e7	8a 45 0e	 mov	 al, BYTE PTR _change_pos$[ebp+2]
  000ea	88 45 fe	 mov	 BYTE PTR _itemMovePacket$[ebp+6], al
  000ed	8a 45 10	 mov	 al, BYTE PTR _num$[ebp]
  000f0	88 45 ff	 mov	 BYTE PTR _itemMovePacket$[ebp+7], al
  000f3	8d 45 f8	 lea	 eax, DWORD PTR _itemMovePacket$[ebp]
  000f6	50		 push	 eax
  000f7	6a 08		 push	 8
  000f9	c6 45 f8 0d	 mov	 BYTE PTR _itemMovePacket$[ebp], 13 ; 0000000dH
  000fd	e8 00 00 00 00	 call	 ?Send@CNetworkStream@@QAE_NHPBX@Z ; CNetworkStream::Send
  00102	84 c0		 test	 al, al
  00104	75 16		 jne	 SHORT $LN11@SendItemMo

; 696  : 	{
; 697  : 		Tracen("SendItemMovePacket Error");

  00106	68 00 00 00 00	 push	 OFFSET ??_C@_0BJ@LGMFALEM@SendItemMovePacket?5Error@
  0010b	e8 00 00 00 00	 call	 ?Tracen@@YAXPBD@Z	; Tracen
  00110	83 c4 04	 add	 esp, 4

; 698  : 		return false;

  00113	32 c0		 xor	 al, al

; 702  : }

  00115	5e		 pop	 esi
  00116	8b e5		 mov	 esp, ebp
  00118	5d		 pop	 ebp
  00119	c2 0c 00	 ret	 12			; 0000000cH
$LN11@SendItemMo:

; 699  : 	}
; 700  : 
; 701  : 	return SendSequence();

  0011c	8b ce		 mov	 ecx, esi
  0011e	e8 00 00 00 00	 call	 ?SendSequence@CNetworkStream@@QAE_NXZ ; CNetworkStream::SendSequence

; 702  : }

  00123	5e		 pop	 esi
  00124	8b e5		 mov	 esp, ebp
  00126	5d		 pop	 ebp
  00127	c2 0c 00	 ret	 12			; 0000000cH
?SendItemMovePacket@CPythonNetworkStream@@QAE_NUSItemPos@@0E@Z ENDP ; CPythonNetworkStream::SendItemMovePacket
_TEXT	ENDS
; Function compile flags: /Ogtp
; File E:\Metin2_server\SolWayneSF v6\ClientVS22\source\UserInterface\PythonNetworkStreamPhaseGameItem.cpp
;	COMDAT ?SendItemDropPacketNew@CPythonNetworkStream@@QAE_NUSItemPos@@KK@Z
_TEXT	SEGMENT
_itemDropPacket$ = -12					; size = 9
_pos$ = 8						; size = 3
_elk$ = 12						; size = 4
_count$ = 16						; size = 4
?SendItemDropPacketNew@CPythonNetworkStream@@QAE_NUSItemPos@@KK@Z PROC ; CPythonNetworkStream::SendItemDropPacketNew, COMDAT
; _this$ = ecx

; 567  : {

  00000	55		 push	 ebp
  00001	8b ec		 mov	 ebp, esp
  00003	83 ec 0c	 sub	 esp, 12			; 0000000cH
  00006	56		 push	 esi
  00007	8b f1		 mov	 esi, ecx

; 568  : 	if (!__CanActMainInstance())

  00009	e8 00 00 00 00	 call	 ?__CanActMainInstance@CPythonNetworkStream@@IAE_NXZ ; CPythonNetworkStream::__CanActMainInstance
  0000e	84 c0		 test	 al, al
  00010	75 09		 jne	 SHORT $LN2@SendItemDr

; 569  : 		return true;

  00012	b0 01		 mov	 al, 1
  00014	5e		 pop	 esi

; 584  : }

  00015	8b e5		 mov	 esp, ebp
  00017	5d		 pop	 ebp
  00018	c2 0c 00	 ret	 12			; 0000000cH
$LN2@SendItemDr:

; 570  : 
; 571  : 	TPacketCGItemDrop2 itemDropPacket;
; 572  : 	itemDropPacket.header = HEADER_CG_ITEM_DROP2;
; 573  : 	itemDropPacket.pos = pos;

  0001b	66 8b 45 08	 mov	 ax, WORD PTR _pos$[ebp]

; 574  : 	itemDropPacket.gold = elk;
; 575  : 	itemDropPacket.count = count;
; 576  : 
; 577  : 	if (!Send(sizeof(itemDropPacket), &itemDropPacket))

  0001f	8b ce		 mov	 ecx, esi
  00021	66 89 45 f5	 mov	 WORD PTR _itemDropPacket$[ebp+1], ax
  00025	8a 45 0a	 mov	 al, BYTE PTR _pos$[ebp+2]
  00028	88 45 f7	 mov	 BYTE PTR _itemDropPacket$[ebp+3], al
  0002b	8b 45 0c	 mov	 eax, DWORD PTR _elk$[ebp]
  0002e	89 45 f8	 mov	 DWORD PTR _itemDropPacket$[ebp+4], eax
  00031	8a 45 10	 mov	 al, BYTE PTR _count$[ebp]
  00034	88 45 fc	 mov	 BYTE PTR _itemDropPacket$[ebp+8], al
  00037	8d 45 f4	 lea	 eax, DWORD PTR _itemDropPacket$[ebp]
  0003a	50		 push	 eax
  0003b	6a 09		 push	 9
  0003d	c6 45 f4 14	 mov	 BYTE PTR _itemDropPacket$[ebp], 20 ; 00000014H
  00041	e8 00 00 00 00	 call	 ?Send@CNetworkStream@@QAE_NHPBX@Z ; CNetworkStream::Send
  00046	84 c0		 test	 al, al
  00048	75 16		 jne	 SHORT $LN3@SendItemDr

; 578  : 	{
; 579  : 		Tracen("SendItemDropPacket Error");

  0004a	68 00 00 00 00	 push	 OFFSET ??_C@_0BJ@OIBPCJHH@SendItemDropPacket?5Error@
  0004f	e8 00 00 00 00	 call	 ?Tracen@@YAXPBD@Z	; Tracen
  00054	83 c4 04	 add	 esp, 4

; 580  : 		return false;

  00057	32 c0		 xor	 al, al
  00059	5e		 pop	 esi

; 584  : }

  0005a	8b e5		 mov	 esp, ebp
  0005c	5d		 pop	 ebp
  0005d	c2 0c 00	 ret	 12			; 0000000cH
$LN3@SendItemDr:

; 581  : 	}
; 582  : 
; 583  : 	return SendSequence();

  00060	8b ce		 mov	 ecx, esi
  00062	e8 00 00 00 00	 call	 ?SendSequence@CNetworkStream@@QAE_NXZ ; CNetworkStream::SendSequence
  00067	5e		 pop	 esi

; 584  : }

  00068	8b e5		 mov	 esp, ebp
  0006a	5d		 pop	 ebp
  0006b	c2 0c 00	 ret	 12			; 0000000cH
?SendItemDropPacketNew@CPythonNetworkStream@@QAE_NUSItemPos@@KK@Z ENDP ; CPythonNetworkStream::SendItemDropPacketNew
_TEXT	ENDS
; Function compile flags: /Ogtp
; File E:\Metin2_server\SolWayneSF v6\ClientVS22\source\UserInterface\PythonNetworkStreamPhaseGameItem.cpp
;	COMDAT ?SendItemDestroyPacket@CPythonNetworkStream@@QAE_NUSItemPos@@@Z
_TEXT	SEGMENT
_itemDestroyPacket$ = -4				; size = 4
_pos$ = 8						; size = 3
?SendItemDestroyPacket@CPythonNetworkStream@@QAE_NUSItemPos@@@Z PROC ; CPythonNetworkStream::SendItemDestroyPacket, COMDAT
; _this$ = ecx

; 587  : {

  00000	55		 push	 ebp
  00001	8b ec		 mov	 ebp, esp
  00003	51		 push	 ecx
  00004	56		 push	 esi
  00005	8b f1		 mov	 esi, ecx

; 588  : 	if (!__CanActMainInstance())

  00007	e8 00 00 00 00	 call	 ?__CanActMainInstance@CPythonNetworkStream@@IAE_NXZ ; CPythonNetworkStream::__CanActMainInstance
  0000c	84 c0		 test	 al, al
  0000e	75 09		 jne	 SHORT $LN2@SendItemDe

; 589  : 		return true;

  00010	b0 01		 mov	 al, 1
  00012	5e		 pop	 esi

; 599  : }

  00013	8b e5		 mov	 esp, ebp
  00015	5d		 pop	 ebp
  00016	c2 04 00	 ret	 4
$LN2@SendItemDe:

; 590  : 	TPacketCGItemDestroy itemDestroyPacket;
; 591  : 	itemDestroyPacket.header = HEADER_CG_ITEM_DESTROY;
; 592  : 	itemDestroyPacket.pos = pos;

  00019	66 8b 45 08	 mov	 ax, WORD PTR _pos$[ebp]

; 593  : 	if (!Send(sizeof(itemDestroyPacket), &itemDestroyPacket))

  0001d	8b ce		 mov	 ecx, esi
  0001f	66 89 45 fd	 mov	 WORD PTR _itemDestroyPacket$[ebp+1], ax
  00023	8a 45 0a	 mov	 al, BYTE PTR _pos$[ebp+2]
  00026	88 45 ff	 mov	 BYTE PTR _itemDestroyPacket$[ebp+3], al
  00029	8d 45 fc	 lea	 eax, DWORD PTR _itemDestroyPacket$[ebp]
  0002c	50		 push	 eax
  0002d	6a 04		 push	 4
  0002f	c6 45 fc 15	 mov	 BYTE PTR _itemDestroyPacket$[ebp], 21 ; 00000015H
  00033	e8 00 00 00 00	 call	 ?Send@CNetworkStream@@QAE_NHPBX@Z ; CNetworkStream::Send
  00038	84 c0		 test	 al, al
  0003a	75 16		 jne	 SHORT $LN3@SendItemDe

; 594  : 	{
; 595  : 		Tracen("SendItemDestroyPacket Error");

  0003c	68 00 00 00 00	 push	 OFFSET ??_C@_0BM@ICMBBAFL@SendItemDestroyPacket?5Error@
  00041	e8 00 00 00 00	 call	 ?Tracen@@YAXPBD@Z	; Tracen
  00046	83 c4 04	 add	 esp, 4

; 596  : 		return false;

  00049	32 c0		 xor	 al, al
  0004b	5e		 pop	 esi

; 599  : }

  0004c	8b e5		 mov	 esp, ebp
  0004e	5d		 pop	 ebp
  0004f	c2 04 00	 ret	 4
$LN3@SendItemDe:

; 597  : 	}
; 598  : 	return SendSequence();

  00052	8b ce		 mov	 ecx, esi
  00054	e8 00 00 00 00	 call	 ?SendSequence@CNetworkStream@@QAE_NXZ ; CNetworkStream::SendSequence
  00059	5e		 pop	 esi

; 599  : }

  0005a	8b e5		 mov	 esp, ebp
  0005c	5d		 pop	 ebp
  0005d	c2 04 00	 ret	 4
?SendItemDestroyPacket@CPythonNetworkStream@@QAE_NUSItemPos@@@Z ENDP ; CPythonNetworkStream::SendItemDestroyPacket
_TEXT	ENDS
; Function compile flags: /Ogtp
; File E:\Metin2_server\SolWayneSF v6\ClientVS22\source\UserInterface\PythonNetworkStreamPhaseGameItem.cpp
;	COMDAT ?SendItemDropPacket@CPythonNetworkStream@@QAE_NUSItemPos@@K@Z
_TEXT	SEGMENT
_itemDropPacket$ = -8					; size = 8
_pos$ = 8						; size = 3
_elk$ = 12						; size = 4
?SendItemDropPacket@CPythonNetworkStream@@QAE_NUSItemPos@@K@Z PROC ; CPythonNetworkStream::SendItemDropPacket, COMDAT
; _this$ = ecx

; 548  : {

  00000	55		 push	 ebp
  00001	8b ec		 mov	 ebp, esp
  00003	83 ec 08	 sub	 esp, 8
  00006	56		 push	 esi
  00007	8b f1		 mov	 esi, ecx

; 549  : 	if (!__CanActMainInstance())

  00009	e8 00 00 00 00	 call	 ?__CanActMainInstance@CPythonNetworkStream@@IAE_NXZ ; CPythonNetworkStream::__CanActMainInstance
  0000e	84 c0		 test	 al, al
  00010	75 09		 jne	 SHORT $LN2@SendItemDr

; 550  : 		return true;

  00012	b0 01		 mov	 al, 1
  00014	5e		 pop	 esi

; 564  : }

  00015	8b e5		 mov	 esp, ebp
  00017	5d		 pop	 ebp
  00018	c2 08 00	 ret	 8
$LN2@SendItemDr:

; 551  : 
; 552  : 	TPacketCGItemDrop itemDropPacket;
; 553  : 	itemDropPacket.header = HEADER_CG_ITEM_DROP;
; 554  : 	itemDropPacket.pos = pos;

  0001b	66 8b 45 08	 mov	 ax, WORD PTR _pos$[ebp]

; 555  : 	itemDropPacket.elk = elk;
; 556  : 
; 557  : 	if (!Send(sizeof(TPacketCGItemDrop), &itemDropPacket))

  0001f	8b ce		 mov	 ecx, esi
  00021	66 89 45 f9	 mov	 WORD PTR _itemDropPacket$[ebp+1], ax
  00025	8a 45 0a	 mov	 al, BYTE PTR _pos$[ebp+2]
  00028	88 45 fb	 mov	 BYTE PTR _itemDropPacket$[ebp+3], al
  0002b	8b 45 0c	 mov	 eax, DWORD PTR _elk$[ebp]
  0002e	89 45 fc	 mov	 DWORD PTR _itemDropPacket$[ebp+4], eax
  00031	8d 45 f8	 lea	 eax, DWORD PTR _itemDropPacket$[ebp]
  00034	50		 push	 eax
  00035	6a 08		 push	 8
  00037	c6 45 f8 0c	 mov	 BYTE PTR _itemDropPacket$[ebp], 12 ; 0000000cH
  0003b	e8 00 00 00 00	 call	 ?Send@CNetworkStream@@QAE_NHPBX@Z ; CNetworkStream::Send
  00040	84 c0		 test	 al, al
  00042	75 16		 jne	 SHORT $LN3@SendItemDr

; 558  : 	{
; 559  : 		Tracen("SendItemDropPacket Error");

  00044	68 00 00 00 00	 push	 OFFSET ??_C@_0BJ@OIBPCJHH@SendItemDropPacket?5Error@
  00049	e8 00 00 00 00	 call	 ?Tracen@@YAXPBD@Z	; Tracen
  0004e	83 c4 04	 add	 esp, 4

; 560  : 		return false;

  00051	32 c0		 xor	 al, al
  00053	5e		 pop	 esi

; 564  : }

  00054	8b e5		 mov	 esp, ebp
  00056	5d		 pop	 ebp
  00057	c2 08 00	 ret	 8
$LN3@SendItemDr:

; 561  : 	}
; 562  : 
; 563  : 	return SendSequence();

  0005a	8b ce		 mov	 ecx, esi
  0005c	e8 00 00 00 00	 call	 ?SendSequence@CNetworkStream@@QAE_NXZ ; CNetworkStream::SendSequence
  00061	5e		 pop	 esi

; 564  : }

  00062	8b e5		 mov	 esp, ebp
  00064	5d		 pop	 ebp
  00065	c2 08 00	 ret	 8
?SendItemDropPacket@CPythonNetworkStream@@QAE_NUSItemPos@@K@Z ENDP ; CPythonNetworkStream::SendItemDropPacket
_TEXT	ENDS
; Function compile flags: /Ogtp
; File E:\Metin2_server\SolWayneSF v6\ClientVS22\source\UserInterface\PythonNetworkStreamPhaseGameItem.cpp
;	COMDAT ?SendItemUseToItemPacket@CPythonNetworkStream@@QAE_NUSItemPos@@0@Z
_TEXT	SEGMENT
_itemUseToItemPacket$ = -8				; size = 7
_source_pos$ = 8					; size = 3
_target_pos$ = 12					; size = 3
?SendItemUseToItemPacket@CPythonNetworkStream@@QAE_NUSItemPos@@0@Z PROC ; CPythonNetworkStream::SendItemUseToItemPacket, COMDAT
; _this$ = ecx

; 525  : {

  00000	55		 push	 ebp
  00001	8b ec		 mov	 ebp, esp
  00003	83 ec 08	 sub	 esp, 8
  00006	56		 push	 esi
  00007	8b f1		 mov	 esi, ecx

; 526  : 	if (!__CanActMainInstance())

  00009	e8 00 00 00 00	 call	 ?__CanActMainInstance@CPythonNetworkStream@@IAE_NXZ ; CPythonNetworkStream::__CanActMainInstance
  0000e	84 c0		 test	 al, al
  00010	75 09		 jne	 SHORT $LN2@SendItemUs

; 527  : 		return true;	

  00012	b0 01		 mov	 al, 1
  00014	5e		 pop	 esi

; 545  : }

  00015	8b e5		 mov	 esp, ebp
  00017	5d		 pop	 ebp
  00018	c2 08 00	 ret	 8
$LN2@SendItemUs:

; 528  : 
; 529  : 	TPacketCGItemUseToItem itemUseToItemPacket;
; 530  : 	itemUseToItemPacket.header = HEADER_CG_ITEM_USE_TO_ITEM;
; 531  : 	itemUseToItemPacket.source_pos = source_pos;

  0001b	66 8b 45 08	 mov	 ax, WORD PTR _source_pos$[ebp]

; 532  : 	itemUseToItemPacket.target_pos = target_pos;
; 533  : 
; 534  : 	if (!Send(sizeof(TPacketCGItemUseToItem), &itemUseToItemPacket))

  0001f	8b ce		 mov	 ecx, esi
  00021	66 89 45 f9	 mov	 WORD PTR _itemUseToItemPacket$[ebp+1], ax
  00025	8a 45 0a	 mov	 al, BYTE PTR _source_pos$[ebp+2]
  00028	88 45 fb	 mov	 BYTE PTR _itemUseToItemPacket$[ebp+3], al
  0002b	66 8b 45 0c	 mov	 ax, WORD PTR _target_pos$[ebp]
  0002f	66 89 45 fc	 mov	 WORD PTR _itemUseToItemPacket$[ebp+4], ax
  00033	8a 45 0e	 mov	 al, BYTE PTR _target_pos$[ebp+2]
  00036	88 45 fe	 mov	 BYTE PTR _itemUseToItemPacket$[ebp+6], al
  00039	8d 45 f8	 lea	 eax, DWORD PTR _itemUseToItemPacket$[ebp]
  0003c	50		 push	 eax
  0003d	6a 07		 push	 7
  0003f	c6 45 f8 3c	 mov	 BYTE PTR _itemUseToItemPacket$[ebp], 60 ; 0000003cH
  00043	e8 00 00 00 00	 call	 ?Send@CNetworkStream@@QAE_NHPBX@Z ; CNetworkStream::Send
  00048	84 c0		 test	 al, al
  0004a	75 16		 jne	 SHORT $LN3@SendItemUs

; 535  : 	{
; 536  : 		Tracen("SendItemUseToItemPacket Error");

  0004c	68 00 00 00 00	 push	 OFFSET ??_C@_0BO@FFKONCIG@SendItemUseToItemPacket?5Error@
  00051	e8 00 00 00 00	 call	 ?Tracen@@YAXPBD@Z	; Tracen
  00056	83 c4 04	 add	 esp, 4

; 537  : 		return false;

  00059	32 c0		 xor	 al, al
  0005b	5e		 pop	 esi

; 545  : }

  0005c	8b e5		 mov	 esp, ebp
  0005e	5d		 pop	 ebp
  0005f	c2 08 00	 ret	 8
$LN3@SendItemUs:

; 538  : 	}
; 539  : 
; 540  : #ifdef _DEBUG
; 541  : 	Tracef(" << SendItemUseToItemPacket(src=%d, dst=%d)\n", source_pos, target_pos);
; 542  : #endif
; 543  : 
; 544  : 	return SendSequence();

  00062	8b ce		 mov	 ecx, esi
  00064	e8 00 00 00 00	 call	 ?SendSequence@CNetworkStream@@QAE_NXZ ; CNetworkStream::SendSequence
  00069	5e		 pop	 esi

; 545  : }

  0006a	8b e5		 mov	 esp, ebp
  0006c	5d		 pop	 ebp
  0006d	c2 08 00	 ret	 8
?SendItemUseToItemPacket@CPythonNetworkStream@@QAE_NUSItemPos@@0@Z ENDP ; CPythonNetworkStream::SendItemUseToItemPacket
_TEXT	ENDS
; Function compile flags: /Ogtp
; File E:\Metin2_server\SolWayneSF v6\ClientVS22\source\UserInterface\PythonNetworkStreamPhaseGameItem.cpp
;	COMDAT ?SendItemUsePacket@CPythonNetworkStream@@QAE_NUSItemPos@@@Z
_TEXT	SEGMENT
_itemUsePacket$ = -4					; size = 4
_pos$ = 8						; size = 3
?SendItemUsePacket@CPythonNetworkStream@@QAE_NUSItemPos@@@Z PROC ; CPythonNetworkStream::SendItemUsePacket, COMDAT
; _this$ = ecx

; 487  : {

  00000	55		 push	 ebp
  00001	8b ec		 mov	 ebp, esp
  00003	51		 push	 ecx
  00004	56		 push	 esi
  00005	8b f1		 mov	 esi, ecx

; 488  : 	if (!__CanActMainInstance())

  00007	e8 00 00 00 00	 call	 ?__CanActMainInstance@CPythonNetworkStream@@IAE_NXZ ; CPythonNetworkStream::__CanActMainInstance
  0000c	84 c0		 test	 al, al
  0000e	74 4c		 je	 SHORT $LN13@SendItemUs

; 489  : 		return true;
; 490  : 
; 491  : 	if (__IsEquipItemInSlot(pos))

  00010	66 8b 45 08	 mov	 ax, WORD PTR _pos$[ebp]
  00014	51		 push	 ecx
  00015	8b d4		 mov	 edx, esp
  00017	66 89 02	 mov	 WORD PTR [edx], ax
  0001a	8a 45 0a	 mov	 al, BYTE PTR _pos$[ebp+2]
  0001d	88 42 02	 mov	 BYTE PTR [edx+2], al
  00020	e8 00 00 00 00	 call	 ?__IsEquipItemInSlot@CPythonNetworkStream@@IAE_NUSItemPos@@@Z ; CPythonNetworkStream::__IsEquipItemInSlot
  00025	84 c0		 test	 al, al
  00027	74 5b		 je	 SHORT $LN6@SendItemUs

; 492  : 	{
; 493  : 		if (CPythonExchange::Instance().isTrading())

  00029	8b 0d 00 00 00
	00		 mov	 ecx, DWORD PTR ?ms_singleton@?$CSingleton@VCPythonExchange@@@@0PAVCPythonExchange@@A ; CSingleton<CPythonExchange>::ms_singleton
  0002f	e8 00 00 00 00	 call	 ?isTrading@CPythonExchange@@QAE_NXZ ; CPythonExchange::isTrading
  00034	84 c0		 test	 al, al
  00036	74 2d		 je	 SHORT $LN4@SendItemUs

; 494  : 		{
; 495  : 			PyCallClassMemberFunc(m_apoPhaseWnd[PHASE_WINDOW_GAME], "BINARY_AppendNotifyMessage", Py_BuildValue("(s)", "CANNOT_EQUIP_EXCHANGE"));

  00038	68 00 00 00 00	 push	 OFFSET ??_C@_0BG@KBOLGOPL@CANNOT_EQUIP_EXCHANGE@
$LN15@SendItemUs:

; 522  : }

  0003d	68 00 00 00 00	 push	 OFFSET ??_C@_03KJMMOONA@?$CIs?$CJ@
  00042	ff 15 00 00 00
	00		 call	 DWORD PTR __imp__Py_BuildValue
  00048	50		 push	 eax
  00049	68 00 00 00 00	 push	 OFFSET ??_C@_0BL@HGBMODPD@BINARY_AppendNotifyMessage@
  0004e	ff b6 90 01 00
	00		 push	 DWORD PTR [esi+400]
  00054	e8 00 00 00 00	 call	 ?PyCallClassMemberFunc@@YA_NPAU_object@@PBD0@Z ; PyCallClassMemberFunc
  00059	83 c4 14	 add	 esp, 20			; 00000014H
$LN13@SendItemUs:
  0005c	b0 01		 mov	 al, 1
  0005e	5e		 pop	 esi
  0005f	8b e5		 mov	 esp, ebp
  00061	5d		 pop	 ebp
  00062	c2 04 00	 ret	 4
$LN4@SendItemUs:

; 496  : 			return true;
; 497  : 		}
; 498  : 
; 499  : 		if (CPythonShop::Instance().IsOpen())

  00065	8b 0d 00 00 00
	00		 mov	 ecx, DWORD PTR ?ms_singleton@?$CSingleton@VCPythonShop@@@@0PAVCPythonShop@@A ; CSingleton<CPythonShop>::ms_singleton
  0006b	e8 00 00 00 00	 call	 ?IsOpen@CPythonShop@@QAEHXZ ; CPythonShop::IsOpen
  00070	85 c0		 test	 eax, eax
  00072	74 07		 je	 SHORT $LN5@SendItemUs

; 500  : 		{
; 501  : 			PyCallClassMemberFunc(m_apoPhaseWnd[PHASE_WINDOW_GAME], "BINARY_AppendNotifyMessage", Py_BuildValue("(s)", "CANNOT_EQUIP_SHOP"));

  00074	68 00 00 00 00	 push	 OFFSET ??_C@_0BC@GKDHAPBC@CANNOT_EQUIP_SHOP@

; 502  : 			return true;

  00079	eb c2		 jmp	 SHORT $LN15@SendItemUs
$LN5@SendItemUs:

; 503  : 		}
; 504  : 
; 505  : 		if (__IsPlayerAttacking())

  0007b	e8 00 00 00 00	 call	 ?__IsPlayerAttacking@CPythonNetworkStream@@IAE_NXZ ; CPythonNetworkStream::__IsPlayerAttacking
  00080	84 c0		 test	 al, al
  00082	75 d8		 jne	 SHORT $LN13@SendItemUs
$LN6@SendItemUs:

; 506  : 			return true;
; 507  : 	}
; 508  : 
; 509  : 	__PlayInventoryItemUseSound(pos);

  00084	66 8b 45 08	 mov	 ax, WORD PTR _pos$[ebp]
  00088	51		 push	 ecx
  00089	8b cc		 mov	 ecx, esp
  0008b	66 89 01	 mov	 WORD PTR [ecx], ax
  0008e	8a 45 0a	 mov	 al, BYTE PTR _pos$[ebp+2]
  00091	88 41 02	 mov	 BYTE PTR [ecx+2], al
  00094	e8 00 00 00 00	 call	 ?__PlayInventoryItemUseSound@CPythonNetworkStream@@IAEXUSItemPos@@@Z ; CPythonNetworkStream::__PlayInventoryItemUseSound

; 510  : 
; 511  : 	TPacketCGItemUse itemUsePacket;
; 512  : 	itemUsePacket.header = HEADER_CG_ITEM_USE;
; 513  : 	itemUsePacket.pos = pos;

  00099	66 8b 45 08	 mov	 ax, WORD PTR _pos$[ebp]

; 514  : 
; 515  : 	if (!Send(sizeof(TPacketCGItemUse), &itemUsePacket))

  0009d	8b ce		 mov	 ecx, esi
  0009f	66 89 45 fd	 mov	 WORD PTR _itemUsePacket$[ebp+1], ax
  000a3	8a 45 0a	 mov	 al, BYTE PTR _pos$[ebp+2]
  000a6	88 45 ff	 mov	 BYTE PTR _itemUsePacket$[ebp+3], al
  000a9	8d 45 fc	 lea	 eax, DWORD PTR _itemUsePacket$[ebp]
  000ac	50		 push	 eax
  000ad	6a 04		 push	 4
  000af	c6 45 fc 0b	 mov	 BYTE PTR _itemUsePacket$[ebp], 11 ; 0000000bH
  000b3	e8 00 00 00 00	 call	 ?Send@CNetworkStream@@QAE_NHPBX@Z ; CNetworkStream::Send
  000b8	84 c0		 test	 al, al
  000ba	75 16		 jne	 SHORT $LN7@SendItemUs

; 516  : 	{
; 517  : 		Tracen("SendItemUsePacket Error");

  000bc	68 00 00 00 00	 push	 OFFSET ??_C@_0BI@ECNPLDED@SendItemUsePacket?5Error@
  000c1	e8 00 00 00 00	 call	 ?Tracen@@YAXPBD@Z	; Tracen
  000c6	83 c4 04	 add	 esp, 4

; 518  : 		return false;

  000c9	32 c0		 xor	 al, al

; 522  : }

  000cb	5e		 pop	 esi
  000cc	8b e5		 mov	 esp, ebp
  000ce	5d		 pop	 ebp
  000cf	c2 04 00	 ret	 4
$LN7@SendItemUs:

; 519  : 	}
; 520  : 
; 521  : 	return SendSequence();

  000d2	8b ce		 mov	 ecx, esi
  000d4	e8 00 00 00 00	 call	 ?SendSequence@CNetworkStream@@QAE_NXZ ; CNetworkStream::SendSequence

; 522  : }

  000d9	5e		 pop	 esi
  000da	8b e5		 mov	 esp, ebp
  000dc	5d		 pop	 ebp
  000dd	c2 04 00	 ret	 4
?SendItemUsePacket@CPythonNetworkStream@@QAE_NUSItemPos@@@Z ENDP ; CPythonNetworkStream::SendItemUsePacket
_TEXT	ENDS
; Function compile flags: /Ogtp
; File E:\Metin2_server\SolWayneSF v6\ClientVS22\source\UserInterface\PythonNetworkStreamPhaseGameItem.cpp
; File E:\Metin2_server\SolWayneSF v6\ClientVS22\source\UserInterface\GameType.h
; File E:\Metin2_server\SolWayneSF v6\ClientVS22\source\UserInterface\Packet.h
; File E:\Metin2_server\SolWayneSF v6\ClientVS22\source\UserInterface\PythonNetworkStreamPhaseGameItem.cpp
; File E:\Metin2_server\SolWayneSF v6\ClientVS22\source\UserInterface\GameType.h
; File E:\Metin2_server\SolWayneSF v6\ClientVS22\source\UserInterface\PythonNetworkStreamPhaseGameItem.cpp
; File E:\Metin2_server\SolWayneSF v6\ClientVS22\source\UserInterface\GameType.h
; File E:\Metin2_server\SolWayneSF v6\ClientVS22\source\UserInterface\PythonNetworkStreamPhaseGameItem.cpp
;	COMDAT ?RecvDragonSoulRefine@CPythonNetworkStream@@IAE_NXZ
_TEXT	SEGMENT
_kDragonSoul$ = -8					; size = 5
?RecvDragonSoulRefine@CPythonNetworkStream@@IAE_NXZ PROC ; CPythonNetworkStream::RecvDragonSoulRefine, COMDAT
; _this$ = ecx

; 935  : {

  00000	55		 push	 ebp
  00001	8b ec		 mov	 ebp, esp
  00003	83 ec 08	 sub	 esp, 8
; File E:\Metin2_server\SolWayneSF v6\ClientVS22\source\UserInterface\GameType.h

; 202  : 		cell = WORD_MAX;

  00006	b8 ff ff 00 00	 mov	 eax, 65535		; 0000ffffH
; File E:\Metin2_server\SolWayneSF v6\ClientVS22\source\UserInterface\Packet.h

; 2878 : 	SPacketGCDragonSoulRefine() : header(HEADER_GC_DRAGON_SOUL_REFINE)

  0000b	c6 45 f8 d1	 mov	 BYTE PTR _kDragonSoul$[ebp], 209 ; 000000d1H
; File E:\Metin2_server\SolWayneSF v6\ClientVS22\source\UserInterface\PythonNetworkStreamPhaseGameItem.cpp

; 935  : {

  0000f	56		 push	 esi
; File E:\Metin2_server\SolWayneSF v6\ClientVS22\source\UserInterface\GameType.h

; 202  : 		cell = WORD_MAX;

  00010	66 89 45 fb	 mov	 WORD PTR _kDragonSoul$[ebp+3], ax
; File E:\Metin2_server\SolWayneSF v6\ClientVS22\source\UserInterface\PythonNetworkStreamPhaseGameItem.cpp

; 935  : {

  00014	8b f1		 mov	 esi, ecx

; 938  : 	if (!Recv(sizeof(kDragonSoul), &kDragonSoul))

  00016	8d 45 f8	 lea	 eax, DWORD PTR _kDragonSoul$[ebp]
; File E:\Metin2_server\SolWayneSF v6\ClientVS22\source\UserInterface\GameType.h

; 201  : 		window_type =     INVENTORY;

  00019	c6 45 fa 01	 mov	 BYTE PTR _kDragonSoul$[ebp+2], 1
; File E:\Metin2_server\SolWayneSF v6\ClientVS22\source\UserInterface\PythonNetworkStreamPhaseGameItem.cpp

; 938  : 	if (!Recv(sizeof(kDragonSoul), &kDragonSoul))

  0001d	50		 push	 eax
  0001e	6a 05		 push	 5
  00020	e8 00 00 00 00	 call	 ?Recv@CNetworkStream@@QAE_NHPAX@Z ; CNetworkStream::Recv
  00025	84 c0		 test	 al, al
  00027	75 05		 jne	 SHORT $LN4@RecvDragon
  00029	5e		 pop	 esi

; 963  : }

  0002a	8b e5		 mov	 esp, ebp
  0002c	5d		 pop	 ebp
  0002d	c3		 ret	 0
$LN4@RecvDragon:

; 939  : 		return false;
; 940  : 	
; 941  : 	
; 942  : 	switch (kDragonSoul.bSubType)

  0002e	0f b6 4d f9	 movzx	 ecx, BYTE PTR _kDragonSoul$[ebp+1]
  00032	83 f9 0b	 cmp	 ecx, 11			; 0000000bH
  00035	0f 87 8e 00 00
	00		 ja	 $LN2@RecvDragon
  0003b	0f b6 81 00 00
	00 00		 movzx	 eax, BYTE PTR $LN18@RecvDragon[ecx]
  00042	ff 24 85 00 00
	00 00		 jmp	 DWORD PTR $LN19@RecvDragon[eax*4]
$LN5@RecvDragon:

; 943  : 	{
; 944  : 	case DS_SUB_HEADER_OPEN:
; 945  : 		PyCallClassMemberFunc(m_apoPhaseWnd[PHASE_WINDOW_GAME], "BINARY_DragonSoulRefineWindow_Open", Py_BuildValue("()"));

  00049	68 00 00 00 00	 push	 OFFSET ??_C@_02HCKGKOFO@?$CI?$CJ@
  0004e	ff 15 00 00 00
	00		 call	 DWORD PTR __imp__Py_BuildValue
  00054	50		 push	 eax
  00055	68 00 00 00 00	 push	 OFFSET ??_C@_0CD@JEDDBPLN@BINARY_DragonSoulRefineWindow_O@
  0005a	ff b6 90 01 00
	00		 push	 DWORD PTR [esi+400]
  00060	e8 00 00 00 00	 call	 ?PyCallClassMemberFunc@@YA_NPAU_object@@PBD0@Z ; PyCallClassMemberFunc
  00065	83 c4 10	 add	 esp, 16			; 00000010H

; 958  : 				Py_BuildValue("(ii)", kDragonSoul.Pos.window_type, kDragonSoul.Pos.cell));
; 959  : 		break;
; 960  : 	}
; 961  : 
; 962  : 	return true;

  00068	b0 01		 mov	 al, 1
  0006a	5e		 pop	 esi

; 963  : }

  0006b	8b e5		 mov	 esp, ebp
  0006d	5d		 pop	 ebp
  0006e	c3		 ret	 0
$LN6@RecvDragon:

; 946  : 		break;
; 947  : 	case DS_SUB_HEADER_REFINE_FAIL:
; 948  : 	case DS_SUB_HEADER_REFINE_FAIL_MAX_REFINE:
; 949  : 	case DS_SUB_HEADER_REFINE_FAIL_INVALID_MATERIAL:
; 950  : 	case DS_SUB_HEADER_REFINE_FAIL_NOT_ENOUGH_MONEY:
; 951  : 	case DS_SUB_HEADER_REFINE_FAIL_NOT_ENOUGH_MATERIAL:
; 952  : 	case DS_SUB_HEADER_REFINE_FAIL_TOO_MUCH_MATERIAL:
; 953  : 		PyCallClassMemberFunc(m_apoPhaseWnd[PHASE_WINDOW_GAME], "BINARY_DragonSoulRefineWindow_RefineFail", Py_BuildValue("(iii)", 

  0006f	0f b7 45 fb	 movzx	 eax, WORD PTR _kDragonSoul$[ebp+3]
  00073	50		 push	 eax
  00074	0f b6 45 fa	 movzx	 eax, BYTE PTR _kDragonSoul$[ebp+2]
  00078	50		 push	 eax
  00079	51		 push	 ecx
  0007a	68 00 00 00 00	 push	 OFFSET ??_C@_05HEIOBLPG@?$CIiii?$CJ@
  0007f	ff 15 00 00 00
	00		 call	 DWORD PTR __imp__Py_BuildValue
  00085	50		 push	 eax
  00086	68 00 00 00 00	 push	 OFFSET ??_C@_0CJ@JCBKPBPN@BINARY_DragonSoulRefineWindow_R@
  0008b	ff b6 90 01 00
	00		 push	 DWORD PTR [esi+400]
  00091	e8 00 00 00 00	 call	 ?PyCallClassMemberFunc@@YA_NPAU_object@@PBD0@Z ; PyCallClassMemberFunc
  00096	83 c4 1c	 add	 esp, 28			; 0000001cH

; 958  : 				Py_BuildValue("(ii)", kDragonSoul.Pos.window_type, kDragonSoul.Pos.cell));
; 959  : 		break;
; 960  : 	}
; 961  : 
; 962  : 	return true;

  00099	b0 01		 mov	 al, 1
  0009b	5e		 pop	 esi

; 963  : }

  0009c	8b e5		 mov	 esp, ebp
  0009e	5d		 pop	 ebp
  0009f	c3		 ret	 0
$LN12@RecvDragon:

; 954  : 			kDragonSoul.bSubType, kDragonSoul.Pos.window_type, kDragonSoul.Pos.cell));
; 955  : 		break;
; 956  : 	case DS_SUB_HEADER_REFINE_SUCCEED:
; 957  : 		PyCallClassMemberFunc(m_apoPhaseWnd[PHASE_WINDOW_GAME], "BINARY_DragonSoulRefineWindow_RefineSucceed", 

  000a0	0f b7 45 fb	 movzx	 eax, WORD PTR _kDragonSoul$[ebp+3]
  000a4	50		 push	 eax
  000a5	0f b6 45 fa	 movzx	 eax, BYTE PTR _kDragonSoul$[ebp+2]
  000a9	50		 push	 eax
  000aa	68 00 00 00 00	 push	 OFFSET ??_C@_04INACLLOK@?$CIii?$CJ@
  000af	ff 15 00 00 00
	00		 call	 DWORD PTR __imp__Py_BuildValue
  000b5	50		 push	 eax
  000b6	68 00 00 00 00	 push	 OFFSET ??_C@_0CM@IKKNFKOL@BINARY_DragonSoulRefineWindow_R@
  000bb	ff b6 90 01 00
	00		 push	 DWORD PTR [esi+400]
  000c1	e8 00 00 00 00	 call	 ?PyCallClassMemberFunc@@YA_NPAU_object@@PBD0@Z ; PyCallClassMemberFunc
  000c6	83 c4 18	 add	 esp, 24			; 00000018H
$LN2@RecvDragon:

; 958  : 				Py_BuildValue("(ii)", kDragonSoul.Pos.window_type, kDragonSoul.Pos.cell));
; 959  : 		break;
; 960  : 	}
; 961  : 
; 962  : 	return true;

  000c9	b0 01		 mov	 al, 1
  000cb	5e		 pop	 esi

; 963  : }

  000cc	8b e5		 mov	 esp, ebp
  000ce	5d		 pop	 ebp
  000cf	c3		 ret	 0
$LN19@RecvDragon:
  000d0	00 00 00 00	 DD	 $LN5@RecvDragon
  000d4	00 00 00 00	 DD	 $LN6@RecvDragon
  000d8	00 00 00 00	 DD	 $LN12@RecvDragon
  000dc	00 00 00 00	 DD	 $LN2@RecvDragon
$LN18@RecvDragon:
  000e0	00		 DB	 0
  000e1	03		 DB	 3
  000e2	03		 DB	 3
  000e3	03		 DB	 3
  000e4	03		 DB	 3
  000e5	01		 DB	 1
  000e6	01		 DB	 1
  000e7	01		 DB	 1
  000e8	01		 DB	 1
  000e9	01		 DB	 1
  000ea	01		 DB	 1
  000eb	02		 DB	 2
?RecvDragonSoulRefine@CPythonNetworkStream@@IAE_NXZ ENDP ; CPythonNetworkStream::RecvDragonSoulRefine
_TEXT	ENDS
; Function compile flags: /Ogtp
; File E:\Metin2_server\SolWayneSF v6\ClientVS22\source\UserInterface\PythonNetworkStreamPhaseGameItem.cpp
;	COMDAT ?RecvSpecificEffect@CPythonNetworkStream@@IAE_NXZ
_TEXT	SEGMENT
_kSpecificEffect$ = -140				; size = 133
__$ArrayPad$ = -4					; size = 4
?RecvSpecificEffect@CPythonNetworkStream@@IAE_NXZ PROC	; CPythonNetworkStream::RecvSpecificEffect, COMDAT
; _this$ = ecx

; 918  : {

  00000	55		 push	 ebp
  00001	8b ec		 mov	 ebp, esp
  00003	81 ec 8c 00 00
	00		 sub	 esp, 140		; 0000008cH
  00009	a1 00 00 00 00	 mov	 eax, DWORD PTR ___security_cookie
  0000e	33 c5		 xor	 eax, ebp
  00010	89 45 fc	 mov	 DWORD PTR __$ArrayPad$[ebp], eax

; 919  : 	TPacketGCSpecificEffect kSpecificEffect;
; 920  : 	if (!Recv(sizeof(kSpecificEffect), &kSpecificEffect))

  00013	8d 85 74 ff ff
	ff		 lea	 eax, DWORD PTR _kSpecificEffect$[ebp]
  00019	50		 push	 eax
  0001a	68 85 00 00 00	 push	 133			; 00000085H
  0001f	e8 00 00 00 00	 call	 ?Recv@CNetworkStream@@QAE_NHPAX@Z ; CNetworkStream::Recv
  00024	84 c0		 test	 al, al
  00026	75 0e		 jne	 SHORT $LN2@RecvSpecif

; 929  : 	}
; 930  : 
; 931  : 	return true;
; 932  : }

  00028	8b 4d fc	 mov	 ecx, DWORD PTR __$ArrayPad$[ebp]
  0002b	33 cd		 xor	 ecx, ebp
  0002d	e8 00 00 00 00	 call	 @__security_check_cookie@4
  00032	8b e5		 mov	 esp, ebp
  00034	5d		 pop	 ebp
  00035	c3		 ret	 0
$LN2@RecvSpecif:

; 921  : 		return false;
; 922  : 
; 923  : 	CInstanceBase * pInstance = CPythonCharacterManager::Instance().GetInstancePtr(kSpecificEffect.vid);

  00036	8b 0d 00 00 00
	00		 mov	 ecx, DWORD PTR ?ms_singleton@?$CSingleton@VCPythonCharacterManager@@@@0PAVCPythonCharacterManager@@A ; CSingleton<CPythonCharacterManager>::ms_singleton
  0003c	83 c1 04	 add	 ecx, 4
  0003f	56		 push	 esi
  00040	ff b5 75 ff ff
	ff		 push	 DWORD PTR _kSpecificEffect$[ebp+1]
  00046	8b 01		 mov	 eax, DWORD PTR [ecx]
  00048	ff 50 08	 call	 DWORD PTR [eax+8]
  0004b	8b f0		 mov	 esi, eax

; 924  : 	//EFFECT_TEMP
; 925  : 	if (pInstance)

  0004d	85 f6		 test	 esi, esi
  0004f	74 27		 je	 SHORT $LN3@RecvSpecif

; 926  : 	{
; 927  : 		CInstanceBase::RegisterEffect(CInstanceBase::EFFECT_TEMP, "", kSpecificEffect.effect_file, false);

  00051	8d 85 79 ff ff
	ff		 lea	 eax, DWORD PTR _kSpecificEffect$[ebp+5]
  00057	ba 00 00 00 00	 mov	 edx, OFFSET ??_C@_00CNPNBAHC@@
  0005c	6a 00		 push	 0
  0005e	50		 push	 eax
  0005f	b9 12 01 00 00	 mov	 ecx, 274		; 00000112H
  00064	e8 00 00 00 00	 call	 ?RegisterEffect@CInstanceBase@@SA_NIPBD0_N@Z ; CInstanceBase::RegisterEffect
  00069	83 c4 08	 add	 esp, 8

; 928  : 		pInstance->AttachSpecialEffect(CInstanceBase::EFFECT_TEMP);

  0006c	8b ce		 mov	 ecx, esi
  0006e	68 12 01 00 00	 push	 274			; 00000112H
  00073	e8 00 00 00 00	 call	 ?AttachSpecialEffect@CInstanceBase@@QAEXK@Z ; CInstanceBase::AttachSpecialEffect
$LN3@RecvSpecif:

; 929  : 	}
; 930  : 
; 931  : 	return true;
; 932  : }

  00078	8b 4d fc	 mov	 ecx, DWORD PTR __$ArrayPad$[ebp]
  0007b	b0 01		 mov	 al, 1
  0007d	33 cd		 xor	 ecx, ebp
  0007f	5e		 pop	 esi
  00080	e8 00 00 00 00	 call	 @__security_check_cookie@4
  00085	8b e5		 mov	 esp, ebp
  00087	5d		 pop	 ebp
  00088	c3		 ret	 0
?RecvSpecificEffect@CPythonNetworkStream@@IAE_NXZ ENDP	; CPythonNetworkStream::RecvSpecificEffect
_TEXT	ENDS
; Function compile flags: /Ogtp
; File E:\Metin2_server\SolWayneSF v6\ClientVS22\source\UserInterface\PythonNetworkStreamPhaseGameItem.cpp
;	COMDAT ?RecvMallItemDelPacket@CPythonNetworkStream@@QAE_NXZ
_TEXT	SEGMENT
_kItemDel$ = -4						; size = 2
?RecvMallItemDelPacket@CPythonNetworkStream@@QAE_NXZ PROC ; CPythonNetworkStream::RecvMallItemDelPacket, COMDAT
; _this$ = ecx

; 197  : {

  00000	55		 push	 ebp
  00001	8b ec		 mov	 ebp, esp
  00003	51		 push	 ecx
  00004	56		 push	 esi

; 198  : 	TPacketGCItemDel kItemDel;
; 199  : 	if (!Recv(sizeof(kItemDel), &kItemDel))

  00005	8d 45 fc	 lea	 eax, DWORD PTR _kItemDel$[ebp]
  00008	8b f1		 mov	 esi, ecx
  0000a	50		 push	 eax
  0000b	6a 02		 push	 2
  0000d	e8 00 00 00 00	 call	 ?Recv@CNetworkStream@@QAE_NHPAX@Z ; CNetworkStream::Recv
  00012	84 c0		 test	 al, al
  00014	75 05		 jne	 SHORT $LN2@RecvMallIt
  00016	5e		 pop	 esi

; 208  : }

  00017	8b e5		 mov	 esp, ebp
  00019	5d		 pop	 ebp
  0001a	c3		 ret	 0
$LN2@RecvMallIt:

; 200  : 		return false;
; 201  : 
; 202  : 	CPythonSafeBox::Instance().DelMallItemData(kItemDel.pos);

  0001b	0f b6 45 fd	 movzx	 eax, BYTE PTR _kItemDel$[ebp+1]
  0001f	8b 0d 00 00 00
	00		 mov	 ecx, DWORD PTR ?ms_singleton@?$CSingleton@VCPythonSafeBox@@@@0PAVCPythonSafeBox@@A ; CSingleton<CPythonSafeBox>::ms_singleton
  00025	50		 push	 eax
  00026	e8 00 00 00 00	 call	 ?DelMallItemData@CPythonSafeBox@@QAEXK@Z ; CPythonSafeBox::DelMallItemData

; 203  : 
; 204  : 	__RefreshMallWindow();

  0002b	8b ce		 mov	 ecx, esi
  0002d	e8 00 00 00 00	 call	 ?__RefreshMallWindow@CPythonNetworkStream@@IAEXXZ ; CPythonNetworkStream::__RefreshMallWindow

; 205  : 	Tracef(" >> CPythonNetworkStream::RecvMallItemDelPacket\n");

  00032	68 00 00 00 00	 push	 OFFSET ??_C@_0DB@JMGJIAKF@?5?$DO?$DO?5CPythonNetworkStream?3?3RecvM@
  00037	e8 00 00 00 00	 call	 ?Tracef@@YAXPBDZZ	; Tracef
  0003c	83 c4 04	 add	 esp, 4

; 206  : 
; 207  : 	return true;

  0003f	b0 01		 mov	 al, 1
  00041	5e		 pop	 esi

; 208  : }

  00042	8b e5		 mov	 esp, ebp
  00044	5d		 pop	 ebp
  00045	c3		 ret	 0
?RecvMallItemDelPacket@CPythonNetworkStream@@QAE_NXZ ENDP ; CPythonNetworkStream::RecvMallItemDelPacket
_TEXT	ENDS
; Function compile flags: /Ogtp
; File E:\Metin2_server\SolWayneSF v6\ClientVS22\source\UserInterface\PythonNetworkStreamPhaseGameItem.cpp
; File E:\Metin2_server\SolWayneSF v6\ClientVS22\source\UserInterface\GameType.h
; File E:\Metin2_server\SolWayneSF v6\ClientVS22\source\UserInterface\PythonNetworkStreamPhaseGameItem.cpp
; File E:\Metin2_server\SolWayneSF v6\ClientVS22\source\UserInterface\GameType.h
; File E:\Metin2_server\SolWayneSF v6\ClientVS22\source\UserInterface\PythonNetworkStreamPhaseGameItem.cpp
;	COMDAT ?RecvMallItemSetPacket@CPythonNetworkStream@@QAE_NXZ
_TEXT	SEGMENT
_kItemData$ = -104					; size = 46
_kItemSet$ = -56					; size = 51
__$ArrayPad$ = -4					; size = 4
?RecvMallItemSetPacket@CPythonNetworkStream@@QAE_NXZ PROC ; CPythonNetworkStream::RecvMallItemSetPacket, COMDAT
; _this$ = ecx

; 175  : {

  00000	55		 push	 ebp
  00001	8b ec		 mov	 ebp, esp
  00003	83 ec 68	 sub	 esp, 104		; 00000068H
  00006	a1 00 00 00 00	 mov	 eax, DWORD PTR ___security_cookie
  0000b	33 c5		 xor	 eax, ebp
  0000d	89 45 fc	 mov	 DWORD PTR __$ArrayPad$[ebp], eax
; File E:\Metin2_server\SolWayneSF v6\ClientVS22\source\UserInterface\GameType.h

; 202  : 		cell = WORD_MAX;

  00010	b8 ff ff 00 00	 mov	 eax, 65535		; 0000ffffH
  00015	c6 45 c9 01	 mov	 BYTE PTR _kItemSet$[ebp+1], 1
; File E:\Metin2_server\SolWayneSF v6\ClientVS22\source\UserInterface\PythonNetworkStreamPhaseGameItem.cpp

; 175  : {

  00019	56		 push	 esi
; File E:\Metin2_server\SolWayneSF v6\ClientVS22\source\UserInterface\GameType.h

; 202  : 		cell = WORD_MAX;

  0001a	66 89 45 ca	 mov	 WORD PTR _kItemSet$[ebp+2], ax
; File E:\Metin2_server\SolWayneSF v6\ClientVS22\source\UserInterface\PythonNetworkStreamPhaseGameItem.cpp

; 175  : {

  0001e	8b f1		 mov	 esi, ecx

; 176  : 	TPacketGCItemSet2 kItemSet;
; 177  : 	if (!Recv(sizeof(kItemSet), &kItemSet))

  00020	8d 45 c8	 lea	 eax, DWORD PTR _kItemSet$[ebp]
  00023	50		 push	 eax
  00024	6a 33		 push	 51			; 00000033H
  00026	e8 00 00 00 00	 call	 ?Recv@CNetworkStream@@QAE_NHPAX@Z ; CNetworkStream::Recv
  0002b	84 c0		 test	 al, al
  0002d	75 0f		 jne	 SHORT $LN8@RecvMallIt
  0002f	5e		 pop	 esi

; 193  : 
; 194  : 	return true;
; 195  : }

  00030	8b 4d fc	 mov	 ecx, DWORD PTR __$ArrayPad$[ebp]
  00033	33 cd		 xor	 ecx, ebp
  00035	e8 00 00 00 00	 call	 @__security_check_cookie@4
  0003a	8b e5		 mov	 esp, ebp
  0003c	5d		 pop	 ebp
  0003d	c3		 ret	 0
$LN8@RecvMallIt:

; 178  : 		return false;
; 179  : 
; 180  : 	TItemData kItemData;
; 181  : 	kItemData.vnum = kItemSet.vnum;

  0003e	8b 45 cc	 mov	 eax, DWORD PTR _kItemSet$[ebp+4]
  00041	0f 10 45 e6	 movups	 xmm0, XMMWORD PTR _kItemSet$[ebp+30]
  00045	89 45 98	 mov	 DWORD PTR _kItemData$[ebp], eax

; 182  : 	kItemData.count = kItemSet.count;

  00048	8a 45 d0	 mov	 al, BYTE PTR _kItemSet$[ebp+8]

; 183  : 	kItemData.flags = kItemSet.flags;
; 184  : 	kItemData.anti_flags = kItemSet.anti_flags;
; 185  : 	for (int isocket=0; isocket<ITEM_SOCKET_SLOT_MAX_NUM; ++isocket)
; 186  : 		kItemData.alSockets[isocket] = kItemSet.alSockets[isocket];
; 187  : 	for (int iattr=0; iattr<ITEM_ATTRIBUTE_SLOT_MAX_NUM; ++iattr)
; 188  : 		kItemData.aAttr[iattr] = kItemSet.aAttr[iattr];
; 189  : 
; 190  : 	CPythonSafeBox::Instance().SetMallItemData(kItemSet.Cell.cell, kItemData);

  0004b	8b 0d 00 00 00
	00		 mov	 ecx, DWORD PTR ?ms_singleton@?$CSingleton@VCPythonSafeBox@@@@0PAVCPythonSafeBox@@A ; CSingleton<CPythonSafeBox>::ms_singleton
  00051	88 45 9c	 mov	 BYTE PTR _kItemData$[ebp+4], al
  00054	8b 45 d1	 mov	 eax, DWORD PTR _kItemSet$[ebp+9]
  00057	89 45 9d	 mov	 DWORD PTR _kItemData$[ebp+5], eax
  0005a	8b 45 d5	 mov	 eax, DWORD PTR _kItemSet$[ebp+13]
  0005d	89 45 a1	 mov	 DWORD PTR _kItemData$[ebp+9], eax
  00060	8b 45 da	 mov	 eax, DWORD PTR _kItemSet$[ebp+18]
  00063	89 45 a5	 mov	 DWORD PTR _kItemData$[ebp+13], eax
  00066	8b 45 de	 mov	 eax, DWORD PTR _kItemSet$[ebp+22]
  00069	89 45 a9	 mov	 DWORD PTR _kItemData$[ebp+17], eax
  0006c	8b 45 e2	 mov	 eax, DWORD PTR _kItemSet$[ebp+26]
  0006f	89 45 ad	 mov	 DWORD PTR _kItemData$[ebp+21], eax
  00072	8b 45 f6	 mov	 eax, DWORD PTR _kItemSet$[ebp+46]
  00075	89 45 c1	 mov	 DWORD PTR _kItemData$[ebp+41], eax
  00078	8a 45 fa	 mov	 al, BYTE PTR _kItemSet$[ebp+50]
  0007b	88 45 c5	 mov	 BYTE PTR _kItemData$[ebp+45], al
  0007e	8d 45 98	 lea	 eax, DWORD PTR _kItemData$[ebp]
  00081	50		 push	 eax
  00082	0f b7 45 ca	 movzx	 eax, WORD PTR _kItemSet$[ebp+2]
  00086	50		 push	 eax
  00087	0f 11 45 b1	 movups	 XMMWORD PTR _kItemData$[ebp+25], xmm0
  0008b	e8 00 00 00 00	 call	 ?SetMallItemData@CPythonSafeBox@@QAEXKABUpacket_item@@@Z ; CPythonSafeBox::SetMallItemData

; 191  : 
; 192  : 	__RefreshMallWindow();

  00090	8b ce		 mov	 ecx, esi
  00092	e8 00 00 00 00	 call	 ?__RefreshMallWindow@CPythonNetworkStream@@IAEXXZ ; CPythonNetworkStream::__RefreshMallWindow

; 193  : 
; 194  : 	return true;
; 195  : }

  00097	8b 4d fc	 mov	 ecx, DWORD PTR __$ArrayPad$[ebp]
  0009a	b0 01		 mov	 al, 1
  0009c	33 cd		 xor	 ecx, ebp
  0009e	5e		 pop	 esi
  0009f	e8 00 00 00 00	 call	 @__security_check_cookie@4
  000a4	8b e5		 mov	 esp, ebp
  000a6	5d		 pop	 ebp
  000a7	c3		 ret	 0
?RecvMallItemSetPacket@CPythonNetworkStream@@QAE_NXZ ENDP ; CPythonNetworkStream::RecvMallItemSetPacket
_TEXT	ENDS
; Function compile flags: /Ogtp
; File E:\Metin2_server\SolWayneSF v6\ClientVS22\source\UserInterface\PythonNetworkStreamPhaseGameItem.cpp
;	COMDAT ?RecvMallOpenPacket@CPythonNetworkStream@@QAE_NXZ
_TEXT	SEGMENT
_kMallOpen$ = -4					; size = 2
?RecvMallOpenPacket@CPythonNetworkStream@@QAE_NXZ PROC	; CPythonNetworkStream::RecvMallOpenPacket, COMDAT
; _this$ = ecx

; 164  : {

  00000	55		 push	 ebp
  00001	8b ec		 mov	 ebp, esp
  00003	51		 push	 ecx
  00004	56		 push	 esi

; 165  : 	TPacketGCMallOpen kMallOpen;
; 166  : 	if (!Recv(sizeof(kMallOpen), &kMallOpen))

  00005	8d 45 fc	 lea	 eax, DWORD PTR _kMallOpen$[ebp]
  00008	8b f1		 mov	 esi, ecx
  0000a	50		 push	 eax
  0000b	6a 02		 push	 2
  0000d	e8 00 00 00 00	 call	 ?Recv@CNetworkStream@@QAE_NHPAX@Z ; CNetworkStream::Recv
  00012	84 c0		 test	 al, al
  00014	75 05		 jne	 SHORT $LN2@RecvMallOp
  00016	5e		 pop	 esi

; 173  : }

  00017	8b e5		 mov	 esp, ebp
  00019	5d		 pop	 ebp
  0001a	c3		 ret	 0
$LN2@RecvMallOp:

; 167  : 		return false;
; 168  : 
; 169  : 	CPythonSafeBox::Instance().OpenMall(kMallOpen.bSize);

  0001b	0f b6 45 fd	 movzx	 eax, BYTE PTR _kMallOpen$[ebp+1]
  0001f	8b 0d 00 00 00
	00		 mov	 ecx, DWORD PTR ?ms_singleton@?$CSingleton@VCPythonSafeBox@@@@0PAVCPythonSafeBox@@A ; CSingleton<CPythonSafeBox>::ms_singleton
  00025	50		 push	 eax
  00026	e8 00 00 00 00	 call	 ?OpenMall@CPythonSafeBox@@QAEXH@Z ; CPythonSafeBox::OpenMall

; 170  : 	PyCallClassMemberFunc(m_apoPhaseWnd[PHASE_WINDOW_GAME], "OpenMallWindow", Py_BuildValue("(i)", kMallOpen.bSize));

  0002b	0f b6 45 fd	 movzx	 eax, BYTE PTR _kMallOpen$[ebp+1]
  0002f	50		 push	 eax
  00030	68 00 00 00 00	 push	 OFFSET ??_C@_03LIHNMIHG@?$CIi?$CJ@
  00035	ff 15 00 00 00
	00		 call	 DWORD PTR __imp__Py_BuildValue
  0003b	50		 push	 eax
  0003c	68 00 00 00 00	 push	 OFFSET ??_C@_0P@OIFPJOPL@OpenMallWindow@
  00041	ff b6 90 01 00
	00		 push	 DWORD PTR [esi+400]
  00047	e8 00 00 00 00	 call	 ?PyCallClassMemberFunc@@YA_NPAU_object@@PBD0@Z ; PyCallClassMemberFunc
  0004c	83 c4 14	 add	 esp, 20			; 00000014H

; 171  : 
; 172  : 	return true;

  0004f	b0 01		 mov	 al, 1
  00051	5e		 pop	 esi

; 173  : }

  00052	8b e5		 mov	 esp, ebp
  00054	5d		 pop	 ebp
  00055	c3		 ret	 0
?RecvMallOpenPacket@CPythonNetworkStream@@QAE_NXZ ENDP	; CPythonNetworkStream::RecvMallOpenPacket
_TEXT	ENDS
; Function compile flags: /Ogtp
; File E:\Metin2_server\SolWayneSF v6\ClientVS22\source\UserInterface\PythonNetworkStreamPhaseGameItem.cpp
;	COMDAT ?RecvSpecialEffect@CPythonNetworkStream@@IAE_NXZ
_TEXT	SEGMENT
_kSpecialEffect$ = -8					; size = 6
?RecvSpecialEffect@CPythonNetworkStream@@IAE_NXZ PROC	; CPythonNetworkStream::RecvSpecialEffect, COMDAT
; _this$ = ecx

; 784  : {

  00000	55		 push	 ebp
  00001	8b ec		 mov	 ebp, esp
  00003	83 ec 08	 sub	 esp, 8

; 785  : 	TPacketGCSpecialEffect kSpecialEffect;
; 786  : 	if (!Recv(sizeof(kSpecialEffect), &kSpecialEffect))

  00006	8d 45 f8	 lea	 eax, DWORD PTR _kSpecialEffect$[ebp]
  00009	50		 push	 eax
  0000a	6a 06		 push	 6
  0000c	e8 00 00 00 00	 call	 ?Recv@CNetworkStream@@QAE_NHPAX@Z ; CNetworkStream::Recv
  00011	84 c0		 test	 al, al
  00013	75 04		 jne	 SHORT $LN4@RecvSpecia

; 914  : }

  00015	8b e5		 mov	 esp, ebp
  00017	5d		 pop	 ebp
  00018	c3		 ret	 0
$LN4@RecvSpecia:

; 787  : 		return false;
; 788  : 
; 789  : 	DWORD effect = -1;
; 790  : 	bool bPlayPotionSound = false;	//포션을 먹을 경우는 포션 사운드를 출력하자.!!
; 791  : 	bool bAttachEffect = true;		//캐리터에 붙는 어태치 이펙트와 일반 이펙트 구분.!!
; 792  : 	switch (kSpecialEffect.type)

  00019	0f b6 45 f9	 movzx	 eax, BYTE PTR _kSpecialEffect$[ebp+1]
  0001d	53		 push	 ebx
  0001e	56		 push	 esi
  0001f	b3 01		 mov	 bl, 1
  00021	8d 48 ff	 lea	 ecx, DWORD PTR [eax-1]
  00024	83 f9 19	 cmp	 ecx, 25			; 00000019H
  00027	0f 87 2f 01 00
	00		 ja	 $LN31@RecvSpecia
  0002d	ff 24 8d 00 00
	00 00		 jmp	 DWORD PTR $LN41@RecvSpecia[ecx*4]
$LN5@RecvSpecia:

; 793  : 	{
; 794  : 		case SE_HPUP_RED:
; 795  : 			effect = CInstanceBase::EFFECT_HPUP_RED;

  00034	be 0d 00 00 00	 mov	 esi, 13			; 0000000dH

; 796  : 			bPlayPotionSound = true;
; 797  : 			break;

  00039	eb 13		 jmp	 SHORT $LN39@RecvSpecia
$LN6@RecvSpecia:

; 798  : 		case SE_SPUP_BLUE:
; 799  : 			effect = CInstanceBase::EFFECT_SPUP_BLUE;

  0003b	be 0e 00 00 00	 mov	 esi, 14			; 0000000eH

; 800  : 			bPlayPotionSound = true;
; 801  : 			break;

  00040	eb 0c		 jmp	 SHORT $LN39@RecvSpecia
$LN7@RecvSpecia:

; 802  : 		case SE_SPEEDUP_GREEN:
; 803  : 			effect = CInstanceBase::EFFECT_SPEEDUP_GREEN;

  00042	be 0f 00 00 00	 mov	 esi, 15			; 0000000fH

; 804  : 			bPlayPotionSound = true;
; 805  : 			break;

  00047	eb 05		 jmp	 SHORT $LN39@RecvSpecia
$LN8@RecvSpecia:

; 806  : 		case SE_DXUP_PURPLE:
; 807  : 			effect = CInstanceBase::EFFECT_DXUP_PURPLE;

  00049	be 10 00 00 00	 mov	 esi, 16			; 00000010H
$LN39@RecvSpecia:

; 888  : 			break;
; 889  : 	}
; 890  : 
; 891  : 	if (bPlayPotionSound)
; 892  : 	{		
; 893  : 		IAbstractPlayer& rkPlayer=IAbstractPlayer::GetSingleton();

  0004e	8b 0d 00 00 00
	00		 mov	 ecx, DWORD PTR ?ms_singleton@?$TAbstractSingleton@VIAbstractPlayer@@@@0PAVIAbstractPlayer@@A ; TAbstractSingleton<IAbstractPlayer>::ms_singleton

; 894  : 		if(rkPlayer.IsMainCharacterIndex(kSpecialEffect.vid))

  00054	ff 75 fa	 push	 DWORD PTR _kSpecialEffect$[ebp+2]
  00057	8b 01		 mov	 eax, DWORD PTR [ecx]
  00059	8b 40 0c	 mov	 eax, DWORD PTR [eax+12]
  0005c	ff d0		 call	 eax
  0005e	84 c0		 test	 al, al
  00060	0f 84 c0 00 00
	00		 je	 $LN40@RecvSpecia

; 895  : 		{
; 896  : 			CPythonItem& rkItem=CPythonItem::Instance();
; 897  : 			rkItem.PlayUsePotionSound();

  00066	8b 0d 00 00 00
	00		 mov	 ecx, DWORD PTR ?ms_singleton@?$CSingleton@VCPythonItem@@@@0PAVCPythonItem@@A ; CSingleton<CPythonItem>::ms_singleton
  0006c	e8 00 00 00 00	 call	 ?PlayUsePotionSound@CPythonItem@@QAEXXZ ; CPythonItem::PlayUsePotionSound
  00071	e9 b0 00 00 00	 jmp	 $LN40@RecvSpecia
$LN9@RecvSpecia:

; 808  : 			bPlayPotionSound = true;
; 809  : 			break;
; 810  : 		case SE_CRITICAL:
; 811  : 			effect = CInstanceBase::EFFECT_CRITICAL;

  00076	be 11 00 00 00	 mov	 esi, 17			; 00000011H

; 812  : 			break;

  0007b	e9 a6 00 00 00	 jmp	 $LN40@RecvSpecia
$LN10@RecvSpecia:

; 813  : 		case SE_PENETRATE:
; 814  : 			effect = CInstanceBase::EFFECT_PENETRATE;

  00080	be 12 00 00 00	 mov	 esi, 18			; 00000012H

; 815  : 			break;

  00085	e9 9c 00 00 00	 jmp	 $LN40@RecvSpecia
$LN11@RecvSpecia:

; 816  : 		case SE_BLOCK:
; 817  : 			effect = CInstanceBase::EFFECT_BLOCK;

  0008a	be 13 00 00 00	 mov	 esi, 19			; 00000013H

; 818  : 			break;

  0008f	e9 92 00 00 00	 jmp	 $LN40@RecvSpecia
$LN12@RecvSpecia:

; 819  : 		case SE_DODGE:
; 820  : 			effect = CInstanceBase::EFFECT_DODGE;

  00094	be 14 00 00 00	 mov	 esi, 20			; 00000014H

; 821  : 			break;

  00099	e9 88 00 00 00	 jmp	 $LN40@RecvSpecia
$LN13@RecvSpecia:

; 822  : 		case SE_CHINA_FIREWORK:
; 823  : 			effect = CInstanceBase::EFFECT_FIRECRACKER;

  0009e	be 15 00 00 00	 mov	 esi, 21			; 00000015H

; 824  : 			bAttachEffect = false;

  000a3	32 db		 xor	 bl, bl

; 825  : 			break;

  000a5	eb 7f		 jmp	 SHORT $LN40@RecvSpecia
$LN14@RecvSpecia:

; 826  : 		case SE_SPIN_TOP:
; 827  : 			effect = CInstanceBase::EFFECT_SPIN_TOP;

  000a7	be 16 00 00 00	 mov	 esi, 22			; 00000016H

; 828  : 			bAttachEffect = false;

  000ac	32 db		 xor	 bl, bl

; 829  : 			break;

  000ae	eb 76		 jmp	 SHORT $LN40@RecvSpecia
$LN15@RecvSpecia:

; 830  : 		case SE_SUCCESS :
; 831  : 			effect = CInstanceBase::EFFECT_SUCCESS ;

  000b0	be 04 01 00 00	 mov	 esi, 260		; 00000104H

; 832  : 			bAttachEffect = false ;

  000b5	32 db		 xor	 bl, bl

; 833  : 			break ;

  000b7	eb 6d		 jmp	 SHORT $LN40@RecvSpecia
$LN16@RecvSpecia:

; 834  : 		case SE_FAIL :
; 835  : 			effect = CInstanceBase::EFFECT_FAIL ;

  000b9	be 05 01 00 00	 mov	 esi, 261		; 00000105H

; 836  : 			break ;

  000be	eb 66		 jmp	 SHORT $LN40@RecvSpecia
$LN17@RecvSpecia:

; 837  : 		case SE_FR_SUCCESS:
; 838  : 			effect = CInstanceBase::EFFECT_FR_SUCCESS;

  000c0	be 06 01 00 00	 mov	 esi, 262		; 00000106H

; 839  : 			bAttachEffect = false ;

  000c5	32 db		 xor	 bl, bl

; 840  : 			break;

  000c7	eb 5d		 jmp	 SHORT $LN40@RecvSpecia
$LN18@RecvSpecia:

; 841  : 		case SE_LEVELUP_ON_14_FOR_GERMANY:	//레벨업 14일때 ( 독일전용 )
; 842  : 			effect = CInstanceBase::EFFECT_LEVELUP_ON_14_FOR_GERMANY;

  000c9	be 07 01 00 00	 mov	 esi, 263		; 00000107H

; 843  : 			bAttachEffect = false ;

  000ce	32 db		 xor	 bl, bl

; 844  : 			break;

  000d0	eb 54		 jmp	 SHORT $LN40@RecvSpecia
$LN19@RecvSpecia:

; 845  : 		case SE_LEVELUP_UNDER_15_FOR_GERMANY: //레벨업 15일때 ( 독일전용 )
; 846  : 			effect = CInstanceBase::EFFECT_LEVELUP_UNDER_15_FOR_GERMANY;

  000d2	be 08 01 00 00	 mov	 esi, 264		; 00000108H

; 847  : 			bAttachEffect = false ;

  000d7	32 db		 xor	 bl, bl

; 848  : 			break;

  000d9	eb 4b		 jmp	 SHORT $LN40@RecvSpecia
$LN20@RecvSpecia:

; 849  : 		case SE_PERCENT_DAMAGE1:
; 850  : 			effect = CInstanceBase::EFFECT_PERCENT_DAMAGE1;

  000db	be 09 01 00 00	 mov	 esi, 265		; 00000109H

; 851  : 			break;

  000e0	eb 44		 jmp	 SHORT $LN40@RecvSpecia
$LN21@RecvSpecia:

; 852  : 		case SE_PERCENT_DAMAGE2:
; 853  : 			effect = CInstanceBase::EFFECT_PERCENT_DAMAGE2;

  000e2	be 0a 01 00 00	 mov	 esi, 266		; 0000010aH

; 854  : 			break;

  000e7	eb 3d		 jmp	 SHORT $LN40@RecvSpecia
$LN22@RecvSpecia:

; 855  : 		case SE_PERCENT_DAMAGE3:
; 856  : 			effect = CInstanceBase::EFFECT_PERCENT_DAMAGE3;

  000e9	be 0b 01 00 00	 mov	 esi, 267		; 0000010bH

; 857  : 			break;

  000ee	eb 36		 jmp	 SHORT $LN40@RecvSpecia
$LN23@RecvSpecia:

; 858  : 		case SE_AUTO_HPUP:
; 859  : 			effect = CInstanceBase::EFFECT_AUTO_HPUP;

  000f0	be 0c 01 00 00	 mov	 esi, 268		; 0000010cH

; 860  : 			break;

  000f5	eb 2f		 jmp	 SHORT $LN40@RecvSpecia
$LN24@RecvSpecia:

; 861  : 		case SE_AUTO_SPUP:
; 862  : 			effect = CInstanceBase::EFFECT_AUTO_SPUP;

  000f7	be 0d 01 00 00	 mov	 esi, 269		; 0000010dH

; 863  : 			break;

  000fc	eb 28		 jmp	 SHORT $LN40@RecvSpecia
$LN25@RecvSpecia:

; 864  : 		case SE_EQUIP_RAMADAN_RING:
; 865  : 			effect = CInstanceBase::EFFECT_RAMADAN_RING_EQUIP;

  000fe	be 0e 01 00 00	 mov	 esi, 270		; 0000010eH

; 866  : 			break;

  00103	eb 21		 jmp	 SHORT $LN40@RecvSpecia
$LN26@RecvSpecia:

; 867  : 		case SE_EQUIP_HALLOWEEN_CANDY:
; 868  : 			effect = CInstanceBase::EFFECT_HALLOWEEN_CANDY_EQUIP;

  00105	be 0f 01 00 00	 mov	 esi, 271		; 0000010fH

; 869  : 			break;

  0010a	eb 1a		 jmp	 SHORT $LN40@RecvSpecia
$LN27@RecvSpecia:

; 870  : 		case SE_EQUIP_HAPPINESS_RING:
; 871  :  			effect = CInstanceBase::EFFECT_HAPPINESS_RING_EQUIP;

  0010c	be 10 01 00 00	 mov	 esi, 272		; 00000110H

; 872  : 			break;

  00111	eb 13		 jmp	 SHORT $LN40@RecvSpecia
$LN28@RecvSpecia:

; 873  : 		case SE_EQUIP_LOVE_PENDANT:
; 874  : 			effect = CInstanceBase::EFFECT_LOVE_PENDANT_EQUIP;

  00113	be 11 01 00 00	 mov	 esi, 273		; 00000111H

; 875  : 			break;

  00118	eb 0c		 jmp	 SHORT $LN40@RecvSpecia
$LN29@RecvSpecia:

; 876  : 		#ifdef ENABLE_SASH_SYSTEM
; 877  : 		case SE_EFFECT_SASH_SUCCEDED:
; 878  : 			effect = CInstanceBase::EFFECT_SASH_SUCCEDED;

  0011a	be 13 01 00 00	 mov	 esi, 275		; 00000113H

; 879  : 			break;

  0011f	eb 05		 jmp	 SHORT $LN40@RecvSpecia
$LN30@RecvSpecia:

; 880  : 		case SE_EFFECT_SASH_EQUIP:
; 881  : 			effect = CInstanceBase::EFFECT_SASH_EQUIP;

  00121	be 14 01 00 00	 mov	 esi, 276		; 00000114H
$LN40@RecvSpecia:

; 898  : 		}
; 899  : 	}
; 900  : 
; 901  : 	if (-1 != effect)
; 902  : 	{
; 903  : 		CInstanceBase * pInstance = CPythonCharacterManager::Instance().GetInstancePtr(kSpecialEffect.vid);

  00126	8b 0d 00 00 00
	00		 mov	 ecx, DWORD PTR ?ms_singleton@?$CSingleton@VCPythonCharacterManager@@@@0PAVCPythonCharacterManager@@A ; CSingleton<CPythonCharacterManager>::ms_singleton
  0012c	ff 75 fa	 push	 DWORD PTR _kSpecialEffect$[ebp+2]
  0012f	83 c1 04	 add	 ecx, 4
  00132	8b 01		 mov	 eax, DWORD PTR [ecx]
  00134	ff 50 08	 call	 DWORD PTR [eax+8]

; 904  : 		if (pInstance)

  00137	85 c0		 test	 eax, eax
  00139	74 2f		 je	 SHORT $LN37@RecvSpecia

; 905  : 		{
; 906  : 			if(bAttachEffect)

  0013b	8b c8		 mov	 ecx, eax
  0013d	56		 push	 esi
  0013e	84 db		 test	 bl, bl
  00140	74 0d		 je	 SHORT $LN36@RecvSpecia

; 907  : 				pInstance->AttachSpecialEffect(effect);

  00142	e8 00 00 00 00	 call	 ?AttachSpecialEffect@CInstanceBase@@QAEXK@Z ; CInstanceBase::AttachSpecialEffect

; 910  : 		}
; 911  : 	}
; 912  : 
; 913  : 	return true;

  00147	5e		 pop	 esi
  00148	b0 01		 mov	 al, 1
  0014a	5b		 pop	 ebx

; 914  : }

  0014b	8b e5		 mov	 esp, ebp
  0014d	5d		 pop	 ebp
  0014e	c3		 ret	 0
$LN36@RecvSpecia:

; 908  : 			else
; 909  : 				pInstance->CreateSpecialEffect(effect);

  0014f	e8 00 00 00 00	 call	 ?CreateSpecialEffect@CInstanceBase@@QAEXK@Z ; CInstanceBase::CreateSpecialEffect

; 910  : 		}
; 911  : 	}
; 912  : 
; 913  : 	return true;

  00154	5e		 pop	 esi
  00155	b0 01		 mov	 al, 1
  00157	5b		 pop	 ebx

; 914  : }

  00158	8b e5		 mov	 esp, ebp
  0015a	5d		 pop	 ebp
  0015b	c3		 ret	 0
$LN31@RecvSpecia:

; 882  : 			break;
; 883  : 		#endif
; 884  : 
; 885  : 		
; 886  : 		default:
; 887  : 			TraceError("%d 는 없는 스페셜 이펙트 번호입니다.TPacketGCSpecialEffect",kSpecialEffect.type);

  0015c	50		 push	 eax
  0015d	68 00 00 00 00	 push	 OFFSET ??_C@_0DL@PLJBBCEI@?$CFd?5?$LE?B?5?$LO?x?$LE?B?5?$LN?$LK?F?d?$LM?H?5?$MA?L?F?e?F?$KO?5?$LJ?x?H?$KD?$MA?T@
  00162	e8 00 00 00 00	 call	 ?TraceError@@YAXPBDZZ	; TraceError
  00167	83 c4 08	 add	 esp, 8
$LN37@RecvSpecia:

; 910  : 		}
; 911  : 	}
; 912  : 
; 913  : 	return true;

  0016a	5e		 pop	 esi
  0016b	b0 01		 mov	 al, 1
  0016d	5b		 pop	 ebx

; 914  : }

  0016e	8b e5		 mov	 esp, ebp
  00170	5d		 pop	 ebp
  00171	c3		 ret	 0
  00172	66 90		 npad	 2
$LN41@RecvSpecia:
  00174	00 00 00 00	 DD	 $LN5@RecvSpecia
  00178	00 00 00 00	 DD	 $LN6@RecvSpecia
  0017c	00 00 00 00	 DD	 $LN7@RecvSpecia
  00180	00 00 00 00	 DD	 $LN8@RecvSpecia
  00184	00 00 00 00	 DD	 $LN9@RecvSpecia
  00188	00 00 00 00	 DD	 $LN10@RecvSpecia
  0018c	00 00 00 00	 DD	 $LN11@RecvSpecia
  00190	00 00 00 00	 DD	 $LN12@RecvSpecia
  00194	00 00 00 00	 DD	 $LN13@RecvSpecia
  00198	00 00 00 00	 DD	 $LN14@RecvSpecia
  0019c	00 00 00 00	 DD	 $LN15@RecvSpecia
  001a0	00 00 00 00	 DD	 $LN16@RecvSpecia
  001a4	00 00 00 00	 DD	 $LN17@RecvSpecia
  001a8	00 00 00 00	 DD	 $LN18@RecvSpecia
  001ac	00 00 00 00	 DD	 $LN19@RecvSpecia
  001b0	00 00 00 00	 DD	 $LN20@RecvSpecia
  001b4	00 00 00 00	 DD	 $LN21@RecvSpecia
  001b8	00 00 00 00	 DD	 $LN22@RecvSpecia
  001bc	00 00 00 00	 DD	 $LN23@RecvSpecia
  001c0	00 00 00 00	 DD	 $LN24@RecvSpecia
  001c4	00 00 00 00	 DD	 $LN25@RecvSpecia
  001c8	00 00 00 00	 DD	 $LN26@RecvSpecia
  001cc	00 00 00 00	 DD	 $LN27@RecvSpecia
  001d0	00 00 00 00	 DD	 $LN28@RecvSpecia
  001d4	00 00 00 00	 DD	 $LN29@RecvSpecia
  001d8	00 00 00 00	 DD	 $LN30@RecvSpecia
?RecvSpecialEffect@CPythonNetworkStream@@IAE_NXZ ENDP	; CPythonNetworkStream::RecvSpecialEffect
_TEXT	ENDS
; Function compile flags: /Ogtp
; File E:\Metin2_server\SolWayneSF v6\ClientVS22\source\UserInterface\PythonNetworkStreamPhaseGameItem.cpp
;	COMDAT ?RecvSafeBoxMoneyChangePacket@CPythonNetworkStream@@IAE_NXZ
_TEXT	SEGMENT
_kMoneyChange$ = -8					; size = 5
?RecvSafeBoxMoneyChangePacket@CPythonNetworkStream@@IAE_NXZ PROC ; CPythonNetworkStream::RecvSafeBoxMoneyChangePacket, COMDAT
; _this$ = ecx

; 133  : {

  00000	55		 push	 ebp
  00001	8b ec		 mov	 ebp, esp
  00003	83 ec 08	 sub	 esp, 8

; 134  : 	TPacketGCSafeboxMoneyChange kMoneyChange;
; 135  : 	if (!Recv(sizeof(kMoneyChange), &kMoneyChange))

  00006	8d 45 f8	 lea	 eax, DWORD PTR _kMoneyChange$[ebp]
  00009	56		 push	 esi
  0000a	50		 push	 eax
  0000b	6a 05		 push	 5
  0000d	8b f1		 mov	 esi, ecx
  0000f	e8 00 00 00 00	 call	 ?Recv@CNetworkStream@@QAE_NHPAX@Z ; CNetworkStream::Recv
  00014	84 c0		 test	 al, al
  00016	75 05		 jne	 SHORT $LN2@RecvSafeBo
  00018	5e		 pop	 esi

; 142  : }

  00019	8b e5		 mov	 esp, ebp
  0001b	5d		 pop	 ebp
  0001c	c3		 ret	 0
$LN2@RecvSafeBo:

; 136  : 		return false;
; 137  : 
; 138  : 	CPythonSafeBox::Instance().SetMoney(kMoneyChange.dwMoney);

  0001d	ff 75 f9	 push	 DWORD PTR _kMoneyChange$[ebp+1]
  00020	8b 0d 00 00 00
	00		 mov	 ecx, DWORD PTR ?ms_singleton@?$CSingleton@VCPythonSafeBox@@@@0PAVCPythonSafeBox@@A ; CSingleton<CPythonSafeBox>::ms_singleton
  00026	e8 00 00 00 00	 call	 ?SetMoney@CPythonSafeBox@@QAEXK@Z ; CPythonSafeBox::SetMoney

; 139  : 	PyCallClassMemberFunc(m_apoPhaseWnd[PHASE_WINDOW_GAME], "RefreshSafeboxMoney", Py_BuildValue("()"));

  0002b	68 00 00 00 00	 push	 OFFSET ??_C@_02HCKGKOFO@?$CI?$CJ@
  00030	ff 15 00 00 00
	00		 call	 DWORD PTR __imp__Py_BuildValue
  00036	50		 push	 eax
  00037	68 00 00 00 00	 push	 OFFSET ??_C@_0BE@OHCDIKPF@RefreshSafeboxMoney@
  0003c	ff b6 90 01 00
	00		 push	 DWORD PTR [esi+400]
  00042	e8 00 00 00 00	 call	 ?PyCallClassMemberFunc@@YA_NPAU_object@@PBD0@Z ; PyCallClassMemberFunc
  00047	83 c4 10	 add	 esp, 16			; 00000010H

; 140  : 
; 141  : 	return true;

  0004a	b0 01		 mov	 al, 1
  0004c	5e		 pop	 esi

; 142  : }

  0004d	8b e5		 mov	 esp, ebp
  0004f	5d		 pop	 ebp
  00050	c3		 ret	 0
?RecvSafeBoxMoneyChangePacket@CPythonNetworkStream@@IAE_NXZ ENDP ; CPythonNetworkStream::RecvSafeBoxMoneyChangePacket
_TEXT	ENDS
; Function compile flags: /Ogtp
; File E:\Metin2_server\SolWayneSF v6\ClientVS22\source\UserInterface\PythonNetworkStreamPhaseGameItem.cpp
;	COMDAT ?RecvSafeBoxSizePacket@CPythonNetworkStream@@IAE_NXZ
_TEXT	SEGMENT
_kSafeBoxSize$ = -4					; size = 2
?RecvSafeBoxSizePacket@CPythonNetworkStream@@IAE_NXZ PROC ; CPythonNetworkStream::RecvSafeBoxSizePacket, COMDAT
; _this$ = ecx

; 121  : {

  00000	55		 push	 ebp
  00001	8b ec		 mov	 ebp, esp
  00003	51		 push	 ecx
  00004	56		 push	 esi

; 122  : 	TPacketGCSafeboxSize kSafeBoxSize;
; 123  : 	if (!Recv(sizeof(kSafeBoxSize), &kSafeBoxSize))

  00005	8d 45 fc	 lea	 eax, DWORD PTR _kSafeBoxSize$[ebp]
  00008	8b f1		 mov	 esi, ecx
  0000a	50		 push	 eax
  0000b	6a 02		 push	 2
  0000d	e8 00 00 00 00	 call	 ?Recv@CNetworkStream@@QAE_NHPAX@Z ; CNetworkStream::Recv
  00012	84 c0		 test	 al, al
  00014	75 05		 jne	 SHORT $LN2@RecvSafeBo
  00016	5e		 pop	 esi

; 130  : }

  00017	8b e5		 mov	 esp, ebp
  00019	5d		 pop	 ebp
  0001a	c3		 ret	 0
$LN2@RecvSafeBo:

; 124  : 		return false;
; 125  : 
; 126  : 	CPythonSafeBox::Instance().OpenSafeBox(kSafeBoxSize.bSize);

  0001b	0f b6 45 fd	 movzx	 eax, BYTE PTR _kSafeBoxSize$[ebp+1]
  0001f	8b 0d 00 00 00
	00		 mov	 ecx, DWORD PTR ?ms_singleton@?$CSingleton@VCPythonSafeBox@@@@0PAVCPythonSafeBox@@A ; CSingleton<CPythonSafeBox>::ms_singleton
  00025	50		 push	 eax
  00026	e8 00 00 00 00	 call	 ?OpenSafeBox@CPythonSafeBox@@QAEXH@Z ; CPythonSafeBox::OpenSafeBox

; 127  : 	PyCallClassMemberFunc(m_apoPhaseWnd[PHASE_WINDOW_GAME], "OpenSafeboxWindow", Py_BuildValue("(i)", kSafeBoxSize.bSize));

  0002b	0f b6 45 fd	 movzx	 eax, BYTE PTR _kSafeBoxSize$[ebp+1]
  0002f	50		 push	 eax
  00030	68 00 00 00 00	 push	 OFFSET ??_C@_03LIHNMIHG@?$CIi?$CJ@
  00035	ff 15 00 00 00
	00		 call	 DWORD PTR __imp__Py_BuildValue
  0003b	50		 push	 eax
  0003c	68 00 00 00 00	 push	 OFFSET ??_C@_0BC@GDFDGKCD@OpenSafeboxWindow@
  00041	ff b6 90 01 00
	00		 push	 DWORD PTR [esi+400]
  00047	e8 00 00 00 00	 call	 ?PyCallClassMemberFunc@@YA_NPAU_object@@PBD0@Z ; PyCallClassMemberFunc
  0004c	83 c4 14	 add	 esp, 20			; 00000014H

; 128  : 
; 129  : 	return true;

  0004f	b0 01		 mov	 al, 1
  00051	5e		 pop	 esi

; 130  : }

  00052	8b e5		 mov	 esp, ebp
  00054	5d		 pop	 ebp
  00055	c3		 ret	 0
?RecvSafeBoxSizePacket@CPythonNetworkStream@@IAE_NXZ ENDP ; CPythonNetworkStream::RecvSafeBoxSizePacket
_TEXT	ENDS
; Function compile flags: /Ogtp
; File E:\Metin2_server\SolWayneSF v6\ClientVS22\source\UserInterface\PythonNetworkStreamPhaseGameItem.cpp
;	COMDAT ?RecvSafeBoxWrongPasswordPacket@CPythonNetworkStream@@IAE_NXZ
_TEXT	SEGMENT
_kSafeboxWrongPassword$ = -1				; size = 1
?RecvSafeBoxWrongPasswordPacket@CPythonNetworkStream@@IAE_NXZ PROC ; CPythonNetworkStream::RecvSafeBoxWrongPasswordPacket, COMDAT
; _this$ = ecx

; 109  : {

  00000	55		 push	 ebp
  00001	8b ec		 mov	 ebp, esp
  00003	51		 push	 ecx
  00004	56		 push	 esi

; 110  : 	TPacketGCSafeboxWrongPassword kSafeboxWrongPassword;
; 111  : 
; 112  : 	if (!Recv(sizeof(kSafeboxWrongPassword), &kSafeboxWrongPassword))

  00005	8d 45 ff	 lea	 eax, DWORD PTR _kSafeboxWrongPassword$[ebp]
  00008	8b f1		 mov	 esi, ecx
  0000a	50		 push	 eax
  0000b	6a 01		 push	 1
  0000d	e8 00 00 00 00	 call	 ?Recv@CNetworkStream@@QAE_NHPAX@Z ; CNetworkStream::Recv
  00012	84 c0		 test	 al, al
  00014	75 05		 jne	 SHORT $LN2@RecvSafeBo
  00016	5e		 pop	 esi

; 118  : }

  00017	8b e5		 mov	 esp, ebp
  00019	5d		 pop	 ebp
  0001a	c3		 ret	 0
$LN2@RecvSafeBo:

; 113  : 		return false;
; 114  : 
; 115  : 	PyCallClassMemberFunc(m_apoPhaseWnd[PHASE_WINDOW_GAME], "OnSafeBoxError", Py_BuildValue("()"));

  0001b	68 00 00 00 00	 push	 OFFSET ??_C@_02HCKGKOFO@?$CI?$CJ@
  00020	ff 15 00 00 00
	00		 call	 DWORD PTR __imp__Py_BuildValue
  00026	50		 push	 eax
  00027	68 00 00 00 00	 push	 OFFSET ??_C@_0P@BMBKKGBC@OnSafeBoxError@
  0002c	ff b6 90 01 00
	00		 push	 DWORD PTR [esi+400]
  00032	e8 00 00 00 00	 call	 ?PyCallClassMemberFunc@@YA_NPAU_object@@PBD0@Z ; PyCallClassMemberFunc
  00037	83 c4 10	 add	 esp, 16			; 00000010H

; 116  : 
; 117  : 	return true;

  0003a	b0 01		 mov	 al, 1
  0003c	5e		 pop	 esi

; 118  : }

  0003d	8b e5		 mov	 esp, ebp
  0003f	5d		 pop	 ebp
  00040	c3		 ret	 0
?RecvSafeBoxWrongPasswordPacket@CPythonNetworkStream@@IAE_NXZ ENDP ; CPythonNetworkStream::RecvSafeBoxWrongPasswordPacket
_TEXT	ENDS
; Function compile flags: /Ogtp
; File E:\Metin2_server\SolWayneSF v6\ClientVS22\source\UserInterface\PythonNetworkStreamPhaseGameItem.cpp
;	COMDAT ?RecvSafeBoxDelPacket@CPythonNetworkStream@@IAE_NXZ
_TEXT	SEGMENT
_kItemDel$ = -4						; size = 2
?RecvSafeBoxDelPacket@CPythonNetworkStream@@IAE_NXZ PROC ; CPythonNetworkStream::RecvSafeBoxDelPacket, COMDAT
; _this$ = ecx

; 96   : {

  00000	55		 push	 ebp
  00001	8b ec		 mov	 ebp, esp
  00003	51		 push	 ecx
  00004	56		 push	 esi

; 97   : 	TPacketGCItemDel kItemDel;
; 98   : 	if (!Recv(sizeof(kItemDel), &kItemDel))

  00005	8d 45 fc	 lea	 eax, DWORD PTR _kItemDel$[ebp]
  00008	8b f1		 mov	 esi, ecx
  0000a	50		 push	 eax
  0000b	6a 02		 push	 2
  0000d	e8 00 00 00 00	 call	 ?Recv@CNetworkStream@@QAE_NHPAX@Z ; CNetworkStream::Recv
  00012	84 c0		 test	 al, al
  00014	75 05		 jne	 SHORT $LN2@RecvSafeBo
  00016	5e		 pop	 esi

; 106  : }

  00017	8b e5		 mov	 esp, ebp
  00019	5d		 pop	 ebp
  0001a	c3		 ret	 0
$LN2@RecvSafeBo:

; 99   : 		return false;
; 100  : 
; 101  : 	CPythonSafeBox::Instance().DelItemData(kItemDel.pos);

  0001b	0f b6 45 fd	 movzx	 eax, BYTE PTR _kItemDel$[ebp+1]
  0001f	8b 0d 00 00 00
	00		 mov	 ecx, DWORD PTR ?ms_singleton@?$CSingleton@VCPythonSafeBox@@@@0PAVCPythonSafeBox@@A ; CSingleton<CPythonSafeBox>::ms_singleton
  00025	50		 push	 eax
  00026	e8 00 00 00 00	 call	 ?DelItemData@CPythonSafeBox@@QAEXK@Z ; CPythonSafeBox::DelItemData

; 102  : 
; 103  : 	__RefreshSafeboxWindow();

  0002b	8b ce		 mov	 ecx, esi
  0002d	e8 00 00 00 00	 call	 ?__RefreshSafeboxWindow@CPythonNetworkStream@@IAEXXZ ; CPythonNetworkStream::__RefreshSafeboxWindow

; 104  : 
; 105  : 	return true;

  00032	b0 01		 mov	 al, 1
  00034	5e		 pop	 esi

; 106  : }

  00035	8b e5		 mov	 esp, ebp
  00037	5d		 pop	 ebp
  00038	c3		 ret	 0
?RecvSafeBoxDelPacket@CPythonNetworkStream@@IAE_NXZ ENDP ; CPythonNetworkStream::RecvSafeBoxDelPacket
_TEXT	ENDS
; Function compile flags: /Ogtp
; File E:\Metin2_server\SolWayneSF v6\ClientVS22\source\UserInterface\PythonNetworkStreamPhaseGameItem.cpp
; File E:\Metin2_server\SolWayneSF v6\ClientVS22\source\UserInterface\GameType.h
; File E:\Metin2_server\SolWayneSF v6\ClientVS22\source\UserInterface\PythonNetworkStreamPhaseGameItem.cpp
; File E:\Metin2_server\SolWayneSF v6\ClientVS22\source\UserInterface\GameType.h
; File E:\Metin2_server\SolWayneSF v6\ClientVS22\source\UserInterface\PythonNetworkStreamPhaseGameItem.cpp
;	COMDAT ?RecvSafeBoxSetPacket@CPythonNetworkStream@@IAE_NXZ
_TEXT	SEGMENT
_kItemData$ = -104					; size = 46
_kItemSet$ = -56					; size = 51
__$ArrayPad$ = -4					; size = 4
?RecvSafeBoxSetPacket@CPythonNetworkStream@@IAE_NXZ PROC ; CPythonNetworkStream::RecvSafeBoxSetPacket, COMDAT
; _this$ = ecx

; 73   : {

  00000	55		 push	 ebp
  00001	8b ec		 mov	 ebp, esp
  00003	83 ec 68	 sub	 esp, 104		; 00000068H
  00006	a1 00 00 00 00	 mov	 eax, DWORD PTR ___security_cookie
  0000b	33 c5		 xor	 eax, ebp
  0000d	89 45 fc	 mov	 DWORD PTR __$ArrayPad$[ebp], eax
; File E:\Metin2_server\SolWayneSF v6\ClientVS22\source\UserInterface\GameType.h

; 202  : 		cell = WORD_MAX;

  00010	b8 ff ff 00 00	 mov	 eax, 65535		; 0000ffffH
  00015	c6 45 c9 01	 mov	 BYTE PTR _kItemSet$[ebp+1], 1
; File E:\Metin2_server\SolWayneSF v6\ClientVS22\source\UserInterface\PythonNetworkStreamPhaseGameItem.cpp

; 73   : {

  00019	56		 push	 esi
; File E:\Metin2_server\SolWayneSF v6\ClientVS22\source\UserInterface\GameType.h

; 202  : 		cell = WORD_MAX;

  0001a	66 89 45 ca	 mov	 WORD PTR _kItemSet$[ebp+2], ax
; File E:\Metin2_server\SolWayneSF v6\ClientVS22\source\UserInterface\PythonNetworkStreamPhaseGameItem.cpp

; 73   : {

  0001e	8b f1		 mov	 esi, ecx

; 74   : 	TPacketGCItemSet2 kItemSet;
; 75   : 	if (!Recv(sizeof(kItemSet), &kItemSet))

  00020	8d 45 c8	 lea	 eax, DWORD PTR _kItemSet$[ebp]
  00023	50		 push	 eax
  00024	6a 33		 push	 51			; 00000033H
  00026	e8 00 00 00 00	 call	 ?Recv@CNetworkStream@@QAE_NHPAX@Z ; CNetworkStream::Recv
  0002b	84 c0		 test	 al, al
  0002d	75 0f		 jne	 SHORT $LN8@RecvSafeBo
  0002f	5e		 pop	 esi

; 91   : 
; 92   : 	return true;
; 93   : }

  00030	8b 4d fc	 mov	 ecx, DWORD PTR __$ArrayPad$[ebp]
  00033	33 cd		 xor	 ecx, ebp
  00035	e8 00 00 00 00	 call	 @__security_check_cookie@4
  0003a	8b e5		 mov	 esp, ebp
  0003c	5d		 pop	 ebp
  0003d	c3		 ret	 0
$LN8@RecvSafeBo:

; 76   : 		return false;
; 77   : 
; 78   : 	TItemData kItemData;
; 79   : 	kItemData.vnum	= kItemSet.vnum;

  0003e	8b 45 cc	 mov	 eax, DWORD PTR _kItemSet$[ebp+4]
  00041	0f 10 45 e6	 movups	 xmm0, XMMWORD PTR _kItemSet$[ebp+30]
  00045	89 45 98	 mov	 DWORD PTR _kItemData$[ebp], eax

; 80   : 	kItemData.count = kItemSet.count;

  00048	8a 45 d0	 mov	 al, BYTE PTR _kItemSet$[ebp+8]

; 81   : 	kItemData.flags = kItemSet.flags;
; 82   : 	kItemData.anti_flags = kItemSet.anti_flags;
; 83   : 	for (int isocket=0; isocket<ITEM_SOCKET_SLOT_MAX_NUM; ++isocket)
; 84   : 		kItemData.alSockets[isocket] = kItemSet.alSockets[isocket];
; 85   : 	for (int iattr=0; iattr<ITEM_ATTRIBUTE_SLOT_MAX_NUM; ++iattr)
; 86   : 		kItemData.aAttr[iattr] = kItemSet.aAttr[iattr];
; 87   : 
; 88   : 	CPythonSafeBox::Instance().SetItemData(kItemSet.Cell.cell, kItemData);

  0004b	8b 0d 00 00 00
	00		 mov	 ecx, DWORD PTR ?ms_singleton@?$CSingleton@VCPythonSafeBox@@@@0PAVCPythonSafeBox@@A ; CSingleton<CPythonSafeBox>::ms_singleton
  00051	88 45 9c	 mov	 BYTE PTR _kItemData$[ebp+4], al
  00054	8b 45 d1	 mov	 eax, DWORD PTR _kItemSet$[ebp+9]
  00057	89 45 9d	 mov	 DWORD PTR _kItemData$[ebp+5], eax
  0005a	8b 45 d5	 mov	 eax, DWORD PTR _kItemSet$[ebp+13]
  0005d	89 45 a1	 mov	 DWORD PTR _kItemData$[ebp+9], eax
  00060	8b 45 da	 mov	 eax, DWORD PTR _kItemSet$[ebp+18]
  00063	89 45 a5	 mov	 DWORD PTR _kItemData$[ebp+13], eax
  00066	8b 45 de	 mov	 eax, DWORD PTR _kItemSet$[ebp+22]
  00069	89 45 a9	 mov	 DWORD PTR _kItemData$[ebp+17], eax
  0006c	8b 45 e2	 mov	 eax, DWORD PTR _kItemSet$[ebp+26]
  0006f	89 45 ad	 mov	 DWORD PTR _kItemData$[ebp+21], eax
  00072	8b 45 f6	 mov	 eax, DWORD PTR _kItemSet$[ebp+46]
  00075	89 45 c1	 mov	 DWORD PTR _kItemData$[ebp+41], eax
  00078	8a 45 fa	 mov	 al, BYTE PTR _kItemSet$[ebp+50]
  0007b	88 45 c5	 mov	 BYTE PTR _kItemData$[ebp+45], al
  0007e	8d 45 98	 lea	 eax, DWORD PTR _kItemData$[ebp]
  00081	50		 push	 eax
  00082	0f b7 45 ca	 movzx	 eax, WORD PTR _kItemSet$[ebp+2]
  00086	50		 push	 eax
  00087	0f 11 45 b1	 movups	 XMMWORD PTR _kItemData$[ebp+25], xmm0
  0008b	e8 00 00 00 00	 call	 ?SetItemData@CPythonSafeBox@@QAEXKABUpacket_item@@@Z ; CPythonSafeBox::SetItemData

; 89   : 
; 90   : 	__RefreshSafeboxWindow();

  00090	8b ce		 mov	 ecx, esi
  00092	e8 00 00 00 00	 call	 ?__RefreshSafeboxWindow@CPythonNetworkStream@@IAEXXZ ; CPythonNetworkStream::__RefreshSafeboxWindow

; 91   : 
; 92   : 	return true;
; 93   : }

  00097	8b 4d fc	 mov	 ecx, DWORD PTR __$ArrayPad$[ebp]
  0009a	b0 01		 mov	 al, 1
  0009c	33 cd		 xor	 ecx, ebp
  0009e	5e		 pop	 esi
  0009f	e8 00 00 00 00	 call	 @__security_check_cookie@4
  000a4	8b e5		 mov	 esp, ebp
  000a6	5d		 pop	 ebp
  000a7	c3		 ret	 0
?RecvSafeBoxSetPacket@CPythonNetworkStream@@IAE_NXZ ENDP ; CPythonNetworkStream::RecvSafeBoxSetPacket
_TEXT	ENDS
; Function compile flags: /Ogtp
; File E:\Metin2_server\SolWayneSF v6\ClientVS22\source\UserInterface\PythonNetworkStreamPhaseGameItem.cpp
;	COMDAT ?RecvQuickSlotMovePacket@CPythonNetworkStream@@IAE_NXZ
_TEXT	SEGMENT
_packet_quick_slot_swap$ = -4				; size = 3
?RecvQuickSlotMovePacket@CPythonNetworkStream@@IAE_NXZ PROC ; CPythonNetworkStream::RecvQuickSlotMovePacket, COMDAT
; _this$ = ecx

; 367  : {

  00000	55		 push	 ebp
  00001	8b ec		 mov	 ebp, esp
  00003	51		 push	 ecx
  00004	56		 push	 esi

; 368  : 	TPacketGCQuickSlotSwap packet_quick_slot_swap;
; 369  : 
; 370  : 	if (!Recv(sizeof(TPacketGCQuickSlotSwap), &packet_quick_slot_swap))

  00005	8d 45 fc	 lea	 eax, DWORD PTR _packet_quick_slot_swap$[ebp]
  00008	8b f1		 mov	 esi, ecx
  0000a	50		 push	 eax
  0000b	6a 03		 push	 3
  0000d	e8 00 00 00 00	 call	 ?Recv@CNetworkStream@@QAE_NHPAX@Z ; CNetworkStream::Recv
  00012	84 c0		 test	 al, al
  00014	75 05		 jne	 SHORT $LN2@RecvQuickS
  00016	5e		 pop	 esi

; 379  : }

  00017	8b e5		 mov	 esp, ebp
  00019	5d		 pop	 ebp
  0001a	c3		 ret	 0
$LN2@RecvQuickS:

; 371  : 		return false;
; 372  : 
; 373  : 	IAbstractPlayer& rkPlayer=IAbstractPlayer::GetSingleton();

  0001b	8b 0d 00 00 00
	00		 mov	 ecx, DWORD PTR ?ms_singleton@?$TAbstractSingleton@VIAbstractPlayer@@@@0PAVIAbstractPlayer@@A ; TAbstractSingleton<IAbstractPlayer>::ms_singleton

; 374  : 	rkPlayer.MoveQuickSlot(packet_quick_slot_swap.pos, packet_quick_slot_swap.change_pos);

  00021	0f b6 45 fe	 movzx	 eax, BYTE PTR _packet_quick_slot_swap$[ebp+2]
  00025	50		 push	 eax
  00026	0f b6 45 fd	 movzx	 eax, BYTE PTR _packet_quick_slot_swap$[ebp+1]
  0002a	8b 11		 mov	 edx, DWORD PTR [ecx]
  0002c	50		 push	 eax
  0002d	ff 52 58	 call	 DWORD PTR [edx+88]

; 375  : 
; 376  : 	__RefreshInventoryWindow();

  00030	8b ce		 mov	 ecx, esi
  00032	e8 00 00 00 00	 call	 ?__RefreshInventoryWindow@CPythonNetworkStream@@IAEXXZ ; CPythonNetworkStream::__RefreshInventoryWindow

; 377  : 
; 378  : 	return true;

  00037	b0 01		 mov	 al, 1
  00039	5e		 pop	 esi

; 379  : }

  0003a	8b e5		 mov	 esp, ebp
  0003c	5d		 pop	 ebp
  0003d	c3		 ret	 0
?RecvQuickSlotMovePacket@CPythonNetworkStream@@IAE_NXZ ENDP ; CPythonNetworkStream::RecvQuickSlotMovePacket
_TEXT	ENDS
; Function compile flags: /Ogtp
; File E:\Metin2_server\SolWayneSF v6\ClientVS22\source\UserInterface\PythonNetworkStreamPhaseGameItem.cpp
;	COMDAT ?RecvQuickSlotDelPacket@CPythonNetworkStream@@IAE_NXZ
_TEXT	SEGMENT
_packet_quick_slot_del$ = -4				; size = 2
?RecvQuickSlotDelPacket@CPythonNetworkStream@@IAE_NXZ PROC ; CPythonNetworkStream::RecvQuickSlotDelPacket, COMDAT
; _this$ = ecx

; 352  : {

  00000	55		 push	 ebp
  00001	8b ec		 mov	 ebp, esp
  00003	51		 push	 ecx
  00004	56		 push	 esi

; 353  : 	TPacketGCQuickSlotDel packet_quick_slot_del;
; 354  : 
; 355  : 	if (!Recv(sizeof(TPacketGCQuickSlotDel), &packet_quick_slot_del))

  00005	8d 45 fc	 lea	 eax, DWORD PTR _packet_quick_slot_del$[ebp]
  00008	8b f1		 mov	 esi, ecx
  0000a	50		 push	 eax
  0000b	6a 02		 push	 2
  0000d	e8 00 00 00 00	 call	 ?Recv@CNetworkStream@@QAE_NHPAX@Z ; CNetworkStream::Recv
  00012	84 c0		 test	 al, al
  00014	75 05		 jne	 SHORT $LN2@RecvQuickS
  00016	5e		 pop	 esi

; 364  : }

  00017	8b e5		 mov	 esp, ebp
  00019	5d		 pop	 ebp
  0001a	c3		 ret	 0
$LN2@RecvQuickS:

; 356  : 		return false;
; 357  : 
; 358  : 	IAbstractPlayer& rkPlayer=IAbstractPlayer::GetSingleton();

  0001b	8b 0d 00 00 00
	00		 mov	 ecx, DWORD PTR ?ms_singleton@?$TAbstractSingleton@VIAbstractPlayer@@@@0PAVIAbstractPlayer@@A ; TAbstractSingleton<IAbstractPlayer>::ms_singleton

; 359  : 	rkPlayer.DeleteQuickSlot(packet_quick_slot_del.pos);

  00021	0f b6 45 fd	 movzx	 eax, BYTE PTR _packet_quick_slot_del$[ebp+1]
  00025	50		 push	 eax
  00026	8b 11		 mov	 edx, DWORD PTR [ecx]
  00028	ff 52 54	 call	 DWORD PTR [edx+84]

; 360  : 
; 361  : 	__RefreshInventoryWindow();

  0002b	8b ce		 mov	 ecx, esi
  0002d	e8 00 00 00 00	 call	 ?__RefreshInventoryWindow@CPythonNetworkStream@@IAEXXZ ; CPythonNetworkStream::__RefreshInventoryWindow

; 362  : 
; 363  : 	return true;

  00032	b0 01		 mov	 al, 1
  00034	5e		 pop	 esi

; 364  : }

  00035	8b e5		 mov	 esp, ebp
  00037	5d		 pop	 ebp
  00038	c3		 ret	 0
?RecvQuickSlotDelPacket@CPythonNetworkStream@@IAE_NXZ ENDP ; CPythonNetworkStream::RecvQuickSlotDelPacket
_TEXT	ENDS
; Function compile flags: /Ogtp
; File E:\Metin2_server\SolWayneSF v6\ClientVS22\source\UserInterface\PythonNetworkStreamPhaseGameItem.cpp
;	COMDAT ?RecvQuickSlotAddPacket@CPythonNetworkStream@@IAE_NXZ
_TEXT	SEGMENT
_packet_quick_slot_add$ = -8				; size = 4
?RecvQuickSlotAddPacket@CPythonNetworkStream@@IAE_NXZ PROC ; CPythonNetworkStream::RecvQuickSlotAddPacket, COMDAT
; _this$ = ecx

; 337  : {

  00000	55		 push	 ebp
  00001	8b ec		 mov	 ebp, esp
  00003	83 ec 08	 sub	 esp, 8

; 338  : 	TPacketGCQuickSlotAdd packet_quick_slot_add;
; 339  : 
; 340  : 	if (!Recv(sizeof(TPacketGCQuickSlotAdd), &packet_quick_slot_add))

  00006	8d 45 f8	 lea	 eax, DWORD PTR _packet_quick_slot_add$[ebp]
  00009	56		 push	 esi
  0000a	50		 push	 eax
  0000b	6a 04		 push	 4
  0000d	8b f1		 mov	 esi, ecx
  0000f	e8 00 00 00 00	 call	 ?Recv@CNetworkStream@@QAE_NHPAX@Z ; CNetworkStream::Recv
  00014	84 c0		 test	 al, al
  00016	75 05		 jne	 SHORT $LN2@RecvQuickS
  00018	5e		 pop	 esi

; 349  : }

  00019	8b e5		 mov	 esp, ebp
  0001b	5d		 pop	 ebp
  0001c	c3		 ret	 0
$LN2@RecvQuickS:

; 341  : 		return false;
; 342  : 
; 343  : 	IAbstractPlayer& rkPlayer=IAbstractPlayer::GetSingleton();

  0001d	8b 0d 00 00 00
	00		 mov	 ecx, DWORD PTR ?ms_singleton@?$TAbstractSingleton@VIAbstractPlayer@@@@0PAVIAbstractPlayer@@A ; TAbstractSingleton<IAbstractPlayer>::ms_singleton

; 344  : 	rkPlayer.AddQuickSlot(packet_quick_slot_add.pos, packet_quick_slot_add.slot.Type, packet_quick_slot_add.slot.Position);

  00023	ff 75 fb	 push	 DWORD PTR _packet_quick_slot_add$[ebp+3]
  00026	0f b6 45 f9	 movzx	 eax, BYTE PTR _packet_quick_slot_add$[ebp+1]
  0002a	ff 75 fa	 push	 DWORD PTR _packet_quick_slot_add$[ebp+2]
  0002d	8b 11		 mov	 edx, DWORD PTR [ecx]
  0002f	50		 push	 eax
  00030	ff 52 50	 call	 DWORD PTR [edx+80]

; 345  : 
; 346  : 	__RefreshInventoryWindow();

  00033	8b ce		 mov	 ecx, esi
  00035	e8 00 00 00 00	 call	 ?__RefreshInventoryWindow@CPythonNetworkStream@@IAEXXZ ; CPythonNetworkStream::__RefreshInventoryWindow

; 347  : 
; 348  : 	return true;

  0003a	b0 01		 mov	 al, 1
  0003c	5e		 pop	 esi

; 349  : }

  0003d	8b e5		 mov	 esp, ebp
  0003f	5d		 pop	 ebp
  00040	c3		 ret	 0
?RecvQuickSlotAddPacket@CPythonNetworkStream@@IAE_NXZ ENDP ; CPythonNetworkStream::RecvQuickSlotAddPacket
_TEXT	ENDS
; Function compile flags: /Ogtp
; File E:\Metin2_server\SolWayneSF v6\ClientVS22\source\UserInterface\PythonNetworkStreamPhaseGameItem.cpp
;	COMDAT ?RecvItemOwnership@CPythonNetworkStream@@IAE_NXZ
_TEXT	SEGMENT
_p$ = -36						; size = 30
__$ArrayPad$ = -4					; size = 4
?RecvItemOwnership@CPythonNetworkStream@@IAE_NXZ PROC	; CPythonNetworkStream::RecvItemOwnership, COMDAT
; _this$ = ecx

; 315  : {

  00000	55		 push	 ebp
  00001	8b ec		 mov	 ebp, esp
  00003	83 ec 28	 sub	 esp, 40			; 00000028H
  00006	a1 00 00 00 00	 mov	 eax, DWORD PTR ___security_cookie
  0000b	33 c5		 xor	 eax, ebp
  0000d	89 45 fc	 mov	 DWORD PTR __$ArrayPad$[ebp], eax

; 316  : 	TPacketGCItemOwnership p;
; 317  : 
; 318  : 	if (!Recv(sizeof(TPacketGCItemOwnership), &p))

  00010	8d 45 dc	 lea	 eax, DWORD PTR _p$[ebp]
  00013	50		 push	 eax
  00014	6a 1e		 push	 30			; 0000001eH
  00016	e8 00 00 00 00	 call	 ?Recv@CNetworkStream@@QAE_NHPAX@Z ; CNetworkStream::Recv
  0001b	84 c0		 test	 al, al
  0001d	75 0e		 jne	 SHORT $LN2@RecvItemOw

; 322  : 	return true;
; 323  : }

  0001f	8b 4d fc	 mov	 ecx, DWORD PTR __$ArrayPad$[ebp]
  00022	33 cd		 xor	 ecx, ebp
  00024	e8 00 00 00 00	 call	 @__security_check_cookie@4
  00029	8b e5		 mov	 esp, ebp
  0002b	5d		 pop	 ebp
  0002c	c3		 ret	 0
$LN2@RecvItemOw:

; 319  : 		return false;
; 320  : 
; 321  : 	CPythonItem::Instance().SetOwnership(p.dwVID, p.szName);

  0002d	8b 0d 00 00 00
	00		 mov	 ecx, DWORD PTR ?ms_singleton@?$CSingleton@VCPythonItem@@@@0PAVCPythonItem@@A ; CSingleton<CPythonItem>::ms_singleton
  00033	8d 45 e1	 lea	 eax, DWORD PTR _p$[ebp+5]
  00036	50		 push	 eax
  00037	ff 75 dd	 push	 DWORD PTR _p$[ebp+1]
  0003a	e8 00 00 00 00	 call	 ?SetOwnership@CPythonItem@@QAEXKPBD@Z ; CPythonItem::SetOwnership

; 322  : 	return true;
; 323  : }

  0003f	8b 4d fc	 mov	 ecx, DWORD PTR __$ArrayPad$[ebp]
  00042	b0 01		 mov	 al, 1
  00044	33 cd		 xor	 ecx, ebp
  00046	e8 00 00 00 00	 call	 @__security_check_cookie@4
  0004b	8b e5		 mov	 esp, ebp
  0004d	5d		 pop	 ebp
  0004e	c3		 ret	 0
?RecvItemOwnership@CPythonNetworkStream@@IAE_NXZ ENDP	; CPythonNetworkStream::RecvItemOwnership
_TEXT	ENDS
; Function compile flags: /Ogtp
; File E:\Metin2_server\SolWayneSF v6\ClientVS22\source\UserInterface\PythonNetworkStreamPhaseGameItem.cpp
;	COMDAT ?RecvItemGroundDelPacket@CPythonNetworkStream@@IAE_NXZ
_TEXT	SEGMENT
_packet_item_ground_del$ = -8				; size = 5
?RecvItemGroundDelPacket@CPythonNetworkStream@@IAE_NXZ PROC ; CPythonNetworkStream::RecvItemGroundDelPacket, COMDAT
; _this$ = ecx

; 326  : {

  00000	55		 push	 ebp
  00001	8b ec		 mov	 ebp, esp
  00003	83 ec 08	 sub	 esp, 8

; 327  : 	TPacketGCItemGroundDel	packet_item_ground_del;
; 328  : 
; 329  : 	if (!Recv(sizeof(TPacketGCItemGroundDel), &packet_item_ground_del))

  00006	8d 45 f8	 lea	 eax, DWORD PTR _packet_item_ground_del$[ebp]
  00009	50		 push	 eax
  0000a	6a 05		 push	 5
  0000c	e8 00 00 00 00	 call	 ?Recv@CNetworkStream@@QAE_NHPAX@Z ; CNetworkStream::Recv
  00011	84 c0		 test	 al, al
  00013	75 04		 jne	 SHORT $LN2@RecvItemGr

; 334  : }

  00015	8b e5		 mov	 esp, ebp
  00017	5d		 pop	 ebp
  00018	c3		 ret	 0
$LN2@RecvItemGr:

; 330  : 		return false;
; 331  : 
; 332  : 	CPythonItem::Instance().DeleteItem(packet_item_ground_del.vid);

  00019	ff 75 f9	 push	 DWORD PTR _packet_item_ground_del$[ebp+1]
  0001c	8b 0d 00 00 00
	00		 mov	 ecx, DWORD PTR ?ms_singleton@?$CSingleton@VCPythonItem@@@@0PAVCPythonItem@@A ; CSingleton<CPythonItem>::ms_singleton
  00022	e8 00 00 00 00	 call	 ?DeleteItem@CPythonItem@@QAEXK@Z ; CPythonItem::DeleteItem

; 333  : 	return true;

  00027	b0 01		 mov	 al, 1

; 334  : }

  00029	8b e5		 mov	 esp, ebp
  0002b	5d		 pop	 ebp
  0002c	c3		 ret	 0
?RecvItemGroundDelPacket@CPythonNetworkStream@@IAE_NXZ ENDP ; CPythonNetworkStream::RecvItemGroundDelPacket
_TEXT	ENDS
; Function compile flags: /Ogtp
; File E:\Metin2_server\SolWayneSF v6\ClientVS22\source\UserInterface\PythonNetworkStreamPhaseGameItem.cpp
;	COMDAT ?RecvItemGroundAddPacket@CPythonNetworkStream@@IAE_NXZ
_TEXT	SEGMENT
_packet_item_ground_add$ = -28				; size = 21
__$ArrayPad$ = -4					; size = 4
?RecvItemGroundAddPacket@CPythonNetworkStream@@IAE_NXZ PROC ; CPythonNetworkStream::RecvItemGroundAddPacket, COMDAT
; _this$ = ecx

; 297  : {

  00000	55		 push	 ebp
  00001	8b ec		 mov	 ebp, esp
  00003	83 ec 1c	 sub	 esp, 28			; 0000001cH
  00006	a1 00 00 00 00	 mov	 eax, DWORD PTR ___security_cookie
  0000b	33 c5		 xor	 eax, ebp
  0000d	89 45 fc	 mov	 DWORD PTR __$ArrayPad$[ebp], eax

; 298  : 	TPacketGCItemGroundAdd packet_item_ground_add;
; 299  : 
; 300  : 	if (!Recv(sizeof(TPacketGCItemGroundAdd), &packet_item_ground_add))

  00010	8d 45 e4	 lea	 eax, DWORD PTR _packet_item_ground_add$[ebp]
  00013	50		 push	 eax
  00014	6a 15		 push	 21			; 00000015H
  00016	e8 00 00 00 00	 call	 ?Recv@CNetworkStream@@QAE_NHPAX@Z ; CNetworkStream::Recv
  0001b	84 c0		 test	 al, al
  0001d	75 0e		 jne	 SHORT $LN2@RecvItemGr

; 306  : 									   packet_item_ground_add.dwVnum,
; 307  : 									   packet_item_ground_add.lX,
; 308  : 									   packet_item_ground_add.lY,
; 309  : 									   packet_item_ground_add.lZ);
; 310  : 	return true;
; 311  : }

  0001f	8b 4d fc	 mov	 ecx, DWORD PTR __$ArrayPad$[ebp]
  00022	33 cd		 xor	 ecx, ebp
  00024	e8 00 00 00 00	 call	 @__security_check_cookie@4
  00029	8b e5		 mov	 esp, ebp
  0002b	5d		 pop	 ebp
  0002c	c3		 ret	 0
$LN2@RecvItemGr:

; 301  : 		return false;
; 302  : 
; 303  : 	__GlobalPositionToLocalPosition(packet_item_ground_add.lX, packet_item_ground_add.lY);

  0002d	8d 45 e9	 lea	 eax, DWORD PTR _packet_item_ground_add$[ebp+5]
  00030	50		 push	 eax
  00031	8d 45 e5	 lea	 eax, DWORD PTR _packet_item_ground_add$[ebp+1]
  00034	50		 push	 eax
  00035	e8 00 00 00 00	 call	 ?__GlobalPositionToLocalPosition@CPythonNetworkStream@@IAEXAAJ0@Z ; CPythonNetworkStream::__GlobalPositionToLocalPosition
  0003a	66 0f 6e 45 ed	 movd	 xmm0, DWORD PTR _packet_item_ground_add$[ebp+9]
  0003f	66 0f 6e 5d e5	 movd	 xmm3, DWORD PTR _packet_item_ground_add$[ebp+1]

; 304  : 
; 305  : 	CPythonItem::Instance().CreateItem(packet_item_ground_add.dwVID, 

  00044	8b 0d 00 00 00
	00		 mov	 ecx, DWORD PTR ?ms_singleton@?$CSingleton@VCPythonItem@@@@0PAVCPythonItem@@A ; CSingleton<CPythonItem>::ms_singleton
  0004a	6a 01		 push	 1
  0004c	0f 5b c0	 cvtdq2ps xmm0, xmm0
  0004f	83 ec 08	 sub	 esp, 8
  00052	0f 5b db	 cvtdq2ps xmm3, xmm3
  00055	f3 0f 11 44 24
	04		 movss	 DWORD PTR [esp+4], xmm0
  0005b	66 0f 6e 45 e9	 movd	 xmm0, DWORD PTR _packet_item_ground_add$[ebp+5]
  00060	0f 5b c0	 cvtdq2ps xmm0, xmm0
  00063	f3 0f 11 04 24	 movss	 DWORD PTR [esp], xmm0
  00068	ff 75 f5	 push	 DWORD PTR _packet_item_ground_add$[ebp+17]
  0006b	ff 75 f1	 push	 DWORD PTR _packet_item_ground_add$[ebp+13]
  0006e	e8 00 00 00 00	 call	 ?CreateItem@CPythonItem@@QAEXKKMMM_N@Z ; CPythonItem::CreateItem

; 306  : 									   packet_item_ground_add.dwVnum,
; 307  : 									   packet_item_ground_add.lX,
; 308  : 									   packet_item_ground_add.lY,
; 309  : 									   packet_item_ground_add.lZ);
; 310  : 	return true;
; 311  : }

  00073	8b 4d fc	 mov	 ecx, DWORD PTR __$ArrayPad$[ebp]
  00076	b0 01		 mov	 al, 1
  00078	33 cd		 xor	 ecx, ebp
  0007a	e8 00 00 00 00	 call	 @__security_check_cookie@4
  0007f	8b e5		 mov	 esp, ebp
  00081	5d		 pop	 ebp
  00082	c3		 ret	 0
?RecvItemGroundAddPacket@CPythonNetworkStream@@IAE_NXZ ENDP ; CPythonNetworkStream::RecvItemGroundAddPacket
_TEXT	ENDS
; Function compile flags: /Ogtp
; File E:\Metin2_server\SolWayneSF v6\ClientVS22\source\UserInterface\PythonNetworkStreamPhaseGameItem.cpp
; File E:\Metin2_server\SolWayneSF v6\ClientVS22\source\UserInterface\GameType.h
; File E:\Metin2_server\SolWayneSF v6\ClientVS22\source\UserInterface\PythonNetworkStreamPhaseGameItem.cpp
; File E:\Metin2_server\SolWayneSF v6\ClientVS22\source\UserInterface\GameType.h
; File E:\Metin2_server\SolWayneSF v6\ClientVS22\source\UserInterface\PythonNetworkStreamPhaseGameItem.cpp
; File E:\Metin2_server\SolWayneSF v6\ClientVS22\source\UserInterface\GameType.h
; File E:\Metin2_server\SolWayneSF v6\ClientVS22\source\UserInterface\PythonNetworkStreamPhaseGameItem.cpp
;	COMDAT ?RecvItemUpdatePacket@CPythonNetworkStream@@IAE_NXZ
_TEXT	SEGMENT
_this$GSCopy$1$ = -48					; size = 4
_packet_item_update$ = -44				; size = 38
__$ArrayPad$ = -4					; size = 4
?RecvItemUpdatePacket@CPythonNetworkStream@@IAE_NXZ PROC ; CPythonNetworkStream::RecvItemUpdatePacket, COMDAT
; _this$ = ecx

; 279  : {

  00000	55		 push	 ebp
  00001	8b ec		 mov	 ebp, esp
  00003	83 ec 30	 sub	 esp, 48			; 00000030H
  00006	a1 00 00 00 00	 mov	 eax, DWORD PTR ___security_cookie
  0000b	33 c5		 xor	 eax, ebp
  0000d	89 45 fc	 mov	 DWORD PTR __$ArrayPad$[ebp], eax
  00010	53		 push	 ebx
  00011	8b c1		 mov	 eax, ecx
; File E:\Metin2_server\SolWayneSF v6\ClientVS22\source\UserInterface\GameType.h

; 201  : 		window_type =     INVENTORY;

  00013	c6 45 d5 01	 mov	 BYTE PTR _packet_item_update$[ebp+1], 1
; File E:\Metin2_server\SolWayneSF v6\ClientVS22\source\UserInterface\PythonNetworkStreamPhaseGameItem.cpp

; 279  : {

  00017	56		 push	 esi
; File E:\Metin2_server\SolWayneSF v6\ClientVS22\source\UserInterface\GameType.h

; 202  : 		cell = WORD_MAX;

  00018	b9 ff ff 00 00	 mov	 ecx, 65535		; 0000ffffH
; File E:\Metin2_server\SolWayneSF v6\ClientVS22\source\UserInterface\PythonNetworkStreamPhaseGameItem.cpp

; 279  : {

  0001d	89 45 d0	 mov	 DWORD PTR _this$GSCopy$1$[ebp], eax
; File E:\Metin2_server\SolWayneSF v6\ClientVS22\source\UserInterface\GameType.h

; 202  : 		cell = WORD_MAX;

  00020	66 89 4d d6	 mov	 WORD PTR _packet_item_update$[ebp+2], cx
; File E:\Metin2_server\SolWayneSF v6\ClientVS22\source\UserInterface\PythonNetworkStreamPhaseGameItem.cpp

; 282  : 	if (!Recv(sizeof(TPacketGCItemUpdate), &packet_item_update))

  00024	8d 4d d4	 lea	 ecx, DWORD PTR _packet_item_update$[ebp]
  00027	57		 push	 edi
  00028	51		 push	 ecx
  00029	6a 26		 push	 38			; 00000026H
  0002b	8b c8		 mov	 ecx, eax
  0002d	e8 00 00 00 00	 call	 ?Recv@CNetworkStream@@QAE_NHPAX@Z ; CNetworkStream::Recv
  00032	84 c0		 test	 al, al
  00034	75 11		 jne	 SHORT $LN8@RecvItemUp

; 293  : 	return true;
; 294  : }

  00036	5f		 pop	 edi
  00037	5e		 pop	 esi
  00038	5b		 pop	 ebx
  00039	8b 4d fc	 mov	 ecx, DWORD PTR __$ArrayPad$[ebp]
  0003c	33 cd		 xor	 ecx, ebp
  0003e	e8 00 00 00 00	 call	 @__security_check_cookie@4
  00043	8b e5		 mov	 esp, ebp
  00045	5d		 pop	 ebp
  00046	c3		 ret	 0
$LN8@RecvItemUp:

; 283  : 		return false;
; 284  : 
; 285  : 	IAbstractPlayer& rkPlayer=IAbstractPlayer::GetSingleton();
; 286  : 	rkPlayer.SetItemCount(packet_item_update.Cell, packet_item_update.count);

  00047	ff 75 d8	 push	 DWORD PTR _packet_item_update$[ebp+4]
  0004a	8b 3d 00 00 00
	00		 mov	 edi, DWORD PTR ?ms_singleton@?$TAbstractSingleton@VIAbstractPlayer@@@@0PAVIAbstractPlayer@@A ; TAbstractSingleton<IAbstractPlayer>::ms_singleton
  00050	66 8b 45 d5	 mov	 ax, WORD PTR _packet_item_update$[ebp+1]
  00054	51		 push	 ecx
  00055	8b cc		 mov	 ecx, esp
  00057	8b 17		 mov	 edx, DWORD PTR [edi]
  00059	66 89 01	 mov	 WORD PTR [ecx], ax
  0005c	8a 45 d7	 mov	 al, BYTE PTR _packet_item_update$[ebp+3]
  0005f	88 41 02	 mov	 BYTE PTR [ecx+2], al
  00062	8b cf		 mov	 ecx, edi
  00064	ff 52 34	 call	 DWORD PTR [edx+52]
  00067	33 f6		 xor	 esi, esi
  00069	0f 1f 80 00 00
	00 00		 npad	 7
$LL4@RecvItemUp:

; 287  : 	for (int i = 0; i < ITEM_SOCKET_SLOT_MAX_NUM; ++i)
; 288  : 		rkPlayer.SetItemMetinSocket(packet_item_update.Cell, i, packet_item_update.alSockets[i]);

  00070	ff 74 b5 d9	 push	 DWORD PTR _packet_item_update$[ebp+esi*4+5]
  00074	66 8b 45 d5	 mov	 ax, WORD PTR _packet_item_update$[ebp+1]
  00078	8b 17		 mov	 edx, DWORD PTR [edi]
  0007a	56		 push	 esi
  0007b	51		 push	 ecx
  0007c	8b cc		 mov	 ecx, esp
  0007e	66 89 01	 mov	 WORD PTR [ecx], ax
  00081	8a 45 d7	 mov	 al, BYTE PTR _packet_item_update$[ebp+3]
  00084	88 41 02	 mov	 BYTE PTR [ecx+2], al
  00087	8b cf		 mov	 ecx, edi
  00089	ff 52 38	 call	 DWORD PTR [edx+56]
  0008c	46		 inc	 esi
  0008d	83 fe 03	 cmp	 esi, 3
  00090	7c de		 jl	 SHORT $LL4@RecvItemUp

; 289  : 	for (int j = 0; j < ITEM_ATTRIBUTE_SLOT_MAX_NUM; ++j)

  00092	33 f6		 xor	 esi, esi
  00094	8d 5d e5	 lea	 ebx, DWORD PTR _packet_item_update$[ebp+17]
$LL7@RecvItemUp:

; 290  : 		rkPlayer.SetItemAttribute(packet_item_update.Cell, j, packet_item_update.aAttr[j].bType, packet_item_update.aAttr[j].sValue);

  00097	0f b7 43 01	 movzx	 eax, WORD PTR [ebx+1]
  0009b	8b 17		 mov	 edx, DWORD PTR [edi]
  0009d	50		 push	 eax
  0009e	0f b6 03	 movzx	 eax, BYTE PTR [ebx]
  000a1	50		 push	 eax
  000a2	66 8b 45 d5	 mov	 ax, WORD PTR _packet_item_update$[ebp+1]
  000a6	56		 push	 esi
  000a7	51		 push	 ecx
  000a8	8b cc		 mov	 ecx, esp
  000aa	66 89 01	 mov	 WORD PTR [ecx], ax
  000ad	8a 45 d7	 mov	 al, BYTE PTR _packet_item_update$[ebp+3]
  000b0	88 41 02	 mov	 BYTE PTR [ecx+2], al
  000b3	8b cf		 mov	 ecx, edi
  000b5	ff 52 3c	 call	 DWORD PTR [edx+60]
  000b8	46		 inc	 esi
  000b9	8d 5b 03	 lea	 ebx, DWORD PTR [ebx+3]
  000bc	83 fe 07	 cmp	 esi, 7
  000bf	7c d6		 jl	 SHORT $LL7@RecvItemUp

; 291  : 
; 292  : 	__RefreshInventoryWindow();

  000c1	8b 4d d0	 mov	 ecx, DWORD PTR _this$GSCopy$1$[ebp]
  000c4	e8 00 00 00 00	 call	 ?__RefreshInventoryWindow@CPythonNetworkStream@@IAEXXZ ; CPythonNetworkStream::__RefreshInventoryWindow

; 293  : 	return true;
; 294  : }

  000c9	8b 4d fc	 mov	 ecx, DWORD PTR __$ArrayPad$[ebp]
  000cc	b0 01		 mov	 al, 1
  000ce	5f		 pop	 edi
  000cf	5e		 pop	 esi
  000d0	33 cd		 xor	 ecx, ebp
  000d2	5b		 pop	 ebx
  000d3	e8 00 00 00 00	 call	 @__security_check_cookie@4
  000d8	8b e5		 mov	 esp, ebp
  000da	5d		 pop	 ebp
  000db	c3		 ret	 0
?RecvItemUpdatePacket@CPythonNetworkStream@@IAE_NXZ ENDP ; CPythonNetworkStream::RecvItemUpdatePacket
_TEXT	ENDS
; Function compile flags: /Ogtp
; File E:\Metin2_server\SolWayneSF v6\ClientVS22\source\UserInterface\PythonNetworkStreamPhaseGameItem.cpp
; File E:\Metin2_server\SolWayneSF v6\ClientVS22\source\UserInterface\GameType.h
; File E:\Metin2_server\SolWayneSF v6\ClientVS22\source\UserInterface\PythonNetworkStreamPhaseGameItem.cpp
; File E:\Metin2_server\SolWayneSF v6\ClientVS22\source\UserInterface\GameType.h
; File E:\Metin2_server\SolWayneSF v6\ClientVS22\source\UserInterface\PythonNetworkStreamPhaseGameItem.cpp
;	COMDAT ?RecvItemUsePacket@CPythonNetworkStream@@IAE_NXZ
_TEXT	SEGMENT
_packet_item_use$ = -16					; size = 16
?RecvItemUsePacket@CPythonNetworkStream@@IAE_NXZ PROC	; CPythonNetworkStream::RecvItemUsePacket, COMDAT
; _this$ = ecx

; 268  : {

  00000	55		 push	 ebp
  00001	8b ec		 mov	 ebp, esp
  00003	83 ec 14	 sub	 esp, 20			; 00000014H
; File E:\Metin2_server\SolWayneSF v6\ClientVS22\source\UserInterface\GameType.h

; 202  : 		cell = WORD_MAX;

  00006	b8 ff ff 00 00	 mov	 eax, 65535		; 0000ffffH
  0000b	c6 45 f1 01	 mov	 BYTE PTR _packet_item_use$[ebp+1], 1
; File E:\Metin2_server\SolWayneSF v6\ClientVS22\source\UserInterface\PythonNetworkStreamPhaseGameItem.cpp

; 268  : {

  0000f	56		 push	 esi
; File E:\Metin2_server\SolWayneSF v6\ClientVS22\source\UserInterface\GameType.h

; 202  : 		cell = WORD_MAX;

  00010	66 89 45 f2	 mov	 WORD PTR _packet_item_use$[ebp+2], ax
; File E:\Metin2_server\SolWayneSF v6\ClientVS22\source\UserInterface\PythonNetworkStreamPhaseGameItem.cpp

; 268  : {

  00014	8b f1		 mov	 esi, ecx

; 269  : 	TPacketGCItemUse packet_item_use;
; 270  : 
; 271  : 	if (!Recv(sizeof(TPacketGCItemUse), &packet_item_use))

  00016	8d 45 f0	 lea	 eax, DWORD PTR _packet_item_use$[ebp]
  00019	50		 push	 eax
  0001a	6a 10		 push	 16			; 00000010H
  0001c	e8 00 00 00 00	 call	 ?Recv@CNetworkStream@@QAE_NHPAX@Z ; CNetworkStream::Recv
  00021	84 c0		 test	 al, al
  00023	75 05		 jne	 SHORT $LN2@RecvItemUs

; 276  : }

  00025	5e		 pop	 esi
  00026	8b e5		 mov	 esp, ebp
  00028	5d		 pop	 ebp
  00029	c3		 ret	 0
$LN2@RecvItemUs:

; 272  : 		return false;
; 273  : 
; 274  : 	__RefreshInventoryWindow();

  0002a	8b ce		 mov	 ecx, esi
  0002c	e8 00 00 00 00	 call	 ?__RefreshInventoryWindow@CPythonNetworkStream@@IAEXXZ ; CPythonNetworkStream::__RefreshInventoryWindow

; 275  : 	return true;

  00031	b0 01		 mov	 al, 1

; 276  : }

  00033	5e		 pop	 esi
  00034	8b e5		 mov	 esp, ebp
  00036	5d		 pop	 ebp
  00037	c3		 ret	 0
?RecvItemUsePacket@CPythonNetworkStream@@IAE_NXZ ENDP	; CPythonNetworkStream::RecvItemUsePacket
_TEXT	ENDS
; Function compile flags: /Ogtp
; File E:\Metin2_server\SolWayneSF v6\ClientVS22\source\UserInterface\PythonNetworkStreamPhaseGameItem.cpp
; File E:\Metin2_server\SolWayneSF v6\ClientVS22\source\UserInterface\GameType.h
; File E:\Metin2_server\SolWayneSF v6\ClientVS22\source\UserInterface\PythonNetworkStreamPhaseGameItem.cpp
; File E:\Metin2_server\SolWayneSF v6\ClientVS22\source\UserInterface\GameType.h
; File E:\Metin2_server\SolWayneSF v6\ClientVS22\source\UserInterface\PythonNetworkStreamPhaseGameItem.cpp
;	COMDAT ?RecvItemSetPacket2@CPythonNetworkStream@@IAE_NXZ
_TEXT	SEGMENT
_packet_item_set$ = -104				; size = 51
_kItemData$ = -52					; size = 46
__$ArrayPad$ = -4					; size = 4
?RecvItemSetPacket2@CPythonNetworkStream@@IAE_NXZ PROC	; CPythonNetworkStream::RecvItemSetPacket2, COMDAT
; _this$ = ecx

; 239  : {

  00000	55		 push	 ebp
  00001	8b ec		 mov	 ebp, esp
  00003	83 ec 68	 sub	 esp, 104		; 00000068H
  00006	a1 00 00 00 00	 mov	 eax, DWORD PTR ___security_cookie
  0000b	33 c5		 xor	 eax, ebp
  0000d	89 45 fc	 mov	 DWORD PTR __$ArrayPad$[ebp], eax
  00010	56		 push	 esi
; File E:\Metin2_server\SolWayneSF v6\ClientVS22\source\UserInterface\GameType.h

; 202  : 		cell = WORD_MAX;

  00011	b8 ff ff 00 00	 mov	 eax, 65535		; 0000ffffH
  00016	c6 45 99 01	 mov	 BYTE PTR _packet_item_set$[ebp+1], 1
; File E:\Metin2_server\SolWayneSF v6\ClientVS22\source\UserInterface\PythonNetworkStreamPhaseGameItem.cpp

; 239  : {

  0001a	57		 push	 edi
; File E:\Metin2_server\SolWayneSF v6\ClientVS22\source\UserInterface\GameType.h

; 202  : 		cell = WORD_MAX;

  0001b	66 89 45 9a	 mov	 WORD PTR _packet_item_set$[ebp+2], ax
; File E:\Metin2_server\SolWayneSF v6\ClientVS22\source\UserInterface\PythonNetworkStreamPhaseGameItem.cpp

; 239  : {

  0001f	8b f9		 mov	 edi, ecx

; 240  : 	TPacketGCItemSet2 packet_item_set;
; 241  : 
; 242  : 	if (!Recv(sizeof(TPacketGCItemSet2), &packet_item_set))

  00021	8d 45 98	 lea	 eax, DWORD PTR _packet_item_set$[ebp]
  00024	50		 push	 eax
  00025	6a 33		 push	 51			; 00000033H
  00027	e8 00 00 00 00	 call	 ?Recv@CNetworkStream@@QAE_NHPAX@Z ; CNetworkStream::Recv
  0002c	84 c0		 test	 al, al
  0002e	75 10		 jne	 SHORT $LN8@RecvItemSe

; 263  : 	return true;
; 264  : }

  00030	5f		 pop	 edi
  00031	5e		 pop	 esi
  00032	8b 4d fc	 mov	 ecx, DWORD PTR __$ArrayPad$[ebp]
  00035	33 cd		 xor	 ecx, ebp
  00037	e8 00 00 00 00	 call	 @__security_check_cookie@4
  0003c	8b e5		 mov	 esp, ebp
  0003e	5d		 pop	 ebp
  0003f	c3		 ret	 0
$LN8@RecvItemSe:

; 243  : 		return false;
; 244  : 
; 245  : 	TItemData kItemData;
; 246  : 	kItemData.vnum	= packet_item_set.vnum;

  00040	8b 45 9c	 mov	 eax, DWORD PTR _packet_item_set$[ebp+4]
  00043	89 45 cc	 mov	 DWORD PTR _kItemData$[ebp], eax

; 247  : 	kItemData.count	= packet_item_set.count;

  00046	8a 45 a0	 mov	 al, BYTE PTR _packet_item_set$[ebp+8]
  00049	88 45 d0	 mov	 BYTE PTR _kItemData$[ebp+4], al

; 248  : 	kItemData.flags = packet_item_set.flags;

  0004c	8b 45 a1	 mov	 eax, DWORD PTR _packet_item_set$[ebp+9]

; 249  : 	kItemData.anti_flags = packet_item_set.anti_flags;
; 250  : 
; 251  : 	for (int i=0; i<ITEM_SOCKET_SLOT_MAX_NUM; ++i)
; 252  : 		kItemData.alSockets[i]=packet_item_set.alSockets[i];
; 253  : 	for (int j=0; j<ITEM_ATTRIBUTE_SLOT_MAX_NUM; ++j)
; 254  : 		kItemData.aAttr[j]=packet_item_set.aAttr[j];
; 255  : 
; 256  : 	IAbstractPlayer& rkPlayer=IAbstractPlayer::GetSingleton();

  0004f	8b 15 00 00 00
	00		 mov	 edx, DWORD PTR ?ms_singleton@?$TAbstractSingleton@VIAbstractPlayer@@@@0PAVIAbstractPlayer@@A ; TAbstractSingleton<IAbstractPlayer>::ms_singleton
  00055	0f 10 45 b6	 movups	 xmm0, XMMWORD PTR _packet_item_set$[ebp+30]
  00059	89 45 d1	 mov	 DWORD PTR _kItemData$[ebp+5], eax
  0005c	8b 45 a5	 mov	 eax, DWORD PTR _packet_item_set$[ebp+13]
  0005f	89 45 d5	 mov	 DWORD PTR _kItemData$[ebp+9], eax
  00062	8b 45 aa	 mov	 eax, DWORD PTR _packet_item_set$[ebp+18]
  00065	89 45 d9	 mov	 DWORD PTR _kItemData$[ebp+13], eax
  00068	8b 45 ae	 mov	 eax, DWORD PTR _packet_item_set$[ebp+22]
  0006b	89 45 dd	 mov	 DWORD PTR _kItemData$[ebp+17], eax
  0006e	8b 45 b2	 mov	 eax, DWORD PTR _packet_item_set$[ebp+26]
  00071	89 45 e1	 mov	 DWORD PTR _kItemData$[ebp+21], eax
  00074	8b 45 c6	 mov	 eax, DWORD PTR _packet_item_set$[ebp+46]
  00077	89 45 f5	 mov	 DWORD PTR _kItemData$[ebp+41], eax
  0007a	8a 45 ca	 mov	 al, BYTE PTR _packet_item_set$[ebp+50]
  0007d	88 45 f9	 mov	 BYTE PTR _kItemData$[ebp+45], al

; 257  : 	rkPlayer.SetItemData(packet_item_set.Cell, kItemData);

  00080	8d 45 cc	 lea	 eax, DWORD PTR _kItemData$[ebp]
  00083	50		 push	 eax
  00084	66 8b 45 99	 mov	 ax, WORD PTR _packet_item_set$[ebp+1]
  00088	51		 push	 ecx
  00089	8b cc		 mov	 ecx, esp
  0008b	0f 11 45 e5	 movups	 XMMWORD PTR _kItemData$[ebp+25], xmm0
  0008f	8b 32		 mov	 esi, DWORD PTR [edx]
  00091	66 89 01	 mov	 WORD PTR [ecx], ax
  00094	8a 45 9b	 mov	 al, BYTE PTR _packet_item_set$[ebp+3]
  00097	88 41 02	 mov	 BYTE PTR [ecx+2], al
  0009a	8b ca		 mov	 ecx, edx
  0009c	ff 56 30	 call	 DWORD PTR [esi+48]

; 258  : 
; 259  : 	if (packet_item_set.highlight)

  0009f	80 7d a9 00	 cmp	 BYTE PTR _packet_item_set$[ebp+17], 0
  000a3	74 29		 je	 SHORT $LN9@RecvItemSe

; 260  : 		PyCallClassMemberFunc(m_apoPhaseWnd[PHASE_WINDOW_GAME], "BINARY_Highlight_Item", Py_BuildValue("(ii)", packet_item_set.Cell.window_type, packet_item_set.Cell.cell));

  000a5	0f b7 45 9a	 movzx	 eax, WORD PTR _packet_item_set$[ebp+2]
  000a9	50		 push	 eax
  000aa	0f b6 45 99	 movzx	 eax, BYTE PTR _packet_item_set$[ebp+1]
  000ae	50		 push	 eax
  000af	68 00 00 00 00	 push	 OFFSET ??_C@_04INACLLOK@?$CIii?$CJ@
  000b4	ff 15 00 00 00
	00		 call	 DWORD PTR __imp__Py_BuildValue
  000ba	50		 push	 eax
  000bb	68 00 00 00 00	 push	 OFFSET ??_C@_0BG@ELBKFGDM@BINARY_Highlight_Item@
  000c0	ff b7 90 01 00
	00		 push	 DWORD PTR [edi+400]
  000c6	e8 00 00 00 00	 call	 ?PyCallClassMemberFunc@@YA_NPAU_object@@PBD0@Z ; PyCallClassMemberFunc
  000cb	83 c4 18	 add	 esp, 24			; 00000018H
$LN9@RecvItemSe:

; 261  : 
; 262  : 	__RefreshInventoryWindow();

  000ce	8b cf		 mov	 ecx, edi
  000d0	e8 00 00 00 00	 call	 ?__RefreshInventoryWindow@CPythonNetworkStream@@IAEXXZ ; CPythonNetworkStream::__RefreshInventoryWindow

; 263  : 	return true;
; 264  : }

  000d5	8b 4d fc	 mov	 ecx, DWORD PTR __$ArrayPad$[ebp]
  000d8	b0 01		 mov	 al, 1
  000da	5f		 pop	 edi
  000db	33 cd		 xor	 ecx, ebp
  000dd	5e		 pop	 esi
  000de	e8 00 00 00 00	 call	 @__security_check_cookie@4
  000e3	8b e5		 mov	 esp, ebp
  000e5	5d		 pop	 ebp
  000e6	c3		 ret	 0
?RecvItemSetPacket2@CPythonNetworkStream@@IAE_NXZ ENDP	; CPythonNetworkStream::RecvItemSetPacket2
_TEXT	ENDS
; Function compile flags: /Ogtp
; File E:\Metin2_server\SolWayneSF v6\ClientVS22\source\UserInterface\PythonNetworkStreamPhaseGameItem.cpp
; File E:\Metin2_server\SolWayneSF v6\ClientVS22\source\UserInterface\GameType.h
; File E:\Metin2_server\SolWayneSF v6\ClientVS22\source\UserInterface\PythonNetworkStreamPhaseGameItem.cpp
; File E:\Metin2_server\SolWayneSF v6\ClientVS22\source\UserInterface\GameType.h
; File E:\Metin2_server\SolWayneSF v6\ClientVS22\source\UserInterface\PythonNetworkStreamPhaseGameItem.cpp
;	COMDAT ?RecvItemSetPacket@CPythonNetworkStream@@IAE_NXZ
_TEXT	SEGMENT
_kItemData$ = -96					; size = 46
_packet_item_set$ = -48					; size = 42
__$ArrayPad$ = -4					; size = 4
?RecvItemSetPacket@CPythonNetworkStream@@IAE_NXZ PROC	; CPythonNetworkStream::RecvItemSetPacket, COMDAT
; _this$ = ecx

; 215  : {

  00000	55		 push	 ebp
  00001	8b ec		 mov	 ebp, esp
  00003	83 ec 60	 sub	 esp, 96			; 00000060H
  00006	a1 00 00 00 00	 mov	 eax, DWORD PTR ___security_cookie
  0000b	33 c5		 xor	 eax, ebp
  0000d	89 45 fc	 mov	 DWORD PTR __$ArrayPad$[ebp], eax
  00010	56		 push	 esi
; File E:\Metin2_server\SolWayneSF v6\ClientVS22\source\UserInterface\GameType.h

; 202  : 		cell = WORD_MAX;

  00011	b8 ff ff 00 00	 mov	 eax, 65535		; 0000ffffH
  00016	c6 45 d1 01	 mov	 BYTE PTR _packet_item_set$[ebp+1], 1
; File E:\Metin2_server\SolWayneSF v6\ClientVS22\source\UserInterface\PythonNetworkStreamPhaseGameItem.cpp

; 215  : {

  0001a	57		 push	 edi
; File E:\Metin2_server\SolWayneSF v6\ClientVS22\source\UserInterface\GameType.h

; 202  : 		cell = WORD_MAX;

  0001b	66 89 45 d2	 mov	 WORD PTR _packet_item_set$[ebp+2], ax
; File E:\Metin2_server\SolWayneSF v6\ClientVS22\source\UserInterface\PythonNetworkStreamPhaseGameItem.cpp

; 215  : {

  0001f	8b f9		 mov	 edi, ecx

; 216  : 	TPacketGCItemSet packet_item_set;
; 217  : 
; 218  : 	if (!Recv(sizeof(TPacketGCItemSet), &packet_item_set))

  00021	8d 45 d0	 lea	 eax, DWORD PTR _packet_item_set$[ebp]
  00024	50		 push	 eax
  00025	6a 2a		 push	 42			; 0000002aH
  00027	e8 00 00 00 00	 call	 ?Recv@CNetworkStream@@QAE_NHPAX@Z ; CNetworkStream::Recv
  0002c	84 c0		 test	 al, al
  0002e	75 10		 jne	 SHORT $LN8@RecvItemSe

; 235  : 	return true;
; 236  : }

  00030	5f		 pop	 edi
  00031	5e		 pop	 esi
  00032	8b 4d fc	 mov	 ecx, DWORD PTR __$ArrayPad$[ebp]
  00035	33 cd		 xor	 ecx, ebp
  00037	e8 00 00 00 00	 call	 @__security_check_cookie@4
  0003c	8b e5		 mov	 esp, ebp
  0003e	5d		 pop	 ebp
  0003f	c3		 ret	 0
$LN8@RecvItemSe:

; 219  : 		return false;
; 220  : 
; 221  : 	TItemData kItemData;
; 222  : 	kItemData.vnum	= packet_item_set.vnum;

  00040	8b 45 d4	 mov	 eax, DWORD PTR _packet_item_set$[ebp+4]

; 223  : 	kItemData.count	= packet_item_set.count;
; 224  : 	kItemData.flags = 0;
; 225  : 	for (int i=0; i<ITEM_SOCKET_SLOT_MAX_NUM; ++i)
; 226  : 		kItemData.alSockets[i]=packet_item_set.alSockets[i];
; 227  : 	for (int j=0; j<ITEM_ATTRIBUTE_SLOT_MAX_NUM; ++j)
; 228  : 		kItemData.aAttr[j]=packet_item_set.aAttr[j];
; 229  : 
; 230  : 	IAbstractPlayer& rkPlayer=IAbstractPlayer::GetSingleton();

  00043	8b 0d 00 00 00
	00		 mov	 ecx, DWORD PTR ?ms_singleton@?$TAbstractSingleton@VIAbstractPlayer@@@@0PAVIAbstractPlayer@@A ; TAbstractSingleton<IAbstractPlayer>::ms_singleton
  00049	0f 10 45 e5	 movups	 xmm0, XMMWORD PTR _packet_item_set$[ebp+21]
  0004d	89 45 a0	 mov	 DWORD PTR _kItemData$[ebp], eax
  00050	8a 45 d8	 mov	 al, BYTE PTR _packet_item_set$[ebp+8]
  00053	88 45 a4	 mov	 BYTE PTR _kItemData$[ebp+4], al
  00056	8b 45 d9	 mov	 eax, DWORD PTR _packet_item_set$[ebp+9]
  00059	89 45 ad	 mov	 DWORD PTR _kItemData$[ebp+13], eax
  0005c	8b 45 dd	 mov	 eax, DWORD PTR _packet_item_set$[ebp+13]
  0005f	89 45 b1	 mov	 DWORD PTR _kItemData$[ebp+17], eax
  00062	8b 45 e1	 mov	 eax, DWORD PTR _packet_item_set$[ebp+17]
  00065	89 45 b5	 mov	 DWORD PTR _kItemData$[ebp+21], eax
  00068	8b 45 f5	 mov	 eax, DWORD PTR _packet_item_set$[ebp+37]
  0006b	89 45 c9	 mov	 DWORD PTR _kItemData$[ebp+41], eax
  0006e	8a 45 f9	 mov	 al, BYTE PTR _packet_item_set$[ebp+41]
  00071	88 45 cd	 mov	 BYTE PTR _kItemData$[ebp+45], al

; 231  : 	
; 232  : 	rkPlayer.SetItemData(packet_item_set.Cell, kItemData);

  00074	8d 45 a0	 lea	 eax, DWORD PTR _kItemData$[ebp]
  00077	50		 push	 eax
  00078	66 8b 45 d1	 mov	 ax, WORD PTR _packet_item_set$[ebp+1]
  0007c	51		 push	 ecx
  0007d	8b d4		 mov	 edx, esp
  0007f	c7 45 a5 00 00
	00 00		 mov	 DWORD PTR _kItemData$[ebp+5], 0
  00086	0f 11 45 b9	 movups	 XMMWORD PTR _kItemData$[ebp+25], xmm0
  0008a	8b 31		 mov	 esi, DWORD PTR [ecx]
  0008c	66 89 02	 mov	 WORD PTR [edx], ax
  0008f	8a 45 d3	 mov	 al, BYTE PTR _packet_item_set$[ebp+3]
  00092	88 42 02	 mov	 BYTE PTR [edx+2], al
  00095	ff 56 30	 call	 DWORD PTR [esi+48]

; 233  : 	
; 234  : 	__RefreshInventoryWindow();

  00098	8b cf		 mov	 ecx, edi
  0009a	e8 00 00 00 00	 call	 ?__RefreshInventoryWindow@CPythonNetworkStream@@IAEXXZ ; CPythonNetworkStream::__RefreshInventoryWindow

; 235  : 	return true;
; 236  : }

  0009f	8b 4d fc	 mov	 ecx, DWORD PTR __$ArrayPad$[ebp]
  000a2	b0 01		 mov	 al, 1
  000a4	5f		 pop	 edi
  000a5	33 cd		 xor	 ecx, ebp
  000a7	5e		 pop	 esi
  000a8	e8 00 00 00 00	 call	 @__security_check_cookie@4
  000ad	8b e5		 mov	 esp, ebp
  000af	5d		 pop	 ebp
  000b0	c3		 ret	 0
?RecvItemSetPacket@CPythonNetworkStream@@IAE_NXZ ENDP	; CPythonNetworkStream::RecvItemSetPacket
_TEXT	ENDS
; Function compile flags: /Ogtp
; File E:\Metin2_server\SolWayneSF v6\ClientVS22\source\UserInterface\Packet.h
; File E:\Metin2_server\SolWayneSF v6\ClientVS22\source\UserInterface\GameType.h
; File E:\Metin2_server\SolWayneSF v6\ClientVS22\source\UserInterface\Packet.h
; File E:\Metin2_server\SolWayneSF v6\ClientVS22\source\UserInterface\GameType.h
; File E:\Metin2_server\SolWayneSF v6\ClientVS22\source\UserInterface\Packet.h
; File E:\Metin2_server\SolWayneSF v6\ClientVS22\source\UserInterface\GameType.h
; File E:\Metin2_server\SolWayneSF v6\ClientVS22\source\UserInterface\Packet.h
;	COMDAT ??0SPacketGCDragonSoulRefine@@QAE@XZ
_TEXT	SEGMENT
??0SPacketGCDragonSoulRefine@@QAE@XZ PROC		; SPacketGCDragonSoulRefine::SPacketGCDragonSoulRefine, COMDAT
; _this$ = ecx
; File E:\Metin2_server\SolWayneSF v6\ClientVS22\source\UserInterface\GameType.h

; 202  : 		cell = WORD_MAX;

  00000	b8 ff ff 00 00	 mov	 eax, 65535		; 0000ffffH
; File E:\Metin2_server\SolWayneSF v6\ClientVS22\source\UserInterface\Packet.h

; 2878 : 	SPacketGCDragonSoulRefine() : header(HEADER_GC_DRAGON_SOUL_REFINE)

  00005	c6 01 d1	 mov	 BYTE PTR [ecx], 209	; 000000d1H
; File E:\Metin2_server\SolWayneSF v6\ClientVS22\source\UserInterface\GameType.h

; 202  : 		cell = WORD_MAX;

  00008	66 89 41 03	 mov	 WORD PTR [ecx+3], ax
; File E:\Metin2_server\SolWayneSF v6\ClientVS22\source\UserInterface\Packet.h

; 2879 : 	{}

  0000c	8b c1		 mov	 eax, ecx
; File E:\Metin2_server\SolWayneSF v6\ClientVS22\source\UserInterface\GameType.h

; 201  : 		window_type =     INVENTORY;

  0000e	c6 41 02 01	 mov	 BYTE PTR [ecx+2], 1
; File E:\Metin2_server\SolWayneSF v6\ClientVS22\source\UserInterface\Packet.h

; 2879 : 	{}

  00012	c3		 ret	 0
??0SPacketGCDragonSoulRefine@@QAE@XZ ENDP		; SPacketGCDragonSoulRefine::SPacketGCDragonSoulRefine
_TEXT	ENDS
; Function compile flags: /Ogtp
; File E:\Metin2_server\SolWayneSF v6\ClientVS22\source\UserInterface\GameType.h
;	COMDAT ??0command_safebox_checkin@@QAE@XZ
_TEXT	SEGMENT
??0command_safebox_checkin@@QAE@XZ PROC			; command_safebox_checkin::command_safebox_checkin, COMDAT
; _this$ = ecx

; 202  : 		cell = WORD_MAX;

  00000	b8 ff ff 00 00	 mov	 eax, 65535		; 0000ffffH
  00005	c6 41 02 01	 mov	 BYTE PTR [ecx+2], 1
  00009	66 89 41 03	 mov	 WORD PTR [ecx+3], ax
  0000d	8b c1		 mov	 eax, ecx
  0000f	c3		 ret	 0
??0command_safebox_checkin@@QAE@XZ ENDP			; command_safebox_checkin::command_safebox_checkin
_TEXT	ENDS
; Function compile flags: /Ogtp
; File E:\Metin2_server\SolWayneSF v6\ClientVS22\source\UserInterface\GameType.h
;	COMDAT ??0command_safebox_checkout@@QAE@XZ
_TEXT	SEGMENT
??0command_safebox_checkout@@QAE@XZ PROC		; command_safebox_checkout::command_safebox_checkout, COMDAT
; _this$ = ecx

; 202  : 		cell = WORD_MAX;

  00000	b8 ff ff 00 00	 mov	 eax, 65535		; 0000ffffH
  00005	c6 41 02 01	 mov	 BYTE PTR [ecx+2], 1
  00009	66 89 41 03	 mov	 WORD PTR [ecx+3], ax
  0000d	8b c1		 mov	 eax, ecx
  0000f	c3		 ret	 0
??0command_safebox_checkout@@QAE@XZ ENDP		; command_safebox_checkout::command_safebox_checkout
_TEXT	ENDS
; Function compile flags: /Ogtp
; File E:\Metin2_server\SolWayneSF v6\ClientVS22\source\UserInterface\GameType.h
;	COMDAT ??0command_item_move@@QAE@XZ
_TEXT	SEGMENT
??0command_item_move@@QAE@XZ PROC			; command_item_move::command_item_move, COMDAT
; _this$ = ecx

; 202  : 		cell = WORD_MAX;

  00000	b8 ff ff 00 00	 mov	 eax, 65535		; 0000ffffH
  00005	c6 41 01 01	 mov	 BYTE PTR [ecx+1], 1
  00009	66 89 41 02	 mov	 WORD PTR [ecx+2], ax
  0000d	66 89 41 05	 mov	 WORD PTR [ecx+5], ax
  00011	8b c1		 mov	 eax, ecx

; 201  : 		window_type =     INVENTORY;

  00013	c6 41 04 01	 mov	 BYTE PTR [ecx+4], 1
  00017	c3		 ret	 0
??0command_item_move@@QAE@XZ ENDP			; command_item_move::command_item_move
_TEXT	ENDS
; Function compile flags: /Ogtp
; File E:\Metin2_server\SolWayneSF v6\ClientVS22\source\UserInterface\GameType.h
;	COMDAT ??0packet_set_item2@@QAE@XZ
_TEXT	SEGMENT
??0packet_set_item2@@QAE@XZ PROC			; packet_set_item2::packet_set_item2, COMDAT
; _this$ = ecx

; 202  : 		cell = WORD_MAX;

  00000	b8 ff ff 00 00	 mov	 eax, 65535		; 0000ffffH
  00005	c6 41 01 01	 mov	 BYTE PTR [ecx+1], 1
  00009	66 89 41 02	 mov	 WORD PTR [ecx+2], ax
  0000d	8b c1		 mov	 eax, ecx
  0000f	c3		 ret	 0
??0packet_set_item2@@QAE@XZ ENDP			; packet_set_item2::packet_set_item2
_TEXT	ENDS
; Function compile flags: /Ogtp
; File E:\Metin2_server\SolWayneSF v6\ClientVS22\source\UserInterface\GameType.h
;	COMDAT ??0command_mall_checkout@@QAE@XZ
_TEXT	SEGMENT
??0command_mall_checkout@@QAE@XZ PROC			; command_mall_checkout::command_mall_checkout, COMDAT
; _this$ = ecx

; 202  : 		cell = WORD_MAX;

  00000	b8 ff ff 00 00	 mov	 eax, 65535		; 0000ffffH
  00005	c6 41 02 01	 mov	 BYTE PTR [ecx+2], 1
  00009	66 89 41 03	 mov	 WORD PTR [ecx+3], ax
  0000d	8b c1		 mov	 eax, ecx
  0000f	c3		 ret	 0
??0command_mall_checkout@@QAE@XZ ENDP			; command_mall_checkout::command_mall_checkout
_TEXT	ENDS
; Function compile flags: /Ogtp
; File E:\Metin2_server\SolWayneSF v6\ClientVS22\source\UserInterface\GameType.h
;	COMDAT ??0packet_set_item@@QAE@XZ
_TEXT	SEGMENT
??0packet_set_item@@QAE@XZ PROC				; packet_set_item::packet_set_item, COMDAT
; _this$ = ecx

; 202  : 		cell = WORD_MAX;

  00000	b8 ff ff 00 00	 mov	 eax, 65535		; 0000ffffH
  00005	c6 41 01 01	 mov	 BYTE PTR [ecx+1], 1
  00009	66 89 41 02	 mov	 WORD PTR [ecx+2], ax
  0000d	8b c1		 mov	 eax, ecx
  0000f	c3		 ret	 0
??0packet_set_item@@QAE@XZ ENDP				; packet_set_item::packet_set_item
_TEXT	ENDS
; Function compile flags: /Ogtp
; File E:\Metin2_server\SolWayneSF v6\ClientVS22\source\UserInterface\GameType.h
;	COMDAT ??0packet_use_item@@QAE@XZ
_TEXT	SEGMENT
??0packet_use_item@@QAE@XZ PROC				; packet_use_item::packet_use_item, COMDAT
; _this$ = ecx

; 202  : 		cell = WORD_MAX;

  00000	b8 ff ff 00 00	 mov	 eax, 65535		; 0000ffffH
  00005	c6 41 01 01	 mov	 BYTE PTR [ecx+1], 1
  00009	66 89 41 02	 mov	 WORD PTR [ecx+2], ax
  0000d	8b c1		 mov	 eax, ecx
  0000f	c3		 ret	 0
??0packet_use_item@@QAE@XZ ENDP				; packet_use_item::packet_use_item
_TEXT	ENDS
; Function compile flags: /Ogtp
; File E:\Metin2_server\SolWayneSF v6\ClientVS22\source\UserInterface\GameType.h
;	COMDAT ??0packet_update_item@@QAE@XZ
_TEXT	SEGMENT
??0packet_update_item@@QAE@XZ PROC			; packet_update_item::packet_update_item, COMDAT
; _this$ = ecx

; 202  : 		cell = WORD_MAX;

  00000	b8 ff ff 00 00	 mov	 eax, 65535		; 0000ffffH
  00005	c6 41 01 01	 mov	 BYTE PTR [ecx+1], 1
  00009	66 89 41 02	 mov	 WORD PTR [ecx+2], ax
  0000d	8b c1		 mov	 eax, ecx
  0000f	c3		 ret	 0
??0packet_update_item@@QAE@XZ ENDP			; packet_update_item::packet_update_item
_TEXT	ENDS
; Function compile flags: /Ogtp
; File E:\Metin2_server\SolWayneSF v6\ClientVS22\source\UserInterface\GameType.h
;	COMDAT ??0command_item_use@@QAE@XZ
_TEXT	SEGMENT
??0command_item_use@@QAE@XZ PROC			; command_item_use::command_item_use, COMDAT
; _this$ = ecx

; 202  : 		cell = WORD_MAX;

  00000	b8 ff ff 00 00	 mov	 eax, 65535		; 0000ffffH
  00005	c6 41 01 01	 mov	 BYTE PTR [ecx+1], 1
  00009	66 89 41 02	 mov	 WORD PTR [ecx+2], ax
  0000d	8b c1		 mov	 eax, ecx
  0000f	c3		 ret	 0
??0command_item_use@@QAE@XZ ENDP			; command_item_use::command_item_use
_TEXT	ENDS
; Function compile flags: /Ogtp
; File E:\Metin2_server\SolWayneSF v6\ClientVS22\source\UserInterface\GameType.h
;	COMDAT ??0command_item_use_to_item@@QAE@XZ
_TEXT	SEGMENT
??0command_item_use_to_item@@QAE@XZ PROC		; command_item_use_to_item::command_item_use_to_item, COMDAT
; _this$ = ecx

; 202  : 		cell = WORD_MAX;

  00000	b8 ff ff 00 00	 mov	 eax, 65535		; 0000ffffH
  00005	c6 41 01 01	 mov	 BYTE PTR [ecx+1], 1
  00009	66 89 41 02	 mov	 WORD PTR [ecx+2], ax
  0000d	66 89 41 05	 mov	 WORD PTR [ecx+5], ax
  00011	8b c1		 mov	 eax, ecx

; 201  : 		window_type =     INVENTORY;

  00013	c6 41 04 01	 mov	 BYTE PTR [ecx+4], 1
  00017	c3		 ret	 0
??0command_item_use_to_item@@QAE@XZ ENDP		; command_item_use_to_item::command_item_use_to_item
_TEXT	ENDS
; Function compile flags: /Ogtp
; File E:\Metin2_server\SolWayneSF v6\ClientVS22\source\UserInterface\GameType.h
;	COMDAT ??0command_item_drop@@QAE@XZ
_TEXT	SEGMENT
??0command_item_drop@@QAE@XZ PROC			; command_item_drop::command_item_drop, COMDAT
; _this$ = ecx

; 202  : 		cell = WORD_MAX;

  00000	b8 ff ff 00 00	 mov	 eax, 65535		; 0000ffffH
  00005	c6 41 01 01	 mov	 BYTE PTR [ecx+1], 1
  00009	66 89 41 02	 mov	 WORD PTR [ecx+2], ax
  0000d	8b c1		 mov	 eax, ecx
  0000f	c3		 ret	 0
??0command_item_drop@@QAE@XZ ENDP			; command_item_drop::command_item_drop
_TEXT	ENDS
; Function compile flags: /Ogtp
; File E:\Metin2_server\SolWayneSF v6\ClientVS22\source\UserInterface\GameType.h
;	COMDAT ??0command_item_drop2@@QAE@XZ
_TEXT	SEGMENT
??0command_item_drop2@@QAE@XZ PROC			; command_item_drop2::command_item_drop2, COMDAT
; _this$ = ecx

; 202  : 		cell = WORD_MAX;

  00000	b8 ff ff 00 00	 mov	 eax, 65535		; 0000ffffH
  00005	c6 41 01 01	 mov	 BYTE PTR [ecx+1], 1
  00009	66 89 41 02	 mov	 WORD PTR [ecx+2], ax
  0000d	8b c1		 mov	 eax, ecx
  0000f	c3		 ret	 0
??0command_item_drop2@@QAE@XZ ENDP			; command_item_drop2::command_item_drop2
_TEXT	ENDS
; Function compile flags: /Ogtp
; File E:\Metin2_server\SolWayneSF v6\ClientVS22\source\UserInterface\GameType.h
;	COMDAT ??0command_item_destroy@@QAE@XZ
_TEXT	SEGMENT
??0command_item_destroy@@QAE@XZ PROC			; command_item_destroy::command_item_destroy, COMDAT
; _this$ = ecx

; 202  : 		cell = WORD_MAX;

  00000	b8 ff ff 00 00	 mov	 eax, 65535		; 0000ffffH
  00005	c6 41 01 01	 mov	 BYTE PTR [ecx+1], 1
  00009	66 89 41 02	 mov	 WORD PTR [ecx+2], ax
  0000d	8b c1		 mov	 eax, ecx
  0000f	c3		 ret	 0
??0command_item_destroy@@QAE@XZ ENDP			; command_item_destroy::command_item_destroy
_TEXT	ENDS
; Function compile flags: /Ogtp
; File E:\Metin2_server\SolWayneSF v6\ClientVS22\source\UserInterface\PythonNetworkStreamPhaseGameItem.cpp
;	COMDAT ?__IsEquipItemInSlot@CPythonNetworkStream@@IAE_NUSItemPos@@@Z
_TEXT	SEGMENT
_uSlotPos$ = 8						; size = 3
?__IsEquipItemInSlot@CPythonNetworkStream@@IAE_NUSItemPos@@@Z PROC ; CPythonNetworkStream::__IsEquipItemInSlot, COMDAT
; _this$dead$ = ecx

; 602  : {

  00000	55		 push	 ebp
  00001	8b ec		 mov	 ebp, esp

; 603  : 	IAbstractPlayer& rkPlayer=IAbstractPlayer::GetSingleton();

  00003	8b 0d 00 00 00
	00		 mov	 ecx, DWORD PTR ?ms_singleton@?$TAbstractSingleton@VIAbstractPlayer@@@@0PAVIAbstractPlayer@@A ; TAbstractSingleton<IAbstractPlayer>::ms_singleton
  00009	56		 push	 esi

; 604  : 	return rkPlayer.IsEquipItemInSlot(uSlotPos);

  0000a	51		 push	 ecx
  0000b	8b d4		 mov	 edx, esp
  0000d	8b 01		 mov	 eax, DWORD PTR [ecx]
  0000f	8b 70 4c	 mov	 esi, DWORD PTR [eax+76]
  00012	66 8b 45 08	 mov	 ax, WORD PTR _uSlotPos$[ebp]
  00016	66 89 02	 mov	 WORD PTR [edx], ax
  00019	8a 45 0a	 mov	 al, BYTE PTR _uSlotPos$[ebp+2]
  0001c	88 42 02	 mov	 BYTE PTR [edx+2], al
  0001f	ff d6		 call	 esi

; 605  : }

  00021	5e		 pop	 esi
  00022	5d		 pop	 ebp
  00023	c2 04 00	 ret	 4
?__IsEquipItemInSlot@CPythonNetworkStream@@IAE_NUSItemPos@@@Z ENDP ; CPythonNetworkStream::__IsEquipItemInSlot
_TEXT	ENDS
; Function compile flags: /Ogtp
; File E:\Metin2_server\SolWayneSF v6\ClientVS22\source\UserInterface\PythonNetworkStreamPhaseGameItem.cpp
;	COMDAT ?__PlayInventoryItemUseSound@CPythonNetworkStream@@IAEXUSItemPos@@@Z
_TEXT	SEGMENT
_uSlotPos$ = 8						; size = 3
?__PlayInventoryItemUseSound@CPythonNetworkStream@@IAEXUSItemPos@@@Z PROC ; CPythonNetworkStream::__PlayInventoryItemUseSound, COMDAT
; _this$dead$ = ecx

; 608  : {

  00000	55		 push	 ebp
  00001	8b ec		 mov	 ebp, esp

; 609  : 	IAbstractPlayer& rkPlayer=IAbstractPlayer::GetSingleton();

  00003	8b 0d 00 00 00
	00		 mov	 ecx, DWORD PTR ?ms_singleton@?$TAbstractSingleton@VIAbstractPlayer@@@@0PAVIAbstractPlayer@@A ; TAbstractSingleton<IAbstractPlayer>::ms_singleton
  00009	56		 push	 esi

; 610  : 	DWORD dwItemID=rkPlayer.GetItemIndex(uSlotPos);

  0000a	51		 push	 ecx
  0000b	8b d4		 mov	 edx, esp
  0000d	8b 01		 mov	 eax, DWORD PTR [ecx]
  0000f	8b 70 40	 mov	 esi, DWORD PTR [eax+64]
  00012	66 8b 45 08	 mov	 ax, WORD PTR _uSlotPos$[ebp]
  00016	66 89 02	 mov	 WORD PTR [edx], ax
  00019	8a 45 0a	 mov	 al, BYTE PTR _uSlotPos$[ebp+2]
  0001c	88 42 02	 mov	 BYTE PTR [edx+2], al
  0001f	ff d6		 call	 esi

; 611  : 
; 612  : 	CPythonItem& rkItem=CPythonItem::Instance();
; 613  : 	rkItem.PlayUseSound(dwItemID);

  00021	8b 0d 00 00 00
	00		 mov	 ecx, DWORD PTR ?ms_singleton@?$CSingleton@VCPythonItem@@@@0PAVCPythonItem@@A ; CSingleton<CPythonItem>::ms_singleton
  00027	50		 push	 eax
  00028	e8 00 00 00 00	 call	 ?PlayUseSound@CPythonItem@@QAEXK@Z ; CPythonItem::PlayUseSound

; 614  : }

  0002d	5e		 pop	 esi
  0002e	5d		 pop	 ebp
  0002f	c2 04 00	 ret	 4
?__PlayInventoryItemUseSound@CPythonNetworkStream@@IAEXUSItemPos@@@Z ENDP ; CPythonNetworkStream::__PlayInventoryItemUseSound
_TEXT	ENDS
; Function compile flags: /Ogtp
; File E:\Metin2_server\SolWayneSF v6\ClientVS22\source\UserInterface\PythonNetworkStreamPhaseGameItem.cpp
;	COMDAT ?__PlayInventoryItemDropSound@CPythonNetworkStream@@IAEXUSItemPos@@@Z
_TEXT	SEGMENT
_uSlotPos$ = 8						; size = 3
?__PlayInventoryItemDropSound@CPythonNetworkStream@@IAEXUSItemPos@@@Z PROC ; CPythonNetworkStream::__PlayInventoryItemDropSound, COMDAT
; _this$dead$ = ecx

; 617  : {

  00000	55		 push	 ebp
  00001	8b ec		 mov	 ebp, esp

; 618  : 	IAbstractPlayer& rkPlayer=IAbstractPlayer::GetSingleton();

  00003	8b 0d 00 00 00
	00		 mov	 ecx, DWORD PTR ?ms_singleton@?$TAbstractSingleton@VIAbstractPlayer@@@@0PAVIAbstractPlayer@@A ; TAbstractSingleton<IAbstractPlayer>::ms_singleton
  00009	56		 push	 esi

; 619  : 	DWORD dwItemID=rkPlayer.GetItemIndex(uSlotPos);

  0000a	51		 push	 ecx
  0000b	8b d4		 mov	 edx, esp
  0000d	8b 01		 mov	 eax, DWORD PTR [ecx]
  0000f	8b 70 40	 mov	 esi, DWORD PTR [eax+64]
  00012	66 8b 45 08	 mov	 ax, WORD PTR _uSlotPos$[ebp]
  00016	66 89 02	 mov	 WORD PTR [edx], ax
  00019	8a 45 0a	 mov	 al, BYTE PTR _uSlotPos$[ebp+2]
  0001c	88 42 02	 mov	 BYTE PTR [edx+2], al
  0001f	ff d6		 call	 esi

; 620  : 
; 621  : 	CPythonItem& rkItem=CPythonItem::Instance();
; 622  : 	rkItem.PlayDropSound(dwItemID);

  00021	50		 push	 eax
  00022	e8 00 00 00 00	 call	 ?PlayDropSound@CPythonItem@@QAEXK@Z ; CPythonItem::PlayDropSound

; 623  : }

  00027	5e		 pop	 esi
  00028	5d		 pop	 ebp
  00029	c2 04 00	 ret	 4
?__PlayInventoryItemDropSound@CPythonNetworkStream@@IAEXUSItemPos@@@Z ENDP ; CPythonNetworkStream::__PlayInventoryItemDropSound
_TEXT	ENDS
; Function compile flags: /Ogtp
; File E:\Metin2_server\SolWayneSF v6\ClientVS22\source\UserInterface\PythonNetworkStreamPhaseGameItem.cpp
;	COMDAT ?__PlaySafeBoxItemDropSound@CPythonNetworkStream@@IAEXI@Z
_TEXT	SEGMENT
_dwItemID$ = -4						; size = 4
_uSlotPos$ = 8						; size = 4
?__PlaySafeBoxItemDropSound@CPythonNetworkStream@@IAEXI@Z PROC ; CPythonNetworkStream::__PlaySafeBoxItemDropSound, COMDAT
; _this$dead$ = ecx

; 637  : {

  00000	55		 push	 ebp
  00001	8b ec		 mov	 ebp, esp
  00003	51		 push	 ecx

; 638  : 	DWORD dwItemID;
; 639  : 	CPythonSafeBox& rkSafeBox=CPythonSafeBox::Instance();
; 640  : 	if (!rkSafeBox.GetSlotItemID(uSlotPos, &dwItemID))

  00004	8b 0d 00 00 00
	00		 mov	 ecx, DWORD PTR ?ms_singleton@?$CSingleton@VCPythonSafeBox@@@@0PAVCPythonSafeBox@@A ; CSingleton<CPythonSafeBox>::ms_singleton
  0000a	8d 45 fc	 lea	 eax, DWORD PTR _dwItemID$[ebp]
  0000d	50		 push	 eax
  0000e	ff 75 08	 push	 DWORD PTR _uSlotPos$[ebp]
  00011	e8 00 00 00 00	 call	 ?GetSlotItemID@CPythonSafeBox@@QAEHKPAK@Z ; CPythonSafeBox::GetSlotItemID
  00016	85 c0		 test	 eax, eax
  00018	74 08		 je	 SHORT $LN1@PlaySafeBo

; 641  : 		return;
; 642  : 
; 643  : 	CPythonItem& rkItem=CPythonItem::Instance();
; 644  : 	rkItem.PlayDropSound(dwItemID);

  0001a	ff 75 fc	 push	 DWORD PTR _dwItemID$[ebp]
  0001d	e8 00 00 00 00	 call	 ?PlayDropSound@CPythonItem@@QAEXK@Z ; CPythonItem::PlayDropSound
$LN1@PlaySafeBo:

; 645  : }

  00022	8b e5		 mov	 esp, ebp
  00024	5d		 pop	 ebp
  00025	c2 04 00	 ret	 4
?__PlaySafeBoxItemDropSound@CPythonNetworkStream@@IAEXI@Z ENDP ; CPythonNetworkStream::__PlaySafeBoxItemDropSound
_TEXT	ENDS
; Function compile flags: /Ogtp
; File E:\Metin2_server\SolWayneSF v6\ClientVS22\source\UserInterface\PythonNetworkStreamPhaseGameItem.cpp
;	COMDAT ?__PlayMallItemDropSound@CPythonNetworkStream@@IAEXI@Z
_TEXT	SEGMENT
_dwItemID$ = -4						; size = 4
_uSlotPos$ = 8						; size = 4
?__PlayMallItemDropSound@CPythonNetworkStream@@IAEXI@Z PROC ; CPythonNetworkStream::__PlayMallItemDropSound, COMDAT
; _this$dead$ = ecx

; 648  : {

  00000	55		 push	 ebp
  00001	8b ec		 mov	 ebp, esp
  00003	51		 push	 ecx

; 649  : 	DWORD dwItemID;
; 650  : 	CPythonSafeBox& rkSafeBox=CPythonSafeBox::Instance();
; 651  : 	if (!rkSafeBox.GetSlotMallItemID(uSlotPos, &dwItemID))

  00004	8b 0d 00 00 00
	00		 mov	 ecx, DWORD PTR ?ms_singleton@?$CSingleton@VCPythonSafeBox@@@@0PAVCPythonSafeBox@@A ; CSingleton<CPythonSafeBox>::ms_singleton
  0000a	8d 45 fc	 lea	 eax, DWORD PTR _dwItemID$[ebp]
  0000d	50		 push	 eax
  0000e	ff 75 08	 push	 DWORD PTR _uSlotPos$[ebp]
  00011	e8 00 00 00 00	 call	 ?GetSlotMallItemID@CPythonSafeBox@@QAEHKPAK@Z ; CPythonSafeBox::GetSlotMallItemID
  00016	85 c0		 test	 eax, eax
  00018	74 08		 je	 SHORT $LN1@PlayMallIt

; 652  : 		return;
; 653  : 
; 654  : 	CPythonItem& rkItem=CPythonItem::Instance();
; 655  : 	rkItem.PlayDropSound(dwItemID);

  0001a	ff 75 fc	 push	 DWORD PTR _dwItemID$[ebp]
  0001d	e8 00 00 00 00	 call	 ?PlayDropSound@CPythonItem@@QAEXK@Z ; CPythonItem::PlayDropSound
$LN1@PlayMallIt:

; 656  : }

  00022	8b e5		 mov	 esp, ebp
  00024	5d		 pop	 ebp
  00025	c2 04 00	 ret	 4
?__PlayMallItemDropSound@CPythonNetworkStream@@IAEXI@Z ENDP ; CPythonNetworkStream::__PlayMallItemDropSound
_TEXT	ENDS
; Function compile flags: /Ogtp
; File E:\Metin2_server\SolWayneSF v6\ClientVS22\source\UserInterface\PythonNetworkStreamPhaseGameItem.cpp
;	COMDAT ?SendQuickSlotAddPacket@CPythonNetworkStream@@QAE_NEEE@Z
_TEXT	SEGMENT
_quickSlotAddPacket$ = -4				; size = 4
_wpos$ = 8						; size = 1
_type$ = 12						; size = 1
_pos$ = 16						; size = 1
?SendQuickSlotAddPacket@CPythonNetworkStream@@QAE_NEEE@Z PROC ; CPythonNetworkStream::SendQuickSlotAddPacket, COMDAT
; _this$ = ecx

; 724  : {

  00000	55		 push	 ebp
  00001	8b ec		 mov	 ebp, esp
  00003	51		 push	 ecx
  00004	56		 push	 esi
  00005	8b f1		 mov	 esi, ecx

; 725  : 	if (!__CanActMainInstance())

  00007	e8 00 00 00 00	 call	 ?__CanActMainInstance@CPythonNetworkStream@@IAE_NXZ ; CPythonNetworkStream::__CanActMainInstance
  0000c	84 c0		 test	 al, al
  0000e	75 09		 jne	 SHORT $LN2@SendQuickS

; 726  : 		return true;

  00010	b0 01		 mov	 al, 1
  00012	5e		 pop	 esi

; 742  : }

  00013	8b e5		 mov	 esp, ebp
  00015	5d		 pop	 ebp
  00016	c2 0c 00	 ret	 12			; 0000000cH
$LN2@SendQuickS:

; 727  : 
; 728  : 	TPacketCGQuickSlotAdd quickSlotAddPacket;
; 729  : 
; 730  : 	quickSlotAddPacket.header		= HEADER_CG_QUICKSLOT_ADD;
; 731  : 	quickSlotAddPacket.pos			= wpos;

  00019	8a 45 08	 mov	 al, BYTE PTR _wpos$[ebp]

; 732  : 	quickSlotAddPacket.slot.Type	= type;
; 733  : 	quickSlotAddPacket.slot.Position = pos;
; 734  : 
; 735  : 	if (!Send(sizeof(TPacketCGQuickSlotAdd), &quickSlotAddPacket))

  0001c	8b ce		 mov	 ecx, esi
  0001e	88 45 fd	 mov	 BYTE PTR _quickSlotAddPacket$[ebp+1], al
  00021	8a 45 0c	 mov	 al, BYTE PTR _type$[ebp]
  00024	88 45 fe	 mov	 BYTE PTR _quickSlotAddPacket$[ebp+2], al
  00027	8a 45 10	 mov	 al, BYTE PTR _pos$[ebp]
  0002a	88 45 ff	 mov	 BYTE PTR _quickSlotAddPacket$[ebp+3], al
  0002d	8d 45 fc	 lea	 eax, DWORD PTR _quickSlotAddPacket$[ebp]
  00030	50		 push	 eax
  00031	6a 04		 push	 4
  00033	c6 45 fc 10	 mov	 BYTE PTR _quickSlotAddPacket$[ebp], 16 ; 00000010H
  00037	e8 00 00 00 00	 call	 ?Send@CNetworkStream@@QAE_NHPBX@Z ; CNetworkStream::Send
  0003c	84 c0		 test	 al, al
  0003e	75 16		 jne	 SHORT $LN3@SendQuickS

; 736  : 	{
; 737  : 		Tracen("SendQuickSlotAddPacket Error");

  00040	68 00 00 00 00	 push	 OFFSET ??_C@_0BN@ONNLHEKF@SendQuickSlotAddPacket?5Error@
  00045	e8 00 00 00 00	 call	 ?Tracen@@YAXPBD@Z	; Tracen
  0004a	83 c4 04	 add	 esp, 4

; 738  : 		return false;

  0004d	32 c0		 xor	 al, al
  0004f	5e		 pop	 esi

; 742  : }

  00050	8b e5		 mov	 esp, ebp
  00052	5d		 pop	 ebp
  00053	c2 0c 00	 ret	 12			; 0000000cH
$LN3@SendQuickS:

; 739  : 	}
; 740  : 
; 741  : 	return SendSequence();

  00056	8b ce		 mov	 ecx, esi
  00058	e8 00 00 00 00	 call	 ?SendSequence@CNetworkStream@@QAE_NXZ ; CNetworkStream::SendSequence
  0005d	5e		 pop	 esi

; 742  : }

  0005e	8b e5		 mov	 esp, ebp
  00060	5d		 pop	 ebp
  00061	c2 0c 00	 ret	 12			; 0000000cH
?SendQuickSlotAddPacket@CPythonNetworkStream@@QAE_NEEE@Z ENDP ; CPythonNetworkStream::SendQuickSlotAddPacket
_TEXT	ENDS
; Function compile flags: /Ogtp
; File E:\Metin2_server\SolWayneSF v6\ClientVS22\source\UserInterface\PythonNetworkStreamPhaseGameItem.cpp
;	COMDAT ?SendQuickSlotDelPacket@CPythonNetworkStream@@QAE_NE@Z
_TEXT	SEGMENT
_quickSlotDelPacket$ = -4				; size = 2
_pos$ = 8						; size = 1
?SendQuickSlotDelPacket@CPythonNetworkStream@@QAE_NE@Z PROC ; CPythonNetworkStream::SendQuickSlotDelPacket, COMDAT
; _this$ = ecx

; 745  : {

  00000	55		 push	 ebp
  00001	8b ec		 mov	 ebp, esp
  00003	51		 push	 ecx
  00004	56		 push	 esi
  00005	8b f1		 mov	 esi, ecx

; 746  : 	if (!__CanActMainInstance())

  00007	e8 00 00 00 00	 call	 ?__CanActMainInstance@CPythonNetworkStream@@IAE_NXZ ; CPythonNetworkStream::__CanActMainInstance
  0000c	84 c0		 test	 al, al
  0000e	75 09		 jne	 SHORT $LN2@SendQuickS

; 747  : 		return true;

  00010	b0 01		 mov	 al, 1
  00012	5e		 pop	 esi

; 761  : }

  00013	8b e5		 mov	 esp, ebp
  00015	5d		 pop	 ebp
  00016	c2 04 00	 ret	 4
$LN2@SendQuickS:

; 748  : 
; 749  : 	TPacketCGQuickSlotDel quickSlotDelPacket;
; 750  : 
; 751  : 	quickSlotDelPacket.header = HEADER_CG_QUICKSLOT_DEL;
; 752  : 	quickSlotDelPacket.pos = pos;

  00019	8a 45 08	 mov	 al, BYTE PTR _pos$[ebp]

; 753  : 
; 754  : 	if (!Send(sizeof(TPacketCGQuickSlotDel), &quickSlotDelPacket))

  0001c	8b ce		 mov	 ecx, esi
  0001e	88 45 fd	 mov	 BYTE PTR _quickSlotDelPacket$[ebp+1], al
  00021	8d 45 fc	 lea	 eax, DWORD PTR _quickSlotDelPacket$[ebp]
  00024	50		 push	 eax
  00025	6a 02		 push	 2
  00027	c6 45 fc 11	 mov	 BYTE PTR _quickSlotDelPacket$[ebp], 17 ; 00000011H
  0002b	e8 00 00 00 00	 call	 ?Send@CNetworkStream@@QAE_NHPBX@Z ; CNetworkStream::Send
  00030	84 c0		 test	 al, al
  00032	75 16		 jne	 SHORT $LN3@SendQuickS

; 755  : 	{
; 756  : 		Tracen("SendQuickSlotDelPacket Error");

  00034	68 00 00 00 00	 push	 OFFSET ??_C@_0BN@BNCAGMGN@SendQuickSlotDelPacket?5Error@
  00039	e8 00 00 00 00	 call	 ?Tracen@@YAXPBD@Z	; Tracen
  0003e	83 c4 04	 add	 esp, 4

; 757  : 		return false;

  00041	32 c0		 xor	 al, al
  00043	5e		 pop	 esi

; 761  : }

  00044	8b e5		 mov	 esp, ebp
  00046	5d		 pop	 ebp
  00047	c2 04 00	 ret	 4
$LN3@SendQuickS:

; 758  : 	}
; 759  : 
; 760  : 	return SendSequence();

  0004a	8b ce		 mov	 ecx, esi
  0004c	e8 00 00 00 00	 call	 ?SendSequence@CNetworkStream@@QAE_NXZ ; CNetworkStream::SendSequence
  00051	5e		 pop	 esi

; 761  : }

  00052	8b e5		 mov	 esp, ebp
  00054	5d		 pop	 ebp
  00055	c2 04 00	 ret	 4
?SendQuickSlotDelPacket@CPythonNetworkStream@@QAE_NE@Z ENDP ; CPythonNetworkStream::SendQuickSlotDelPacket
_TEXT	ENDS
; Function compile flags: /Ogtp
; File E:\Metin2_server\SolWayneSF v6\ClientVS22\source\UserInterface\PythonNetworkStreamPhaseGameItem.cpp
;	COMDAT ?SendQuickSlotMovePacket@CPythonNetworkStream@@QAE_NEE@Z
_TEXT	SEGMENT
_quickSlotSwapPacket$ = -4				; size = 3
_pos$ = 8						; size = 1
_change_pos$ = 12					; size = 1
?SendQuickSlotMovePacket@CPythonNetworkStream@@QAE_NEE@Z PROC ; CPythonNetworkStream::SendQuickSlotMovePacket, COMDAT
; _this$ = ecx

; 764  : {

  00000	55		 push	 ebp
  00001	8b ec		 mov	 ebp, esp
  00003	51		 push	 ecx
  00004	56		 push	 esi
  00005	8b f1		 mov	 esi, ecx

; 765  : 	if (!__CanActMainInstance())

  00007	e8 00 00 00 00	 call	 ?__CanActMainInstance@CPythonNetworkStream@@IAE_NXZ ; CPythonNetworkStream::__CanActMainInstance
  0000c	84 c0		 test	 al, al
  0000e	75 09		 jne	 SHORT $LN2@SendQuickS

; 766  : 		return true;

  00010	b0 01		 mov	 al, 1
  00012	5e		 pop	 esi

; 781  : }

  00013	8b e5		 mov	 esp, ebp
  00015	5d		 pop	 ebp
  00016	c2 08 00	 ret	 8
$LN2@SendQuickS:

; 767  : 
; 768  : 	TPacketCGQuickSlotSwap quickSlotSwapPacket;
; 769  : 
; 770  : 	quickSlotSwapPacket.header = HEADER_CG_QUICKSLOT_SWAP;
; 771  : 	quickSlotSwapPacket.pos = pos;

  00019	8a 45 08	 mov	 al, BYTE PTR _pos$[ebp]

; 772  : 	quickSlotSwapPacket.change_pos = change_pos;
; 773  : 
; 774  : 	if (!Send(sizeof(TPacketCGQuickSlotSwap), &quickSlotSwapPacket))

  0001c	8b ce		 mov	 ecx, esi
  0001e	88 45 fd	 mov	 BYTE PTR _quickSlotSwapPacket$[ebp+1], al
  00021	8a 45 0c	 mov	 al, BYTE PTR _change_pos$[ebp]
  00024	88 45 fe	 mov	 BYTE PTR _quickSlotSwapPacket$[ebp+2], al
  00027	8d 45 fc	 lea	 eax, DWORD PTR _quickSlotSwapPacket$[ebp]
  0002a	50		 push	 eax
  0002b	6a 03		 push	 3
  0002d	c6 45 fc 12	 mov	 BYTE PTR _quickSlotSwapPacket$[ebp], 18 ; 00000012H
  00031	e8 00 00 00 00	 call	 ?Send@CNetworkStream@@QAE_NHPBX@Z ; CNetworkStream::Send
  00036	84 c0		 test	 al, al
  00038	75 16		 jne	 SHORT $LN3@SendQuickS

; 775  : 	{
; 776  : 		Tracen("SendQuickSlotSwapPacket Error");

  0003a	68 00 00 00 00	 push	 OFFSET ??_C@_0BO@MHEMOJBJ@SendQuickSlotSwapPacket?5Error@
  0003f	e8 00 00 00 00	 call	 ?Tracen@@YAXPBD@Z	; Tracen
  00044	83 c4 04	 add	 esp, 4

; 777  : 		return false;

  00047	32 c0		 xor	 al, al
  00049	5e		 pop	 esi

; 781  : }

  0004a	8b e5		 mov	 esp, ebp
  0004c	5d		 pop	 ebp
  0004d	c2 08 00	 ret	 8
$LN3@SendQuickS:

; 778  : 	}
; 779  : 
; 780  : 	return SendSequence();

  00050	8b ce		 mov	 ecx, esi
  00052	e8 00 00 00 00	 call	 ?SendSequence@CNetworkStream@@QAE_NXZ ; CNetworkStream::SendSequence
  00057	5e		 pop	 esi

; 781  : }

  00058	8b e5		 mov	 esp, ebp
  0005a	5d		 pop	 ebp
  0005b	c2 08 00	 ret	 8
?SendQuickSlotMovePacket@CPythonNetworkStream@@QAE_NEE@Z ENDP ; CPythonNetworkStream::SendQuickSlotMovePacket
_TEXT	ENDS
; Function compile flags: /Ogtp
; File E:\Metin2_server\SolWayneSF v6\ClientVS22\source\eterBase\Singleton.h
;	COMDAT ?Instance@?$CSingleton@VCPythonSafeBox@@@@SAAAVCPythonSafeBox@@XZ
_TEXT	SEGMENT
?Instance@?$CSingleton@VCPythonSafeBox@@@@SAAAVCPythonSafeBox@@XZ PROC ; CSingleton<CPythonSafeBox>::Instance, COMDAT

; 26   : 		assert(ms_singleton);
; 27   : 		return (*ms_singleton);

  00000	a1 00 00 00 00	 mov	 eax, DWORD PTR ?ms_singleton@?$CSingleton@VCPythonSafeBox@@@@0PAVCPythonSafeBox@@A ; CSingleton<CPythonSafeBox>::ms_singleton

; 28   : 	}

  00005	c3		 ret	 0
?Instance@?$CSingleton@VCPythonSafeBox@@@@SAAAVCPythonSafeBox@@XZ ENDP ; CSingleton<CPythonSafeBox>::Instance
_TEXT	ENDS
; Function compile flags: /Ogtp
; File E:\Metin2_server\SolWayneSF v6\ClientVS22\source\UserInterface\GameType.h
;	COMDAT ?IsEquipCell@SItemPos@@QAE_NXZ
_TEXT	SEGMENT
?IsEquipCell@SItemPos@@QAE_NXZ PROC			; SItemPos::IsEquipCell, COMDAT
; _this$ = ecx

; 238  : 		switch (window_type)

  00000	0f b6 01	 movzx	 eax, BYTE PTR [ecx]
  00003	48		 dec	 eax
  00004	83 f8 06	 cmp	 eax, 6
  00007	77 22		 ja	 SHORT $LN8@IsEquipCel
  00009	0f b6 80 00 00
	00 00		 movzx	 eax, BYTE PTR $LN12@IsEquipCel[eax]
  00010	ff 24 85 00 00
	00 00		 jmp	 DWORD PTR $LN13@IsEquipCel[eax*4]
$LN4@IsEquipCel:

; 239  : 		{
; 240  : 		case INVENTORY:
; 241  : 		case EQUIPMENT:
; 242  : 			return (c_Equipment_Start + c_Wear_Max > cell) && (c_Equipment_Start <= cell);

  00017	66 8b 41 01	 mov	 ax, WORD PTR [ecx+1]
  0001b	ba b4 00 00 00	 mov	 edx, 180		; 000000b4H
  00020	66 2b c2	 sub	 ax, dx
  00023	66 83 f8 1f	 cmp	 ax, 31			; 0000001fH
  00027	0f 96 c0	 setbe	 al

; 252  : 		}
; 253  : 	}

  0002a	c3		 ret	 0
$LN8@IsEquipCel:

; 243  : 			break;
; 244  : 
; 245  : 		case BELT_INVENTORY:
; 246  : 		case DRAGON_SOUL_INVENTORY:
; 247  : 			return false;
; 248  : 			break;
; 249  : 
; 250  : 		default:
; 251  : 			return false;

  0002b	32 c0		 xor	 al, al

; 252  : 		}
; 253  : 	}

  0002d	c3		 ret	 0
  0002e	66 90		 npad	 2
$LN13@IsEquipCel:
  00030	00 00 00 00	 DD	 $LN4@IsEquipCel
  00034	00 00 00 00	 DD	 $LN8@IsEquipCel
  00038	00 00 00 00	 DD	 $LN8@IsEquipCel
$LN12@IsEquipCel:
  0003c	00		 DB	 0
  0003d	00		 DB	 0
  0003e	02		 DB	 2
  0003f	02		 DB	 2
  00040	01		 DB	 1
  00041	02		 DB	 2
  00042	01		 DB	 1
?IsEquipCell@SItemPos@@QAE_NXZ ENDP			; SItemPos::IsEquipCell
_TEXT	ENDS
END
