; Listing generated by Microsoft (R) Optimizing Compiler Version 19.34.31937.0 

	TITLE	e:\metin2_server\solwaynesf v6\clientvs22\vs_files\userinterface\distribute\pythonnetworkstreamphasegameactor.obj
	.686P
	.XMM
	include listing.inc
	.model	flat

INCLUDELIB OLDNAMES

PUBLIC	??_C@_0DO@OHBFGBBC@TPacketGCCharacterAdditionalInf@ ; `string'
PUBLIC	??_C@_0BH@EOJPPMKE@metin2_map_deviltower1@	; `string'
PUBLIC	??_C@_0CP@OFGIOGEL@TPacketGCCharacterAdd2?$LE?B?5?$LO?$LC?A?v?5?$LO@ ; `string'
PUBLIC	??_C@_0EC@LELEANAH@CPythonNetworkStream?3?3RecvChara@ ; `string'
PUBLIC	??_C@_0DN@ILCEHFKM@CPythonNetworkStream?3?3RecvChara@ ; `string'
;	COMDAT ??_C@_0DN@ILCEHFKM@CPythonNetworkStream?3?3RecvChara@
CONST	SEGMENT
??_C@_0DN@ILCEHFKM@CPythonNetworkStream?3?3RecvChara@ DB 'CPythonNetworkS'
	DB	'tream::RecvCharacterDeletePacket - Recv Error', 00H ; `string'
CONST	ENDS
;	COMDAT ??_C@_0EC@LELEANAH@CPythonNetworkStream?3?3RecvChara@
CONST	SEGMENT
??_C@_0EC@LELEANAH@CPythonNetworkStream?3?3RecvChara@ DB 'CPythonNetworkS'
	DB	'tream::RecvCharacterMovePacket - PACKET READ ERROR', 00H ; `string'
CONST	ENDS
;	COMDAT ??_C@_0CP@OFGIOGEL@TPacketGCCharacterAdd2?$LE?B?5?$LO?$LC?A?v?5?$LO@
CONST	SEGMENT
??_C@_0CP@OFGIOGEL@TPacketGCCharacterAdd2?$LE?B?5?$LO?$LC?A?v?5?$LO@ DB 'T'
	DB	'PacketGCCharacterAdd2', 0b4H, 0c2H, ' ', 0beH, 0b2H, 0c1H, 0f6H
	DB	' ', 0beH, 0caH, 0b4H, 0c2H, ' ', 0c6H, 0d0H, 0c5H, 0b6H, 0c0H
	DB	0d4H, 0b4H, 0cfH, 0b4H, 0d9H, '.', 00H	; `string'
CONST	ENDS
;	COMDAT ??_C@_0BH@EOJPPMKE@metin2_map_deviltower1@
CONST	SEGMENT
??_C@_0BH@EOJPPMKE@metin2_map_deviltower1@ DB 'metin2_map_deviltower1', 00H ; `string'
CONST	ENDS
;	COMDAT ??_C@_0DO@OHBFGBBC@TPacketGCCharacterAdditionalInf@
CONST	SEGMENT
??_C@_0DO@OHBFGBBC@TPacketGCCharacterAdditionalInf@ DB 'TPacketGCCharacte'
	DB	'rAdditionalInfo name=%s vid=%d race=%d Error', 00H ; `string'
PUBLIC	?__RecvCharacterUpdatePacket@CPythonNetworkStream@@IAEXPAUSNetworkUpdateActorData@@@Z ; CPythonNetworkStream::__RecvCharacterUpdatePacket
PUBLIC	?__RecvCharacterAppendPacket@CPythonNetworkStream@@IAEXPAUSNetworkActorData@@@Z ; CPythonNetworkStream::__RecvCharacterAppendPacket
PUBLIC	??1SNetworkUpdateActorData@@QAE@XZ		; SNetworkUpdateActorData::~SNetworkUpdateActorData
PUBLIC	?IsInvisibleRace@@YA_NG@Z			; IsInvisibleRace
PUBLIC	?__SetWeaponPower@@YAXAAVIAbstractPlayer@@K@Z	; __SetWeaponPower
PUBLIC	??0SNetworkUpdateActorData@@QAE@XZ		; SNetworkUpdateActorData::SNetworkUpdateActorData
PUBLIC	??0SNetworkMoveActorData@@QAE@XZ		; SNetworkMoveActorData::SNetworkMoveActorData
PUBLIC	?RecvCharacterAppendPacket@CPythonNetworkStream@@IAE_NXZ ; CPythonNetworkStream::RecvCharacterAppendPacket
PUBLIC	?RecvCharacterAdditionalInfo@CPythonNetworkStream@@IAE_NXZ ; CPythonNetworkStream::RecvCharacterAdditionalInfo
PUBLIC	?RecvCharacterAppendPacketNew@CPythonNetworkStream@@IAE_NXZ ; CPythonNetworkStream::RecvCharacterAppendPacketNew
PUBLIC	?RecvCharacterUpdatePacket@CPythonNetworkStream@@IAE_NXZ ; CPythonNetworkStream::RecvCharacterUpdatePacket
PUBLIC	?RecvCharacterUpdatePacketNew@CPythonNetworkStream@@IAE_NXZ ; CPythonNetworkStream::RecvCharacterUpdatePacketNew
PUBLIC	?RecvCharacterDeletePacket@CPythonNetworkStream@@IAE_NXZ ; CPythonNetworkStream::RecvCharacterDeletePacket
PUBLIC	?RecvSyncPositionPacket@CPythonNetworkStream@@IAE_NXZ ; CPythonNetworkStream::RecvSyncPositionPacket
PUBLIC	?RecvOwnerShipPacket@CPythonNetworkStream@@IAE_NXZ ; CPythonNetworkStream::RecvOwnerShipPacket
PUBLIC	?RecvCharacterMovePacket@CPythonNetworkStream@@IAE_NXZ ; CPythonNetworkStream::RecvCharacterMovePacket
PUBLIC	?__GlobalPositionToLocalPosition@CPythonNetworkStream@@IAEXAAJ0@Z ; CPythonNetworkStream::__GlobalPositionToLocalPosition
PUBLIC	?__ClearNetworkActorManager@CPythonNetworkStream@@IAEXXZ ; CPythonNetworkStream::__ClearNetworkActorManager
PUBLIC	?__CanActMainInstance@CPythonNetworkStream@@IAE_NXZ ; CPythonNetworkStream::__CanActMainInstance
PUBLIC	?__LocalPositionToGlobalPosition@CPythonNetworkStream@@IAEXAAJ0@Z ; CPythonNetworkStream::__LocalPositionToGlobalPosition
?s_kNetActorData@@3USNetworkActorData@@A DB 08cH DUP (?) ; s_kNetActorData
_BSS	ENDS
;	COMDAT xdata$x
xdata$x	SEGMENT
__ehfuncinfo$?RecvCharacterAppendPacketNew@CPythonNetworkStream@@IAE_NXZ DD 019930522H
	DD	01H
	DD	FLAT:__unwindtable$?RecvCharacterAppendPacketNew@CPythonNetworkStream@@IAE_NXZ
	DD	2 DUP(00H)
	DD	2 DUP(00H)
	DD	00H
	DD	01H
__unwindtable$?RecvCharacterAppendPacketNew@CPythonNetworkStream@@IAE_NXZ DD 0ffffffffH
	DD	FLAT:__unwindfunclet$?RecvCharacterAppendPacketNew@CPythonNetworkStream@@IAE_NXZ$0
xdata$x	ENDS
;	COMDAT xdata$x
xdata$x	SEGMENT
__ehfuncinfo$?RecvCharacterAdditionalInfo@CPythonNetworkStream@@IAE_NXZ DD 019930522H
	DD	01H
	DD	FLAT:__unwindtable$?RecvCharacterAdditionalInfo@CPythonNetworkStream@@IAE_NXZ
	DD	2 DUP(00H)
	DD	2 DUP(00H)
	DD	00H
	DD	01H
__unwindtable$?RecvCharacterAdditionalInfo@CPythonNetworkStream@@IAE_NXZ DD 0ffffffffH
	DD	FLAT:__unwindfunclet$?RecvCharacterAdditionalInfo@CPythonNetworkStream@@IAE_NXZ$0
xdata$x	ENDS
;	COMDAT xdata$x
xdata$x	SEGMENT
__ehfuncinfo$?RecvCharacterAppendPacket@CPythonNetworkStream@@IAE_NXZ DD 019930522H
	DD	01H
	DD	FLAT:__unwindtable$?RecvCharacterAppendPacket@CPythonNetworkStream@@IAE_NXZ
	DD	2 DUP(00H)
	DD	2 DUP(00H)
	DD	00H
	DD	01H
__unwindtable$?RecvCharacterAppendPacket@CPythonNetworkStream@@IAE_NXZ DD 0ffffffffH
	DD	FLAT:__unwindfunclet$?RecvCharacterAppendPacket@CPythonNetworkStream@@IAE_NXZ$0
xdata$x	ENDS
;	COMDAT xdata$x
xdata$x	SEGMENT
__ehfuncinfo$?__RecvCharacterAppendPacket@CPythonNetworkStream@@IAEXPAUSNetworkActorData@@@Z DD 019930522H
	DD	01H
	DD	FLAT:__unwindtable$?__RecvCharacterAppendPacket@CPythonNetworkStream@@IAEXPAUSNetworkActorData@@@Z
	DD	2 DUP(00H)
	DD	2 DUP(00H)
	DD	00H
	DD	01H
__unwindtable$?__RecvCharacterAppendPacket@CPythonNetworkStream@@IAEXPAUSNetworkActorData@@@Z DD 0ffffffffH
	DD	FLAT:__unwindfunclet$?__RecvCharacterAppendPacket@CPythonNetworkStream@@IAEXPAUSNetworkActorData@@@Z$0
?s_kNetActorData$initializer$@@3P6AXXZA DD FLAT:??__Es_kNetActorData@@YAXXZ ; s_kNetActorData$initializer$
; Function compile flags: /Ogtp
; File E:\Metin2_server\SolWayneSF v6\ClientVS22\source\UserInterface\PythonNetworkStreamPhaseGameActor.cpp
;	COMDAT ?__LocalPositionToGlobalPosition@CPythonNetworkStream@@IAEXAAJ0@Z
_TEXT	SEGMENT
_rLocalX$ = 8						; size = 4
_rLocalY$ = 12						; size = 4
?__LocalPositionToGlobalPosition@CPythonNetworkStream@@IAEXAAJ0@Z PROC ; CPythonNetworkStream::__LocalPositionToGlobalPosition, COMDAT
; _this$dead$ = ecx

; 21   : {

  00000	55		 push	 ebp
  00001	8b ec		 mov	 ebp, esp

; 22   : 	CPythonBackground&rkBgMgr=CPythonBackground::Instance();
; 23   : 	rkBgMgr.LocalPositionToGlobalPosition(rLocalX, rLocalY);

  00003	8b 0d 00 00 00
	00		 mov	 ecx, DWORD PTR ?ms_singleton@?$CSingleton@VCPythonBackground@@@@0PAVCPythonBackground@@A ; CSingleton<CPythonBackground>::ms_singleton

; 24   : }

  00009	5d		 pop	 ebp

; 22   : 	CPythonBackground&rkBgMgr=CPythonBackground::Instance();
; 23   : 	rkBgMgr.LocalPositionToGlobalPosition(rLocalX, rLocalY);

  0000a	e9 00 00 00 00	 jmp	 ?LocalPositionToGlobalPosition@CPythonBackground@@QAEXAAJ0@Z ; CPythonBackground::LocalPositionToGlobalPosition
?__LocalPositionToGlobalPosition@CPythonNetworkStream@@IAEXAAJ0@Z ENDP ; CPythonNetworkStream::__LocalPositionToGlobalPosition
_TEXT	ENDS
; Function compile flags: /Ogtp
; File E:\Metin2_server\SolWayneSF v6\ClientVS22\source\UserInterface\PythonNetworkStreamPhaseGameActor.cpp
;	COMDAT ?__CanActMainInstance@CPythonNetworkStream@@IAE_NXZ
_TEXT	SEGMENT
?__CanActMainInstance@CPythonNetworkStream@@IAE_NXZ PROC ; CPythonNetworkStream::__CanActMainInstance, COMDAT
; _this$dead$ = ecx

; 28   : 	CPythonCharacterManager& rkChrMgr=CPythonCharacterManager::Instance();
; 29   : 	CInstanceBase* pkInstMain=rkChrMgr.GetMainInstancePtr();

  00000	8b 0d 00 00 00
	00		 mov	 ecx, DWORD PTR ?ms_singleton@?$CSingleton@VCPythonCharacterManager@@@@0PAVCPythonCharacterManager@@A ; CSingleton<CPythonCharacterManager>::ms_singleton
  00006	e8 00 00 00 00	 call	 ?GetMainInstancePtr@CPythonCharacterManager@@QAEPAVCInstanceBase@@XZ ; CPythonCharacterManager::GetMainInstancePtr

; 30   : 	if (!pkInstMain)

  0000b	85 c0		 test	 eax, eax
  0000d	75 03		 jne	 SHORT $LN2@CanActMain

; 31   : 		return false;

  0000f	32 c0		 xor	 al, al

; 34   : }

  00011	c3		 ret	 0
$LN2@CanActMain:

; 32   : 
; 33   : 	return pkInstMain->CanAct();

  00012	8b c8		 mov	 ecx, eax
  00014	e9 00 00 00 00	 jmp	 ?CanAct@CInstanceBase@@QAE_NXZ ; CInstanceBase::CanAct
?__CanActMainInstance@CPythonNetworkStream@@IAE_NXZ ENDP ; CPythonNetworkStream::__CanActMainInstance
_TEXT	ENDS
; Function compile flags: /Ogtp
; File E:\Metin2_server\SolWayneSF v6\ClientVS22\source\UserInterface\PythonNetworkStreamPhaseGameActor.cpp
;	COMDAT ?__ClearNetworkActorManager@CPythonNetworkStream@@IAEXXZ
_TEXT	SEGMENT
?__ClearNetworkActorManager@CPythonNetworkStream@@IAEXXZ PROC ; CPythonNetworkStream::__ClearNetworkActorManager, COMDAT
; _this$ = ecx

; 38   : 	m_rokNetActorMgr->Destroy();

  00000	8b 89 14 03 00
	00		 mov	 ecx, DWORD PTR [ecx+788]
  00006	e9 00 00 00 00	 jmp	 ?Destroy@CNetworkActorManager@@QAEXXZ ; CNetworkActorManager::Destroy
?__ClearNetworkActorManager@CPythonNetworkStream@@IAEXXZ ENDP ; CPythonNetworkStream::__ClearNetworkActorManager
_TEXT	ENDS
; Function compile flags: /Ogtp
; File E:\Metin2_server\SolWayneSF v6\ClientVS22\source\UserInterface\PythonNetworkStreamPhaseGameActor.cpp
;	COMDAT ?__GlobalPositionToLocalPosition@CPythonNetworkStream@@IAEXAAJ0@Z
_TEXT	SEGMENT
_rGlobalX$ = 8						; size = 4
_rGlobalY$ = 12						; size = 4
?__GlobalPositionToLocalPosition@CPythonNetworkStream@@IAEXAAJ0@Z PROC ; CPythonNetworkStream::__GlobalPositionToLocalPosition, COMDAT
; _this$dead$ = ecx

; 15   : {

  00000	55		 push	 ebp
  00001	8b ec		 mov	 ebp, esp

; 16   : 	CPythonBackground&rkBgMgr=CPythonBackground::Instance();
; 17   : 	rkBgMgr.GlobalPositionToLocalPosition(rGlobalX, rGlobalY);

  00003	8b 0d 00 00 00
	00		 mov	 ecx, DWORD PTR ?ms_singleton@?$CSingleton@VCPythonBackground@@@@0PAVCPythonBackground@@A ; CSingleton<CPythonBackground>::ms_singleton

; 18   : }

  00009	5d		 pop	 ebp

; 16   : 	CPythonBackground&rkBgMgr=CPythonBackground::Instance();
; 17   : 	rkBgMgr.GlobalPositionToLocalPosition(rGlobalX, rGlobalY);

  0000a	e9 00 00 00 00	 jmp	 ?GlobalPositionToLocalPosition@CPythonBackground@@QAEXAAJ0@Z ; CPythonBackground::GlobalPositionToLocalPosition
?__GlobalPositionToLocalPosition@CPythonNetworkStream@@IAEXAAJ0@Z ENDP ; CPythonNetworkStream::__GlobalPositionToLocalPosition
_TEXT	ENDS
; Function compile flags: /Ogtp
; File E:\Metin2_server\SolWayneSF v6\ClientVS22\source\UserInterface\PythonNetworkStreamPhaseGameActor.cpp
;	COMDAT ?RecvCharacterMovePacket@CPythonNetworkStream@@IAE_NXZ
_TEXT	SEGMENT
_kNetMoveActorData$ = -60				; size = 32
_kMovePacket$ = -28					; size = 24
__$ArrayPad$ = -4					; size = 4
?RecvCharacterMovePacket@CPythonNetworkStream@@IAE_NXZ PROC ; CPythonNetworkStream::RecvCharacterMovePacket, COMDAT
; _this$ = ecx

; 395  : {

  00000	55		 push	 ebp
  00001	8b ec		 mov	 ebp, esp
  00003	83 e4 f8	 and	 esp, -8			; fffffff8H
  00006	83 ec 3c	 sub	 esp, 60			; 0000003cH
  00009	a1 00 00 00 00	 mov	 eax, DWORD PTR ___security_cookie
  0000e	33 c4		 xor	 eax, esp
  00010	89 44 24 38	 mov	 DWORD PTR __$ArrayPad$[esp+60], eax
  00014	56		 push	 esi

; 396  : 	TPacketGCMove kMovePacket;
; 397  : 	if (!Recv(sizeof(TPacketGCMove), &kMovePacket))

  00015	8d 44 24 24	 lea	 eax, DWORD PTR _kMovePacket$[esp+64]
  00019	8b f1		 mov	 esi, ecx
  0001b	50		 push	 eax
  0001c	6a 18		 push	 24			; 00000018H
  0001e	e8 00 00 00 00	 call	 ?Recv@CNetworkStream@@QAE_NHPAX@Z ; CNetworkStream::Recv
  00023	84 c0		 test	 al, al
  00025	75 1f		 jne	 SHORT $LN2@RecvCharac

; 398  : 	{
; 399  : 		Tracen("CPythonNetworkStream::RecvCharacterMovePacket - PACKET READ ERROR");

  00027	68 00 00 00 00	 push	 OFFSET ??_C@_0EC@LELEANAH@CPythonNetworkStream?3?3RecvChara@
  0002c	e8 00 00 00 00	 call	 ?Tracen@@YAXPBD@Z	; Tracen
  00031	83 c4 04	 add	 esp, 4

; 400  : 		return false;

  00034	32 c0		 xor	 al, al

; 416  : 
; 417  : 	return true;
; 418  : }

  00036	5e		 pop	 esi
  00037	8b 4c 24 38	 mov	 ecx, DWORD PTR __$ArrayPad$[esp+60]
  0003b	33 cc		 xor	 ecx, esp
  0003d	e8 00 00 00 00	 call	 @__security_check_cookie@4
  00042	8b e5		 mov	 esp, ebp
  00044	5d		 pop	 ebp
  00045	c3		 ret	 0
$LN2@RecvCharac:

; 401  : 	}
; 402  : 
; 403  : 	__GlobalPositionToLocalPosition(kMovePacket.lX, kMovePacket.lY);

  00046	8d 44 24 30	 lea	 eax, DWORD PTR _kMovePacket$[esp+76]
  0004a	50		 push	 eax
  0004b	8d 44 24 30	 lea	 eax, DWORD PTR _kMovePacket$[esp+76]
  0004f	50		 push	 eax
  00050	e8 00 00 00 00	 call	 ?__GlobalPositionToLocalPosition@CPythonNetworkStream@@IAEXAAJ0@Z ; CPythonNetworkStream::__GlobalPositionToLocalPosition

; 404  : 
; 405  : 	SNetworkMoveActorData kNetMoveActorData;
; 406  : 	kNetMoveActorData.m_dwArg=kMovePacket.bArg;

  00055	0f b6 44 24 26	 movzx	 eax, BYTE PTR _kMovePacket$[esp+66]
  0005a	89 44 24 1c	 mov	 DWORD PTR _kNetMoveActorData$[esp+88], eax

; 407  : 	kNetMoveActorData.m_dwFunc=kMovePacket.bFunc;

  0005e	0f b6 44 24 25	 movzx	 eax, BYTE PTR _kMovePacket$[esp+65]

; 408  : 	kNetMoveActorData.m_dwTime=kMovePacket.dwTime;
; 409  : 	kNetMoveActorData.m_dwVID=kMovePacket.dwVID;
; 410  : 	kNetMoveActorData.m_fRot=kMovePacket.bRot*5.0f;
; 411  : 	kNetMoveActorData.m_lPosX=kMovePacket.lX;
; 412  : 	kNetMoveActorData.m_lPosY=kMovePacket.lY;
; 413  : 	kNetMoveActorData.m_dwDuration=kMovePacket.dwDuration;
; 414  : 
; 415  : 	m_rokNetActorMgr->MoveActor(kNetMoveActorData);

  00063	8b 8e 14 03 00
	00		 mov	 ecx, DWORD PTR [esi+788]
  00069	89 44 24 18	 mov	 DWORD PTR _kNetMoveActorData$[esp+84], eax
  0006d	8b 44 24 34	 mov	 eax, DWORD PTR _kMovePacket$[esp+80]
  00071	89 44 24 08	 mov	 DWORD PTR _kNetMoveActorData$[esp+68], eax
  00075	8b 44 24 28	 mov	 eax, DWORD PTR _kMovePacket$[esp+68]
  00079	89 44 24 04	 mov	 DWORD PTR _kNetMoveActorData$[esp+64], eax
  0007d	0f b6 44 24 27	 movzx	 eax, BYTE PTR _kMovePacket$[esp+67]
  00082	66 0f 6e c0	 movd	 xmm0, eax
  00086	8b 44 24 2c	 mov	 eax, DWORD PTR _kMovePacket$[esp+72]
  0008a	0f 5b c0	 cvtdq2ps xmm0, xmm0
  0008d	89 44 24 0c	 mov	 DWORD PTR _kNetMoveActorData$[esp+72], eax
  00091	8b 44 24 30	 mov	 eax, DWORD PTR _kMovePacket$[esp+76]
  00095	89 44 24 10	 mov	 DWORD PTR _kNetMoveActorData$[esp+76], eax
  00099	8b 44 24 38	 mov	 eax, DWORD PTR _kMovePacket$[esp+84]
  0009d	89 44 24 20	 mov	 DWORD PTR _kNetMoveActorData$[esp+92], eax
  000a1	8d 44 24 04	 lea	 eax, DWORD PTR _kNetMoveActorData$[esp+64]
  000a5	f3 0f 59 05 00
	00 00 00	 mulss	 xmm0, DWORD PTR __real@40a00000
  000ad	50		 push	 eax
  000ae	f3 0f 11 44 24
	18		 movss	 DWORD PTR _kNetMoveActorData$[esp+84], xmm0
  000b4	e8 00 00 00 00	 call	 ?MoveActor@CNetworkActorManager@@QAEXABUSNetworkMoveActorData@@@Z ; CNetworkActorManager::MoveActor

; 416  : 
; 417  : 	return true;
; 418  : }

  000b9	8b 4c 24 3c	 mov	 ecx, DWORD PTR __$ArrayPad$[esp+64]
  000bd	b0 01		 mov	 al, 1
  000bf	5e		 pop	 esi
  000c0	33 cc		 xor	 ecx, esp
  000c2	e8 00 00 00 00	 call	 @__security_check_cookie@4
  000c7	8b e5		 mov	 esp, ebp
  000c9	5d		 pop	 ebp
  000ca	c3		 ret	 0
?RecvCharacterMovePacket@CPythonNetworkStream@@IAE_NXZ ENDP ; CPythonNetworkStream::RecvCharacterMovePacket
_TEXT	ENDS
; Function compile flags: /Ogtp
; File E:\Metin2_server\SolWayneSF v6\ClientVS22\source\UserInterface\PythonNetworkStreamPhaseGameActor.cpp
;	COMDAT ?RecvOwnerShipPacket@CPythonNetworkStream@@IAE_NXZ
_TEXT	SEGMENT
_kPacketOwnership$ = -16				; size = 9
__$ArrayPad$ = -4					; size = 4
?RecvOwnerShipPacket@CPythonNetworkStream@@IAE_NXZ PROC	; CPythonNetworkStream::RecvOwnerShipPacket, COMDAT
; _this$ = ecx

; 421  : {

  00000	55		 push	 ebp
  00001	8b ec		 mov	 ebp, esp
  00003	83 ec 14	 sub	 esp, 20			; 00000014H
  00006	a1 00 00 00 00	 mov	 eax, DWORD PTR ___security_cookie
  0000b	33 c5		 xor	 eax, ebp
  0000d	89 45 fc	 mov	 DWORD PTR __$ArrayPad$[ebp], eax
  00010	56		 push	 esi

; 422  : 	TPacketGCOwnership kPacketOwnership;
; 423  : 
; 424  : 	if (!Recv(sizeof(kPacketOwnership), &kPacketOwnership))

  00011	8d 45 f0	 lea	 eax, DWORD PTR _kPacketOwnership$[ebp]
  00014	8b f1		 mov	 esi, ecx
  00016	50		 push	 eax
  00017	6a 09		 push	 9
  00019	e8 00 00 00 00	 call	 ?Recv@CNetworkStream@@QAE_NHPAX@Z ; CNetworkStream::Recv
  0001e	84 c0		 test	 al, al
  00020	75 0f		 jne	 SHORT $LN2@RecvOwnerS

; 428  : 
; 429  : 	return true;
; 430  : }

  00022	5e		 pop	 esi
  00023	8b 4d fc	 mov	 ecx, DWORD PTR __$ArrayPad$[ebp]
  00026	33 cd		 xor	 ecx, ebp
  00028	e8 00 00 00 00	 call	 @__security_check_cookie@4
  0002d	8b e5		 mov	 esp, ebp
  0002f	5d		 pop	 ebp
  00030	c3		 ret	 0
$LN2@RecvOwnerS:

; 425  : 		return false;
; 426  : 
; 427  : 	m_rokNetActorMgr->SetActorOwner(kPacketOwnership.dwOwnerVID, kPacketOwnership.dwVictimVID);

  00031	ff 75 f5	 push	 DWORD PTR _kPacketOwnership$[ebp+5]
  00034	8b 8e 14 03 00
	00		 mov	 ecx, DWORD PTR [esi+788]
  0003a	ff 75 f1	 push	 DWORD PTR _kPacketOwnership$[ebp+1]
  0003d	e8 00 00 00 00	 call	 ?SetActorOwner@CNetworkActorManager@@QAEXKK@Z ; CNetworkActorManager::SetActorOwner

; 428  : 
; 429  : 	return true;
; 430  : }

  00042	8b 4d fc	 mov	 ecx, DWORD PTR __$ArrayPad$[ebp]
  00045	b0 01		 mov	 al, 1
  00047	33 cd		 xor	 ecx, ebp
  00049	5e		 pop	 esi
  0004a	e8 00 00 00 00	 call	 @__security_check_cookie@4
  0004f	8b e5		 mov	 esp, ebp
  00051	5d		 pop	 ebp
  00052	c3		 ret	 0
?RecvOwnerShipPacket@CPythonNetworkStream@@IAE_NXZ ENDP	; CPythonNetworkStream::RecvOwnerShipPacket
_TEXT	ENDS
; Function compile flags: /Ogtp
; File E:\Metin2_server\SolWayneSF v6\ClientVS22\source\UserInterface\PythonNetworkStreamPhaseGameActor.cpp
;	COMDAT ?RecvSyncPositionPacket@CPythonNetworkStream@@IAE_NXZ
_TEXT	SEGMENT
_kPacketSyncPos$ = -20					; size = 3
_kSyncPos$ = -16					; size = 12
__$ArrayPad$ = -4					; size = 4
?RecvSyncPositionPacket@CPythonNetworkStream@@IAE_NXZ PROC ; CPythonNetworkStream::RecvSyncPositionPacket, COMDAT
; _this$ = ecx

; 433  : {

  00000	55		 push	 ebp
  00001	8b ec		 mov	 ebp, esp
  00003	83 ec 14	 sub	 esp, 20			; 00000014H
  00006	a1 00 00 00 00	 mov	 eax, DWORD PTR ___security_cookie
  0000b	33 c5		 xor	 eax, ebp
  0000d	89 45 fc	 mov	 DWORD PTR __$ArrayPad$[ebp], eax
  00010	53		 push	 ebx
  00011	56		 push	 esi
  00012	57		 push	 edi

; 434  : 	TPacketGCSyncPosition kPacketSyncPos;
; 435  : 	if (!Recv(sizeof(kPacketSyncPos), &kPacketSyncPos))

  00013	8d 45 ec	 lea	 eax, DWORD PTR _kPacketSyncPos$[ebp]
  00016	8b f1		 mov	 esi, ecx
  00018	50		 push	 eax
  00019	6a 03		 push	 3
  0001b	e8 00 00 00 00	 call	 ?Recv@CNetworkStream@@QAE_NHPAX@Z ; CNetworkStream::Recv
  00020	84 c0		 test	 al, al
  00022	74 66		 je	 SHORT $LN9@RecvSyncPo

; 436  : 		return false;
; 437  : 
; 438  : 	TPacketGCSyncPositionElement kSyncPos;
; 439  : 
; 440  : 	UINT uSyncPosCount=(kPacketSyncPos.wSize-sizeof(kPacketSyncPos))/sizeof(kSyncPos);

  00024	0f b7 4d ed	 movzx	 ecx, WORD PTR _kPacketSyncPos$[ebp+1]
  00028	b8 ab aa aa aa	 mov	 eax, -1431655765	; aaaaaaabH
  0002d	83 e9 03	 sub	 ecx, 3

; 441  : 	for (UINT iSyncPos=0; iSyncPos<uSyncPosCount; ++iSyncPos)

  00030	33 ff		 xor	 edi, edi
  00032	f7 e1		 mul	 ecx
  00034	8b da		 mov	 ebx, edx
  00036	c1 eb 03	 shr	 ebx, 3
  00039	85 db		 test	 ebx, ebx
  0003b	74 3a		 je	 SHORT $LN3@RecvSyncPo
  0003d	0f 1f 00	 npad	 3
$LL4@RecvSyncPo:

; 442  : 	{		
; 443  : 		if (!Recv(sizeof(TPacketGCSyncPositionElement), &kSyncPos))

  00040	8d 45 f0	 lea	 eax, DWORD PTR _kSyncPos$[ebp]
  00043	8b ce		 mov	 ecx, esi
  00045	50		 push	 eax
  00046	6a 0c		 push	 12			; 0000000cH
  00048	e8 00 00 00 00	 call	 ?Recv@CNetworkStream@@QAE_NHPAX@Z ; CNetworkStream::Recv
  0004d	84 c0		 test	 al, al
  0004f	74 39		 je	 SHORT $LN9@RecvSyncPo

; 444  : 			return false;
; 445  : 
; 446  : #ifdef __MOVIE_MODE__
; 447  : 		return true;
; 448  : #endif __MOVIE_MODE__
; 449  : 
; 450  : 		//Tracenf("CPythonNetworkStream::RecvSyncPositionPacket %d (%d, %d)", kSyncPos.dwVID, kSyncPos.lX, kSyncPos.lY);
; 451  : 
; 452  : 		__GlobalPositionToLocalPosition(kSyncPos.lX, kSyncPos.lY);

  00051	8d 45 f8	 lea	 eax, DWORD PTR _kSyncPos$[ebp+8]
  00054	50		 push	 eax
  00055	8d 45 f4	 lea	 eax, DWORD PTR _kSyncPos$[ebp+4]
  00058	50		 push	 eax
  00059	e8 00 00 00 00	 call	 ?__GlobalPositionToLocalPosition@CPythonNetworkStream@@IAEXAAJ0@Z ; CPythonNetworkStream::__GlobalPositionToLocalPosition

; 453  : 		m_rokNetActorMgr->SyncActor(kSyncPos.dwVID, kSyncPos.lX, kSyncPos.lY);

  0005e	ff 75 f8	 push	 DWORD PTR _kSyncPos$[ebp+8]
  00061	8b 8e 14 03 00
	00		 mov	 ecx, DWORD PTR [esi+788]
  00067	ff 75 f4	 push	 DWORD PTR _kSyncPos$[ebp+4]
  0006a	ff 75 f0	 push	 DWORD PTR _kSyncPos$[ebp]
  0006d	e8 00 00 00 00	 call	 ?SyncActor@CNetworkActorManager@@QAEXKJJ@Z ; CNetworkActorManager::SyncActor
  00072	47		 inc	 edi
  00073	3b fb		 cmp	 edi, ebx
  00075	72 c9		 jb	 SHORT $LL4@RecvSyncPo
$LN3@RecvSyncPo:

; 454  : 
; 455  : 		/*
; 456  : 		CPythonCharacterManager & rkChrMgr = CPythonCharacterManager::Instance();
; 457  : 		CInstanceBase * pkChrInst = rkChrMgr.GetInstancePtr(kSyncPos.dwVID);
; 458  : 
; 459  : 		if (pkChrInst)
; 460  : 		{			
; 461  : 			pkChrInst->NEW_SyncPixelPosition(kSyncPos.lX, kSyncPos.lY);		
; 462  : 		}
; 463  : 		*/
; 464  : }
; 465  : 
; 466  : 	return true;

  00077	b0 01		 mov	 al, 1

; 467  : }

  00079	5f		 pop	 edi
  0007a	5e		 pop	 esi
  0007b	5b		 pop	 ebx
  0007c	8b 4d fc	 mov	 ecx, DWORD PTR __$ArrayPad$[ebp]
  0007f	33 cd		 xor	 ecx, ebp
  00081	e8 00 00 00 00	 call	 @__security_check_cookie@4
  00086	8b e5		 mov	 esp, ebp
  00088	5d		 pop	 ebp
  00089	c3		 ret	 0
$LN9@RecvSyncPo:
  0008a	8b 4d fc	 mov	 ecx, DWORD PTR __$ArrayPad$[ebp]
  0008d	32 c0		 xor	 al, al
  0008f	5f		 pop	 edi
  00090	5e		 pop	 esi
  00091	33 cd		 xor	 ecx, ebp
  00093	5b		 pop	 ebx
  00094	e8 00 00 00 00	 call	 @__security_check_cookie@4
  00099	8b e5		 mov	 esp, ebp
  0009b	5d		 pop	 ebp
  0009c	c3		 ret	 0
?RecvSyncPositionPacket@CPythonNetworkStream@@IAE_NXZ ENDP ; CPythonNetworkStream::RecvSyncPositionPacket
_TEXT	ENDS
; Function compile flags: /Ogtp
; File E:\Metin2_server\SolWayneSF v6\ClientVS22\source\UserInterface\PythonNetworkStreamPhaseGameActor.cpp
;	COMDAT ?RecvCharacterDeletePacket@CPythonNetworkStream@@IAE_NXZ
_TEXT	SEGMENT
_chrDelPacket$ = -8					; size = 5
?RecvCharacterDeletePacket@CPythonNetworkStream@@IAE_NXZ PROC ; CPythonNetworkStream::RecvCharacterDeletePacket, COMDAT
; _this$ = ecx

; 372  : {

  00000	55		 push	 ebp
  00001	8b ec		 mov	 ebp, esp
  00003	83 ec 08	 sub	 esp, 8

; 373  : 	TPacketGCCharacterDelete chrDelPacket;
; 374  : 
; 375  : 	if (!Recv(sizeof(chrDelPacket), &chrDelPacket))

  00006	8d 45 f8	 lea	 eax, DWORD PTR _chrDelPacket$[ebp]
  00009	56		 push	 esi
  0000a	50		 push	 eax
  0000b	6a 05		 push	 5
  0000d	8b f1		 mov	 esi, ecx
  0000f	e8 00 00 00 00	 call	 ?Recv@CNetworkStream@@QAE_NHPAX@Z ; CNetworkStream::Recv
  00014	84 c0		 test	 al, al
  00016	75 14		 jne	 SHORT $LN2@RecvCharac

; 376  : 	{
; 377  : 		TraceError("CPythonNetworkStream::RecvCharacterDeletePacket - Recv Error");

  00018	68 00 00 00 00	 push	 OFFSET ??_C@_0DN@ILCEHFKM@CPythonNetworkStream?3?3RecvChara@
  0001d	e8 00 00 00 00	 call	 ?TraceError@@YAXPBDZZ	; TraceError
  00022	83 c4 04	 add	 esp, 4

; 378  : 		return false;

  00025	32 c0		 xor	 al, al
  00027	5e		 pop	 esi

; 391  : }

  00028	8b e5		 mov	 esp, ebp
  0002a	5d		 pop	 ebp
  0002b	c3		 ret	 0
$LN2@RecvCharac:

; 379  : 	}
; 380  : 
; 381  : 	m_rokNetActorMgr->RemoveActor(chrDelPacket.dwVID);

  0002c	ff 75 f9	 push	 DWORD PTR _chrDelPacket$[ebp+1]
  0002f	8b 8e 14 03 00
	00		 mov	 ecx, DWORD PTR [esi+788]
  00035	e8 00 00 00 00	 call	 ?RemoveActor@CNetworkActorManager@@QAEXK@Z ; CNetworkActorManager::RemoveActor

; 382  : 
; 383  : 	// 캐릭터가 사라질때 개인 상점도 없애줍니다.
; 384  : 	// Key Check 를 하기때문에 없어도 상관은 없습니다.
; 385  : 	PyCallClassMemberFunc(m_apoPhaseWnd[PHASE_WINDOW_GAME], 

  0003a	ff 75 f9	 push	 DWORD PTR _chrDelPacket$[ebp+1]
  0003d	68 00 00 00 00	 push	 OFFSET ??_C@_03LIHNMIHG@?$CIi?$CJ@
  00042	ff 15 00 00 00
	00		 call	 DWORD PTR __imp__Py_BuildValue
  00048	50		 push	 eax
  00049	68 00 00 00 00	 push	 OFFSET ??_C@_0BN@BEOHMMCM@BINARY_PrivateShop_Disappear@
  0004e	ff b6 90 01 00
	00		 push	 DWORD PTR [esi+400]
  00054	e8 00 00 00 00	 call	 ?PyCallClassMemberFunc@@YA_NPAU_object@@PBD0@Z ; PyCallClassMemberFunc
  00059	83 c4 14	 add	 esp, 20			; 00000014H

; 386  : 		"BINARY_PrivateShop_Disappear", 
; 387  : 		Py_BuildValue("(i)", chrDelPacket.dwVID)
; 388  : 	);
; 389  : 
; 390  : 	return true;

  0005c	b0 01		 mov	 al, 1
  0005e	5e		 pop	 esi

; 391  : }

  0005f	8b e5		 mov	 esp, ebp
  00061	5d		 pop	 ebp
  00062	c3		 ret	 0
?RecvCharacterDeletePacket@CPythonNetworkStream@@IAE_NXZ ENDP ; CPythonNetworkStream::RecvCharacterDeletePacket
_TEXT	ENDS
; Function compile flags: /Ogtp
; File E:\Metin2_server\SolWayneSF v6\ClientVS22\source\UserInterface\PythonNetworkStreamPhaseGameActor.cpp
;	COMDAT ?RecvCharacterUpdatePacketNew@CPythonNetworkStream@@IAE_NXZ
_TEXT	SEGMENT
_kNetUpdateActorData$ = -112				; size = 64
_chrUpdatePacket$ = -44					; size = 39
__$ArrayPad$ = -4					; size = 4
?RecvCharacterUpdatePacketNew@CPythonNetworkStream@@IAE_NXZ PROC ; CPythonNetworkStream::RecvCharacterUpdatePacketNew, COMDAT
; _this$ = ecx

; 276  : {

  00000	55		 push	 ebp
  00001	8b ec		 mov	 ebp, esp
  00003	83 ec 74	 sub	 esp, 116		; 00000074H
  00006	a1 00 00 00 00	 mov	 eax, DWORD PTR ___security_cookie
  0000b	33 c5		 xor	 eax, ebp
  0000d	89 45 fc	 mov	 DWORD PTR __$ArrayPad$[ebp], eax
  00010	56		 push	 esi

; 277  : 	TPacketGCCharacterUpdate2 chrUpdatePacket;
; 278  : 	if (!Recv(sizeof(chrUpdatePacket), &chrUpdatePacket))

  00011	8d 45 d4	 lea	 eax, DWORD PTR _chrUpdatePacket$[ebp]
  00014	8b f1		 mov	 esi, ecx
  00016	50		 push	 eax
  00017	6a 27		 push	 39			; 00000027H
  00019	e8 00 00 00 00	 call	 ?Recv@CNetworkStream@@QAE_NHPAX@Z ; CNetworkStream::Recv
  0001e	84 c0		 test	 al, al
  00020	75 0f		 jne	 SHORT $LN2@RecvCharac

; 302  : 
; 303  : 	return true;
; 304  : }

  00022	5e		 pop	 esi
  00023	8b 4d fc	 mov	 ecx, DWORD PTR __$ArrayPad$[ebp]
  00026	33 cd		 xor	 ecx, ebp
  00028	e8 00 00 00 00	 call	 @__security_check_cookie@4
  0002d	8b e5		 mov	 esp, ebp
  0002f	5d		 pop	 ebp
  00030	c3		 ret	 0
$LN2@RecvCharac:

; 279  : 		return false;
; 280  : 
; 281  : 	SNetworkUpdateActorData kNetUpdateActorData;

  00031	8d 4d 90	 lea	 ecx, DWORD PTR _kNetUpdateActorData$[ebp]
  00034	e8 00 00 00 00	 call	 ??0SNetworkUpdateActorData@@QAE@XZ ; SNetworkUpdateActorData::SNetworkUpdateActorData

; 282  : 	kNetUpdateActorData.m_dwGuildID=chrUpdatePacket.dwGuildID;

  00039	8b 45 f0	 mov	 eax, DWORD PTR _chrUpdatePacket$[ebp+28]
  0003c	89 45 94	 mov	 DWORD PTR _kNetUpdateActorData$[ebp+4], eax

; 283  : 	kNetUpdateActorData.m_dwMovSpd=chrUpdatePacket.bMovingSpeed;

  0003f	0f b6 45 e5	 movzx	 eax, BYTE PTR _chrUpdatePacket$[ebp+17]
  00043	89 45 ac	 mov	 DWORD PTR _kNetUpdateActorData$[ebp+28], eax

; 284  : 	kNetUpdateActorData.m_dwAtkSpd=chrUpdatePacket.bAttackSpeed;

  00046	0f b6 45 e6	 movzx	 eax, BYTE PTR _chrUpdatePacket$[ebp+18]
  0004a	89 45 b0	 mov	 DWORD PTR _kNetUpdateActorData$[ebp+32], eax

; 285  : 	kNetUpdateActorData.m_dwArmor=chrUpdatePacket.awPart[CHR_EQUIPPART_ARMOR];

  0004d	0f b7 45 d9	 movzx	 eax, WORD PTR _chrUpdatePacket$[ebp+5]
  00051	89 45 98	 mov	 DWORD PTR _kNetUpdateActorData$[ebp+8], eax

; 286  : 	kNetUpdateActorData.m_dwWeapon=chrUpdatePacket.awPart[CHR_EQUIPPART_WEAPON];

  00054	0f b7 45 db	 movzx	 eax, WORD PTR _chrUpdatePacket$[ebp+7]
  00058	89 45 9c	 mov	 DWORD PTR _kNetUpdateActorData$[ebp+12], eax

; 287  : 	kNetUpdateActorData.m_dwHair=chrUpdatePacket.awPart[CHR_EQUIPPART_HAIR];

  0005b	0f b7 45 df	 movzx	 eax, WORD PTR _chrUpdatePacket$[ebp+11]
  0005f	89 45 a0	 mov	 DWORD PTR _kNetUpdateActorData$[ebp+16], eax

; 288  : 	#ifdef ENABLE_SASH_SYSTEM
; 289  : 	kNetUpdateActorData.m_dwSash = chrUpdatePacket.awPart[CHR_EQUIPPART_SASH];

  00062	0f b7 45 e1	 movzx	 eax, WORD PTR _chrUpdatePacket$[ebp+13]
  00066	89 45 a4	 mov	 DWORD PTR _kNetUpdateActorData$[ebp+20], eax

; 290  : 	#endif
; 291  : #ifdef ENABLE_NEW_ARROW_SYSTEM
; 292  : 	kNetUpdateActorData.m_dwArrowType=chrUpdatePacket.awPart[CHR_PART_ARROW_TYPE];

  00069	0f b7 45 e3	 movzx	 eax, WORD PTR _chrUpdatePacket$[ebp+15]
  0006d	89 45 a8	 mov	 DWORD PTR _kNetUpdateActorData$[ebp+24], eax

; 293  : #endif
; 294  : 	kNetUpdateActorData.m_dwVID=chrUpdatePacket.dwVID;

  00070	8b 45 d5	 mov	 eax, DWORD PTR _chrUpdatePacket$[ebp+1]
  00073	89 45 90	 mov	 DWORD PTR _kNetUpdateActorData$[ebp], eax

; 295  : 	kNetUpdateActorData.m_kAffectFlags.CopyData(0, sizeof(chrUpdatePacket.dwAffectFlag[0]), &chrUpdatePacket.dwAffectFlag[0]);

  00076	8d 45 e8	 lea	 eax, DWORD PTR _chrUpdatePacket$[ebp+20]
  00079	50		 push	 eax
  0007a	51		 push	 ecx
  0007b	6a 00		 push	 0
  0007d	8d 4d c8	 lea	 ecx, DWORD PTR _kNetUpdateActorData$[ebp+56]
  00080	e8 00 00 00 00	 call	 ?CopyData@CAffectFlagContainer@@QAEXIIPBX@Z ; CAffectFlagContainer::CopyData

; 296  : 	kNetUpdateActorData.m_kAffectFlags.CopyData(32, sizeof(chrUpdatePacket.dwAffectFlag[1]), &chrUpdatePacket.dwAffectFlag[1]);

  00085	8d 45 ec	 lea	 eax, DWORD PTR _chrUpdatePacket$[ebp+24]
  00088	50		 push	 eax
  00089	51		 push	 ecx
  0008a	6a 20		 push	 32			; 00000020H
  0008c	8d 4d c8	 lea	 ecx, DWORD PTR _kNetUpdateActorData$[ebp+56]
  0008f	e8 00 00 00 00	 call	 ?CopyData@CAffectFlagContainer@@QAEXIIPBX@Z ; CAffectFlagContainer::CopyData

; 297  : 	kNetUpdateActorData.m_sAlignment=chrUpdatePacket.sAlignment;

  00094	66 8b 45 f4	 mov	 ax, WORD PTR _chrUpdatePacket$[ebp+32]

; 298  : 	kNetUpdateActorData.m_byPKMode=chrUpdatePacket.bPKMode;
; 299  : 	kNetUpdateActorData.m_dwStateFlags=chrUpdatePacket.bStateFlag;
; 300  : 	kNetUpdateActorData.m_dwMountVnum=chrUpdatePacket.dwMountVnum;
; 301  : 	__RecvCharacterUpdatePacket(&kNetUpdateActorData);

  00098	8b ce		 mov	 ecx, esi
  0009a	66 89 45 b4	 mov	 WORD PTR _kNetUpdateActorData$[ebp+36], ax
  0009e	8a 45 f6	 mov	 al, BYTE PTR _chrUpdatePacket$[ebp+34]
  000a1	88 45 bc	 mov	 BYTE PTR _kNetUpdateActorData$[ebp+44], al
  000a4	0f b6 45 e7	 movzx	 eax, BYTE PTR _chrUpdatePacket$[ebp+19]
  000a8	89 45 c4	 mov	 DWORD PTR _kNetUpdateActorData$[ebp+52], eax
  000ab	8b 45 f7	 mov	 eax, DWORD PTR _chrUpdatePacket$[ebp+35]
  000ae	89 45 c0	 mov	 DWORD PTR _kNetUpdateActorData$[ebp+48], eax
  000b1	8d 45 90	 lea	 eax, DWORD PTR _kNetUpdateActorData$[ebp]
  000b4	50		 push	 eax
  000b5	e8 00 00 00 00	 call	 ?__RecvCharacterUpdatePacket@CPythonNetworkStream@@IAEXPAUSNetworkUpdateActorData@@@Z ; CPythonNetworkStream::__RecvCharacterUpdatePacket

; 302  : 
; 303  : 	return true;
; 304  : }

  000ba	8b 4d fc	 mov	 ecx, DWORD PTR __$ArrayPad$[ebp]
  000bd	b0 01		 mov	 al, 1
  000bf	33 cd		 xor	 ecx, ebp
  000c1	5e		 pop	 esi
  000c2	e8 00 00 00 00	 call	 @__security_check_cookie@4
  000c7	8b e5		 mov	 esp, ebp
  000c9	5d		 pop	 ebp
  000ca	c3		 ret	 0
?RecvCharacterUpdatePacketNew@CPythonNetworkStream@@IAE_NXZ ENDP ; CPythonNetworkStream::RecvCharacterUpdatePacketNew
_TEXT	ENDS
; Function compile flags: /Ogtp
; File E:\Metin2_server\SolWayneSF v6\ClientVS22\source\UserInterface\PythonNetworkStreamPhaseGameActor.cpp
;	COMDAT ?RecvCharacterUpdatePacket@CPythonNetworkStream@@IAE_NXZ
_TEXT	SEGMENT
_kNetUpdateActorData$ = -112				; size = 64
_chrUpdatePacket$ = -48					; size = 43
__$ArrayPad$ = -4					; size = 4
?RecvCharacterUpdatePacket@CPythonNetworkStream@@IAE_NXZ PROC ; CPythonNetworkStream::RecvCharacterUpdatePacket, COMDAT
; _this$ = ecx

; 242  : {

  00000	55		 push	 ebp
  00001	8b ec		 mov	 ebp, esp
  00003	83 ec 74	 sub	 esp, 116		; 00000074H
  00006	a1 00 00 00 00	 mov	 eax, DWORD PTR ___security_cookie
  0000b	33 c5		 xor	 eax, ebp
  0000d	89 45 fc	 mov	 DWORD PTR __$ArrayPad$[ebp], eax
  00010	56		 push	 esi

; 243  : 	TPacketGCCharacterUpdate chrUpdatePacket;
; 244  : 	if (!Recv(sizeof(chrUpdatePacket), &chrUpdatePacket))

  00011	8d 45 d0	 lea	 eax, DWORD PTR _chrUpdatePacket$[ebp]
  00014	8b f1		 mov	 esi, ecx
  00016	50		 push	 eax
  00017	6a 2b		 push	 43			; 0000002bH
  00019	e8 00 00 00 00	 call	 ?Recv@CNetworkStream@@QAE_NHPAX@Z ; CNetworkStream::Recv
  0001e	84 c0		 test	 al, al
  00020	75 0f		 jne	 SHORT $LN2@RecvCharac

; 271  : 
; 272  : 	return true;
; 273  : }

  00022	5e		 pop	 esi
  00023	8b 4d fc	 mov	 ecx, DWORD PTR __$ArrayPad$[ebp]
  00026	33 cd		 xor	 ecx, ebp
  00028	e8 00 00 00 00	 call	 @__security_check_cookie@4
  0002d	8b e5		 mov	 esp, ebp
  0002f	5d		 pop	 ebp
  00030	c3		 ret	 0
$LN2@RecvCharac:

; 245  : 		return false;
; 246  : 
; 247  : 	SNetworkUpdateActorData kNetUpdateActorData;

  00031	8d 4d 90	 lea	 ecx, DWORD PTR _kNetUpdateActorData$[ebp]
  00034	e8 00 00 00 00	 call	 ??0SNetworkUpdateActorData@@QAE@XZ ; SNetworkUpdateActorData::SNetworkUpdateActorData

; 248  : 	kNetUpdateActorData.m_dwGuildID=chrUpdatePacket.dwGuildID;

  00039	8b 45 ec	 mov	 eax, DWORD PTR _chrUpdatePacket$[ebp+28]
  0003c	89 45 94	 mov	 DWORD PTR _kNetUpdateActorData$[ebp+4], eax

; 249  : 	kNetUpdateActorData.m_dwMovSpd=chrUpdatePacket.bMovingSpeed;

  0003f	0f b6 45 e1	 movzx	 eax, BYTE PTR _chrUpdatePacket$[ebp+17]
  00043	89 45 ac	 mov	 DWORD PTR _kNetUpdateActorData$[ebp+28], eax

; 250  : 	kNetUpdateActorData.m_dwAtkSpd=chrUpdatePacket.bAttackSpeed;

  00046	0f b6 45 e2	 movzx	 eax, BYTE PTR _chrUpdatePacket$[ebp+18]
  0004a	89 45 b0	 mov	 DWORD PTR _kNetUpdateActorData$[ebp+32], eax

; 251  : 	kNetUpdateActorData.m_dwArmor=chrUpdatePacket.awPart[CHR_EQUIPPART_ARMOR];

  0004d	0f b7 45 d5	 movzx	 eax, WORD PTR _chrUpdatePacket$[ebp+5]
  00051	89 45 98	 mov	 DWORD PTR _kNetUpdateActorData$[ebp+8], eax

; 252  : 	kNetUpdateActorData.m_dwWeapon=chrUpdatePacket.awPart[CHR_EQUIPPART_WEAPON];

  00054	0f b7 45 d7	 movzx	 eax, WORD PTR _chrUpdatePacket$[ebp+7]
  00058	89 45 9c	 mov	 DWORD PTR _kNetUpdateActorData$[ebp+12], eax

; 253  : 	kNetUpdateActorData.m_dwHair=chrUpdatePacket.awPart[CHR_EQUIPPART_HAIR];

  0005b	0f b7 45 db	 movzx	 eax, WORD PTR _chrUpdatePacket$[ebp+11]
  0005f	89 45 a0	 mov	 DWORD PTR _kNetUpdateActorData$[ebp+16], eax

; 254  : 	#ifdef ENABLE_SASH_SYSTEM
; 255  : 	kNetUpdateActorData.m_dwSash = chrUpdatePacket.awPart[CHR_EQUIPPART_SASH];

  00062	0f b7 45 dd	 movzx	 eax, WORD PTR _chrUpdatePacket$[ebp+13]
  00066	89 45 a4	 mov	 DWORD PTR _kNetUpdateActorData$[ebp+20], eax

; 256  : 	#endif
; 257  : #ifdef ENABLE_NEW_ARROW_SYSTEM
; 258  : 	kNetUpdateActorData.m_dwArrowType=chrUpdatePacket.awPart[CHR_PART_ARROW_TYPE];

  00069	0f b7 45 df	 movzx	 eax, WORD PTR _chrUpdatePacket$[ebp+15]
  0006d	89 45 a8	 mov	 DWORD PTR _kNetUpdateActorData$[ebp+24], eax

; 259  : #endif
; 260  : 	kNetUpdateActorData.m_dwVID=chrUpdatePacket.dwVID;	

  00070	8b 45 d1	 mov	 eax, DWORD PTR _chrUpdatePacket$[ebp+1]
  00073	89 45 90	 mov	 DWORD PTR _kNetUpdateActorData$[ebp], eax

; 261  : 	kNetUpdateActorData.m_kAffectFlags.CopyData(0, sizeof(chrUpdatePacket.dwAffectFlag[0]), &chrUpdatePacket.dwAffectFlag[0]);

  00076	8d 45 e4	 lea	 eax, DWORD PTR _chrUpdatePacket$[ebp+20]
  00079	50		 push	 eax
  0007a	51		 push	 ecx
  0007b	6a 00		 push	 0
  0007d	8d 4d c8	 lea	 ecx, DWORD PTR _kNetUpdateActorData$[ebp+56]
  00080	e8 00 00 00 00	 call	 ?CopyData@CAffectFlagContainer@@QAEXIIPBX@Z ; CAffectFlagContainer::CopyData

; 262  : 	kNetUpdateActorData.m_kAffectFlags.CopyData(32, sizeof(chrUpdatePacket.dwAffectFlag[1]), &chrUpdatePacket.dwAffectFlag[1]);

  00085	8d 45 e8	 lea	 eax, DWORD PTR _chrUpdatePacket$[ebp+24]
  00088	50		 push	 eax
  00089	51		 push	 ecx
  0008a	6a 20		 push	 32			; 00000020H
  0008c	8d 4d c8	 lea	 ecx, DWORD PTR _kNetUpdateActorData$[ebp+56]
  0008f	e8 00 00 00 00	 call	 ?CopyData@CAffectFlagContainer@@QAEXIIPBX@Z ; CAffectFlagContainer::CopyData

; 263  : 	kNetUpdateActorData.m_sAlignment=chrUpdatePacket.sAlignment;

  00094	66 8b 45 f0	 mov	 ax, WORD PTR _chrUpdatePacket$[ebp+32]

; 264  : #ifdef NEW_PET_SYSTEM
; 265  : 	kNetUpdateActorData.m_dwLevel=chrUpdatePacket.dwLevel;
; 266  : #endif
; 267  : 	kNetUpdateActorData.m_byPKMode=chrUpdatePacket.bPKMode;
; 268  : 	kNetUpdateActorData.m_dwStateFlags=chrUpdatePacket.bStateFlag;
; 269  : 	kNetUpdateActorData.m_dwMountVnum=chrUpdatePacket.dwMountVnum;
; 270  : 	__RecvCharacterUpdatePacket(&kNetUpdateActorData);

  00098	8b ce		 mov	 ecx, esi
  0009a	66 89 45 b4	 mov	 WORD PTR _kNetUpdateActorData$[ebp+36], ax
  0009e	8b 45 f2	 mov	 eax, DWORD PTR _chrUpdatePacket$[ebp+34]
  000a1	89 45 b8	 mov	 DWORD PTR _kNetUpdateActorData$[ebp+40], eax
  000a4	8a 45 f6	 mov	 al, BYTE PTR _chrUpdatePacket$[ebp+38]
  000a7	88 45 bc	 mov	 BYTE PTR _kNetUpdateActorData$[ebp+44], al
  000aa	0f b6 45 e3	 movzx	 eax, BYTE PTR _chrUpdatePacket$[ebp+19]
  000ae	89 45 c4	 mov	 DWORD PTR _kNetUpdateActorData$[ebp+52], eax
  000b1	8b 45 f7	 mov	 eax, DWORD PTR _chrUpdatePacket$[ebp+39]
  000b4	89 45 c0	 mov	 DWORD PTR _kNetUpdateActorData$[ebp+48], eax
  000b7	8d 45 90	 lea	 eax, DWORD PTR _kNetUpdateActorData$[ebp]
  000ba	50		 push	 eax
  000bb	e8 00 00 00 00	 call	 ?__RecvCharacterUpdatePacket@CPythonNetworkStream@@IAEXPAUSNetworkUpdateActorData@@@Z ; CPythonNetworkStream::__RecvCharacterUpdatePacket

; 271  : 
; 272  : 	return true;
; 273  : }

  000c0	8b 4d fc	 mov	 ecx, DWORD PTR __$ArrayPad$[ebp]
  000c3	b0 01		 mov	 al, 1
  000c5	33 cd		 xor	 ecx, ebp
  000c7	5e		 pop	 esi
  000c8	e8 00 00 00 00	 call	 @__security_check_cookie@4
  000cd	8b e5		 mov	 esp, ebp
  000cf	5d		 pop	 ebp
  000d0	c3		 ret	 0
?RecvCharacterUpdatePacket@CPythonNetworkStream@@IAE_NXZ ENDP ; CPythonNetworkStream::RecvCharacterUpdatePacket
_TEXT	ENDS
; Function compile flags: /Ogtp
; File E:\Metin2_server\SolWayneSF v6\ClientVS22\source\UserInterface\PythonNetworkStreamPhaseGameActor.cpp
; File C:\Program Files\Microsoft Visual Studio\2022\Community\VC\Tools\MSVC\14.34.31933\include\xstring
; File E:\Metin2_server\SolWayneSF v6\ClientVS22\source\UserInterface\PythonNetworkStreamPhaseGameActor.cpp
; File C:\Program Files\Microsoft Visual Studio\2022\Community\VC\Tools\MSVC\14.34.31933\include\xstring
; File E:\Metin2_server\SolWayneSF v6\ClientVS22\source\UserInterface\PythonNetworkStreamPhaseGameActor.cpp
; File C:\Program Files\Microsoft Visual Studio\2022\Community\VC\Tools\MSVC\14.34.31933\include\xstring
; File E:\Metin2_server\SolWayneSF v6\ClientVS22\source\UserInterface\PythonNetworkStreamPhaseGameActor.cpp
;	COMDAT ?RecvCharacterAppendPacketNew@CPythonNetworkStream@@IAE_NXZ
_TEXT	SEGMENT
_kNetActorData$ = -248					; size = 140
_chrAddPacket$ = -104					; size = 84
__$ArrayPad$ = -16					; size = 4
__$EHRec$ = -12						; size = 12
?RecvCharacterAppendPacketNew@CPythonNetworkStream@@IAE_NXZ PROC ; CPythonNetworkStream::RecvCharacterAppendPacketNew, COMDAT
; _this$ = ecx

; 199  : {

  00000	55		 push	 ebp
  00001	8b ec		 mov	 ebp, esp
  00003	6a ff		 push	 -1
  00005	68 00 00 00 00	 push	 __ehhandler$?RecvCharacterAppendPacketNew@CPythonNetworkStream@@IAE_NXZ
  0000a	64 a1 00 00 00
	00		 mov	 eax, DWORD PTR fs:0
  00010	50		 push	 eax
  00011	81 ec ec 00 00
	00		 sub	 esp, 236		; 000000ecH
  00017	a1 00 00 00 00	 mov	 eax, DWORD PTR ___security_cookie
  0001c	33 c5		 xor	 eax, ebp
  0001e	89 45 f0	 mov	 DWORD PTR __$ArrayPad$[ebp], eax
  00021	56		 push	 esi
  00022	50		 push	 eax
  00023	8d 45 f4	 lea	 eax, DWORD PTR __$EHRec$[ebp]
  00026	64 a3 00 00 00
	00		 mov	 DWORD PTR fs:0, eax
  0002c	8b f1		 mov	 esi, ecx

; 200  : 	TraceError("TPacketGCCharacterAdd2는 쓰지 않는 패킷입니다.");

  0002e	68 00 00 00 00	 push	 OFFSET ??_C@_0CP@OFGIOGEL@TPacketGCCharacterAdd2?$LE?B?5?$LO?$LC?A?v?5?$LO@
  00033	e8 00 00 00 00	 call	 ?TraceError@@YAXPBDZZ	; TraceError
  00038	83 c4 04	 add	 esp, 4

; 201  : 	TPacketGCCharacterAdd2 chrAddPacket;
; 202  : 	if (!Recv(sizeof(chrAddPacket), &chrAddPacket))

  0003b	8d 45 98	 lea	 eax, DWORD PTR _chrAddPacket$[ebp]
  0003e	8b ce		 mov	 ecx, esi
  00040	50		 push	 eax
  00041	6a 54		 push	 84			; 00000054H
  00043	e8 00 00 00 00	 call	 ?Recv@CNetworkStream@@QAE_NHPAX@Z ; CNetworkStream::Recv
  00048	84 c0		 test	 al, al
  0004a	0f 84 44 01 00
	00		 je	 $LN1@RecvCharac
$LN2@RecvCharac:

; 203  : 		return false;
; 204  : 	if(IsInvisibleRace(chrAddPacket.wRaceNum))

  00050	8b 4d c7	 mov	 ecx, DWORD PTR _chrAddPacket$[ebp+47]
  00053	e8 00 00 00 00	 call	 ?IsInvisibleRace@@YA_NG@Z ; IsInvisibleRace
  00058	84 c0		 test	 al, al
  0005a	0f 85 32 01 00
	00		 jne	 $LN14@RecvCharac

; 205  : 		return true;
; 206  : 
; 207  : 	__GlobalPositionToLocalPosition(chrAddPacket.x, chrAddPacket.y);

  00060	8d 45 be	 lea	 eax, DWORD PTR _chrAddPacket$[ebp+38]
  00063	50		 push	 eax
  00064	8d 45 ba	 lea	 eax, DWORD PTR _chrAddPacket$[ebp+34]
  00067	50		 push	 eax
  00068	e8 00 00 00 00	 call	 ?__GlobalPositionToLocalPosition@CPythonNetworkStream@@IAEXAAJ0@Z ; CPythonNetworkStream::__GlobalPositionToLocalPosition

; 208  : 
; 209  : 	SNetworkActorData kNetActorData;

  0006d	8d 8d 08 ff ff
	ff		 lea	 ecx, DWORD PTR _kNetActorData$[ebp]
  00073	e8 00 00 00 00	 call	 ??0SNetworkActorData@@QAE@XZ ; SNetworkActorData::SNetworkActorData
  00078	c7 45 fc 00 00
	00 00		 mov	 DWORD PTR __$EHRec$[ebp+8], 0

; 210  : 	kNetActorData.m_dwLevel = 0;
; 211  : 	kNetActorData.m_bType=chrAddPacket.bType;

  0007f	8a 45 c6	 mov	 al, BYTE PTR _chrAddPacket$[ebp+46]
  00082	88 85 28 ff ff
	ff		 mov	 BYTE PTR _kNetActorData$[ebp+32], al

; 212  : 	kNetActorData.m_dwGuildID=chrAddPacket.dwGuild;

  00088	8b 45 e1	 mov	 eax, DWORD PTR _chrAddPacket$[ebp+73]
  0008b	89 45 8c	 mov	 DWORD PTR _kNetActorData$[ebp+132], eax

; 213  : 	kNetActorData.m_dwEmpireID=chrAddPacket.bEmpire;	

  0008e	0f b6 45 e0	 movzx	 eax, BYTE PTR _chrAddPacket$[ebp+72]
  00092	89 85 34 ff ff
	ff		 mov	 DWORD PTR _kNetActorData$[ebp+44], eax

; 214  : 	kNetActorData.m_dwMovSpd=chrAddPacket.bMovingSpeed;

  00098	0f b6 45 d5	 movzx	 eax, BYTE PTR _chrAddPacket$[ebp+61]
  0009c	89 85 3c ff ff
	ff		 mov	 DWORD PTR _kNetActorData$[ebp+52], eax

; 215  : 	kNetActorData.m_dwAtkSpd=chrAddPacket.bAttackSpeed;

  000a2	0f b6 45 d6	 movzx	 eax, BYTE PTR _chrAddPacket$[ebp+62]
  000a6	89 85 40 ff ff
	ff		 mov	 DWORD PTR _kNetActorData$[ebp+56], eax

; 216  : 	kNetActorData.m_dwRace=chrAddPacket.wRaceNum;

  000ac	0f b7 45 c7	 movzx	 eax, WORD PTR _chrAddPacket$[ebp+47]
  000b0	89 85 38 ff ff
	ff		 mov	 DWORD PTR _kNetActorData$[ebp+48], eax

; 217  : 	kNetActorData.m_dwArmor=chrAddPacket.awPart[CHR_EQUIPPART_ARMOR];

  000b6	0f b7 45 c9	 movzx	 eax, WORD PTR _chrAddPacket$[ebp+49]
  000ba	89 85 6c ff ff
	ff		 mov	 DWORD PTR _kNetActorData$[ebp+100], eax

; 218  : 	kNetActorData.m_dwWeapon=chrAddPacket.awPart[CHR_EQUIPPART_WEAPON];

  000c0	0f b7 45 cb	 movzx	 eax, WORD PTR _chrAddPacket$[ebp+51]

; 219  : 	kNetActorData.m_dwHair=chrAddPacket.awPart[CHR_EQUIPPART_HAIR];
; 220  : 	#ifdef ENABLE_SASH_SYSTEM
; 221  : 	kNetActorData.m_dwSash = chrAddPacket.awPart[CHR_EQUIPPART_SASH];
; 222  : 	#endif
; 223  : #ifdef ENABLE_NEW_ARROW_SYSTEM
; 224  : 	kNetActorData.m_dwArrowType=chrAddPacket.awPart[CHR_PART_ARROW_TYPE];
; 225  : #endif
; 226  : 	kNetActorData.m_dwStateFlags=chrAddPacket.bStateFlag;
; 227  : 	kNetActorData.m_dwVID=chrAddPacket.dwVID;
; 228  : 	kNetActorData.m_dwMountVnum=chrAddPacket.dwMountVnum;
; 229  : 	kNetActorData.m_fRot=chrAddPacket.angle;

  000c4	f3 0f 10 45 b6	 movss	 xmm0, DWORD PTR _chrAddPacket$[ebp+30]
  000c9	89 85 70 ff ff
	ff		 mov	 DWORD PTR _kNetActorData$[ebp+104], eax
  000cf	0f b7 45 cf	 movzx	 eax, WORD PTR _chrAddPacket$[ebp+55]
  000d3	89 85 74 ff ff
	ff		 mov	 DWORD PTR _kNetActorData$[ebp+108], eax
  000d9	0f b7 45 d1	 movzx	 eax, WORD PTR _chrAddPacket$[ebp+57]
  000dd	89 85 78 ff ff
	ff		 mov	 DWORD PTR _kNetActorData$[ebp+112], eax
  000e3	0f b7 45 d3	 movzx	 eax, WORD PTR _chrAddPacket$[ebp+59]
  000e7	89 85 7c ff ff
	ff		 mov	 DWORD PTR _kNetActorData$[ebp+116], eax
  000ed	0f b6 45 d7	 movzx	 eax, BYTE PTR _chrAddPacket$[ebp+63]
  000f1	89 85 30 ff ff
	ff		 mov	 DWORD PTR _kNetActorData$[ebp+40], eax
  000f7	8b 45 99	 mov	 eax, DWORD PTR _chrAddPacket$[ebp+1]
  000fa	89 85 2c ff ff
	ff		 mov	 DWORD PTR _kNetActorData$[ebp+36], eax
  00100	8b 45 e8	 mov	 eax, DWORD PTR _chrAddPacket$[ebp+80]
  00103	89 45 88	 mov	 DWORD PTR _kNetActorData$[ebp+128], eax

; 230  : 	kNetActorData.m_kAffectFlags.CopyData(0, sizeof(chrAddPacket.dwAffectFlag[0]), &chrAddPacket.dwAffectFlag[0]);

  00106	8d 45 d8	 lea	 eax, DWORD PTR _chrAddPacket$[ebp+64]
  00109	50		 push	 eax
  0010a	51		 push	 ecx
  0010b	6a 00		 push	 0
  0010d	8d 8d 20 ff ff
	ff		 lea	 ecx, DWORD PTR _kNetActorData$[ebp+24]
  00113	c7 45 90 00 00
	00 00		 mov	 DWORD PTR _kNetActorData$[ebp+136], 0
  0011a	f3 0f 11 85 44
	ff ff ff	 movss	 DWORD PTR _kNetActorData$[ebp+60], xmm0
  00122	e8 00 00 00 00	 call	 ?CopyData@CAffectFlagContainer@@QAEXIIPBX@Z ; CAffectFlagContainer::CopyData

; 231  : 	kNetActorData.m_kAffectFlags.CopyData(32, sizeof(chrAddPacket.dwAffectFlag[1]), &chrAddPacket.dwAffectFlag[1]);

  00127	8d 45 dc	 lea	 eax, DWORD PTR _chrAddPacket$[ebp+68]
  0012a	50		 push	 eax
  0012b	51		 push	 ecx
  0012c	6a 20		 push	 32			; 00000020H
  0012e	8d 8d 20 ff ff
	ff		 lea	 ecx, DWORD PTR _kNetActorData$[ebp+24]
  00134	e8 00 00 00 00	 call	 ?CopyData@CAffectFlagContainer@@QAEXIIPBX@Z ; CAffectFlagContainer::CopyData

; 232  : 	kNetActorData.SetPosition(chrAddPacket.x, chrAddPacket.y);

  00139	ff 75 be	 push	 DWORD PTR _chrAddPacket$[ebp+38]
  0013c	8d 8d 08 ff ff
	ff		 lea	 ecx, DWORD PTR _kNetActorData$[ebp]
  00142	ff 75 ba	 push	 DWORD PTR _chrAddPacket$[ebp+34]
  00145	e8 00 00 00 00	 call	 ?SetPosition@SNetworkActorData@@QAEXJJ@Z ; SNetworkActorData::SetPosition

; 233  : 	kNetActorData.m_sAlignment=chrAddPacket.sAlignment;

  0014a	66 8b 45 e5	 mov	 ax, WORD PTR _chrAddPacket$[ebp+77]
; File C:\Program Files\Microsoft Visual Studio\2022\Community\VC\Tools\MSVC\14.34.31933\include\xstring

; 415  :             return __builtin_strlen(_First);

  0014e	8d 55 9d	 lea	 edx, DWORD PTR _chrAddPacket$[ebp+5]
; File E:\Metin2_server\SolWayneSF v6\ClientVS22\source\UserInterface\PythonNetworkStreamPhaseGameActor.cpp

; 233  : 	kNetActorData.m_sAlignment=chrAddPacket.sAlignment;

  00151	66 89 45 84	 mov	 WORD PTR _kNetActorData$[ebp+124], ax
; File C:\Program Files\Microsoft Visual Studio\2022\Community\VC\Tools\MSVC\14.34.31933\include\xstring

; 415  :             return __builtin_strlen(_First);

  00155	8d 4a 01	 lea	 ecx, DWORD PTR [edx+1]
; File E:\Metin2_server\SolWayneSF v6\ClientVS22\source\UserInterface\PythonNetworkStreamPhaseGameActor.cpp

; 234  : 	kNetActorData.m_byPKMode=chrAddPacket.bPKMode;

  00158	8a 45 e7	 mov	 al, BYTE PTR _chrAddPacket$[ebp+79]
  0015b	88 45 86	 mov	 BYTE PTR _kNetActorData$[ebp+126], al
  0015e	66 90		 npad	 2
$LL12@RecvCharac:
; File C:\Program Files\Microsoft Visual Studio\2022\Community\VC\Tools\MSVC\14.34.31933\include\xstring

; 415  :             return __builtin_strlen(_First);

  00160	8a 02		 mov	 al, BYTE PTR [edx]
  00162	42		 inc	 edx
  00163	84 c0		 test	 al, al
  00165	75 f9		 jne	 SHORT $LL12@RecvCharac
  00167	2b d1		 sub	 edx, ecx

; 3546 :         return assign(_Ptr, _Convert_size<size_type>(_Traits::length(_Ptr)));

  00169	8d 45 9d	 lea	 eax, DWORD PTR _chrAddPacket$[ebp+5]
  0016c	52		 push	 edx
  0016d	50		 push	 eax
  0016e	8d 8d 08 ff ff
	ff		 lea	 ecx, DWORD PTR _kNetActorData$[ebp]
  00174	e8 00 00 00 00	 call	 ?assign@?$basic_string@DU?$char_traits@D@std@@V?$allocator@D@2@@std@@QAEAAV12@QBDI@Z ; std::basic_string<char,std::char_traits<char>,std::allocator<char> >::assign
; File E:\Metin2_server\SolWayneSF v6\ClientVS22\source\UserInterface\PythonNetworkStreamPhaseGameActor.cpp

; 236  : 	__RecvCharacterAppendPacket(&kNetActorData);

  00179	8d 85 08 ff ff
	ff		 lea	 eax, DWORD PTR _kNetActorData$[ebp]
  0017f	8b ce		 mov	 ecx, esi
  00181	50		 push	 eax
  00182	e8 00 00 00 00	 call	 ?__RecvCharacterAppendPacket@CPythonNetworkStream@@IAEXPAUSNetworkActorData@@@Z ; CPythonNetworkStream::__RecvCharacterAppendPacket

; 237  : 
; 238  : 	return true;

  00187	8d 8d 08 ff ff
	ff		 lea	 ecx, DWORD PTR _kNetActorData$[ebp]
  0018d	e8 00 00 00 00	 call	 ??1SNetworkActorData@@QAE@XZ
$LN14@RecvCharac:

; 239  : }

  00192	b0 01		 mov	 al, 1
$LN1@RecvCharac:
  00194	8b 4d f4	 mov	 ecx, DWORD PTR __$EHRec$[ebp]
  00197	64 89 0d 00 00
	00 00		 mov	 DWORD PTR fs:0, ecx
  0019e	59		 pop	 ecx
  0019f	5e		 pop	 esi
  001a0	8b 4d f0	 mov	 ecx, DWORD PTR __$ArrayPad$[ebp]
  001a3	33 cd		 xor	 ecx, ebp
  001a5	e8 00 00 00 00	 call	 @__security_check_cookie@4
  001aa	8b e5		 mov	 esp, ebp
  001ac	5d		 pop	 ebp
  001ad	c3		 ret	 0
_TEXT	ENDS
;	COMDAT text$x
text$x	SEGMENT
__unwindfunclet$?RecvCharacterAppendPacketNew@CPythonNetworkStream@@IAE_NXZ$0:
  00000	8d 8d 08 ff ff
	ff		 lea	 ecx, DWORD PTR _kNetActorData$[ebp]
  00006	e9 00 00 00 00	 jmp	 ??1SNetworkActorData@@QAE@XZ
  0000b	cc		 int	 3
  0000c	cc		 int	 3
  0000d	cc		 int	 3
  0000e	cc		 int	 3
  0000f	cc		 int	 3
__ehhandler$?RecvCharacterAppendPacketNew@CPythonNetworkStream@@IAE_NXZ:
  00010	90		 npad	 1
  00011	90		 npad	 1
  00012	8b 54 24 08	 mov	 edx, DWORD PTR [esp+8]
  00016	8d 42 0c	 lea	 eax, DWORD PTR [edx+12]
  00019	8b 8a 0c ff ff
	ff		 mov	 ecx, DWORD PTR [edx-244]
  0001f	33 c8		 xor	 ecx, eax
  00021	e8 00 00 00 00	 call	 @__security_check_cookie@4
  00026	8b 4a fc	 mov	 ecx, DWORD PTR [edx-4]
  00029	33 c8		 xor	 ecx, eax
  0002b	e8 00 00 00 00	 call	 @__security_check_cookie@4
  00030	b8 00 00 00 00	 mov	 eax, OFFSET __ehfuncinfo$?RecvCharacterAppendPacketNew@CPythonNetworkStream@@IAE_NXZ
  00035	e9 00 00 00 00	 jmp	 ___CxxFrameHandler3
text$x	ENDS
?RecvCharacterAppendPacketNew@CPythonNetworkStream@@IAE_NXZ ENDP ; CPythonNetworkStream::RecvCharacterAppendPacketNew
; Function compile flags: /Ogtp
; File E:\Metin2_server\SolWayneSF v6\ClientVS22\source\UserInterface\PythonNetworkStreamPhaseGameActor.cpp
; File C:\Program Files\Microsoft Visual Studio\2022\Community\VC\Tools\MSVC\14.34.31933\include\xstring
; File E:\Metin2_server\SolWayneSF v6\ClientVS22\source\UserInterface\PythonNetworkStreamPhaseGameActor.cpp
;	COMDAT ?RecvCharacterAdditionalInfo@CPythonNetworkStream@@IAE_NXZ
_TEXT	SEGMENT
_kNetActorData$ = -224					; size = 140
_chrInfoPacket$ = -76					; size = 58
__$ArrayPad$ = -16					; size = 4
__$EHRec$ = -12						; size = 12
?RecvCharacterAdditionalInfo@CPythonNetworkStream@@IAE_NXZ PROC ; CPythonNetworkStream::RecvCharacterAdditionalInfo, COMDAT
; _this$ = ecx

; 159  : {

  00000	55		 push	 ebp
  00001	8b ec		 mov	 ebp, esp
  00003	6a ff		 push	 -1
  00005	68 00 00 00 00	 push	 __ehhandler$?RecvCharacterAdditionalInfo@CPythonNetworkStream@@IAE_NXZ
  0000a	64 a1 00 00 00
	00		 mov	 eax, DWORD PTR fs:0
  00010	50		 push	 eax
  00011	81 ec d4 00 00
	00		 sub	 esp, 212		; 000000d4H
  00017	a1 00 00 00 00	 mov	 eax, DWORD PTR ___security_cookie
  0001c	33 c5		 xor	 eax, ebp
  0001e	89 45 f0	 mov	 DWORD PTR __$ArrayPad$[ebp], eax
  00021	56		 push	 esi
  00022	50		 push	 eax
  00023	8d 45 f4	 lea	 eax, DWORD PTR __$EHRec$[ebp]
  00026	64 a3 00 00 00
	00		 mov	 DWORD PTR fs:0, eax
  0002c	8b f1		 mov	 esi, ecx

; 160  : 	TPacketGCCharacterAdditionalInfo chrInfoPacket;
; 161  : 	if (!Recv(sizeof(chrInfoPacket), &chrInfoPacket))

  0002e	8d 45 b4	 lea	 eax, DWORD PTR _chrInfoPacket$[ebp]
  00031	50		 push	 eax
  00032	6a 3a		 push	 58			; 0000003aH
  00034	e8 00 00 00 00	 call	 ?Recv@CNetworkStream@@QAE_NHPAX@Z ; CNetworkStream::Recv
  00039	84 c0		 test	 al, al
  0003b	0f 84 cd 00 00
	00		 je	 $LN1@RecvCharac
$LN2@RecvCharac:

; 162  : 		return false;
; 163  : 
; 164  : 	
; 165  : 	SNetworkActorData kNetActorData = s_kNetActorData;

  00041	51		 push	 ecx
  00042	8d 8d 20 ff ff
	ff		 lea	 ecx, DWORD PTR _kNetActorData$[ebp]
  00048	e8 00 00 00 00	 call	 ??0SNetworkActorData@@QAE@ABU0@@Z ; SNetworkActorData::SNetworkActorData
  0004d	c7 45 fc 00 00
	00 00		 mov	 DWORD PTR __$EHRec$[ebp+8], 0

; 166  : 	if (IsInvisibleRace(kNetActorData.m_dwRace))

  00054	8b 8d 50 ff ff
	ff		 mov	 ecx, DWORD PTR _kNetActorData$[ebp+48]
  0005a	e8 00 00 00 00	 call	 ?IsInvisibleRace@@YA_NG@Z ; IsInvisibleRace
  0005f	84 c0		 test	 al, al
  00061	0f 85 9a 00 00
	00		 jne	 $LN5@RecvCharac

; 167  : 		return true;
; 168  : 
; 169  : 	if(kNetActorData.m_dwVID == chrInfoPacket.dwVID)

  00067	8b 45 b5	 mov	 eax, DWORD PTR _chrInfoPacket$[ebp+1]
  0006a	39 85 44 ff ff
	ff		 cmp	 DWORD PTR _kNetActorData$[ebp+36], eax
  00070	75 7c		 jne	 SHORT $LN4@RecvCharac
; File C:\Program Files\Microsoft Visual Studio\2022\Community\VC\Tools\MSVC\14.34.31933\include\xstring

; 415  :             return __builtin_strlen(_First);

  00072	8d 45 b9	 lea	 eax, DWORD PTR _chrInfoPacket$[ebp+5]
  00075	8d 50 01	 lea	 edx, DWORD PTR [eax+1]
$LL15@RecvCharac:
  00078	8a 08		 mov	 cl, BYTE PTR [eax]
  0007a	40		 inc	 eax
  0007b	84 c9		 test	 cl, cl
  0007d	75 f9		 jne	 SHORT $LL15@RecvCharac
  0007f	2b c2		 sub	 eax, edx

; 3546 :         return assign(_Ptr, _Convert_size<size_type>(_Traits::length(_Ptr)));

  00081	8d 8d 20 ff ff
	ff		 lea	 ecx, DWORD PTR _kNetActorData$[ebp]
  00087	50		 push	 eax
  00088	8d 45 b9	 lea	 eax, DWORD PTR _chrInfoPacket$[ebp+5]
  0008b	50		 push	 eax
  0008c	e8 00 00 00 00	 call	 ?assign@?$basic_string@DU?$char_traits@D@std@@V?$allocator@D@2@@std@@QAEAAV12@QBDI@Z ; std::basic_string<char,std::char_traits<char>,std::allocator<char> >::assign
; File E:\Metin2_server\SolWayneSF v6\ClientVS22\source\UserInterface\PythonNetworkStreamPhaseGameActor.cpp

; 173  : 		kNetActorData.m_dwLevel = chrInfoPacket.dwLevel;

  00091	8b 45 e3	 mov	 eax, DWORD PTR _chrInfoPacket$[ebp+47]

; 174  : 		kNetActorData.m_sAlignment=chrInfoPacket.sAlignment;	
; 175  : 		kNetActorData.m_byPKMode=chrInfoPacket.bPKMode;	
; 176  : 		kNetActorData.m_dwGuildID=chrInfoPacket.dwGuildID;
; 177  : 		kNetActorData.m_dwEmpireID=chrInfoPacket.bEmpire;
; 178  : 		kNetActorData.m_dwArmor=chrInfoPacket.awPart[CHR_EQUIPPART_ARMOR];
; 179  : 		kNetActorData.m_dwWeapon=chrInfoPacket.awPart[CHR_EQUIPPART_WEAPON];
; 180  : 		kNetActorData.m_dwHair=chrInfoPacket.awPart[CHR_EQUIPPART_HAIR];	
; 181  : 		#ifdef ENABLE_SASH_SYSTEM
; 182  : 		kNetActorData.m_dwSash = chrInfoPacket.awPart[CHR_EQUIPPART_SASH];
; 183  : 		#endif
; 184  : #ifdef ENABLE_NEW_ARROW_SYSTEM
; 185  : 		kNetActorData.m_dwArrowType=chrInfoPacket.awPart[CHR_PART_ARROW_TYPE];
; 186  : #endif
; 187  : 		kNetActorData.m_dwMountVnum=chrInfoPacket.dwMountVnum;
; 188  : 
; 189  : 		__RecvCharacterAppendPacket(&kNetActorData);

  00094	8b ce		 mov	 ecx, esi
  00096	89 45 a8	 mov	 DWORD PTR _kNetActorData$[ebp+136], eax
  00099	66 8b 45 e7	 mov	 ax, WORD PTR _chrInfoPacket$[ebp+51]
  0009d	66 89 45 9c	 mov	 WORD PTR _kNetActorData$[ebp+124], ax
  000a1	8a 45 e9	 mov	 al, BYTE PTR _chrInfoPacket$[ebp+53]
  000a4	88 45 9e	 mov	 BYTE PTR _kNetActorData$[ebp+126], al
  000a7	8b 45 df	 mov	 eax, DWORD PTR _chrInfoPacket$[ebp+43]
  000aa	89 45 a4	 mov	 DWORD PTR _kNetActorData$[ebp+132], eax
  000ad	0f b6 45 de	 movzx	 eax, BYTE PTR _chrInfoPacket$[ebp+42]
  000b1	89 85 4c ff ff
	ff		 mov	 DWORD PTR _kNetActorData$[ebp+44], eax
  000b7	0f b7 45 d2	 movzx	 eax, WORD PTR _chrInfoPacket$[ebp+30]
  000bb	89 45 84	 mov	 DWORD PTR _kNetActorData$[ebp+100], eax
  000be	0f b7 45 d4	 movzx	 eax, WORD PTR _chrInfoPacket$[ebp+32]
  000c2	89 45 88	 mov	 DWORD PTR _kNetActorData$[ebp+104], eax
  000c5	0f b7 45 d8	 movzx	 eax, WORD PTR _chrInfoPacket$[ebp+36]
  000c9	89 45 8c	 mov	 DWORD PTR _kNetActorData$[ebp+108], eax
  000cc	0f b7 45 da	 movzx	 eax, WORD PTR _chrInfoPacket$[ebp+38]
  000d0	89 45 90	 mov	 DWORD PTR _kNetActorData$[ebp+112], eax
  000d3	0f b7 45 dc	 movzx	 eax, WORD PTR _chrInfoPacket$[ebp+40]
  000d7	89 45 94	 mov	 DWORD PTR _kNetActorData$[ebp+116], eax
  000da	8b 45 ea	 mov	 eax, DWORD PTR _chrInfoPacket$[ebp+54]
  000dd	89 45 a0	 mov	 DWORD PTR _kNetActorData$[ebp+128], eax
  000e0	8d 85 20 ff ff
	ff		 lea	 eax, DWORD PTR _kNetActorData$[ebp]
  000e6	50		 push	 eax
  000e7	e8 00 00 00 00	 call	 ?__RecvCharacterAppendPacket@CPythonNetworkStream@@IAEXPAUSNetworkActorData@@@Z ; CPythonNetworkStream::__RecvCharacterAppendPacket

; 190  : 	}

  000ec	eb 13		 jmp	 SHORT $LN5@RecvCharac
$LN4@RecvCharac:

; 191  : 	else
; 192  : 	{
; 193  : 		TraceError("TPacketGCCharacterAdditionalInfo name=%s vid=%d race=%d Error",chrInfoPacket.name,chrInfoPacket.dwVID,kNetActorData.m_dwRace);

  000ee	51		 push	 ecx
  000ef	50		 push	 eax
  000f0	8d 45 b9	 lea	 eax, DWORD PTR _chrInfoPacket$[ebp+5]
  000f3	50		 push	 eax
  000f4	68 00 00 00 00	 push	 OFFSET ??_C@_0DO@OHBFGBBC@TPacketGCCharacterAdditionalInf@
  000f9	e8 00 00 00 00	 call	 ?TraceError@@YAXPBDZZ	; TraceError
  000fe	83 c4 10	 add	 esp, 16			; 00000010H
$LN5@RecvCharac:

; 194  : 	}
; 195  : 	return true;

  00101	8d 8d 20 ff ff
	ff		 lea	 ecx, DWORD PTR _kNetActorData$[ebp]
  00107	e8 00 00 00 00	 call	 ??1SNetworkActorData@@QAE@XZ
  0010c	b0 01		 mov	 al, 1
$LN1@RecvCharac:

; 196  : }

  0010e	8b 4d f4	 mov	 ecx, DWORD PTR __$EHRec$[ebp]
  00111	64 89 0d 00 00
	00 00		 mov	 DWORD PTR fs:0, ecx
  00118	59		 pop	 ecx
  00119	5e		 pop	 esi
  0011a	8b 4d f0	 mov	 ecx, DWORD PTR __$ArrayPad$[ebp]
  0011d	33 cd		 xor	 ecx, ebp
  0011f	e8 00 00 00 00	 call	 @__security_check_cookie@4
  00124	8b e5		 mov	 esp, ebp
  00126	5d		 pop	 ebp
  00127	c3		 ret	 0
_TEXT	ENDS
;	COMDAT text$x
text$x	SEGMENT
__unwindfunclet$?RecvCharacterAdditionalInfo@CPythonNetworkStream@@IAE_NXZ$0:
  00000	8d 8d 20 ff ff
	ff		 lea	 ecx, DWORD PTR _kNetActorData$[ebp]
  00006	e9 00 00 00 00	 jmp	 ??1SNetworkActorData@@QAE@XZ
  0000b	cc		 int	 3
  0000c	cc		 int	 3
  0000d	cc		 int	 3
  0000e	cc		 int	 3
  0000f	cc		 int	 3
__ehhandler$?RecvCharacterAdditionalInfo@CPythonNetworkStream@@IAE_NXZ:
  00010	90		 npad	 1
  00011	90		 npad	 1
  00012	8b 54 24 08	 mov	 edx, DWORD PTR [esp+8]
  00016	8d 42 0c	 lea	 eax, DWORD PTR [edx+12]
  00019	8b 8a 24 ff ff
	ff		 mov	 ecx, DWORD PTR [edx-220]
  0001f	33 c8		 xor	 ecx, eax
  00021	e8 00 00 00 00	 call	 @__security_check_cookie@4
  00026	8b 4a fc	 mov	 ecx, DWORD PTR [edx-4]
  00029	33 c8		 xor	 ecx, eax
  0002b	e8 00 00 00 00	 call	 @__security_check_cookie@4
  00030	b8 00 00 00 00	 mov	 eax, OFFSET __ehfuncinfo$?RecvCharacterAdditionalInfo@CPythonNetworkStream@@IAE_NXZ
  00035	e9 00 00 00 00	 jmp	 ___CxxFrameHandler3
text$x	ENDS
?RecvCharacterAdditionalInfo@CPythonNetworkStream@@IAE_NXZ ENDP ; CPythonNetworkStream::RecvCharacterAdditionalInfo
; Function compile flags: /Ogtp
; File E:\Metin2_server\SolWayneSF v6\ClientVS22\source\UserInterface\PythonNetworkStreamPhaseGameActor.cpp
; File C:\Program Files\Microsoft Visual Studio\2022\Community\VC\Tools\MSVC\14.34.31933\include\xstring
; File E:\Metin2_server\SolWayneSF v6\ClientVS22\source\UserInterface\PythonNetworkStreamPhaseGameActor.cpp
; File C:\Program Files\Microsoft Visual Studio\2022\Community\VC\Tools\MSVC\14.34.31933\include\xstring
; File E:\Metin2_server\SolWayneSF v6\ClientVS22\source\UserInterface\PythonNetworkStreamPhaseGameActor.cpp
; File C:\Program Files\Microsoft Visual Studio\2022\Community\VC\Tools\MSVC\14.34.31933\include\xstring
; File E:\Metin2_server\SolWayneSF v6\ClientVS22\source\UserInterface\PythonNetworkStreamPhaseGameActor.cpp
; File C:\Program Files\Microsoft Visual Studio\2022\Community\VC\Tools\MSVC\14.34.31933\include\xstring
; File E:\Metin2_server\SolWayneSF v6\ClientVS22\source\UserInterface\PythonNetworkStreamPhaseGameActor.cpp
; File C:\Program Files\Microsoft Visual Studio\2022\Community\VC\Tools\MSVC\14.34.31933\include\xstring
; File E:\Metin2_server\SolWayneSF v6\ClientVS22\source\UserInterface\PythonNetworkStreamPhaseGameActor.cpp
;	COMDAT ?RecvCharacterAppendPacket@CPythonNetworkStream@@IAE_NXZ
_TEXT	SEGMENT
_c_szName$2 = -204					; size = 4
_kNetActorData$ = -200					; size = 140
_chrAddPacket$ = -52					; size = 35
__$ArrayPad$ = -16					; size = 4
__$EHRec$ = -12						; size = 12
?RecvCharacterAppendPacket@CPythonNetworkStream@@IAE_NXZ PROC ; CPythonNetworkStream::RecvCharacterAppendPacket, COMDAT
; _this$ = ecx

; 96   : {

  00000	55		 push	 ebp
  00001	8b ec		 mov	 ebp, esp
  00003	6a ff		 push	 -1
  00005	68 00 00 00 00	 push	 __ehhandler$?RecvCharacterAppendPacket@CPythonNetworkStream@@IAE_NXZ
  0000a	64 a1 00 00 00
	00		 mov	 eax, DWORD PTR fs:0
  00010	50		 push	 eax
  00011	81 ec c4 00 00
	00		 sub	 esp, 196		; 000000c4H
  00017	a1 00 00 00 00	 mov	 eax, DWORD PTR ___security_cookie
  0001c	33 c5		 xor	 eax, ebp
  0001e	89 45 f0	 mov	 DWORD PTR __$ArrayPad$[ebp], eax
  00021	57		 push	 edi
  00022	50		 push	 eax
  00023	8d 45 f4	 lea	 eax, DWORD PTR __$EHRec$[ebp]
  00026	64 a3 00 00 00
	00		 mov	 DWORD PTR fs:0, eax
  0002c	8b f9		 mov	 edi, ecx

; 97   : 	TPacketGCCharacterAdd chrAddPacket;
; 98   : 	if (!Recv(sizeof(chrAddPacket), &chrAddPacket))

  0002e	8d 45 cc	 lea	 eax, DWORD PTR _chrAddPacket$[ebp]
  00031	50		 push	 eax
  00032	6a 23		 push	 35			; 00000023H
  00034	e8 00 00 00 00	 call	 ?Recv@CNetworkStream@@QAE_NHPAX@Z ; CNetworkStream::Recv
  00039	84 c0		 test	 al, al
  0003b	0f 84 68 01 00
	00		 je	 $LN1@RecvCharac
$LN2@RecvCharac:

; 99   : 		return false;
; 100  : 
; 101  : 	__GlobalPositionToLocalPosition(chrAddPacket.x, chrAddPacket.y);

  00041	8d 45 d9	 lea	 eax, DWORD PTR _chrAddPacket$[ebp+13]
  00044	50		 push	 eax
  00045	8d 45 d5	 lea	 eax, DWORD PTR _chrAddPacket$[ebp+9]
  00048	50		 push	 eax
  00049	e8 00 00 00 00	 call	 ?__GlobalPositionToLocalPosition@CPythonNetworkStream@@IAEXAAJ0@Z ; CPythonNetworkStream::__GlobalPositionToLocalPosition

; 102  : 
; 103  : 	SNetworkActorData kNetActorData;

  0004e	8d 8d 38 ff ff
	ff		 lea	 ecx, DWORD PTR _kNetActorData$[ebp]
  00054	e8 00 00 00 00	 call	 ??0SNetworkActorData@@QAE@XZ ; SNetworkActorData::SNetworkActorData
  00059	c7 45 fc 00 00
	00 00		 mov	 DWORD PTR __$EHRec$[ebp+8], 0
; File C:\Program Files\Microsoft Visual Studio\2022\Community\VC\Tools\MSVC\14.34.31933\include\xstring

; 3546 :         return assign(_Ptr, _Convert_size<size_type>(_Traits::length(_Ptr)));

  00060	8d 8d 38 ff ff
	ff		 lea	 ecx, DWORD PTR _kNetActorData$[ebp]
; File E:\Metin2_server\SolWayneSF v6\ClientVS22\source\UserInterface\PythonNetworkStreamPhaseGameActor.cpp

; 104  : 	kNetActorData.m_bType=chrAddPacket.bType;

  00066	8a 45 e1	 mov	 al, BYTE PTR _chrAddPacket$[ebp+21]

; 111  : 	kNetActorData.m_fRot=chrAddPacket.angle;

  00069	f3 0f 10 45 d1	 movss	 xmm0, DWORD PTR _chrAddPacket$[ebp+5]
  0006e	88 85 58 ff ff
	ff		 mov	 BYTE PTR _kNetActorData$[ebp+32], al
  00074	0f b6 45 e4	 movzx	 eax, BYTE PTR _chrAddPacket$[ebp+24]
  00078	89 85 6c ff ff
	ff		 mov	 DWORD PTR _kNetActorData$[ebp+52], eax
  0007e	0f b6 45 e5	 movzx	 eax, BYTE PTR _chrAddPacket$[ebp+25]
  00082	89 85 70 ff ff
	ff		 mov	 DWORD PTR _kNetActorData$[ebp+56], eax
  00088	0f b7 45 e2	 movzx	 eax, WORD PTR _chrAddPacket$[ebp+22]
  0008c	89 85 68 ff ff
	ff		 mov	 DWORD PTR _kNetActorData$[ebp+48], eax
  00092	0f b6 45 e6	 movzx	 eax, BYTE PTR _chrAddPacket$[ebp+26]
; File C:\Program Files\Microsoft Visual Studio\2022\Community\VC\Tools\MSVC\14.34.31933\include\xstring

; 3546 :         return assign(_Ptr, _Convert_size<size_type>(_Traits::length(_Ptr)));

  00096	6a 00		 push	 0
; File E:\Metin2_server\SolWayneSF v6\ClientVS22\source\UserInterface\PythonNetworkStreamPhaseGameActor.cpp

; 109  : 	kNetActorData.m_dwStateFlags=chrAddPacket.bStateFlag;

  00098	89 85 60 ff ff
	ff		 mov	 DWORD PTR _kNetActorData$[ebp+40], eax

; 110  : 	kNetActorData.m_dwVID=chrAddPacket.dwVID;

  0009e	8b 45 cd	 mov	 eax, DWORD PTR _chrAddPacket$[ebp+1]
; File C:\Program Files\Microsoft Visual Studio\2022\Community\VC\Tools\MSVC\14.34.31933\include\xstring

; 3546 :         return assign(_Ptr, _Convert_size<size_type>(_Traits::length(_Ptr)));

  000a1	68 00 00 00 00	 push	 OFFSET ??_C@_00CNPNBAHC@@
; File E:\Metin2_server\SolWayneSF v6\ClientVS22\source\UserInterface\PythonNetworkStreamPhaseGameActor.cpp

; 110  : 	kNetActorData.m_dwVID=chrAddPacket.dwVID;

  000a6	89 85 5c ff ff
	ff		 mov	 DWORD PTR _kNetActorData$[ebp+36], eax

; 111  : 	kNetActorData.m_fRot=chrAddPacket.angle;

  000ac	f3 0f 11 85 74
	ff ff ff	 movss	 DWORD PTR _kNetActorData$[ebp+60], xmm0
; File C:\Program Files\Microsoft Visual Studio\2022\Community\VC\Tools\MSVC\14.34.31933\include\xstring

; 3546 :         return assign(_Ptr, _Convert_size<size_type>(_Traits::length(_Ptr)));

  000b4	e8 00 00 00 00	 call	 ?assign@?$basic_string@DU?$char_traits@D@std@@V?$allocator@D@2@@std@@QAEAAV12@QBDI@Z ; std::basic_string<char,std::char_traits<char>,std::allocator<char> >::assign
  000b9	6a 00		 push	 0
  000bb	68 00 00 00 00	 push	 OFFSET ??_C@_00CNPNBAHC@@
  000c0	8d 8d 38 ff ff
	ff		 lea	 ecx, DWORD PTR _kNetActorData$[ebp]
  000c6	e8 00 00 00 00	 call	 ?assign@?$basic_string@DU?$char_traits@D@std@@V?$allocator@D@2@@std@@QAEAAV12@QBDI@Z ; std::basic_string<char,std::char_traits<char>,std::allocator<char> >::assign
; File E:\Metin2_server\SolWayneSF v6\ClientVS22\source\UserInterface\PythonNetworkStreamPhaseGameActor.cpp

; 116  : 	kNetActorData.m_kAffectFlags.CopyData(0, sizeof(chrAddPacket.dwAffectFlag[0]), &chrAddPacket.dwAffectFlag[0]);

  000cb	8d 45 e7	 lea	 eax, DWORD PTR _chrAddPacket$[ebp+27]
  000ce	50		 push	 eax
  000cf	51		 push	 ecx
  000d0	6a 00		 push	 0
  000d2	8d 8d 50 ff ff
	ff		 lea	 ecx, DWORD PTR _kNetActorData$[ebp+24]
  000d8	e8 00 00 00 00	 call	 ?CopyData@CAffectFlagContainer@@QAEXIIPBX@Z ; CAffectFlagContainer::CopyData

; 117  : 	kNetActorData.m_kAffectFlags.CopyData(32, sizeof(chrAddPacket.dwAffectFlag[1]), &chrAddPacket.dwAffectFlag[1]);

  000dd	8d 45 eb	 lea	 eax, DWORD PTR _chrAddPacket$[ebp+31]
  000e0	50		 push	 eax
  000e1	51		 push	 ecx
  000e2	6a 20		 push	 32			; 00000020H
  000e4	8d 8d 50 ff ff
	ff		 lea	 ecx, DWORD PTR _kNetActorData$[ebp+24]
  000ea	e8 00 00 00 00	 call	 ?CopyData@CAffectFlagContainer@@QAEXIIPBX@Z ; CAffectFlagContainer::CopyData

; 118  : 	
; 119  : 	kNetActorData.SetPosition(chrAddPacket.x, chrAddPacket.y);

  000ef	ff 75 d9	 push	 DWORD PTR _chrAddPacket$[ebp+13]
  000f2	8d 8d 38 ff ff
	ff		 lea	 ecx, DWORD PTR _kNetActorData$[ebp]
  000f8	ff 75 d5	 push	 DWORD PTR _chrAddPacket$[ebp+9]
  000fb	e8 00 00 00 00	 call	 ?SetPosition@SNetworkActorData@@QAEXJJ@Z ; SNetworkActorData::SetPosition

; 120  : 
; 121  : 	kNetActorData.m_sAlignment=0;/*chrAddPacket.sAlignment*/;	

  00100	33 c0		 xor	 eax, eax
  00102	66 89 45 b4	 mov	 WORD PTR _kNetActorData$[ebp+124], ax

; 122  : 	kNetActorData.m_byPKMode=0;/*chrAddPacket.bPKMode*/;	

  00106	88 45 b6	 mov	 BYTE PTR _kNetActorData$[ebp+126], al

; 123  : 	kNetActorData.m_dwGuildID=0;/*chrAddPacket.dwGuild*/;

  00109	89 45 bc	 mov	 DWORD PTR _kNetActorData$[ebp+132], eax

; 124  : 	kNetActorData.m_dwEmpireID=0;/*chrAddPacket.bEmpire*/;

  0010c	89 85 64 ff ff
	ff		 mov	 DWORD PTR _kNetActorData$[ebp+44], eax

; 125  : 	kNetActorData.m_dwArmor=0;/*chrAddPacket.awPart[CHR_EQUIPPART_ARMOR]*/;

  00112	89 45 9c	 mov	 DWORD PTR _kNetActorData$[ebp+100], eax

; 126  : 	kNetActorData.m_dwWeapon=0;/*chrAddPacket.awPart[CHR_EQUIPPART_WEAPON]*/;

  00115	89 45 a0	 mov	 DWORD PTR _kNetActorData$[ebp+104], eax

; 127  : 	kNetActorData.m_dwHair=0;/*chrAddPacket.awPart[CHR_EQUIPPART_HAIR]*/;	

  00118	89 45 a4	 mov	 DWORD PTR _kNetActorData$[ebp+108], eax

; 128  : 	#ifdef ENABLE_SASH_SYSTEM
; 129  : 	kNetActorData.m_dwSash = 0;

  0011b	89 45 a8	 mov	 DWORD PTR _kNetActorData$[ebp+112], eax

; 130  : 	#endif
; 131  : #ifdef ENABLE_NEW_ARROW_SYSTEM
; 132  : 	kNetActorData.m_dwArrowType=0;

  0011e	89 45 ac	 mov	 DWORD PTR _kNetActorData$[ebp+116], eax

; 133  : #endif
; 134  : 	kNetActorData.m_dwMountVnum=0;/*chrAddPacket.dwMountVnum*/;	

  00121	89 45 b8	 mov	 DWORD PTR _kNetActorData$[ebp+128], eax

; 135  : 
; 136  : 	kNetActorData.m_dwLevel = 0; // 몬스터 레벨 표시 안함

  00124	89 45 c0	 mov	 DWORD PTR _kNetActorData$[ebp+136], eax

; 137  : 
; 138  : 	if(kNetActorData.m_bType != CActorInstance::TYPE_PC && 

  00127	8a 85 58 ff ff
	ff		 mov	 al, BYTE PTR _kNetActorData$[ebp+32]
  0012d	3c 06		 cmp	 al, 6
  0012f	74 5a		 je	 SHORT $LN3@RecvCharac
  00131	3c 01		 cmp	 al, 1
  00133	74 56		 je	 SHORT $LN3@RecvCharac

; 139  : 		kNetActorData.m_bType != CActorInstance::TYPE_NPC)
; 140  : 	{
; 141  : 		const char * c_szName;
; 142  : 		CPythonNonPlayer& rkNonPlayer=CPythonNonPlayer::Instance();
; 143  : 		if (rkNonPlayer.GetName(kNetActorData.m_dwRace, &c_szName))

  00135	8b 0d 00 00 00
	00		 mov	 ecx, DWORD PTR ?ms_singleton@?$CSingleton@VCPythonNonPlayer@@@@0PAVCPythonNonPlayer@@A ; CSingleton<CPythonNonPlayer>::ms_singleton
  0013b	8d 85 34 ff ff
	ff		 lea	 eax, DWORD PTR _c_szName$2[ebp]
  00141	50		 push	 eax
  00142	ff b5 68 ff ff
	ff		 push	 DWORD PTR _kNetActorData$[ebp+48]
  00148	e8 00 00 00 00	 call	 ?GetName@CPythonNonPlayer@@QAE_NKPAPBD@Z ; CPythonNonPlayer::GetName
  0014d	84 c0		 test	 al, al
  0014f	74 2a		 je	 SHORT $LN5@RecvCharac
; File C:\Program Files\Microsoft Visual Studio\2022\Community\VC\Tools\MSVC\14.34.31933\include\xstring

; 415  :             return __builtin_strlen(_First);

  00151	8b 95 34 ff ff
	ff		 mov	 edx, DWORD PTR _c_szName$2[ebp]
  00157	8d 4a 01	 lea	 ecx, DWORD PTR [edx+1]
  0015a	66 0f 1f 44 00
	00		 npad	 6
$LL26@RecvCharac:
  00160	8a 02		 mov	 al, BYTE PTR [edx]
  00162	42		 inc	 edx
  00163	84 c0		 test	 al, al
  00165	75 f9		 jne	 SHORT $LL26@RecvCharac
  00167	2b d1		 sub	 edx, ecx

; 3546 :         return assign(_Ptr, _Convert_size<size_type>(_Traits::length(_Ptr)));

  00169	8d 8d 38 ff ff
	ff		 lea	 ecx, DWORD PTR _kNetActorData$[ebp]
  0016f	52		 push	 edx
  00170	ff b5 34 ff ff
	ff		 push	 DWORD PTR _c_szName$2[ebp]
  00176	e8 00 00 00 00	 call	 ?assign@?$basic_string@DU?$char_traits@D@std@@V?$allocator@D@2@@std@@QAEAAV12@QBDI@Z ; std::basic_string<char,std::char_traits<char>,std::allocator<char> >::assign
$LN5@RecvCharac:
; File E:\Metin2_server\SolWayneSF v6\ClientVS22\source\UserInterface\PythonNetworkStreamPhaseGameActor.cpp

; 148  : 		__RecvCharacterAppendPacket(&kNetActorData);

  0017b	8d 85 38 ff ff
	ff		 lea	 eax, DWORD PTR _kNetActorData$[ebp]
  00181	8b cf		 mov	 ecx, edi
  00183	50		 push	 eax
  00184	e8 00 00 00 00	 call	 ?__RecvCharacterAppendPacket@CPythonNetworkStream@@IAEXPAUSNetworkActorData@@@Z ; CPythonNetworkStream::__RecvCharacterAppendPacket

; 149  : 	}

  00189	eb 11		 jmp	 SHORT $LN4@RecvCharac
$LN3@RecvCharac:

; 150  : 	else
; 151  : 	{
; 152  : 		s_kNetActorData = kNetActorData;

  0018b	8d 85 38 ff ff
	ff		 lea	 eax, DWORD PTR _kNetActorData$[ebp]
  00191	b9 00 00 00 00	 mov	 ecx, OFFSET ?s_kNetActorData@@3USNetworkActorData@@A
  00196	50		 push	 eax
  00197	e8 00 00 00 00	 call	 ??4SNetworkActorData@@QAEXABU0@@Z ; SNetworkActorData::operator=
$LN4@RecvCharac:

; 153  : 	}
; 154  : 
; 155  : 	return true;

  0019c	8d 8d 38 ff ff
	ff		 lea	 ecx, DWORD PTR _kNetActorData$[ebp]
  001a2	e8 00 00 00 00	 call	 ??1SNetworkActorData@@QAE@XZ
  001a7	b0 01		 mov	 al, 1
$LN1@RecvCharac:

; 156  : }

  001a9	8b 4d f4	 mov	 ecx, DWORD PTR __$EHRec$[ebp]
  001ac	64 89 0d 00 00
	00 00		 mov	 DWORD PTR fs:0, ecx
  001b3	59		 pop	 ecx
  001b4	5f		 pop	 edi
  001b5	8b 4d f0	 mov	 ecx, DWORD PTR __$ArrayPad$[ebp]
  001b8	33 cd		 xor	 ecx, ebp
  001ba	e8 00 00 00 00	 call	 @__security_check_cookie@4
  001bf	8b e5		 mov	 esp, ebp
  001c1	5d		 pop	 ebp
  001c2	c3		 ret	 0
_TEXT	ENDS
;	COMDAT text$x
text$x	SEGMENT
__unwindfunclet$?RecvCharacterAppendPacket@CPythonNetworkStream@@IAE_NXZ$0:
  00000	8d 8d 38 ff ff
	ff		 lea	 ecx, DWORD PTR _kNetActorData$[ebp]
  00006	e9 00 00 00 00	 jmp	 ??1SNetworkActorData@@QAE@XZ
  0000b	cc		 int	 3
  0000c	cc		 int	 3
  0000d	cc		 int	 3
  0000e	cc		 int	 3
  0000f	cc		 int	 3
__ehhandler$?RecvCharacterAppendPacket@CPythonNetworkStream@@IAE_NXZ:
  00010	90		 npad	 1
  00011	90		 npad	 1
  00012	8b 54 24 08	 mov	 edx, DWORD PTR [esp+8]
  00016	8d 42 0c	 lea	 eax, DWORD PTR [edx+12]
  00019	8b 8a 34 ff ff
	ff		 mov	 ecx, DWORD PTR [edx-204]
  0001f	33 c8		 xor	 ecx, eax
  00021	e8 00 00 00 00	 call	 @__security_check_cookie@4
  00026	8b 4a fc	 mov	 ecx, DWORD PTR [edx-4]
  00029	33 c8		 xor	 ecx, eax
  0002b	e8 00 00 00 00	 call	 @__security_check_cookie@4
  00030	b8 00 00 00 00	 mov	 eax, OFFSET __ehfuncinfo$?RecvCharacterAppendPacket@CPythonNetworkStream@@IAE_NXZ
  00035	e9 00 00 00 00	 jmp	 ___CxxFrameHandler3
text$x	ENDS
?RecvCharacterAppendPacket@CPythonNetworkStream@@IAE_NXZ ENDP ; CPythonNetworkStream::RecvCharacterAppendPacket
; Function compile flags: /Ogtp
; File E:\Metin2_server\SolWayneSF v6\ClientVS22\source\UserInterface\NetworkActorManager.h
;	COMDAT ??0SNetworkMoveActorData@@QAE@XZ
_TEXT	SEGMENT
??0SNetworkMoveActorData@@QAE@XZ PROC			; SNetworkMoveActorData::SNetworkMoveActorData, COMDAT
; _this$ = ecx

; 75   : 	{
; 76   : 		m_dwVID=0;

  00000	c7 01 00 00 00
	00		 mov	 DWORD PTR [ecx], 0

; 77   : 		m_dwTime=0;
; 78   : 		m_fRot=0.0f;
; 79   : 		m_lPosX=0;
; 80   : 		m_lPosY=0;
; 81   : 		m_dwFunc=0;
; 82   : 		m_dwArg=0;
; 83   : 		m_dwDuration=0;
; 84   : 	}

  00006	8b c1		 mov	 eax, ecx
  00008	c7 41 04 00 00
	00 00		 mov	 DWORD PTR [ecx+4], 0
  0000f	c7 41 10 00 00
	00 00		 mov	 DWORD PTR [ecx+16], 0
  00016	c7 41 08 00 00
	00 00		 mov	 DWORD PTR [ecx+8], 0
  0001d	c7 41 0c 00 00
	00 00		 mov	 DWORD PTR [ecx+12], 0
  00024	c7 41 14 00 00
	00 00		 mov	 DWORD PTR [ecx+20], 0
  0002b	c7 41 18 00 00
	00 00		 mov	 DWORD PTR [ecx+24], 0
  00032	c7 41 1c 00 00
	00 00		 mov	 DWORD PTR [ecx+28], 0
  00039	c3		 ret	 0
??0SNetworkMoveActorData@@QAE@XZ ENDP			; SNetworkMoveActorData::SNetworkMoveActorData
_TEXT	ENDS
; Function compile flags: /Ogtp
; File E:\Metin2_server\SolWayneSF v6\ClientVS22\source\UserInterface\NetworkActorManager.h
;	COMDAT ??0SNetworkUpdateActorData@@QAE@XZ
_TEXT	SEGMENT
??0SNetworkUpdateActorData@@QAE@XZ PROC			; SNetworkUpdateActorData::SNetworkUpdateActorData, COMDAT
; _this$ = ecx

; 111  : 	SNetworkUpdateActorData()

  00000	8b d1		 mov	 edx, ecx
  00002	8d 4a 38	 lea	 ecx, DWORD PTR [edx+56]
  00005	e8 00 00 00 00	 call	 ??0CAffectFlagContainer@@QAE@XZ ; CAffectFlagContainer::CAffectFlagContainer

; 112  : 	{
; 113  : 		m_dwGuildID=0;
; 114  : 		m_dwVID=0;
; 115  : 		m_dwArmor=0;
; 116  : 		m_dwWeapon=0;
; 117  : 		m_dwHair=0;
; 118  : 		#ifdef ENABLE_SASH_SYSTEM
; 119  : 		m_dwSash = 0;
; 120  : 		#endif
; 121  : #ifdef ENABLE_NEW_ARROW_SYSTEM
; 122  : 		m_dwArrowType=0;
; 123  : #endif
; 124  : 		m_dwMovSpd=0;
; 125  : 		m_dwAtkSpd=0;
; 126  : 		m_sAlignment=0;

  0000a	33 c0		 xor	 eax, eax
  0000c	c7 42 04 00 00
	00 00		 mov	 DWORD PTR [edx+4], 0
  00013	c7 02 00 00 00
	00		 mov	 DWORD PTR [edx], 0
  00019	c7 42 08 00 00
	00 00		 mov	 DWORD PTR [edx+8], 0
  00020	c7 42 0c 00 00
	00 00		 mov	 DWORD PTR [edx+12], 0
  00027	c7 42 10 00 00
	00 00		 mov	 DWORD PTR [edx+16], 0
  0002e	c7 42 14 00 00
	00 00		 mov	 DWORD PTR [edx+20], 0
  00035	c7 42 18 00 00
	00 00		 mov	 DWORD PTR [edx+24], 0
  0003c	c7 42 1c 00 00
	00 00		 mov	 DWORD PTR [edx+28], 0
  00043	c7 42 20 00 00
	00 00		 mov	 DWORD PTR [edx+32], 0
  0004a	66 89 42 24	 mov	 WORD PTR [edx+36], ax

; 127  : 		m_byPKMode=0;

  0004e	88 42 2c	 mov	 BYTE PTR [edx+44], al

; 128  : 		m_dwMountVnum=0;

  00051	89 42 30	 mov	 DWORD PTR [edx+48], eax

; 129  : 		m_dwStateFlags=0;

  00054	89 42 34	 mov	 DWORD PTR [edx+52], eax

; 130  : 		m_kAffectFlags.Clear();

  00057	e8 00 00 00 00	 call	 ?Clear@CAffectFlagContainer@@QAEXXZ ; CAffectFlagContainer::Clear

; 131  : 	}

  0005c	8b c2		 mov	 eax, edx
  0005e	c3		 ret	 0
??0SNetworkUpdateActorData@@QAE@XZ ENDP			; SNetworkUpdateActorData::SNetworkUpdateActorData
_TEXT	ENDS
; Function compile flags: /Ogtp
; File E:\Metin2_server\SolWayneSF v6\ClientVS22\source\UserInterface\PythonNetworkStreamPhaseGameActor.cpp
; File E:\Metin2_server\SolWayneSF v6\ClientVS22\source\UserInterface\GameType.h
; File E:\Metin2_server\SolWayneSF v6\ClientVS22\source\UserInterface\PythonNetworkStreamPhaseGameActor.cpp
; File E:\Metin2_server\SolWayneSF v6\ClientVS22\source\UserInterface\GameType.h
; File E:\Metin2_server\SolWayneSF v6\ClientVS22\source\UserInterface\PythonNetworkStreamPhaseGameActor.cpp
;	COMDAT ?__SetWeaponPower@@YAXAAVIAbstractPlayer@@K@Z
_TEXT	SEGMENT
_rkPlayer$1$ = -36					; size = 4
_minPower$1$ = -32					; size = 4
_maxPower$1$ = -28					; size = 4
_minMagicPower$1$ = -24					; size = 4
_maxMagicPower$1$ = -20					; size = 4
_addPower$1$ = -16					; size = 4
_pItemData$ = -12					; size = 4
_pkWeapon$ = -8						; size = 4
$T1 = -3						; size = 3
?__SetWeaponPower@@YAXAAVIAbstractPlayer@@K@Z PROC	; __SetWeaponPower, COMDAT
; _rkPlayer$ = ecx
; _dwWeaponID$ = edx

; 42   : {

  00000	55		 push	 ebp
  00001	8b ec		 mov	 ebp, esp
  00003	83 ec 24	 sub	 esp, 36			; 00000024H
  00006	53		 push	 ebx
  00007	56		 push	 esi
  00008	57		 push	 edi

; 43   : 	DWORD minPower=0;
; 44   : 	DWORD maxPower=0;
; 45   : 	DWORD minMagicPower=0;
; 46   : 	DWORD maxMagicPower=0;
; 47   : 	DWORD addPower=0;
; 48   : 
; 49   : 	CItemData* pkWeapon;
; 50   : 	if (CItemManager::Instance().GetItemDataPointer(dwWeaponID, &pkWeapon))

  00009	8d 45 f8	 lea	 eax, DWORD PTR _pkWeapon$[ebp]
  0000c	89 4d dc	 mov	 DWORD PTR _rkPlayer$1$[ebp], ecx
  0000f	8b 0d 00 00 00
	00		 mov	 ecx, DWORD PTR ?ms_singleton@?$CSingleton@VCItemManager@@@@0PAVCItemManager@@A ; CSingleton<CItemManager>::ms_singleton
  00015	50		 push	 eax
  00016	52		 push	 edx
  00017	c7 45 e0 00 00
	00 00		 mov	 DWORD PTR _minPower$1$[ebp], 0
  0001e	c7 45 e4 00 00
	00 00		 mov	 DWORD PTR _maxPower$1$[ebp], 0
  00025	c7 45 e8 00 00
	00 00		 mov	 DWORD PTR _minMagicPower$1$[ebp], 0
  0002c	c7 45 ec 00 00
	00 00		 mov	 DWORD PTR _maxMagicPower$1$[ebp], 0
  00033	c7 45 f0 00 00
	00 00		 mov	 DWORD PTR _addPower$1$[ebp], 0
  0003a	e8 00 00 00 00	 call	 ?GetItemDataPointer@CItemManager@@QAEHKPAPAVCItemData@@@Z ; CItemManager::GetItemDataPointer
  0003f	85 c0		 test	 eax, eax
  00041	74 4d		 je	 SHORT $LN3@SetWeaponP

; 51   : 	{
; 52   : 		if (pkWeapon->GetType()==CItemData::ITEM_TYPE_WEAPON)

  00043	8b 4d f8	 mov	 ecx, DWORD PTR _pkWeapon$[ebp]
  00046	e8 00 00 00 00	 call	 ?GetType@CItemData@@QBEEXZ ; CItemData::GetType
  0004b	3c 01		 cmp	 al, 1
  0004d	75 41		 jne	 SHORT $LN3@SetWeaponP

; 53   : 		{
; 54   : 			minPower=pkWeapon->GetValue(3);

  0004f	8b 4d f8	 mov	 ecx, DWORD PTR _pkWeapon$[ebp]
  00052	6a 03		 push	 3
  00054	e8 00 00 00 00	 call	 ?GetValue@CItemData@@QBEJE@Z ; CItemData::GetValue

; 55   : 			maxPower=pkWeapon->GetValue(4);

  00059	8b 4d f8	 mov	 ecx, DWORD PTR _pkWeapon$[ebp]
  0005c	6a 04		 push	 4
  0005e	89 45 e0	 mov	 DWORD PTR _minPower$1$[ebp], eax
  00061	e8 00 00 00 00	 call	 ?GetValue@CItemData@@QBEJE@Z ; CItemData::GetValue

; 56   : 			minMagicPower=pkWeapon->GetValue(1);

  00066	8b 4d f8	 mov	 ecx, DWORD PTR _pkWeapon$[ebp]
  00069	6a 01		 push	 1
  0006b	89 45 e4	 mov	 DWORD PTR _maxPower$1$[ebp], eax
  0006e	e8 00 00 00 00	 call	 ?GetValue@CItemData@@QBEJE@Z ; CItemData::GetValue

; 57   : 			maxMagicPower=pkWeapon->GetValue(2);

  00073	8b 4d f8	 mov	 ecx, DWORD PTR _pkWeapon$[ebp]
  00076	6a 02		 push	 2
  00078	89 45 e8	 mov	 DWORD PTR _minMagicPower$1$[ebp], eax
  0007b	e8 00 00 00 00	 call	 ?GetValue@CItemData@@QBEJE@Z ; CItemData::GetValue

; 58   : 			addPower=pkWeapon->GetValue(5);

  00080	8b 4d f8	 mov	 ecx, DWORD PTR _pkWeapon$[ebp]
  00083	6a 05		 push	 5
  00085	89 45 ec	 mov	 DWORD PTR _maxMagicPower$1$[ebp], eax
  00088	e8 00 00 00 00	 call	 ?GetValue@CItemData@@QBEJE@Z ; CItemData::GetValue
  0008d	89 45 f0	 mov	 DWORD PTR _addPower$1$[ebp], eax
$LN3@SetWeaponP:

; 64   : 	if (CItemManager::Instance().GetItemDataPointer(CPythonPlayer::Instance().GetItemIndex(TItemPos(INVENTORY, c_Equipment_Weapon)), &pItemData))

  00090	8b 3d 00 00 00
	00		 mov	 edi, DWORD PTR ?ms_singleton@?$CSingleton@VCPythonPlayer@@@@0PAVCPythonPlayer@@A ; CSingleton<CPythonPlayer>::ms_singleton
; File E:\Metin2_server\SolWayneSF v6\ClientVS22\source\UserInterface\GameType.h

; 207  :         cell = _cell;

  00096	b8 b8 00 00 00	 mov	 eax, 184		; 000000b8H
; File E:\Metin2_server\SolWayneSF v6\ClientVS22\source\UserInterface\PythonNetworkStreamPhaseGameActor.cpp

; 64   : 	if (CItemManager::Instance().GetItemDataPointer(CPythonPlayer::Instance().GetItemIndex(TItemPos(INVENTORY, c_Equipment_Weapon)), &pItemData))

  0009b	8b 1d 00 00 00
	00		 mov	 ebx, DWORD PTR ?ms_singleton@?$CSingleton@VCItemManager@@@@0PAVCItemManager@@A ; CSingleton<CItemManager>::ms_singleton
; File E:\Metin2_server\SolWayneSF v6\ClientVS22\source\UserInterface\GameType.h

; 207  :         cell = _cell;

  000a1	66 89 45 fe	 mov	 WORD PTR $T1[ebp+1], ax
  000a5	c6 45 fd 01	 mov	 BYTE PTR $T1[ebp], 1
; File E:\Metin2_server\SolWayneSF v6\ClientVS22\source\UserInterface\PythonNetworkStreamPhaseGameActor.cpp

; 64   : 	if (CItemManager::Instance().GetItemDataPointer(CPythonPlayer::Instance().GetItemIndex(TItemPos(INVENTORY, c_Equipment_Weapon)), &pItemData))

  000a9	8b 4f 04	 mov	 ecx, DWORD PTR [edi+4]
  000ac	66 8b 45 fd	 mov	 ax, WORD PTR $T1[ebp]
  000b0	51		 push	 ecx
  000b1	8b d4		 mov	 edx, esp
  000b3	8b 71 40	 mov	 esi, DWORD PTR [ecx+64]
  000b6	8d 4f 04	 lea	 ecx, DWORD PTR [edi+4]
  000b9	66 89 02	 mov	 WORD PTR [edx], ax
  000bc	8a 45 ff	 mov	 al, BYTE PTR $T1[ebp+2]
  000bf	88 42 02	 mov	 BYTE PTR [edx+2], al
  000c2	ff d6		 call	 esi
  000c4	8d 4d f4	 lea	 ecx, DWORD PTR _pItemData$[ebp]
  000c7	51		 push	 ecx
  000c8	50		 push	 eax
  000c9	8b cb		 mov	 ecx, ebx
  000cb	e8 00 00 00 00	 call	 ?GetItemDataPointer@CItemManager@@QAEHKPAPAVCItemData@@@Z ; CItemManager::GetItemDataPointer
  000d0	85 c0		 test	 eax, eax
  000d2	74 41		 je	 SHORT $LN4@SetWeaponP

; 65   : 	{
; 66   : 		minPower=pItemData->GetValue(3);

  000d4	8b 4d f4	 mov	 ecx, DWORD PTR _pItemData$[ebp]
  000d7	6a 03		 push	 3
  000d9	e8 00 00 00 00	 call	 ?GetValue@CItemData@@QBEJE@Z ; CItemData::GetValue

; 67   : 		maxPower=pItemData->GetValue(4);

  000de	8b 4d f4	 mov	 ecx, DWORD PTR _pItemData$[ebp]
  000e1	6a 04		 push	 4
  000e3	89 45 e0	 mov	 DWORD PTR _minPower$1$[ebp], eax
  000e6	e8 00 00 00 00	 call	 ?GetValue@CItemData@@QBEJE@Z ; CItemData::GetValue

; 68   : 		minMagicPower=pItemData->GetValue(1);

  000eb	8b 4d f4	 mov	 ecx, DWORD PTR _pItemData$[ebp]
  000ee	6a 01		 push	 1
  000f0	89 45 e4	 mov	 DWORD PTR _maxPower$1$[ebp], eax
  000f3	e8 00 00 00 00	 call	 ?GetValue@CItemData@@QBEJE@Z ; CItemData::GetValue

; 69   : 		maxMagicPower=pItemData->GetValue(2);

  000f8	8b 4d f4	 mov	 ecx, DWORD PTR _pItemData$[ebp]
  000fb	6a 02		 push	 2
  000fd	89 45 e8	 mov	 DWORD PTR _minMagicPower$1$[ebp], eax
  00100	e8 00 00 00 00	 call	 ?GetValue@CItemData@@QBEJE@Z ; CItemData::GetValue

; 70   : 		addPower=pItemData->GetValue(5);

  00105	8b 4d f4	 mov	 ecx, DWORD PTR _pItemData$[ebp]
  00108	6a 05		 push	 5
  0010a	89 45 ec	 mov	 DWORD PTR _maxMagicPower$1$[ebp], eax
  0010d	e8 00 00 00 00	 call	 ?GetValue@CItemData@@QBEJE@Z ; CItemData::GetValue
  00112	89 45 f0	 mov	 DWORD PTR _addPower$1$[ebp], eax
$LN4@SetWeaponP:

; 71   : 	}
; 72   : #endif
; 73   : 
; 74   : 	rkPlayer.SetWeaponPower(minPower, maxPower, minMagicPower, maxMagicPower, addPower);

  00115	ff 75 f0	 push	 DWORD PTR _addPower$1$[ebp]
  00118	8b 4d dc	 mov	 ecx, DWORD PTR _rkPlayer$1$[ebp]
  0011b	ff 75 ec	 push	 DWORD PTR _maxMagicPower$1$[ebp]
  0011e	ff 75 e8	 push	 DWORD PTR _minMagicPower$1$[ebp]
  00121	8b 01		 mov	 eax, DWORD PTR [ecx]
  00123	ff 75 e4	 push	 DWORD PTR _maxPower$1$[ebp]
  00126	ff 75 e0	 push	 DWORD PTR _minPower$1$[ebp]
  00129	ff 50 5c	 call	 DWORD PTR [eax+92]

; 75   : }

  0012c	5f		 pop	 edi
  0012d	5e		 pop	 esi
  0012e	5b		 pop	 ebx
  0012f	8b e5		 mov	 esp, ebp
  00131	5d		 pop	 ebp
  00132	c3		 ret	 0
?__SetWeaponPower@@YAXAAVIAbstractPlayer@@K@Z ENDP	; __SetWeaponPower
_TEXT	ENDS
; Function compile flags: /Ogtp
; File E:\Metin2_server\SolWayneSF v6\ClientVS22\source\UserInterface\PythonNetworkStreamPhaseGameActor.cpp
;	COMDAT ?IsInvisibleRace@@YA_NG@Z
_TEXT	SEGMENT
?IsInvisibleRace@@YA_NG@Z PROC				; IsInvisibleRace, COMDAT
; _raceNum$ = cx

; 81   : 	switch(raceNum)

  00000	0f b7 c1	 movzx	 eax, cx
  00003	2d 39 4e 00 00	 sub	 eax, 20025		; 00004e39H
  00008	74 0d		 je	 SHORT $LN4@IsInvisibl
  0000a	83 e8 0d	 sub	 eax, 13			; 0000000dH
  0000d	74 08		 je	 SHORT $LN4@IsInvisibl
  0000f	83 e8 01	 sub	 eax, 1
  00012	74 03		 je	 SHORT $LN4@IsInvisibl

; 87   : 	default:
; 88   : 		return false;

  00014	32 c0		 xor	 al, al

; 89   : 	}
; 90   : }

  00016	c3		 ret	 0
$LN4@IsInvisibl:

; 82   : 	{
; 83   : 	case 20025:
; 84   : 	case 20038:
; 85   : 	case 20039:
; 86   : 		return true;

  00017	b0 01		 mov	 al, 1

; 89   : 	}
; 90   : }

  00019	c3		 ret	 0
?IsInvisibleRace@@YA_NG@Z ENDP				; IsInvisibleRace
_TEXT	ENDS
; Function compile flags: /Ogtp
; File E:\Metin2_server\SolWayneSF v6\ClientVS22\source\UserInterface\PythonNetworkStreamPhaseGameActor.cpp
;	COMDAT ??__Es_kNetActorData@@YAXXZ
text$di	SEGMENT
??__Es_kNetActorData@@YAXXZ PROC			; `dynamic initializer for 's_kNetActorData'', COMDAT

; 92   : static SNetworkActorData s_kNetActorData;

  00000	b9 00 00 00 00	 mov	 ecx, OFFSET ?s_kNetActorData@@3USNetworkActorData@@A
  00005	e8 00 00 00 00	 call	 ??0SNetworkActorData@@QAE@XZ ; SNetworkActorData::SNetworkActorData
  0000a	68 00 00 00 00	 push	 OFFSET ??__Fs_kNetActorData@@YAXXZ ; `dynamic atexit destructor for 's_kNetActorData''
  0000f	e8 00 00 00 00	 call	 _atexit
  00014	59		 pop	 ecx
  00015	c3		 ret	 0
??__Es_kNetActorData@@YAXXZ ENDP			; `dynamic initializer for 's_kNetActorData''
text$di	ENDS
; Function compile flags: /Ogtp
; File C:\Program Files\Microsoft Visual Studio\2022\Community\VC\Tools\MSVC\14.34.31933\include\xstring
; File C:\Program Files\Microsoft Visual Studio\2022\Community\VC\Tools\MSVC\14.34.31933\include\xmemory
; File C:\Program Files\Microsoft Visual Studio\2022\Community\VC\Tools\MSVC\14.34.31933\include\xstring
; File C:\Program Files\Microsoft Visual Studio\2022\Community\VC\Tools\MSVC\14.34.31933\include\xmemory
; File C:\Program Files\Microsoft Visual Studio\2022\Community\VC\Tools\MSVC\14.34.31933\include\xstring
;	COMDAT ??__Fs_kNetActorData@@YAXXZ
text$yd	SEGMENT
??__Fs_kNetActorData@@YAXXZ PROC			; `dynamic atexit destructor for 's_kNetActorData'', COMDAT
  00000	b9 18 00 00 00	 mov	 ecx, OFFSET ?s_kNetActorData@@3USNetworkActorData@@A+24
  00005	e8 00 00 00 00	 call	 ??1CAffectFlagContainer@@QAE@XZ ; CAffectFlagContainer::~CAffectFlagContainer

; 2301 :         return _BUF_SIZE <= _Myres;

  0000a	8b 0d 14 00 00
	00		 mov	 ecx, DWORD PTR ?s_kNetActorData@@3USNetworkActorData@@A+20
  00010	83 f9 10	 cmp	 ecx, 16			; 00000010H

; 5008 :         if (_My_data._Large_string_engaged()) {

  00013	72 2f		 jb	 SHORT $LN18@dynamic
; File C:\Program Files\Microsoft Visual Studio\2022\Community\VC\Tools\MSVC\14.34.31933\include\xmemory

; 830  :         _Deallocate<_New_alignof<_Ty>>(_Ptr, sizeof(_Ty) * _Count);

  00015	8b 15 00 00 00
	00		 mov	 edx, DWORD PTR ?s_kNetActorData@@3USNetworkActorData@@A
; File C:\Program Files\Microsoft Visual Studio\2022\Community\VC\Tools\MSVC\14.34.31933\include\xstring

; 5013 :             _Al.deallocate(_Ptr, _My_data._Myres + 1);

  0001b	41		 inc	 ecx
; File C:\Program Files\Microsoft Visual Studio\2022\Community\VC\Tools\MSVC\14.34.31933\include\xmemory

; 830  :         _Deallocate<_New_alignof<_Ty>>(_Ptr, sizeof(_Ty) * _Count);

  0001c	8b c2		 mov	 eax, edx

; 251  :         if (_Bytes >= _Big_allocation_threshold) { // boost the alignment of big allocations to help autovectorization

  0001e	81 f9 00 10 00
	00		 cmp	 ecx, 4096		; 00001000H
  00024	72 14		 jb	 SHORT $LN30@dynamic

; 150  :     const uintptr_t _Ptr_container   = _Ptr_user[-1];

  00026	8b 50 fc	 mov	 edx, DWORD PTR [eax-4]
  00029	83 c1 23	 add	 ecx, 35			; 00000023H
  0002c	2b c2		 sub	 eax, edx

; 151  : 
; 152  :     // If the following asserts, it likely means that we are performing
; 153  :     // an aligned delete on memory coming from an unaligned allocation.
; 154  :     _STL_ASSERT(_Ptr_user[-2] == _Big_allocation_sentinel, "invalid argument");
; 155  : 
; 156  :     // Extra paranoia on aligned allocation/deallocation; ensure _Ptr_container is
; 157  :     // in range [_Min_back_shift, _Non_user_size]
; 158  : #ifdef _DEBUG
; 159  :     constexpr uintptr_t _Min_back_shift = 2 * sizeof(void*);
; 160  : #else // ^^^ _DEBUG ^^^ // vvv !_DEBUG vvv
; 161  :     constexpr uintptr_t _Min_back_shift = sizeof(void*);
; 162  : #endif // _DEBUG
; 163  :     const uintptr_t _Back_shift = reinterpret_cast<uintptr_t>(_Ptr) - _Ptr_container;
; 164  :     _STL_VERIFY(_Back_shift >= _Min_back_shift && _Back_shift <= _Non_user_size, "invalid argument");

  0002e	83 c0 fc	 add	 eax, -4			; fffffffcH
  00031	83 f8 1f	 cmp	 eax, 31			; 0000001fH
  00034	0f 87 00 00 00
	00		 ja	 __invalid_parameter_noinfo_noreturn
$LN30@dynamic:

; 255  :         ::operator delete(_Ptr, _Bytes);

  0003a	51		 push	 ecx
  0003b	52		 push	 edx
  0003c	e8 00 00 00 00	 call	 ??3@YAXPAXI@Z		; operator delete
  00041	83 c4 08	 add	 esp, 8
$LN18@dynamic:
; File C:\Program Files\Microsoft Visual Studio\2022\Community\VC\Tools\MSVC\14.34.31933\include\xstring

; 5016 :         _My_data._Mysize = 0;

  00044	c7 05 10 00 00
	00 00 00 00 00	 mov	 DWORD PTR ?s_kNetActorData@@3USNetworkActorData@@A+16, 0

; 5017 :         _My_data._Myres  = _BUF_SIZE - 1;

  0004e	c7 05 14 00 00
	00 0f 00 00 00	 mov	 DWORD PTR ?s_kNetActorData@@3USNetworkActorData@@A+20, 15 ; 0000000fH

; 5018 :         // the _Traits::assign is last so the codegen doesn't think the char write can alias this
; 5019 :         _Traits::assign(_My_data._Bx._Buf[0], _Elem());

  00058	c6 05 00 00 00
	00 00		 mov	 BYTE PTR ?s_kNetActorData@@3USNetworkActorData@@A, 0
  0005f	c3		 ret	 0
??__Fs_kNetActorData@@YAXXZ ENDP			; `dynamic atexit destructor for 's_kNetActorData''
text$yd	ENDS
; Function compile flags: /Ogtp
;	COMDAT ??1SNetworkUpdateActorData@@QAE@XZ
_TEXT	SEGMENT
??1SNetworkUpdateActorData@@QAE@XZ PROC			; SNetworkUpdateActorData::~SNetworkUpdateActorData, COMDAT
; _this$ = ecx
  00000	c2 00 00	 ret	 0
??1SNetworkUpdateActorData@@QAE@XZ ENDP			; SNetworkUpdateActorData::~SNetworkUpdateActorData
_TEXT	ENDS
; Function compile flags: /Ogtp
; File E:\Metin2_server\SolWayneSF v6\ClientVS22\source\UserInterface\PythonNetworkStreamPhaseGameActor.cpp
; File C:\Program Files\Microsoft Visual Studio\2022\Community\VC\Tools\MSVC\14.34.31933\include\xstring
; File E:\Metin2_server\SolWayneSF v6\ClientVS22\source\UserInterface\PythonNetworkStreamPhaseGameActor.cpp
; File C:\Program Files\Microsoft Visual Studio\2022\Community\VC\Tools\MSVC\14.34.31933\include\xstring
; File E:\Metin2_server\SolWayneSF v6\ClientVS22\source\UserInterface\PythonNetworkStreamPhaseGameActor.cpp
; File C:\Program Files\Microsoft Visual Studio\2022\Community\VC\Tools\MSVC\14.34.31933\include\xstring
; File E:\Metin2_server\SolWayneSF v6\ClientVS22\source\UserInterface\PythonNetworkStreamPhaseGameActor.cpp
; File C:\Program Files\Microsoft Visual Studio\2022\Community\VC\Tools\MSVC\14.34.31933\include\xstring
; File C:\Program Files\Microsoft Visual Studio\2022\Community\VC\Tools\MSVC\14.34.31933\include\xmemory
; File E:\Metin2_server\SolWayneSF v6\ClientVS22\source\UserInterface\PythonNetworkStreamPhaseGameActor.cpp
; File C:\Program Files\Microsoft Visual Studio\2022\Community\VC\Tools\MSVC\14.34.31933\include\xmemory
; File E:\Metin2_server\SolWayneSF v6\ClientVS22\source\UserInterface\PythonNetworkStreamPhaseGameActor.cpp
;	COMDAT ?__RecvCharacterAppendPacket@CPythonNetworkStream@@IAEXPAUSNetworkActorData@@@Z
_TEXT	SEGMENT
_pkNetActorData$GSCopy$1$ = -52				; size = 4
_this$GSCopy$1$ = -48					; size = 4
_strMapName$2 = -44					; size = 24
__$ArrayPad$ = -20					; size = 4
__$EHRec$ = -12						; size = 12
_pkNetActorData$ = 8					; size = 4
?__RecvCharacterAppendPacket@CPythonNetworkStream@@IAEXPAUSNetworkActorData@@@Z PROC ; CPythonNetworkStream::__RecvCharacterAppendPacket, COMDAT
; _this$ = ecx

; 307  : {

  00000	53		 push	 ebx
  00001	8b dc		 mov	 ebx, esp
  00003	83 ec 08	 sub	 esp, 8
  00006	83 e4 f8	 and	 esp, -8			; fffffff8H
  00009	83 c4 04	 add	 esp, 4
  0000c	55		 push	 ebp
  0000d	8b 6b 04	 mov	 ebp, DWORD PTR [ebx+4]
  00010	89 6c 24 04	 mov	 DWORD PTR [esp+4], ebp
  00014	8b ec		 mov	 ebp, esp
  00016	6a ff		 push	 -1
  00018	68 00 00 00 00	 push	 __ehhandler$?__RecvCharacterAppendPacket@CPythonNetworkStream@@IAEXPAUSNetworkActorData@@@Z
  0001d	64 a1 00 00 00
	00		 mov	 eax, DWORD PTR fs:0
  00023	50		 push	 eax
  00024	53		 push	 ebx
  00025	83 ec 28	 sub	 esp, 40			; 00000028H
  00028	a1 00 00 00 00	 mov	 eax, DWORD PTR ___security_cookie
  0002d	33 c5		 xor	 eax, ebp
  0002f	89 45 ec	 mov	 DWORD PTR __$ArrayPad$[ebp], eax
  00032	56		 push	 esi
  00033	57		 push	 edi
  00034	50		 push	 eax
  00035	8d 45 f4	 lea	 eax, DWORD PTR __$EHRec$[ebp]
  00038	64 a3 00 00 00
	00		 mov	 DWORD PTR fs:0, eax
  0003e	89 4d d0	 mov	 DWORD PTR _this$GSCopy$1$[ebp], ecx

; 308  : 	// NOTE : 카메라가 땅에 묻히는 문제의 해결을 위해 메인 캐릭터가 지형에 올려지기
; 309  : 	//        전에 맵을 업데이트 해 높이를 구할 수 있도록 해놓아야 합니다.
; 310  : 	//        단, 게임이 들어갈때가 아닌 이미 캐릭터가 추가 된 이후에만 합니다.
; 311  : 	//        헌데 이동인데 왜 Move로 안하고 Append로 하는지..? - [levites]
; 312  : 	IAbstractPlayer& rkPlayer = IAbstractPlayer::GetSingleton();

  00041	8b 3d 00 00 00
	00		 mov	 edi, DWORD PTR ?ms_singleton@?$TAbstractSingleton@VIAbstractPlayer@@@@0PAVIAbstractPlayer@@A ; TAbstractSingleton<IAbstractPlayer>::ms_singleton

; 313  : 	if (rkPlayer.IsMainCharacterIndex(pkNetActorData->m_dwVID))

  00047	8b cf		 mov	 ecx, edi
  00049	8b 73 08	 mov	 esi, DWORD PTR _pkNetActorData$[ebx]
  0004c	89 75 cc	 mov	 DWORD PTR _pkNetActorData$GSCopy$1$[ebp], esi
  0004f	8b 07		 mov	 eax, DWORD PTR [edi]
  00051	ff 76 24	 push	 DWORD PTR [esi+36]
  00054	8b 40 0c	 mov	 eax, DWORD PTR [eax+12]
  00057	ff d0		 call	 eax
  00059	84 c0		 test	 al, al
  0005b	0f 84 6c 01 00
	00		 je	 $LN4@RecvCharac

; 314  : 	{
; 315  : 		rkPlayer.SetRace(pkNetActorData->m_dwRace);

  00061	8b 07		 mov	 eax, DWORD PTR [edi]
  00063	8b cf		 mov	 ecx, edi
  00065	ff 76 30	 push	 DWORD PTR [esi+48]
  00068	ff 50 18	 call	 DWORD PTR [eax+24]

; 316  : 
; 317  : 		__SetWeaponPower(rkPlayer, pkNetActorData->m_dwWeapon);

  0006b	8b 56 68	 mov	 edx, DWORD PTR [esi+104]
  0006e	8b cf		 mov	 ecx, edi
  00070	e8 00 00 00 00	 call	 ?__SetWeaponPower@@YAXAAVIAbstractPlayer@@K@Z ; __SetWeaponPower

; 318  : 
; 319  : 		if (rkPlayer.NEW_GetMainActorPtr())

  00075	8b 07		 mov	 eax, DWORD PTR [edi]
  00077	8b cf		 mov	 ecx, edi
  00079	8b 80 88 00 00
	00		 mov	 eax, DWORD PTR [eax+136]
  0007f	ff d0		 call	 eax
  00081	8b 4e 44	 mov	 ecx, DWORD PTR [esi+68]
  00084	8b 56 40	 mov	 edx, DWORD PTR [esi+64]
  00087	85 c0		 test	 eax, eax
  00089	0f 84 34 01 00
	00		 je	 $LN3@RecvCharac

; 320  : 		{
; 321  : 			CPythonBackground::Instance().Update(pkNetActorData->m_lCurX, pkNetActorData->m_lCurY, 0.0f);

  0008f	66 0f 6e d1	 movd	 xmm2, ecx
  00093	0f 57 db	 xorps	 xmm3, xmm3
  00096	8b 0d 00 00 00
	00		 mov	 ecx, DWORD PTR ?ms_singleton@?$CSingleton@VCPythonBackground@@@@0PAVCPythonBackground@@A ; CSingleton<CPythonBackground>::ms_singleton
  0009c	66 0f 6e ca	 movd	 xmm1, edx
  000a0	0f 5b d2	 cvtdq2ps xmm2, xmm2
  000a3	0f 5b c9	 cvtdq2ps xmm1, xmm1
  000a6	e8 00 00 00 00	 call	 ?Update@CPythonBackground@@QAEXMMM@Z ; CPythonBackground::Update

; 322  : 			CPythonCharacterManager::Instance().Update();

  000ab	8b 0d 00 00 00
	00		 mov	 ecx, DWORD PTR ?ms_singleton@?$CSingleton@VCPythonCharacterManager@@@@0PAVCPythonCharacterManager@@A ; CSingleton<CPythonCharacterManager>::ms_singleton
  000b1	e8 00 00 00 00	 call	 ?Update@CPythonCharacterManager@@QAEXXZ ; CPythonCharacterManager::Update

; 326  : 				std::string strMapName = CPythonBackground::Instance().GetWarpMapName();

  000b6	8b 0d 00 00 00
	00		 mov	 ecx, DWORD PTR ?ms_singleton@?$CSingleton@VCPythonBackground@@@@0PAVCPythonBackground@@A ; CSingleton<CPythonBackground>::ms_singleton
  000bc	e8 00 00 00 00	 call	 ?GetWarpMapName@CPythonBackground@@QAEPBDXZ ; CPythonBackground::GetWarpMapName
  000c1	8b d0		 mov	 edx, eax
; File C:\Program Files\Microsoft Visual Studio\2022\Community\VC\Tools\MSVC\14.34.31933\include\xstring

; 2348 :     size_type _Mysize = 0; // current length of string

  000c3	c7 45 e4 00 00
	00 00		 mov	 DWORD PTR _strMapName$2[ebp+16], 0

; 415  :             return __builtin_strlen(_First);

  000ca	8b ca		 mov	 ecx, edx

; 2349 :     size_type _Myres  = 0; // current storage reserved for string

  000cc	c7 45 e8 00 00
	00 00		 mov	 DWORD PTR _strMapName$2[ebp+20], 0
  000d3	0f 57 c0	 xorps	 xmm0, xmm0

; 2339 :         _CONSTEXPR20 _Bxty() noexcept : _Buf() {} // user-provided, for fancy pointers

  000d6	0f 11 45 d4	 movups	 XMMWORD PTR _strMapName$2[ebp], xmm0

; 415  :             return __builtin_strlen(_First);

  000da	8d 71 01	 lea	 esi, DWORD PTR [ecx+1]
  000dd	0f 1f 00	 npad	 3
$LL70@RecvCharac:
  000e0	8a 01		 mov	 al, BYTE PTR [ecx]
  000e2	41		 inc	 ecx
  000e3	84 c0		 test	 al, al
  000e5	75 f9		 jne	 SHORT $LL70@RecvCharac
  000e7	2b ce		 sub	 ecx, esi

; 2674 :         _Construct<_Construct_strategy::_From_ptr>(_Ptr, _Convert_size<size_type>(_Traits::length(_Ptr)));

  000e9	51		 push	 ecx
  000ea	52		 push	 edx
  000eb	8d 4d d4	 lea	 ecx, DWORD PTR _strMapName$2[ebp]
  000ee	e8 00 00 00 00	 call	 ??$_Construct@$00PBD@?$basic_string@DU?$char_traits@D@std@@V?$allocator@D@2@@std@@AAEXQBDI@Z ; std::basic_string<char,std::char_traits<char>,std::allocator<char> >::_Construct<1,char const *>
; File E:\Metin2_server\SolWayneSF v6\ClientVS22\source\UserInterface\PythonNetworkStreamPhaseGameActor.cpp

; 326  : 				std::string strMapName = CPythonBackground::Instance().GetWarpMapName();

  000f3	c7 45 fc 00 00
	00 00		 mov	 DWORD PTR __$EHRec$[ebp+8], 0
; File C:\Program Files\Microsoft Visual Studio\2022\Community\VC\Tools\MSVC\14.34.31933\include\xstring

; 2292 :         const value_type* _Result = _Bx._Buf;

  000fa	8d 4d d4	 lea	 ecx, DWORD PTR _strMapName$2[ebp]

; 2293 :         if (_Large_string_engaged()) {

  000fd	83 7d e8 10	 cmp	 DWORD PTR _strMapName$2[ebp+20], 16 ; 00000010H
  00101	8b 55 d4	 mov	 edx, DWORD PTR _strMapName$2[ebp]

; 595  :     return _Left_size == _Right_size && _Traits::compare(_Left, _Right, _Left_size) == 0;

  00104	8b 75 e4	 mov	 esi, DWORD PTR _strMapName$2[ebp+16]

; 2293 :         if (_Large_string_engaged()) {

  00107	0f 43 ca	 cmovae	 ecx, edx

; 595  :     return _Left_size == _Right_size && _Traits::compare(_Left, _Right, _Left_size) == 0;

  0010a	83 fe 16	 cmp	 esi, 22			; 00000016H
  0010d	75 77		 jne	 SHORT $LN78@RecvCharac

; 395  :         return __builtin_memcmp(_First1, _First2, _Count);

  0010f	ba 00 00 00 00	 mov	 edx, OFFSET ??_C@_0BH@EOJPPMKE@metin2_map_deviltower1@
  00114	83 ee 04	 sub	 esi, 4
  00117	72 18		 jb	 SHORT $LN73@RecvCharac
  00119	0f 1f 80 00 00
	00 00		 npad	 7
$LL74@RecvCharac:
  00120	8b 01		 mov	 eax, DWORD PTR [ecx]
  00122	3b 02		 cmp	 eax, DWORD PTR [edx]
  00124	75 10		 jne	 SHORT $LN72@RecvCharac
  00126	83 c1 04	 add	 ecx, 4
  00129	83 c2 04	 add	 edx, 4
  0012c	83 ee 04	 sub	 esi, 4
  0012f	73 ef		 jae	 SHORT $LL74@RecvCharac
$LN73@RecvCharac:
  00131	83 fe fc	 cmp	 esi, -4			; fffffffcH
  00134	74 34		 je	 SHORT $LN71@RecvCharac
$LN72@RecvCharac:
  00136	8a 01		 mov	 al, BYTE PTR [ecx]
  00138	3a 02		 cmp	 al, BYTE PTR [edx]
  0013a	75 27		 jne	 SHORT $LN75@RecvCharac
  0013c	83 fe fd	 cmp	 esi, -3			; fffffffdH
  0013f	74 29		 je	 SHORT $LN71@RecvCharac
  00141	8a 41 01	 mov	 al, BYTE PTR [ecx+1]
  00144	3a 42 01	 cmp	 al, BYTE PTR [edx+1]
  00147	75 1a		 jne	 SHORT $LN75@RecvCharac
  00149	83 fe fe	 cmp	 esi, -2			; fffffffeH
  0014c	74 1c		 je	 SHORT $LN71@RecvCharac
  0014e	8a 41 02	 mov	 al, BYTE PTR [ecx+2]
  00151	3a 42 02	 cmp	 al, BYTE PTR [edx+2]
  00154	75 0d		 jne	 SHORT $LN75@RecvCharac
  00156	83 fe ff	 cmp	 esi, -1
  00159	74 0f		 je	 SHORT $LN71@RecvCharac
  0015b	8a 41 03	 mov	 al, BYTE PTR [ecx+3]
  0015e	3a 42 03	 cmp	 al, BYTE PTR [edx+3]
  00161	74 07		 je	 SHORT $LN71@RecvCharac
$LN75@RecvCharac:
  00163	1b c0		 sbb	 eax, eax
  00165	83 c8 01	 or	 eax, 1
  00168	eb 02		 jmp	 SHORT $LN76@RecvCharac
$LN71@RecvCharac:
  0016a	33 c0		 xor	 eax, eax
$LN76@RecvCharac:

; 595  :     return _Left_size == _Right_size && _Traits::compare(_Left, _Right, _Left_size) == 0;

  0016c	8b 75 cc	 mov	 esi, DWORD PTR _pkNetActorData$GSCopy$1$[ebp]
  0016f	85 c0		 test	 eax, eax
  00171	75 0e		 jne	 SHORT $LN77@RecvCharac
; File E:\Metin2_server\SolWayneSF v6\ClientVS22\source\UserInterface\PythonNetworkStreamPhaseGameActor.cpp

; 328  : 					__ShowMapName(pkNetActorData->m_lCurX, pkNetActorData->m_lCurY);

  00173	ff 76 44	 push	 DWORD PTR [esi+68]
  00176	8b 4d d0	 mov	 ecx, DWORD PTR _this$GSCopy$1$[ebp]
  00179	ff 76 40	 push	 DWORD PTR [esi+64]
  0017c	e8 00 00 00 00	 call	 ?__ShowMapName@CPythonNetworkStream@@IAEXJJ@Z ; CPythonNetworkStream::__ShowMapName
$LN77@RecvCharac:

; 329  : 			}

  00181	8b 55 d4	 mov	 edx, DWORD PTR _strMapName$2[ebp]
  00184	eb 03		 jmp	 SHORT $LN5@RecvCharac
$LN78@RecvCharac:
; File C:\Program Files\Microsoft Visual Studio\2022\Community\VC\Tools\MSVC\14.34.31933\include\xstring

; 595  :     return _Left_size == _Right_size && _Traits::compare(_Left, _Right, _Left_size) == 0;

  00186	8b 75 cc	 mov	 esi, DWORD PTR _pkNetActorData$GSCopy$1$[ebp]
$LN5@RecvCharac:
; File E:\Metin2_server\SolWayneSF v6\ClientVS22\source\UserInterface\PythonNetworkStreamPhaseGameActor.cpp

; 329  : 			}

  00189	c7 45 fc ff ff
	ff ff		 mov	 DWORD PTR __$EHRec$[ebp+8], -1
; File C:\Program Files\Microsoft Visual Studio\2022\Community\VC\Tools\MSVC\14.34.31933\include\xstring

; 2301 :         return _BUF_SIZE <= _Myres;

  00190	8b 4d e8	 mov	 ecx, DWORD PTR _strMapName$2[ebp+20]
  00193	83 f9 10	 cmp	 ecx, 16			; 00000010H

; 5008 :         if (_My_data._Large_string_engaged()) {

  00196	72 35		 jb	 SHORT $LN4@RecvCharac

; 5009 :             const pointer _Ptr = _My_data._Bx._Ptr;
; 5010 :             auto& _Al          = _Getal();
; 5011 :             _Destroy_in_place(_My_data._Bx._Ptr);
; 5012 :             _My_data._Activate_SSO_buffer();
; 5013 :             _Al.deallocate(_Ptr, _My_data._Myres + 1);

  00198	41		 inc	 ecx
; File C:\Program Files\Microsoft Visual Studio\2022\Community\VC\Tools\MSVC\14.34.31933\include\xmemory

; 830  :         _Deallocate<_New_alignof<_Ty>>(_Ptr, sizeof(_Ty) * _Count);

  00199	8b c2		 mov	 eax, edx

; 251  :         if (_Bytes >= _Big_allocation_threshold) { // boost the alignment of big allocations to help autovectorization

  0019b	81 f9 00 10 00
	00		 cmp	 ecx, 4096		; 00001000H
  001a1	72 14		 jb	 SHORT $LN63@RecvCharac

; 150  :     const uintptr_t _Ptr_container   = _Ptr_user[-1];

  001a3	8b 50 fc	 mov	 edx, DWORD PTR [eax-4]
  001a6	83 c1 23	 add	 ecx, 35			; 00000023H
  001a9	2b c2		 sub	 eax, edx

; 164  :     _STL_VERIFY(_Back_shift >= _Min_back_shift && _Back_shift <= _Non_user_size, "invalid argument");

  001ab	83 c0 fc	 add	 eax, -4			; fffffffcH
  001ae	83 f8 1f	 cmp	 eax, 31			; 0000001fH
  001b1	0f 87 85 00 00
	00		 ja	 $LN82@RecvCharac
$LN63@RecvCharac:

; 255  :         ::operator delete(_Ptr, _Bytes);

  001b7	51		 push	 ecx
  001b8	52		 push	 edx
  001b9	e8 00 00 00 00	 call	 ??3@YAXPAXI@Z		; operator delete
  001be	83 c4 08	 add	 esp, 8
; File E:\Metin2_server\SolWayneSF v6\ClientVS22\source\UserInterface\PythonNetworkStreamPhaseGameActor.cpp

; 330  : 		}

  001c1	eb 0a		 jmp	 SHORT $LN4@RecvCharac
$LN3@RecvCharac:

; 331  : 		else
; 332  : 		{
; 333  : 			__ShowMapName(pkNetActorData->m_lCurX, pkNetActorData->m_lCurY);

  001c3	51		 push	 ecx
  001c4	8b 4d d0	 mov	 ecx, DWORD PTR _this$GSCopy$1$[ebp]
  001c7	52		 push	 edx
  001c8	e8 00 00 00 00	 call	 ?__ShowMapName@CPythonNetworkStream@@IAEXJJ@Z ; CPythonNetworkStream::__ShowMapName
$LN4@RecvCharac:

; 334  : 		}
; 335  : 	}
; 336  : 
; 337  : 	m_rokNetActorMgr->AppendActor(*pkNetActorData);

  001cd	8b 45 d0	 mov	 eax, DWORD PTR _this$GSCopy$1$[ebp]
  001d0	56		 push	 esi
  001d1	8b 88 14 03 00
	00		 mov	 ecx, DWORD PTR [eax+788]
  001d7	e8 00 00 00 00	 call	 ?AppendActor@CNetworkActorManager@@QAEXABUSNetworkActorData@@@Z ; CNetworkActorManager::AppendActor

; 338  : 
; 339  : 	if (GetMainActorVID()==pkNetActorData->m_dwVID)

  001dc	8b 4d d0	 mov	 ecx, DWORD PTR _this$GSCopy$1$[ebp]
  001df	e8 00 00 00 00	 call	 ?GetMainActorVID@CPythonNetworkStream@@QAEKXZ ; CPythonNetworkStream::GetMainActorVID
  001e4	3b 46 24	 cmp	 eax, DWORD PTR [esi+36]
  001e7	75 33		 jne	 SHORT $LN6@RecvCharac

; 340  : 	{
; 341  : 		rkPlayer.SetTarget(0);

  001e9	8b 07		 mov	 eax, DWORD PTR [edi]
  001eb	8b cf		 mov	 ecx, edi
  001ed	6a 01		 push	 1
  001ef	6a 00		 push	 0
  001f1	ff 50 60	 call	 DWORD PTR [eax+96]

; 342  : 		if (m_bComboSkillFlag)

  001f4	8b 45 d0	 mov	 eax, DWORD PTR _this$GSCopy$1$[ebp]
  001f7	8a 88 29 79 00
	00		 mov	 cl, BYTE PTR [eax+31017]
  001fd	84 c9		 test	 cl, cl
  001ff	74 0e		 je	 SHORT $LN7@RecvCharac

; 343  : 			rkPlayer.SetComboSkillFlag(m_bComboSkillFlag);

  00201	8b 17		 mov	 edx, DWORD PTR [edi]
  00203	0f b6 c1	 movzx	 eax, cl
  00206	8b cf		 mov	 ecx, edi
  00208	50		 push	 eax
  00209	ff 52 7c	 call	 DWORD PTR [edx+124]
  0020c	8b 45 d0	 mov	 eax, DWORD PTR _this$GSCopy$1$[ebp]
$LN7@RecvCharac:

; 344  : 
; 345  : 		__SetGuildID(pkNetActorData->m_dwGuildID);

  0020f	ff b6 84 00 00
	00		 push	 DWORD PTR [esi+132]
  00215	8b c8		 mov	 ecx, eax
  00217	e8 00 00 00 00	 call	 ?__SetGuildID@CPythonNetworkStream@@IAEXK@Z ; CPythonNetworkStream::__SetGuildID
$LN6@RecvCharac:

; 348  : }

  0021c	8b 4d f4	 mov	 ecx, DWORD PTR __$EHRec$[ebp]
  0021f	64 89 0d 00 00
	00 00		 mov	 DWORD PTR fs:0, ecx
  00226	59		 pop	 ecx
  00227	5f		 pop	 edi
  00228	5e		 pop	 esi
  00229	8b 4d ec	 mov	 ecx, DWORD PTR __$ArrayPad$[ebp]
  0022c	33 cd		 xor	 ecx, ebp
  0022e	e8 00 00 00 00	 call	 @__security_check_cookie@4
  00233	8b e5		 mov	 esp, ebp
  00235	5d		 pop	 ebp
  00236	8b e3		 mov	 esp, ebx
  00238	5b		 pop	 ebx
  00239	c2 04 00	 ret	 4
$LN82@RecvCharac:
; File C:\Program Files\Microsoft Visual Studio\2022\Community\VC\Tools\MSVC\14.34.31933\include\xmemory

; 164  :     _STL_VERIFY(_Back_shift >= _Min_back_shift && _Back_shift <= _Non_user_size, "invalid argument");

  0023c	e8 00 00 00 00	 call	 __invalid_parameter_noinfo_noreturn
$LN80@RecvCharac:
  00241	cc		 int	 3
_TEXT	ENDS
;	COMDAT text$x
text$x	SEGMENT
__unwindfunclet$?__RecvCharacterAppendPacket@CPythonNetworkStream@@IAEXPAUSNetworkActorData@@@Z$0:
  00000	8d 4d d4	 lea	 ecx, DWORD PTR _strMapName$2[ebp]
  00003	e9 00 00 00 00	 jmp	 ??1?$basic_string@DU?$char_traits@D@std@@V?$allocator@D@2@@std@@QAE@XZ ; std::basic_string<char,std::char_traits<char>,std::allocator<char> >::~basic_string<char,std::char_traits<char>,std::allocator<char> >
  00008	cc		 int	 3
  00009	cc		 int	 3
  0000a	cc		 int	 3
  0000b	cc		 int	 3
  0000c	cc		 int	 3
__ehhandler$?__RecvCharacterAppendPacket@CPythonNetworkStream@@IAEXPAUSNetworkActorData@@@Z:
  0000d	90		 npad	 1
  0000e	90		 npad	 1
  0000f	8b 54 24 08	 mov	 edx, DWORD PTR [esp+8]
  00013	8d 42 0c	 lea	 eax, DWORD PTR [edx+12]
  00016	8b 4a c8	 mov	 ecx, DWORD PTR [edx-56]
  00019	33 c8		 xor	 ecx, eax
  0001b	e8 00 00 00 00	 call	 @__security_check_cookie@4
  00020	8b 4a f8	 mov	 ecx, DWORD PTR [edx-8]
  00023	33 c8		 xor	 ecx, eax
  00025	e8 00 00 00 00	 call	 @__security_check_cookie@4
  0002a	b8 00 00 00 00	 mov	 eax, OFFSET __ehfuncinfo$?__RecvCharacterAppendPacket@CPythonNetworkStream@@IAEXPAUSNetworkActorData@@@Z
  0002f	e9 00 00 00 00	 jmp	 ___CxxFrameHandler3
text$x	ENDS
?__RecvCharacterAppendPacket@CPythonNetworkStream@@IAEXPAUSNetworkActorData@@@Z ENDP ; CPythonNetworkStream::__RecvCharacterAppendPacket
; Function compile flags: /Ogtp
; File E:\Metin2_server\SolWayneSF v6\ClientVS22\source\UserInterface\PythonNetworkStreamPhaseGameActor.cpp
;	COMDAT ?__RecvCharacterUpdatePacket@CPythonNetworkStream@@IAEXPAUSNetworkUpdateActorData@@@Z
_TEXT	SEGMENT
_pkNetUpdateActorData$ = 8				; size = 4
?__RecvCharacterUpdatePacket@CPythonNetworkStream@@IAEXPAUSNetworkUpdateActorData@@@Z PROC ; CPythonNetworkStream::__RecvCharacterUpdatePacket, COMDAT
; _this$ = ecx

; 351  : {

  00000	55		 push	 ebp
  00001	8b ec		 mov	 ebp, esp
  00003	53		 push	 ebx
  00004	56		 push	 esi
  00005	8b d9		 mov	 ebx, ecx
  00007	57		 push	 edi

; 352  : 	m_rokNetActorMgr->UpdateActor(*pkNetUpdateActorData);

  00008	8b 7d 08	 mov	 edi, DWORD PTR _pkNetUpdateActorData$[ebp]
  0000b	57		 push	 edi
  0000c	8b 8b 14 03 00
	00		 mov	 ecx, DWORD PTR [ebx+788]
  00012	e8 00 00 00 00	 call	 ?UpdateActor@CNetworkActorManager@@QAEXABUSNetworkUpdateActorData@@@Z ; CNetworkActorManager::UpdateActor

; 353  : 
; 354  : 	IAbstractPlayer& rkPlayer = IAbstractPlayer::GetSingleton();

  00017	8b 35 00 00 00
	00		 mov	 esi, DWORD PTR ?ms_singleton@?$TAbstractSingleton@VIAbstractPlayer@@@@0PAVIAbstractPlayer@@A ; TAbstractSingleton<IAbstractPlayer>::ms_singleton

; 355  : 	if (rkPlayer.IsMainCharacterIndex(pkNetUpdateActorData->m_dwVID))

  0001d	8b ce		 mov	 ecx, esi
  0001f	ff 37		 push	 DWORD PTR [edi]
  00021	8b 06		 mov	 eax, DWORD PTR [esi]
  00023	8b 40 0c	 mov	 eax, DWORD PTR [eax+12]
  00026	ff d0		 call	 eax
  00028	84 c0		 test	 al, al
  0002a	74 33		 je	 SHORT $LN2@RecvCharac

; 356  : 	{
; 357  : 		__SetGuildID(pkNetUpdateActorData->m_dwGuildID);

  0002c	ff 77 04	 push	 DWORD PTR [edi+4]
  0002f	8b cb		 mov	 ecx, ebx
  00031	e8 00 00 00 00	 call	 ?__SetGuildID@CPythonNetworkStream@@IAEXK@Z ; CPythonNetworkStream::__SetGuildID

; 358  : 		__SetWeaponPower(rkPlayer, pkNetUpdateActorData->m_dwWeapon);

  00036	8b 57 0c	 mov	 edx, DWORD PTR [edi+12]
  00039	8b ce		 mov	 ecx, esi
  0003b	e8 00 00 00 00	 call	 ?__SetWeaponPower@@YAXAAVIAbstractPlayer@@K@Z ; __SetWeaponPower

; 359  : 
; 360  : 		__RefreshStatus();

  00040	8b cb		 mov	 ecx, ebx
  00042	e8 00 00 00 00	 call	 ?__RefreshStatus@CPythonNetworkStream@@IAEXXZ ; CPythonNetworkStream::__RefreshStatus

; 361  : 		__RefreshAlignmentWindow();

  00047	e8 00 00 00 00	 call	 ?__RefreshAlignmentWindow@CPythonNetworkStream@@IAEXXZ ; CPythonNetworkStream::__RefreshAlignmentWindow

; 362  : 		__RefreshEquipmentWindow();

  0004c	8b cb		 mov	 ecx, ebx
  0004e	e8 00 00 00 00	 call	 ?__RefreshEquipmentWindow@CPythonNetworkStream@@IAEXXZ ; CPythonNetworkStream::__RefreshEquipmentWindow

; 363  : 		__RefreshInventoryWindow();

  00053	e8 00 00 00 00	 call	 ?__RefreshInventoryWindow@CPythonNetworkStream@@IAEXXZ ; CPythonNetworkStream::__RefreshInventoryWindow

; 368  : 	}
; 369  : }

  00058	5f		 pop	 edi
  00059	5e		 pop	 esi
  0005a	5b		 pop	 ebx
  0005b	5d		 pop	 ebp
  0005c	c2 04 00	 ret	 4
$LN2@RecvCharac:

; 364  : 	}
; 365  : 	else
; 366  : 	{
; 367  : 		rkPlayer.NotifyCharacterUpdate(pkNetUpdateActorData->m_dwVID);

  0005f	8b 06		 mov	 eax, DWORD PTR [esi]
  00061	8b ce		 mov	 ecx, esi
  00063	ff 37		 push	 DWORD PTR [edi]
  00065	ff 50 64	 call	 DWORD PTR [eax+100]

; 368  : 	}
; 369  : }

  00068	5f		 pop	 edi
  00069	5e		 pop	 esi
  0006a	5b		 pop	 ebx
  0006b	5d		 pop	 ebp
  0006c	c2 04 00	 ret	 4
?__RecvCharacterUpdatePacket@CPythonNetworkStream@@IAEXPAUSNetworkUpdateActorData@@@Z ENDP ; CPythonNetworkStream::__RecvCharacterUpdatePacket
_TEXT	ENDS
END
