; Listing generated by Microsoft (R) Optimizing Compiler Version 19.34.31937.0 

	TITLE	e:\metin2_server\solwaynesf v6\clientvs22\vs_files\userinterface\distribute\pythoncharactermodule.obj
	.686P
	.XMM
	include listing.inc
	.model	flat

INCLUDELIB OLDNAMES

PUBLIC	??_C@_0CM@KLFAONCN@RequestPetName?3?5petname?5lenght?5@ ; `string'
PUBLIC	??_C@_06LJIOOKLP@NONAME@			; `string'
PUBLIC	??_C@_05DOPDBCAL@horse@				; `string'
PUBLIC	??_C@_01FJMABOPO@x@				; `string'
PUBLIC	??_C@_01EANLCPLP@y@				; `string'
PUBLIC	??_C@_04OHJIHAFH@None@				; `string'
PUBLIC	??_C@_0O@HFPHAOI@DismountHorse@			; `string'
PUBLIC	??_C@_0L@LJFIMMEM@MountHorse@			; `string'
PUBLIC	??_C@_06HIPPCDGO@Deform@			; `string'
PUBLIC	??_C@_0P@PGGGILHJ@CreateInstance@		; `string'
PUBLIC	??_C@_0P@OKILCDFI@DeleteInstance@		; `string'
PUBLIC	??_C@_0BF@EFFECMK@DeleteInstanceByFade@		; `string'
PUBLIC	??_C@_0P@HKEJIIJD@SelectInstance@		; `string'
PUBLIC	??_C@_0M@OJLCDJBP@HasInstance@			; `string'
PUBLIC	??_C@_07LKBCPMOI@IsEnemy@			; `string'
PUBLIC	??_C@_05BEDLICJP@IsNPC@				; `string'
PUBLIC	??_C@_0N@ICHIKNBJ@IsGameMaster@			; `string'
PUBLIC	??_C@_0O@FJCFNEGL@IsPartyMember@		; `string'
PUBLIC	??_C@_06HJGPBJLE@Select@			; `string'
PUBLIC	??_C@_0BB@FAHKALE@SetAddRenderMode@		; `string'
PUBLIC	??_C@_0BD@GJEGGPMO@SetBlendRenderMode@		; `string'
PUBLIC	??_C@_08DABDFNEI@Unselect@			; `string'
PUBLIC	??_C@_04EACEFPPN@Hide@				; `string'
PUBLIC	??_C@_04JLAJABDJ@Show@				; `string'
PUBLIC	??_C@_04ILHILILF@Pick@				; `string'
PUBLIC	??_C@_07BKHKMIHJ@PickAll@			; `string'
PUBLIC	??_C@_08CNNBONE@SetArmor@			; `string'
PUBLIC	??_C@_09LJGLIMMG@SetWeapon@			; `string'
PUBLIC	??_C@_0M@GMFNPFHE@ChangeShape@			; `string'
PUBLIC	??_C@_07JLBLBOHA@SetRace@			; `string'
PUBLIC	??_C@_07LJFPJABD@SetHair@			; `string'
PUBLIC	??_C@_0L@DAKFNGKA@ChangeHair@			; `string'
PUBLIC	??_C@_0N@GNEKMNPE@SetVirtualID@			; `string'
PUBLIC	??_C@_0O@OBMFICKC@SetNameString@		; `string'
PUBLIC	??_C@_0BA@OIHHKEBP@SetInstanceType@		; `string'
PUBLIC	??_C@_0BB@PNLNCHED@SetPixelPosition@		; `string'
PUBLIC	??_C@_0N@JGECPEGH@SetDirection@			; `string'
PUBLIC	??_C@_07POIENIBA@Refresh@			; `string'
PUBLIC	??_C@_06PGKKGABA@Revive@			; `string'
PUBLIC	??_C@_03JFEBIAME@Die@				; `string'
PUBLIC	??_C@_0P@GMLDODKO@RequestPetName@		; `string'
PUBLIC	??_C@_0BB@NOBBHECI@AttachEffectByID@		; `string'
PUBLIC	??_C@_0BD@HHHMIBBD@AttachEffectByName@		; `string'
PUBLIC	??_C@_06NFNEEJJI@LookAt@			; `string'
PUBLIC	??_C@_0O@MFBHEMHB@SetMotionMode@		; `string'
PUBLIC	??_C@_0O@LMHNCNAM@SetLoopMotion@		; `string'
PUBLIC	??_C@_0BA@JHKNHNFN@BlendLoopMotion@		; `string'
PUBLIC	??_C@_0P@LIJFJIGO@PushOnceMotion@		; `string'
PUBLIC	??_C@_0P@BMNKFJAK@PushLoopMotion@		; `string'
PUBLIC	??_C@_0BB@JJOEJJPB@GetPixelPosition@		; `string'
PUBLIC	??_C@_0M@GNIHGJGG@SetRotation@			; `string'
PUBLIC	??_C@_0P@CAJEFICF@SetRotationAll@		; `string'
PUBLIC	??_C@_0O@MOMBDHP@BlendRotation@			; `string'
PUBLIC	??_C@_0M@GCJJLPOF@GetRotation@			; `string'
PUBLIC	??_C@_07GDOKCBKB@GetRace@			; `string'
PUBLIC	??_C@_07MMGEHGCI@GetName@			; `string'
PUBLIC	??_C@_0N@CEBOCFNC@GetNameByVID@			; `string'
PUBLIC	??_C@_0L@EAKBLDCO@GetGuildID@			; `string'
PUBLIC	??_C@_0BD@EDCEKIDC@GetProjectPosition@		; `string'
PUBLIC	??_C@_0BB@GEKGPEHG@GetVirtualNumber@		; `string'
PUBLIC	??_C@_0BA@NKGBNGAG@GetInstanceType@		; `string'
PUBLIC	??_C@_0BC@NEGEPOJK@GetBoundBoxOnlyXY@		; `string'
PUBLIC	??_C@_09BPCAHBN@RaceToJob@			; `string'
PUBLIC	??_C@_09JBFJGAAF@RaceToSex@			; `string'
PUBLIC	??_C@_0O@NGEBABJL@testGetPKData@		; `string'
PUBLIC	??_C@_09JMNILCLH@FaintTest@			; `string'
PUBLIC	??_C@_0N@NBFDNLFE@SetMoveSpeed@			; `string'
PUBLIC	??_C@_0P@HDBEGKGG@SetAttackSpeed@		; `string'
PUBLIC	??_C@_0BG@IFMOLBHG@WeaponTraceSetTexture@	; `string'
PUBLIC	??_C@_0BE@EGNCJJPB@WeaponTraceUseAlpha@		; `string'
PUBLIC	??_C@_0BG@PMHANMKI@WeaponTraceUseTexture@	; `string'
PUBLIC	??_C@_0BD@DOJIBHBJ@MoveToDestPosition@		; `string'
PUBLIC	??_C@_0BB@DPBIMGC@testSetComboType@		; `string'
PUBLIC	??_C@_0BF@KKAOKOCP@testSetAddRenderMode@	; `string'
PUBLIC	??_C@_0BK@MMJPLJAB@testSetModulateRenderMode@	; `string'
PUBLIC	??_C@_0BI@DCLDMMPM@testSetAddRenderModeRGB@	; `string'
PUBLIC	??_C@_0BN@ICOLIADE@testSetModulateRenderModeRGB@ ; `string'
PUBLIC	??_C@_0BK@PFCOBJBF@testSetSpecularRenderMode@	; `string'
PUBLIC	??_C@_0BL@IAFIJOID@testSetSpecularRenderMode2@	; `string'
PUBLIC	??_C@_0BG@PPLDMJLI@testRestoreRenderMode@	; `string'
PUBLIC	??_C@_0P@OHFCMBLI@testSetRideMan@		; `string'
PUBLIC	??_C@_07PPDOKPN@SetSash@			; `string'
PUBLIC	??_C@_03KMOFPJOC@chr@				; `string'
PUBLIC	??_C@_0BE@BCBGONIE@PLAYER_NAME_MAX_LEN@		; `string'
PUBLIC	??_C@_0M@GHHHCAEH@MOTION_NONE@			; `string'
PUBLIC	??_C@_0N@JMBMLHMG@MOTION_SPAWN@			; `string'
PUBLIC	??_C@_0M@LMMOJHBC@MOTION_WAIT@			; `string'
PUBLIC	??_C@_0M@HHFPFLGH@MOTION_WALK@			; `string'
PUBLIC	??_C@_0L@KHKCPAAF@MOTION_RUN@			; `string'
PUBLIC	??_C@_0BF@ICKHJCNJ@MOTION_CHANGE_WEAPON@	; `string'
PUBLIC	??_C@_0O@CKDFGNMB@MOTION_DAMAGE@		; `string'
PUBLIC	??_C@_0BF@LNCKFICM@MOTION_DAMAGE_FLYING@	; `string'
PUBLIC	??_C@_0BA@IDCGGFKN@MOTION_STAND_UP@		; `string'
PUBLIC	??_C@_0BD@MNOACOOC@MOTION_DAMAGE_BACK@		; `string'
PUBLIC	??_C@_0BK@PDCLNNIP@MOTION_DAMAGE_FLYING_BACK@	; `string'
PUBLIC	??_C@_0BF@DFDDIGMI@MOTION_STAND_UP_BACK@	; `string'
PUBLIC	??_C@_0M@FADNKOPO@MOTION_DEAD@			; `string'
PUBLIC	??_C@_0BB@FBKKIAJJ@MOTION_DEAD_BACK@		; `string'
PUBLIC	??_C@_0BF@PDLLCGCI@MOTION_NORMAL_ATTACK@	; `string'
PUBLIC	??_C@_0BG@NHAANOLG@MOTION_COMBO_ATTACK_1@	; `string'
PUBLIC	??_C@_0BG@PMCNINHF@MOTION_COMBO_ATTACK_2@	; `string'
PUBLIC	??_C@_0BG@OFDGLMDE@MOTION_COMBO_ATTACK_3@	; `string'
PUBLIC	??_C@_0BG@KKHHCKPD@MOTION_COMBO_ATTACK_4@	; `string'
PUBLIC	??_C@_0BG@LDGMBLLC@MOTION_COMBO_ATTACK_5@	; `string'
PUBLIC	??_C@_0BG@JIEBEIHB@MOTION_COMBO_ATTACK_6@	; `string'
PUBLIC	??_C@_0BG@IBFKHJDA@MOTION_COMBO_ATTACK_7@	; `string'
PUBLIC	??_C@_0BG@GMCGFPP@MOTION_COMBO_ATTACK_8@	; `string'
PUBLIC	??_C@_0BC@KGBJGDBO@MOTION_INTRO_WAIT@		; `string'
PUBLIC	??_C@_0BG@KEIOCEDJ@MOTION_INTRO_SELECTED@	; `string'
PUBLIC	??_C@_0BK@BEALLN@MOTION_INTRO_NOT_SELECTED@	; `string'
PUBLIC	??_C@_0BF@CHLKIEFK@MOTION_FISHING_THROW@	; `string'
PUBLIC	??_C@_0BE@MOCHIGHH@MOTION_FISHING_WAIT@		; `string'
PUBLIC	??_C@_0BE@DMIBDOKM@MOTION_FISHING_STOP@		; `string'
PUBLIC	??_C@_0BF@GJOIPBCA@MOTION_FISHING_REACT@	; `string'
PUBLIC	??_C@_0BF@NFFCHMCO@MOTION_FISHING_CATCH@	; `string'
PUBLIC	??_C@_0BE@BBLMKABM@MOTION_FISHING_FAIL@		; `string'
PUBLIC	??_C@_0M@EOGICPMJ@MOTION_STOP@			; `string'
PUBLIC	??_C@_0N@GMNNBHKJ@MOTION_SKILL@			; `string'
PUBLIC	??_C@_0M@LBLLOKDB@MOTION_CLAP@			; `string'
PUBLIC	??_C@_0P@GNPIAPBK@MOTION_DANCE_1@		; `string'
PUBLIC	??_C@_0P@EGNFFMNJ@MOTION_DANCE_2@		; `string'
PUBLIC	??_C@_0P@FPMOGNJI@MOTION_DANCE_3@		; `string'
PUBLIC	??_C@_0P@BAIPPLFP@MOTION_DANCE_4@		; `string'
PUBLIC	??_C@_0P@JJEMKBO@MOTION_DANCE_5@		; `string'
PUBLIC	??_C@_0P@CCLJJJNN@MOTION_DANCE_6@		; `string'
PUBLIC	??_C@_0BG@BMOIGNKG@MOTION_CONGRATULATION@	; `string'
PUBLIC	??_C@_0P@PACCCPNP@MOTION_FORGIVE@		; `string'
PUBLIC	??_C@_0N@CLPBCEBE@MOTION_ANGRY@			; `string'
PUBLIC	??_C@_0BC@MOMKLPKF@MOTION_ATTRACTIVE@		; `string'
PUBLIC	??_C@_0L@PONOHEEG@MOTION_SAD@			; `string'
PUBLIC	??_C@_0L@OGDCDNF@MOTION_SHY@			; `string'
PUBLIC	??_C@_0P@KLJNPGKF@MOTION_CHEERUP@		; `string'
PUBLIC	??_C@_0O@GPIFNFHO@MOTION_BANTER@		; `string'
PUBLIC	??_C@_0L@CGDNCNEF@MOTION_JOY@			; `string'
PUBLIC	??_C@_0BA@EOHNNFMC@MOTION_CHEERS_1@		; `string'
PUBLIC	??_C@_0BA@GFFAIGAB@MOTION_CHEERS_2@		; `string'
PUBLIC	??_C@_0BJ@BNMGACEI@MOTION_KISS_WITH_WARRIOR@	; `string'
PUBLIC	??_C@_0BK@PEHNDAJC@MOTION_KISS_WITH_ASSASSIN@	; `string'
PUBLIC	??_C@_0BG@FBINLMID@MOTION_KISS_WITH_SURA@	; `string'
PUBLIC	??_C@_0BI@BPAFKDHB@MOTION_KISS_WITH_SHAMAN@	; `string'
PUBLIC	??_C@_0CA@MCOGAAOA@MOTION_FRENCH_KISS_WITH_WARRIOR@ ; `string'
PUBLIC	??_C@_0CB@CMKPDLEK@MOTION_FRENCH_KISS_WITH_ASSASSI@ ; `string'
PUBLIC	??_C@_0BN@OJCLLFKP@MOTION_FRENCH_KISS_WITH_SURA@ ; `string'
PUBLIC	??_C@_0BP@FPOIMINN@MOTION_FRENCH_KISS_WITH_SHAMAN@ ; `string'
PUBLIC	??_C@_0BN@KKCFGBMO@MOTION_SLAP_HIT_WITH_WARRIOR@ ; `string'
PUBLIC	??_C@_0BO@PABBPFOE@MOTION_SLAP_HIT_WITH_ASSASSIN@ ; `string'
PUBLIC	??_C@_0BK@BLGFNMMI@MOTION_SLAP_HIT_WITH_SURA@	; `string'
PUBLIC	??_C@_0BM@EBDKBOAP@MOTION_SLAP_HIT_WITH_SHAMAN@	; `string'
PUBLIC	??_C@_0BO@ENJIKGO@MOTION_SLAP_HURT_WITH_WARRIOR@ ; `string'
PUBLIC	??_C@_0BP@CGGJKKOH@MOTION_SLAP_HURT_WITH_ASSASSIN@ ; `string'
PUBLIC	??_C@_0BL@MNIFOENP@MOTION_SLAP_HURT_WITH_SURA@	; `string'
PUBLIC	??_C@_0BN@GMLLPEOH@MOTION_SLAP_HURT_WITH_SHAMAN@ ; `string'
PUBLIC	??_C@_0L@BGCOBJBL@MOTION_DIG@			; `string'
PUBLIC	??_C@_0BF@JPHCAJND@MOTION_MODE_RESERVED@	; `string'
PUBLIC	??_C@_0BE@PPOENDHJ@MOTION_MODE_GENERAL@		; `string'
PUBLIC	??_C@_0BK@EGEANFHJ@MOTION_MODE_ONEHAND_SWORD@	; `string'
PUBLIC	??_C@_0BK@LGGPJGKL@MOTION_MODE_TWOHAND_SWORD@	; `string'
PUBLIC	??_C@_0BL@BILJFJA@MOTION_MODE_DUALHAND_SWORD@	; `string'
PUBLIC	??_C@_0BA@BFLJJHOH@MOTION_MODE_BOW@		; `string'
PUBLIC	??_C@_0BI@OIGGOELP@MOTION_MODE_BOW_SPECIAL@	; `string'
PUBLIC	??_C@_0BA@LEFIEKC@MOTION_MODE_FAN@		; `string'
PUBLIC	??_C@_0BB@BNHJGCLA@MOTION_MODE_BELL@		; `string'
PUBLIC	??_C@_0BE@NMIGCCAP@MOTION_MODE_FISHING@		; `string'
PUBLIC	??_C@_0BC@KOFIOII@MOTION_MODE_HORSE@		; `string'
PUBLIC	??_C@_0CA@LBDCIFIC@MOTION_MODE_HORSE_ONEHAND_SWORD@ ; `string'
PUBLIC	??_C@_0CA@EBBNMGFA@MOTION_MODE_HORSE_TWOHAND_SWORD@ ; `string'
PUBLIC	??_C@_0CB@CLBDMMFE@MOTION_MODE_HORSE_DUALHAND_SWOR@ ; `string'
PUBLIC	??_C@_0BG@FPIIPCL@MOTION_MODE_HORSE_BOW@	; `string'
PUBLIC	??_C@_0BG@BLAEJMGO@MOTION_MODE_HORSE_FAN@	; `string'
PUBLIC	??_C@_0BH@IPLLKNDD@MOTION_MODE_HORSE_BELL@	; `string'
PUBLIC	??_C@_0BK@EFEKGCKJ@MOTION_MODE_WEDDING_DRESS@	; `string'
PUBLIC	??_C@_09OGGLMICG@DIR_NORTH@			; `string'
PUBLIC	??_C@_0O@NGBDCCOD@DIR_NORTHEAST@		; `string'
PUBLIC	??_C@_08OGFOMCPI@DIR_EAST@			; `string'
PUBLIC	??_C@_0O@OIGCBKC@DIR_SOUTHEAST@			; `string'
PUBLIC	??_C@_09MEPEOBNK@DIR_SOUTH@			; `string'
PUBLIC	??_C@_0O@JLMEHCBH@DIR_SOUTHWEST@		; `string'
PUBLIC	??_C@_08HDBMJBEN@DIR_WEST@			; `string'
PUBLIC	??_C@_0O@EDFBHBFG@DIR_NORTHWEST@		; `string'
PUBLIC	??_C@_0BF@LBEOLJOH@INSTANCE_TYPE_PLAYER@	; `string'
PUBLIC	??_C@_0BC@HPKLHBPD@INSTANCE_TYPE_NPC@		; `string'
PUBLIC	??_C@_0BE@JLNEPCAN@INSTANCE_TYPE_ENEMY@		; `string'
PUBLIC	??_C@_0BH@FNPAMCND@INSTANCE_TYPE_BUILDING@	; `string'
PUBLIC	??_C@_0BF@CFBKDGLC@INSTANCE_TYPE_OBJECT@	; `string'
PUBLIC	??_C@_09HAMNFDMJ@PART_HEAD@			; `string'
PUBLIC	??_C@_0O@FFCFHML@AFFECT_POISON@			; `string'
PUBLIC	??_C@_0M@LLKNMBHE@AFFECT_SLOW@			; `string'
PUBLIC	??_C@_0M@KELBDBLK@AFFECT_STUN@			; `string'
PUBLIC	??_C@_0BI@BEKPJJEK@AFFECT_MOV_SPEED_POTION@	; `string'
PUBLIC	??_C@_0BI@JFMNFFKJ@AFFECT_ATT_SPEED_POTION@	; `string'
PUBLIC	??_C@_0BB@HABGKKCK@AFFECT_FISH_MIND@		; `string'
PUBLIC	??_C@_0P@PMGJMPLA@AFFECT_JEONGWI@		; `string'
PUBLIC	??_C@_0BC@BPIBLGH@AFFECT_GEOMGYEONG@		; `string'
PUBLIC	??_C@_0BB@NMEHKBDD@AFFECT_CHEONGEUN@		; `string'
PUBLIC	??_C@_0BC@DNOFICLK@AFFECT_GYEONGGONG@		; `string'
PUBLIC	??_C@_0BB@NOAECAHF@AFFECT_EUNHYEONG@		; `string'
PUBLIC	??_C@_0P@JADECJKN@AFFECT_GWIGEOM@		; `string'
PUBLIC	??_C@_0O@MEBBDMFP@AFFECT_GONGPO@		; `string'
PUBLIC	??_C@_0P@NHIEBDHO@AFFECT_JUMAGAP@		; `string'
PUBLIC	??_C@_0N@BLOPJELK@AFFECT_HOSIN@			; `string'
PUBLIC	??_C@_0M@HDMMFOHE@AFFECT_BOHO@			; `string'
PUBLIC	??_C@_0P@HCCAECCK@AFFECT_KWAESOK@		; `string'
PUBLIC	??_C@_0P@FCGDLODF@AFFECT_HEUKSIN@		; `string'
PUBLIC	??_C@_0P@HLONBHGO@AFFECT_MUYEONG@		; `string'
PUBLIC	??_C@_0P@KPDDCJEK@AFFECT_GICHEON@		; `string'
PUBLIC	??_C@_0BC@HABANGHD@AFFECT_JEUNGRYEOK@		; `string'
PUBLIC	??_C@_0O@OJLLDADG@AFFECT_PABEOP@		; `string'
PUBLIC	??_C@_0BI@CFDHLOMB@AFFECT_FALLEN_CHEONGEUN@	; `string'
PUBLIC	??_C@_0BG@DFBDCPEK@AFFECT_CHINA_FIREWORK@	; `string'
PUBLIC	??_C@_0BA@DBLFIOAN@NEW_AFFECT_MALL@		; `string'
PUBLIC	??_C@_0BM@NOKMEHMP@NEW_AFFECT_NO_DEATH_PENALTY@	; `string'
PUBLIC	??_C@_0BM@ELPJNNPH@NEW_AFFECT_SKILL_BOOK_BONUS@	; `string'
PUBLIC	??_C@_0BP@ILCIKFOJ@NEW_AFFECT_SKILL_BOOK_NO_DELAY@ ; `string'
PUBLIC	??_C@_0BF@IGFBIBCE@NEW_AFFECT_EXP_BONUS@	; `string'
PUBLIC	??_C@_0BP@PLLCKPKL@NEW_AFFECT_EXP_BONUS_EURO_FREE@ ; `string'
PUBLIC	??_C@_0CI@CIBKFDJK@NEW_AFFECT_EXP_BONUS_EURO_FREE_@ ; `string'
PUBLIC	??_C@_0BG@GBJOJDKK@NEW_AFFECT_ITEM_BONUS@	; `string'
PUBLIC	??_C@_0BD@OLNAIOLN@NEW_AFFECT_SAFEBOX@		; `string'
PUBLIC	??_C@_0BE@OGKIHHNM@NEW_AFFECT_AUTOLOOT@		; `string'
PUBLIC	??_C@_0BF@LHIEHLCN@NEW_AFFECT_FISH_MIND@	; `string'
PUBLIC	??_C@_0BJ@DEPPJPLB@NEW_AFFECT_MARRIAGE_FAST@	; `string'
PUBLIC	??_C@_0BG@FPEKGPMD@NEW_AFFECT_GOLD_BONUS@	; `string'
PUBLIC	??_C@_0BM@DLPBDIOI@NEW_AFFECT_AUTO_HP_RECOVERY@	; `string'
PUBLIC	??_C@_0BM@EGHLHBBK@NEW_AFFECT_AUTO_SP_RECOVERY@	; `string'
PUBLIC	??_C@_0CB@MMNLNBEI@NEW_AFFECT_DRAGON_SOUL_QUALIFIE@ ; `string'
PUBLIC	??_C@_0BN@DIIGGCFL@NEW_AFFECT_DRAGON_SOUL_DECK1@ ; `string'
PUBLIC	??_C@_0BN@BDKLDBJI@NEW_AFFECT_DRAGON_SOUL_DECK2@ ; `string'
PUBLIC	??_C@_09FLIIFKBP@PART_SASH@			; `string'
EXTRN	?UseTextureWeaponTrace@CActorInstance@@QAEXXZ:PROC ; CActorInstance::UseTextureWeaponTrace
EXTRN	?UseAlphaWeaponTrace@CActorInstance@@QAEXXZ:PROC ; CActorInstance::UseAlphaWeaponTrace
EXTRN	?SetFaint@CActorInstance@@QAEX_N@Z:PROC		; CActorInstance::SetFaint
EXTRN	?SetWeaponTraceTexture@CActorInstance@@QAEXPBD@Z:PROC ; CActorInstance::SetWeaponTraceTexture
EXTRN	?IsFaint@CActorInstance@@QAEHXZ:PROC		; CActorInstance::IsFaint
EXTRN	?SetSpecularInfoForce@CActorInstance@@QAEXHHM@Z:PROC ; CActorInstance::SetSpecularInfoForce
EXTRN	?ProjectPosition@CScreen@@QAEXMMMPAM00@Z:PROC	; CScreen::ProjectPosition
EXTRN	?SetSpecularInfo@CActorInstance@@QAEXHHM@Z:PROC	; CActorInstance::SetSpecularInfo
EXTRN	?SetXYRotation@CActorInstance@@QAEXMM@Z:PROC	; CActorInstance::SetXYRotation
EXTRN	__imp__PyLong_AsLong:PROC
EXTRN	__imp__PyDict_GetItemString:PROC
EXTRN	__imp__PyTuple_Size:PROC
EXTRN	__imp__PyArg_ParseTuple:PROC
;	COMDAT ?s_methods@?1??initchr@@YAXXZ@4PAUPyMethodDef@@A
_DATA	SEGMENT
?s_methods@?1??initchr@@YAXXZ@4PAUPyMethodDef@@A DD FLAT:??_C@_0O@HFPHAOI@DismountHorse@ ; `initchr'::`2'::s_methods
	DD	FLAT:?chrDismountHorse@@YAPAU_object@@PAU1@0@Z
	DD	01H
	ORG $+4
	DD	FLAT:??_C@_0L@LJFIMMEM@MountHorse@
	DD	FLAT:?chrMountHorse@@YAPAU_object@@PAU1@0@Z
	DD	01H
	ORG $+4
	DD	FLAT:??_C@_07BDCAJABG@Destroy@
	DD	FLAT:?chrDestroy@@YAPAU_object@@PAU1@0@Z
	DD	01H
	ORG $+4
	DD	FLAT:??_C@_06LMAGPFNF@Update@
	DD	FLAT:?chrUpdate@@YAPAU_object@@PAU1@0@Z
	DD	01H
	ORG $+4
	DD	FLAT:??_C@_06HIPPCDGO@Deform@
	DD	FLAT:?chrDeform@@YAPAU_object@@PAU1@0@Z
	DD	01H
	ORG $+4
	DD	FLAT:??_C@_06EPLDPNDB@Render@
	DD	FLAT:?chrRender@@YAPAU_object@@PAU1@0@Z
	DD	01H
	ORG $+4
	DD	FLAT:??_C@_0BA@OAOAOPAN@RenderCollision@
	DD	FLAT:?chrRenderCollision@@YAPAU_object@@PAU1@0@Z
	DD	01H
	ORG $+4
	DD	FLAT:??_C@_0P@PGGGILHJ@CreateInstance@
	DD	FLAT:?chrCreateInstance@@YAPAU_object@@PAU1@0@Z
	DD	01H
	ORG $+4
	DD	FLAT:??_C@_0P@OKILCDFI@DeleteInstance@
	DD	FLAT:?chrDeleteInstance@@YAPAU_object@@PAU1@0@Z
	DD	01H
	ORG $+4
	DD	FLAT:??_C@_0BF@EFFECMK@DeleteInstanceByFade@
	DD	FLAT:?chrDeleteInstanceByFade@@YAPAU_object@@PAU1@0@Z
	DD	01H
	ORG $+4
	DD	FLAT:??_C@_0P@HKEJIIJD@SelectInstance@
	DD	FLAT:?chrSelectInstance@@YAPAU_object@@PAU1@0@Z
	DD	01H
	ORG $+4
	DD	FLAT:??_C@_0M@OJLCDJBP@HasInstance@
	DD	FLAT:?chrHasInstance@@YAPAU_object@@PAU1@0@Z
	DD	01H
	ORG $+4
	DD	FLAT:??_C@_07LKBCPMOI@IsEnemy@
	DD	FLAT:?chrIsEnemy@@YAPAU_object@@PAU1@0@Z
	DD	01H
	ORG $+4
	DD	FLAT:??_C@_05BEDLICJP@IsNPC@
	DD	FLAT:?chrIsNPC@@YAPAU_object@@PAU1@0@Z
	DD	01H
	ORG $+4
	DD	FLAT:??_C@_0N@ICHIKNBJ@IsGameMaster@
	DD	FLAT:?chrIsGameMaster@@YAPAU_object@@PAU1@0@Z
	DD	01H
	ORG $+4
	DD	FLAT:??_C@_0O@FJCFNEGL@IsPartyMember@
	DD	FLAT:?chrIsPartyMember@@YAPAU_object@@PAU1@0@Z
	DD	01H
	ORG $+4
	DD	FLAT:??_C@_06HJGPBJLE@Select@
	DD	FLAT:?chrSelect@@YAPAU_object@@PAU1@0@Z
	DD	01H
	ORG $+4
	DD	FLAT:??_C@_0BB@FAHKALE@SetAddRenderMode@
	DD	FLAT:?chrSetAddRenderMode@@YAPAU_object@@PAU1@0@Z
	DD	01H
	ORG $+4
	DD	FLAT:??_C@_0BD@GJEGGPMO@SetBlendRenderMode@
	DD	FLAT:?chrSetBlendRenderMode@@YAPAU_object@@PAU1@0@Z
	DD	01H
	ORG $+4
	DD	FLAT:??_C@_08DABDFNEI@Unselect@
	DD	FLAT:?chrUnselect@@YAPAU_object@@PAU1@0@Z
	DD	01H
	ORG $+4
	DD	FLAT:??_C@_04EACEFPPN@Hide@
	DD	FLAT:?chrHide@@YAPAU_object@@PAU1@0@Z
	DD	01H
	ORG $+4
	DD	FLAT:??_C@_04JLAJABDJ@Show@
	DD	FLAT:?chrShow@@YAPAU_object@@PAU1@0@Z
	DD	01H
	ORG $+4
	DD	FLAT:??_C@_04ILHILILF@Pick@
	DD	FLAT:?chrPick@@YAPAU_object@@PAU1@0@Z
	DD	01H
	ORG $+4
	DD	FLAT:??_C@_07BKHKMIHJ@PickAll@
	DD	FLAT:?chrPickAll@@YAPAU_object@@PAU1@0@Z
	DD	01H
	ORG $+4
	DD	FLAT:??_C@_08CNNBONE@SetArmor@
	DD	FLAT:?chrSetArmor@@YAPAU_object@@PAU1@0@Z
	DD	01H
	ORG $+4
	DD	FLAT:??_C@_09LJGLIMMG@SetWeapon@
	DD	FLAT:?chrSetWeapon@@YAPAU_object@@PAU1@0@Z
	DD	01H
	ORG $+4
	DD	FLAT:??_C@_0M@GMFNPFHE@ChangeShape@
	DD	FLAT:?chrChangeShape@@YAPAU_object@@PAU1@0@Z
	DD	01H
	ORG $+4
	DD	FLAT:??_C@_07JLBLBOHA@SetRace@
	DD	FLAT:?chrSetRace@@YAPAU_object@@PAU1@0@Z
	DD	01H
	ORG $+4
	DD	FLAT:??_C@_07LJFPJABD@SetHair@
	DD	FLAT:?chrSetHair@@YAPAU_object@@PAU1@0@Z
	DD	01H
	ORG $+4
	DD	FLAT:??_C@_0L@DAKFNGKA@ChangeHair@
	DD	FLAT:?chrChangeHair@@YAPAU_object@@PAU1@0@Z
	DD	01H
	ORG $+4
	DD	FLAT:??_C@_0N@GNEKMNPE@SetVirtualID@
	DD	FLAT:?chrSetVirtualID@@YAPAU_object@@PAU1@0@Z
	DD	01H
	ORG $+4
	DD	FLAT:??_C@_0O@OBMFICKC@SetNameString@
	DD	FLAT:?chrSetNameString@@YAPAU_object@@PAU1@0@Z
	DD	01H
	ORG $+4
	DD	FLAT:??_C@_0BA@OIHHKEBP@SetInstanceType@
	DD	FLAT:?chrSetInstanceType@@YAPAU_object@@PAU1@0@Z
	DD	01H
	ORG $+4
	DD	FLAT:??_C@_0BB@PNLNCHED@SetPixelPosition@
	DD	FLAT:?chrSetPixelPosition@@YAPAU_object@@PAU1@0@Z
	DD	01H
	ORG $+4
	DD	FLAT:??_C@_0N@JGECPEGH@SetDirection@
	DD	FLAT:?chrSetDirection@@YAPAU_object@@PAU1@0@Z
	DD	01H
	ORG $+4
	DD	FLAT:??_C@_07POIENIBA@Refresh@
	DD	FLAT:?chrRefresh@@YAPAU_object@@PAU1@0@Z
	DD	01H
	ORG $+4
	DD	FLAT:??_C@_06PGKKGABA@Revive@
	DD	FLAT:?chrRevive@@YAPAU_object@@PAU1@0@Z
	DD	01H
	ORG $+4
	DD	FLAT:??_C@_03JFEBIAME@Die@
	DD	FLAT:?chrDie@@YAPAU_object@@PAU1@0@Z
	DD	01H
	ORG $+4
	DD	FLAT:??_C@_0P@GMLDODKO@RequestPetName@
	DD	FLAT:?braveRequestPetName@@YAPAU_object@@PAU1@0@Z
	DD	01H
	ORG $+4
	DD	FLAT:??_C@_0BB@NOBBHECI@AttachEffectByID@
	DD	FLAT:?chrAttachEffectByID@@YAPAU_object@@PAU1@0@Z
	DD	01H
	ORG $+4
	DD	FLAT:??_C@_0BD@HHHMIBBD@AttachEffectByName@
	DD	FLAT:?chrAttachEffectByName@@YAPAU_object@@PAU1@0@Z
	DD	01H
	ORG $+4
	DD	FLAT:??_C@_06NFNEEJJI@LookAt@
	DD	FLAT:?chrLookAt@@YAPAU_object@@PAU1@0@Z
	DD	01H
	ORG $+4
	DD	FLAT:??_C@_0O@MFBHEMHB@SetMotionMode@
	DD	FLAT:?chrSetMotionMode@@YAPAU_object@@PAU1@0@Z
	DD	01H
	ORG $+4
	DD	FLAT:??_C@_0O@LMHNCNAM@SetLoopMotion@
	DD	FLAT:?chrSetLoopMotion@@YAPAU_object@@PAU1@0@Z
	DD	01H
	ORG $+4
	DD	FLAT:??_C@_0BA@JHKNHNFN@BlendLoopMotion@
	DD	FLAT:?chrBlendLoopMotion@@YAPAU_object@@PAU1@0@Z
	DD	01H
	ORG $+4
	DD	FLAT:??_C@_0P@LIJFJIGO@PushOnceMotion@
	DD	FLAT:?chrPushOnceMotion@@YAPAU_object@@PAU1@0@Z
	DD	01H
	ORG $+4
	DD	FLAT:??_C@_0P@BMNKFJAK@PushLoopMotion@
	DD	FLAT:?chrPushLoopMotion@@YAPAU_object@@PAU1@0@Z
	DD	01H
	ORG $+4
	DD	FLAT:??_C@_0BB@JJOEJJPB@GetPixelPosition@
	DD	FLAT:?chrGetPixelPosition@@YAPAU_object@@PAU1@0@Z
	DD	01H
	ORG $+4
	DD	FLAT:??_C@_0M@GNIHGJGG@SetRotation@
	DD	FLAT:?chrSetRotation@@YAPAU_object@@PAU1@0@Z
	DD	01H
	ORG $+4
	DD	FLAT:??_C@_0P@CAJEFICF@SetRotationAll@
	DD	FLAT:?chrSetRotationAll@@YAPAU_object@@PAU1@0@Z
	DD	01H
	ORG $+4
	DD	FLAT:??_C@_0O@MOMBDHP@BlendRotation@
	DD	FLAT:?chrBlendRotation@@YAPAU_object@@PAU1@0@Z
	DD	01H
	ORG $+4
	DD	FLAT:??_C@_0M@GCJJLPOF@GetRotation@
	DD	FLAT:?chrGetRotation@@YAPAU_object@@PAU1@0@Z
	DD	01H
	ORG $+4
	DD	FLAT:??_C@_07GDOKCBKB@GetRace@
	DD	FLAT:?chrGetRace@@YAPAU_object@@PAU1@0@Z
	DD	01H
	ORG $+4
	DD	FLAT:??_C@_07MMGEHGCI@GetName@
	DD	FLAT:?chrGetName@@YAPAU_object@@PAU1@0@Z
	DD	01H
	ORG $+4
	DD	FLAT:??_C@_0N@CEBOCFNC@GetNameByVID@
	DD	FLAT:?chrGetNameByVID@@YAPAU_object@@PAU1@0@Z
	DD	01H
	ORG $+4
	DD	FLAT:??_C@_0L@EAKBLDCO@GetGuildID@
	DD	FLAT:?chrGetGuildID@@YAPAU_object@@PAU1@0@Z
	DD	01H
	ORG $+4
	DD	FLAT:??_C@_0BD@EDCEKIDC@GetProjectPosition@
	DD	FLAT:?chrGetProjectPosition@@YAPAU_object@@PAU1@0@Z
	DD	01H
	ORG $+4
	DD	FLAT:??_C@_0BB@GEKGPEHG@GetVirtualNumber@
	DD	FLAT:?chrGetVirtualNumber@@YAPAU_object@@PAU1@0@Z
	DD	01H
	ORG $+4
	DD	FLAT:??_C@_0BA@NKGBNGAG@GetInstanceType@
	DD	FLAT:?chrGetInstanceType@@YAPAU_object@@PAU1@0@Z
	DD	01H
	ORG $+4
	DD	FLAT:??_C@_0BC@NEGEPOJK@GetBoundBoxOnlyXY@
	DD	FLAT:?chrGetBoundBoxOnlyXY@@YAPAU_object@@PAU1@0@Z
	DD	01H
	ORG $+4
	DD	FLAT:??_C@_09BPCAHBN@RaceToJob@
	DD	FLAT:?chrRaceToJob@@YAPAU_object@@PAU1@0@Z
	DD	01H
	ORG $+4
	DD	FLAT:??_C@_09JBFJGAAF@RaceToSex@
	DD	FLAT:?chrRaceToSex@@YAPAU_object@@PAU1@0@Z
	DD	01H
	ORG $+4
	DD	FLAT:??_C@_0O@NGEBABJL@testGetPKData@
	DD	FLAT:?chrtestGetPKData@@YAPAU_object@@PAU1@0@Z
	DD	01H
	ORG $+4
	DD	FLAT:??_C@_09JMNILCLH@FaintTest@
	DD	FLAT:?chrFaintTest@@YAPAU_object@@PAU1@0@Z
	DD	01H
	ORG $+4
	DD	FLAT:??_C@_0N@NBFDNLFE@SetMoveSpeed@
	DD	FLAT:?chrSetMoveSpeed@@YAPAU_object@@PAU1@0@Z
	DD	01H
	ORG $+4
	DD	FLAT:??_C@_0P@HDBEGKGG@SetAttackSpeed@
	DD	FLAT:?chrSetAttackSpeed@@YAPAU_object@@PAU1@0@Z
	DD	01H
	ORG $+4
	DD	FLAT:??_C@_0BG@IFMOLBHG@WeaponTraceSetTexture@
	DD	FLAT:?chrWeaponTraceSetTexture@@YAPAU_object@@PAU1@0@Z
	DD	01H
	ORG $+4
	DD	FLAT:??_C@_0BE@EGNCJJPB@WeaponTraceUseAlpha@
	DD	FLAT:?chrWeaponTraceUseAlpha@@YAPAU_object@@PAU1@0@Z
	DD	01H
	ORG $+4
	DD	FLAT:??_C@_0BG@PMHANMKI@WeaponTraceUseTexture@
	DD	FLAT:?chrWeaponTraceUseTexture@@YAPAU_object@@PAU1@0@Z
	DD	01H
	ORG $+4
	DD	FLAT:??_C@_0BD@DOJIBHBJ@MoveToDestPosition@
	DD	FLAT:?chrMoveToDestPosition@@YAPAU_object@@PAU1@0@Z
	DD	01H
	ORG $+4
	DD	FLAT:??_C@_0BB@DPBIMGC@testSetComboType@
	DD	FLAT:?chrtestSetComboType@@YAPAU_object@@PAU1@0@Z
	DD	01H
	ORG $+4
	DD	FLAT:??_C@_0BF@KKAOKOCP@testSetAddRenderMode@
	DD	FLAT:?chrtestSetAddRenderMode@@YAPAU_object@@PAU1@0@Z
	DD	01H
	ORG $+4
	DD	FLAT:??_C@_0BK@MMJPLJAB@testSetModulateRenderMode@
	DD	FLAT:?chrtestSetModulateRenderMode@@YAPAU_object@@PAU1@0@Z
	DD	01H
	ORG $+4
	DD	FLAT:??_C@_0BI@DCLDMMPM@testSetAddRenderModeRGB@
	DD	FLAT:?chrtestSetAddRenderModeRGB@@YAPAU_object@@PAU1@0@Z
	DD	01H
	ORG $+4
	DD	FLAT:??_C@_0BN@ICOLIADE@testSetModulateRenderModeRGB@
	DD	FLAT:?chrtestSetModulateRenderModeRGB@@YAPAU_object@@PAU1@0@Z
	DD	01H
	ORG $+4
	DD	FLAT:??_C@_0BK@PFCOBJBF@testSetSpecularRenderMode@
	DD	FLAT:?chrtestSetSpecularRenderMode@@YAPAU_object@@PAU1@0@Z
	DD	01H
	ORG $+4
	DD	FLAT:??_C@_0BL@IAFIJOID@testSetSpecularRenderMode2@
	DD	FLAT:?chrtestSetSpecularRenderMode2@@YAPAU_object@@PAU1@0@Z
	DD	01H
	ORG $+4
	DD	FLAT:??_C@_0BG@PPLDMJLI@testRestoreRenderMode@
	DD	FLAT:?chrtestRestoreRenderMode@@YAPAU_object@@PAU1@0@Z
	DD	01H
	ORG $+4
	DD	FLAT:??_C@_0P@OHFCMBLI@testSetRideMan@
	DD	FLAT:?chrtestSetRideMan@@YAPAU_object@@PAU1@0@Z
	DD	01H
	ORG $+4
	DD	FLAT:??_C@_07PPDOKPN@SetSash@
	DD	FLAT:?chrSetSash@@YAPAU_object@@PAU1@0@Z
	DD	01H
	ORG $+4
	DD	00H
	DD	00H
	DD	00H
	ORG $+4
_DATA	ENDS
;	COMDAT ??_C@_09FLIIFKBP@PART_SASH@
CONST	SEGMENT
??_C@_09FLIIFKBP@PART_SASH@ DB 'PART_SASH', 00H		; `string'
CONST	ENDS
;	COMDAT ??_C@_0BN@BDKLDBJI@NEW_AFFECT_DRAGON_SOUL_DECK2@
CONST	SEGMENT
??_C@_0BN@BDKLDBJI@NEW_AFFECT_DRAGON_SOUL_DECK2@ DB 'NEW_AFFECT_DRAGON_SO'
	DB	'UL_DECK2', 00H				; `string'
CONST	ENDS
;	COMDAT ??_C@_0BN@DIIGGCFL@NEW_AFFECT_DRAGON_SOUL_DECK1@
CONST	SEGMENT
??_C@_0BN@DIIGGCFL@NEW_AFFECT_DRAGON_SOUL_DECK1@ DB 'NEW_AFFECT_DRAGON_SO'
	DB	'UL_DECK1', 00H				; `string'
CONST	ENDS
;	COMDAT ??_C@_0CB@MMNLNBEI@NEW_AFFECT_DRAGON_SOUL_QUALIFIE@
CONST	SEGMENT
??_C@_0CB@MMNLNBEI@NEW_AFFECT_DRAGON_SOUL_QUALIFIE@ DB 'NEW_AFFECT_DRAGON'
	DB	'_SOUL_QUALIFIED', 00H			; `string'
CONST	ENDS
;	COMDAT ??_C@_0BM@EGHLHBBK@NEW_AFFECT_AUTO_SP_RECOVERY@
CONST	SEGMENT
??_C@_0BM@EGHLHBBK@NEW_AFFECT_AUTO_SP_RECOVERY@ DB 'NEW_AFFECT_AUTO_SP_RE'
	DB	'COVERY', 00H				; `string'
CONST	ENDS
;	COMDAT ??_C@_0BM@DLPBDIOI@NEW_AFFECT_AUTO_HP_RECOVERY@
CONST	SEGMENT
??_C@_0BM@DLPBDIOI@NEW_AFFECT_AUTO_HP_RECOVERY@ DB 'NEW_AFFECT_AUTO_HP_RE'
	DB	'COVERY', 00H				; `string'
CONST	ENDS
;	COMDAT ??_C@_0BG@FPEKGPMD@NEW_AFFECT_GOLD_BONUS@
CONST	SEGMENT
??_C@_0BG@FPEKGPMD@NEW_AFFECT_GOLD_BONUS@ DB 'NEW_AFFECT_GOLD_BONUS', 00H ; `string'
CONST	ENDS
;	COMDAT ??_C@_0BJ@DEPPJPLB@NEW_AFFECT_MARRIAGE_FAST@
CONST	SEGMENT
??_C@_0BJ@DEPPJPLB@NEW_AFFECT_MARRIAGE_FAST@ DB 'NEW_AFFECT_MARRIAGE_FAST'
	DB	00H						; `string'
CONST	ENDS
;	COMDAT ??_C@_0BF@LHIEHLCN@NEW_AFFECT_FISH_MIND@
CONST	SEGMENT
??_C@_0BF@LHIEHLCN@NEW_AFFECT_FISH_MIND@ DB 'NEW_AFFECT_FISH_MIND', 00H ; `string'
CONST	ENDS
;	COMDAT ??_C@_0BE@OGKIHHNM@NEW_AFFECT_AUTOLOOT@
CONST	SEGMENT
??_C@_0BE@OGKIHHNM@NEW_AFFECT_AUTOLOOT@ DB 'NEW_AFFECT_AUTOLOOT', 00H ; `string'
CONST	ENDS
;	COMDAT ??_C@_0BD@OLNAIOLN@NEW_AFFECT_SAFEBOX@
CONST	SEGMENT
??_C@_0BD@OLNAIOLN@NEW_AFFECT_SAFEBOX@ DB 'NEW_AFFECT_SAFEBOX', 00H ; `string'
CONST	ENDS
;	COMDAT ??_C@_0BG@GBJOJDKK@NEW_AFFECT_ITEM_BONUS@
CONST	SEGMENT
??_C@_0BG@GBJOJDKK@NEW_AFFECT_ITEM_BONUS@ DB 'NEW_AFFECT_ITEM_BONUS', 00H ; `string'
CONST	ENDS
;	COMDAT ??_C@_0CI@CIBKFDJK@NEW_AFFECT_EXP_BONUS_EURO_FREE_@
CONST	SEGMENT
??_C@_0CI@CIBKFDJK@NEW_AFFECT_EXP_BONUS_EURO_FREE_@ DB 'NEW_AFFECT_EXP_BO'
	DB	'NUS_EURO_FREE_UNDER_15', 00H		; `string'
CONST	ENDS
;	COMDAT ??_C@_0BP@PLLCKPKL@NEW_AFFECT_EXP_BONUS_EURO_FREE@
CONST	SEGMENT
??_C@_0BP@PLLCKPKL@NEW_AFFECT_EXP_BONUS_EURO_FREE@ DB 'NEW_AFFECT_EXP_BON'
	DB	'US_EURO_FREE', 00H				; `string'
CONST	ENDS
;	COMDAT ??_C@_0BF@IGFBIBCE@NEW_AFFECT_EXP_BONUS@
CONST	SEGMENT
??_C@_0BF@IGFBIBCE@NEW_AFFECT_EXP_BONUS@ DB 'NEW_AFFECT_EXP_BONUS', 00H ; `string'
CONST	ENDS
;	COMDAT ??_C@_0BP@ILCIKFOJ@NEW_AFFECT_SKILL_BOOK_NO_DELAY@
CONST	SEGMENT
??_C@_0BP@ILCIKFOJ@NEW_AFFECT_SKILL_BOOK_NO_DELAY@ DB 'NEW_AFFECT_SKILL_B'
	DB	'OOK_NO_DELAY', 00H				; `string'
CONST	ENDS
;	COMDAT ??_C@_0BM@ELPJNNPH@NEW_AFFECT_SKILL_BOOK_BONUS@
CONST	SEGMENT
??_C@_0BM@ELPJNNPH@NEW_AFFECT_SKILL_BOOK_BONUS@ DB 'NEW_AFFECT_SKILL_BOOK'
	DB	'_BONUS', 00H				; `string'
CONST	ENDS
;	COMDAT ??_C@_0BM@NOKMEHMP@NEW_AFFECT_NO_DEATH_PENALTY@
CONST	SEGMENT
??_C@_0BM@NOKMEHMP@NEW_AFFECT_NO_DEATH_PENALTY@ DB 'NEW_AFFECT_NO_DEATH_P'
	DB	'ENALTY', 00H				; `string'
CONST	ENDS
;	COMDAT ??_C@_0BA@DBLFIOAN@NEW_AFFECT_MALL@
CONST	SEGMENT
??_C@_0BA@DBLFIOAN@NEW_AFFECT_MALL@ DB 'NEW_AFFECT_MALL', 00H ; `string'
CONST	ENDS
;	COMDAT ??_C@_0BG@DFBDCPEK@AFFECT_CHINA_FIREWORK@
CONST	SEGMENT
??_C@_0BG@DFBDCPEK@AFFECT_CHINA_FIREWORK@ DB 'AFFECT_CHINA_FIREWORK', 00H ; `string'
CONST	ENDS
;	COMDAT ??_C@_0BI@CFDHLOMB@AFFECT_FALLEN_CHEONGEUN@
CONST	SEGMENT
??_C@_0BI@CFDHLOMB@AFFECT_FALLEN_CHEONGEUN@ DB 'AFFECT_FALLEN_CHEONGEUN', 00H ; `string'
CONST	ENDS
;	COMDAT ??_C@_0O@OJLLDADG@AFFECT_PABEOP@
CONST	SEGMENT
??_C@_0O@OJLLDADG@AFFECT_PABEOP@ DB 'AFFECT_PABEOP', 00H ; `string'
CONST	ENDS
;	COMDAT ??_C@_0BC@HABANGHD@AFFECT_JEUNGRYEOK@
CONST	SEGMENT
??_C@_0BC@HABANGHD@AFFECT_JEUNGRYEOK@ DB 'AFFECT_JEUNGRYEOK', 00H ; `string'
CONST	ENDS
;	COMDAT ??_C@_0P@KPDDCJEK@AFFECT_GICHEON@
CONST	SEGMENT
??_C@_0P@KPDDCJEK@AFFECT_GICHEON@ DB 'AFFECT_GICHEON', 00H ; `string'
CONST	ENDS
;	COMDAT ??_C@_0P@HLONBHGO@AFFECT_MUYEONG@
CONST	SEGMENT
??_C@_0P@HLONBHGO@AFFECT_MUYEONG@ DB 'AFFECT_MUYEONG', 00H ; `string'
CONST	ENDS
;	COMDAT ??_C@_0P@FCGDLODF@AFFECT_HEUKSIN@
CONST	SEGMENT
??_C@_0P@FCGDLODF@AFFECT_HEUKSIN@ DB 'AFFECT_HEUKSIN', 00H ; `string'
CONST	ENDS
;	COMDAT ??_C@_0P@HCCAECCK@AFFECT_KWAESOK@
CONST	SEGMENT
??_C@_0P@HCCAECCK@AFFECT_KWAESOK@ DB 'AFFECT_KWAESOK', 00H ; `string'
CONST	ENDS
;	COMDAT ??_C@_0M@HDMMFOHE@AFFECT_BOHO@
CONST	SEGMENT
??_C@_0M@HDMMFOHE@AFFECT_BOHO@ DB 'AFFECT_BOHO', 00H	; `string'
CONST	ENDS
;	COMDAT ??_C@_0N@BLOPJELK@AFFECT_HOSIN@
CONST	SEGMENT
??_C@_0N@BLOPJELK@AFFECT_HOSIN@ DB 'AFFECT_HOSIN', 00H	; `string'
CONST	ENDS
;	COMDAT ??_C@_0P@NHIEBDHO@AFFECT_JUMAGAP@
CONST	SEGMENT
??_C@_0P@NHIEBDHO@AFFECT_JUMAGAP@ DB 'AFFECT_JUMAGAP', 00H ; `string'
CONST	ENDS
;	COMDAT ??_C@_0O@MEBBDMFP@AFFECT_GONGPO@
CONST	SEGMENT
??_C@_0O@MEBBDMFP@AFFECT_GONGPO@ DB 'AFFECT_GONGPO', 00H ; `string'
CONST	ENDS
;	COMDAT ??_C@_0P@JADECJKN@AFFECT_GWIGEOM@
CONST	SEGMENT
??_C@_0P@JADECJKN@AFFECT_GWIGEOM@ DB 'AFFECT_GWIGEOM', 00H ; `string'
CONST	ENDS
;	COMDAT ??_C@_0BB@NOAECAHF@AFFECT_EUNHYEONG@
CONST	SEGMENT
??_C@_0BB@NOAECAHF@AFFECT_EUNHYEONG@ DB 'AFFECT_EUNHYEONG', 00H ; `string'
CONST	ENDS
;	COMDAT ??_C@_0BC@DNOFICLK@AFFECT_GYEONGGONG@
CONST	SEGMENT
??_C@_0BC@DNOFICLK@AFFECT_GYEONGGONG@ DB 'AFFECT_GYEONGGONG', 00H ; `string'
CONST	ENDS
;	COMDAT ??_C@_0BB@NMEHKBDD@AFFECT_CHEONGEUN@
CONST	SEGMENT
??_C@_0BB@NMEHKBDD@AFFECT_CHEONGEUN@ DB 'AFFECT_CHEONGEUN', 00H ; `string'
CONST	ENDS
;	COMDAT ??_C@_0BC@BPIBLGH@AFFECT_GEOMGYEONG@
CONST	SEGMENT
??_C@_0BC@BPIBLGH@AFFECT_GEOMGYEONG@ DB 'AFFECT_GEOMGYEONG', 00H ; `string'
CONST	ENDS
;	COMDAT ??_C@_0P@PMGJMPLA@AFFECT_JEONGWI@
CONST	SEGMENT
??_C@_0P@PMGJMPLA@AFFECT_JEONGWI@ DB 'AFFECT_JEONGWI', 00H ; `string'
CONST	ENDS
;	COMDAT ??_C@_0BB@HABGKKCK@AFFECT_FISH_MIND@
CONST	SEGMENT
??_C@_0BB@HABGKKCK@AFFECT_FISH_MIND@ DB 'AFFECT_FISH_MIND', 00H ; `string'
CONST	ENDS
;	COMDAT ??_C@_0BI@JFMNFFKJ@AFFECT_ATT_SPEED_POTION@
CONST	SEGMENT
??_C@_0BI@JFMNFFKJ@AFFECT_ATT_SPEED_POTION@ DB 'AFFECT_ATT_SPEED_POTION', 00H ; `string'
CONST	ENDS
;	COMDAT ??_C@_0BI@BEKPJJEK@AFFECT_MOV_SPEED_POTION@
CONST	SEGMENT
??_C@_0BI@BEKPJJEK@AFFECT_MOV_SPEED_POTION@ DB 'AFFECT_MOV_SPEED_POTION', 00H ; `string'
CONST	ENDS
;	COMDAT ??_C@_0M@KELBDBLK@AFFECT_STUN@
CONST	SEGMENT
??_C@_0M@KELBDBLK@AFFECT_STUN@ DB 'AFFECT_STUN', 00H	; `string'
CONST	ENDS
;	COMDAT ??_C@_0M@LLKNMBHE@AFFECT_SLOW@
CONST	SEGMENT
??_C@_0M@LLKNMBHE@AFFECT_SLOW@ DB 'AFFECT_SLOW', 00H	; `string'
CONST	ENDS
;	COMDAT ??_C@_0O@FFCFHML@AFFECT_POISON@
CONST	SEGMENT
??_C@_0O@FFCFHML@AFFECT_POISON@ DB 'AFFECT_POISON', 00H	; `string'
CONST	ENDS
;	COMDAT ??_C@_09HAMNFDMJ@PART_HEAD@
CONST	SEGMENT
??_C@_09HAMNFDMJ@PART_HEAD@ DB 'PART_HEAD', 00H		; `string'
CONST	ENDS
;	COMDAT ??_C@_0BF@CFBKDGLC@INSTANCE_TYPE_OBJECT@
CONST	SEGMENT
??_C@_0BF@CFBKDGLC@INSTANCE_TYPE_OBJECT@ DB 'INSTANCE_TYPE_OBJECT', 00H ; `string'
CONST	ENDS
;	COMDAT ??_C@_0BH@FNPAMCND@INSTANCE_TYPE_BUILDING@
CONST	SEGMENT
??_C@_0BH@FNPAMCND@INSTANCE_TYPE_BUILDING@ DB 'INSTANCE_TYPE_BUILDING', 00H ; `string'
CONST	ENDS
;	COMDAT ??_C@_0BE@JLNEPCAN@INSTANCE_TYPE_ENEMY@
CONST	SEGMENT
??_C@_0BE@JLNEPCAN@INSTANCE_TYPE_ENEMY@ DB 'INSTANCE_TYPE_ENEMY', 00H ; `string'
CONST	ENDS
;	COMDAT ??_C@_0BC@HPKLHBPD@INSTANCE_TYPE_NPC@
CONST	SEGMENT
??_C@_0BC@HPKLHBPD@INSTANCE_TYPE_NPC@ DB 'INSTANCE_TYPE_NPC', 00H ; `string'
CONST	ENDS
;	COMDAT ??_C@_0BF@LBEOLJOH@INSTANCE_TYPE_PLAYER@
CONST	SEGMENT
??_C@_0BF@LBEOLJOH@INSTANCE_TYPE_PLAYER@ DB 'INSTANCE_TYPE_PLAYER', 00H ; `string'
CONST	ENDS
;	COMDAT ??_C@_0O@EDFBHBFG@DIR_NORTHWEST@
CONST	SEGMENT
??_C@_0O@EDFBHBFG@DIR_NORTHWEST@ DB 'DIR_NORTHWEST', 00H ; `string'
CONST	ENDS
;	COMDAT ??_C@_08HDBMJBEN@DIR_WEST@
CONST	SEGMENT
??_C@_08HDBMJBEN@DIR_WEST@ DB 'DIR_WEST', 00H		; `string'
CONST	ENDS
;	COMDAT ??_C@_0O@JLMEHCBH@DIR_SOUTHWEST@
CONST	SEGMENT
??_C@_0O@JLMEHCBH@DIR_SOUTHWEST@ DB 'DIR_SOUTHWEST', 00H ; `string'
CONST	ENDS
;	COMDAT ??_C@_09MEPEOBNK@DIR_SOUTH@
CONST	SEGMENT
??_C@_09MEPEOBNK@DIR_SOUTH@ DB 'DIR_SOUTH', 00H		; `string'
CONST	ENDS
;	COMDAT ??_C@_0O@OIGCBKC@DIR_SOUTHEAST@
CONST	SEGMENT
??_C@_0O@OIGCBKC@DIR_SOUTHEAST@ DB 'DIR_SOUTHEAST', 00H	; `string'
CONST	ENDS
;	COMDAT ??_C@_08OGFOMCPI@DIR_EAST@
CONST	SEGMENT
??_C@_08OGFOMCPI@DIR_EAST@ DB 'DIR_EAST', 00H		; `string'
CONST	ENDS
;	COMDAT ??_C@_0O@NGBDCCOD@DIR_NORTHEAST@
CONST	SEGMENT
??_C@_0O@NGBDCCOD@DIR_NORTHEAST@ DB 'DIR_NORTHEAST', 00H ; `string'
CONST	ENDS
;	COMDAT ??_C@_09OGGLMICG@DIR_NORTH@
CONST	SEGMENT
??_C@_09OGGLMICG@DIR_NORTH@ DB 'DIR_NORTH', 00H		; `string'
CONST	ENDS
;	COMDAT ??_C@_0BK@EFEKGCKJ@MOTION_MODE_WEDDING_DRESS@
CONST	SEGMENT
??_C@_0BK@EFEKGCKJ@MOTION_MODE_WEDDING_DRESS@ DB 'MOTION_MODE_WEDDING_DRE'
	DB	'SS', 00H					; `string'
CONST	ENDS
;	COMDAT ??_C@_0BH@IPLLKNDD@MOTION_MODE_HORSE_BELL@
CONST	SEGMENT
??_C@_0BH@IPLLKNDD@MOTION_MODE_HORSE_BELL@ DB 'MOTION_MODE_HORSE_BELL', 00H ; `string'
CONST	ENDS
;	COMDAT ??_C@_0BG@BLAEJMGO@MOTION_MODE_HORSE_FAN@
CONST	SEGMENT
??_C@_0BG@BLAEJMGO@MOTION_MODE_HORSE_FAN@ DB 'MOTION_MODE_HORSE_FAN', 00H ; `string'
CONST	ENDS
;	COMDAT ??_C@_0BG@FPIIPCL@MOTION_MODE_HORSE_BOW@
CONST	SEGMENT
??_C@_0BG@FPIIPCL@MOTION_MODE_HORSE_BOW@ DB 'MOTION_MODE_HORSE_BOW', 00H ; `string'
CONST	ENDS
;	COMDAT ??_C@_0CB@CLBDMMFE@MOTION_MODE_HORSE_DUALHAND_SWOR@
CONST	SEGMENT
??_C@_0CB@CLBDMMFE@MOTION_MODE_HORSE_DUALHAND_SWOR@ DB 'MOTION_MODE_HORSE'
	DB	'_DUALHAND_SWORD', 00H			; `string'
CONST	ENDS
;	COMDAT ??_C@_0CA@EBBNMGFA@MOTION_MODE_HORSE_TWOHAND_SWORD@
CONST	SEGMENT
??_C@_0CA@EBBNMGFA@MOTION_MODE_HORSE_TWOHAND_SWORD@ DB 'MOTION_MODE_HORSE'
	DB	'_TWOHAND_SWORD', 00H			; `string'
CONST	ENDS
;	COMDAT ??_C@_0CA@LBDCIFIC@MOTION_MODE_HORSE_ONEHAND_SWORD@
CONST	SEGMENT
??_C@_0CA@LBDCIFIC@MOTION_MODE_HORSE_ONEHAND_SWORD@ DB 'MOTION_MODE_HORSE'
	DB	'_ONEHAND_SWORD', 00H			; `string'
CONST	ENDS
;	COMDAT ??_C@_0BC@KOFIOII@MOTION_MODE_HORSE@
CONST	SEGMENT
??_C@_0BC@KOFIOII@MOTION_MODE_HORSE@ DB 'MOTION_MODE_HORSE', 00H ; `string'
CONST	ENDS
;	COMDAT ??_C@_0BE@NMIGCCAP@MOTION_MODE_FISHING@
CONST	SEGMENT
??_C@_0BE@NMIGCCAP@MOTION_MODE_FISHING@ DB 'MOTION_MODE_FISHING', 00H ; `string'
CONST	ENDS
;	COMDAT ??_C@_0BB@BNHJGCLA@MOTION_MODE_BELL@
CONST	SEGMENT
??_C@_0BB@BNHJGCLA@MOTION_MODE_BELL@ DB 'MOTION_MODE_BELL', 00H ; `string'
CONST	ENDS
;	COMDAT ??_C@_0BA@LEFIEKC@MOTION_MODE_FAN@
CONST	SEGMENT
??_C@_0BA@LEFIEKC@MOTION_MODE_FAN@ DB 'MOTION_MODE_FAN', 00H ; `string'
CONST	ENDS
;	COMDAT ??_C@_0BI@OIGGOELP@MOTION_MODE_BOW_SPECIAL@
CONST	SEGMENT
??_C@_0BI@OIGGOELP@MOTION_MODE_BOW_SPECIAL@ DB 'MOTION_MODE_BOW_SPECIAL', 00H ; `string'
CONST	ENDS
;	COMDAT ??_C@_0BA@BFLJJHOH@MOTION_MODE_BOW@
CONST	SEGMENT
??_C@_0BA@BFLJJHOH@MOTION_MODE_BOW@ DB 'MOTION_MODE_BOW', 00H ; `string'
CONST	ENDS
;	COMDAT ??_C@_0BL@BILJFJA@MOTION_MODE_DUALHAND_SWORD@
CONST	SEGMENT
??_C@_0BL@BILJFJA@MOTION_MODE_DUALHAND_SWORD@ DB 'MOTION_MODE_DUALHAND_SW'
	DB	'ORD', 00H					; `string'
CONST	ENDS
;	COMDAT ??_C@_0BK@LGGPJGKL@MOTION_MODE_TWOHAND_SWORD@
CONST	SEGMENT
??_C@_0BK@LGGPJGKL@MOTION_MODE_TWOHAND_SWORD@ DB 'MOTION_MODE_TWOHAND_SWO'
	DB	'RD', 00H					; `string'
CONST	ENDS
;	COMDAT ??_C@_0BK@EGEANFHJ@MOTION_MODE_ONEHAND_SWORD@
CONST	SEGMENT
??_C@_0BK@EGEANFHJ@MOTION_MODE_ONEHAND_SWORD@ DB 'MOTION_MODE_ONEHAND_SWO'
	DB	'RD', 00H					; `string'
CONST	ENDS
;	COMDAT ??_C@_0BE@PPOENDHJ@MOTION_MODE_GENERAL@
CONST	SEGMENT
??_C@_0BE@PPOENDHJ@MOTION_MODE_GENERAL@ DB 'MOTION_MODE_GENERAL', 00H ; `string'
CONST	ENDS
;	COMDAT ??_C@_0BF@JPHCAJND@MOTION_MODE_RESERVED@
CONST	SEGMENT
??_C@_0BF@JPHCAJND@MOTION_MODE_RESERVED@ DB 'MOTION_MODE_RESERVED', 00H ; `string'
CONST	ENDS
;	COMDAT ??_C@_0L@BGCOBJBL@MOTION_DIG@
CONST	SEGMENT
??_C@_0L@BGCOBJBL@MOTION_DIG@ DB 'MOTION_DIG', 00H	; `string'
CONST	ENDS
;	COMDAT ??_C@_0BN@GMLLPEOH@MOTION_SLAP_HURT_WITH_SHAMAN@
CONST	SEGMENT
??_C@_0BN@GMLLPEOH@MOTION_SLAP_HURT_WITH_SHAMAN@ DB 'MOTION_SLAP_HURT_WIT'
	DB	'H_SHAMAN', 00H				; `string'
CONST	ENDS
;	COMDAT ??_C@_0BL@MNIFOENP@MOTION_SLAP_HURT_WITH_SURA@
CONST	SEGMENT
??_C@_0BL@MNIFOENP@MOTION_SLAP_HURT_WITH_SURA@ DB 'MOTION_SLAP_HURT_WITH_'
	DB	'SURA', 00H					; `string'
CONST	ENDS
;	COMDAT ??_C@_0BP@CGGJKKOH@MOTION_SLAP_HURT_WITH_ASSASSIN@
CONST	SEGMENT
??_C@_0BP@CGGJKKOH@MOTION_SLAP_HURT_WITH_ASSASSIN@ DB 'MOTION_SLAP_HURT_W'
	DB	'ITH_ASSASSIN', 00H				; `string'
CONST	ENDS
;	COMDAT ??_C@_0BO@ENJIKGO@MOTION_SLAP_HURT_WITH_WARRIOR@
CONST	SEGMENT
??_C@_0BO@ENJIKGO@MOTION_SLAP_HURT_WITH_WARRIOR@ DB 'MOTION_SLAP_HURT_WIT'
	DB	'H_WARRIOR', 00H				; `string'
CONST	ENDS
;	COMDAT ??_C@_0BM@EBDKBOAP@MOTION_SLAP_HIT_WITH_SHAMAN@
CONST	SEGMENT
??_C@_0BM@EBDKBOAP@MOTION_SLAP_HIT_WITH_SHAMAN@ DB 'MOTION_SLAP_HIT_WITH_'
	DB	'SHAMAN', 00H				; `string'
CONST	ENDS
;	COMDAT ??_C@_0BK@BLGFNMMI@MOTION_SLAP_HIT_WITH_SURA@
CONST	SEGMENT
??_C@_0BK@BLGFNMMI@MOTION_SLAP_HIT_WITH_SURA@ DB 'MOTION_SLAP_HIT_WITH_SU'
	DB	'RA', 00H					; `string'
CONST	ENDS
;	COMDAT ??_C@_0BO@PABBPFOE@MOTION_SLAP_HIT_WITH_ASSASSIN@
CONST	SEGMENT
??_C@_0BO@PABBPFOE@MOTION_SLAP_HIT_WITH_ASSASSIN@ DB 'MOTION_SLAP_HIT_WIT'
	DB	'H_ASSASSIN', 00H				; `string'
CONST	ENDS
;	COMDAT ??_C@_0BN@KKCFGBMO@MOTION_SLAP_HIT_WITH_WARRIOR@
CONST	SEGMENT
??_C@_0BN@KKCFGBMO@MOTION_SLAP_HIT_WITH_WARRIOR@ DB 'MOTION_SLAP_HIT_WITH'
	DB	'_WARRIOR', 00H				; `string'
CONST	ENDS
;	COMDAT ??_C@_0BP@FPOIMINN@MOTION_FRENCH_KISS_WITH_SHAMAN@
CONST	SEGMENT
??_C@_0BP@FPOIMINN@MOTION_FRENCH_KISS_WITH_SHAMAN@ DB 'MOTION_FRENCH_KISS'
	DB	'_WITH_SHAMAN', 00H				; `string'
CONST	ENDS
;	COMDAT ??_C@_0BN@OJCLLFKP@MOTION_FRENCH_KISS_WITH_SURA@
CONST	SEGMENT
??_C@_0BN@OJCLLFKP@MOTION_FRENCH_KISS_WITH_SURA@ DB 'MOTION_FRENCH_KISS_W'
	DB	'ITH_SURA', 00H				; `string'
CONST	ENDS
;	COMDAT ??_C@_0CB@CMKPDLEK@MOTION_FRENCH_KISS_WITH_ASSASSI@
CONST	SEGMENT
??_C@_0CB@CMKPDLEK@MOTION_FRENCH_KISS_WITH_ASSASSI@ DB 'MOTION_FRENCH_KIS'
	DB	'S_WITH_ASSASSIN', 00H			; `string'
CONST	ENDS
;	COMDAT ??_C@_0CA@MCOGAAOA@MOTION_FRENCH_KISS_WITH_WARRIOR@
CONST	SEGMENT
??_C@_0CA@MCOGAAOA@MOTION_FRENCH_KISS_WITH_WARRIOR@ DB 'MOTION_FRENCH_KIS'
	DB	'S_WITH_WARRIOR', 00H			; `string'
CONST	ENDS
;	COMDAT ??_C@_0BI@BPAFKDHB@MOTION_KISS_WITH_SHAMAN@
CONST	SEGMENT
??_C@_0BI@BPAFKDHB@MOTION_KISS_WITH_SHAMAN@ DB 'MOTION_KISS_WITH_SHAMAN', 00H ; `string'
CONST	ENDS
;	COMDAT ??_C@_0BG@FBINLMID@MOTION_KISS_WITH_SURA@
CONST	SEGMENT
??_C@_0BG@FBINLMID@MOTION_KISS_WITH_SURA@ DB 'MOTION_KISS_WITH_SURA', 00H ; `string'
CONST	ENDS
;	COMDAT ??_C@_0BK@PEHNDAJC@MOTION_KISS_WITH_ASSASSIN@
CONST	SEGMENT
??_C@_0BK@PEHNDAJC@MOTION_KISS_WITH_ASSASSIN@ DB 'MOTION_KISS_WITH_ASSASS'
	DB	'IN', 00H					; `string'
CONST	ENDS
;	COMDAT ??_C@_0BJ@BNMGACEI@MOTION_KISS_WITH_WARRIOR@
CONST	SEGMENT
??_C@_0BJ@BNMGACEI@MOTION_KISS_WITH_WARRIOR@ DB 'MOTION_KISS_WITH_WARRIOR'
	DB	00H						; `string'
CONST	ENDS
;	COMDAT ??_C@_0BA@GFFAIGAB@MOTION_CHEERS_2@
CONST	SEGMENT
??_C@_0BA@GFFAIGAB@MOTION_CHEERS_2@ DB 'MOTION_CHEERS_2', 00H ; `string'
CONST	ENDS
;	COMDAT ??_C@_0BA@EOHNNFMC@MOTION_CHEERS_1@
CONST	SEGMENT
??_C@_0BA@EOHNNFMC@MOTION_CHEERS_1@ DB 'MOTION_CHEERS_1', 00H ; `string'
CONST	ENDS
;	COMDAT ??_C@_0L@CGDNCNEF@MOTION_JOY@
CONST	SEGMENT
??_C@_0L@CGDNCNEF@MOTION_JOY@ DB 'MOTION_JOY', 00H	; `string'
CONST	ENDS
;	COMDAT ??_C@_0O@GPIFNFHO@MOTION_BANTER@
CONST	SEGMENT
??_C@_0O@GPIFNFHO@MOTION_BANTER@ DB 'MOTION_BANTER', 00H ; `string'
CONST	ENDS
;	COMDAT ??_C@_0P@KLJNPGKF@MOTION_CHEERUP@
CONST	SEGMENT
??_C@_0P@KLJNPGKF@MOTION_CHEERUP@ DB 'MOTION_CHEERUP', 00H ; `string'
CONST	ENDS
;	COMDAT ??_C@_0L@OGDCDNF@MOTION_SHY@
CONST	SEGMENT
??_C@_0L@OGDCDNF@MOTION_SHY@ DB 'MOTION_SHY', 00H	; `string'
CONST	ENDS
;	COMDAT ??_C@_0L@PONOHEEG@MOTION_SAD@
CONST	SEGMENT
??_C@_0L@PONOHEEG@MOTION_SAD@ DB 'MOTION_SAD', 00H	; `string'
CONST	ENDS
;	COMDAT ??_C@_0BC@MOMKLPKF@MOTION_ATTRACTIVE@
CONST	SEGMENT
??_C@_0BC@MOMKLPKF@MOTION_ATTRACTIVE@ DB 'MOTION_ATTRACTIVE', 00H ; `string'
CONST	ENDS
;	COMDAT ??_C@_0N@CLPBCEBE@MOTION_ANGRY@
CONST	SEGMENT
??_C@_0N@CLPBCEBE@MOTION_ANGRY@ DB 'MOTION_ANGRY', 00H	; `string'
CONST	ENDS
;	COMDAT ??_C@_0P@PACCCPNP@MOTION_FORGIVE@
CONST	SEGMENT
??_C@_0P@PACCCPNP@MOTION_FORGIVE@ DB 'MOTION_FORGIVE', 00H ; `string'
CONST	ENDS
;	COMDAT ??_C@_0BG@BMOIGNKG@MOTION_CONGRATULATION@
CONST	SEGMENT
??_C@_0BG@BMOIGNKG@MOTION_CONGRATULATION@ DB 'MOTION_CONGRATULATION', 00H ; `string'
CONST	ENDS
;	COMDAT ??_C@_0P@CCLJJJNN@MOTION_DANCE_6@
CONST	SEGMENT
??_C@_0P@CCLJJJNN@MOTION_DANCE_6@ DB 'MOTION_DANCE_6', 00H ; `string'
CONST	ENDS
;	COMDAT ??_C@_0P@JJEMKBO@MOTION_DANCE_5@
CONST	SEGMENT
??_C@_0P@JJEMKBO@MOTION_DANCE_5@ DB 'MOTION_DANCE_5', 00H ; `string'
CONST	ENDS
;	COMDAT ??_C@_0P@BAIPPLFP@MOTION_DANCE_4@
CONST	SEGMENT
??_C@_0P@BAIPPLFP@MOTION_DANCE_4@ DB 'MOTION_DANCE_4', 00H ; `string'
CONST	ENDS
;	COMDAT ??_C@_0P@FPMOGNJI@MOTION_DANCE_3@
CONST	SEGMENT
??_C@_0P@FPMOGNJI@MOTION_DANCE_3@ DB 'MOTION_DANCE_3', 00H ; `string'
CONST	ENDS
;	COMDAT ??_C@_0P@EGNFFMNJ@MOTION_DANCE_2@
CONST	SEGMENT
??_C@_0P@EGNFFMNJ@MOTION_DANCE_2@ DB 'MOTION_DANCE_2', 00H ; `string'
CONST	ENDS
;	COMDAT ??_C@_0P@GNPIAPBK@MOTION_DANCE_1@
CONST	SEGMENT
??_C@_0P@GNPIAPBK@MOTION_DANCE_1@ DB 'MOTION_DANCE_1', 00H ; `string'
CONST	ENDS
;	COMDAT ??_C@_0M@LBLLOKDB@MOTION_CLAP@
CONST	SEGMENT
??_C@_0M@LBLLOKDB@MOTION_CLAP@ DB 'MOTION_CLAP', 00H	; `string'
CONST	ENDS
;	COMDAT ??_C@_0N@GMNNBHKJ@MOTION_SKILL@
CONST	SEGMENT
??_C@_0N@GMNNBHKJ@MOTION_SKILL@ DB 'MOTION_SKILL', 00H	; `string'
CONST	ENDS
;	COMDAT ??_C@_0M@EOGICPMJ@MOTION_STOP@
CONST	SEGMENT
??_C@_0M@EOGICPMJ@MOTION_STOP@ DB 'MOTION_STOP', 00H	; `string'
CONST	ENDS
;	COMDAT ??_C@_0BE@BBLMKABM@MOTION_FISHING_FAIL@
CONST	SEGMENT
??_C@_0BE@BBLMKABM@MOTION_FISHING_FAIL@ DB 'MOTION_FISHING_FAIL', 00H ; `string'
CONST	ENDS
;	COMDAT ??_C@_0BF@NFFCHMCO@MOTION_FISHING_CATCH@
CONST	SEGMENT
??_C@_0BF@NFFCHMCO@MOTION_FISHING_CATCH@ DB 'MOTION_FISHING_CATCH', 00H ; `string'
CONST	ENDS
;	COMDAT ??_C@_0BF@GJOIPBCA@MOTION_FISHING_REACT@
CONST	SEGMENT
??_C@_0BF@GJOIPBCA@MOTION_FISHING_REACT@ DB 'MOTION_FISHING_REACT', 00H ; `string'
CONST	ENDS
;	COMDAT ??_C@_0BE@DMIBDOKM@MOTION_FISHING_STOP@
CONST	SEGMENT
??_C@_0BE@DMIBDOKM@MOTION_FISHING_STOP@ DB 'MOTION_FISHING_STOP', 00H ; `string'
CONST	ENDS
;	COMDAT ??_C@_0BE@MOCHIGHH@MOTION_FISHING_WAIT@
CONST	SEGMENT
??_C@_0BE@MOCHIGHH@MOTION_FISHING_WAIT@ DB 'MOTION_FISHING_WAIT', 00H ; `string'
CONST	ENDS
;	COMDAT ??_C@_0BF@CHLKIEFK@MOTION_FISHING_THROW@
CONST	SEGMENT
??_C@_0BF@CHLKIEFK@MOTION_FISHING_THROW@ DB 'MOTION_FISHING_THROW', 00H ; `string'
CONST	ENDS
;	COMDAT ??_C@_0BK@BEALLN@MOTION_INTRO_NOT_SELECTED@
CONST	SEGMENT
??_C@_0BK@BEALLN@MOTION_INTRO_NOT_SELECTED@ DB 'MOTION_INTRO_NOT_SELECTED'
	DB	00H						; `string'
CONST	ENDS
;	COMDAT ??_C@_0BG@KEIOCEDJ@MOTION_INTRO_SELECTED@
CONST	SEGMENT
??_C@_0BG@KEIOCEDJ@MOTION_INTRO_SELECTED@ DB 'MOTION_INTRO_SELECTED', 00H ; `string'
CONST	ENDS
;	COMDAT ??_C@_0BC@KGBJGDBO@MOTION_INTRO_WAIT@
CONST	SEGMENT
??_C@_0BC@KGBJGDBO@MOTION_INTRO_WAIT@ DB 'MOTION_INTRO_WAIT', 00H ; `string'
CONST	ENDS
;	COMDAT ??_C@_0BG@GMCGFPP@MOTION_COMBO_ATTACK_8@
CONST	SEGMENT
??_C@_0BG@GMCGFPP@MOTION_COMBO_ATTACK_8@ DB 'MOTION_COMBO_ATTACK_8', 00H ; `string'
CONST	ENDS
;	COMDAT ??_C@_0BG@IBFKHJDA@MOTION_COMBO_ATTACK_7@
CONST	SEGMENT
??_C@_0BG@IBFKHJDA@MOTION_COMBO_ATTACK_7@ DB 'MOTION_COMBO_ATTACK_7', 00H ; `string'
CONST	ENDS
;	COMDAT ??_C@_0BG@JIEBEIHB@MOTION_COMBO_ATTACK_6@
CONST	SEGMENT
??_C@_0BG@JIEBEIHB@MOTION_COMBO_ATTACK_6@ DB 'MOTION_COMBO_ATTACK_6', 00H ; `string'
CONST	ENDS
;	COMDAT ??_C@_0BG@LDGMBLLC@MOTION_COMBO_ATTACK_5@
CONST	SEGMENT
??_C@_0BG@LDGMBLLC@MOTION_COMBO_ATTACK_5@ DB 'MOTION_COMBO_ATTACK_5', 00H ; `string'
CONST	ENDS
;	COMDAT ??_C@_0BG@KKHHCKPD@MOTION_COMBO_ATTACK_4@
CONST	SEGMENT
??_C@_0BG@KKHHCKPD@MOTION_COMBO_ATTACK_4@ DB 'MOTION_COMBO_ATTACK_4', 00H ; `string'
CONST	ENDS
;	COMDAT ??_C@_0BG@OFDGLMDE@MOTION_COMBO_ATTACK_3@
CONST	SEGMENT
??_C@_0BG@OFDGLMDE@MOTION_COMBO_ATTACK_3@ DB 'MOTION_COMBO_ATTACK_3', 00H ; `string'
CONST	ENDS
;	COMDAT ??_C@_0BG@PMCNINHF@MOTION_COMBO_ATTACK_2@
CONST	SEGMENT
??_C@_0BG@PMCNINHF@MOTION_COMBO_ATTACK_2@ DB 'MOTION_COMBO_ATTACK_2', 00H ; `string'
CONST	ENDS
;	COMDAT ??_C@_0BG@NHAANOLG@MOTION_COMBO_ATTACK_1@
CONST	SEGMENT
??_C@_0BG@NHAANOLG@MOTION_COMBO_ATTACK_1@ DB 'MOTION_COMBO_ATTACK_1', 00H ; `string'
CONST	ENDS
;	COMDAT ??_C@_0BF@PDLLCGCI@MOTION_NORMAL_ATTACK@
CONST	SEGMENT
??_C@_0BF@PDLLCGCI@MOTION_NORMAL_ATTACK@ DB 'MOTION_NORMAL_ATTACK', 00H ; `string'
CONST	ENDS
;	COMDAT ??_C@_0BB@FBKKIAJJ@MOTION_DEAD_BACK@
CONST	SEGMENT
??_C@_0BB@FBKKIAJJ@MOTION_DEAD_BACK@ DB 'MOTION_DEAD_BACK', 00H ; `string'
CONST	ENDS
;	COMDAT ??_C@_0M@FADNKOPO@MOTION_DEAD@
CONST	SEGMENT
??_C@_0M@FADNKOPO@MOTION_DEAD@ DB 'MOTION_DEAD', 00H	; `string'
CONST	ENDS
;	COMDAT ??_C@_0BF@DFDDIGMI@MOTION_STAND_UP_BACK@
CONST	SEGMENT
??_C@_0BF@DFDDIGMI@MOTION_STAND_UP_BACK@ DB 'MOTION_STAND_UP_BACK', 00H ; `string'
CONST	ENDS
;	COMDAT ??_C@_0BK@PDCLNNIP@MOTION_DAMAGE_FLYING_BACK@
CONST	SEGMENT
??_C@_0BK@PDCLNNIP@MOTION_DAMAGE_FLYING_BACK@ DB 'MOTION_DAMAGE_FLYING_BA'
	DB	'CK', 00H					; `string'
CONST	ENDS
;	COMDAT ??_C@_0BD@MNOACOOC@MOTION_DAMAGE_BACK@
CONST	SEGMENT
??_C@_0BD@MNOACOOC@MOTION_DAMAGE_BACK@ DB 'MOTION_DAMAGE_BACK', 00H ; `string'
CONST	ENDS
;	COMDAT ??_C@_0BA@IDCGGFKN@MOTION_STAND_UP@
CONST	SEGMENT
??_C@_0BA@IDCGGFKN@MOTION_STAND_UP@ DB 'MOTION_STAND_UP', 00H ; `string'
CONST	ENDS
;	COMDAT ??_C@_0BF@LNCKFICM@MOTION_DAMAGE_FLYING@
CONST	SEGMENT
??_C@_0BF@LNCKFICM@MOTION_DAMAGE_FLYING@ DB 'MOTION_DAMAGE_FLYING', 00H ; `string'
CONST	ENDS
;	COMDAT ??_C@_0O@CKDFGNMB@MOTION_DAMAGE@
CONST	SEGMENT
??_C@_0O@CKDFGNMB@MOTION_DAMAGE@ DB 'MOTION_DAMAGE', 00H ; `string'
CONST	ENDS
;	COMDAT ??_C@_0BF@ICKHJCNJ@MOTION_CHANGE_WEAPON@
CONST	SEGMENT
??_C@_0BF@ICKHJCNJ@MOTION_CHANGE_WEAPON@ DB 'MOTION_CHANGE_WEAPON', 00H ; `string'
CONST	ENDS
;	COMDAT ??_C@_0L@KHKCPAAF@MOTION_RUN@
CONST	SEGMENT
??_C@_0L@KHKCPAAF@MOTION_RUN@ DB 'MOTION_RUN', 00H	; `string'
CONST	ENDS
;	COMDAT ??_C@_0M@HHFPFLGH@MOTION_WALK@
CONST	SEGMENT
??_C@_0M@HHFPFLGH@MOTION_WALK@ DB 'MOTION_WALK', 00H	; `string'
CONST	ENDS
;	COMDAT ??_C@_0M@LMMOJHBC@MOTION_WAIT@
CONST	SEGMENT
??_C@_0M@LMMOJHBC@MOTION_WAIT@ DB 'MOTION_WAIT', 00H	; `string'
CONST	ENDS
;	COMDAT ??_C@_0N@JMBMLHMG@MOTION_SPAWN@
CONST	SEGMENT
??_C@_0N@JMBMLHMG@MOTION_SPAWN@ DB 'MOTION_SPAWN', 00H	; `string'
CONST	ENDS
;	COMDAT ??_C@_0M@GHHHCAEH@MOTION_NONE@
CONST	SEGMENT
??_C@_0M@GHHHCAEH@MOTION_NONE@ DB 'MOTION_NONE', 00H	; `string'
CONST	ENDS
;	COMDAT ??_C@_0BE@BCBGONIE@PLAYER_NAME_MAX_LEN@
CONST	SEGMENT
??_C@_0BE@BCBGONIE@PLAYER_NAME_MAX_LEN@ DB 'PLAYER_NAME_MAX_LEN', 00H ; `string'
CONST	ENDS
;	COMDAT ??_C@_03KMOFPJOC@chr@
CONST	SEGMENT
??_C@_03KMOFPJOC@chr@ DB 'chr', 00H			; `string'
CONST	ENDS
;	COMDAT ??_C@_07PPDOKPN@SetSash@
CONST	SEGMENT
??_C@_07PPDOKPN@SetSash@ DB 'SetSash', 00H		; `string'
CONST	ENDS
;	COMDAT ??_C@_0P@OHFCMBLI@testSetRideMan@
CONST	SEGMENT
??_C@_0P@OHFCMBLI@testSetRideMan@ DB 'testSetRideMan', 00H ; `string'
CONST	ENDS
;	COMDAT ??_C@_0BG@PPLDMJLI@testRestoreRenderMode@
CONST	SEGMENT
??_C@_0BG@PPLDMJLI@testRestoreRenderMode@ DB 'testRestoreRenderMode', 00H ; `string'
CONST	ENDS
;	COMDAT ??_C@_0BL@IAFIJOID@testSetSpecularRenderMode2@
CONST	SEGMENT
??_C@_0BL@IAFIJOID@testSetSpecularRenderMode2@ DB 'testSetSpecularRenderM'
	DB	'ode2', 00H					; `string'
CONST	ENDS
;	COMDAT ??_C@_0BK@PFCOBJBF@testSetSpecularRenderMode@
CONST	SEGMENT
??_C@_0BK@PFCOBJBF@testSetSpecularRenderMode@ DB 'testSetSpecularRenderMo'
	DB	'de', 00H					; `string'
CONST	ENDS
;	COMDAT ??_C@_0BN@ICOLIADE@testSetModulateRenderModeRGB@
CONST	SEGMENT
??_C@_0BN@ICOLIADE@testSetModulateRenderModeRGB@ DB 'testSetModulateRende'
	DB	'rModeRGB', 00H				; `string'
CONST	ENDS
;	COMDAT ??_C@_0BI@DCLDMMPM@testSetAddRenderModeRGB@
CONST	SEGMENT
??_C@_0BI@DCLDMMPM@testSetAddRenderModeRGB@ DB 'testSetAddRenderModeRGB', 00H ; `string'
CONST	ENDS
;	COMDAT ??_C@_0BK@MMJPLJAB@testSetModulateRenderMode@
CONST	SEGMENT
??_C@_0BK@MMJPLJAB@testSetModulateRenderMode@ DB 'testSetModulateRenderMo'
	DB	'de', 00H					; `string'
CONST	ENDS
;	COMDAT ??_C@_0BF@KKAOKOCP@testSetAddRenderMode@
CONST	SEGMENT
??_C@_0BF@KKAOKOCP@testSetAddRenderMode@ DB 'testSetAddRenderMode', 00H ; `string'
CONST	ENDS
;	COMDAT ??_C@_0BB@DPBIMGC@testSetComboType@
CONST	SEGMENT
??_C@_0BB@DPBIMGC@testSetComboType@ DB 'testSetComboType', 00H ; `string'
CONST	ENDS
;	COMDAT ??_C@_0BD@DOJIBHBJ@MoveToDestPosition@
CONST	SEGMENT
??_C@_0BD@DOJIBHBJ@MoveToDestPosition@ DB 'MoveToDestPosition', 00H ; `string'
CONST	ENDS
;	COMDAT ??_C@_0BG@PMHANMKI@WeaponTraceUseTexture@
CONST	SEGMENT
??_C@_0BG@PMHANMKI@WeaponTraceUseTexture@ DB 'WeaponTraceUseTexture', 00H ; `string'
CONST	ENDS
;	COMDAT ??_C@_0BE@EGNCJJPB@WeaponTraceUseAlpha@
CONST	SEGMENT
??_C@_0BE@EGNCJJPB@WeaponTraceUseAlpha@ DB 'WeaponTraceUseAlpha', 00H ; `string'
CONST	ENDS
;	COMDAT ??_C@_0BG@IFMOLBHG@WeaponTraceSetTexture@
CONST	SEGMENT
??_C@_0BG@IFMOLBHG@WeaponTraceSetTexture@ DB 'WeaponTraceSetTexture', 00H ; `string'
CONST	ENDS
;	COMDAT ??_C@_0P@HDBEGKGG@SetAttackSpeed@
CONST	SEGMENT
??_C@_0P@HDBEGKGG@SetAttackSpeed@ DB 'SetAttackSpeed', 00H ; `string'
CONST	ENDS
;	COMDAT ??_C@_0N@NBFDNLFE@SetMoveSpeed@
CONST	SEGMENT
??_C@_0N@NBFDNLFE@SetMoveSpeed@ DB 'SetMoveSpeed', 00H	; `string'
CONST	ENDS
;	COMDAT ??_C@_09JMNILCLH@FaintTest@
CONST	SEGMENT
??_C@_09JMNILCLH@FaintTest@ DB 'FaintTest', 00H		; `string'
CONST	ENDS
;	COMDAT ??_C@_0O@NGEBABJL@testGetPKData@
CONST	SEGMENT
??_C@_0O@NGEBABJL@testGetPKData@ DB 'testGetPKData', 00H ; `string'
CONST	ENDS
;	COMDAT ??_C@_09JBFJGAAF@RaceToSex@
CONST	SEGMENT
??_C@_09JBFJGAAF@RaceToSex@ DB 'RaceToSex', 00H		; `string'
CONST	ENDS
;	COMDAT ??_C@_09BPCAHBN@RaceToJob@
CONST	SEGMENT
??_C@_09BPCAHBN@RaceToJob@ DB 'RaceToJob', 00H		; `string'
CONST	ENDS
;	COMDAT ??_C@_0BC@NEGEPOJK@GetBoundBoxOnlyXY@
CONST	SEGMENT
??_C@_0BC@NEGEPOJK@GetBoundBoxOnlyXY@ DB 'GetBoundBoxOnlyXY', 00H ; `string'
CONST	ENDS
;	COMDAT ??_C@_0BA@NKGBNGAG@GetInstanceType@
CONST	SEGMENT
??_C@_0BA@NKGBNGAG@GetInstanceType@ DB 'GetInstanceType', 00H ; `string'
CONST	ENDS
;	COMDAT ??_C@_0BB@GEKGPEHG@GetVirtualNumber@
CONST	SEGMENT
??_C@_0BB@GEKGPEHG@GetVirtualNumber@ DB 'GetVirtualNumber', 00H ; `string'
CONST	ENDS
;	COMDAT ??_C@_0BD@EDCEKIDC@GetProjectPosition@
CONST	SEGMENT
??_C@_0BD@EDCEKIDC@GetProjectPosition@ DB 'GetProjectPosition', 00H ; `string'
CONST	ENDS
;	COMDAT ??_C@_0L@EAKBLDCO@GetGuildID@
CONST	SEGMENT
??_C@_0L@EAKBLDCO@GetGuildID@ DB 'GetGuildID', 00H	; `string'
CONST	ENDS
;	COMDAT ??_C@_0N@CEBOCFNC@GetNameByVID@
CONST	SEGMENT
??_C@_0N@CEBOCFNC@GetNameByVID@ DB 'GetNameByVID', 00H	; `string'
CONST	ENDS
;	COMDAT ??_C@_07MMGEHGCI@GetName@
CONST	SEGMENT
??_C@_07MMGEHGCI@GetName@ DB 'GetName', 00H		; `string'
CONST	ENDS
;	COMDAT ??_C@_07GDOKCBKB@GetRace@
CONST	SEGMENT
??_C@_07GDOKCBKB@GetRace@ DB 'GetRace', 00H		; `string'
CONST	ENDS
;	COMDAT ??_C@_0M@GCJJLPOF@GetRotation@
CONST	SEGMENT
??_C@_0M@GCJJLPOF@GetRotation@ DB 'GetRotation', 00H	; `string'
CONST	ENDS
;	COMDAT ??_C@_0O@MOMBDHP@BlendRotation@
CONST	SEGMENT
??_C@_0O@MOMBDHP@BlendRotation@ DB 'BlendRotation', 00H	; `string'
CONST	ENDS
;	COMDAT ??_C@_0P@CAJEFICF@SetRotationAll@
CONST	SEGMENT
??_C@_0P@CAJEFICF@SetRotationAll@ DB 'SetRotationAll', 00H ; `string'
CONST	ENDS
;	COMDAT ??_C@_0M@GNIHGJGG@SetRotation@
CONST	SEGMENT
??_C@_0M@GNIHGJGG@SetRotation@ DB 'SetRotation', 00H	; `string'
CONST	ENDS
;	COMDAT ??_C@_0BB@JJOEJJPB@GetPixelPosition@
CONST	SEGMENT
??_C@_0BB@JJOEJJPB@GetPixelPosition@ DB 'GetPixelPosition', 00H ; `string'
CONST	ENDS
;	COMDAT ??_C@_0P@BMNKFJAK@PushLoopMotion@
CONST	SEGMENT
??_C@_0P@BMNKFJAK@PushLoopMotion@ DB 'PushLoopMotion', 00H ; `string'
CONST	ENDS
;	COMDAT ??_C@_0P@LIJFJIGO@PushOnceMotion@
CONST	SEGMENT
??_C@_0P@LIJFJIGO@PushOnceMotion@ DB 'PushOnceMotion', 00H ; `string'
CONST	ENDS
;	COMDAT ??_C@_0BA@JHKNHNFN@BlendLoopMotion@
CONST	SEGMENT
??_C@_0BA@JHKNHNFN@BlendLoopMotion@ DB 'BlendLoopMotion', 00H ; `string'
CONST	ENDS
;	COMDAT ??_C@_0O@LMHNCNAM@SetLoopMotion@
CONST	SEGMENT
??_C@_0O@LMHNCNAM@SetLoopMotion@ DB 'SetLoopMotion', 00H ; `string'
CONST	ENDS
;	COMDAT ??_C@_0O@MFBHEMHB@SetMotionMode@
CONST	SEGMENT
??_C@_0O@MFBHEMHB@SetMotionMode@ DB 'SetMotionMode', 00H ; `string'
CONST	ENDS
;	COMDAT ??_C@_06NFNEEJJI@LookAt@
CONST	SEGMENT
??_C@_06NFNEEJJI@LookAt@ DB 'LookAt', 00H		; `string'
CONST	ENDS
;	COMDAT ??_C@_0BD@HHHMIBBD@AttachEffectByName@
CONST	SEGMENT
??_C@_0BD@HHHMIBBD@AttachEffectByName@ DB 'AttachEffectByName', 00H ; `string'
CONST	ENDS
;	COMDAT ??_C@_0BB@NOBBHECI@AttachEffectByID@
CONST	SEGMENT
??_C@_0BB@NOBBHECI@AttachEffectByID@ DB 'AttachEffectByID', 00H ; `string'
CONST	ENDS
;	COMDAT ??_C@_0P@GMLDODKO@RequestPetName@
CONST	SEGMENT
??_C@_0P@GMLDODKO@RequestPetName@ DB 'RequestPetName', 00H ; `string'
CONST	ENDS
;	COMDAT ??_C@_03JFEBIAME@Die@
CONST	SEGMENT
??_C@_03JFEBIAME@Die@ DB 'Die', 00H			; `string'
CONST	ENDS
;	COMDAT ??_C@_06PGKKGABA@Revive@
CONST	SEGMENT
??_C@_06PGKKGABA@Revive@ DB 'Revive', 00H		; `string'
CONST	ENDS
;	COMDAT ??_C@_07POIENIBA@Refresh@
CONST	SEGMENT
??_C@_07POIENIBA@Refresh@ DB 'Refresh', 00H		; `string'
CONST	ENDS
;	COMDAT ??_C@_0N@JGECPEGH@SetDirection@
CONST	SEGMENT
??_C@_0N@JGECPEGH@SetDirection@ DB 'SetDirection', 00H	; `string'
CONST	ENDS
;	COMDAT ??_C@_0BB@PNLNCHED@SetPixelPosition@
CONST	SEGMENT
??_C@_0BB@PNLNCHED@SetPixelPosition@ DB 'SetPixelPosition', 00H ; `string'
CONST	ENDS
;	COMDAT ??_C@_0BA@OIHHKEBP@SetInstanceType@
CONST	SEGMENT
??_C@_0BA@OIHHKEBP@SetInstanceType@ DB 'SetInstanceType', 00H ; `string'
CONST	ENDS
;	COMDAT ??_C@_0O@OBMFICKC@SetNameString@
CONST	SEGMENT
??_C@_0O@OBMFICKC@SetNameString@ DB 'SetNameString', 00H ; `string'
CONST	ENDS
;	COMDAT ??_C@_0N@GNEKMNPE@SetVirtualID@
CONST	SEGMENT
??_C@_0N@GNEKMNPE@SetVirtualID@ DB 'SetVirtualID', 00H	; `string'
CONST	ENDS
;	COMDAT ??_C@_0L@DAKFNGKA@ChangeHair@
CONST	SEGMENT
??_C@_0L@DAKFNGKA@ChangeHair@ DB 'ChangeHair', 00H	; `string'
CONST	ENDS
;	COMDAT ??_C@_07LJFPJABD@SetHair@
CONST	SEGMENT
??_C@_07LJFPJABD@SetHair@ DB 'SetHair', 00H		; `string'
CONST	ENDS
;	COMDAT ??_C@_07JLBLBOHA@SetRace@
CONST	SEGMENT
??_C@_07JLBLBOHA@SetRace@ DB 'SetRace', 00H		; `string'
CONST	ENDS
;	COMDAT ??_C@_0M@GMFNPFHE@ChangeShape@
CONST	SEGMENT
??_C@_0M@GMFNPFHE@ChangeShape@ DB 'ChangeShape', 00H	; `string'
CONST	ENDS
;	COMDAT ??_C@_09LJGLIMMG@SetWeapon@
CONST	SEGMENT
??_C@_09LJGLIMMG@SetWeapon@ DB 'SetWeapon', 00H		; `string'
CONST	ENDS
;	COMDAT ??_C@_08CNNBONE@SetArmor@
CONST	SEGMENT
??_C@_08CNNBONE@SetArmor@ DB 'SetArmor', 00H		; `string'
CONST	ENDS
;	COMDAT ??_C@_07BKHKMIHJ@PickAll@
CONST	SEGMENT
??_C@_07BKHKMIHJ@PickAll@ DB 'PickAll', 00H		; `string'
CONST	ENDS
;	COMDAT ??_C@_04ILHILILF@Pick@
CONST	SEGMENT
??_C@_04ILHILILF@Pick@ DB 'Pick', 00H			; `string'
CONST	ENDS
;	COMDAT ??_C@_04JLAJABDJ@Show@
CONST	SEGMENT
??_C@_04JLAJABDJ@Show@ DB 'Show', 00H			; `string'
CONST	ENDS
;	COMDAT ??_C@_04EACEFPPN@Hide@
CONST	SEGMENT
??_C@_04EACEFPPN@Hide@ DB 'Hide', 00H			; `string'
CONST	ENDS
;	COMDAT ??_C@_08DABDFNEI@Unselect@
CONST	SEGMENT
??_C@_08DABDFNEI@Unselect@ DB 'Unselect', 00H		; `string'
CONST	ENDS
;	COMDAT ??_C@_0BD@GJEGGPMO@SetBlendRenderMode@
CONST	SEGMENT
??_C@_0BD@GJEGGPMO@SetBlendRenderMode@ DB 'SetBlendRenderMode', 00H ; `string'
CONST	ENDS
;	COMDAT ??_C@_0BB@FAHKALE@SetAddRenderMode@
CONST	SEGMENT
??_C@_0BB@FAHKALE@SetAddRenderMode@ DB 'SetAddRenderMode', 00H ; `string'
CONST	ENDS
;	COMDAT ??_C@_06HJGPBJLE@Select@
CONST	SEGMENT
??_C@_06HJGPBJLE@Select@ DB 'Select', 00H		; `string'
CONST	ENDS
;	COMDAT ??_C@_0O@FJCFNEGL@IsPartyMember@
CONST	SEGMENT
??_C@_0O@FJCFNEGL@IsPartyMember@ DB 'IsPartyMember', 00H ; `string'
CONST	ENDS
;	COMDAT ??_C@_0N@ICHIKNBJ@IsGameMaster@
CONST	SEGMENT
??_C@_0N@ICHIKNBJ@IsGameMaster@ DB 'IsGameMaster', 00H	; `string'
CONST	ENDS
;	COMDAT ??_C@_05BEDLICJP@IsNPC@
CONST	SEGMENT
??_C@_05BEDLICJP@IsNPC@ DB 'IsNPC', 00H			; `string'
CONST	ENDS
;	COMDAT ??_C@_07LKBCPMOI@IsEnemy@
CONST	SEGMENT
??_C@_07LKBCPMOI@IsEnemy@ DB 'IsEnemy', 00H		; `string'
CONST	ENDS
;	COMDAT ??_C@_0M@OJLCDJBP@HasInstance@
CONST	SEGMENT
??_C@_0M@OJLCDJBP@HasInstance@ DB 'HasInstance', 00H	; `string'
CONST	ENDS
;	COMDAT ??_C@_0P@HKEJIIJD@SelectInstance@
CONST	SEGMENT
??_C@_0P@HKEJIIJD@SelectInstance@ DB 'SelectInstance', 00H ; `string'
CONST	ENDS
;	COMDAT ??_C@_0BF@EFFECMK@DeleteInstanceByFade@
CONST	SEGMENT
??_C@_0BF@EFFECMK@DeleteInstanceByFade@ DB 'DeleteInstanceByFade', 00H ; `string'
CONST	ENDS
;	COMDAT ??_C@_0P@OKILCDFI@DeleteInstance@
CONST	SEGMENT
??_C@_0P@OKILCDFI@DeleteInstance@ DB 'DeleteInstance', 00H ; `string'
CONST	ENDS
;	COMDAT ??_C@_0P@PGGGILHJ@CreateInstance@
CONST	SEGMENT
??_C@_0P@PGGGILHJ@CreateInstance@ DB 'CreateInstance', 00H ; `string'
CONST	ENDS
;	COMDAT ??_C@_06HIPPCDGO@Deform@
CONST	SEGMENT
??_C@_06HIPPCDGO@Deform@ DB 'Deform', 00H		; `string'
CONST	ENDS
;	COMDAT ??_C@_0L@LJFIMMEM@MountHorse@
CONST	SEGMENT
??_C@_0L@LJFIMMEM@MountHorse@ DB 'MountHorse', 00H	; `string'
CONST	ENDS
;	COMDAT ??_C@_0O@HFPHAOI@DismountHorse@
CONST	SEGMENT
??_C@_0O@HFPHAOI@DismountHorse@ DB 'DismountHorse', 00H	; `string'
CONST	ENDS
;	COMDAT ??_C@_04OHJIHAFH@None@
CONST	SEGMENT
??_C@_04OHJIHAFH@None@ DB 'None', 00H			; `string'
CONST	ENDS
;	COMDAT ??_C@_01EANLCPLP@y@
CONST	SEGMENT
??_C@_01EANLCPLP@y@ DB 'y', 00H				; `string'
CONST	ENDS
;	COMDAT ??_C@_01FJMABOPO@x@
CONST	SEGMENT
??_C@_01FJMABOPO@x@ DB 'x', 00H				; `string'
CONST	ENDS
;	COMDAT ??_C@_05DOPDBCAL@horse@
CONST	SEGMENT
??_C@_05DOPDBCAL@horse@ DB 'horse', 00H			; `string'
CONST	ENDS
;	COMDAT ??_C@_06LJIOOKLP@NONAME@
CONST	SEGMENT
??_C@_06LJIOOKLP@NONAME@ DB 'NONAME', 00H		; `string'
CONST	ENDS
;	COMDAT ??_C@_0CM@KLFAONCN@RequestPetName?3?5petname?5lenght?5@
CONST	SEGMENT
??_C@_0CM@KLFAONCN@RequestPetName?3?5petname?5lenght?5@ DB 'RequestPetNam'
	DB	'e: petname lenght not allowed!', 00H	; `string'
PUBLIC	?fmod@@YAMMM@Z					; fmod
PUBLIC	?initchr@@YAXXZ					; initchr
PUBLIC	?chrSetSash@@YAPAU_object@@PAU1@0@Z		; chrSetSash
PUBLIC	?chrtestSetRideMan@@YAPAU_object@@PAU1@0@Z	; chrtestSetRideMan
PUBLIC	?chrMoveToDestPosition@@YAPAU_object@@PAU1@0@Z	; chrMoveToDestPosition
PUBLIC	?chrWeaponTraceUseAlpha@@YAPAU_object@@PAU1@0@Z	; chrWeaponTraceUseAlpha
PUBLIC	?chrWeaponTraceUseTexture@@YAPAU_object@@PAU1@0@Z ; chrWeaponTraceUseTexture
PUBLIC	?chrWeaponTraceSetTexture@@YAPAU_object@@PAU1@0@Z ; chrWeaponTraceSetTexture
PUBLIC	?chrSetAttackSpeed@@YAPAU_object@@PAU1@0@Z	; chrSetAttackSpeed
PUBLIC	?chrSetMoveSpeed@@YAPAU_object@@PAU1@0@Z	; chrSetMoveSpeed
PUBLIC	?chrFaintTest@@YAPAU_object@@PAU1@0@Z		; chrFaintTest
PUBLIC	?chrtestRestoreRenderMode@@YAPAU_object@@PAU1@0@Z ; chrtestRestoreRenderMode
PUBLIC	?chrtestSetSpecularRenderMode2@@YAPAU_object@@PAU1@0@Z ; chrtestSetSpecularRenderMode2
PUBLIC	?chrtestSetSpecularRenderMode@@YAPAU_object@@PAU1@0@Z ; chrtestSetSpecularRenderMode
PUBLIC	?chrtestSetModulateRenderModeRGB@@YAPAU_object@@PAU1@0@Z ; chrtestSetModulateRenderModeRGB
PUBLIC	?chrtestSetAddRenderModeRGB@@YAPAU_object@@PAU1@0@Z ; chrtestSetAddRenderModeRGB
PUBLIC	?chrtestSetModulateRenderMode@@YAPAU_object@@PAU1@0@Z ; chrtestSetModulateRenderMode
PUBLIC	?chrtestSetAddRenderMode@@YAPAU_object@@PAU1@0@Z ; chrtestSetAddRenderMode
PUBLIC	?chrtestSetComboType@@YAPAU_object@@PAU1@0@Z	; chrtestSetComboType
PUBLIC	?chrtestGetPKData@@YAPAU_object@@PAU1@0@Z	; chrtestGetPKData
PUBLIC	?chrGetBoundBoxOnlyXY@@YAPAU_object@@PAU1@0@Z	; chrGetBoundBoxOnlyXY
PUBLIC	?chrGetInstanceType@@YAPAU_object@@PAU1@0@Z	; chrGetInstanceType
PUBLIC	?chrGetVirtualNumber@@YAPAU_object@@PAU1@0@Z	; chrGetVirtualNumber
PUBLIC	?chrGetProjectPosition@@YAPAU_object@@PAU1@0@Z	; chrGetProjectPosition
PUBLIC	?chrGetGuildID@@YAPAU_object@@PAU1@0@Z		; chrGetGuildID
PUBLIC	?chrGetNameByVID@@YAPAU_object@@PAU1@0@Z	; chrGetNameByVID
PUBLIC	?chrGetName@@YAPAU_object@@PAU1@0@Z		; chrGetName
PUBLIC	?chrGetRace@@YAPAU_object@@PAU1@0@Z		; chrGetRace
PUBLIC	?chrGetRotation@@YAPAU_object@@PAU1@0@Z		; chrGetRotation
PUBLIC	?chrBlendRotation@@YAPAU_object@@PAU1@0@Z	; chrBlendRotation
PUBLIC	?chrSetRotationAll@@YAPAU_object@@PAU1@0@Z	; chrSetRotationAll
PUBLIC	?chrSetRotation@@YAPAU_object@@PAU1@0@Z		; chrSetRotation
PUBLIC	?chrGetPixelPosition@@YAPAU_object@@PAU1@0@Z	; chrGetPixelPosition
PUBLIC	?chrSetDirection@@YAPAU_object@@PAU1@0@Z	; chrSetDirection
PUBLIC	?chrSetPixelPosition@@YAPAU_object@@PAU1@0@Z	; chrSetPixelPosition
PUBLIC	?chrPushLoopMotion@@YAPAU_object@@PAU1@0@Z	; chrPushLoopMotion
PUBLIC	?chrPushOnceMotion@@YAPAU_object@@PAU1@0@Z	; chrPushOnceMotion
PUBLIC	?chrBlendLoopMotion@@YAPAU_object@@PAU1@0@Z	; chrBlendLoopMotion
PUBLIC	?chrSetLoopMotion@@YAPAU_object@@PAU1@0@Z	; chrSetLoopMotion
PUBLIC	?chrSetMotionMode@@YAPAU_object@@PAU1@0@Z	; chrSetMotionMode
PUBLIC	?chrLookAt@@YAPAU_object@@PAU1@0@Z		; chrLookAt
PUBLIC	?chrDie@@YAPAU_object@@PAU1@0@Z			; chrDie
PUBLIC	?chrRevive@@YAPAU_object@@PAU1@0@Z		; chrRevive
PUBLIC	?chrDismountHorse@@YAPAU_object@@PAU1@0@Z	; chrDismountHorse
PUBLIC	?chrMountHorse@@YAPAU_object@@PAU1@0@Z		; chrMountHorse
PUBLIC	?chrRefresh@@YAPAU_object@@PAU1@0@Z		; chrRefresh
PUBLIC	?chrAttachEffectByID@@YAPAU_object@@PAU1@0@Z	; chrAttachEffectByID
PUBLIC	?chrAttachEffectByName@@YAPAU_object@@PAU1@0@Z	; chrAttachEffectByName
PUBLIC	?chrSetInstanceType@@YAPAU_object@@PAU1@0@Z	; chrSetInstanceType
PUBLIC	?chrSetNameString@@YAPAU_object@@PAU1@0@Z	; chrSetNameString
PUBLIC	?chrSetVirtualID@@YAPAU_object@@PAU1@0@Z	; chrSetVirtualID
PUBLIC	?chrSetWeapon@@YAPAU_object@@PAU1@0@Z		; chrSetWeapon
PUBLIC	?chrChangeShape@@YAPAU_object@@PAU1@0@Z		; chrChangeShape
PUBLIC	?chrSetArmor@@YAPAU_object@@PAU1@0@Z		; chrSetArmor
PUBLIC	?chrChangeHair@@YAPAU_object@@PAU1@0@Z		; chrChangeHair
PUBLIC	?chrSetHair@@YAPAU_object@@PAU1@0@Z		; chrSetHair
PUBLIC	?chrSetRace@@YAPAU_object@@PAU1@0@Z		; chrSetRace
PUBLIC	?chrPickAll@@YAPAU_object@@PAU1@0@Z		; chrPickAll
PUBLIC	?chrShow@@YAPAU_object@@PAU1@0@Z		; chrShow
PUBLIC	?chrHide@@YAPAU_object@@PAU1@0@Z		; chrHide
PUBLIC	?chrPick@@YAPAU_object@@PAU1@0@Z		; chrPick
PUBLIC	?chrUnselect@@YAPAU_object@@PAU1@0@Z		; chrUnselect
PUBLIC	?chrSetBlendRenderMode@@YAPAU_object@@PAU1@0@Z	; chrSetBlendRenderMode
PUBLIC	?chrSetAddRenderMode@@YAPAU_object@@PAU1@0@Z	; chrSetAddRenderMode
PUBLIC	?chrSelect@@YAPAU_object@@PAU1@0@Z		; chrSelect
PUBLIC	?chrIsPartyMember@@YAPAU_object@@PAU1@0@Z	; chrIsPartyMember
PUBLIC	?chrIsGameMaster@@YAPAU_object@@PAU1@0@Z	; chrIsGameMaster
PUBLIC	?chrIsNPC@@YAPAU_object@@PAU1@0@Z		; chrIsNPC
PUBLIC	?chrIsEnemy@@YAPAU_object@@PAU1@0@Z		; chrIsEnemy
PUBLIC	?chrHasInstance@@YAPAU_object@@PAU1@0@Z		; chrHasInstance
PUBLIC	?chrSelectInstance@@YAPAU_object@@PAU1@0@Z	; chrSelectInstance
PUBLIC	?chrDeleteInstanceByFade@@YAPAU_object@@PAU1@0@Z ; chrDeleteInstanceByFade
PUBLIC	?chrDeleteInstance@@YAPAU_object@@PAU1@0@Z	; chrDeleteInstance
PUBLIC	?chrCreateInstance@@YAPAU_object@@PAU1@0@Z	; chrCreateInstance
PUBLIC	?chrRenderCollision@@YAPAU_object@@PAU1@0@Z	; chrRenderCollision
PUBLIC	?chrRender@@YAPAU_object@@PAU1@0@Z		; chrRender
PUBLIC	?chrDeform@@YAPAU_object@@PAU1@0@Z		; chrDeform
PUBLIC	?chrUpdate@@YAPAU_object@@PAU1@0@Z		; chrUpdate
PUBLIC	?chrDestroy@@YAPAU_object@@PAU1@0@Z		; chrDestroy
PUBLIC	?braveRequestPetName@@YAPAU_object@@PAU1@0@Z	; braveRequestPetName
PUBLIC	?chrRaceToSex@@YAPAU_object@@PAU1@0@Z		; chrRaceToSex
PUBLIC	?chrRaceToJob@@YAPAU_object@@PAU1@0@Z		; chrRaceToJob
;	COMDAT xdata$x
xdata$x	SEGMENT
__ehfuncinfo$?chrCreateInstance@@YAPAU_object@@PAU1@0@Z DD 019930522H
	DD	01H
	DD	FLAT:__unwindtable$?chrCreateInstance@@YAPAU_object@@PAU1@0@Z
	DD	2 DUP(00H)
	DD	2 DUP(00H)
	DD	00H
	DD	01H
__unwindtable$?chrCreateInstance@@YAPAU_object@@PAU1@0@Z DD 0ffffffffH
	DD	FLAT:__unwindfunclet$?chrCreateInstance@@YAPAU_object@@PAU1@0@Z$0
xdata$x	ENDS
;	COMDAT xdata$x
xdata$x	SEGMENT
__ehfuncinfo$?chrtestSetRideMan@@YAPAU_object@@PAU1@0@Z DD 019930522H
	DD	01H
	DD	FLAT:__unwindtable$?chrtestSetRideMan@@YAPAU_object@@PAU1@0@Z
	DD	2 DUP(00H)
	DD	2 DUP(00H)
	DD	00H
	DD	01H
__unwindtable$?chrtestSetRideMan@@YAPAU_object@@PAU1@0@Z DD 0ffffffffH
	DD	FLAT:__unwindfunclet$?chrtestSetRideMan@@YAPAU_object@@PAU1@0@Z$0
; Function compile flags: /Ogtp
; File E:\Metin2_server\SolWayneSF v6\ClientVS22\source\UserInterface\PythonCharacterModule.cpp
; File E:\Metin2_server\SolWayneSF v6\ClientVS22\source\UserInterface\InstanceBase.h
; File E:\Metin2_server\SolWayneSF v6\ClientVS22\source\UserInterface\PythonCharacterModule.cpp
;	COMDAT ?chrRaceToJob@@YAPAU_object@@PAU1@0@Z
_TEXT	SEGMENT
_race$ = -4						; size = 4
_poSelf$ = 8						; size = 4
_poArgs$ = 12						; size = 4
?chrRaceToJob@@YAPAU_object@@PAU1@0@Z PROC		; chrRaceToJob, COMDAT

; 10   : {

  00000	55		 push	 ebp
  00001	8b ec		 mov	 ebp, esp
  00003	51		 push	 ecx

; 11   : 	int race;
; 12   : 	if (!PyTuple_GetInteger(poArgs, 0, &race))

  00004	8d 45 fc	 lea	 eax, DWORD PTR _race$[ebp]
  00007	50		 push	 eax
  00008	6a 00		 push	 0
  0000a	ff 75 0c	 push	 DWORD PTR _poArgs$[ebp]
  0000d	e8 00 00 00 00	 call	 ?PyTuple_GetInteger@@YA_NPAU_object@@HPAH@Z ; PyTuple_GetInteger
  00012	83 c4 0c	 add	 esp, 12			; 0000000cH
  00015	84 c0		 test	 al, al
  00017	75 0e		 jne	 SHORT $LN2@chrRaceToJ

; 13   : 		return Py_BuildException();

  00019	6a 00		 push	 0
  0001b	e8 00 00 00 00	 call	 ?Py_BuildException@@YAPAU_object@@PBDZZ ; Py_BuildException
  00020	83 c4 04	 add	 esp, 4

; 16   : }

  00023	8b e5		 mov	 esp, ebp
  00025	5d		 pop	 ebp
  00026	c3		 ret	 0
$LN2@chrRaceToJ:
; File E:\Metin2_server\SolWayneSF v6\ClientVS22\source\UserInterface\InstanceBase.h

; 1155 : 	return race % JOB_NUM;

  00027	8b 45 fc	 mov	 eax, DWORD PTR _race$[ebp]
  0002a	25 03 00 00 80	 and	 eax, -2147483645	; 80000003H
  0002f	79 05		 jns	 SHORT $LN6@chrRaceToJ
  00031	48		 dec	 eax
  00032	83 c8 fc	 or	 eax, -4			; fffffffcH
  00035	40		 inc	 eax
$LN6@chrRaceToJ:
; File E:\Metin2_server\SolWayneSF v6\ClientVS22\source\UserInterface\PythonCharacterModule.cpp

; 15   : 	return Py_BuildValue("i", RaceToJob(race));

  00036	50		 push	 eax
  00037	68 00 00 00 00	 push	 OFFSET ??_C@_01KBJDNOO@i@
  0003c	ff 15 00 00 00
	00		 call	 DWORD PTR __imp__Py_BuildValue
  00042	83 c4 08	 add	 esp, 8

; 16   : }

  00045	8b e5		 mov	 esp, ebp
  00047	5d		 pop	 ebp
  00048	c3		 ret	 0
?chrRaceToJob@@YAPAU_object@@PAU1@0@Z ENDP		; chrRaceToJob
_TEXT	ENDS
; Function compile flags: /Ogtp
; File E:\Metin2_server\SolWayneSF v6\ClientVS22\source\UserInterface\PythonCharacterModule.cpp
; File E:\Metin2_server\SolWayneSF v6\ClientVS22\source\UserInterface\InstanceBase.h
; File E:\Metin2_server\SolWayneSF v6\ClientVS22\source\UserInterface\PythonCharacterModule.cpp
;	COMDAT ?chrRaceToSex@@YAPAU_object@@PAU1@0@Z
_TEXT	SEGMENT
_race$ = -4						; size = 4
_poSelf$ = 8						; size = 4
_poArgs$ = 12						; size = 4
?chrRaceToSex@@YAPAU_object@@PAU1@0@Z PROC		; chrRaceToSex, COMDAT

; 19   : {

  00000	55		 push	 ebp
  00001	8b ec		 mov	 ebp, esp
  00003	51		 push	 ecx

; 20   : 	int race;
; 21   : 	if (!PyTuple_GetInteger(poArgs, 0, &race))

  00004	8d 45 fc	 lea	 eax, DWORD PTR _race$[ebp]
  00007	50		 push	 eax
  00008	6a 00		 push	 0
  0000a	ff 75 0c	 push	 DWORD PTR _poArgs$[ebp]
  0000d	e8 00 00 00 00	 call	 ?PyTuple_GetInteger@@YA_NPAU_object@@HPAH@Z ; PyTuple_GetInteger
  00012	83 c4 0c	 add	 esp, 12			; 0000000cH
  00015	84 c0		 test	 al, al
  00017	75 0e		 jne	 SHORT $LN2@chrRaceToS

; 22   : 		return Py_BuildException();

  00019	6a 00		 push	 0
  0001b	e8 00 00 00 00	 call	 ?Py_BuildException@@YAPAU_object@@PBDZZ ; Py_BuildException
  00020	83 c4 04	 add	 esp, 4

; 25   : }

  00023	8b e5		 mov	 esp, ebp
  00025	5d		 pop	 ebp
  00026	c3		 ret	 0
$LN2@chrRaceToS:
; File E:\Metin2_server\SolWayneSF v6\ClientVS22\source\UserInterface\InstanceBase.h

; 1160 : 	switch (race)

  00027	8b 45 fc	 mov	 eax, DWORD PTR _race$[ebp]
  0002a	83 f8 07	 cmp	 eax, 7
  0002d	77 26		 ja	 SHORT $LN5@chrRaceToS
  0002f	0f b6 80 00 00
	00 00		 movzx	 eax, BYTE PTR $LN16@chrRaceToS[eax]
  00036	ff 24 85 00 00
	00 00		 jmp	 DWORD PTR $LN17@chrRaceToS[eax*4]
$LN7@chrRaceToS:

; 1161 : 	{
; 1162 : 		case 0:
; 1163 : 		case 2:
; 1164 : 		case 5:
; 1165 : 		case 7:
; 1166 : 			return 1;

  0003d	b8 01 00 00 00	 mov	 eax, 1
; File E:\Metin2_server\SolWayneSF v6\ClientVS22\source\UserInterface\PythonCharacterModule.cpp

; 24   : 	return Py_BuildValue("i", RaceToSex(race));

  00042	50		 push	 eax
  00043	68 00 00 00 00	 push	 OFFSET ??_C@_01KBJDNOO@i@
  00048	ff 15 00 00 00
	00		 call	 DWORD PTR __imp__Py_BuildValue
  0004e	83 c4 08	 add	 esp, 8

; 25   : }

  00051	8b e5		 mov	 esp, ebp
  00053	5d		 pop	 ebp
  00054	c3		 ret	 0
$LN5@chrRaceToS:

; 24   : 	return Py_BuildValue("i", RaceToSex(race));

  00055	33 c0		 xor	 eax, eax
  00057	50		 push	 eax
  00058	68 00 00 00 00	 push	 OFFSET ??_C@_01KBJDNOO@i@
  0005d	ff 15 00 00 00
	00		 call	 DWORD PTR __imp__Py_BuildValue
  00063	83 c4 08	 add	 esp, 8

; 25   : }

  00066	8b e5		 mov	 esp, ebp
  00068	5d		 pop	 ebp
  00069	c3		 ret	 0
  0006a	66 90		 npad	 2
$LN17@chrRaceToS:
  0006c	00 00 00 00	 DD	 $LN7@chrRaceToS
  00070	00 00 00 00	 DD	 $LN5@chrRaceToS
$LN16@chrRaceToS:
  00074	00		 DB	 0
  00075	01		 DB	 1
  00076	00		 DB	 0
  00077	01		 DB	 1
  00078	01		 DB	 1
  00079	00		 DB	 0
  0007a	01		 DB	 1
  0007b	00		 DB	 0
?chrRaceToSex@@YAPAU_object@@PAU1@0@Z ENDP		; chrRaceToSex
_TEXT	ENDS
; Function compile flags: /Ogtp
; File E:\Metin2_server\SolWayneSF v6\ClientVS22\source\UserInterface\PythonCharacterModule.cpp
;	COMDAT ?braveRequestPetName@@YAPAU_object@@PAU1@0@Z
_TEXT	SEGMENT
_petname$ = -4						; size = 4
_poSelf$ = 8						; size = 4
_poArgs$ = 12						; size = 4
?braveRequestPetName@@YAPAU_object@@PAU1@0@Z PROC	; braveRequestPetName, COMDAT

; 29   : {

  00000	55		 push	 ebp
  00001	8b ec		 mov	 ebp, esp
  00003	51		 push	 ecx

; 30   : 	const char * petname;
; 31   : 
; 32   : 	if (!PyArg_ParseTuple(poArgs, "s", &petname)) {

  00004	8d 45 fc	 lea	 eax, DWORD PTR _petname$[ebp]
  00007	50		 push	 eax
  00008	68 00 00 00 00	 push	 OFFSET ??_C@_01LKDEMHDF@s@
  0000d	ff 75 0c	 push	 DWORD PTR _poArgs$[ebp]
  00010	ff 15 00 00 00
	00		 call	 DWORD PTR __imp__PyArg_ParseTuple
  00016	83 c4 0c	 add	 esp, 12			; 0000000cH
  00019	85 c0		 test	 eax, eax
  0001b	75 0d		 jne	 SHORT $LN2@braveReque

; 33   : 		return Py_BuildException();

  0001d	50		 push	 eax
  0001e	e8 00 00 00 00	 call	 ?Py_BuildException@@YAPAU_object@@PBDZZ ; Py_BuildException
  00023	83 c4 04	 add	 esp, 4

; 43   : 	return Py_BuildNone();
; 44   : }

  00026	8b e5		 mov	 esp, ebp
  00028	5d		 pop	 ebp
  00029	c3		 ret	 0
$LN2@braveReque:

; 34   : 	}
; 35   : 
; 36   : 	if (strlen(petname) > 12 || strlen(petname) < 4) {

  0002a	8b 55 fc	 mov	 edx, DWORD PTR _petname$[ebp]
  0002d	8b ca		 mov	 ecx, edx
  0002f	56		 push	 esi
  00030	8d 71 01	 lea	 esi, DWORD PTR [ecx+1]
$LL6@braveReque:
  00033	8a 01		 mov	 al, BYTE PTR [ecx]
  00035	41		 inc	 ecx
  00036	84 c0		 test	 al, al
  00038	75 f9		 jne	 SHORT $LL6@braveReque
  0003a	2b ce		 sub	 ecx, esi
  0003c	83 f9 0c	 cmp	 ecx, 12			; 0000000cH
  0003f	77 29		 ja	 SHORT $LN4@braveReque
  00041	8b ca		 mov	 ecx, edx
  00043	8d 71 01	 lea	 esi, DWORD PTR [ecx+1]
$LL7@braveReque:
  00046	8a 01		 mov	 al, BYTE PTR [ecx]
  00048	41		 inc	 ecx
  00049	84 c0		 test	 al, al
  0004b	75 f9		 jne	 SHORT $LL7@braveReque
  0004d	2b ce		 sub	 ecx, esi
  0004f	83 f9 04	 cmp	 ecx, 4
  00052	72 16		 jb	 SHORT $LN4@braveReque

; 39   : 	}
; 40   : 	
; 41   : 	CPythonNetworkStream& rns = CPythonNetworkStream::Instance();
; 42   : 	rns.PetSetNamePacket(petname);

  00054	8b 0d 00 00 00
	00		 mov	 ecx, DWORD PTR ?ms_singleton@?$CSingleton@VCPythonNetworkStream@@@@0PAVCPythonNetworkStream@@A ; CSingleton<CPythonNetworkStream>::ms_singleton
  0005a	52		 push	 edx
  0005b	e8 00 00 00 00	 call	 ?PetSetNamePacket@CPythonNetworkStream@@QAE_NPBD@Z ; CPythonNetworkStream::PetSetNamePacket
  00060	e8 00 00 00 00	 call	 ?Py_BuildNone@@YAPAU_object@@XZ ; Py_BuildNone
  00065	5e		 pop	 esi

; 43   : 	return Py_BuildNone();
; 44   : }

  00066	8b e5		 mov	 esp, ebp
  00068	5d		 pop	 ebp
  00069	c3		 ret	 0
$LN4@braveReque:

; 37   : 		TraceError("RequestPetName: petname lenght not allowed!");

  0006a	68 00 00 00 00	 push	 OFFSET ??_C@_0CM@KLFAONCN@RequestPetName?3?5petname?5lenght?5@
  0006f	e8 00 00 00 00	 call	 ?TraceError@@YAXPBDZZ	; TraceError
  00074	83 c4 04	 add	 esp, 4

; 38   : 		return Py_BuildNone();

  00077	e8 00 00 00 00	 call	 ?Py_BuildNone@@YAPAU_object@@XZ ; Py_BuildNone
  0007c	5e		 pop	 esi

; 43   : 	return Py_BuildNone();
; 44   : }

  0007d	8b e5		 mov	 esp, ebp
  0007f	5d		 pop	 ebp
  00080	c3		 ret	 0
?braveRequestPetName@@YAPAU_object@@PAU1@0@Z ENDP	; braveRequestPetName
_TEXT	ENDS
; Function compile flags: /Ogtp
; File E:\Metin2_server\SolWayneSF v6\ClientVS22\source\UserInterface\PythonCharacterModule.cpp
;	COMDAT ?chrDestroy@@YAPAU_object@@PAU1@0@Z
_TEXT	SEGMENT
_poSelf$ = 8						; size = 4
_poArgs$ = 12						; size = 4
?chrDestroy@@YAPAU_object@@PAU1@0@Z PROC		; chrDestroy, COMDAT

; 49   : 	CPythonCharacterManager::Instance().Destroy();

  00000	8b 0d 00 00 00
	00		 mov	 ecx, DWORD PTR ?ms_singleton@?$CSingleton@VCPythonCharacterManager@@@@0PAVCPythonCharacterManager@@A ; CSingleton<CPythonCharacterManager>::ms_singleton
  00006	83 c1 04	 add	 ecx, 4
  00009	8b 01		 mov	 eax, DWORD PTR [ecx]
  0000b	ff 50 04	 call	 DWORD PTR [eax+4]

; 50   : 	return Py_BuildNone();

  0000e	e9 00 00 00 00	 jmp	 ?Py_BuildNone@@YAPAU_object@@XZ ; Py_BuildNone
?chrDestroy@@YAPAU_object@@PAU1@0@Z ENDP		; chrDestroy
_TEXT	ENDS
; Function compile flags: /Ogtp
; File E:\Metin2_server\SolWayneSF v6\ClientVS22\source\UserInterface\PythonCharacterModule.cpp
;	COMDAT ?chrUpdate@@YAPAU_object@@PAU1@0@Z
_TEXT	SEGMENT
_poSelf$ = 8						; size = 4
_poArgs$ = 12						; size = 4
?chrUpdate@@YAPAU_object@@PAU1@0@Z PROC			; chrUpdate, COMDAT

; 55   : 	CPythonCharacterManager::Instance().Update();

  00000	8b 0d 00 00 00
	00		 mov	 ecx, DWORD PTR ?ms_singleton@?$CSingleton@VCPythonCharacterManager@@@@0PAVCPythonCharacterManager@@A ; CSingleton<CPythonCharacterManager>::ms_singleton
  00006	e8 00 00 00 00	 call	 ?Update@CPythonCharacterManager@@QAEXXZ ; CPythonCharacterManager::Update

; 56   : 	return Py_BuildNone();

  0000b	e9 00 00 00 00	 jmp	 ?Py_BuildNone@@YAPAU_object@@XZ ; Py_BuildNone
?chrUpdate@@YAPAU_object@@PAU1@0@Z ENDP			; chrUpdate
_TEXT	ENDS
; Function compile flags: /Ogtp
; File E:\Metin2_server\SolWayneSF v6\ClientVS22\source\UserInterface\PythonCharacterModule.cpp
;	COMDAT ?chrDeform@@YAPAU_object@@PAU1@0@Z
_TEXT	SEGMENT
_poSelf$ = 8						; size = 4
_poArgs$ = 12						; size = 4
?chrDeform@@YAPAU_object@@PAU1@0@Z PROC			; chrDeform, COMDAT

; 61   : 	CPythonCharacterManager::Instance().Deform();

  00000	8b 0d 00 00 00
	00		 mov	 ecx, DWORD PTR ?ms_singleton@?$CSingleton@VCPythonCharacterManager@@@@0PAVCPythonCharacterManager@@A ; CSingleton<CPythonCharacterManager>::ms_singleton
  00006	e8 00 00 00 00	 call	 ?Deform@CPythonCharacterManager@@QAEXXZ ; CPythonCharacterManager::Deform

; 62   : 	return Py_BuildNone();

  0000b	e9 00 00 00 00	 jmp	 ?Py_BuildNone@@YAPAU_object@@XZ ; Py_BuildNone
?chrDeform@@YAPAU_object@@PAU1@0@Z ENDP			; chrDeform
_TEXT	ENDS
; Function compile flags: /Ogtp
; File E:\Metin2_server\SolWayneSF v6\ClientVS22\source\UserInterface\PythonCharacterModule.cpp
;	COMDAT ?chrRender@@YAPAU_object@@PAU1@0@Z
_TEXT	SEGMENT
_poSelf$ = 8						; size = 4
_poArgs$ = 12						; size = 4
?chrRender@@YAPAU_object@@PAU1@0@Z PROC			; chrRender, COMDAT

; 67   : 	CPythonCharacterManager::Instance().Render();

  00000	8b 0d 00 00 00
	00		 mov	 ecx, DWORD PTR ?ms_singleton@?$CSingleton@VCPythonCharacterManager@@@@0PAVCPythonCharacterManager@@A ; CSingleton<CPythonCharacterManager>::ms_singleton
  00006	e8 00 00 00 00	 call	 ?Render@CPythonCharacterManager@@QAEXXZ ; CPythonCharacterManager::Render

; 68   : 	return Py_BuildNone();

  0000b	e9 00 00 00 00	 jmp	 ?Py_BuildNone@@YAPAU_object@@XZ ; Py_BuildNone
?chrRender@@YAPAU_object@@PAU1@0@Z ENDP			; chrRender
_TEXT	ENDS
; Function compile flags: /Ogtp
; File E:\Metin2_server\SolWayneSF v6\ClientVS22\source\UserInterface\PythonCharacterModule.cpp
;	COMDAT ?chrRenderCollision@@YAPAU_object@@PAU1@0@Z
_TEXT	SEGMENT
_poSelf$ = 8						; size = 4
_poArgs$ = 12						; size = 4
?chrRenderCollision@@YAPAU_object@@PAU1@0@Z PROC	; chrRenderCollision, COMDAT

; 73   : 	CPythonCharacterManager::Instance().RenderCollision();

  00000	8b 0d 00 00 00
	00		 mov	 ecx, DWORD PTR ?ms_singleton@?$CSingleton@VCPythonCharacterManager@@@@0PAVCPythonCharacterManager@@A ; CSingleton<CPythonCharacterManager>::ms_singleton
  00006	e8 00 00 00 00	 call	 ?RenderCollision@CPythonCharacterManager@@QAEXXZ ; CPythonCharacterManager::RenderCollision

; 74   : 	return Py_BuildNone();

  0000b	e9 00 00 00 00	 jmp	 ?Py_BuildNone@@YAPAU_object@@XZ ; Py_BuildNone
?chrRenderCollision@@YAPAU_object@@PAU1@0@Z ENDP	; chrRenderCollision
_TEXT	ENDS
; Function compile flags: /Ogtp
; File E:\Metin2_server\SolWayneSF v6\ClientVS22\source\UserInterface\PythonCharacterModule.cpp
; File C:\Program Files\Microsoft Visual Studio\2022\Community\VC\Tools\MSVC\14.34.31933\include\xstring
; File E:\Metin2_server\SolWayneSF v6\ClientVS22\source\UserInterface\PythonCharacterModule.cpp
; File C:\Program Files\Microsoft Visual Studio\2022\Community\VC\Tools\MSVC\14.34.31933\include\xstring
; File E:\Metin2_server\SolWayneSF v6\ClientVS22\source\UserInterface\PythonCharacterModule.cpp
; File C:\Program Files\Microsoft Visual Studio\2022\Community\VC\Tools\MSVC\14.34.31933\include\xstring
; File E:\Metin2_server\SolWayneSF v6\ClientVS22\source\UserInterface\PythonCharacterModule.cpp
;	COMDAT ?chrCreateInstance@@YAPAU_object@@PAU1@0@Z
_TEXT	SEGMENT
_iVirtualID$ = -132					; size = 4
_kCreateData$2 = -128					; size = 112
__$ArrayPad$ = -16					; size = 4
__$EHRec$ = -12						; size = 12
_poSelf$ = 8						; size = 4
_poArgs$ = 12						; size = 4
?chrCreateInstance@@YAPAU_object@@PAU1@0@Z PROC		; chrCreateInstance, COMDAT

; 79   : {

  00000	55		 push	 ebp
  00001	8b ec		 mov	 ebp, esp
  00003	6a ff		 push	 -1
  00005	68 00 00 00 00	 push	 __ehhandler$?chrCreateInstance@@YAPAU_object@@PAU1@0@Z
  0000a	64 a1 00 00 00
	00		 mov	 eax, DWORD PTR fs:0
  00010	50		 push	 eax
  00011	83 ec 78	 sub	 esp, 120		; 00000078H
  00014	a1 00 00 00 00	 mov	 eax, DWORD PTR ___security_cookie
  00019	33 c5		 xor	 eax, ebp
  0001b	89 45 f0	 mov	 DWORD PTR __$ArrayPad$[ebp], eax
  0001e	56		 push	 esi
  0001f	57		 push	 edi
  00020	50		 push	 eax
  00021	8d 45 f4	 lea	 eax, DWORD PTR __$EHRec$[ebp]
  00024	64 a3 00 00 00
	00		 mov	 DWORD PTR fs:0, eax
  0002a	8b 75 0c	 mov	 esi, DWORD PTR _poArgs$[ebp]

; 80   : 	int iVirtualID;
; 81   : 	if (!PyTuple_GetInteger(poArgs, 0, &iVirtualID))

  0002d	8d 85 7c ff ff
	ff		 lea	 eax, DWORD PTR _iVirtualID$[ebp]
  00033	50		 push	 eax
  00034	6a 00		 push	 0
  00036	56		 push	 esi
  00037	e8 00 00 00 00	 call	 ?PyTuple_GetInteger@@YA_NPAU_object@@HPAH@Z ; PyTuple_GetInteger
  0003c	83 c4 0c	 add	 esp, 12			; 0000000cH
  0003f	84 c0		 test	 al, al
  00041	75 0f		 jne	 SHORT $LN2@chrCreateI
$LN151@chrCreateI:

; 139  : }

  00043	6a 00		 push	 0
  00045	e8 00 00 00 00	 call	 ?Py_BuildException@@YAPAU_object@@PBDZZ ; Py_BuildException
  0004a	83 c4 04	 add	 esp, 4
  0004d	e9 79 01 00 00	 jmp	 $LN1@chrCreateI
$LN2@chrCreateI:

; 82   : 		return Py_BuildException();
; 83   : 
; 84   : 	if (PyTuple_Size(poArgs)==2)

  00052	56		 push	 esi
  00053	ff 15 00 00 00
	00		 call	 DWORD PTR __imp__PyTuple_Size
  00059	83 c4 04	 add	 esp, 4
  0005c	83 f8 02	 cmp	 eax, 2
  0005f	0f 85 50 01 00
	00		 jne	 $LN3@chrCreateI

; 85   : 	{
; 86   : 		PyObject* poDict=PyTuple_GetItem(poArgs, 1);

  00065	6a 01		 push	 1
  00067	56		 push	 esi
  00068	ff 15 00 00 00
	00		 call	 DWORD PTR __imp__PyTuple_GetItem
  0006e	8b f0		 mov	 esi, eax
  00070	83 c4 08	 add	 esp, 8

; 87   : 		if (!PyDict_Check(poDict))

  00073	8b 4e 04	 mov	 ecx, DWORD PTR [esi+4]
  00076	f7 41 54 00 00
	00 20		 test	 DWORD PTR [ecx+84], 536870912 ; 20000000H
  0007d	74 c4		 je	 SHORT $LN151@chrCreateI
  0007f	8d 4d cb	 lea	 ecx, DWORD PTR _kCreateData$2[ebp+75]
  00082	e8 00 00 00 00	 call	 ??0CAffectFlagContainer@@QAE@XZ ; CAffectFlagContainer::CAffectFlagContainer
  00087	0f 57 c0	 xorps	 xmm0, xmm0
; File C:\Program Files\Microsoft Visual Studio\2022\Community\VC\Tools\MSVC\14.34.31933\include\xstring

; 4996 :         _My_data._Myres  = _BUF_SIZE - 1;

  0008a	c7 45 e8 0f 00
	00 00		 mov	 DWORD PTR _kCreateData$2[ebp+104], 15 ; 0000000fH

; 2339 :         _CONSTEXPR20 _Bxty() noexcept : _Buf() {} // user-provided, for fancy pointers

  00091	0f 11 45 d4	 movups	 XMMWORD PTR _kCreateData$2[ebp+84], xmm0

; 5000 :         _Traits::assign(_My_data._Bx._Buf[0], _Elem());

  00095	c6 45 d4 00	 mov	 BYTE PTR _kCreateData$2[ebp+84], 0
; File E:\Metin2_server\SolWayneSF v6\ClientVS22\source\UserInterface\PythonCharacterModule.cpp

; 90   : 		CInstanceBase::SCreateData kCreateData;

  00099	c7 45 fc 00 00
	00 00		 mov	 DWORD PTR __$EHRec$[ebp+8], 0

; 91   : 		kCreateData.m_bType=CActorInstance::TYPE_PC;
; 92   : 		kCreateData.m_dwLevel = 0;
; 93   : 		kCreateData.m_dwGuildID=0;
; 94   : 		kCreateData.m_dwEmpireID=0;
; 95   : 		kCreateData.m_dwVID=iVirtualID;

  000a0	8b 85 7c ff ff
	ff		 mov	 eax, DWORD PTR _iVirtualID$[ebp]
  000a6	89 45 94	 mov	 DWORD PTR _kCreateData$2[ebp+20], eax
; File C:\Program Files\Microsoft Visual Studio\2022\Community\VC\Tools\MSVC\14.34.31933\include\xstring

; 117  :         _CSTD memmove(_First1, _First2, _Count * sizeof(_Elem));

  000a9	a1 00 00 00 00	 mov	 eax, DWORD PTR ??_C@_06LJIOOKLP@NONAME@
  000ae	89 45 d4	 mov	 DWORD PTR _kCreateData$2[ebp+84], eax
  000b1	66 a1 04 00 00
	00		 mov	 ax, WORD PTR ??_C@_06LJIOOKLP@NONAME@+4
  000b7	66 89 45 d8	 mov	 WORD PTR _kCreateData$2[ebp+88], ax
; File E:\Metin2_server\SolWayneSF v6\ClientVS22\source\UserInterface\PythonCharacterModule.cpp

; 105  : 		kCreateData.m_sAlignment=0;

  000bb	33 c0		 xor	 eax, eax
  000bd	c6 45 80 06	 mov	 BYTE PTR _kCreateData$2[ebp], 6
  000c1	c7 45 90 00 00
	00 00		 mov	 DWORD PTR _kCreateData$2[ebp+16], 0
  000c8	c7 45 8c 00 00
	00 00		 mov	 DWORD PTR _kCreateData$2[ebp+12], 0
  000cf	c7 45 88 00 00
	00 00		 mov	 DWORD PTR _kCreateData$2[ebp+8], 0
  000d6	c7 45 c4 00 00
	00 00		 mov	 DWORD PTR _kCreateData$2[ebp+68], 0
  000dd	c7 45 98 00 00
	00 00		 mov	 DWORD PTR _kCreateData$2[ebp+24], 0
  000e4	c7 45 ac 00 00
	00 00		 mov	 DWORD PTR _kCreateData$2[ebp+44], 0
  000eb	c7 45 a4 00 00
	00 00		 mov	 DWORD PTR _kCreateData$2[ebp+36], 0
  000f2	c7 45 a8 00 00
	00 00		 mov	 DWORD PTR _kCreateData$2[ebp+40], 0
; File C:\Program Files\Microsoft Visual Studio\2022\Community\VC\Tools\MSVC\14.34.31933\include\xstring

; 3530 :             _Mypair._Myval2._Mysize = _Count;

  000f9	c7 45 e4 06 00
	00 00		 mov	 DWORD PTR _kCreateData$2[ebp+100], 6

; 3531 :             _Traits::move(_Old_ptr, _Ptr, _Count);
; 3532 :             _Traits::assign(_Old_ptr[_Count], _Elem());

  00100	c6 45 da 00	 mov	 BYTE PTR _kCreateData$2[ebp+90], 0
; File E:\Metin2_server\SolWayneSF v6\ClientVS22\source\UserInterface\PythonCharacterModule.cpp

; 102  : 		kCreateData.m_dwStateFlags=0;

  00104	c7 45 84 00 00
	00 00		 mov	 DWORD PTR _kCreateData$2[ebp+4], 0

; 103  : 		kCreateData.m_dwMovSpd=100;

  0010b	c7 45 9c 64 00
	00 00		 mov	 DWORD PTR _kCreateData$2[ebp+28], 100 ; 00000064H

; 104  : 		kCreateData.m_dwAtkSpd=100;

  00112	c7 45 a0 64 00
	00 00		 mov	 DWORD PTR _kCreateData$2[ebp+32], 100 ; 00000064H

; 105  : 		kCreateData.m_sAlignment=0;

  00119	66 89 45 c8	 mov	 WORD PTR _kCreateData$2[ebp+72], ax

; 106  : 		kCreateData.m_byPKMode=0;

  0011d	88 45 ca	 mov	 BYTE PTR _kCreateData$2[ebp+74], al

; 107  : 		kCreateData.m_kAffectFlags.Clear();

  00120	e8 00 00 00 00	 call	 ?Clear@CAffectFlagContainer@@QAEXXZ ; CAffectFlagContainer::Clear

; 108  : 		kCreateData.m_dwArmor=8;
; 109  : 		kCreateData.m_dwWeapon=0;
; 110  : 		kCreateData.m_dwHair=0;
; 111  : 		#ifdef ENABLE_SASH_SYSTEM
; 112  : 		kCreateData.m_dwSash = 0;
; 113  : 		#endif
; 114  : #ifdef ENABLE_NEW_ARROW_SYSTEM
; 115  : 		kCreateData.m_dwArrowType=0;
; 116  : #endif
; 117  : 		kCreateData.m_isMain=false;
; 118  : 
; 119  : 		PyObject* poHorse=PyDict_GetItemString(poDict, "horse");

  00125	68 00 00 00 00	 push	 OFFSET ??_C@_05DOPDBCAL@horse@
  0012a	56		 push	 esi
  0012b	c7 45 b0 08 00
	00 00		 mov	 DWORD PTR _kCreateData$2[ebp+48], 8
  00132	89 45 b4	 mov	 DWORD PTR _kCreateData$2[ebp+52], eax
  00135	89 45 b8	 mov	 DWORD PTR _kCreateData$2[ebp+56], eax
  00138	89 45 bc	 mov	 DWORD PTR _kCreateData$2[ebp+60], eax
  0013b	89 45 c0	 mov	 DWORD PTR _kCreateData$2[ebp+64], eax
  0013e	88 45 ec	 mov	 BYTE PTR _kCreateData$2[ebp+108], al
  00141	ff 15 00 00 00
	00		 call	 DWORD PTR __imp__PyDict_GetItemString

; 120  : 		if (poHorse)

  00147	8b 3d 00 00 00
	00		 mov	 edi, DWORD PTR __imp__PyLong_AsLong
  0014d	83 c4 08	 add	 esp, 8
  00150	85 c0		 test	 eax, eax
  00152	74 09		 je	 SHORT $LN6@chrCreateI

; 121  : 			kCreateData.m_dwMountVnum=PyLong_AsLong(poHorse);

  00154	50		 push	 eax
  00155	ff d7		 call	 edi
  00157	83 c4 04	 add	 esp, 4
  0015a	89 45 c4	 mov	 DWORD PTR _kCreateData$2[ebp+68], eax
$LN6@chrCreateI:

; 122  : 
; 123  : 		PyObject* poX=PyDict_GetItemString(poDict, "x");

  0015d	68 00 00 00 00	 push	 OFFSET ??_C@_01FJMABOPO@x@
  00162	56		 push	 esi
  00163	ff 15 00 00 00
	00		 call	 DWORD PTR __imp__PyDict_GetItemString
  00169	83 c4 08	 add	 esp, 8

; 124  : 		if (poX)

  0016c	85 c0		 test	 eax, eax
  0016e	74 09		 je	 SHORT $LN7@chrCreateI

; 125  : 			kCreateData.m_lPosX=PyLong_AsLong(poX);

  00170	50		 push	 eax
  00171	ff d7		 call	 edi
  00173	83 c4 04	 add	 esp, 4
  00176	89 45 a4	 mov	 DWORD PTR _kCreateData$2[ebp+36], eax
$LN7@chrCreateI:

; 126  : 
; 127  : 		PyObject* poY=PyDict_GetItemString(poDict, "y");

  00179	68 00 00 00 00	 push	 OFFSET ??_C@_01EANLCPLP@y@
  0017e	56		 push	 esi
  0017f	ff 15 00 00 00
	00		 call	 DWORD PTR __imp__PyDict_GetItemString
  00185	83 c4 08	 add	 esp, 8

; 128  : 		if (poY)

  00188	85 c0		 test	 eax, eax
  0018a	74 09		 je	 SHORT $LN8@chrCreateI

; 129  : 			kCreateData.m_lPosX=PyLong_AsLong(poY);

  0018c	50		 push	 eax
  0018d	ff d7		 call	 edi
  0018f	83 c4 04	 add	 esp, 4
  00192	89 45 a4	 mov	 DWORD PTR _kCreateData$2[ebp+36], eax
$LN8@chrCreateI:

; 130  : 
; 131  : 		CPythonCharacterManager::Instance().CreateInstance(kCreateData);

  00195	8b 0d 00 00 00
	00		 mov	 ecx, DWORD PTR ?ms_singleton@?$CSingleton@VCPythonCharacterManager@@@@0PAVCPythonCharacterManager@@A ; CSingleton<CPythonCharacterManager>::ms_singleton
  0019b	8d 45 80	 lea	 eax, DWORD PTR _kCreateData$2[ebp]
  0019e	50		 push	 eax
  0019f	e8 00 00 00 00	 call	 ?CreateInstance@CPythonCharacterManager@@QAEPAVCInstanceBase@@ABUSCreateData@2@@Z ; CPythonCharacterManager::CreateInstance

; 132  : 	}

  001a4	8d 4d 80	 lea	 ecx, DWORD PTR _kCreateData$2[ebp]
  001a7	c7 45 fc ff ff
	ff ff		 mov	 DWORD PTR __$EHRec$[ebp+8], -1
  001ae	e8 00 00 00 00	 call	 ??1SCreateData@CInstanceBase@@QAE@XZ
  001b3	eb 11		 jmp	 SHORT $LN4@chrCreateI
$LN3@chrCreateI:

; 133  : 	else
; 134  : 	{
; 135  : 		CPythonCharacterManager::Instance().RegisterInstance(iVirtualID);

  001b5	ff b5 7c ff ff
	ff		 push	 DWORD PTR _iVirtualID$[ebp]
  001bb	8b 0d 00 00 00
	00		 mov	 ecx, DWORD PTR ?ms_singleton@?$CSingleton@VCPythonCharacterManager@@@@0PAVCPythonCharacterManager@@A ; CSingleton<CPythonCharacterManager>::ms_singleton
  001c1	e8 00 00 00 00	 call	 ?RegisterInstance@CPythonCharacterManager@@QAEPAVCInstanceBase@@K@Z ; CPythonCharacterManager::RegisterInstance
$LN4@chrCreateI:

; 136  : 	}
; 137  : 
; 138  : 	return Py_BuildNone();

  001c6	e8 00 00 00 00	 call	 ?Py_BuildNone@@YAPAU_object@@XZ ; Py_BuildNone
$LN1@chrCreateI:

; 139  : }

  001cb	8b 4d f4	 mov	 ecx, DWORD PTR __$EHRec$[ebp]
  001ce	64 89 0d 00 00
	00 00		 mov	 DWORD PTR fs:0, ecx
  001d5	59		 pop	 ecx
  001d6	5f		 pop	 edi
  001d7	5e		 pop	 esi
  001d8	8b 4d f0	 mov	 ecx, DWORD PTR __$ArrayPad$[ebp]
  001db	33 cd		 xor	 ecx, ebp
  001dd	e8 00 00 00 00	 call	 @__security_check_cookie@4
  001e2	8b e5		 mov	 esp, ebp
  001e4	5d		 pop	 ebp
  001e5	c3		 ret	 0
_TEXT	ENDS
;	COMDAT text$x
text$x	SEGMENT
__unwindfunclet$?chrCreateInstance@@YAPAU_object@@PAU1@0@Z$0:
  00000	8d 4d 80	 lea	 ecx, DWORD PTR _kCreateData$2[ebp]
  00003	e9 00 00 00 00	 jmp	 ??1SCreateData@CInstanceBase@@QAE@XZ
  00008	cc		 int	 3
  00009	cc		 int	 3
  0000a	cc		 int	 3
  0000b	cc		 int	 3
  0000c	cc		 int	 3
__ehhandler$?chrCreateInstance@@YAPAU_object@@PAU1@0@Z:
  0000d	90		 npad	 1
  0000e	90		 npad	 1
  0000f	8b 54 24 08	 mov	 edx, DWORD PTR [esp+8]
  00013	8d 42 0c	 lea	 eax, DWORD PTR [edx+12]
  00016	8b 8a 7c ff ff
	ff		 mov	 ecx, DWORD PTR [edx-132]
  0001c	33 c8		 xor	 ecx, eax
  0001e	e8 00 00 00 00	 call	 @__security_check_cookie@4
  00023	8b 4a fc	 mov	 ecx, DWORD PTR [edx-4]
  00026	33 c8		 xor	 ecx, eax
  00028	e8 00 00 00 00	 call	 @__security_check_cookie@4
  0002d	b8 00 00 00 00	 mov	 eax, OFFSET __ehfuncinfo$?chrCreateInstance@@YAPAU_object@@PAU1@0@Z
  00032	e9 00 00 00 00	 jmp	 ___CxxFrameHandler3
text$x	ENDS
?chrCreateInstance@@YAPAU_object@@PAU1@0@Z ENDP		; chrCreateInstance
; Function compile flags: /Ogtp
; File E:\Metin2_server\SolWayneSF v6\ClientVS22\source\UserInterface\PythonCharacterModule.cpp
;	COMDAT ?chrDeleteInstance@@YAPAU_object@@PAU1@0@Z
_TEXT	SEGMENT
_iVirtualID$ = -4					; size = 4
_poSelf$ = 8						; size = 4
_poArgs$ = 12						; size = 4
?chrDeleteInstance@@YAPAU_object@@PAU1@0@Z PROC		; chrDeleteInstance, COMDAT

; 142  : {

  00000	55		 push	 ebp
  00001	8b ec		 mov	 ebp, esp
  00003	51		 push	 ecx

; 143  : 	int iVirtualID;
; 144  : 	if (!PyTuple_GetInteger(poArgs, 0, &iVirtualID))

  00004	8d 45 fc	 lea	 eax, DWORD PTR _iVirtualID$[ebp]
  00007	50		 push	 eax
  00008	6a 00		 push	 0
  0000a	ff 75 0c	 push	 DWORD PTR _poArgs$[ebp]
  0000d	e8 00 00 00 00	 call	 ?PyTuple_GetInteger@@YA_NPAU_object@@HPAH@Z ; PyTuple_GetInteger
  00012	83 c4 0c	 add	 esp, 12			; 0000000cH
  00015	84 c0		 test	 al, al
  00017	75 0e		 jne	 SHORT $LN2@chrDeleteI

; 145  : 		return Py_BuildException();

  00019	6a 00		 push	 0
  0001b	e8 00 00 00 00	 call	 ?Py_BuildException@@YAPAU_object@@PBDZZ ; Py_BuildException
  00020	83 c4 04	 add	 esp, 4

; 149  : }

  00023	8b e5		 mov	 esp, ebp
  00025	5d		 pop	 ebp
  00026	c3		 ret	 0
$LN2@chrDeleteI:

; 146  : 
; 147  : 	CPythonCharacterManager::Instance().DeleteInstance(iVirtualID);

  00027	ff 75 fc	 push	 DWORD PTR _iVirtualID$[ebp]
  0002a	8b 0d 00 00 00
	00		 mov	 ecx, DWORD PTR ?ms_singleton@?$CSingleton@VCPythonCharacterManager@@@@0PAVCPythonCharacterManager@@A ; CSingleton<CPythonCharacterManager>::ms_singleton
  00030	e8 00 00 00 00	 call	 ?DeleteInstance@CPythonCharacterManager@@QAEXK@Z ; CPythonCharacterManager::DeleteInstance

; 148  : 	return Py_BuildNone();

  00035	e8 00 00 00 00	 call	 ?Py_BuildNone@@YAPAU_object@@XZ ; Py_BuildNone

; 149  : }

  0003a	8b e5		 mov	 esp, ebp
  0003c	5d		 pop	 ebp
  0003d	c3		 ret	 0
?chrDeleteInstance@@YAPAU_object@@PAU1@0@Z ENDP		; chrDeleteInstance
_TEXT	ENDS
; Function compile flags: /Ogtp
; File E:\Metin2_server\SolWayneSF v6\ClientVS22\source\UserInterface\PythonCharacterModule.cpp
;	COMDAT ?chrDeleteInstanceByFade@@YAPAU_object@@PAU1@0@Z
_TEXT	SEGMENT
_iVirtualID$ = -4					; size = 4
_poSelf$ = 8						; size = 4
_poArgs$ = 12						; size = 4
?chrDeleteInstanceByFade@@YAPAU_object@@PAU1@0@Z PROC	; chrDeleteInstanceByFade, COMDAT

; 152  : {

  00000	55		 push	 ebp
  00001	8b ec		 mov	 ebp, esp
  00003	51		 push	 ecx

; 153  : 	int iVirtualID;
; 154  : 	if (!PyTuple_GetInteger(poArgs, 0, &iVirtualID))

  00004	8d 45 fc	 lea	 eax, DWORD PTR _iVirtualID$[ebp]
  00007	50		 push	 eax
  00008	6a 00		 push	 0
  0000a	ff 75 0c	 push	 DWORD PTR _poArgs$[ebp]
  0000d	e8 00 00 00 00	 call	 ?PyTuple_GetInteger@@YA_NPAU_object@@HPAH@Z ; PyTuple_GetInteger
  00012	83 c4 0c	 add	 esp, 12			; 0000000cH
  00015	84 c0		 test	 al, al
  00017	75 0e		 jne	 SHORT $LN2@chrDeleteI

; 155  : 		return Py_BuildException();

  00019	6a 00		 push	 0
  0001b	e8 00 00 00 00	 call	 ?Py_BuildException@@YAPAU_object@@PBDZZ ; Py_BuildException
  00020	83 c4 04	 add	 esp, 4

; 159  : }

  00023	8b e5		 mov	 esp, ebp
  00025	5d		 pop	 ebp
  00026	c3		 ret	 0
$LN2@chrDeleteI:

; 156  : 
; 157  : 	CPythonCharacterManager::Instance().DeleteInstanceByFade(iVirtualID);

  00027	ff 75 fc	 push	 DWORD PTR _iVirtualID$[ebp]
  0002a	8b 0d 00 00 00
	00		 mov	 ecx, DWORD PTR ?ms_singleton@?$CSingleton@VCPythonCharacterManager@@@@0PAVCPythonCharacterManager@@A ; CSingleton<CPythonCharacterManager>::ms_singleton
  00030	e8 00 00 00 00	 call	 ?DeleteInstanceByFade@CPythonCharacterManager@@QAEXK@Z ; CPythonCharacterManager::DeleteInstanceByFade

; 158  : 	return Py_BuildNone();

  00035	e8 00 00 00 00	 call	 ?Py_BuildNone@@YAPAU_object@@XZ ; Py_BuildNone

; 159  : }

  0003a	8b e5		 mov	 esp, ebp
  0003c	5d		 pop	 ebp
  0003d	c3		 ret	 0
?chrDeleteInstanceByFade@@YAPAU_object@@PAU1@0@Z ENDP	; chrDeleteInstanceByFade
_TEXT	ENDS
; Function compile flags: /Ogtp
; File E:\Metin2_server\SolWayneSF v6\ClientVS22\source\UserInterface\PythonCharacterModule.cpp
;	COMDAT ?chrSelectInstance@@YAPAU_object@@PAU1@0@Z
_TEXT	SEGMENT
_iVirtualID$ = -4					; size = 4
_poSelf$ = 8						; size = 4
_poArgs$ = 12						; size = 4
?chrSelectInstance@@YAPAU_object@@PAU1@0@Z PROC		; chrSelectInstance, COMDAT

; 162  : {

  00000	55		 push	 ebp
  00001	8b ec		 mov	 ebp, esp
  00003	51		 push	 ecx

; 163  : 	int iVirtualID;
; 164  : 	if (!PyTuple_GetInteger(poArgs, 0, &iVirtualID))

  00004	8d 45 fc	 lea	 eax, DWORD PTR _iVirtualID$[ebp]
  00007	50		 push	 eax
  00008	6a 00		 push	 0
  0000a	ff 75 0c	 push	 DWORD PTR _poArgs$[ebp]
  0000d	e8 00 00 00 00	 call	 ?PyTuple_GetInteger@@YA_NPAU_object@@HPAH@Z ; PyTuple_GetInteger
  00012	83 c4 0c	 add	 esp, 12			; 0000000cH
  00015	84 c0		 test	 al, al
  00017	75 0e		 jne	 SHORT $LN2@chrSelectI

; 165  : 		return Py_BuildException();

  00019	6a 00		 push	 0
  0001b	e8 00 00 00 00	 call	 ?Py_BuildException@@YAPAU_object@@PBDZZ ; Py_BuildException
  00020	83 c4 04	 add	 esp, 4

; 169  : }

  00023	8b e5		 mov	 esp, ebp
  00025	5d		 pop	 ebp
  00026	c3		 ret	 0
$LN2@chrSelectI:

; 166  : 
; 167  : 	CPythonCharacterManager::Instance().SelectInstance(iVirtualID);

  00027	ff 75 fc	 push	 DWORD PTR _iVirtualID$[ebp]
  0002a	8b 0d 00 00 00
	00		 mov	 ecx, DWORD PTR ?ms_singleton@?$CSingleton@VCPythonCharacterManager@@@@0PAVCPythonCharacterManager@@A ; CSingleton<CPythonCharacterManager>::ms_singleton
  00030	e8 00 00 00 00	 call	 ?SelectInstance@CPythonCharacterManager@@QAEXK@Z ; CPythonCharacterManager::SelectInstance

; 168  : 	return Py_BuildNone();

  00035	e8 00 00 00 00	 call	 ?Py_BuildNone@@YAPAU_object@@XZ ; Py_BuildNone

; 169  : }

  0003a	8b e5		 mov	 esp, ebp
  0003c	5d		 pop	 ebp
  0003d	c3		 ret	 0
?chrSelectInstance@@YAPAU_object@@PAU1@0@Z ENDP		; chrSelectInstance
_TEXT	ENDS
; Function compile flags: /Ogtp
; File E:\Metin2_server\SolWayneSF v6\ClientVS22\source\UserInterface\PythonCharacterModule.cpp
;	COMDAT ?chrHasInstance@@YAPAU_object@@PAU1@0@Z
_TEXT	SEGMENT
_iVirtualID$ = -4					; size = 4
_poSelf$ = 8						; size = 4
_poArgs$ = 12						; size = 4
?chrHasInstance@@YAPAU_object@@PAU1@0@Z PROC		; chrHasInstance, COMDAT

; 172  : {

  00000	55		 push	 ebp
  00001	8b ec		 mov	 ebp, esp
  00003	51		 push	 ecx

; 173  : 	int iVirtualID;
; 174  : 	if (!PyTuple_GetInteger(poArgs, 0, &iVirtualID))

  00004	8d 45 fc	 lea	 eax, DWORD PTR _iVirtualID$[ebp]
  00007	50		 push	 eax
  00008	6a 00		 push	 0
  0000a	ff 75 0c	 push	 DWORD PTR _poArgs$[ebp]
  0000d	e8 00 00 00 00	 call	 ?PyTuple_GetInteger@@YA_NPAU_object@@HPAH@Z ; PyTuple_GetInteger
  00012	83 c4 0c	 add	 esp, 12			; 0000000cH
  00015	84 c0		 test	 al, al
  00017	75 0e		 jne	 SHORT $LN2@chrHasInst

; 175  : 		return Py_BuildException();

  00019	6a 00		 push	 0
  0001b	e8 00 00 00 00	 call	 ?Py_BuildException@@YAPAU_object@@PBDZZ ; Py_BuildException
  00020	83 c4 04	 add	 esp, 4

; 179  : }

  00023	8b e5		 mov	 esp, ebp
  00025	5d		 pop	 ebp
  00026	c3		 ret	 0
$LN2@chrHasInst:

; 176  : 
; 177  : 	bool bFlag = CPythonCharacterManager::Instance().GetInstancePtr(iVirtualID) ? TRUE : FALSE;

  00027	8b 0d 00 00 00
	00		 mov	 ecx, DWORD PTR ?ms_singleton@?$CSingleton@VCPythonCharacterManager@@@@0PAVCPythonCharacterManager@@A ; CSingleton<CPythonCharacterManager>::ms_singleton
  0002d	ff 75 fc	 push	 DWORD PTR _iVirtualID$[ebp]
  00030	83 c1 04	 add	 ecx, 4
  00033	8b 01		 mov	 eax, DWORD PTR [ecx]
  00035	ff 50 08	 call	 DWORD PTR [eax+8]

; 178  : 	return Py_BuildValue("i", bFlag);

  00038	33 c9		 xor	 ecx, ecx
  0003a	85 c0		 test	 eax, eax
  0003c	0f 95 c1	 setne	 cl
  0003f	51		 push	 ecx
  00040	68 00 00 00 00	 push	 OFFSET ??_C@_01KBJDNOO@i@
  00045	ff 15 00 00 00
	00		 call	 DWORD PTR __imp__Py_BuildValue
  0004b	83 c4 08	 add	 esp, 8

; 179  : }

  0004e	8b e5		 mov	 esp, ebp
  00050	5d		 pop	 ebp
  00051	c3		 ret	 0
?chrHasInstance@@YAPAU_object@@PAU1@0@Z ENDP		; chrHasInstance
_TEXT	ENDS
; Function compile flags: /Ogtp
; File E:\Metin2_server\SolWayneSF v6\ClientVS22\source\UserInterface\PythonCharacterModule.cpp
;	COMDAT ?chrIsEnemy@@YAPAU_object@@PAU1@0@Z
_TEXT	SEGMENT
_iVirtualID$ = -4					; size = 4
_poSelf$ = 8						; size = 4
_poArgs$ = 12						; size = 4
?chrIsEnemy@@YAPAU_object@@PAU1@0@Z PROC		; chrIsEnemy, COMDAT

; 182  : {

  00000	55		 push	 ebp
  00001	8b ec		 mov	 ebp, esp
  00003	51		 push	 ecx

; 183  : 	int iVirtualID;
; 184  : 	if (!PyTuple_GetInteger(poArgs, 0, &iVirtualID))

  00004	8d 45 fc	 lea	 eax, DWORD PTR _iVirtualID$[ebp]
  00007	50		 push	 eax
  00008	6a 00		 push	 0
  0000a	ff 75 0c	 push	 DWORD PTR _poArgs$[ebp]
  0000d	e8 00 00 00 00	 call	 ?PyTuple_GetInteger@@YA_NPAU_object@@HPAH@Z ; PyTuple_GetInteger
  00012	83 c4 0c	 add	 esp, 12			; 0000000cH
  00015	84 c0		 test	 al, al
  00017	75 0e		 jne	 SHORT $LN2@chrIsEnemy

; 185  : 		return Py_BuildException();

  00019	6a 00		 push	 0
  0001b	e8 00 00 00 00	 call	 ?Py_BuildException@@YAPAU_object@@PBDZZ ; Py_BuildException
  00020	83 c4 04	 add	 esp, 4

; 192  : }

  00023	8b e5		 mov	 esp, ebp
  00025	5d		 pop	 ebp
  00026	c3		 ret	 0
$LN2@chrIsEnemy:

; 186  : 
; 187  : 	CInstanceBase * pInstance = CPythonCharacterManager::Instance().GetInstancePtr(iVirtualID);

  00027	8b 0d 00 00 00
	00		 mov	 ecx, DWORD PTR ?ms_singleton@?$CSingleton@VCPythonCharacterManager@@@@0PAVCPythonCharacterManager@@A ; CSingleton<CPythonCharacterManager>::ms_singleton
  0002d	ff 75 fc	 push	 DWORD PTR _iVirtualID$[ebp]
  00030	83 c1 04	 add	 ecx, 4
  00033	8b 01		 mov	 eax, DWORD PTR [ecx]
  00035	ff 50 08	 call	 DWORD PTR [eax+8]

; 188  : 	if (!pInstance)

  00038	85 c0		 test	 eax, eax
  0003a	75 13		 jne	 SHORT $LN3@chrIsEnemy

; 189  : 		return Py_BuildValue("i", 0);

  0003c	50		 push	 eax

; 192  : }

  0003d	68 00 00 00 00	 push	 OFFSET ??_C@_01KBJDNOO@i@
  00042	ff 15 00 00 00
	00		 call	 DWORD PTR __imp__Py_BuildValue
  00048	83 c4 08	 add	 esp, 8
  0004b	8b e5		 mov	 esp, ebp
  0004d	5d		 pop	 ebp
  0004e	c3		 ret	 0
$LN3@chrIsEnemy:

; 190  : 
; 191  : 	return Py_BuildValue("i", pInstance->IsEnemy());

  0004f	8b c8		 mov	 ecx, eax
  00051	e8 00 00 00 00	 call	 ?IsEnemy@CInstanceBase@@QAEHXZ ; CInstanceBase::IsEnemy
  00056	50		 push	 eax

; 192  : }

  00057	68 00 00 00 00	 push	 OFFSET ??_C@_01KBJDNOO@i@
  0005c	ff 15 00 00 00
	00		 call	 DWORD PTR __imp__Py_BuildValue
  00062	83 c4 08	 add	 esp, 8
  00065	8b e5		 mov	 esp, ebp
  00067	5d		 pop	 ebp
  00068	c3		 ret	 0
?chrIsEnemy@@YAPAU_object@@PAU1@0@Z ENDP		; chrIsEnemy
_TEXT	ENDS
; Function compile flags: /Ogtp
; File E:\Metin2_server\SolWayneSF v6\ClientVS22\source\UserInterface\PythonCharacterModule.cpp
;	COMDAT ?chrIsNPC@@YAPAU_object@@PAU1@0@Z
_TEXT	SEGMENT
_iVirtualID$ = -4					; size = 4
_poSelf$ = 8						; size = 4
_poArgs$ = 12						; size = 4
?chrIsNPC@@YAPAU_object@@PAU1@0@Z PROC			; chrIsNPC, COMDAT

; 195  : {

  00000	55		 push	 ebp
  00001	8b ec		 mov	 ebp, esp
  00003	51		 push	 ecx

; 196  : 	int iVirtualID;
; 197  : 	if (!PyTuple_GetInteger(poArgs, 0, &iVirtualID))

  00004	8d 45 fc	 lea	 eax, DWORD PTR _iVirtualID$[ebp]
  00007	50		 push	 eax
  00008	6a 00		 push	 0
  0000a	ff 75 0c	 push	 DWORD PTR _poArgs$[ebp]
  0000d	e8 00 00 00 00	 call	 ?PyTuple_GetInteger@@YA_NPAU_object@@HPAH@Z ; PyTuple_GetInteger
  00012	83 c4 0c	 add	 esp, 12			; 0000000cH
  00015	84 c0		 test	 al, al
  00017	75 0e		 jne	 SHORT $LN2@chrIsNPC

; 198  : 		return Py_BuildException();

  00019	6a 00		 push	 0
  0001b	e8 00 00 00 00	 call	 ?Py_BuildException@@YAPAU_object@@PBDZZ ; Py_BuildException
  00020	83 c4 04	 add	 esp, 4

; 205  : }

  00023	8b e5		 mov	 esp, ebp
  00025	5d		 pop	 ebp
  00026	c3		 ret	 0
$LN2@chrIsNPC:

; 199  : 
; 200  : 	CInstanceBase * pInstance = CPythonCharacterManager::Instance().GetInstancePtr(iVirtualID);

  00027	8b 0d 00 00 00
	00		 mov	 ecx, DWORD PTR ?ms_singleton@?$CSingleton@VCPythonCharacterManager@@@@0PAVCPythonCharacterManager@@A ; CSingleton<CPythonCharacterManager>::ms_singleton
  0002d	ff 75 fc	 push	 DWORD PTR _iVirtualID$[ebp]
  00030	83 c1 04	 add	 ecx, 4
  00033	8b 01		 mov	 eax, DWORD PTR [ecx]
  00035	ff 50 08	 call	 DWORD PTR [eax+8]

; 201  : 	if (!pInstance)

  00038	85 c0		 test	 eax, eax
  0003a	75 13		 jne	 SHORT $LN3@chrIsNPC

; 202  : 		return Py_BuildValue("i", 0);

  0003c	50		 push	 eax

; 205  : }

  0003d	68 00 00 00 00	 push	 OFFSET ??_C@_01KBJDNOO@i@
  00042	ff 15 00 00 00
	00		 call	 DWORD PTR __imp__Py_BuildValue
  00048	83 c4 08	 add	 esp, 8
  0004b	8b e5		 mov	 esp, ebp
  0004d	5d		 pop	 ebp
  0004e	c3		 ret	 0
$LN3@chrIsNPC:

; 203  : 
; 204  : 	return Py_BuildValue("i", pInstance->IsNPC());

  0004f	8b c8		 mov	 ecx, eax
  00051	e8 00 00 00 00	 call	 ?IsNPC@CInstanceBase@@QAEHXZ ; CInstanceBase::IsNPC
  00056	50		 push	 eax

; 205  : }

  00057	68 00 00 00 00	 push	 OFFSET ??_C@_01KBJDNOO@i@
  0005c	ff 15 00 00 00
	00		 call	 DWORD PTR __imp__Py_BuildValue
  00062	83 c4 08	 add	 esp, 8
  00065	8b e5		 mov	 esp, ebp
  00067	5d		 pop	 ebp
  00068	c3		 ret	 0
?chrIsNPC@@YAPAU_object@@PAU1@0@Z ENDP			; chrIsNPC
_TEXT	ENDS
; Function compile flags: /Ogtp
; File E:\Metin2_server\SolWayneSF v6\ClientVS22\source\UserInterface\PythonCharacterModule.cpp
;	COMDAT ?chrIsGameMaster@@YAPAU_object@@PAU1@0@Z
_TEXT	SEGMENT
_iVirtualID$ = -4					; size = 4
_poSelf$ = 8						; size = 4
_poArgs$ = 12						; size = 4
?chrIsGameMaster@@YAPAU_object@@PAU1@0@Z PROC		; chrIsGameMaster, COMDAT

; 208  : {

  00000	55		 push	 ebp
  00001	8b ec		 mov	 ebp, esp
  00003	51		 push	 ecx

; 209  : 	int iVirtualID;
; 210  : 	if (!PyTuple_GetInteger(poArgs, 0, &iVirtualID))

  00004	8d 45 fc	 lea	 eax, DWORD PTR _iVirtualID$[ebp]
  00007	50		 push	 eax
  00008	6a 00		 push	 0
  0000a	ff 75 0c	 push	 DWORD PTR _poArgs$[ebp]
  0000d	e8 00 00 00 00	 call	 ?PyTuple_GetInteger@@YA_NPAU_object@@HPAH@Z ; PyTuple_GetInteger
  00012	83 c4 0c	 add	 esp, 12			; 0000000cH
  00015	84 c0		 test	 al, al
  00017	75 0e		 jne	 SHORT $LN2@chrIsGameM

; 211  : 		return Py_BuildException();

  00019	6a 00		 push	 0
  0001b	e8 00 00 00 00	 call	 ?Py_BuildException@@YAPAU_object@@PBDZZ ; Py_BuildException
  00020	83 c4 04	 add	 esp, 4

; 218  : }

  00023	8b e5		 mov	 esp, ebp
  00025	5d		 pop	 ebp
  00026	c3		 ret	 0
$LN2@chrIsGameM:

; 212  : 
; 213  : 	CInstanceBase * pInstance = CPythonCharacterManager::Instance().GetInstancePtr(iVirtualID);

  00027	8b 0d 00 00 00
	00		 mov	 ecx, DWORD PTR ?ms_singleton@?$CSingleton@VCPythonCharacterManager@@@@0PAVCPythonCharacterManager@@A ; CSingleton<CPythonCharacterManager>::ms_singleton
  0002d	ff 75 fc	 push	 DWORD PTR _iVirtualID$[ebp]
  00030	83 c1 04	 add	 ecx, 4
  00033	8b 01		 mov	 eax, DWORD PTR [ecx]
  00035	ff 50 08	 call	 DWORD PTR [eax+8]

; 214  : 	if (!pInstance)

  00038	85 c0		 test	 eax, eax
  0003a	75 13		 jne	 SHORT $LN3@chrIsGameM

; 215  : 		return Py_BuildValue("i", 0);

  0003c	50		 push	 eax

; 218  : }

  0003d	68 00 00 00 00	 push	 OFFSET ??_C@_01KBJDNOO@i@
  00042	ff 15 00 00 00
	00		 call	 DWORD PTR __imp__Py_BuildValue
  00048	83 c4 08	 add	 esp, 8
  0004b	8b e5		 mov	 esp, ebp
  0004d	5d		 pop	 ebp
  0004e	c3		 ret	 0
$LN3@chrIsGameM:

; 216  : 
; 217  : 	return Py_BuildValue("i", pInstance->IsGameMaster());

  0004f	8b c8		 mov	 ecx, eax
  00051	e8 00 00 00 00	 call	 ?IsGameMaster@CInstanceBase@@QAEHXZ ; CInstanceBase::IsGameMaster
  00056	50		 push	 eax

; 218  : }

  00057	68 00 00 00 00	 push	 OFFSET ??_C@_01KBJDNOO@i@
  0005c	ff 15 00 00 00
	00		 call	 DWORD PTR __imp__Py_BuildValue
  00062	83 c4 08	 add	 esp, 8
  00065	8b e5		 mov	 esp, ebp
  00067	5d		 pop	 ebp
  00068	c3		 ret	 0
?chrIsGameMaster@@YAPAU_object@@PAU1@0@Z ENDP		; chrIsGameMaster
_TEXT	ENDS
; Function compile flags: /Ogtp
; File E:\Metin2_server\SolWayneSF v6\ClientVS22\source\UserInterface\PythonCharacterModule.cpp
;	COMDAT ?chrIsPartyMember@@YAPAU_object@@PAU1@0@Z
_TEXT	SEGMENT
_iVirtualID$ = -4					; size = 4
_poSelf$ = 8						; size = 4
_poArgs$ = 12						; size = 4
?chrIsPartyMember@@YAPAU_object@@PAU1@0@Z PROC		; chrIsPartyMember, COMDAT

; 221  : {

  00000	55		 push	 ebp
  00001	8b ec		 mov	 ebp, esp
  00003	51		 push	 ecx

; 222  : 	int iVirtualID;
; 223  : 	if (!PyTuple_GetInteger(poArgs, 0, &iVirtualID))

  00004	8d 45 fc	 lea	 eax, DWORD PTR _iVirtualID$[ebp]
  00007	50		 push	 eax
  00008	6a 00		 push	 0
  0000a	ff 75 0c	 push	 DWORD PTR _poArgs$[ebp]
  0000d	e8 00 00 00 00	 call	 ?PyTuple_GetInteger@@YA_NPAU_object@@HPAH@Z ; PyTuple_GetInteger
  00012	83 c4 0c	 add	 esp, 12			; 0000000cH
  00015	84 c0		 test	 al, al
  00017	75 0e		 jne	 SHORT $LN2@chrIsParty

; 224  : 		return Py_BuildException();

  00019	6a 00		 push	 0
  0001b	e8 00 00 00 00	 call	 ?Py_BuildException@@YAPAU_object@@PBDZZ ; Py_BuildException
  00020	83 c4 04	 add	 esp, 4

; 231  : }

  00023	8b e5		 mov	 esp, ebp
  00025	5d		 pop	 ebp
  00026	c3		 ret	 0
$LN2@chrIsParty:

; 225  : 
; 226  : 	CInstanceBase * pInstance = CPythonCharacterManager::Instance().GetInstancePtr(iVirtualID);

  00027	8b 0d 00 00 00
	00		 mov	 ecx, DWORD PTR ?ms_singleton@?$CSingleton@VCPythonCharacterManager@@@@0PAVCPythonCharacterManager@@A ; CSingleton<CPythonCharacterManager>::ms_singleton
  0002d	ff 75 fc	 push	 DWORD PTR _iVirtualID$[ebp]
  00030	83 c1 04	 add	 ecx, 4
  00033	8b 01		 mov	 eax, DWORD PTR [ecx]
  00035	ff 50 08	 call	 DWORD PTR [eax+8]

; 227  : 	if (!pInstance)

  00038	85 c0		 test	 eax, eax
  0003a	75 13		 jne	 SHORT $LN3@chrIsParty

; 228  : 		return Py_BuildValue("i", 0);

  0003c	50		 push	 eax

; 231  : }

  0003d	68 00 00 00 00	 push	 OFFSET ??_C@_01KBJDNOO@i@
  00042	ff 15 00 00 00
	00		 call	 DWORD PTR __imp__Py_BuildValue
  00048	83 c4 08	 add	 esp, 8
  0004b	8b e5		 mov	 esp, ebp
  0004d	5d		 pop	 ebp
  0004e	c3		 ret	 0
$LN3@chrIsParty:

; 229  : 
; 230  : 	return Py_BuildValue("i", pInstance->IsPartyMember());

  0004f	8b c8		 mov	 ecx, eax
  00051	e8 00 00 00 00	 call	 ?IsPartyMember@CInstanceBase@@QAE_NXZ ; CInstanceBase::IsPartyMember
  00056	0f b6 c0	 movzx	 eax, al
  00059	50		 push	 eax

; 231  : }

  0005a	68 00 00 00 00	 push	 OFFSET ??_C@_01KBJDNOO@i@
  0005f	ff 15 00 00 00
	00		 call	 DWORD PTR __imp__Py_BuildValue
  00065	83 c4 08	 add	 esp, 8
  00068	8b e5		 mov	 esp, ebp
  0006a	5d		 pop	 ebp
  0006b	c3		 ret	 0
?chrIsPartyMember@@YAPAU_object@@PAU1@0@Z ENDP		; chrIsPartyMember
_TEXT	ENDS
; Function compile flags: /Ogtp
; File E:\Metin2_server\SolWayneSF v6\ClientVS22\source\UserInterface\PythonCharacterModule.cpp
; File E:\Metin2_server\SolWayneSF v6\ClientVS22\extern\include\d3dx8math.inl
; File E:\Metin2_server\SolWayneSF v6\ClientVS22\source\UserInterface\PythonCharacterModule.cpp
; File E:\Metin2_server\SolWayneSF v6\ClientVS22\extern\include\d3dx8math.inl
; File E:\Metin2_server\SolWayneSF v6\ClientVS22\source\UserInterface\PythonCharacterModule.cpp
;	COMDAT ?chrSelect@@YAPAU_object@@PAU1@0@Z
_TEXT	SEGMENT
$T1 = -20						; size = 16
_iVirtualID$ = -4					; size = 4
_poSelf$ = 8						; size = 4
_poArgs$ = 12						; size = 4
?chrSelect@@YAPAU_object@@PAU1@0@Z PROC			; chrSelect, COMDAT

; 234  : {

  00000	55		 push	 ebp
  00001	8b ec		 mov	 ebp, esp
  00003	83 ec 14	 sub	 esp, 20			; 00000014H

; 235  : 	int iVirtualID;
; 236  : 	if (!PyTuple_GetInteger(poArgs, 0, &iVirtualID))

  00006	8d 45 fc	 lea	 eax, DWORD PTR _iVirtualID$[ebp]
  00009	50		 push	 eax
  0000a	6a 00		 push	 0
  0000c	ff 75 0c	 push	 DWORD PTR _poArgs$[ebp]
  0000f	e8 00 00 00 00	 call	 ?PyTuple_GetInteger@@YA_NPAU_object@@HPAH@Z ; PyTuple_GetInteger
  00014	83 c4 0c	 add	 esp, 12			; 0000000cH
  00017	84 c0		 test	 al, al
  00019	75 0e		 jne	 SHORT $LN4@chrSelect

; 237  : 		return Py_BuildException();

  0001b	6a 00		 push	 0
  0001d	e8 00 00 00 00	 call	 ?Py_BuildException@@YAPAU_object@@PBDZZ ; Py_BuildException
  00022	83 c4 04	 add	 esp, 4

; 258  : }

  00025	8b e5		 mov	 esp, ebp
  00027	5d		 pop	 ebp
  00028	c3		 ret	 0
$LN4@chrSelect:

; 238  : 
; 239  : 	CInstanceBase * pkInst = CPythonCharacterManager::Instance().GetInstancePtr(iVirtualID);

  00029	8b 0d 00 00 00
	00		 mov	 ecx, DWORD PTR ?ms_singleton@?$CSingleton@VCPythonCharacterManager@@@@0PAVCPythonCharacterManager@@A ; CSingleton<CPythonCharacterManager>::ms_singleton
  0002f	83 c1 04	 add	 ecx, 4
  00032	56		 push	 esi
  00033	ff 75 fc	 push	 DWORD PTR _iVirtualID$[ebp]
  00036	8b 01		 mov	 eax, DWORD PTR [ecx]
  00038	ff 50 08	 call	 DWORD PTR [eax+8]
  0003b	8b f0		 mov	 esi, eax

; 240  : 	
; 241  : 	if (!pkInst)

  0003d	85 f6		 test	 esi, esi
  0003f	74 38		 je	 SHORT $LN7@chrSelect

; 242  : 		return Py_BuildNone();
; 243  : 
; 244  : 	switch (CPythonNonPlayer::Instance().GetEventType(pkInst->GetVirtualNumber()))

  00041	8b ce		 mov	 ecx, esi
  00043	e8 00 00 00 00	 call	 ?GetVirtualNumber@CInstanceBase@@QAEKXZ ; CInstanceBase::GetVirtualNumber
  00048	8b 0d 00 00 00
	00		 mov	 ecx, DWORD PTR ?ms_singleton@?$CSingleton@VCPythonNonPlayer@@@@0PAVCPythonNonPlayer@@A ; CSingleton<CPythonNonPlayer>::ms_singleton
  0004e	50		 push	 eax
  0004f	e8 00 00 00 00	 call	 ?GetEventType@CPythonNonPlayer@@QAEEK@Z ; CPythonNonPlayer::GetEventType
  00054	0f b6 c0	 movzx	 eax, al
  00057	83 e8 02	 sub	 eax, 2
  0005a	75 1d		 jne	 SHORT $LN7@chrSelect

; 245  : 	{
; 246  : 		case CPythonNonPlayer::ON_CLICK_EVENT_SHOP:
; 247  : 			pkInst->SetAddRenderMode();

  0005c	8b ce		 mov	 ecx, esi
  0005e	e8 00 00 00 00	 call	 ?SetAddRenderMode@CInstanceBase@@QAEXXZ ; CInstanceBase::SetAddRenderMode
; File E:\Metin2_server\SolWayneSF v6\ClientVS22\extern\include\d3dx8math.inl

; 920  :     r = fr;

  00063	0f 28 05 00 00
	00 00		 movaps	 xmm0, XMMWORD PTR __xmm@3f800000000000003e99999a00000000
; File E:\Metin2_server\SolWayneSF v6\ClientVS22\source\UserInterface\PythonCharacterModule.cpp

; 248  : 			pkInst->SetAddColor(D3DXCOLOR(0.0f, 0.3f, 0.0f, 1.0f));

  0006a	8d 45 ec	 lea	 eax, DWORD PTR $T1[ebp]
  0006d	50		 push	 eax
  0006e	8b ce		 mov	 ecx, esi
; File E:\Metin2_server\SolWayneSF v6\ClientVS22\extern\include\d3dx8math.inl

; 920  :     r = fr;

  00070	0f 11 45 ec	 movups	 XMMWORD PTR $T1[ebp], xmm0
; File E:\Metin2_server\SolWayneSF v6\ClientVS22\source\UserInterface\PythonCharacterModule.cpp

; 248  : 			pkInst->SetAddColor(D3DXCOLOR(0.0f, 0.3f, 0.0f, 1.0f));

  00074	e8 00 00 00 00	 call	 ?SetAddColor@CInstanceBase@@QAEXABUD3DXCOLOR@@@Z ; CInstanceBase::SetAddColor
$LN7@chrSelect:

; 249  : 			break;
; 250  : 
; 251  : 		default:
; 252  : 			// NOTE:           [cronan 040226]
; 253  : 			//pkInst->SetAddColor(D3DXCOLOR(0.3f, 0.0f, 0.0f, 1.0f));
; 254  : 			break;
; 255  : 	}
; 256  : 
; 257  : 	return Py_BuildNone();

  00079	e8 00 00 00 00	 call	 ?Py_BuildNone@@YAPAU_object@@XZ ; Py_BuildNone
  0007e	5e		 pop	 esi

; 258  : }

  0007f	8b e5		 mov	 esp, ebp
  00081	5d		 pop	 ebp
  00082	c3		 ret	 0
?chrSelect@@YAPAU_object@@PAU1@0@Z ENDP			; chrSelect
_TEXT	ENDS
; Function compile flags: /Ogtp
; File E:\Metin2_server\SolWayneSF v6\ClientVS22\source\UserInterface\PythonCharacterModule.cpp
; File E:\Metin2_server\SolWayneSF v6\ClientVS22\extern\include\d3dx8math.inl
; File E:\Metin2_server\SolWayneSF v6\ClientVS22\source\UserInterface\PythonCharacterModule.cpp
; File E:\Metin2_server\SolWayneSF v6\ClientVS22\extern\include\d3dx8math.inl
; File E:\Metin2_server\SolWayneSF v6\ClientVS22\source\UserInterface\PythonCharacterModule.cpp
; File E:\Metin2_server\SolWayneSF v6\ClientVS22\extern\include\d3dx8math.inl
; File E:\Metin2_server\SolWayneSF v6\ClientVS22\source\UserInterface\PythonCharacterModule.cpp
; File E:\Metin2_server\SolWayneSF v6\ClientVS22\extern\include\d3dx8math.inl
; File E:\Metin2_server\SolWayneSF v6\ClientVS22\source\UserInterface\PythonCharacterModule.cpp
;	COMDAT ?chrSetAddRenderMode@@YAPAU_object@@PAU1@0@Z
_TEXT	SEGMENT
$T1 = -32						; size = 16
_fb$ = -16						; size = 4
_fg$ = -12						; size = 4
_fr$ = -8						; size = 4
_iVirtualID$ = -4					; size = 4
_poSelf$ = 8						; size = 4
_poArgs$ = 12						; size = 4
?chrSetAddRenderMode@@YAPAU_object@@PAU1@0@Z PROC	; chrSetAddRenderMode, COMDAT

; 261  : {

  00000	55		 push	 ebp
  00001	8b ec		 mov	 ebp, esp
  00003	83 ec 20	 sub	 esp, 32			; 00000020H

; 262  : 	int iVirtualID;
; 263  : 	if (!PyTuple_GetInteger(poArgs, 0, &iVirtualID))

  00006	8d 45 fc	 lea	 eax, DWORD PTR _iVirtualID$[ebp]
  00009	56		 push	 esi
  0000a	8b 75 0c	 mov	 esi, DWORD PTR _poArgs$[ebp]
  0000d	50		 push	 eax
  0000e	6a 00		 push	 0
  00010	56		 push	 esi
  00011	e8 00 00 00 00	 call	 ?PyTuple_GetInteger@@YA_NPAU_object@@HPAH@Z ; PyTuple_GetInteger
  00016	83 c4 0c	 add	 esp, 12			; 0000000cH
  00019	84 c0		 test	 al, al
  0001b	75 0f		 jne	 SHORT $LN2@chrSetAddR
$LN11@chrSetAddR:

; 283  : 
; 284  : 	return Py_BuildNone();
; 285  : }

  0001d	6a 00		 push	 0
  0001f	e8 00 00 00 00	 call	 ?Py_BuildException@@YAPAU_object@@PBDZZ ; Py_BuildException
  00024	83 c4 04	 add	 esp, 4
  00027	5e		 pop	 esi
  00028	8b e5		 mov	 esp, ebp
  0002a	5d		 pop	 ebp
  0002b	c3		 ret	 0
$LN2@chrSetAddR:

; 264  : 		return Py_BuildException();
; 265  : 
; 266  : 	float fr;
; 267  : 	if (!PyTuple_GetFloat(poArgs, 1, &fr))

  0002c	8d 45 f8	 lea	 eax, DWORD PTR _fr$[ebp]
  0002f	50		 push	 eax
  00030	6a 01		 push	 1
  00032	56		 push	 esi
  00033	e8 00 00 00 00	 call	 ?PyTuple_GetFloat@@YA_NPAU_object@@HPAM@Z ; PyTuple_GetFloat
  00038	83 c4 0c	 add	 esp, 12			; 0000000cH
  0003b	84 c0		 test	 al, al
  0003d	74 de		 je	 SHORT $LN11@chrSetAddR

; 268  : 		return Py_BuildException();
; 269  : 	float fg;
; 270  : 	if (!PyTuple_GetFloat(poArgs, 2, &fg))

  0003f	8d 45 f4	 lea	 eax, DWORD PTR _fg$[ebp]
  00042	50		 push	 eax
  00043	6a 02		 push	 2
  00045	56		 push	 esi
  00046	e8 00 00 00 00	 call	 ?PyTuple_GetFloat@@YA_NPAU_object@@HPAM@Z ; PyTuple_GetFloat
  0004b	83 c4 0c	 add	 esp, 12			; 0000000cH
  0004e	84 c0		 test	 al, al
  00050	74 cb		 je	 SHORT $LN11@chrSetAddR

; 271  : 		return Py_BuildException();
; 272  : 	float fb;
; 273  : 	if (!PyTuple_GetFloat(poArgs, 3, &fb))

  00052	8d 45 f0	 lea	 eax, DWORD PTR _fb$[ebp]
  00055	50		 push	 eax
  00056	6a 03		 push	 3
  00058	56		 push	 esi
  00059	e8 00 00 00 00	 call	 ?PyTuple_GetFloat@@YA_NPAU_object@@HPAM@Z ; PyTuple_GetFloat
  0005e	83 c4 0c	 add	 esp, 12			; 0000000cH
  00061	84 c0		 test	 al, al
  00063	74 b8		 je	 SHORT $LN11@chrSetAddR

; 274  : 		return Py_BuildException();
; 275  : 
; 276  : 	CInstanceBase * pkInst = CPythonCharacterManager::Instance().GetInstancePtr(iVirtualID);

  00065	8b 0d 00 00 00
	00		 mov	 ecx, DWORD PTR ?ms_singleton@?$CSingleton@VCPythonCharacterManager@@@@0PAVCPythonCharacterManager@@A ; CSingleton<CPythonCharacterManager>::ms_singleton
  0006b	ff 75 fc	 push	 DWORD PTR _iVirtualID$[ebp]
  0006e	83 c1 04	 add	 ecx, 4
  00071	8b 01		 mov	 eax, DWORD PTR [ecx]
  00073	ff 50 08	 call	 DWORD PTR [eax+8]
  00076	8b f0		 mov	 esi, eax

; 277  : 
; 278  : 	if (!pkInst)

  00078	85 f6		 test	 esi, esi
  0007a	74 37		 je	 SHORT $LN10@chrSetAddR

; 279  : 		return Py_BuildNone();
; 280  : 
; 281  : 	pkInst->SetAddRenderMode();

  0007c	8b ce		 mov	 ecx, esi
  0007e	e8 00 00 00 00	 call	 ?SetAddRenderMode@CInstanceBase@@QAEXXZ ; CInstanceBase::SetAddRenderMode
; File E:\Metin2_server\SolWayneSF v6\ClientVS22\extern\include\d3dx8math.inl

; 920  :     r = fr;

  00083	f3 0f 10 45 f8	 movss	 xmm0, DWORD PTR _fr$[ebp]
; File E:\Metin2_server\SolWayneSF v6\ClientVS22\source\UserInterface\PythonCharacterModule.cpp

; 282  : 	pkInst->SetAddColor(D3DXCOLOR(fr, fg, fb, 1.0f));

  00088	8d 45 e0	 lea	 eax, DWORD PTR $T1[ebp]
; File E:\Metin2_server\SolWayneSF v6\ClientVS22\extern\include\d3dx8math.inl

; 920  :     r = fr;

  0008b	f3 0f 11 45 e0	 movss	 DWORD PTR $T1[ebp], xmm0
; File E:\Metin2_server\SolWayneSF v6\ClientVS22\source\UserInterface\PythonCharacterModule.cpp

; 282  : 	pkInst->SetAddColor(D3DXCOLOR(fr, fg, fb, 1.0f));

  00090	8b ce		 mov	 ecx, esi
; File E:\Metin2_server\SolWayneSF v6\ClientVS22\extern\include\d3dx8math.inl

; 921  :     g = fg;

  00092	f3 0f 10 45 f4	 movss	 xmm0, DWORD PTR _fg$[ebp]
  00097	f3 0f 11 45 e4	 movss	 DWORD PTR $T1[ebp+4], xmm0

; 922  :     b = fb;

  0009c	f3 0f 10 45 f0	 movss	 xmm0, DWORD PTR _fb$[ebp]
; File E:\Metin2_server\SolWayneSF v6\ClientVS22\source\UserInterface\PythonCharacterModule.cpp

; 282  : 	pkInst->SetAddColor(D3DXCOLOR(fr, fg, fb, 1.0f));

  000a1	50		 push	 eax
; File E:\Metin2_server\SolWayneSF v6\ClientVS22\extern\include\d3dx8math.inl

; 922  :     b = fb;

  000a2	f3 0f 11 45 e8	 movss	 DWORD PTR $T1[ebp+8], xmm0

; 923  :     a = fa;

  000a7	c7 45 ec 00 00
	80 3f		 mov	 DWORD PTR $T1[ebp+12], 1065353216 ; 3f800000H
; File E:\Metin2_server\SolWayneSF v6\ClientVS22\source\UserInterface\PythonCharacterModule.cpp

; 282  : 	pkInst->SetAddColor(D3DXCOLOR(fr, fg, fb, 1.0f));

  000ae	e8 00 00 00 00	 call	 ?SetAddColor@CInstanceBase@@QAEXABUD3DXCOLOR@@@Z ; CInstanceBase::SetAddColor
$LN10@chrSetAddR:

; 283  : 
; 284  : 	return Py_BuildNone();
; 285  : }

  000b3	e8 00 00 00 00	 call	 ?Py_BuildNone@@YAPAU_object@@XZ ; Py_BuildNone
  000b8	5e		 pop	 esi
  000b9	8b e5		 mov	 esp, ebp
  000bb	5d		 pop	 ebp
  000bc	c3		 ret	 0
?chrSetAddRenderMode@@YAPAU_object@@PAU1@0@Z ENDP	; chrSetAddRenderMode
_TEXT	ENDS
; Function compile flags: /Ogtp
; File E:\Metin2_server\SolWayneSF v6\ClientVS22\source\UserInterface\PythonCharacterModule.cpp
;	COMDAT ?chrSetBlendRenderMode@@YAPAU_object@@PAU1@0@Z
_TEXT	SEGMENT
_fAlpha$ = -8						; size = 4
_iVirtualID$ = -4					; size = 4
_poSelf$ = 8						; size = 4
_poArgs$ = 12						; size = 4
?chrSetBlendRenderMode@@YAPAU_object@@PAU1@0@Z PROC	; chrSetBlendRenderMode, COMDAT

; 288  : {

  00000	55		 push	 ebp
  00001	8b ec		 mov	 ebp, esp
  00003	83 ec 08	 sub	 esp, 8

; 289  : 	int iVirtualID;
; 290  : 	if (!PyTuple_GetInteger(poArgs, 0, &iVirtualID))

  00006	8d 45 fc	 lea	 eax, DWORD PTR _iVirtualID$[ebp]
  00009	50		 push	 eax
  0000a	6a 00		 push	 0
  0000c	ff 75 0c	 push	 DWORD PTR _poArgs$[ebp]
  0000f	e8 00 00 00 00	 call	 ?PyTuple_GetInteger@@YA_NPAU_object@@HPAH@Z ; PyTuple_GetInteger
  00014	83 c4 0c	 add	 esp, 12			; 0000000cH
  00017	84 c0		 test	 al, al
  00019	75 0e		 jne	 SHORT $LN2@chrSetBlen
$LN7@chrSetBlen:

; 303  : 	
; 304  : 	return Py_BuildNone();
; 305  : }

  0001b	6a 00		 push	 0
  0001d	e8 00 00 00 00	 call	 ?Py_BuildException@@YAPAU_object@@PBDZZ ; Py_BuildException
  00022	83 c4 04	 add	 esp, 4
  00025	8b e5		 mov	 esp, ebp
  00027	5d		 pop	 ebp
  00028	c3		 ret	 0
$LN2@chrSetBlen:

; 291  : 		return Py_BuildException();
; 292  : 
; 293  : 	float fAlpha;
; 294  : 	if (!PyTuple_GetFloat(poArgs, 1, &fAlpha))

  00029	8d 45 f8	 lea	 eax, DWORD PTR _fAlpha$[ebp]
  0002c	50		 push	 eax
  0002d	6a 01		 push	 1
  0002f	ff 75 0c	 push	 DWORD PTR _poArgs$[ebp]
  00032	e8 00 00 00 00	 call	 ?PyTuple_GetFloat@@YA_NPAU_object@@HPAM@Z ; PyTuple_GetFloat
  00037	83 c4 0c	 add	 esp, 12			; 0000000cH
  0003a	84 c0		 test	 al, al
  0003c	74 dd		 je	 SHORT $LN7@chrSetBlen

; 295  : 		return Py_BuildException();
; 296  : 
; 297  : 	CInstanceBase * pkInst = CPythonCharacterManager::Instance().GetInstancePtr(iVirtualID);

  0003e	8b 0d 00 00 00
	00		 mov	 ecx, DWORD PTR ?ms_singleton@?$CSingleton@VCPythonCharacterManager@@@@0PAVCPythonCharacterManager@@A ; CSingleton<CPythonCharacterManager>::ms_singleton
  00044	ff 75 fc	 push	 DWORD PTR _iVirtualID$[ebp]
  00047	83 c1 04	 add	 ecx, 4
  0004a	8b 01		 mov	 eax, DWORD PTR [ecx]
  0004c	ff 50 08	 call	 DWORD PTR [eax+8]

; 298  : 
; 299  : 	if (!pkInst)

  0004f	85 c0		 test	 eax, eax
  00051	74 0c		 je	 SHORT $LN6@chrSetBlen

; 300  : 		return Py_BuildNone();
; 301  : 
; 302  : 	pkInst->SetAlpha(fAlpha);

  00053	f3 0f 10 4d f8	 movss	 xmm1, DWORD PTR _fAlpha$[ebp]
  00058	8b c8		 mov	 ecx, eax
  0005a	e8 00 00 00 00	 call	 ?SetAlpha@CInstanceBase@@QAEXM@Z ; CInstanceBase::SetAlpha
$LN6@chrSetBlen:

; 303  : 	
; 304  : 	return Py_BuildNone();
; 305  : }

  0005f	e8 00 00 00 00	 call	 ?Py_BuildNone@@YAPAU_object@@XZ ; Py_BuildNone
  00064	8b e5		 mov	 esp, ebp
  00066	5d		 pop	 ebp
  00067	c3		 ret	 0
?chrSetBlendRenderMode@@YAPAU_object@@PAU1@0@Z ENDP	; chrSetBlendRenderMode
_TEXT	ENDS
; Function compile flags: /Ogtp
; File E:\Metin2_server\SolWayneSF v6\ClientVS22\source\UserInterface\PythonCharacterModule.cpp
;	COMDAT ?chrUnselect@@YAPAU_object@@PAU1@0@Z
_TEXT	SEGMENT
_iVirtualID$ = -4					; size = 4
_poSelf$ = 8						; size = 4
_poArgs$ = 12						; size = 4
?chrUnselect@@YAPAU_object@@PAU1@0@Z PROC		; chrUnselect, COMDAT

; 308  : {

  00000	55		 push	 ebp
  00001	8b ec		 mov	 ebp, esp
  00003	51		 push	 ecx

; 309  : 	int iVirtualID;
; 310  : 	if (!PyTuple_GetInteger(poArgs, 0, &iVirtualID))

  00004	8d 45 fc	 lea	 eax, DWORD PTR _iVirtualID$[ebp]
  00007	50		 push	 eax
  00008	6a 00		 push	 0
  0000a	ff 75 0c	 push	 DWORD PTR _poArgs$[ebp]
  0000d	e8 00 00 00 00	 call	 ?PyTuple_GetInteger@@YA_NPAU_object@@HPAH@Z ; PyTuple_GetInteger
  00012	83 c4 0c	 add	 esp, 12			; 0000000cH
  00015	84 c0		 test	 al, al
  00017	75 0e		 jne	 SHORT $LN2@chrUnselec

; 311  : 		return Py_BuildException();

  00019	6a 00		 push	 0
  0001b	e8 00 00 00 00	 call	 ?Py_BuildException@@YAPAU_object@@PBDZZ ; Py_BuildException
  00020	83 c4 04	 add	 esp, 4

; 318  : 	return Py_BuildNone();
; 319  : }

  00023	8b e5		 mov	 esp, ebp
  00025	5d		 pop	 ebp
  00026	c3		 ret	 0
$LN2@chrUnselec:

; 312  : 
; 313  : 	CInstanceBase * pkInst = CPythonCharacterManager::Instance().GetInstancePtr(iVirtualID);

  00027	8b 0d 00 00 00
	00		 mov	 ecx, DWORD PTR ?ms_singleton@?$CSingleton@VCPythonCharacterManager@@@@0PAVCPythonCharacterManager@@A ; CSingleton<CPythonCharacterManager>::ms_singleton
  0002d	ff 75 fc	 push	 DWORD PTR _iVirtualID$[ebp]
  00030	83 c1 04	 add	 ecx, 4
  00033	8b 01		 mov	 eax, DWORD PTR [ecx]
  00035	ff 50 08	 call	 DWORD PTR [eax+8]

; 314  : 	if (!pkInst)

  00038	85 c0		 test	 eax, eax
  0003a	74 07		 je	 SHORT $LN5@chrUnselec

; 315  : 		return Py_BuildNone();
; 316  : 
; 317  : 	pkInst->RestoreRenderMode();

  0003c	8b c8		 mov	 ecx, eax
  0003e	e8 00 00 00 00	 call	 ?RestoreRenderMode@CInstanceBase@@QAEXXZ ; CInstanceBase::RestoreRenderMode
$LN5@chrUnselec:

; 318  : 	return Py_BuildNone();
; 319  : }

  00043	e8 00 00 00 00	 call	 ?Py_BuildNone@@YAPAU_object@@XZ ; Py_BuildNone
  00048	8b e5		 mov	 esp, ebp
  0004a	5d		 pop	 ebp
  0004b	c3		 ret	 0
?chrUnselect@@YAPAU_object@@PAU1@0@Z ENDP		; chrUnselect
_TEXT	ENDS
; Function compile flags: /Ogtp
; File E:\Metin2_server\SolWayneSF v6\ClientVS22\source\UserInterface\PythonCharacterModule.cpp
;	COMDAT ?chrPick@@YAPAU_object@@PAU1@0@Z
_TEXT	SEGMENT
_VirtualID$ = -4					; size = 4
_poSelf$ = 8						; size = 4
_poArgs$ = 12						; size = 4
?chrPick@@YAPAU_object@@PAU1@0@Z PROC			; chrPick, COMDAT

; 322  : {

  00000	55		 push	 ebp
  00001	8b ec		 mov	 ebp, esp
  00003	51		 push	 ecx

; 323  : 	DWORD VirtualID = 0;
; 324  : 	if (CPythonCharacterManager::Instance().OLD_GetPickedInstanceVID(&VirtualID))

  00004	8b 0d 00 00 00
	00		 mov	 ecx, DWORD PTR ?ms_singleton@?$CSingleton@VCPythonCharacterManager@@@@0PAVCPythonCharacterManager@@A ; CSingleton<CPythonCharacterManager>::ms_singleton
  0000a	8d 45 fc	 lea	 eax, DWORD PTR _VirtualID$[ebp]
  0000d	50		 push	 eax
  0000e	c7 45 fc 00 00
	00 00		 mov	 DWORD PTR _VirtualID$[ebp], 0
  00015	e8 00 00 00 00	 call	 ?OLD_GetPickedInstanceVID@CPythonCharacterManager@@QAE_NPAK@Z ; CPythonCharacterManager::OLD_GetPickedInstanceVID
  0001a	84 c0		 test	 al, al
  0001c	74 15		 je	 SHORT $LN2@chrPick

; 325  : 		return Py_BuildValue("i", VirtualID);

  0001e	ff 75 fc	 push	 DWORD PTR _VirtualID$[ebp]

; 328  : }

  00021	68 00 00 00 00	 push	 OFFSET ??_C@_01KBJDNOO@i@
  00026	ff 15 00 00 00
	00		 call	 DWORD PTR __imp__Py_BuildValue
  0002c	83 c4 08	 add	 esp, 8
  0002f	8b e5		 mov	 esp, ebp
  00031	5d		 pop	 ebp
  00032	c3		 ret	 0
$LN2@chrPick:

; 326  : 	else
; 327  : 		return Py_BuildValue("i", -1);

  00033	6a ff		 push	 -1

; 328  : }

  00035	68 00 00 00 00	 push	 OFFSET ??_C@_01KBJDNOO@i@
  0003a	ff 15 00 00 00
	00		 call	 DWORD PTR __imp__Py_BuildValue
  00040	83 c4 08	 add	 esp, 8
  00043	8b e5		 mov	 esp, ebp
  00045	5d		 pop	 ebp
  00046	c3		 ret	 0
?chrPick@@YAPAU_object@@PAU1@0@Z ENDP			; chrPick
_TEXT	ENDS
; Function compile flags: /Ogtp
; File E:\Metin2_server\SolWayneSF v6\ClientVS22\source\UserInterface\PythonCharacterModule.cpp
;	COMDAT ?chrHide@@YAPAU_object@@PAU1@0@Z
_TEXT	SEGMENT
_poSelf$ = 8						; size = 4
_poArgs$ = 12						; size = 4
?chrHide@@YAPAU_object@@PAU1@0@Z PROC			; chrHide, COMDAT

; 332  : 	CInstanceBase * pkInst = CPythonCharacterManager::Instance().GetSelectedInstancePtr();

  00000	8b 0d 00 00 00
	00		 mov	 ecx, DWORD PTR ?ms_singleton@?$CSingleton@VCPythonCharacterManager@@@@0PAVCPythonCharacterManager@@A ; CSingleton<CPythonCharacterManager>::ms_singleton
  00006	e8 00 00 00 00	 call	 ?GetSelectedInstancePtr@CPythonCharacterManager@@QAEPAVCInstanceBase@@XZ ; CPythonCharacterManager::GetSelectedInstancePtr

; 333  : 	if (!pkInst)

  0000b	85 c0		 test	 eax, eax
  0000d	0f 84 00 00 00
	00		 je	 ?Py_BuildNone@@YAPAU_object@@XZ ; Py_BuildNone

; 334  : 		return Py_BuildNone();
; 335  : 
; 336  : 	pkInst->Hide();

  00013	8b c8		 mov	 ecx, eax
  00015	e8 00 00 00 00	 call	 ?Hide@CInstanceBase@@QAEXXZ ; CInstanceBase::Hide

; 337  : 	return Py_BuildNone();

  0001a	e9 00 00 00 00	 jmp	 ?Py_BuildNone@@YAPAU_object@@XZ ; Py_BuildNone
?chrHide@@YAPAU_object@@PAU1@0@Z ENDP			; chrHide
_TEXT	ENDS
; Function compile flags: /Ogtp
; File E:\Metin2_server\SolWayneSF v6\ClientVS22\source\UserInterface\PythonCharacterModule.cpp
;	COMDAT ?chrShow@@YAPAU_object@@PAU1@0@Z
_TEXT	SEGMENT
_poSelf$ = 8						; size = 4
_poArgs$ = 12						; size = 4
?chrShow@@YAPAU_object@@PAU1@0@Z PROC			; chrShow, COMDAT

; 342  : 	CInstanceBase * pkInst = CPythonCharacterManager::Instance().GetSelectedInstancePtr();

  00000	8b 0d 00 00 00
	00		 mov	 ecx, DWORD PTR ?ms_singleton@?$CSingleton@VCPythonCharacterManager@@@@0PAVCPythonCharacterManager@@A ; CSingleton<CPythonCharacterManager>::ms_singleton
  00006	e8 00 00 00 00	 call	 ?GetSelectedInstancePtr@CPythonCharacterManager@@QAEPAVCInstanceBase@@XZ ; CPythonCharacterManager::GetSelectedInstancePtr

; 343  : 	if (!pkInst)

  0000b	85 c0		 test	 eax, eax
  0000d	0f 84 00 00 00
	00		 je	 ?Py_BuildNone@@YAPAU_object@@XZ ; Py_BuildNone

; 344  : 		return Py_BuildNone();
; 345  : 
; 346  : 	pkInst->Show();

  00013	8b c8		 mov	 ecx, eax
  00015	e8 00 00 00 00	 call	 ?Show@CInstanceBase@@QAEXXZ ; CInstanceBase::Show

; 347  : 	return Py_BuildNone();

  0001a	e9 00 00 00 00	 jmp	 ?Py_BuildNone@@YAPAU_object@@XZ ; Py_BuildNone
?chrShow@@YAPAU_object@@PAU1@0@Z ENDP			; chrShow
_TEXT	ENDS
; Function compile flags: /Ogtp
; File E:\Metin2_server\SolWayneSF v6\ClientVS22\source\UserInterface\PythonCharacterModule.cpp
;	COMDAT ?chrPickAll@@YAPAU_object@@PAU1@0@Z
_TEXT	SEGMENT
_poSelf$ = 8						; size = 4
_poArgs$ = 12						; size = 4
?chrPickAll@@YAPAU_object@@PAU1@0@Z PROC		; chrPickAll, COMDAT

; 352  : 	DWORD VirtualID = CPythonCharacterManager::Instance().PickAll();

  00000	8b 0d 00 00 00
	00		 mov	 ecx, DWORD PTR ?ms_singleton@?$CSingleton@VCPythonCharacterManager@@@@0PAVCPythonCharacterManager@@A ; CSingleton<CPythonCharacterManager>::ms_singleton
  00006	e8 00 00 00 00	 call	 ?PickAll@CPythonCharacterManager@@QAEHXZ ; CPythonCharacterManager::PickAll

; 353  : 	return Py_BuildValue("i", VirtualID);

  0000b	50		 push	 eax
  0000c	68 00 00 00 00	 push	 OFFSET ??_C@_01KBJDNOO@i@
  00011	ff 15 00 00 00
	00		 call	 DWORD PTR __imp__Py_BuildValue
  00017	83 c4 08	 add	 esp, 8

; 354  : }

  0001a	c3		 ret	 0
?chrPickAll@@YAPAU_object@@PAU1@0@Z ENDP		; chrPickAll
_TEXT	ENDS
; Function compile flags: /Ogtp
; File E:\Metin2_server\SolWayneSF v6\ClientVS22\source\UserInterface\PythonCharacterModule.cpp
;	COMDAT ?chrSetRace@@YAPAU_object@@PAU1@0@Z
_TEXT	SEGMENT
_iRace$ = -4						; size = 4
_poSelf$ = 8						; size = 4
_poArgs$ = 12						; size = 4
?chrSetRace@@YAPAU_object@@PAU1@0@Z PROC		; chrSetRace, COMDAT

; 357  : {

  00000	55		 push	 ebp
  00001	8b ec		 mov	 ebp, esp
  00003	51		 push	 ecx

; 358  : 	int iRace;
; 359  : 	if (!PyTuple_GetInteger(poArgs, 0, &iRace))

  00004	8d 45 fc	 lea	 eax, DWORD PTR _iRace$[ebp]
  00007	50		 push	 eax
  00008	6a 00		 push	 0
  0000a	ff 75 0c	 push	 DWORD PTR _poArgs$[ebp]
  0000d	e8 00 00 00 00	 call	 ?PyTuple_GetInteger@@YA_NPAU_object@@HPAH@Z ; PyTuple_GetInteger
  00012	83 c4 0c	 add	 esp, 12			; 0000000cH
  00015	84 c0		 test	 al, al
  00017	75 0e		 jne	 SHORT $LN2@chrSetRace

; 360  : 		return Py_BuildException();

  00019	6a 00		 push	 0
  0001b	e8 00 00 00 00	 call	 ?Py_BuildException@@YAPAU_object@@PBDZZ ; Py_BuildException
  00020	83 c4 04	 add	 esp, 4

; 367  : 
; 368  : 	return Py_BuildNone();
; 369  : }

  00023	8b e5		 mov	 esp, ebp
  00025	5d		 pop	 ebp
  00026	c3		 ret	 0
$LN2@chrSetRace:

; 361  : 
; 362  : 	CInstanceBase * pkInst = CPythonCharacterManager::Instance().GetSelectedInstancePtr();

  00027	8b 0d 00 00 00
	00		 mov	 ecx, DWORD PTR ?ms_singleton@?$CSingleton@VCPythonCharacterManager@@@@0PAVCPythonCharacterManager@@A ; CSingleton<CPythonCharacterManager>::ms_singleton
  0002d	e8 00 00 00 00	 call	 ?GetSelectedInstancePtr@CPythonCharacterManager@@QAEPAVCInstanceBase@@XZ ; CPythonCharacterManager::GetSelectedInstancePtr

; 363  : 	if (!pkInst)

  00032	85 c0		 test	 eax, eax
  00034	74 0a		 je	 SHORT $LN5@chrSetRace

; 364  : 		return Py_BuildNone();
; 365  : 
; 366  : 	pkInst->SetRace(iRace);

  00036	ff 75 fc	 push	 DWORD PTR _iRace$[ebp]
  00039	8b c8		 mov	 ecx, eax
  0003b	e8 00 00 00 00	 call	 ?SetRace@CInstanceBase@@QAE_NK@Z ; CInstanceBase::SetRace
$LN5@chrSetRace:

; 367  : 
; 368  : 	return Py_BuildNone();
; 369  : }

  00040	e8 00 00 00 00	 call	 ?Py_BuildNone@@YAPAU_object@@XZ ; Py_BuildNone
  00045	8b e5		 mov	 esp, ebp
  00047	5d		 pop	 ebp
  00048	c3		 ret	 0
?chrSetRace@@YAPAU_object@@PAU1@0@Z ENDP		; chrSetRace
_TEXT	ENDS
; Function compile flags: /Ogtp
; File E:\Metin2_server\SolWayneSF v6\ClientVS22\source\UserInterface\PythonCharacterModule.cpp
;	COMDAT ?chrSetHair@@YAPAU_object@@PAU1@0@Z
_TEXT	SEGMENT
_iRace$ = -4						; size = 4
_poSelf$ = 8						; size = 4
_poArgs$ = 12						; size = 4
?chrSetHair@@YAPAU_object@@PAU1@0@Z PROC		; chrSetHair, COMDAT

; 372  : {

  00000	55		 push	 ebp
  00001	8b ec		 mov	 ebp, esp
  00003	51		 push	 ecx

; 373  : 	int iRace;
; 374  : 	if (!PyTuple_GetInteger(poArgs, 0, &iRace))

  00004	8d 45 fc	 lea	 eax, DWORD PTR _iRace$[ebp]
  00007	50		 push	 eax
  00008	6a 00		 push	 0
  0000a	ff 75 0c	 push	 DWORD PTR _poArgs$[ebp]
  0000d	e8 00 00 00 00	 call	 ?PyTuple_GetInteger@@YA_NPAU_object@@HPAH@Z ; PyTuple_GetInteger
  00012	83 c4 0c	 add	 esp, 12			; 0000000cH
  00015	84 c0		 test	 al, al
  00017	75 0e		 jne	 SHORT $LN2@chrSetHair

; 375  : 		return Py_BuildException();

  00019	6a 00		 push	 0
  0001b	e8 00 00 00 00	 call	 ?Py_BuildException@@YAPAU_object@@PBDZZ ; Py_BuildException
  00020	83 c4 04	 add	 esp, 4

; 382  : 
; 383  : 	return Py_BuildNone();
; 384  : }

  00023	8b e5		 mov	 esp, ebp
  00025	5d		 pop	 ebp
  00026	c3		 ret	 0
$LN2@chrSetHair:

; 376  : 
; 377  : 	CInstanceBase * pkInst = CPythonCharacterManager::Instance().GetSelectedInstancePtr();

  00027	8b 0d 00 00 00
	00		 mov	 ecx, DWORD PTR ?ms_singleton@?$CSingleton@VCPythonCharacterManager@@@@0PAVCPythonCharacterManager@@A ; CSingleton<CPythonCharacterManager>::ms_singleton
  0002d	e8 00 00 00 00	 call	 ?GetSelectedInstancePtr@CPythonCharacterManager@@QAEPAVCInstanceBase@@XZ ; CPythonCharacterManager::GetSelectedInstancePtr

; 378  : 	if (!pkInst)

  00032	85 c0		 test	 eax, eax
  00034	74 0a		 je	 SHORT $LN5@chrSetHair

; 379  : 		return Py_BuildNone();
; 380  : 
; 381  : 	pkInst->SetHair(iRace);

  00036	ff 75 fc	 push	 DWORD PTR _iRace$[ebp]
  00039	8b c8		 mov	 ecx, eax
  0003b	e8 00 00 00 00	 call	 ?SetHair@CInstanceBase@@QAEXK@Z ; CInstanceBase::SetHair
$LN5@chrSetHair:

; 382  : 
; 383  : 	return Py_BuildNone();
; 384  : }

  00040	e8 00 00 00 00	 call	 ?Py_BuildNone@@YAPAU_object@@XZ ; Py_BuildNone
  00045	8b e5		 mov	 esp, ebp
  00047	5d		 pop	 ebp
  00048	c3		 ret	 0
?chrSetHair@@YAPAU_object@@PAU1@0@Z ENDP		; chrSetHair
_TEXT	ENDS
; Function compile flags: /Ogtp
; File E:\Metin2_server\SolWayneSF v6\ClientVS22\source\UserInterface\PythonCharacterModule.cpp
;	COMDAT ?chrChangeHair@@YAPAU_object@@PAU1@0@Z
_TEXT	SEGMENT
_iHair$ = -4						; size = 4
_poSelf$ = 8						; size = 4
_poArgs$ = 12						; size = 4
?chrChangeHair@@YAPAU_object@@PAU1@0@Z PROC		; chrChangeHair, COMDAT

; 387  : {

  00000	55		 push	 ebp
  00001	8b ec		 mov	 ebp, esp
  00003	51		 push	 ecx

; 388  : 	int iHair;
; 389  : 
; 390  : 	if (!PyTuple_GetInteger(poArgs, 0, &iHair))

  00004	8d 45 fc	 lea	 eax, DWORD PTR _iHair$[ebp]
  00007	50		 push	 eax
  00008	6a 00		 push	 0
  0000a	ff 75 0c	 push	 DWORD PTR _poArgs$[ebp]
  0000d	e8 00 00 00 00	 call	 ?PyTuple_GetInteger@@YA_NPAU_object@@HPAH@Z ; PyTuple_GetInteger
  00012	83 c4 0c	 add	 esp, 12			; 0000000cH
  00015	84 c0		 test	 al, al
  00017	75 0e		 jne	 SHORT $LN2@chrChangeH

; 391  : 		return Py_BuildException();

  00019	6a 00		 push	 0
  0001b	e8 00 00 00 00	 call	 ?Py_BuildException@@YAPAU_object@@PBDZZ ; Py_BuildException
  00020	83 c4 04	 add	 esp, 4

; 396  : 	return Py_BuildNone();
; 397  : }

  00023	8b e5		 mov	 esp, ebp
  00025	5d		 pop	 ebp
  00026	c3		 ret	 0
$LN2@chrChangeH:

; 392  : 	CInstanceBase * pkInst = CPythonCharacterManager::Instance().GetSelectedInstancePtr();

  00027	8b 0d 00 00 00
	00		 mov	 ecx, DWORD PTR ?ms_singleton@?$CSingleton@VCPythonCharacterManager@@@@0PAVCPythonCharacterManager@@A ; CSingleton<CPythonCharacterManager>::ms_singleton
  0002d	e8 00 00 00 00	 call	 ?GetSelectedInstancePtr@CPythonCharacterManager@@QAEPAVCInstanceBase@@XZ ; CPythonCharacterManager::GetSelectedInstancePtr

; 393  : 	if (!pkInst)

  00032	85 c0		 test	 eax, eax
  00034	74 0a		 je	 SHORT $LN5@chrChangeH

; 394  : 		return Py_BuildNone();
; 395  : 	pkInst->ChangeHair(iHair);

  00036	ff 75 fc	 push	 DWORD PTR _iHair$[ebp]
  00039	8b c8		 mov	 ecx, eax
  0003b	e8 00 00 00 00	 call	 ?ChangeHair@CInstanceBase@@QAEXK@Z ; CInstanceBase::ChangeHair
$LN5@chrChangeH:

; 396  : 	return Py_BuildNone();
; 397  : }

  00040	e8 00 00 00 00	 call	 ?Py_BuildNone@@YAPAU_object@@XZ ; Py_BuildNone
  00045	8b e5		 mov	 esp, ebp
  00047	5d		 pop	 ebp
  00048	c3		 ret	 0
?chrChangeHair@@YAPAU_object@@PAU1@0@Z ENDP		; chrChangeHair
_TEXT	ENDS
; Function compile flags: /Ogtp
; File E:\Metin2_server\SolWayneSF v6\ClientVS22\source\UserInterface\PythonCharacterModule.cpp
;	COMDAT ?chrSetArmor@@YAPAU_object@@PAU1@0@Z
_TEXT	SEGMENT
_iForm$ = -4						; size = 4
_poSelf$ = 8						; size = 4
_poArgs$ = 12						; size = 4
?chrSetArmor@@YAPAU_object@@PAU1@0@Z PROC		; chrSetArmor, COMDAT

; 400  : {

  00000	55		 push	 ebp
  00001	8b ec		 mov	 ebp, esp
  00003	51		 push	 ecx

; 401  : 	int iForm;
; 402  : 	if (!PyTuple_GetInteger(poArgs, 0, &iForm))

  00004	8d 45 fc	 lea	 eax, DWORD PTR _iForm$[ebp]
  00007	50		 push	 eax
  00008	6a 00		 push	 0
  0000a	ff 75 0c	 push	 DWORD PTR _poArgs$[ebp]
  0000d	e8 00 00 00 00	 call	 ?PyTuple_GetInteger@@YA_NPAU_object@@HPAH@Z ; PyTuple_GetInteger
  00012	83 c4 0c	 add	 esp, 12			; 0000000cH
  00015	84 c0		 test	 al, al
  00017	75 0e		 jne	 SHORT $LN2@chrSetArmo

; 403  : 		return Py_BuildException();

  00019	6a 00		 push	 0
  0001b	e8 00 00 00 00	 call	 ?Py_BuildException@@YAPAU_object@@PBDZZ ; Py_BuildException
  00020	83 c4 04	 add	 esp, 4

; 414  : }

  00023	8b e5		 mov	 esp, ebp
  00025	5d		 pop	 ebp
  00026	c3		 ret	 0
$LN2@chrSetArmo:

; 404  : 
; 405  : 	CInstanceBase * pkInst = CPythonCharacterManager::Instance().GetSelectedInstancePtr();

  00027	8b 0d 00 00 00
	00		 mov	 ecx, DWORD PTR ?ms_singleton@?$CSingleton@VCPythonCharacterManager@@@@0PAVCPythonCharacterManager@@A ; CSingleton<CPythonCharacterManager>::ms_singleton
  0002d	56		 push	 esi
  0002e	e8 00 00 00 00	 call	 ?GetSelectedInstancePtr@CPythonCharacterManager@@QAEPAVCInstanceBase@@XZ ; CPythonCharacterManager::GetSelectedInstancePtr
  00033	8b f0		 mov	 esi, eax

; 406  : 	if (!pkInst)

  00035	85 f6		 test	 esi, esi
  00037	74 11		 je	 SHORT $LN6@chrSetArmo

; 407  : 		return Py_BuildNone();
; 408  : 
; 409  : 	pkInst->SetArmor(iForm);

  00039	ff 75 fc	 push	 DWORD PTR _iForm$[ebp]
  0003c	8b ce		 mov	 ecx, esi
  0003e	e8 00 00 00 00	 call	 ?SetArmor@CInstanceBase@@QAEXK@Z ; CInstanceBase::SetArmor

; 410  : 
; 411  : 	pkInst->RegisterBoundingSphere();

  00043	8b ce		 mov	 ecx, esi
  00045	e8 00 00 00 00	 call	 ?RegisterBoundingSphere@CInstanceBase@@QAEXXZ ; CInstanceBase::RegisterBoundingSphere
$LN6@chrSetArmo:

; 412  : 
; 413  : 	return Py_BuildNone();

  0004a	e8 00 00 00 00	 call	 ?Py_BuildNone@@YAPAU_object@@XZ ; Py_BuildNone
  0004f	5e		 pop	 esi

; 414  : }

  00050	8b e5		 mov	 esp, ebp
  00052	5d		 pop	 ebp
  00053	c3		 ret	 0
?chrSetArmor@@YAPAU_object@@PAU1@0@Z ENDP		; chrSetArmor
_TEXT	ENDS
; Function compile flags: /Ogtp
; File E:\Metin2_server\SolWayneSF v6\ClientVS22\source\UserInterface\PythonCharacterModule.cpp
;	COMDAT ?chrChangeShape@@YAPAU_object@@PAU1@0@Z
_TEXT	SEGMENT
_iForm$ = -4						; size = 4
_poSelf$ = 8						; size = 4
_poArgs$ = 12						; size = 4
?chrChangeShape@@YAPAU_object@@PAU1@0@Z PROC		; chrChangeShape, COMDAT

; 417  : {

  00000	55		 push	 ebp
  00001	8b ec		 mov	 ebp, esp
  00003	51		 push	 ecx

; 418  : 	int iForm;
; 419  : 	if (!PyTuple_GetInteger(poArgs, 0, &iForm))

  00004	8d 45 fc	 lea	 eax, DWORD PTR _iForm$[ebp]
  00007	50		 push	 eax
  00008	6a 00		 push	 0
  0000a	ff 75 0c	 push	 DWORD PTR _poArgs$[ebp]
  0000d	e8 00 00 00 00	 call	 ?PyTuple_GetInteger@@YA_NPAU_object@@HPAH@Z ; PyTuple_GetInteger
  00012	83 c4 0c	 add	 esp, 12			; 0000000cH
  00015	84 c0		 test	 al, al
  00017	75 0e		 jne	 SHORT $LN2@chrChangeS

; 420  : 		return Py_BuildException();

  00019	6a 00		 push	 0
  0001b	e8 00 00 00 00	 call	 ?Py_BuildException@@YAPAU_object@@PBDZZ ; Py_BuildException
  00020	83 c4 04	 add	 esp, 4

; 427  : 
; 428  : 	return Py_BuildNone();
; 429  : }

  00023	8b e5		 mov	 esp, ebp
  00025	5d		 pop	 ebp
  00026	c3		 ret	 0
$LN2@chrChangeS:

; 421  : 
; 422  : 	CInstanceBase * pkInst = CPythonCharacterManager::Instance().GetSelectedInstancePtr();

  00027	8b 0d 00 00 00
	00		 mov	 ecx, DWORD PTR ?ms_singleton@?$CSingleton@VCPythonCharacterManager@@@@0PAVCPythonCharacterManager@@A ; CSingleton<CPythonCharacterManager>::ms_singleton
  0002d	e8 00 00 00 00	 call	 ?GetSelectedInstancePtr@CPythonCharacterManager@@QAEPAVCInstanceBase@@XZ ; CPythonCharacterManager::GetSelectedInstancePtr

; 423  : 	if (!pkInst)

  00032	85 c0		 test	 eax, eax
  00034	74 0a		 je	 SHORT $LN5@chrChangeS

; 424  : 		return Py_BuildNone();
; 425  : 
; 426  : 	pkInst->ChangeArmor(iForm);

  00036	ff 75 fc	 push	 DWORD PTR _iForm$[ebp]
  00039	8b c8		 mov	 ecx, eax
  0003b	e8 00 00 00 00	 call	 ?ChangeArmor@CInstanceBase@@QAE_NK@Z ; CInstanceBase::ChangeArmor
$LN5@chrChangeS:

; 427  : 
; 428  : 	return Py_BuildNone();
; 429  : }

  00040	e8 00 00 00 00	 call	 ?Py_BuildNone@@YAPAU_object@@XZ ; Py_BuildNone
  00045	8b e5		 mov	 esp, ebp
  00047	5d		 pop	 ebp
  00048	c3		 ret	 0
?chrChangeShape@@YAPAU_object@@PAU1@0@Z ENDP		; chrChangeShape
_TEXT	ENDS
; Function compile flags: /Ogtp
; File E:\Metin2_server\SolWayneSF v6\ClientVS22\source\UserInterface\PythonCharacterModule.cpp
;	COMDAT ?chrSetWeapon@@YAPAU_object@@PAU1@0@Z
_TEXT	SEGMENT
_iForm$ = -4						; size = 4
_poSelf$ = 8						; size = 4
_poArgs$ = 12						; size = 4
?chrSetWeapon@@YAPAU_object@@PAU1@0@Z PROC		; chrSetWeapon, COMDAT

; 432  : {

  00000	55		 push	 ebp
  00001	8b ec		 mov	 ebp, esp
  00003	51		 push	 ecx

; 433  : 	int iForm;
; 434  : 	if (!PyTuple_GetInteger(poArgs, 0, &iForm))

  00004	8d 45 fc	 lea	 eax, DWORD PTR _iForm$[ebp]
  00007	50		 push	 eax
  00008	6a 00		 push	 0
  0000a	ff 75 0c	 push	 DWORD PTR _poArgs$[ebp]
  0000d	e8 00 00 00 00	 call	 ?PyTuple_GetInteger@@YA_NPAU_object@@HPAH@Z ; PyTuple_GetInteger
  00012	83 c4 0c	 add	 esp, 12			; 0000000cH
  00015	84 c0		 test	 al, al
  00017	75 0e		 jne	 SHORT $LN2@chrSetWeap

; 435  : 		return Py_BuildException();

  00019	6a 00		 push	 0
  0001b	e8 00 00 00 00	 call	 ?Py_BuildException@@YAPAU_object@@PBDZZ ; Py_BuildException
  00020	83 c4 04	 add	 esp, 4

; 442  : 
; 443  : 	return Py_BuildNone();
; 444  : }

  00023	8b e5		 mov	 esp, ebp
  00025	5d		 pop	 ebp
  00026	c3		 ret	 0
$LN2@chrSetWeap:

; 436  : 
; 437  : 	CInstanceBase * pkInst = CPythonCharacterManager::Instance().GetSelectedInstancePtr();

  00027	8b 0d 00 00 00
	00		 mov	 ecx, DWORD PTR ?ms_singleton@?$CSingleton@VCPythonCharacterManager@@@@0PAVCPythonCharacterManager@@A ; CSingleton<CPythonCharacterManager>::ms_singleton
  0002d	e8 00 00 00 00	 call	 ?GetSelectedInstancePtr@CPythonCharacterManager@@QAEPAVCInstanceBase@@XZ ; CPythonCharacterManager::GetSelectedInstancePtr

; 438  : 	if (!pkInst)

  00032	85 c0		 test	 eax, eax
  00034	74 0c		 je	 SHORT $LN5@chrSetWeap

; 439  : 		return Py_BuildNone();
; 440  : 
; 441  : 	pkInst->SetWeapon(iForm);

  00036	6a 00		 push	 0
  00038	ff 75 fc	 push	 DWORD PTR _iForm$[ebp]
  0003b	8b c8		 mov	 ecx, eax
  0003d	e8 00 00 00 00	 call	 ?SetWeapon@CInstanceBase@@QAE_NKK@Z ; CInstanceBase::SetWeapon
$LN5@chrSetWeap:

; 442  : 
; 443  : 	return Py_BuildNone();
; 444  : }

  00042	e8 00 00 00 00	 call	 ?Py_BuildNone@@YAPAU_object@@XZ ; Py_BuildNone
  00047	8b e5		 mov	 esp, ebp
  00049	5d		 pop	 ebp
  0004a	c3		 ret	 0
?chrSetWeapon@@YAPAU_object@@PAU1@0@Z ENDP		; chrSetWeapon
_TEXT	ENDS
; Function compile flags: /Ogtp
; File E:\Metin2_server\SolWayneSF v6\ClientVS22\source\UserInterface\PythonCharacterModule.cpp
;	COMDAT ?chrSetVirtualID@@YAPAU_object@@PAU1@0@Z
_TEXT	SEGMENT
_iVID$ = -4						; size = 4
_poSelf$ = 8						; size = 4
_poArgs$ = 12						; size = 4
?chrSetVirtualID@@YAPAU_object@@PAU1@0@Z PROC		; chrSetVirtualID, COMDAT

; 447  : {

  00000	55		 push	 ebp
  00001	8b ec		 mov	 ebp, esp
  00003	51		 push	 ecx

; 448  : 	int iVID;
; 449  : 	if (!PyTuple_GetInteger(poArgs, 0, &iVID))

  00004	8d 45 fc	 lea	 eax, DWORD PTR _iVID$[ebp]
  00007	50		 push	 eax
  00008	6a 00		 push	 0
  0000a	ff 75 0c	 push	 DWORD PTR _poArgs$[ebp]
  0000d	e8 00 00 00 00	 call	 ?PyTuple_GetInteger@@YA_NPAU_object@@HPAH@Z ; PyTuple_GetInteger
  00012	83 c4 0c	 add	 esp, 12			; 0000000cH
  00015	84 c0		 test	 al, al
  00017	75 0e		 jne	 SHORT $LN2@chrSetVirt

; 450  : 		return Py_BuildException();

  00019	6a 00		 push	 0
  0001b	e8 00 00 00 00	 call	 ?Py_BuildException@@YAPAU_object@@PBDZZ ; Py_BuildException
  00020	83 c4 04	 add	 esp, 4

; 456  : 	return Py_BuildNone();
; 457  : }

  00023	8b e5		 mov	 esp, ebp
  00025	5d		 pop	 ebp
  00026	c3		 ret	 0
$LN2@chrSetVirt:

; 451  : 
; 452  : 	CInstanceBase * pkInst = CPythonCharacterManager::Instance().GetSelectedInstancePtr();

  00027	8b 0d 00 00 00
	00		 mov	 ecx, DWORD PTR ?ms_singleton@?$CSingleton@VCPythonCharacterManager@@@@0PAVCPythonCharacterManager@@A ; CSingleton<CPythonCharacterManager>::ms_singleton
  0002d	e8 00 00 00 00	 call	 ?GetSelectedInstancePtr@CPythonCharacterManager@@QAEPAVCInstanceBase@@XZ ; CPythonCharacterManager::GetSelectedInstancePtr

; 453  : 	if (!pkInst)

  00032	85 c0		 test	 eax, eax
  00034	74 0a		 je	 SHORT $LN5@chrSetVirt

; 454  : 		return Py_BuildNone();
; 455  : 	pkInst->SetVirtualID(iVID);

  00036	ff 75 fc	 push	 DWORD PTR _iVID$[ebp]
  00039	8b c8		 mov	 ecx, eax
  0003b	e8 00 00 00 00	 call	 ?SetVirtualID@CInstanceBase@@QAEXK@Z ; CInstanceBase::SetVirtualID
$LN5@chrSetVirt:

; 456  : 	return Py_BuildNone();
; 457  : }

  00040	e8 00 00 00 00	 call	 ?Py_BuildNone@@YAPAU_object@@XZ ; Py_BuildNone
  00045	8b e5		 mov	 esp, ebp
  00047	5d		 pop	 ebp
  00048	c3		 ret	 0
?chrSetVirtualID@@YAPAU_object@@PAU1@0@Z ENDP		; chrSetVirtualID
_TEXT	ENDS
; Function compile flags: /Ogtp
; File E:\Metin2_server\SolWayneSF v6\ClientVS22\source\UserInterface\PythonCharacterModule.cpp
;	COMDAT ?chrSetNameString@@YAPAU_object@@PAU1@0@Z
_TEXT	SEGMENT
_c_szName$ = -4						; size = 4
_poSelf$ = 8						; size = 4
_poArgs$ = 12						; size = 4
?chrSetNameString@@YAPAU_object@@PAU1@0@Z PROC		; chrSetNameString, COMDAT

; 460  : {

  00000	55		 push	 ebp
  00001	8b ec		 mov	 ebp, esp
  00003	51		 push	 ecx

; 461  : 	char * c_szName;
; 462  : 	if (!PyTuple_GetString(poArgs, 0, &c_szName))

  00004	8d 45 fc	 lea	 eax, DWORD PTR _c_szName$[ebp]
  00007	50		 push	 eax
  00008	6a 00		 push	 0
  0000a	ff 75 0c	 push	 DWORD PTR _poArgs$[ebp]
  0000d	e8 00 00 00 00	 call	 ?PyTuple_GetString@@YA_NPAU_object@@HPAPAD@Z ; PyTuple_GetString
  00012	83 c4 0c	 add	 esp, 12			; 0000000cH
  00015	84 c0		 test	 al, al
  00017	75 0e		 jne	 SHORT $LN2@chrSetName

; 463  : 		return Py_BuildException();

  00019	6a 00		 push	 0
  0001b	e8 00 00 00 00	 call	 ?Py_BuildException@@YAPAU_object@@PBDZZ ; Py_BuildException
  00020	83 c4 04	 add	 esp, 4

; 470  : }

  00023	8b e5		 mov	 esp, ebp
  00025	5d		 pop	 ebp
  00026	c3		 ret	 0
$LN2@chrSetName:

; 464  : 
; 465  : 	CInstanceBase * pkInst = CPythonCharacterManager::Instance().GetSelectedInstancePtr();

  00027	8b 0d 00 00 00
	00		 mov	 ecx, DWORD PTR ?ms_singleton@?$CSingleton@VCPythonCharacterManager@@@@0PAVCPythonCharacterManager@@A ; CSingleton<CPythonCharacterManager>::ms_singleton
  0002d	e8 00 00 00 00	 call	 ?GetSelectedInstancePtr@CPythonCharacterManager@@QAEPAVCInstanceBase@@XZ ; CPythonCharacterManager::GetSelectedInstancePtr
  00032	8b d0		 mov	 edx, eax

; 466  : 	if (!pkInst)

  00034	85 d2		 test	 edx, edx
  00036	75 09		 jne	 SHORT $LN3@chrSetName

; 467  : 		return Py_BuildNone();

  00038	e8 00 00 00 00	 call	 ?Py_BuildNone@@YAPAU_object@@XZ ; Py_BuildNone

; 470  : }

  0003d	8b e5		 mov	 esp, ebp
  0003f	5d		 pop	 ebp
  00040	c3		 ret	 0
$LN3@chrSetName:

; 468  : 	pkInst->SetNameString(c_szName, strlen(c_szName));

  00041	8b 4d fc	 mov	 ecx, DWORD PTR _c_szName$[ebp]
  00044	57		 push	 edi
  00045	8d 79 01	 lea	 edi, DWORD PTR [ecx+1]
$LL5@chrSetName:
  00048	8a 01		 mov	 al, BYTE PTR [ecx]
  0004a	41		 inc	 ecx
  0004b	84 c0		 test	 al, al
  0004d	75 f9		 jne	 SHORT $LL5@chrSetName
  0004f	2b cf		 sub	 ecx, edi
  00051	51		 push	 ecx
  00052	ff 75 fc	 push	 DWORD PTR _c_szName$[ebp]
  00055	8b ca		 mov	 ecx, edx
  00057	e8 00 00 00 00	 call	 ?SetNameString@CInstanceBase@@QAEXPBDH@Z ; CInstanceBase::SetNameString

; 469  : 	return Py_BuildNone();

  0005c	e8 00 00 00 00	 call	 ?Py_BuildNone@@YAPAU_object@@XZ ; Py_BuildNone
  00061	5f		 pop	 edi

; 470  : }

  00062	8b e5		 mov	 esp, ebp
  00064	5d		 pop	 ebp
  00065	c3		 ret	 0
?chrSetNameString@@YAPAU_object@@PAU1@0@Z ENDP		; chrSetNameString
_TEXT	ENDS
; Function compile flags: /Ogtp
; File E:\Metin2_server\SolWayneSF v6\ClientVS22\source\UserInterface\PythonCharacterModule.cpp
;	COMDAT ?chrSetInstanceType@@YAPAU_object@@PAU1@0@Z
_TEXT	SEGMENT
_iInstanceType$ = -4					; size = 4
_poSelf$ = 8						; size = 4
_poArgs$ = 12						; size = 4
?chrSetInstanceType@@YAPAU_object@@PAU1@0@Z PROC	; chrSetInstanceType, COMDAT

; 473  : {

  00000	55		 push	 ebp
  00001	8b ec		 mov	 ebp, esp
  00003	51		 push	 ecx

; 474  : 	int iInstanceType;
; 475  : 	if (!PyTuple_GetInteger(poArgs, 0, &iInstanceType))

  00004	8d 45 fc	 lea	 eax, DWORD PTR _iInstanceType$[ebp]
  00007	50		 push	 eax
  00008	6a 00		 push	 0
  0000a	ff 75 0c	 push	 DWORD PTR _poArgs$[ebp]
  0000d	e8 00 00 00 00	 call	 ?PyTuple_GetInteger@@YA_NPAU_object@@HPAH@Z ; PyTuple_GetInteger
  00012	83 c4 0c	 add	 esp, 12			; 0000000cH
  00015	84 c0		 test	 al, al
  00017	75 0e		 jne	 SHORT $LN2@chrSetInst

; 476  : 		return Py_BuildException();

  00019	6a 00		 push	 0
  0001b	e8 00 00 00 00	 call	 ?Py_BuildException@@YAPAU_object@@PBDZZ ; Py_BuildException
  00020	83 c4 04	 add	 esp, 4

; 482  : 	return Py_BuildNone();
; 483  : }

  00023	8b e5		 mov	 esp, ebp
  00025	5d		 pop	 ebp
  00026	c3		 ret	 0
$LN2@chrSetInst:

; 477  : 
; 478  : 	CInstanceBase * pkInst = CPythonCharacterManager::Instance().GetSelectedInstancePtr();

  00027	8b 0d 00 00 00
	00		 mov	 ecx, DWORD PTR ?ms_singleton@?$CSingleton@VCPythonCharacterManager@@@@0PAVCPythonCharacterManager@@A ; CSingleton<CPythonCharacterManager>::ms_singleton
  0002d	e8 00 00 00 00	 call	 ?GetSelectedInstancePtr@CPythonCharacterManager@@QAEPAVCInstanceBase@@XZ ; CPythonCharacterManager::GetSelectedInstancePtr

; 479  : 	if (!pkInst)

  00032	85 c0		 test	 eax, eax
  00034	74 0a		 je	 SHORT $LN5@chrSetInst

; 480  : 		return Py_BuildNone();
; 481  : 	pkInst->SetInstanceType(iInstanceType);

  00036	ff 75 fc	 push	 DWORD PTR _iInstanceType$[ebp]
  00039	8b c8		 mov	 ecx, eax
  0003b	e8 00 00 00 00	 call	 ?SetInstanceType@CInstanceBase@@QAEXH@Z ; CInstanceBase::SetInstanceType
$LN5@chrSetInst:

; 482  : 	return Py_BuildNone();
; 483  : }

  00040	e8 00 00 00 00	 call	 ?Py_BuildNone@@YAPAU_object@@XZ ; Py_BuildNone
  00045	8b e5		 mov	 esp, ebp
  00047	5d		 pop	 ebp
  00048	c3		 ret	 0
?chrSetInstanceType@@YAPAU_object@@PAU1@0@Z ENDP	; chrSetInstanceType
_TEXT	ENDS
; Function compile flags: /Ogtp
; File E:\Metin2_server\SolWayneSF v6\ClientVS22\source\UserInterface\PythonCharacterModule.cpp
;	COMDAT ?chrAttachEffectByName@@YAPAU_object@@PAU1@0@Z
_TEXT	SEGMENT
_pszEffectName$ = -16					; size = 4
_iParentPartIndex$ = -12				; size = 4
_iLife$ = -8						; size = 4
_pszBoneName$ = -4					; size = 4
_poSelf$ = 8						; size = 4
_poArgs$ = 12						; size = 4
?chrAttachEffectByName@@YAPAU_object@@PAU1@0@Z PROC	; chrAttachEffectByName, COMDAT

; 486  : {

  00000	55		 push	 ebp
  00001	8b ec		 mov	 ebp, esp
  00003	83 ec 10	 sub	 esp, 16			; 00000010H

; 487  : 	int iParentPartIndex;
; 488  : 	if (!PyTuple_GetInteger(poArgs, 0, &iParentPartIndex))

  00006	8d 45 f4	 lea	 eax, DWORD PTR _iParentPartIndex$[ebp]
  00009	56		 push	 esi
  0000a	8b 75 0c	 mov	 esi, DWORD PTR _poArgs$[ebp]
  0000d	50		 push	 eax
  0000e	6a 00		 push	 0
  00010	56		 push	 esi
  00011	e8 00 00 00 00	 call	 ?PyTuple_GetInteger@@YA_NPAU_object@@HPAH@Z ; PyTuple_GetInteger
  00016	83 c4 0c	 add	 esp, 12			; 0000000cH
  00019	84 c0		 test	 al, al
  0001b	75 0f		 jne	 SHORT $LN2@chrAttachE
$LN9@chrAttachE:

; 511  : 
; 512  : 	if (!pkInst)
; 513  : 		return Py_BuildNone();
; 514  : 
; 515  : 	//pkInst->AttachEffectByName(iParentPartIndex, pszBoneName, pszEffectName, iLife);
; 516  : 	return Py_BuildNone();
; 517  : }

  0001d	6a 00		 push	 0
  0001f	e8 00 00 00 00	 call	 ?Py_BuildException@@YAPAU_object@@PBDZZ ; Py_BuildException
  00024	83 c4 04	 add	 esp, 4
  00027	5e		 pop	 esi
  00028	8b e5		 mov	 esp, ebp
  0002a	5d		 pop	 ebp
  0002b	c3		 ret	 0
$LN2@chrAttachE:

; 489  : 		return Py_BuildException();
; 490  : 
; 491  : 	char * pszBoneName;
; 492  : 	if (!PyTuple_GetString(poArgs, 1, &pszBoneName))

  0002c	8d 45 fc	 lea	 eax, DWORD PTR _pszBoneName$[ebp]
  0002f	50		 push	 eax
  00030	6a 01		 push	 1
  00032	56		 push	 esi
  00033	e8 00 00 00 00	 call	 ?PyTuple_GetString@@YA_NPAU_object@@HPAPAD@Z ; PyTuple_GetString
  00038	8b 4d fc	 mov	 ecx, DWORD PTR _pszBoneName$[ebp]
  0003b	33 d2		 xor	 edx, edx
  0003d	84 c0		 test	 al, al

; 493  : 	{
; 494  : 		pszBoneName = NULL;
; 495  : 		//return Py_BuildException();
; 496  : 	}
; 497  : 
; 498  : 	char * pszEffectName;
; 499  : 	if (!PyTuple_GetString(poArgs, 2, &pszEffectName))

  0003f	8d 45 f0	 lea	 eax, DWORD PTR _pszEffectName$[ebp]
  00042	50		 push	 eax
  00043	0f 44 ca	 cmove	 ecx, edx
  00046	6a 02		 push	 2
  00048	56		 push	 esi
  00049	89 4d fc	 mov	 DWORD PTR _pszBoneName$[ebp], ecx
  0004c	e8 00 00 00 00	 call	 ?PyTuple_GetString@@YA_NPAU_object@@HPAPAD@Z ; PyTuple_GetString
  00051	83 c4 18	 add	 esp, 24			; 00000018H
  00054	84 c0		 test	 al, al
  00056	74 c5		 je	 SHORT $LN9@chrAttachE

; 500  : 		return Py_BuildException();
; 501  : 
; 502  : 	int iLife = CActorInstance::EFFECT_LIFE_INFINITE;
; 503  : 
; 504  : 	if (PyTuple_Size(poArgs)==4)

  00058	56		 push	 esi
  00059	c7 45 f8 01 00
	00 00		 mov	 DWORD PTR _iLife$[ebp], 1
  00060	ff 15 00 00 00
	00		 call	 DWORD PTR __imp__PyTuple_Size
  00066	83 c4 04	 add	 esp, 4
  00069	83 f8 04	 cmp	 eax, 4
  0006c	75 13		 jne	 SHORT $LN6@chrAttachE

; 505  : 	{
; 506  : 		if (!PyTuple_GetInteger(poArgs, 3, &iLife))

  0006e	8d 45 f8	 lea	 eax, DWORD PTR _iLife$[ebp]
  00071	50		 push	 eax
  00072	6a 03		 push	 3
  00074	56		 push	 esi
  00075	e8 00 00 00 00	 call	 ?PyTuple_GetInteger@@YA_NPAU_object@@HPAH@Z ; PyTuple_GetInteger
  0007a	83 c4 0c	 add	 esp, 12			; 0000000cH
  0007d	84 c0		 test	 al, al
  0007f	74 9c		 je	 SHORT $LN9@chrAttachE
$LN6@chrAttachE:

; 507  : 			return Py_BuildException();
; 508  : 	}
; 509  : 
; 510  : 	CInstanceBase * pkInst = CPythonCharacterManager::Instance().GetSelectedInstancePtr();

  00081	8b 0d 00 00 00
	00		 mov	 ecx, DWORD PTR ?ms_singleton@?$CSingleton@VCPythonCharacterManager@@@@0PAVCPythonCharacterManager@@A ; CSingleton<CPythonCharacterManager>::ms_singleton
  00087	e8 00 00 00 00	 call	 ?GetSelectedInstancePtr@CPythonCharacterManager@@QAEPAVCInstanceBase@@XZ ; CPythonCharacterManager::GetSelectedInstancePtr

; 511  : 
; 512  : 	if (!pkInst)
; 513  : 		return Py_BuildNone();
; 514  : 
; 515  : 	//pkInst->AttachEffectByName(iParentPartIndex, pszBoneName, pszEffectName, iLife);
; 516  : 	return Py_BuildNone();
; 517  : }

  0008c	e8 00 00 00 00	 call	 ?Py_BuildNone@@YAPAU_object@@XZ ; Py_BuildNone
  00091	5e		 pop	 esi
  00092	8b e5		 mov	 esp, ebp
  00094	5d		 pop	 ebp
  00095	c3		 ret	 0
?chrAttachEffectByName@@YAPAU_object@@PAU1@0@Z ENDP	; chrAttachEffectByName
_TEXT	ENDS
; Function compile flags: /Ogtp
; File E:\Metin2_server\SolWayneSF v6\ClientVS22\source\UserInterface\PythonCharacterModule.cpp
;	COMDAT ?chrAttachEffectByID@@YAPAU_object@@PAU1@0@Z
_TEXT	SEGMENT
_iEffectID$ = -16					; size = 4
_iParentPartIndex$ = -12				; size = 4
_iLife$ = -8						; size = 4
_pszBoneName$ = -4					; size = 4
_poSelf$ = 8						; size = 4
_poArgs$ = 12						; size = 4
?chrAttachEffectByID@@YAPAU_object@@PAU1@0@Z PROC	; chrAttachEffectByID, COMDAT

; 520  : {

  00000	55		 push	 ebp
  00001	8b ec		 mov	 ebp, esp
  00003	83 ec 10	 sub	 esp, 16			; 00000010H

; 521  : 	int iParentPartIndex;
; 522  : 	if (!PyTuple_GetInteger(poArgs, 0, &iParentPartIndex))

  00006	8d 45 f4	 lea	 eax, DWORD PTR _iParentPartIndex$[ebp]
  00009	56		 push	 esi
  0000a	8b 75 0c	 mov	 esi, DWORD PTR _poArgs$[ebp]
  0000d	50		 push	 eax
  0000e	6a 00		 push	 0
  00010	56		 push	 esi
  00011	e8 00 00 00 00	 call	 ?PyTuple_GetInteger@@YA_NPAU_object@@HPAH@Z ; PyTuple_GetInteger
  00016	83 c4 0c	 add	 esp, 12			; 0000000cH
  00019	84 c0		 test	 al, al
  0001b	75 0f		 jne	 SHORT $LN2@chrAttachE
$LN9@chrAttachE:

; 546  : 	
; 547  : 	if (!pkInst)
; 548  : 		return Py_BuildNone();
; 549  : 	
; 550  : 	//pkInst->AttachEffectByID(iParentPartIndex, pszBoneName, iEffectID, iLife);
; 551  : 	return Py_BuildNone();
; 552  : }

  0001d	6a 00		 push	 0
  0001f	e8 00 00 00 00	 call	 ?Py_BuildException@@YAPAU_object@@PBDZZ ; Py_BuildException
  00024	83 c4 04	 add	 esp, 4
  00027	5e		 pop	 esi
  00028	8b e5		 mov	 esp, ebp
  0002a	5d		 pop	 ebp
  0002b	c3		 ret	 0
$LN2@chrAttachE:

; 523  : 		return Py_BuildException();
; 524  : 
; 525  : 	char * pszBoneName;
; 526  : 	if (!PyTuple_GetString(poArgs, 1, &pszBoneName))

  0002c	8d 45 fc	 lea	 eax, DWORD PTR _pszBoneName$[ebp]
  0002f	50		 push	 eax
  00030	6a 01		 push	 1
  00032	56		 push	 esi
  00033	e8 00 00 00 00	 call	 ?PyTuple_GetString@@YA_NPAU_object@@HPAPAD@Z ; PyTuple_GetString
  00038	8b 4d fc	 mov	 ecx, DWORD PTR _pszBoneName$[ebp]
  0003b	33 d2		 xor	 edx, edx
  0003d	84 c0		 test	 al, al

; 527  : 	{
; 528  : 		pszBoneName = NULL;
; 529  : 	}
; 530  : 	//	return Py_BuildException();
; 531  : 	
; 532  : 	// FIXME : bug or error on getting unsigned value
; 533  : 	int iEffectID;
; 534  : 	if (!PyTuple_GetInteger(poArgs, 2, &iEffectID))

  0003f	8d 45 f0	 lea	 eax, DWORD PTR _iEffectID$[ebp]
  00042	50		 push	 eax
  00043	0f 44 ca	 cmove	 ecx, edx
  00046	6a 02		 push	 2
  00048	56		 push	 esi
  00049	89 4d fc	 mov	 DWORD PTR _pszBoneName$[ebp], ecx
  0004c	e8 00 00 00 00	 call	 ?PyTuple_GetInteger@@YA_NPAU_object@@HPAH@Z ; PyTuple_GetInteger
  00051	83 c4 18	 add	 esp, 24			; 00000018H
  00054	84 c0		 test	 al, al
  00056	74 c5		 je	 SHORT $LN9@chrAttachE

; 535  : 		return Py_BuildException();
; 536  : 
; 537  : 	int iLife = CActorInstance::EFFECT_LIFE_INFINITE;
; 538  : 	
; 539  : 	if (PyTuple_Size(poArgs)==4)

  00058	56		 push	 esi
  00059	c7 45 f8 01 00
	00 00		 mov	 DWORD PTR _iLife$[ebp], 1
  00060	ff 15 00 00 00
	00		 call	 DWORD PTR __imp__PyTuple_Size
  00066	83 c4 04	 add	 esp, 4
  00069	83 f8 04	 cmp	 eax, 4
  0006c	75 13		 jne	 SHORT $LN6@chrAttachE

; 540  : 	{
; 541  : 		if (!PyTuple_GetInteger(poArgs, 3, &iLife))

  0006e	8d 45 f8	 lea	 eax, DWORD PTR _iLife$[ebp]
  00071	50		 push	 eax
  00072	6a 03		 push	 3
  00074	56		 push	 esi
  00075	e8 00 00 00 00	 call	 ?PyTuple_GetInteger@@YA_NPAU_object@@HPAH@Z ; PyTuple_GetInteger
  0007a	83 c4 0c	 add	 esp, 12			; 0000000cH
  0007d	84 c0		 test	 al, al
  0007f	74 9c		 je	 SHORT $LN9@chrAttachE
$LN6@chrAttachE:

; 542  : 			return Py_BuildException();
; 543  : 	}
; 544  : 	
; 545  : 	CInstanceBase * pkInst = CPythonCharacterManager::Instance().GetSelectedInstancePtr();

  00081	8b 0d 00 00 00
	00		 mov	 ecx, DWORD PTR ?ms_singleton@?$CSingleton@VCPythonCharacterManager@@@@0PAVCPythonCharacterManager@@A ; CSingleton<CPythonCharacterManager>::ms_singleton
  00087	e8 00 00 00 00	 call	 ?GetSelectedInstancePtr@CPythonCharacterManager@@QAEPAVCInstanceBase@@XZ ; CPythonCharacterManager::GetSelectedInstancePtr

; 546  : 	
; 547  : 	if (!pkInst)
; 548  : 		return Py_BuildNone();
; 549  : 	
; 550  : 	//pkInst->AttachEffectByID(iParentPartIndex, pszBoneName, iEffectID, iLife);
; 551  : 	return Py_BuildNone();
; 552  : }

  0008c	e8 00 00 00 00	 call	 ?Py_BuildNone@@YAPAU_object@@XZ ; Py_BuildNone
  00091	5e		 pop	 esi
  00092	8b e5		 mov	 esp, ebp
  00094	5d		 pop	 ebp
  00095	c3		 ret	 0
?chrAttachEffectByID@@YAPAU_object@@PAU1@0@Z ENDP	; chrAttachEffectByID
_TEXT	ENDS
; Function compile flags: /Ogtp
; File E:\Metin2_server\SolWayneSF v6\ClientVS22\source\UserInterface\PythonCharacterModule.cpp
;	COMDAT ?chrRefresh@@YAPAU_object@@PAU1@0@Z
_TEXT	SEGMENT
_poSelf$ = 8						; size = 4
_poArgs$ = 12						; size = 4
?chrRefresh@@YAPAU_object@@PAU1@0@Z PROC		; chrRefresh, COMDAT

; 556  : 	CInstanceBase * pkInst = CPythonCharacterManager::Instance().GetSelectedInstancePtr();

  00000	8b 0d 00 00 00
	00		 mov	 ecx, DWORD PTR ?ms_singleton@?$CSingleton@VCPythonCharacterManager@@@@0PAVCPythonCharacterManager@@A ; CSingleton<CPythonCharacterManager>::ms_singleton
  00006	e8 00 00 00 00	 call	 ?GetSelectedInstancePtr@CPythonCharacterManager@@QAEPAVCInstanceBase@@XZ ; CPythonCharacterManager::GetSelectedInstancePtr

; 557  : 
; 558  : 	if (!pkInst)
; 559  : 		return Py_BuildNone();
; 560  : 
; 561  : 	// Select  WAIT        .
; 562  : 	//pkInst->Refresh(CRaceMotionData::NAME_WAIT, true);
; 563  : 	return Py_BuildNone();
; 564  : }

  0000b	e9 00 00 00 00	 jmp	 ?Py_BuildNone@@YAPAU_object@@XZ ; Py_BuildNone
?chrRefresh@@YAPAU_object@@PAU1@0@Z ENDP		; chrRefresh
_TEXT	ENDS
; Function compile flags: /Ogtp
; File E:\Metin2_server\SolWayneSF v6\ClientVS22\source\UserInterface\PythonCharacterModule.cpp
;	COMDAT ?chrMountHorse@@YAPAU_object@@PAU1@0@Z
_TEXT	SEGMENT
_poSelf$ = 8						; size = 4
_poArgs$ = 12						; size = 4
?chrMountHorse@@YAPAU_object@@PAU1@0@Z PROC		; chrMountHorse, COMDAT

; 568  : 	CInstanceBase * pkInst = CPythonCharacterManager::Instance().GetSelectedInstancePtr();

  00000	8b 0d 00 00 00
	00		 mov	 ecx, DWORD PTR ?ms_singleton@?$CSingleton@VCPythonCharacterManager@@@@0PAVCPythonCharacterManager@@A ; CSingleton<CPythonCharacterManager>::ms_singleton
  00006	e8 00 00 00 00	 call	 ?GetSelectedInstancePtr@CPythonCharacterManager@@QAEPAVCInstanceBase@@XZ ; CPythonCharacterManager::GetSelectedInstancePtr

; 569  : 	if (!pkInst)

  0000b	85 c0		 test	 eax, eax
  0000d	0f 84 00 00 00
	00		 je	 ?Py_BuildNone@@YAPAU_object@@XZ ; Py_BuildNone

; 570  : 		return Py_BuildNone();
; 571  :  	pkInst->MountHorse(20030);

  00013	68 3e 4e 00 00	 push	 20030			; 00004e3eH
  00018	8b c8		 mov	 ecx, eax
  0001a	e8 00 00 00 00	 call	 ?MountHorse@CInstanceBase@@QAEXI@Z ; CInstanceBase::MountHorse

; 572  : 	return Py_BuildNone();

  0001f	e9 00 00 00 00	 jmp	 ?Py_BuildNone@@YAPAU_object@@XZ ; Py_BuildNone
?chrMountHorse@@YAPAU_object@@PAU1@0@Z ENDP		; chrMountHorse
_TEXT	ENDS
; Function compile flags: /Ogtp
; File E:\Metin2_server\SolWayneSF v6\ClientVS22\source\UserInterface\PythonCharacterModule.cpp
;	COMDAT ?chrDismountHorse@@YAPAU_object@@PAU1@0@Z
_TEXT	SEGMENT
_poSelf$ = 8						; size = 4
_poArgs$ = 12						; size = 4
?chrDismountHorse@@YAPAU_object@@PAU1@0@Z PROC		; chrDismountHorse, COMDAT

; 577  : 	CInstanceBase * pkInst = CPythonCharacterManager::Instance().GetSelectedInstancePtr();

  00000	8b 0d 00 00 00
	00		 mov	 ecx, DWORD PTR ?ms_singleton@?$CSingleton@VCPythonCharacterManager@@@@0PAVCPythonCharacterManager@@A ; CSingleton<CPythonCharacterManager>::ms_singleton
  00006	e8 00 00 00 00	 call	 ?GetSelectedInstancePtr@CPythonCharacterManager@@QAEPAVCInstanceBase@@XZ ; CPythonCharacterManager::GetSelectedInstancePtr

; 578  : 	if (!pkInst)

  0000b	85 c0		 test	 eax, eax
  0000d	0f 84 00 00 00
	00		 je	 ?Py_BuildNone@@YAPAU_object@@XZ ; Py_BuildNone

; 579  : 		return Py_BuildNone();
; 580  :  	pkInst->DismountHorse();

  00013	8b c8		 mov	 ecx, eax
  00015	e8 00 00 00 00	 call	 ?DismountHorse@CInstanceBase@@QAEXXZ ; CInstanceBase::DismountHorse

; 581  : 	return Py_BuildNone();

  0001a	e9 00 00 00 00	 jmp	 ?Py_BuildNone@@YAPAU_object@@XZ ; Py_BuildNone
?chrDismountHorse@@YAPAU_object@@PAU1@0@Z ENDP		; chrDismountHorse
_TEXT	ENDS
; Function compile flags: /Ogtp
; File E:\Metin2_server\SolWayneSF v6\ClientVS22\source\UserInterface\PythonCharacterModule.cpp
;	COMDAT ?chrRevive@@YAPAU_object@@PAU1@0@Z
_TEXT	SEGMENT
_poSelf$ = 8						; size = 4
_poArgs$ = 12						; size = 4
?chrRevive@@YAPAU_object@@PAU1@0@Z PROC			; chrRevive, COMDAT

; 586  : 	CInstanceBase * pkInst = CPythonCharacterManager::Instance().GetSelectedInstancePtr();

  00000	8b 0d 00 00 00
	00		 mov	 ecx, DWORD PTR ?ms_singleton@?$CSingleton@VCPythonCharacterManager@@@@0PAVCPythonCharacterManager@@A ; CSingleton<CPythonCharacterManager>::ms_singleton
  00006	e8 00 00 00 00	 call	 ?GetSelectedInstancePtr@CPythonCharacterManager@@QAEPAVCInstanceBase@@XZ ; CPythonCharacterManager::GetSelectedInstancePtr

; 587  : 	if (!pkInst)

  0000b	85 c0		 test	 eax, eax
  0000d	0f 84 00 00 00
	00		 je	 ?Py_BuildNone@@YAPAU_object@@XZ ; Py_BuildNone

; 588  : 		return Py_BuildNone();
; 589  :  	pkInst->Revive();

  00013	8b c8		 mov	 ecx, eax
  00015	e8 00 00 00 00	 call	 ?Revive@CInstanceBase@@QAEXXZ ; CInstanceBase::Revive

; 590  : 	return Py_BuildNone();

  0001a	e9 00 00 00 00	 jmp	 ?Py_BuildNone@@YAPAU_object@@XZ ; Py_BuildNone
?chrRevive@@YAPAU_object@@PAU1@0@Z ENDP			; chrRevive
_TEXT	ENDS
; Function compile flags: /Ogtp
; File E:\Metin2_server\SolWayneSF v6\ClientVS22\source\UserInterface\PythonCharacterModule.cpp
;	COMDAT ?chrDie@@YAPAU_object@@PAU1@0@Z
_TEXT	SEGMENT
_poSelf$ = 8						; size = 4
_poArgs$ = 12						; size = 4
?chrDie@@YAPAU_object@@PAU1@0@Z PROC			; chrDie, COMDAT

; 595  : 	CInstanceBase * pkInst = CPythonCharacterManager::Instance().GetSelectedInstancePtr();

  00000	8b 0d 00 00 00
	00		 mov	 ecx, DWORD PTR ?ms_singleton@?$CSingleton@VCPythonCharacterManager@@@@0PAVCPythonCharacterManager@@A ; CSingleton<CPythonCharacterManager>::ms_singleton
  00006	e8 00 00 00 00	 call	 ?GetSelectedInstancePtr@CPythonCharacterManager@@QAEPAVCInstanceBase@@XZ ; CPythonCharacterManager::GetSelectedInstancePtr

; 596  : 	if (!pkInst)

  0000b	85 c0		 test	 eax, eax
  0000d	0f 84 00 00 00
	00		 je	 ?Py_BuildNone@@YAPAU_object@@XZ ; Py_BuildNone

; 597  : 		return Py_BuildNone();
; 598  :  	pkInst->Die();

  00013	8b c8		 mov	 ecx, eax
  00015	e8 00 00 00 00	 call	 ?Die@CInstanceBase@@QAEXXZ ; CInstanceBase::Die

; 599  : 	return Py_BuildNone();

  0001a	e9 00 00 00 00	 jmp	 ?Py_BuildNone@@YAPAU_object@@XZ ; Py_BuildNone
?chrDie@@YAPAU_object@@PAU1@0@Z ENDP			; chrDie
_TEXT	ENDS
; Function compile flags: /Ogtp
; File E:\Metin2_server\SolWayneSF v6\ClientVS22\source\UserInterface\PythonCharacterModule.cpp
;	COMDAT ?chrLookAt@@YAPAU_object@@PAU1@0@Z
_TEXT	SEGMENT
_iCellY$ = -8						; size = 4
_iCellX$ = -4						; size = 4
_poSelf$ = 8						; size = 4
_poArgs$ = 12						; size = 4
?chrLookAt@@YAPAU_object@@PAU1@0@Z PROC			; chrLookAt, COMDAT

; 603  : {

  00000	55		 push	 ebp
  00001	8b ec		 mov	 ebp, esp
  00003	83 ec 08	 sub	 esp, 8

; 604  : 	int iCellX;
; 605  : 	if (!PyTuple_GetInteger(poArgs, 0, &iCellX))

  00006	8d 45 fc	 lea	 eax, DWORD PTR _iCellX$[ebp]
  00009	50		 push	 eax
  0000a	6a 00		 push	 0
  0000c	ff 75 0c	 push	 DWORD PTR _poArgs$[ebp]
  0000f	e8 00 00 00 00	 call	 ?PyTuple_GetInteger@@YA_NPAU_object@@HPAH@Z ; PyTuple_GetInteger
  00014	83 c4 0c	 add	 esp, 12			; 0000000cH
  00017	84 c0		 test	 al, al
  00019	75 0e		 jne	 SHORT $LN2@chrLookAt
$LN6@chrLookAt:

; 613  : 	if (!pkInst)
; 614  : 		return Py_BuildNone();
; 615  : // 	pkInst->LookAt(TPixelPosition(iCellX * c_Section_xAttributeCellSize, iCellY * c_Section_xAttributeCellSize));
; 616  : 	return Py_BuildNone();
; 617  : }

  0001b	6a 00		 push	 0
  0001d	e8 00 00 00 00	 call	 ?Py_BuildException@@YAPAU_object@@PBDZZ ; Py_BuildException
  00022	83 c4 04	 add	 esp, 4
  00025	8b e5		 mov	 esp, ebp
  00027	5d		 pop	 ebp
  00028	c3		 ret	 0
$LN2@chrLookAt:

; 606  : 		return Py_BuildException();
; 607  : 
; 608  : 	int iCellY;
; 609  : 	if (!PyTuple_GetInteger(poArgs, 1, &iCellY))

  00029	8d 45 f8	 lea	 eax, DWORD PTR _iCellY$[ebp]
  0002c	50		 push	 eax
  0002d	6a 01		 push	 1
  0002f	ff 75 0c	 push	 DWORD PTR _poArgs$[ebp]
  00032	e8 00 00 00 00	 call	 ?PyTuple_GetInteger@@YA_NPAU_object@@HPAH@Z ; PyTuple_GetInteger
  00037	83 c4 0c	 add	 esp, 12			; 0000000cH
  0003a	84 c0		 test	 al, al
  0003c	74 dd		 je	 SHORT $LN6@chrLookAt

; 610  : 		return Py_BuildException();
; 611  : 
; 612  : 	CInstanceBase * pkInst = CPythonCharacterManager::Instance().GetSelectedInstancePtr();

  0003e	8b 0d 00 00 00
	00		 mov	 ecx, DWORD PTR ?ms_singleton@?$CSingleton@VCPythonCharacterManager@@@@0PAVCPythonCharacterManager@@A ; CSingleton<CPythonCharacterManager>::ms_singleton
  00044	e8 00 00 00 00	 call	 ?GetSelectedInstancePtr@CPythonCharacterManager@@QAEPAVCInstanceBase@@XZ ; CPythonCharacterManager::GetSelectedInstancePtr

; 613  : 	if (!pkInst)
; 614  : 		return Py_BuildNone();
; 615  : // 	pkInst->LookAt(TPixelPosition(iCellX * c_Section_xAttributeCellSize, iCellY * c_Section_xAttributeCellSize));
; 616  : 	return Py_BuildNone();
; 617  : }

  00049	e8 00 00 00 00	 call	 ?Py_BuildNone@@YAPAU_object@@XZ ; Py_BuildNone
  0004e	8b e5		 mov	 esp, ebp
  00050	5d		 pop	 ebp
  00051	c3		 ret	 0
?chrLookAt@@YAPAU_object@@PAU1@0@Z ENDP			; chrLookAt
_TEXT	ENDS
; Function compile flags: /Ogtp
; File E:\Metin2_server\SolWayneSF v6\ClientVS22\source\UserInterface\PythonCharacterModule.cpp
;	COMDAT ?chrSetMotionMode@@YAPAU_object@@PAU1@0@Z
_TEXT	SEGMENT
_iMotionMode$ = -4					; size = 4
_poSelf$ = 8						; size = 4
_poArgs$ = 12						; size = 4
?chrSetMotionMode@@YAPAU_object@@PAU1@0@Z PROC		; chrSetMotionMode, COMDAT

; 620  : {

  00000	55		 push	 ebp
  00001	8b ec		 mov	 ebp, esp
  00003	51		 push	 ecx

; 621  : 	int iMotionMode;
; 622  : 	if (!PyTuple_GetInteger(poArgs, 0, &iMotionMode))

  00004	8d 45 fc	 lea	 eax, DWORD PTR _iMotionMode$[ebp]
  00007	50		 push	 eax
  00008	6a 00		 push	 0
  0000a	ff 75 0c	 push	 DWORD PTR _poArgs$[ebp]
  0000d	e8 00 00 00 00	 call	 ?PyTuple_GetInteger@@YA_NPAU_object@@HPAH@Z ; PyTuple_GetInteger
  00012	83 c4 0c	 add	 esp, 12			; 0000000cH
  00015	84 c0		 test	 al, al
  00017	75 0e		 jne	 SHORT $LN2@chrSetMoti

; 623  : 		return Py_BuildException();

  00019	6a 00		 push	 0
  0001b	e8 00 00 00 00	 call	 ?Py_BuildException@@YAPAU_object@@PBDZZ ; Py_BuildException
  00020	83 c4 04	 add	 esp, 4

; 630  : 	return Py_BuildNone();
; 631  : }

  00023	8b e5		 mov	 esp, ebp
  00025	5d		 pop	 ebp
  00026	c3		 ret	 0
$LN2@chrSetMoti:

; 624  : 
; 625  : 	CInstanceBase * pkInst = CPythonCharacterManager::Instance().GetSelectedInstancePtr();

  00027	8b 0d 00 00 00
	00		 mov	 ecx, DWORD PTR ?ms_singleton@?$CSingleton@VCPythonCharacterManager@@@@0PAVCPythonCharacterManager@@A ; CSingleton<CPythonCharacterManager>::ms_singleton
  0002d	e8 00 00 00 00	 call	 ?GetSelectedInstancePtr@CPythonCharacterManager@@QAEPAVCInstanceBase@@XZ ; CPythonCharacterManager::GetSelectedInstancePtr

; 626  : 	if (!pkInst)

  00032	85 c0		 test	 eax, eax
  00034	74 0a		 je	 SHORT $LN5@chrSetMoti

; 627  : 		return Py_BuildNone();
; 628  : 
; 629  : 	pkInst->SetMotionMode(iMotionMode);

  00036	ff 75 fc	 push	 DWORD PTR _iMotionMode$[ebp]
  00039	8b c8		 mov	 ecx, eax
  0003b	e8 00 00 00 00	 call	 ?SetMotionMode@CInstanceBase@@QAEXH@Z ; CInstanceBase::SetMotionMode
$LN5@chrSetMoti:

; 630  : 	return Py_BuildNone();
; 631  : }

  00040	e8 00 00 00 00	 call	 ?Py_BuildNone@@YAPAU_object@@XZ ; Py_BuildNone
  00045	8b e5		 mov	 esp, ebp
  00047	5d		 pop	 ebp
  00048	c3		 ret	 0
?chrSetMotionMode@@YAPAU_object@@PAU1@0@Z ENDP		; chrSetMotionMode
_TEXT	ENDS
; Function compile flags: /Ogtp
; File E:\Metin2_server\SolWayneSF v6\ClientVS22\source\UserInterface\PythonCharacterModule.cpp
;	COMDAT ?chrSetLoopMotion@@YAPAU_object@@PAU1@0@Z
_TEXT	SEGMENT
_iMotionIndex$ = -4					; size = 4
_poSelf$ = 8						; size = 4
_poArgs$ = 12						; size = 4
?chrSetLoopMotion@@YAPAU_object@@PAU1@0@Z PROC		; chrSetLoopMotion, COMDAT

; 634  : {

  00000	55		 push	 ebp
  00001	8b ec		 mov	 ebp, esp
  00003	51		 push	 ecx

; 635  : 	int iMotionIndex;
; 636  : 	if (!PyTuple_GetInteger(poArgs, 0, &iMotionIndex))

  00004	8d 45 fc	 lea	 eax, DWORD PTR _iMotionIndex$[ebp]
  00007	50		 push	 eax
  00008	6a 00		 push	 0
  0000a	ff 75 0c	 push	 DWORD PTR _poArgs$[ebp]
  0000d	e8 00 00 00 00	 call	 ?PyTuple_GetInteger@@YA_NPAU_object@@HPAH@Z ; PyTuple_GetInteger
  00012	83 c4 0c	 add	 esp, 12			; 0000000cH
  00015	84 c0		 test	 al, al
  00017	75 0e		 jne	 SHORT $LN2@chrSetLoop

; 637  : 		return Py_BuildException();

  00019	6a 00		 push	 0
  0001b	e8 00 00 00 00	 call	 ?Py_BuildException@@YAPAU_object@@PBDZZ ; Py_BuildException
  00020	83 c4 04	 add	 esp, 4

; 643  : 
; 644  : 	return Py_BuildNone();
; 645  : }

  00023	8b e5		 mov	 esp, ebp
  00025	5d		 pop	 ebp
  00026	c3		 ret	 0
$LN2@chrSetLoop:

; 638  : 
; 639  : 	CInstanceBase * pkInst = CPythonCharacterManager::Instance().GetSelectedInstancePtr();

  00027	8b 0d 00 00 00
	00		 mov	 ecx, DWORD PTR ?ms_singleton@?$CSingleton@VCPythonCharacterManager@@@@0PAVCPythonCharacterManager@@A ; CSingleton<CPythonCharacterManager>::ms_singleton
  0002d	e8 00 00 00 00	 call	 ?GetSelectedInstancePtr@CPythonCharacterManager@@QAEPAVCInstanceBase@@XZ ; CPythonCharacterManager::GetSelectedInstancePtr

; 640  : 	if (!pkInst)

  00032	85 c0		 test	 eax, eax
  00034	74 1a		 je	 SHORT $LN5@chrSetLoop

; 641  : 		return Py_BuildNone();
; 642  : 	pkInst->SetLoopMotion(WORD(iMotionIndex));

  00036	ff 75 fc	 push	 DWORD PTR _iMotionIndex$[ebp]
  00039	f3 0f 10 1d 00
	00 00 00	 movss	 xmm3, DWORD PTR __real@3f800000
  00041	8b c8		 mov	 ecx, eax
  00043	f3 0f 10 15 00
	00 00 00	 movss	 xmm2, DWORD PTR __real@3dcccccd
  0004b	e8 00 00 00 00	 call	 ?SetLoopMotion@CInstanceBase@@QAEXGMM@Z ; CInstanceBase::SetLoopMotion
$LN5@chrSetLoop:

; 643  : 
; 644  : 	return Py_BuildNone();
; 645  : }

  00050	e8 00 00 00 00	 call	 ?Py_BuildNone@@YAPAU_object@@XZ ; Py_BuildNone
  00055	8b e5		 mov	 esp, ebp
  00057	5d		 pop	 ebp
  00058	c3		 ret	 0
?chrSetLoopMotion@@YAPAU_object@@PAU1@0@Z ENDP		; chrSetLoopMotion
_TEXT	ENDS
; Function compile flags: /Ogtp
; File E:\Metin2_server\SolWayneSF v6\ClientVS22\source\UserInterface\PythonCharacterModule.cpp
;	COMDAT ?chrBlendLoopMotion@@YAPAU_object@@PAU1@0@Z
_TEXT	SEGMENT
_fBlendTime$ = -8					; size = 4
_iMotionIndex$ = -4					; size = 4
_poSelf$ = 8						; size = 4
_poArgs$ = 12						; size = 4
?chrBlendLoopMotion@@YAPAU_object@@PAU1@0@Z PROC	; chrBlendLoopMotion, COMDAT

; 648  : {

  00000	55		 push	 ebp
  00001	8b ec		 mov	 ebp, esp
  00003	83 ec 08	 sub	 esp, 8

; 649  : 	int iMotionIndex;
; 650  : 	if (!PyTuple_GetInteger(poArgs, 0, &iMotionIndex))

  00006	8d 45 fc	 lea	 eax, DWORD PTR _iMotionIndex$[ebp]
  00009	50		 push	 eax
  0000a	6a 00		 push	 0
  0000c	ff 75 0c	 push	 DWORD PTR _poArgs$[ebp]
  0000f	e8 00 00 00 00	 call	 ?PyTuple_GetInteger@@YA_NPAU_object@@HPAH@Z ; PyTuple_GetInteger
  00014	83 c4 0c	 add	 esp, 12			; 0000000cH
  00017	84 c0		 test	 al, al
  00019	75 0e		 jne	 SHORT $LN2@chrBlendLo
$LN7@chrBlendLo:

; 660  : 
; 661  : 	return Py_BuildNone();
; 662  : }

  0001b	6a 00		 push	 0
  0001d	e8 00 00 00 00	 call	 ?Py_BuildException@@YAPAU_object@@PBDZZ ; Py_BuildException
  00022	83 c4 04	 add	 esp, 4
  00025	8b e5		 mov	 esp, ebp
  00027	5d		 pop	 ebp
  00028	c3		 ret	 0
$LN2@chrBlendLo:

; 651  : 		return Py_BuildException();
; 652  : 	float fBlendTime;
; 653  : 	if (!PyTuple_GetFloat(poArgs, 1, &fBlendTime))

  00029	8d 45 f8	 lea	 eax, DWORD PTR _fBlendTime$[ebp]
  0002c	50		 push	 eax
  0002d	6a 01		 push	 1
  0002f	ff 75 0c	 push	 DWORD PTR _poArgs$[ebp]
  00032	e8 00 00 00 00	 call	 ?PyTuple_GetFloat@@YA_NPAU_object@@HPAM@Z ; PyTuple_GetFloat
  00037	83 c4 0c	 add	 esp, 12			; 0000000cH
  0003a	84 c0		 test	 al, al
  0003c	74 dd		 je	 SHORT $LN7@chrBlendLo

; 654  : 		return Py_BuildException();
; 655  : 
; 656  : 	CInstanceBase * pkInst = CPythonCharacterManager::Instance().GetSelectedInstancePtr();

  0003e	8b 0d 00 00 00
	00		 mov	 ecx, DWORD PTR ?ms_singleton@?$CSingleton@VCPythonCharacterManager@@@@0PAVCPythonCharacterManager@@A ; CSingleton<CPythonCharacterManager>::ms_singleton
  00044	e8 00 00 00 00	 call	 ?GetSelectedInstancePtr@CPythonCharacterManager@@QAEPAVCInstanceBase@@XZ ; CPythonCharacterManager::GetSelectedInstancePtr

; 657  : 	if (!pkInst)

  00049	85 c0		 test	 eax, eax
  0004b	74 17		 je	 SHORT $LN6@chrBlendLo

; 658  : 		return Py_BuildNone();
; 659  : 	pkInst->SetLoopMotion(WORD(iMotionIndex), fBlendTime);

  0004d	ff 75 fc	 push	 DWORD PTR _iMotionIndex$[ebp]
  00050	f3 0f 10 1d 00
	00 00 00	 movss	 xmm3, DWORD PTR __real@3f800000
  00058	8b c8		 mov	 ecx, eax
  0005a	f3 0f 10 55 f8	 movss	 xmm2, DWORD PTR _fBlendTime$[ebp]
  0005f	e8 00 00 00 00	 call	 ?SetLoopMotion@CInstanceBase@@QAEXGMM@Z ; CInstanceBase::SetLoopMotion
$LN6@chrBlendLo:

; 660  : 
; 661  : 	return Py_BuildNone();
; 662  : }

  00064	e8 00 00 00 00	 call	 ?Py_BuildNone@@YAPAU_object@@XZ ; Py_BuildNone
  00069	8b e5		 mov	 esp, ebp
  0006b	5d		 pop	 ebp
  0006c	c3		 ret	 0
?chrBlendLoopMotion@@YAPAU_object@@PAU1@0@Z ENDP	; chrBlendLoopMotion
_TEXT	ENDS
; Function compile flags: /Ogtp
; File E:\Metin2_server\SolWayneSF v6\ClientVS22\source\UserInterface\PythonCharacterModule.cpp
;	COMDAT ?chrPushOnceMotion@@YAPAU_object@@PAU1@0@Z
_TEXT	SEGMENT
_iMotionIndex$ = -8					; size = 4
_fBlendTime$ = -4					; size = 4
_poSelf$ = 8						; size = 4
_poArgs$ = 12						; size = 4
?chrPushOnceMotion@@YAPAU_object@@PAU1@0@Z PROC		; chrPushOnceMotion, COMDAT

; 665  : {

  00000	55		 push	 ebp
  00001	8b ec		 mov	 ebp, esp
  00003	83 ec 08	 sub	 esp, 8

; 666  : 	int iMotionIndex;
; 667  : 	if (!PyTuple_GetInteger(poArgs, 0, &iMotionIndex))

  00006	8d 45 f8	 lea	 eax, DWORD PTR _iMotionIndex$[ebp]
  00009	50		 push	 eax
  0000a	6a 00		 push	 0
  0000c	ff 75 0c	 push	 DWORD PTR _poArgs$[ebp]
  0000f	e8 00 00 00 00	 call	 ?PyTuple_GetInteger@@YA_NPAU_object@@HPAH@Z ; PyTuple_GetInteger
  00014	83 c4 0c	 add	 esp, 12			; 0000000cH
  00017	84 c0		 test	 al, al
  00019	75 0e		 jne	 SHORT $LN2@chrPushOnc

; 668  : 		return Py_BuildException();

  0001b	6a 00		 push	 0
  0001d	e8 00 00 00 00	 call	 ?Py_BuildException@@YAPAU_object@@PBDZZ ; Py_BuildException
  00022	83 c4 04	 add	 esp, 4

; 680  : 
; 681  : 	return Py_BuildNone();
; 682  : }

  00025	8b e5		 mov	 esp, ebp
  00027	5d		 pop	 ebp
  00028	c3		 ret	 0
$LN2@chrPushOnc:

; 669  : 
; 670  : 	float fBlendTime;
; 671  : 	if (!PyTuple_GetFloat(poArgs, 1, &fBlendTime))

  00029	8d 45 fc	 lea	 eax, DWORD PTR _fBlendTime$[ebp]
  0002c	50		 push	 eax
  0002d	6a 01		 push	 1
  0002f	ff 75 0c	 push	 DWORD PTR _poArgs$[ebp]
  00032	e8 00 00 00 00	 call	 ?PyTuple_GetFloat@@YA_NPAU_object@@HPAM@Z ; PyTuple_GetFloat
  00037	83 c4 0c	 add	 esp, 12			; 0000000cH
  0003a	84 c0		 test	 al, al
  0003c	75 0f		 jne	 SHORT $LN6@chrPushOnc

; 672  : 	{
; 673  : 		fBlendTime = 0.1f;

  0003e	f3 0f 10 15 00
	00 00 00	 movss	 xmm2, DWORD PTR __real@3dcccccd
  00046	f3 0f 11 55 fc	 movss	 DWORD PTR _fBlendTime$[ebp], xmm2
  0004b	eb 05		 jmp	 SHORT $LN3@chrPushOnc
$LN6@chrPushOnc:

; 669  : 
; 670  : 	float fBlendTime;
; 671  : 	if (!PyTuple_GetFloat(poArgs, 1, &fBlendTime))

  0004d	f3 0f 10 55 fc	 movss	 xmm2, DWORD PTR _fBlendTime$[ebp]
$LN3@chrPushOnc:

; 674  : 	}
; 675  : 
; 676  : 	CInstanceBase * pkInst = CPythonCharacterManager::Instance().GetSelectedInstancePtr();

  00052	8b 0d 00 00 00
	00		 mov	 ecx, DWORD PTR ?ms_singleton@?$CSingleton@VCPythonCharacterManager@@@@0PAVCPythonCharacterManager@@A ; CSingleton<CPythonCharacterManager>::ms_singleton
  00058	e8 00 00 00 00	 call	 ?GetSelectedInstancePtr@CPythonCharacterManager@@QAEPAVCInstanceBase@@XZ ; CPythonCharacterManager::GetSelectedInstancePtr

; 677  : 	if (!pkInst)

  0005d	85 c0		 test	 eax, eax
  0005f	74 12		 je	 SHORT $LN7@chrPushOnc

; 678  : 		return Py_BuildNone();
; 679  : 	pkInst->PushOnceMotion(WORD(iMotionIndex), fBlendTime);

  00061	ff 75 f8	 push	 DWORD PTR _iMotionIndex$[ebp]
  00064	f3 0f 10 1d 00
	00 00 00	 movss	 xmm3, DWORD PTR __real@3f800000
  0006c	8b c8		 mov	 ecx, eax
  0006e	e8 00 00 00 00	 call	 ?PushOnceMotion@CInstanceBase@@QAEXGMM@Z ; CInstanceBase::PushOnceMotion
$LN7@chrPushOnc:

; 680  : 
; 681  : 	return Py_BuildNone();
; 682  : }

  00073	e8 00 00 00 00	 call	 ?Py_BuildNone@@YAPAU_object@@XZ ; Py_BuildNone
  00078	8b e5		 mov	 esp, ebp
  0007a	5d		 pop	 ebp
  0007b	c3		 ret	 0
?chrPushOnceMotion@@YAPAU_object@@PAU1@0@Z ENDP		; chrPushOnceMotion
_TEXT	ENDS
; Function compile flags: /Ogtp
; File E:\Metin2_server\SolWayneSF v6\ClientVS22\source\UserInterface\PythonCharacterModule.cpp
;	COMDAT ?chrPushLoopMotion@@YAPAU_object@@PAU1@0@Z
_TEXT	SEGMENT
_iMotionIndex$ = -8					; size = 4
_fBlendTime$ = -4					; size = 4
_poSelf$ = 8						; size = 4
_poArgs$ = 12						; size = 4
?chrPushLoopMotion@@YAPAU_object@@PAU1@0@Z PROC		; chrPushLoopMotion, COMDAT

; 685  : {

  00000	55		 push	 ebp
  00001	8b ec		 mov	 ebp, esp
  00003	83 ec 08	 sub	 esp, 8

; 686  : 	int iMotionIndex;
; 687  : 	if (!PyTuple_GetInteger(poArgs, 0, &iMotionIndex))

  00006	8d 45 f8	 lea	 eax, DWORD PTR _iMotionIndex$[ebp]
  00009	50		 push	 eax
  0000a	6a 00		 push	 0
  0000c	ff 75 0c	 push	 DWORD PTR _poArgs$[ebp]
  0000f	e8 00 00 00 00	 call	 ?PyTuple_GetInteger@@YA_NPAU_object@@HPAH@Z ; PyTuple_GetInteger
  00014	83 c4 0c	 add	 esp, 12			; 0000000cH
  00017	84 c0		 test	 al, al
  00019	75 0e		 jne	 SHORT $LN2@chrPushLoo

; 688  : 		return Py_BuildException();

  0001b	6a 00		 push	 0
  0001d	e8 00 00 00 00	 call	 ?Py_BuildException@@YAPAU_object@@PBDZZ ; Py_BuildException
  00022	83 c4 04	 add	 esp, 4

; 700  : 
; 701  : 	return Py_BuildNone();
; 702  : }

  00025	8b e5		 mov	 esp, ebp
  00027	5d		 pop	 ebp
  00028	c3		 ret	 0
$LN2@chrPushLoo:

; 689  : 
; 690  : 	float fBlendTime;
; 691  : 	if (!PyTuple_GetFloat(poArgs, 1, &fBlendTime))

  00029	8d 45 fc	 lea	 eax, DWORD PTR _fBlendTime$[ebp]
  0002c	50		 push	 eax
  0002d	6a 01		 push	 1
  0002f	ff 75 0c	 push	 DWORD PTR _poArgs$[ebp]
  00032	e8 00 00 00 00	 call	 ?PyTuple_GetFloat@@YA_NPAU_object@@HPAM@Z ; PyTuple_GetFloat
  00037	83 c4 0c	 add	 esp, 12			; 0000000cH
  0003a	84 c0		 test	 al, al
  0003c	75 0f		 jne	 SHORT $LN6@chrPushLoo

; 692  : 	{
; 693  : 		fBlendTime = 0.1f;

  0003e	f3 0f 10 15 00
	00 00 00	 movss	 xmm2, DWORD PTR __real@3dcccccd
  00046	f3 0f 11 55 fc	 movss	 DWORD PTR _fBlendTime$[ebp], xmm2
  0004b	eb 05		 jmp	 SHORT $LN3@chrPushLoo
$LN6@chrPushLoo:

; 689  : 
; 690  : 	float fBlendTime;
; 691  : 	if (!PyTuple_GetFloat(poArgs, 1, &fBlendTime))

  0004d	f3 0f 10 55 fc	 movss	 xmm2, DWORD PTR _fBlendTime$[ebp]
$LN3@chrPushLoo:

; 694  : 	}
; 695  : 
; 696  : 	CInstanceBase * pkInst = CPythonCharacterManager::Instance().GetSelectedInstancePtr();

  00052	8b 0d 00 00 00
	00		 mov	 ecx, DWORD PTR ?ms_singleton@?$CSingleton@VCPythonCharacterManager@@@@0PAVCPythonCharacterManager@@A ; CSingleton<CPythonCharacterManager>::ms_singleton
  00058	e8 00 00 00 00	 call	 ?GetSelectedInstancePtr@CPythonCharacterManager@@QAEPAVCInstanceBase@@XZ ; CPythonCharacterManager::GetSelectedInstancePtr

; 697  : 	if (!pkInst)

  0005d	85 c0		 test	 eax, eax
  0005f	74 12		 je	 SHORT $LN7@chrPushLoo

; 698  : 		return Py_BuildNone();
; 699  : 	pkInst->PushLoopMotion(WORD(iMotionIndex), fBlendTime);

  00061	ff 75 f8	 push	 DWORD PTR _iMotionIndex$[ebp]
  00064	f3 0f 10 1d 00
	00 00 00	 movss	 xmm3, DWORD PTR __real@3f800000
  0006c	8b c8		 mov	 ecx, eax
  0006e	e8 00 00 00 00	 call	 ?PushLoopMotion@CInstanceBase@@QAEXGMM@Z ; CInstanceBase::PushLoopMotion
$LN7@chrPushLoo:

; 700  : 
; 701  : 	return Py_BuildNone();
; 702  : }

  00073	e8 00 00 00 00	 call	 ?Py_BuildNone@@YAPAU_object@@XZ ; Py_BuildNone
  00078	8b e5		 mov	 esp, ebp
  0007a	5d		 pop	 ebp
  0007b	c3		 ret	 0
?chrPushLoopMotion@@YAPAU_object@@PAU1@0@Z ENDP		; chrPushLoopMotion
_TEXT	ENDS
; Function compile flags: /Ogtp
; File E:\Metin2_server\SolWayneSF v6\ClientVS22\source\UserInterface\PythonCharacterModule.cpp
; File E:\Metin2_server\SolWayneSF v6\ClientVS22\extern\include\d3dx8math.inl
; File E:\Metin2_server\SolWayneSF v6\ClientVS22\source\UserInterface\PythonCharacterModule.cpp
; File E:\Metin2_server\SolWayneSF v6\ClientVS22\extern\include\d3dx8math.inl
; File E:\Metin2_server\SolWayneSF v6\ClientVS22\source\UserInterface\PythonCharacterModule.cpp
; File E:\Metin2_server\SolWayneSF v6\ClientVS22\extern\include\d3dx8math.inl
; File E:\Metin2_server\SolWayneSF v6\ClientVS22\source\UserInterface\PythonCharacterModule.cpp
;	COMDAT ?chrSetPixelPosition@@YAPAU_object@@PAU1@0@Z
_TEXT	SEGMENT
_iZ$ = -28						; size = 4
_iX$ = -24						; size = 4
_iY$ = -20						; size = 4
$T1 = -16						; size = 12
__$ArrayPad$ = -4					; size = 4
_poSelf$ = 8						; size = 4
_poArgs$ = 12						; size = 4
?chrSetPixelPosition@@YAPAU_object@@PAU1@0@Z PROC	; chrSetPixelPosition, COMDAT

; 705  : {

  00000	55		 push	 ebp
  00001	8b ec		 mov	 ebp, esp
  00003	83 ec 1c	 sub	 esp, 28			; 0000001cH
  00006	a1 00 00 00 00	 mov	 eax, DWORD PTR ___security_cookie
  0000b	33 c5		 xor	 eax, ebp
  0000d	89 45 fc	 mov	 DWORD PTR __$ArrayPad$[ebp], eax
  00010	56		 push	 esi
  00011	8b 75 0c	 mov	 esi, DWORD PTR _poArgs$[ebp]

; 706  : 	int iX;
; 707  : 	if (!PyTuple_GetInteger(poArgs, 0, &iX))

  00014	8d 45 e8	 lea	 eax, DWORD PTR _iX$[ebp]
  00017	50		 push	 eax
  00018	6a 00		 push	 0
  0001a	56		 push	 esi
  0001b	e8 00 00 00 00	 call	 ?PyTuple_GetInteger@@YA_NPAU_object@@HPAH@Z ; PyTuple_GetInteger
  00020	83 c4 0c	 add	 esp, 12			; 0000000cH
  00023	84 c0		 test	 al, al
  00025	75 19		 jne	 SHORT $LN2@chrSetPixe
$LN11@chrSetPixe:

; 727  : }

  00027	6a 00		 push	 0
  00029	e8 00 00 00 00	 call	 ?Py_BuildException@@YAPAU_object@@PBDZZ ; Py_BuildException
  0002e	83 c4 04	 add	 esp, 4
  00031	5e		 pop	 esi
  00032	8b 4d fc	 mov	 ecx, DWORD PTR __$ArrayPad$[ebp]
  00035	33 cd		 xor	 ecx, ebp
  00037	e8 00 00 00 00	 call	 @__security_check_cookie@4
  0003c	8b e5		 mov	 esp, ebp
  0003e	5d		 pop	 ebp
  0003f	c3		 ret	 0
$LN2@chrSetPixe:

; 708  : 		return Py_BuildException();
; 709  : 	int iY;
; 710  : 	if (!PyTuple_GetInteger(poArgs, 1, &iY))

  00040	8d 45 ec	 lea	 eax, DWORD PTR _iY$[ebp]
  00043	50		 push	 eax
  00044	6a 01		 push	 1
  00046	56		 push	 esi
  00047	e8 00 00 00 00	 call	 ?PyTuple_GetInteger@@YA_NPAU_object@@HPAH@Z ; PyTuple_GetInteger
  0004c	83 c4 0c	 add	 esp, 12			; 0000000cH
  0004f	84 c0		 test	 al, al
  00051	74 d4		 je	 SHORT $LN11@chrSetPixe

; 711  : 		return Py_BuildException();
; 712  : 
; 713  : 	CInstanceBase * pkInst = CPythonCharacterManager::Instance().GetSelectedInstancePtr();

  00053	8b 0d 00 00 00
	00		 mov	 ecx, DWORD PTR ?ms_singleton@?$CSingleton@VCPythonCharacterManager@@@@0PAVCPythonCharacterManager@@A ; CSingleton<CPythonCharacterManager>::ms_singleton
  00059	57		 push	 edi
  0005a	e8 00 00 00 00	 call	 ?GetSelectedInstancePtr@CPythonCharacterManager@@QAEPAVCInstanceBase@@XZ ; CPythonCharacterManager::GetSelectedInstancePtr
  0005f	8b f8		 mov	 edi, eax

; 714  : 	if (!pkInst)

  00061	85 ff		 test	 edi, edi
  00063	74 5c		 je	 SHORT $LN6@chrSetPixe

; 715  : 		return Py_BuildNone();
; 716  : 
; 717  : 	int iZ;
; 718  : 	if (PyTuple_GetInteger(poArgs, 2, &iZ))

  00065	8d 45 e4	 lea	 eax, DWORD PTR _iZ$[ebp]
  00068	50		 push	 eax
  00069	6a 02		 push	 2
  0006b	56		 push	 esi
  0006c	e8 00 00 00 00	 call	 ?PyTuple_GetInteger@@YA_NPAU_object@@HPAH@Z ; PyTuple_GetInteger
  00071	83 c4 0c	 add	 esp, 12			; 0000000cH
  00074	8b cf		 mov	 ecx, edi
  00076	84 c0		 test	 al, al
  00078	74 32		 je	 SHORT $LN5@chrSetPixe

; 720  : 		pkInst->NEW_SetPixelPosition(TPixelPosition(iX, iY, iZ));

  0007a	66 0f 6e 45 e8	 movd	 xmm0, DWORD PTR _iX$[ebp]
  0007f	8d 45 f0	 lea	 eax, DWORD PTR $T1[ebp]
  00082	0f 5b c0	 cvtdq2ps xmm0, xmm0
  00085	50		 push	 eax
; File E:\Metin2_server\SolWayneSF v6\ClientVS22\extern\include\d3dx8math.inl

; 180  :     x = fx;

  00086	f3 0f 11 45 f0	 movss	 DWORD PTR $T1[ebp], xmm0
  0008b	66 0f 6e 45 ec	 movd	 xmm0, DWORD PTR _iY$[ebp]
; File E:\Metin2_server\SolWayneSF v6\ClientVS22\source\UserInterface\PythonCharacterModule.cpp

; 720  : 		pkInst->NEW_SetPixelPosition(TPixelPosition(iX, iY, iZ));

  00090	0f 5b c0	 cvtdq2ps xmm0, xmm0
; File E:\Metin2_server\SolWayneSF v6\ClientVS22\extern\include\d3dx8math.inl

; 181  :     y = fy;

  00093	f3 0f 11 45 f4	 movss	 DWORD PTR $T1[ebp+4], xmm0
  00098	66 0f 6e 45 e4	 movd	 xmm0, DWORD PTR _iZ$[ebp]
; File E:\Metin2_server\SolWayneSF v6\ClientVS22\source\UserInterface\PythonCharacterModule.cpp

; 720  : 		pkInst->NEW_SetPixelPosition(TPixelPosition(iX, iY, iZ));

  0009d	0f 5b c0	 cvtdq2ps xmm0, xmm0
; File E:\Metin2_server\SolWayneSF v6\ClientVS22\extern\include\d3dx8math.inl

; 182  :     z = fz;

  000a0	f3 0f 11 45 f8	 movss	 DWORD PTR $T1[ebp+8], xmm0
; File E:\Metin2_server\SolWayneSF v6\ClientVS22\source\UserInterface\PythonCharacterModule.cpp

; 720  : 		pkInst->NEW_SetPixelPosition(TPixelPosition(iX, iY, iZ));

  000a5	e8 00 00 00 00	 call	 ?NEW_SetPixelPosition@CInstanceBase@@QAEXABUD3DXVECTOR3@@@Z ; CInstanceBase::NEW_SetPixelPosition

; 721  : 	}

  000aa	eb 15		 jmp	 SHORT $LN6@chrSetPixe
$LN5@chrSetPixe:
  000ac	66 0f 6e 55 ec	 movd	 xmm2, DWORD PTR _iY$[ebp]
  000b1	66 0f 6e 4d e8	 movd	 xmm1, DWORD PTR _iX$[ebp]

; 722  : 	else
; 723  : 	{
; 724  : 		pkInst->SCRIPT_SetPixelPosition(iX, iY);

  000b6	0f 5b d2	 cvtdq2ps xmm2, xmm2
  000b9	0f 5b c9	 cvtdq2ps xmm1, xmm1
  000bc	e8 00 00 00 00	 call	 ?SCRIPT_SetPixelPosition@CInstanceBase@@QAEXMM@Z ; CInstanceBase::SCRIPT_SetPixelPosition
$LN6@chrSetPixe:

; 725  : 	}
; 726  : 	return Py_BuildNone();

  000c1	e8 00 00 00 00	 call	 ?Py_BuildNone@@YAPAU_object@@XZ ; Py_BuildNone

; 727  : }

  000c6	8b 4d fc	 mov	 ecx, DWORD PTR __$ArrayPad$[ebp]
  000c9	5f		 pop	 edi
  000ca	33 cd		 xor	 ecx, ebp
  000cc	5e		 pop	 esi
  000cd	e8 00 00 00 00	 call	 @__security_check_cookie@4
  000d2	8b e5		 mov	 esp, ebp
  000d4	5d		 pop	 ebp
  000d5	c3		 ret	 0
?chrSetPixelPosition@@YAPAU_object@@PAU1@0@Z ENDP	; chrSetPixelPosition
_TEXT	ENDS
; Function compile flags: /Ogtp
; File E:\Metin2_server\SolWayneSF v6\ClientVS22\source\UserInterface\PythonCharacterModule.cpp
;	COMDAT ?chrSetDirection@@YAPAU_object@@PAU1@0@Z
_TEXT	SEGMENT
_iDirection$ = -4					; size = 4
_poSelf$ = 8						; size = 4
_poArgs$ = 12						; size = 4
?chrSetDirection@@YAPAU_object@@PAU1@0@Z PROC		; chrSetDirection, COMDAT

; 730  : {

  00000	55		 push	 ebp
  00001	8b ec		 mov	 ebp, esp
  00003	51		 push	 ecx

; 731  : 	int iDirection;
; 732  : 	if (!PyTuple_GetInteger(poArgs, 0, &iDirection))

  00004	8d 45 fc	 lea	 eax, DWORD PTR _iDirection$[ebp]
  00007	50		 push	 eax
  00008	6a 00		 push	 0
  0000a	ff 75 0c	 push	 DWORD PTR _poArgs$[ebp]
  0000d	e8 00 00 00 00	 call	 ?PyTuple_GetInteger@@YA_NPAU_object@@HPAH@Z ; PyTuple_GetInteger
  00012	83 c4 0c	 add	 esp, 12			; 0000000cH
  00015	84 c0		 test	 al, al
  00017	75 0e		 jne	 SHORT $LN2@chrSetDire

; 733  : 		return Py_BuildException();

  00019	6a 00		 push	 0
  0001b	e8 00 00 00 00	 call	 ?Py_BuildException@@YAPAU_object@@PBDZZ ; Py_BuildException
  00020	83 c4 04	 add	 esp, 4

; 738  : }

  00023	8b e5		 mov	 esp, ebp
  00025	5d		 pop	 ebp
  00026	c3		 ret	 0
$LN2@chrSetDire:

; 734  : 
; 735  : 	CInstanceBase * pkInst = CPythonCharacterManager::Instance().GetSelectedInstancePtr();

  00027	8b 0d 00 00 00
	00		 mov	 ecx, DWORD PTR ?ms_singleton@?$CSingleton@VCPythonCharacterManager@@@@0PAVCPythonCharacterManager@@A ; CSingleton<CPythonCharacterManager>::ms_singleton
  0002d	e8 00 00 00 00	 call	 ?GetSelectedInstancePtr@CPythonCharacterManager@@QAEPAVCInstanceBase@@XZ ; CPythonCharacterManager::GetSelectedInstancePtr

; 736  : 	pkInst->SetDirection(iDirection);

  00032	ff 75 fc	 push	 DWORD PTR _iDirection$[ebp]
  00035	8b c8		 mov	 ecx, eax
  00037	e8 00 00 00 00	 call	 ?SetDirection@CInstanceBase@@QAEXH@Z ; CInstanceBase::SetDirection

; 737  : 	return Py_BuildNone();

  0003c	e8 00 00 00 00	 call	 ?Py_BuildNone@@YAPAU_object@@XZ ; Py_BuildNone

; 738  : }

  00041	8b e5		 mov	 esp, ebp
  00043	5d		 pop	 ebp
  00044	c3		 ret	 0
?chrSetDirection@@YAPAU_object@@PAU1@0@Z ENDP		; chrSetDirection
_TEXT	ENDS
; Function compile flags: /Ogtp
; File E:\Metin2_server\SolWayneSF v6\ClientVS22\source\UserInterface\PythonCharacterModule.cpp
;	COMDAT ?chrGetPixelPosition@@YAPAU_object@@PAU1@0@Z
_TEXT	SEGMENT
_iVirtualID$ = -16					; size = 4
_PixelPosition$ = -12					; size = 12
_poSelf$ = 8						; size = 4
_poArgs$ = 12						; size = 4
?chrGetPixelPosition@@YAPAU_object@@PAU1@0@Z PROC	; chrGetPixelPosition, COMDAT

; 741  : {

  00000	55		 push	 ebp
  00001	8b ec		 mov	 ebp, esp
  00003	83 e4 c0	 and	 esp, -64		; ffffffc0H
  00006	83 ec 40	 sub	 esp, 64			; 00000040H

; 742  : 	int iVirtualID;
; 743  : 	if (!PyTuple_GetInteger(poArgs, 0, &iVirtualID))

  00009	8d 44 24 30	 lea	 eax, DWORD PTR _iVirtualID$[esp+64]
  0000d	50		 push	 eax
  0000e	6a 00		 push	 0
  00010	ff 75 0c	 push	 DWORD PTR _poArgs$[ebp]
  00013	e8 00 00 00 00	 call	 ?PyTuple_GetInteger@@YA_NPAU_object@@HPAH@Z ; PyTuple_GetInteger
  00018	83 c4 0c	 add	 esp, 12			; 0000000cH
  0001b	84 c0		 test	 al, al
  0001d	75 0e		 jne	 SHORT $LN2@chrGetPixe
$LN5@chrGetPixe:

; 755  : }

  0001f	6a 00		 push	 0
  00021	e8 00 00 00 00	 call	 ?Py_BuildException@@YAPAU_object@@PBDZZ ; Py_BuildException
  00026	83 c4 04	 add	 esp, 4
  00029	8b e5		 mov	 esp, ebp
  0002b	5d		 pop	 ebp
  0002c	c3		 ret	 0
$LN2@chrGetPixe:

; 744  : 		return Py_BuildException();
; 745  : 
; 746  : 	CInstanceBase * pkInst = CPythonCharacterManager::Instance().GetInstancePtr(iVirtualID);

  0002d	8b 0d 00 00 00
	00		 mov	 ecx, DWORD PTR ?ms_singleton@?$CSingleton@VCPythonCharacterManager@@@@0PAVCPythonCharacterManager@@A ; CSingleton<CPythonCharacterManager>::ms_singleton
  00033	ff 74 24 30	 push	 DWORD PTR _iVirtualID$[esp+64]
  00037	83 c1 04	 add	 ecx, 4
  0003a	8b 01		 mov	 eax, DWORD PTR [ecx]
  0003c	ff 50 08	 call	 DWORD PTR [eax+8]

; 747  : 
; 748  : 	if (!pkInst)

  0003f	85 c0		 test	 eax, eax
  00041	74 dc		 je	 SHORT $LN5@chrGetPixe

; 749  : 		return Py_BuildException();
; 750  : 
; 751  : 	TPixelPosition PixelPosition;
; 752  : 	pkInst->NEW_GetPixelPosition(&PixelPosition);

  00043	8d 4c 24 34	 lea	 ecx, DWORD PTR _PixelPosition$[esp+64]
  00047	51		 push	 ecx
  00048	8b c8		 mov	 ecx, eax
  0004a	e8 00 00 00 00	 call	 ?NEW_GetPixelPosition@CInstanceBase@@QAEXPAUD3DXVECTOR3@@@Z ; CInstanceBase::NEW_GetPixelPosition
  0004f	f3 0f 10 44 24
	3c		 movss	 xmm0, DWORD PTR _PixelPosition$[esp+72]

; 753  : 
; 754  : 	return Py_BuildValue("fff", PixelPosition.x, PixelPosition.y, PixelPosition.z);

  00055	83 ec 18	 sub	 esp, 24			; 00000018H
  00058	0f 5a c0	 cvtps2pd xmm0, xmm0
  0005b	f2 0f 11 44 24
	10		 movsd	 QWORD PTR [esp+16], xmm0
  00061	f3 0f 10 44 24
	50		 movss	 xmm0, DWORD PTR _PixelPosition$[esp+92]
  00067	0f 5a c0	 cvtps2pd xmm0, xmm0
  0006a	f2 0f 11 44 24
	08		 movsd	 QWORD PTR [esp+8], xmm0
  00070	f3 0f 10 44 24
	4c		 movss	 xmm0, DWORD PTR _PixelPosition$[esp+88]
  00076	0f 5a c0	 cvtps2pd xmm0, xmm0
  00079	f2 0f 11 04 24	 movsd	 QWORD PTR [esp], xmm0
  0007e	68 00 00 00 00	 push	 OFFSET ??_C@_03LPALPDIP@fff@
  00083	ff 15 00 00 00
	00		 call	 DWORD PTR __imp__Py_BuildValue
  00089	83 c4 1c	 add	 esp, 28			; 0000001cH

; 755  : }

  0008c	8b e5		 mov	 esp, ebp
  0008e	5d		 pop	 ebp
  0008f	c3		 ret	 0
?chrGetPixelPosition@@YAPAU_object@@PAU1@0@Z ENDP	; chrGetPixelPosition
_TEXT	ENDS
; Function compile flags: /Ogtp
; File E:\Metin2_server\SolWayneSF v6\ClientVS22\source\UserInterface\PythonCharacterModule.cpp
; File C:\Program Files\Microsoft Visual Studio\2022\Community\VC\Tools\MSVC\14.34.31933\include\cmath
; File E:\Metin2_server\SolWayneSF v6\ClientVS22\source\UserInterface\PythonCharacterModule.cpp
;	COMDAT ?chrSetRotation@@YAPAU_object@@PAU1@0@Z
_TEXT	SEGMENT
_fRotation$ = -4					; size = 4
_poSelf$ = 8						; size = 4
_poArgs$ = 12						; size = 4
?chrSetRotation@@YAPAU_object@@PAU1@0@Z PROC		; chrSetRotation, COMDAT

; 758  : {

  00000	55		 push	 ebp
  00001	8b ec		 mov	 ebp, esp
  00003	51		 push	 ecx

; 759  : 	float fRotation;
; 760  : 	if (!PyTuple_GetFloat(poArgs, 0, &fRotation))

  00004	8d 45 fc	 lea	 eax, DWORD PTR _fRotation$[ebp]
  00007	50		 push	 eax
  00008	6a 00		 push	 0
  0000a	ff 75 0c	 push	 DWORD PTR _poArgs$[ebp]
  0000d	e8 00 00 00 00	 call	 ?PyTuple_GetFloat@@YA_NPAU_object@@HPAM@Z ; PyTuple_GetFloat
  00012	83 c4 0c	 add	 esp, 12			; 0000000cH
  00015	84 c0		 test	 al, al
  00017	75 0e		 jne	 SHORT $LN2@chrSetRota

; 761  : 		return Py_BuildException();

  00019	6a 00		 push	 0
  0001b	e8 00 00 00 00	 call	 ?Py_BuildException@@YAPAU_object@@PBDZZ ; Py_BuildException
  00020	83 c4 04	 add	 esp, 4

; 773  : }

  00023	8b e5		 mov	 esp, ebp
  00025	5d		 pop	 ebp
  00026	c3		 ret	 0
$LN2@chrSetRota:

; 762  : 
; 763  : 	CInstanceBase * pCharacterInstance = CPythonCharacterManager::Instance().GetSelectedInstancePtr();

  00027	8b 0d 00 00 00
	00		 mov	 ecx, DWORD PTR ?ms_singleton@?$CSingleton@VCPythonCharacterManager@@@@0PAVCPythonCharacterManager@@A ; CSingleton<CPythonCharacterManager>::ms_singleton
  0002d	56		 push	 esi
  0002e	e8 00 00 00 00	 call	 ?GetSelectedInstancePtr@CPythonCharacterManager@@QAEPAVCInstanceBase@@XZ ; CPythonCharacterManager::GetSelectedInstancePtr
  00033	8b f0		 mov	 esi, eax

; 764  : 
; 765  : 	if (!pCharacterInstance)

  00035	85 f6		 test	 esi, esi
  00037	74 29		 je	 SHORT $LN10@chrSetRota

; 766  : 		return Py_BuildNone();
; 767  : 
; 768  : 	fRotation = fmod(fRotation + 180.0f, 360.0f);

  00039	f3 0f 10 45 fc	 movss	 xmm0, DWORD PTR _fRotation$[ebp]
  0003e	f3 0f 58 05 00
	00 00 00	 addss	 xmm0, DWORD PTR __real@43340000
; File C:\Program Files\Microsoft Visual Studio\2022\Community\VC\Tools\MSVC\14.34.31933\include\cmath

; 147  :     return _CSTD fmodf(_Xx, _Yx);

  00046	f3 0f 10 0d 00
	00 00 00	 movss	 xmm1, DWORD PTR __real@43b40000
  0004e	e8 00 00 00 00	 call	 _fmodf
; File E:\Metin2_server\SolWayneSF v6\ClientVS22\source\UserInterface\PythonCharacterModule.cpp

; 770  : 	pCharacterInstance->SetRotation(fRotation);

  00053	0f 28 c8	 movaps	 xmm1, xmm0
  00056	f3 0f 11 45 fc	 movss	 DWORD PTR _fRotation$[ebp], xmm0
  0005b	8b ce		 mov	 ecx, esi
  0005d	e8 00 00 00 00	 call	 ?SetRotation@CInstanceBase@@QAEXM@Z ; CInstanceBase::SetRotation
$LN10@chrSetRota:

; 771  : 
; 772  : 	return Py_BuildNone();

  00062	e8 00 00 00 00	 call	 ?Py_BuildNone@@YAPAU_object@@XZ ; Py_BuildNone
  00067	5e		 pop	 esi

; 773  : }

  00068	8b e5		 mov	 esp, ebp
  0006a	5d		 pop	 ebp
  0006b	c3		 ret	 0
?chrSetRotation@@YAPAU_object@@PAU1@0@Z ENDP		; chrSetRotation
_TEXT	ENDS
; Function compile flags: /Ogtp
; File E:\Metin2_server\SolWayneSF v6\ClientVS22\source\UserInterface\PythonCharacterModule.cpp
;	COMDAT ?chrSetRotationAll@@YAPAU_object@@PAU1@0@Z
_TEXT	SEGMENT
_fRotZ$ = -12						; size = 4
_fRotX$ = -8						; size = 4
_fRotY$ = -4						; size = 4
_poSelf$ = 8						; size = 4
_poArgs$ = 12						; size = 4
?chrSetRotationAll@@YAPAU_object@@PAU1@0@Z PROC		; chrSetRotationAll, COMDAT

; 776  : {

  00000	55		 push	 ebp
  00001	8b ec		 mov	 ebp, esp
  00003	83 ec 0c	 sub	 esp, 12			; 0000000cH

; 777  : 	float fRotX;
; 778  : 	if (!PyTuple_GetFloat(poArgs, 0, &fRotX))

  00006	8d 45 f8	 lea	 eax, DWORD PTR _fRotX$[ebp]
  00009	56		 push	 esi
  0000a	8b 75 0c	 mov	 esi, DWORD PTR _poArgs$[ebp]
  0000d	50		 push	 eax
  0000e	6a 00		 push	 0
  00010	56		 push	 esi
  00011	e8 00 00 00 00	 call	 ?PyTuple_GetFloat@@YA_NPAU_object@@HPAM@Z ; PyTuple_GetFloat
  00016	83 c4 0c	 add	 esp, 12			; 0000000cH
  00019	84 c0		 test	 al, al
  0001b	75 0f		 jne	 SHORT $LN2@chrSetRota
$LN8@chrSetRota:

; 793  : 	return Py_BuildNone();
; 794  : }

  0001d	6a 00		 push	 0
  0001f	e8 00 00 00 00	 call	 ?Py_BuildException@@YAPAU_object@@PBDZZ ; Py_BuildException
  00024	83 c4 04	 add	 esp, 4
  00027	5e		 pop	 esi
  00028	8b e5		 mov	 esp, ebp
  0002a	5d		 pop	 ebp
  0002b	c3		 ret	 0
$LN2@chrSetRota:

; 779  : 		return Py_BuildException();
; 780  : 	float fRotY;
; 781  : 	if (!PyTuple_GetFloat(poArgs, 1, &fRotY))

  0002c	8d 45 fc	 lea	 eax, DWORD PTR _fRotY$[ebp]
  0002f	50		 push	 eax
  00030	6a 01		 push	 1
  00032	56		 push	 esi
  00033	e8 00 00 00 00	 call	 ?PyTuple_GetFloat@@YA_NPAU_object@@HPAM@Z ; PyTuple_GetFloat
  00038	83 c4 0c	 add	 esp, 12			; 0000000cH
  0003b	84 c0		 test	 al, al
  0003d	74 de		 je	 SHORT $LN8@chrSetRota

; 782  : 		return Py_BuildException();
; 783  : 	float fRotZ;
; 784  : 	if (!PyTuple_GetFloat(poArgs, 2, &fRotZ))

  0003f	8d 45 f4	 lea	 eax, DWORD PTR _fRotZ$[ebp]
  00042	50		 push	 eax
  00043	6a 02		 push	 2
  00045	56		 push	 esi
  00046	e8 00 00 00 00	 call	 ?PyTuple_GetFloat@@YA_NPAU_object@@HPAM@Z ; PyTuple_GetFloat
  0004b	83 c4 0c	 add	 esp, 12			; 0000000cH
  0004e	84 c0		 test	 al, al
  00050	74 cb		 je	 SHORT $LN8@chrSetRota

; 785  : 		return Py_BuildException();
; 786  : 
; 787  : 	CInstanceBase * pCharacterInstance = CPythonCharacterManager::Instance().GetSelectedInstancePtr();

  00052	8b 0d 00 00 00
	00		 mov	 ecx, DWORD PTR ?ms_singleton@?$CSingleton@VCPythonCharacterManager@@@@0PAVCPythonCharacterManager@@A ; CSingleton<CPythonCharacterManager>::ms_singleton
  00058	e8 00 00 00 00	 call	 ?GetSelectedInstancePtr@CPythonCharacterManager@@QAEPAVCInstanceBase@@XZ ; CPythonCharacterManager::GetSelectedInstancePtr

; 788  : 	if (!pCharacterInstance)

  0005d	85 c0		 test	 eax, eax
  0005f	74 3a		 je	 SHORT $LN7@chrSetRota

; 789  : 		return Py_BuildNone();
; 790  : 
; 791  : 	pCharacterInstance->GetGraphicThingInstanceRef().SetXYRotation(fRotX, fRotY);

  00061	8b c8		 mov	 ecx, eax
  00063	e8 00 00 00 00	 call	 ?GetGraphicThingInstanceRef@CInstanceBase@@QAEAAVCActorInstance@@XZ ; CInstanceBase::GetGraphicThingInstanceRef
  00068	f3 0f 10 45 fc	 movss	 xmm0, DWORD PTR _fRotY$[ebp]
  0006d	83 ec 08	 sub	 esp, 8
  00070	8b f0		 mov	 esi, eax
  00072	8b c8		 mov	 ecx, eax
  00074	f3 0f 11 44 24
	04		 movss	 DWORD PTR [esp+4], xmm0
  0007a	f3 0f 10 45 f8	 movss	 xmm0, DWORD PTR _fRotX$[ebp]
  0007f	f3 0f 11 04 24	 movss	 DWORD PTR [esp], xmm0
  00084	e8 00 00 00 00	 call	 ?SetXYRotation@CActorInstance@@QAEXMM@Z ; CActorInstance::SetXYRotation

; 792  : 	pCharacterInstance->GetGraphicThingInstanceRef().SetRotation(fRotZ);

  00089	f3 0f 10 45 f4	 movss	 xmm0, DWORD PTR _fRotZ$[ebp]
  0008e	51		 push	 ecx
  0008f	8b ce		 mov	 ecx, esi
  00091	f3 0f 11 04 24	 movss	 DWORD PTR [esp], xmm0
  00096	e8 00 00 00 00	 call	 ?SetRotation@CActorInstance@@QAEXM@Z ; CActorInstance::SetRotation
$LN7@chrSetRota:

; 793  : 	return Py_BuildNone();
; 794  : }

  0009b	e8 00 00 00 00	 call	 ?Py_BuildNone@@YAPAU_object@@XZ ; Py_BuildNone
  000a0	5e		 pop	 esi
  000a1	8b e5		 mov	 esp, ebp
  000a3	5d		 pop	 ebp
  000a4	c3		 ret	 0
?chrSetRotationAll@@YAPAU_object@@PAU1@0@Z ENDP		; chrSetRotationAll
_TEXT	ENDS
; Function compile flags: /Ogtp
; File E:\Metin2_server\SolWayneSF v6\ClientVS22\source\UserInterface\PythonCharacterModule.cpp
; File C:\Program Files\Microsoft Visual Studio\2022\Community\VC\Tools\MSVC\14.34.31933\include\cmath
; File E:\Metin2_server\SolWayneSF v6\ClientVS22\source\UserInterface\PythonCharacterModule.cpp
;	COMDAT ?chrBlendRotation@@YAPAU_object@@PAU1@0@Z
_TEXT	SEGMENT
_fBlendTime$ = -8					; size = 4
_fRotation$ = -4					; size = 4
_poSelf$ = 8						; size = 4
_poArgs$ = 12						; size = 4
?chrBlendRotation@@YAPAU_object@@PAU1@0@Z PROC		; chrBlendRotation, COMDAT

; 797  : {

  00000	55		 push	 ebp
  00001	8b ec		 mov	 ebp, esp
  00003	83 ec 08	 sub	 esp, 8

; 798  : 	float fRotation;
; 799  : 	if (!PyTuple_GetFloat(poArgs, 0, &fRotation))

  00006	8d 45 fc	 lea	 eax, DWORD PTR _fRotation$[ebp]
  00009	50		 push	 eax
  0000a	6a 00		 push	 0
  0000c	ff 75 0c	 push	 DWORD PTR _poArgs$[ebp]
  0000f	e8 00 00 00 00	 call	 ?PyTuple_GetFloat@@YA_NPAU_object@@HPAM@Z ; PyTuple_GetFloat
  00014	83 c4 0c	 add	 esp, 12			; 0000000cH
  00017	84 c0		 test	 al, al
  00019	75 0e		 jne	 SHORT $LN2@chrBlendRo
$LN11@chrBlendRo:

; 811  : 
; 812  : 	return Py_BuildNone();
; 813  : }

  0001b	6a 00		 push	 0
  0001d	e8 00 00 00 00	 call	 ?Py_BuildException@@YAPAU_object@@PBDZZ ; Py_BuildException
  00022	83 c4 04	 add	 esp, 4
  00025	8b e5		 mov	 esp, ebp
  00027	5d		 pop	 ebp
  00028	c3		 ret	 0
$LN2@chrBlendRo:

; 800  : 		return Py_BuildException();
; 801  : 	float fBlendTime;
; 802  : 	if (!PyTuple_GetFloat(poArgs, 1, &fBlendTime))

  00029	8d 45 f8	 lea	 eax, DWORD PTR _fBlendTime$[ebp]
  0002c	50		 push	 eax
  0002d	6a 01		 push	 1
  0002f	ff 75 0c	 push	 DWORD PTR _poArgs$[ebp]
  00032	e8 00 00 00 00	 call	 ?PyTuple_GetFloat@@YA_NPAU_object@@HPAM@Z ; PyTuple_GetFloat
  00037	83 c4 0c	 add	 esp, 12			; 0000000cH
  0003a	84 c0		 test	 al, al
  0003c	74 dd		 je	 SHORT $LN11@chrBlendRo

; 803  : 		return Py_BuildException();
; 804  : 
; 805  : 	fRotation = fmod(720.0f - fRotation, 360.0f);

  0003e	f3 0f 10 05 00
	00 00 00	 movss	 xmm0, DWORD PTR __real@44340000
  00046	f3 0f 5c 45 fc	 subss	 xmm0, DWORD PTR _fRotation$[ebp]
; File C:\Program Files\Microsoft Visual Studio\2022\Community\VC\Tools\MSVC\14.34.31933\include\cmath

; 147  :     return _CSTD fmodf(_Xx, _Yx);

  0004b	f3 0f 10 0d 00
	00 00 00	 movss	 xmm1, DWORD PTR __real@43b40000
  00053	e8 00 00 00 00	 call	 _fmodf
; File E:\Metin2_server\SolWayneSF v6\ClientVS22\source\UserInterface\PythonCharacterModule.cpp

; 807  : 	CInstanceBase * pCharacterInstance = CPythonCharacterManager::Instance().GetSelectedInstancePtr();

  00058	8b 0d 00 00 00
	00		 mov	 ecx, DWORD PTR ?ms_singleton@?$CSingleton@VCPythonCharacterManager@@@@0PAVCPythonCharacterManager@@A ; CSingleton<CPythonCharacterManager>::ms_singleton
  0005e	f3 0f 11 45 fc	 movss	 DWORD PTR _fRotation$[ebp], xmm0
  00063	e8 00 00 00 00	 call	 ?GetSelectedInstancePtr@CPythonCharacterManager@@QAEPAVCInstanceBase@@XZ ; CPythonCharacterManager::GetSelectedInstancePtr

; 808  : 	if (!pCharacterInstance)

  00068	85 c0		 test	 eax, eax
  0006a	74 0f		 je	 SHORT $LN10@chrBlendRo

; 809  : 		return Py_BuildNone();
; 810  : 	pCharacterInstance->BlendRotation(fRotation, fBlendTime);

  0006c	f3 0f 10 55 f8	 movss	 xmm2, DWORD PTR _fBlendTime$[ebp]
  00071	0f 28 c8	 movaps	 xmm1, xmm0
  00074	8b c8		 mov	 ecx, eax
  00076	e8 00 00 00 00	 call	 ?BlendRotation@CInstanceBase@@QAEXMM@Z ; CInstanceBase::BlendRotation
$LN10@chrBlendRo:

; 811  : 
; 812  : 	return Py_BuildNone();
; 813  : }

  0007b	e8 00 00 00 00	 call	 ?Py_BuildNone@@YAPAU_object@@XZ ; Py_BuildNone
  00080	8b e5		 mov	 esp, ebp
  00082	5d		 pop	 ebp
  00083	c3		 ret	 0
?chrBlendRotation@@YAPAU_object@@PAU1@0@Z ENDP		; chrBlendRotation
_TEXT	ENDS
; Function compile flags: /Ogtp
; File E:\Metin2_server\SolWayneSF v6\ClientVS22\source\UserInterface\PythonCharacterModule.cpp
;	COMDAT ?chrGetRotation@@YAPAU_object@@PAU1@0@Z
_TEXT	SEGMENT
_poSelf$ = 8						; size = 4
_poArgs$ = 12						; size = 4
?chrGetRotation@@YAPAU_object@@PAU1@0@Z PROC		; chrGetRotation, COMDAT

; 817  : 	CInstanceBase * pCharacterInstance = CPythonCharacterManager::Instance().GetSelectedInstancePtr();

  00000	8b 0d 00 00 00
	00		 mov	 ecx, DWORD PTR ?ms_singleton@?$CSingleton@VCPythonCharacterManager@@@@0PAVCPythonCharacterManager@@A ; CSingleton<CPythonCharacterManager>::ms_singleton
  00006	e8 00 00 00 00	 call	 ?GetSelectedInstancePtr@CPythonCharacterManager@@QAEPAVCInstanceBase@@XZ ; CPythonCharacterManager::GetSelectedInstancePtr

; 818  : 
; 819  : 	if (!pCharacterInstance)

  0000b	85 c0		 test	 eax, eax
  0000d	75 05		 jne	 SHORT $LN2@chrGetRota

; 820  : 		return Py_BuildValue("f", 0.0f);

  0000f	0f 57 c0	 xorps	 xmm0, xmm0
  00012	eb 16		 jmp	 SHORT $LN4@chrGetRota
$LN2@chrGetRota:

; 821  : 
; 822  : 	float fRotation = pCharacterInstance->GetRotation();

  00014	8b c8		 mov	 ecx, eax
  00016	e8 00 00 00 00	 call	 ?GetRotation@CInstanceBase@@QAEMXZ ; CInstanceBase::GetRotation

; 823  : 
; 824  : 	return Py_BuildValue("f", 360.0f - fRotation);

  0001b	f3 0f 10 0d 00
	00 00 00	 movss	 xmm1, DWORD PTR __real@43b40000
  00023	f3 0f 5c c8	 subss	 xmm1, xmm0
  00027	0f 5a c1	 cvtps2pd xmm0, xmm1
$LN4@chrGetRota:

; 825  : }

  0002a	83 ec 08	 sub	 esp, 8
  0002d	f2 0f 11 04 24	 movsd	 QWORD PTR [esp], xmm0
  00032	68 00 00 00 00	 push	 OFFSET ??_C@_01INIBCBCB@f@
  00037	ff 15 00 00 00
	00		 call	 DWORD PTR __imp__Py_BuildValue
  0003d	83 c4 0c	 add	 esp, 12			; 0000000cH
  00040	c3		 ret	 0
?chrGetRotation@@YAPAU_object@@PAU1@0@Z ENDP		; chrGetRotation
_TEXT	ENDS
; Function compile flags: /Ogtp
; File E:\Metin2_server\SolWayneSF v6\ClientVS22\source\UserInterface\PythonCharacterModule.cpp
;	COMDAT ?chrGetRace@@YAPAU_object@@PAU1@0@Z
_TEXT	SEGMENT
_poSelf$ = 8						; size = 4
_poArgs$ = 12						; size = 4
?chrGetRace@@YAPAU_object@@PAU1@0@Z PROC		; chrGetRace, COMDAT

; 829  : 	CInstanceBase * pCharacterInstance = CPythonCharacterManager::Instance().GetSelectedInstancePtr();

  00000	8b 0d 00 00 00
	00		 mov	 ecx, DWORD PTR ?ms_singleton@?$CSingleton@VCPythonCharacterManager@@@@0PAVCPythonCharacterManager@@A ; CSingleton<CPythonCharacterManager>::ms_singleton
  00006	e8 00 00 00 00	 call	 ?GetSelectedInstancePtr@CPythonCharacterManager@@QAEPAVCInstanceBase@@XZ ; CPythonCharacterManager::GetSelectedInstancePtr

; 830  : 
; 831  : 	if (!pCharacterInstance)

  0000b	85 c0		 test	 eax, eax
  0000d	75 10		 jne	 SHORT $LN2@chrGetRace

; 832  : 		return Py_BuildValue("i", 0);

  0000f	50		 push	 eax

; 835  : }

  00010	68 00 00 00 00	 push	 OFFSET ??_C@_01KBJDNOO@i@
  00015	ff 15 00 00 00
	00		 call	 DWORD PTR __imp__Py_BuildValue
  0001b	83 c4 08	 add	 esp, 8
  0001e	c3		 ret	 0
$LN2@chrGetRace:

; 833  : 
; 834  : 	return Py_BuildValue("i", pCharacterInstance->GetRace());

  0001f	8b c8		 mov	 ecx, eax
  00021	e8 00 00 00 00	 call	 ?GetRace@CInstanceBase@@QAEKXZ ; CInstanceBase::GetRace
  00026	50		 push	 eax

; 835  : }

  00027	68 00 00 00 00	 push	 OFFSET ??_C@_01KBJDNOO@i@
  0002c	ff 15 00 00 00
	00		 call	 DWORD PTR __imp__Py_BuildValue
  00032	83 c4 08	 add	 esp, 8
  00035	c3		 ret	 0
?chrGetRace@@YAPAU_object@@PAU1@0@Z ENDP		; chrGetRace
_TEXT	ENDS
; Function compile flags: /Ogtp
; File E:\Metin2_server\SolWayneSF v6\ClientVS22\source\UserInterface\PythonCharacterModule.cpp
;	COMDAT ?chrGetName@@YAPAU_object@@PAU1@0@Z
_TEXT	SEGMENT
_poSelf$ = 8						; size = 4
_poArgs$ = 12						; size = 4
?chrGetName@@YAPAU_object@@PAU1@0@Z PROC		; chrGetName, COMDAT

; 839  : 	CInstanceBase * pCharacterInstance = CPythonCharacterManager::Instance().GetSelectedInstancePtr();

  00000	8b 0d 00 00 00
	00		 mov	 ecx, DWORD PTR ?ms_singleton@?$CSingleton@VCPythonCharacterManager@@@@0PAVCPythonCharacterManager@@A ; CSingleton<CPythonCharacterManager>::ms_singleton
  00006	e8 00 00 00 00	 call	 ?GetSelectedInstancePtr@CPythonCharacterManager@@QAEPAVCInstanceBase@@XZ ; CPythonCharacterManager::GetSelectedInstancePtr

; 840  : 
; 841  : 	if (!pCharacterInstance)

  0000b	85 c0		 test	 eax, eax
  0000d	75 10		 jne	 SHORT $LN2@chrGetName

; 842  : 		return Py_BuildValue("i", 0);

  0000f	50		 push	 eax
  00010	68 00 00 00 00	 push	 OFFSET ??_C@_01KBJDNOO@i@

; 845  : }

  00015	ff 15 00 00 00
	00		 call	 DWORD PTR __imp__Py_BuildValue
  0001b	83 c4 08	 add	 esp, 8
  0001e	c3		 ret	 0
$LN2@chrGetName:

; 843  : 
; 844  : 	return Py_BuildValue("s", pCharacterInstance->GetNameString());

  0001f	8b c8		 mov	 ecx, eax
  00021	e8 00 00 00 00	 call	 ?GetNameString@CInstanceBase@@QAEPBDXZ ; CInstanceBase::GetNameString
  00026	50		 push	 eax
  00027	68 00 00 00 00	 push	 OFFSET ??_C@_01LKDEMHDF@s@

; 845  : }

  0002c	ff 15 00 00 00
	00		 call	 DWORD PTR __imp__Py_BuildValue
  00032	83 c4 08	 add	 esp, 8
  00035	c3		 ret	 0
?chrGetName@@YAPAU_object@@PAU1@0@Z ENDP		; chrGetName
_TEXT	ENDS
; Function compile flags: /Ogtp
; File E:\Metin2_server\SolWayneSF v6\ClientVS22\source\UserInterface\PythonCharacterModule.cpp
;	COMDAT ?chrGetNameByVID@@YAPAU_object@@PAU1@0@Z
_TEXT	SEGMENT
_iVirtualID$ = -4					; size = 4
_poSelf$ = 8						; size = 4
_poArgs$ = 12						; size = 4
?chrGetNameByVID@@YAPAU_object@@PAU1@0@Z PROC		; chrGetNameByVID, COMDAT

; 848  : {

  00000	55		 push	 ebp
  00001	8b ec		 mov	 ebp, esp
  00003	51		 push	 ecx

; 849  : 	int iVirtualID;
; 850  : 	if (!PyTuple_GetInteger(poArgs, 0, &iVirtualID))

  00004	8d 45 fc	 lea	 eax, DWORD PTR _iVirtualID$[ebp]
  00007	50		 push	 eax
  00008	6a 00		 push	 0
  0000a	ff 75 0c	 push	 DWORD PTR _poArgs$[ebp]
  0000d	e8 00 00 00 00	 call	 ?PyTuple_GetInteger@@YA_NPAU_object@@HPAH@Z ; PyTuple_GetInteger
  00012	83 c4 0c	 add	 esp, 12			; 0000000cH
  00015	84 c0		 test	 al, al
  00017	75 0e		 jne	 SHORT $LN2@chrGetName

; 851  : 		return Py_BuildException();

  00019	6a 00		 push	 0
  0001b	e8 00 00 00 00	 call	 ?Py_BuildException@@YAPAU_object@@PBDZZ ; Py_BuildException
  00020	83 c4 04	 add	 esp, 4

; 859  : }

  00023	8b e5		 mov	 esp, ebp
  00025	5d		 pop	 ebp
  00026	c3		 ret	 0
$LN2@chrGetName:

; 852  : 
; 853  : 	CInstanceBase * pInstance = CPythonCharacterManager::Instance().GetInstancePtr(iVirtualID);

  00027	8b 0d 00 00 00
	00		 mov	 ecx, DWORD PTR ?ms_singleton@?$CSingleton@VCPythonCharacterManager@@@@0PAVCPythonCharacterManager@@A ; CSingleton<CPythonCharacterManager>::ms_singleton
  0002d	ff 75 fc	 push	 DWORD PTR _iVirtualID$[ebp]
  00030	83 c1 04	 add	 ecx, 4
  00033	8b 01		 mov	 eax, DWORD PTR [ecx]
  00035	ff 50 08	 call	 DWORD PTR [eax+8]

; 854  : 
; 855  : 	if (!pInstance)

  00038	85 c0		 test	 eax, eax
  0003a	75 17		 jne	 SHORT $LN3@chrGetName

; 856  : 		return Py_BuildValue("s", "None");

  0003c	68 00 00 00 00	 push	 OFFSET ??_C@_04OHJIHAFH@None@

; 859  : }

  00041	68 00 00 00 00	 push	 OFFSET ??_C@_01LKDEMHDF@s@
  00046	ff 15 00 00 00
	00		 call	 DWORD PTR __imp__Py_BuildValue
  0004c	83 c4 08	 add	 esp, 8
  0004f	8b e5		 mov	 esp, ebp
  00051	5d		 pop	 ebp
  00052	c3		 ret	 0
$LN3@chrGetName:

; 857  : 
; 858  : 	return Py_BuildValue("s", pInstance->GetNameString());

  00053	8b c8		 mov	 ecx, eax
  00055	e8 00 00 00 00	 call	 ?GetNameString@CInstanceBase@@QAEPBDXZ ; CInstanceBase::GetNameString
  0005a	50		 push	 eax

; 859  : }

  0005b	68 00 00 00 00	 push	 OFFSET ??_C@_01LKDEMHDF@s@
  00060	ff 15 00 00 00
	00		 call	 DWORD PTR __imp__Py_BuildValue
  00066	83 c4 08	 add	 esp, 8
  00069	8b e5		 mov	 esp, ebp
  0006b	5d		 pop	 ebp
  0006c	c3		 ret	 0
?chrGetNameByVID@@YAPAU_object@@PAU1@0@Z ENDP		; chrGetNameByVID
_TEXT	ENDS
; Function compile flags: /Ogtp
; File E:\Metin2_server\SolWayneSF v6\ClientVS22\source\UserInterface\PythonCharacterModule.cpp
;	COMDAT ?chrGetGuildID@@YAPAU_object@@PAU1@0@Z
_TEXT	SEGMENT
_iVirtualID$ = -4					; size = 4
_poSelf$ = 8						; size = 4
_poArgs$ = 12						; size = 4
?chrGetGuildID@@YAPAU_object@@PAU1@0@Z PROC		; chrGetGuildID, COMDAT

; 862  : {

  00000	55		 push	 ebp
  00001	8b ec		 mov	 ebp, esp
  00003	51		 push	 ecx

; 863  : 	int iVirtualID;
; 864  : 	if (!PyTuple_GetInteger(poArgs, 0, &iVirtualID))

  00004	8d 45 fc	 lea	 eax, DWORD PTR _iVirtualID$[ebp]
  00007	50		 push	 eax
  00008	6a 00		 push	 0
  0000a	ff 75 0c	 push	 DWORD PTR _poArgs$[ebp]
  0000d	e8 00 00 00 00	 call	 ?PyTuple_GetInteger@@YA_NPAU_object@@HPAH@Z ; PyTuple_GetInteger
  00012	83 c4 0c	 add	 esp, 12			; 0000000cH
  00015	84 c0		 test	 al, al
  00017	75 0e		 jne	 SHORT $LN2@chrGetGuil

; 865  : 		return Py_BuildException();

  00019	6a 00		 push	 0
  0001b	e8 00 00 00 00	 call	 ?Py_BuildException@@YAPAU_object@@PBDZZ ; Py_BuildException
  00020	83 c4 04	 add	 esp, 4

; 873  : }

  00023	8b e5		 mov	 esp, ebp
  00025	5d		 pop	 ebp
  00026	c3		 ret	 0
$LN2@chrGetGuil:

; 866  : 
; 867  : 	CInstanceBase * pInstance = CPythonCharacterManager::Instance().GetInstancePtr(iVirtualID);

  00027	8b 0d 00 00 00
	00		 mov	 ecx, DWORD PTR ?ms_singleton@?$CSingleton@VCPythonCharacterManager@@@@0PAVCPythonCharacterManager@@A ; CSingleton<CPythonCharacterManager>::ms_singleton
  0002d	ff 75 fc	 push	 DWORD PTR _iVirtualID$[ebp]
  00030	83 c1 04	 add	 ecx, 4
  00033	8b 01		 mov	 eax, DWORD PTR [ecx]
  00035	ff 50 08	 call	 DWORD PTR [eax+8]

; 868  : 
; 869  : 	if (!pInstance)

  00038	85 c0		 test	 eax, eax
  0003a	75 13		 jne	 SHORT $LN3@chrGetGuil

; 870  : 		return Py_BuildValue("i", 0);

  0003c	50		 push	 eax

; 873  : }

  0003d	68 00 00 00 00	 push	 OFFSET ??_C@_01KBJDNOO@i@
  00042	ff 15 00 00 00
	00		 call	 DWORD PTR __imp__Py_BuildValue
  00048	83 c4 08	 add	 esp, 8
  0004b	8b e5		 mov	 esp, ebp
  0004d	5d		 pop	 ebp
  0004e	c3		 ret	 0
$LN3@chrGetGuil:

; 871  : 
; 872  : 	return Py_BuildValue("i", pInstance->GetGuildID());

  0004f	8b c8		 mov	 ecx, eax
  00051	e8 00 00 00 00	 call	 ?GetGuildID@CInstanceBase@@QAEKXZ ; CInstanceBase::GetGuildID
  00056	50		 push	 eax

; 873  : }

  00057	68 00 00 00 00	 push	 OFFSET ??_C@_01KBJDNOO@i@
  0005c	ff 15 00 00 00
	00		 call	 DWORD PTR __imp__Py_BuildValue
  00062	83 c4 08	 add	 esp, 8
  00065	8b e5		 mov	 esp, ebp
  00067	5d		 pop	 ebp
  00068	c3		 ret	 0
?chrGetGuildID@@YAPAU_object@@PAU1@0@Z ENDP		; chrGetGuildID
_TEXT	ENDS
; Function compile flags: /Ogtp
; File E:\Metin2_server\SolWayneSF v6\ClientVS22\source\UserInterface\PythonCharacterModule.cpp
;	COMDAT ?chrGetProjectPosition@@YAPAU_object@@PAU1@0@Z
_TEXT	SEGMENT
_PixelPosition$ = -32					; size = 12
_fx$ = -20						; size = 4
_fy$ = -16						; size = 4
_fz$ = -12						; size = 4
_iHeight$ = -8						; size = 4
_iVirtualID$ = -4					; size = 4
_poSelf$ = 8						; size = 4
_poArgs$ = 12						; size = 4
?chrGetProjectPosition@@YAPAU_object@@PAU1@0@Z PROC	; chrGetProjectPosition, COMDAT

; 876  : {

  00000	55		 push	 ebp
  00001	8b ec		 mov	 ebp, esp
  00003	83 ec 20	 sub	 esp, 32			; 00000020H

; 877  : 	int iVirtualID;
; 878  : 	if (!PyTuple_GetInteger(poArgs, 0, &iVirtualID))

  00006	8d 45 fc	 lea	 eax, DWORD PTR _iVirtualID$[ebp]
  00009	50		 push	 eax
  0000a	6a 00		 push	 0
  0000c	ff 75 0c	 push	 DWORD PTR _poArgs$[ebp]
  0000f	e8 00 00 00 00	 call	 ?PyTuple_GetInteger@@YA_NPAU_object@@HPAH@Z ; PyTuple_GetInteger
  00014	83 c4 0c	 add	 esp, 12			; 0000000cH
  00017	84 c0		 test	 al, al
  00019	75 0e		 jne	 SHORT $LN2@chrGetProj
$LN9@chrGetProj:

; 904  : }

  0001b	6a 00		 push	 0
  0001d	e8 00 00 00 00	 call	 ?Py_BuildException@@YAPAU_object@@PBDZZ ; Py_BuildException
  00022	83 c4 04	 add	 esp, 4
  00025	8b e5		 mov	 esp, ebp
  00027	5d		 pop	 ebp
  00028	c3		 ret	 0
$LN2@chrGetProj:

; 879  : 		return Py_BuildException();
; 880  : 	int iHeight;
; 881  : 	if (!PyTuple_GetInteger(poArgs, 1, &iHeight))

  00029	8d 45 f8	 lea	 eax, DWORD PTR _iHeight$[ebp]
  0002c	50		 push	 eax
  0002d	6a 01		 push	 1
  0002f	ff 75 0c	 push	 DWORD PTR _poArgs$[ebp]
  00032	e8 00 00 00 00	 call	 ?PyTuple_GetInteger@@YA_NPAU_object@@HPAH@Z ; PyTuple_GetInteger
  00037	83 c4 0c	 add	 esp, 12			; 0000000cH
  0003a	84 c0		 test	 al, al
  0003c	74 dd		 je	 SHORT $LN9@chrGetProj

; 882  : 		return Py_BuildException();
; 883  : 
; 884  : 	CInstanceBase * pInstance = CPythonCharacterManager::Instance().GetInstancePtr(iVirtualID);

  0003e	8b 0d 00 00 00
	00		 mov	 ecx, DWORD PTR ?ms_singleton@?$CSingleton@VCPythonCharacterManager@@@@0PAVCPythonCharacterManager@@A ; CSingleton<CPythonCharacterManager>::ms_singleton
  00044	ff 75 fc	 push	 DWORD PTR _iVirtualID$[ebp]
  00047	83 c1 04	 add	 ecx, 4
  0004a	8b 01		 mov	 eax, DWORD PTR [ecx]
  0004c	8b 40 08	 mov	 eax, DWORD PTR [eax+8]
  0004f	ff d0		 call	 eax

; 885  : 
; 886  : 	if (!pInstance)

  00051	85 c0		 test	 eax, eax
  00053	75 16		 jne	 SHORT $LN4@chrGetProj
$LN8@chrGetProj:

; 904  : }

  00055	6a 9c		 push	 -100			; ffffff9cH
  00057	6a 9c		 push	 -100			; ffffff9cH
  00059	68 00 00 00 00	 push	 OFFSET ??_C@_02PDIHAGKM@ii@
  0005e	ff 15 00 00 00
	00		 call	 DWORD PTR __imp__Py_BuildValue
  00064	83 c4 0c	 add	 esp, 12			; 0000000cH
  00067	8b e5		 mov	 esp, ebp
  00069	5d		 pop	 ebp
  0006a	c3		 ret	 0
$LN4@chrGetProj:

; 887  : 		return Py_BuildValue("ii", -100, -100);
; 888  : 
; 889  : 	TPixelPosition PixelPosition;
; 890  : 	pInstance->NEW_GetPixelPosition(&PixelPosition);

  0006b	8d 4d e0	 lea	 ecx, DWORD PTR _PixelPosition$[ebp]
  0006e	51		 push	 ecx
  0006f	8b c8		 mov	 ecx, eax
  00071	e8 00 00 00 00	 call	 ?NEW_GetPixelPosition@CInstanceBase@@QAEXPAUD3DXVECTOR3@@@Z ; CInstanceBase::NEW_GetPixelPosition
  00076	66 0f 6e 45 f8	 movd	 xmm0, DWORD PTR _iHeight$[ebp]

; 891  : 
; 892  : 	CPythonGraphic & rpyGraphic = CPythonGraphic::Instance();
; 893  : 
; 894  : 	float fx, fy, fz;
; 895  : 	rpyGraphic.ProjectPosition(PixelPosition.x,

  0007b	8d 45 f4	 lea	 eax, DWORD PTR _fz$[ebp]
  0007e	8b 0d 00 00 00
	00		 mov	 ecx, DWORD PTR ?ms_singleton@?$CSingleton@VCPythonGraphic@@@@0PAVCPythonGraphic@@A ; CSingleton<CPythonGraphic>::ms_singleton
  00084	50		 push	 eax
  00085	0f 5b c0	 cvtdq2ps xmm0, xmm0
  00088	8d 45 f0	 lea	 eax, DWORD PTR _fy$[ebp]
  0008b	50		 push	 eax
  0008c	8d 45 ec	 lea	 eax, DWORD PTR _fx$[ebp]
  0008f	50		 push	 eax
  00090	83 ec 0c	 sub	 esp, 12			; 0000000cH
  00093	f3 0f 58 45 e8	 addss	 xmm0, DWORD PTR _PixelPosition$[ebp+8]
  00098	f3 0f 11 44 24
	08		 movss	 DWORD PTR [esp+8], xmm0
  0009e	f3 0f 10 45 e4	 movss	 xmm0, DWORD PTR _PixelPosition$[ebp+4]
  000a3	0f 57 05 00 00
	00 00		 xorps	 xmm0, DWORD PTR __xmm@80000000800000008000000080000000
  000aa	f3 0f 11 44 24
	04		 movss	 DWORD PTR [esp+4], xmm0
  000b0	f3 0f 10 45 e0	 movss	 xmm0, DWORD PTR _PixelPosition$[ebp]
  000b5	f3 0f 11 04 24	 movss	 DWORD PTR [esp], xmm0
  000ba	e8 00 00 00 00	 call	 ?ProjectPosition@CScreen@@QAEXMMMPAM00@Z ; CScreen::ProjectPosition

; 896  : 							   -PixelPosition.y,
; 897  : 							   PixelPosition.z + float(iHeight),
; 898  : 							   &fx, &fy, &fz);
; 899  : 
; 900  : 	if (1 == int(fz))

  000bf	f3 0f 2c 45 f4	 cvttss2si eax, DWORD PTR _fz$[ebp]
  000c4	83 f8 01	 cmp	 eax, 1
  000c7	74 8c		 je	 SHORT $LN8@chrGetProj

; 901  : 		return Py_BuildValue("ii", -100, -100);
; 902  : 
; 903  : 	return Py_BuildValue("ii", int(fx), int(fy));

  000c9	f3 0f 2c 45 f0	 cvttss2si eax, DWORD PTR _fy$[ebp]
  000ce	50		 push	 eax
  000cf	f3 0f 2c 45 ec	 cvttss2si eax, DWORD PTR _fx$[ebp]
  000d4	50		 push	 eax

; 904  : }

  000d5	68 00 00 00 00	 push	 OFFSET ??_C@_02PDIHAGKM@ii@
  000da	ff 15 00 00 00
	00		 call	 DWORD PTR __imp__Py_BuildValue
  000e0	83 c4 0c	 add	 esp, 12			; 0000000cH
  000e3	8b e5		 mov	 esp, ebp
  000e5	5d		 pop	 ebp
  000e6	c3		 ret	 0
?chrGetProjectPosition@@YAPAU_object@@PAU1@0@Z ENDP	; chrGetProjectPosition
_TEXT	ENDS
; Function compile flags: /Ogtp
; File E:\Metin2_server\SolWayneSF v6\ClientVS22\source\UserInterface\PythonCharacterModule.cpp
;	COMDAT ?chrGetVirtualNumber@@YAPAU_object@@PAU1@0@Z
_TEXT	SEGMENT
_iVirtualID$ = -4					; size = 4
_poSelf$ = 8						; size = 4
_poArgs$ = 12						; size = 4
?chrGetVirtualNumber@@YAPAU_object@@PAU1@0@Z PROC	; chrGetVirtualNumber, COMDAT

; 907  : {

  00000	55		 push	 ebp
  00001	8b ec		 mov	 ebp, esp
  00003	51		 push	 ecx

; 908  : 	int iVirtualID;
; 909  : 	if (!PyTuple_GetInteger(poArgs, 0, &iVirtualID))

  00004	8d 45 fc	 lea	 eax, DWORD PTR _iVirtualID$[ebp]
  00007	50		 push	 eax
  00008	6a 00		 push	 0
  0000a	ff 75 0c	 push	 DWORD PTR _poArgs$[ebp]
  0000d	e8 00 00 00 00	 call	 ?PyTuple_GetInteger@@YA_NPAU_object@@HPAH@Z ; PyTuple_GetInteger
  00012	83 c4 0c	 add	 esp, 12			; 0000000cH
  00015	84 c0		 test	 al, al
  00017	75 0e		 jne	 SHORT $LN2@chrGetVirt

; 910  : 		return Py_BuildException();

  00019	6a 00		 push	 0
  0001b	e8 00 00 00 00	 call	 ?Py_BuildException@@YAPAU_object@@PBDZZ ; Py_BuildException
  00020	83 c4 04	 add	 esp, 4

; 918  : }

  00023	8b e5		 mov	 esp, ebp
  00025	5d		 pop	 ebp
  00026	c3		 ret	 0
$LN2@chrGetVirt:

; 911  : 
; 912  : 	CInstanceBase * pkInst = CPythonCharacterManager::Instance().GetInstancePtr(iVirtualID);

  00027	8b 0d 00 00 00
	00		 mov	 ecx, DWORD PTR ?ms_singleton@?$CSingleton@VCPythonCharacterManager@@@@0PAVCPythonCharacterManager@@A ; CSingleton<CPythonCharacterManager>::ms_singleton
  0002d	ff 75 fc	 push	 DWORD PTR _iVirtualID$[ebp]
  00030	83 c1 04	 add	 ecx, 4
  00033	8b 01		 mov	 eax, DWORD PTR [ecx]
  00035	ff 50 08	 call	 DWORD PTR [eax+8]

; 913  : 
; 914  : 	if (NULL != pkInst)

  00038	85 c0		 test	 eax, eax
  0003a	74 1a		 je	 SHORT $LN3@chrGetVirt

; 915  : 		return Py_BuildValue("i", pkInst->GetVirtualNumber());

  0003c	8b c8		 mov	 ecx, eax
  0003e	e8 00 00 00 00	 call	 ?GetVirtualNumber@CInstanceBase@@QAEKXZ ; CInstanceBase::GetVirtualNumber
  00043	50		 push	 eax

; 918  : }

  00044	68 00 00 00 00	 push	 OFFSET ??_C@_01KBJDNOO@i@
  00049	ff 15 00 00 00
	00		 call	 DWORD PTR __imp__Py_BuildValue
  0004f	83 c4 08	 add	 esp, 8
  00052	8b e5		 mov	 esp, ebp
  00054	5d		 pop	 ebp
  00055	c3		 ret	 0
$LN3@chrGetVirt:

; 916  : 
; 917  : 	return Py_BuildValue("i", CActorInstance::TYPE_PC);

  00056	6a 06		 push	 6

; 918  : }

  00058	68 00 00 00 00	 push	 OFFSET ??_C@_01KBJDNOO@i@
  0005d	ff 15 00 00 00
	00		 call	 DWORD PTR __imp__Py_BuildValue
  00063	83 c4 08	 add	 esp, 8
  00066	8b e5		 mov	 esp, ebp
  00068	5d		 pop	 ebp
  00069	c3		 ret	 0
?chrGetVirtualNumber@@YAPAU_object@@PAU1@0@Z ENDP	; chrGetVirtualNumber
_TEXT	ENDS
; Function compile flags: /Ogtp
; File E:\Metin2_server\SolWayneSF v6\ClientVS22\source\UserInterface\PythonCharacterModule.cpp
;	COMDAT ?chrGetInstanceType@@YAPAU_object@@PAU1@0@Z
_TEXT	SEGMENT
_iVirtualID$ = -4					; size = 4
_poSelf$ = 8						; size = 4
_poArgs$ = 12						; size = 4
?chrGetInstanceType@@YAPAU_object@@PAU1@0@Z PROC	; chrGetInstanceType, COMDAT

; 921  : {

  00000	55		 push	 ebp
  00001	8b ec		 mov	 ebp, esp
  00003	51		 push	 ecx

; 922  : 	int iVirtualID;
; 923  : 	if (!PyTuple_GetInteger(poArgs, 0, &iVirtualID))

  00004	8d 45 fc	 lea	 eax, DWORD PTR _iVirtualID$[ebp]
  00007	50		 push	 eax
  00008	6a 00		 push	 0
  0000a	ff 75 0c	 push	 DWORD PTR _poArgs$[ebp]
  0000d	e8 00 00 00 00	 call	 ?PyTuple_GetInteger@@YA_NPAU_object@@HPAH@Z ; PyTuple_GetInteger
  00012	83 c4 0c	 add	 esp, 12			; 0000000cH
  00015	84 c0		 test	 al, al
  00017	75 0e		 jne	 SHORT $LN2@chrGetInst

; 924  : 		return Py_BuildException();

  00019	6a 00		 push	 0
  0001b	e8 00 00 00 00	 call	 ?Py_BuildException@@YAPAU_object@@PBDZZ ; Py_BuildException
  00020	83 c4 04	 add	 esp, 4

; 932  : }

  00023	8b e5		 mov	 esp, ebp
  00025	5d		 pop	 ebp
  00026	c3		 ret	 0
$LN2@chrGetInst:

; 925  : 
; 926  : 	CInstanceBase * pkInst = CPythonCharacterManager::Instance().GetInstancePtr(iVirtualID);

  00027	8b 0d 00 00 00
	00		 mov	 ecx, DWORD PTR ?ms_singleton@?$CSingleton@VCPythonCharacterManager@@@@0PAVCPythonCharacterManager@@A ; CSingleton<CPythonCharacterManager>::ms_singleton
  0002d	ff 75 fc	 push	 DWORD PTR _iVirtualID$[ebp]
  00030	83 c1 04	 add	 ecx, 4
  00033	8b 01		 mov	 eax, DWORD PTR [ecx]
  00035	ff 50 08	 call	 DWORD PTR [eax+8]

; 927  : 
; 928  : 	if (NULL != pkInst)

  00038	85 c0		 test	 eax, eax
  0003a	74 1a		 je	 SHORT $LN3@chrGetInst

; 929  : 		return Py_BuildValue("i", pkInst->GetInstanceType());

  0003c	8b c8		 mov	 ecx, eax
  0003e	e8 00 00 00 00	 call	 ?GetInstanceType@CInstanceBase@@QAEHXZ ; CInstanceBase::GetInstanceType
  00043	50		 push	 eax

; 932  : }

  00044	68 00 00 00 00	 push	 OFFSET ??_C@_01KBJDNOO@i@
  00049	ff 15 00 00 00
	00		 call	 DWORD PTR __imp__Py_BuildValue
  0004f	83 c4 08	 add	 esp, 8
  00052	8b e5		 mov	 esp, ebp
  00054	5d		 pop	 ebp
  00055	c3		 ret	 0
$LN3@chrGetInst:

; 930  : 
; 931  : 	return Py_BuildValue("i", CActorInstance::TYPE_PC);

  00056	6a 06		 push	 6

; 932  : }

  00058	68 00 00 00 00	 push	 OFFSET ??_C@_01KBJDNOO@i@
  0005d	ff 15 00 00 00
	00		 call	 DWORD PTR __imp__Py_BuildValue
  00063	83 c4 08	 add	 esp, 8
  00066	8b e5		 mov	 esp, ebp
  00068	5d		 pop	 ebp
  00069	c3		 ret	 0
?chrGetInstanceType@@YAPAU_object@@PAU1@0@Z ENDP	; chrGetInstanceType
_TEXT	ENDS
; Function compile flags: /Ogtp
; File E:\Metin2_server\SolWayneSF v6\ClientVS22\source\UserInterface\PythonCharacterModule.cpp
;	COMDAT ?chrGetBoundBoxOnlyXY@@YAPAU_object@@PAU1@0@Z
_TEXT	SEGMENT
_v3Max$ = -28						; size = 12
_v3Min$ = -16						; size = 12
__$ArrayPad$ = -4					; size = 4
_poSelf$ = 8						; size = 4
_poArgs$ = 12						; size = 4
?chrGetBoundBoxOnlyXY@@YAPAU_object@@PAU1@0@Z PROC	; chrGetBoundBoxOnlyXY, COMDAT

; 935  : {

  00000	55		 push	 ebp
  00001	8b ec		 mov	 ebp, esp
  00003	83 e4 c0	 and	 esp, -64		; ffffffc0H
  00006	83 ec 40	 sub	 esp, 64			; 00000040H
  00009	a1 00 00 00 00	 mov	 eax, DWORD PTR ___security_cookie
  0000e	33 c4		 xor	 eax, esp
  00010	89 44 24 3c	 mov	 DWORD PTR __$ArrayPad$[esp+64], eax

; 936  : 	CInstanceBase * pkInst = CPythonCharacterManager::Instance().GetSelectedInstancePtr();

  00014	8b 0d 00 00 00
	00		 mov	 ecx, DWORD PTR ?ms_singleton@?$CSingleton@VCPythonCharacterManager@@@@0PAVCPythonCharacterManager@@A ; CSingleton<CPythonCharacterManager>::ms_singleton
  0001a	e8 00 00 00 00	 call	 ?GetSelectedInstancePtr@CPythonCharacterManager@@QAEPAVCInstanceBase@@XZ ; CPythonCharacterManager::GetSelectedInstancePtr

; 937  : 
; 938  : 	if (!pkInst)

  0001f	85 c0		 test	 eax, eax
  00021	75 11		 jne	 SHORT $LN2@chrGetBoun

; 939  : 		return Py_BuildValue("ffff", 0.0f, 0.0f, 0.0f, 0.0f);

  00023	83 ec 20	 sub	 esp, 32			; 00000020H
  00026	0f 57 c0	 xorps	 xmm0, xmm0
  00029	0f 11 44 24 10	 movups	 XMMWORD PTR [esp+16], xmm0
  0002e	0f 11 04 24	 movups	 XMMWORD PTR [esp], xmm0
  00032	eb 4f		 jmp	 SHORT $LN4@chrGetBoun
$LN2@chrGetBoun:

; 940  : 
; 941  : 	D3DXVECTOR3 v3Min, v3Max;
; 942  : 	pkInst->GetBoundBox(&v3Min, &v3Max);

  00034	8d 4c 24 24	 lea	 ecx, DWORD PTR _v3Max$[esp+64]
  00038	51		 push	 ecx
  00039	8d 4c 24 34	 lea	 ecx, DWORD PTR _v3Min$[esp+68]
  0003d	51		 push	 ecx
  0003e	8b c8		 mov	 ecx, eax
  00040	e8 00 00 00 00	 call	 ?GetBoundBox@CInstanceBase@@QAEXPAUD3DXVECTOR3@@0@Z ; CInstanceBase::GetBoundBox
  00045	f3 0f 10 44 24
	28		 movss	 xmm0, DWORD PTR _v3Max$[esp+68]

; 943  : 
; 944  : 	return Py_BuildValue("ffff", v3Min.x, v3Min.y, v3Max.x, v3Max.y);

  0004b	83 ec 20	 sub	 esp, 32			; 00000020H
  0004e	0f 5a c0	 cvtps2pd xmm0, xmm0
  00051	f2 0f 11 44 24
	18		 movsd	 QWORD PTR [esp+24], xmm0
  00057	f3 0f 10 44 24
	44		 movss	 xmm0, DWORD PTR _v3Max$[esp+96]
  0005d	0f 5a c0	 cvtps2pd xmm0, xmm0
  00060	f2 0f 11 44 24
	10		 movsd	 QWORD PTR [esp+16], xmm0
  00066	f3 0f 10 44 24
	54		 movss	 xmm0, DWORD PTR _v3Min$[esp+100]
  0006c	0f 5a c0	 cvtps2pd xmm0, xmm0
  0006f	f2 0f 11 44 24
	08		 movsd	 QWORD PTR [esp+8], xmm0
  00075	f3 0f 10 44 24
	50		 movss	 xmm0, DWORD PTR _v3Min$[esp+96]
  0007b	0f 5a c0	 cvtps2pd xmm0, xmm0
  0007e	f2 0f 11 04 24	 movsd	 QWORD PTR [esp], xmm0
$LN4@chrGetBoun:

; 945  : }

  00083	68 00 00 00 00	 push	 OFFSET ??_C@_04EOBPFJGD@ffff@
  00088	ff 15 00 00 00
	00		 call	 DWORD PTR __imp__Py_BuildValue
  0008e	8b 4c 24 60	 mov	 ecx, DWORD PTR __$ArrayPad$[esp+100]
  00092	83 c4 24	 add	 esp, 36			; 00000024H
  00095	33 cc		 xor	 ecx, esp
  00097	e8 00 00 00 00	 call	 @__security_check_cookie@4
  0009c	8b e5		 mov	 esp, ebp
  0009e	5d		 pop	 ebp
  0009f	c3		 ret	 0
?chrGetBoundBoxOnlyXY@@YAPAU_object@@PAU1@0@Z ENDP	; chrGetBoundBoxOnlyXY
_TEXT	ENDS
; Function compile flags: /Ogtp
; File E:\Metin2_server\SolWayneSF v6\ClientVS22\source\UserInterface\PythonCharacterModule.cpp
;	COMDAT ?chrtestGetPKData@@YAPAU_object@@PAU1@0@Z
_TEXT	SEGMENT
_poSelf$ = 8						; size = 4
_poArgs$ = 12						; size = 4
?chrtestGetPKData@@YAPAU_object@@PAU1@0@Z PROC		; chrtestGetPKData, COMDAT

; 949  : 	CInstanceBase * pkInst = CPythonCharacterManager::Instance().GetSelectedInstancePtr();

  00000	8b 0d 00 00 00
	00		 mov	 ecx, DWORD PTR ?ms_singleton@?$CSingleton@VCPythonCharacterManager@@@@0PAVCPythonCharacterManager@@A ; CSingleton<CPythonCharacterManager>::ms_singleton
  00006	56		 push	 esi
  00007	e8 00 00 00 00	 call	 ?GetSelectedInstancePtr@CPythonCharacterManager@@QAEPAVCInstanceBase@@XZ ; CPythonCharacterManager::GetSelectedInstancePtr
  0000c	8b f0		 mov	 esi, eax

; 950  : 
; 951  : 	if (!pkInst)

  0000e	85 f6		 test	 esi, esi
  00010	75 13		 jne	 SHORT $LN2@chrtestGet

; 952  : 		return Py_BuildValue("ii", 0, 4);

  00012	6a 04		 push	 4
  00014	50		 push	 eax

; 955  : }

  00015	68 00 00 00 00	 push	 OFFSET ??_C@_02PDIHAGKM@ii@
  0001a	ff 15 00 00 00
	00		 call	 DWORD PTR __imp__Py_BuildValue
  00020	83 c4 0c	 add	 esp, 12			; 0000000cH
  00023	5e		 pop	 esi
  00024	c3		 ret	 0
$LN2@chrtestGet:

; 953  : 
; 954  : 	return Py_BuildValue("ii", pkInst->GetAlignment(), pkInst->GetAlignmentGrade());

  00025	8b ce		 mov	 ecx, esi
  00027	e8 00 00 00 00	 call	 ?GetAlignmentGrade@CInstanceBase@@QAEIXZ ; CInstanceBase::GetAlignmentGrade
  0002c	8b ce		 mov	 ecx, esi
  0002e	8b d0		 mov	 edx, eax
  00030	e8 00 00 00 00	 call	 ?GetAlignment@CInstanceBase@@QAEHXZ ; CInstanceBase::GetAlignment
  00035	52		 push	 edx
  00036	50		 push	 eax

; 955  : }

  00037	68 00 00 00 00	 push	 OFFSET ??_C@_02PDIHAGKM@ii@
  0003c	ff 15 00 00 00
	00		 call	 DWORD PTR __imp__Py_BuildValue
  00042	83 c4 0c	 add	 esp, 12			; 0000000cH
  00045	5e		 pop	 esi
  00046	c3		 ret	 0
?chrtestGetPKData@@YAPAU_object@@PAU1@0@Z ENDP		; chrtestGetPKData
_TEXT	ENDS
; Function compile flags: /Ogtp
; File E:\Metin2_server\SolWayneSF v6\ClientVS22\source\UserInterface\PythonCharacterModule.cpp
;	COMDAT ?chrtestSetComboType@@YAPAU_object@@PAU1@0@Z
_TEXT	SEGMENT
_iComboType$ = -4					; size = 4
_poSelf$ = 8						; size = 4
_poArgs$ = 12						; size = 4
?chrtestSetComboType@@YAPAU_object@@PAU1@0@Z PROC	; chrtestSetComboType, COMDAT

; 958  : {

  00000	55		 push	 ebp
  00001	8b ec		 mov	 ebp, esp
  00003	51		 push	 ecx

; 959  : 	int iComboType;
; 960  : 	if (!PyTuple_GetInteger(poArgs, 0, &iComboType))

  00004	8d 45 fc	 lea	 eax, DWORD PTR _iComboType$[ebp]
  00007	50		 push	 eax
  00008	6a 00		 push	 0
  0000a	ff 75 0c	 push	 DWORD PTR _poArgs$[ebp]
  0000d	e8 00 00 00 00	 call	 ?PyTuple_GetInteger@@YA_NPAU_object@@HPAH@Z ; PyTuple_GetInteger
  00012	83 c4 0c	 add	 esp, 12			; 0000000cH
  00015	84 c0		 test	 al, al
  00017	75 0e		 jne	 SHORT $LN2@chrtestSet

; 961  : 		return Py_BuildException();

  00019	6a 00		 push	 0
  0001b	e8 00 00 00 00	 call	 ?Py_BuildException@@YAPAU_object@@PBDZZ ; Py_BuildException
  00020	83 c4 04	 add	 esp, 4

; 968  : 
; 969  : 	return Py_BuildNone();
; 970  : }

  00023	8b e5		 mov	 esp, ebp
  00025	5d		 pop	 ebp
  00026	c3		 ret	 0
$LN2@chrtestSet:

; 962  : 
; 963  : 	CInstanceBase * pkInst = CPythonCharacterManager::Instance().GetSelectedInstancePtr();

  00027	8b 0d 00 00 00
	00		 mov	 ecx, DWORD PTR ?ms_singleton@?$CSingleton@VCPythonCharacterManager@@@@0PAVCPythonCharacterManager@@A ; CSingleton<CPythonCharacterManager>::ms_singleton
  0002d	e8 00 00 00 00	 call	 ?GetSelectedInstancePtr@CPythonCharacterManager@@QAEPAVCInstanceBase@@XZ ; CPythonCharacterManager::GetSelectedInstancePtr

; 964  : 	if (!pkInst)

  00032	85 c0		 test	 eax, eax
  00034	74 11		 je	 SHORT $LN5@chrtestSet

; 965  : 		return Py_BuildNone();
; 966  : 
; 967  : 	pkInst->GetGraphicThingInstanceRef().SetComboType(iComboType);

  00036	ff 75 fc	 push	 DWORD PTR _iComboType$[ebp]
  00039	8b c8		 mov	 ecx, eax
  0003b	e8 00 00 00 00	 call	 ?GetGraphicThingInstanceRef@CInstanceBase@@QAEAAVCActorInstance@@XZ ; CInstanceBase::GetGraphicThingInstanceRef
  00040	8b c8		 mov	 ecx, eax
  00042	e8 00 00 00 00	 call	 ?SetComboType@CActorInstance@@QAEXG@Z ; CActorInstance::SetComboType
$LN5@chrtestSet:

; 968  : 
; 969  : 	return Py_BuildNone();
; 970  : }

  00047	e8 00 00 00 00	 call	 ?Py_BuildNone@@YAPAU_object@@XZ ; Py_BuildNone
  0004c	8b e5		 mov	 esp, ebp
  0004e	5d		 pop	 ebp
  0004f	c3		 ret	 0
?chrtestSetComboType@@YAPAU_object@@PAU1@0@Z ENDP	; chrtestSetComboType
_TEXT	ENDS
; Function compile flags: /Ogtp
; File E:\Metin2_server\SolWayneSF v6\ClientVS22\source\UserInterface\PythonCharacterModule.cpp
; File E:\Metin2_server\SolWayneSF v6\ClientVS22\extern\include\d3dx8math.inl
; File E:\Metin2_server\SolWayneSF v6\ClientVS22\source\UserInterface\PythonCharacterModule.cpp
; File E:\Metin2_server\SolWayneSF v6\ClientVS22\extern\include\d3dx8math.inl
; File E:\Metin2_server\SolWayneSF v6\ClientVS22\source\UserInterface\PythonCharacterModule.cpp
; File E:\Metin2_server\SolWayneSF v6\ClientVS22\extern\include\d3dx8math.inl
; File E:\Metin2_server\SolWayneSF v6\ClientVS22\source\UserInterface\PythonCharacterModule.cpp
; File E:\Metin2_server\SolWayneSF v6\ClientVS22\extern\include\d3dx8math.inl
; File E:\Metin2_server\SolWayneSF v6\ClientVS22\source\UserInterface\PythonCharacterModule.cpp
; File E:\Metin2_server\SolWayneSF v6\ClientVS22\extern\include\d3dx8math.inl
; File E:\Metin2_server\SolWayneSF v6\ClientVS22\source\UserInterface\PythonCharacterModule.cpp
;	COMDAT ?chrtestSetAddRenderMode@@YAPAU_object@@PAU1@0@Z
_TEXT	SEGMENT
$T1 = -24						; size = 16
_iColor$ = -8						; size = 4
_iVirtualID$ = -4					; size = 4
_poSelf$ = 8						; size = 4
_poArgs$ = 12						; size = 4
?chrtestSetAddRenderMode@@YAPAU_object@@PAU1@0@Z PROC	; chrtestSetAddRenderMode, COMDAT

; 973  : {

  00000	55		 push	 ebp
  00001	8b ec		 mov	 ebp, esp
  00003	83 ec 18	 sub	 esp, 24			; 00000018H

; 974  : 	int iVirtualID;
; 975  : 	if (!PyTuple_GetInteger(poArgs, 0, &iVirtualID))

  00006	8d 45 fc	 lea	 eax, DWORD PTR _iVirtualID$[ebp]
  00009	56		 push	 esi
  0000a	8b 75 0c	 mov	 esi, DWORD PTR _poArgs$[ebp]
  0000d	50		 push	 eax
  0000e	6a 00		 push	 0
  00010	56		 push	 esi
  00011	e8 00 00 00 00	 call	 ?PyTuple_GetInteger@@YA_NPAU_object@@HPAH@Z ; PyTuple_GetInteger
  00016	83 c4 0c	 add	 esp, 12			; 0000000cH
  00019	84 c0		 test	 al, al
  0001b	75 0f		 jne	 SHORT $LN2@chrtestSet
$LN8@chrtestSet:

; 989  : }

  0001d	6a 00		 push	 0
  0001f	e8 00 00 00 00	 call	 ?Py_BuildException@@YAPAU_object@@PBDZZ ; Py_BuildException
  00024	83 c4 04	 add	 esp, 4
  00027	5e		 pop	 esi
  00028	8b e5		 mov	 esp, ebp
  0002a	5d		 pop	 ebp
  0002b	c3		 ret	 0
$LN2@chrtestSet:

; 976  : 		return Py_BuildException();
; 977  : 	int iColor;
; 978  : 	if (!PyTuple_GetInteger(poArgs, 1, &iColor))

  0002c	8d 45 f8	 lea	 eax, DWORD PTR _iColor$[ebp]
  0002f	50		 push	 eax
  00030	6a 01		 push	 1
  00032	56		 push	 esi
  00033	e8 00 00 00 00	 call	 ?PyTuple_GetInteger@@YA_NPAU_object@@HPAH@Z ; PyTuple_GetInteger
  00038	83 c4 0c	 add	 esp, 12			; 0000000cH
  0003b	84 c0		 test	 al, al
  0003d	74 de		 je	 SHORT $LN8@chrtestSet

; 979  : 		return Py_BuildException();
; 980  : 
; 981  : 	CInstanceBase * pkInst = CPythonCharacterManager::Instance().GetInstancePtr(iVirtualID);

  0003f	8b 0d 00 00 00
	00		 mov	 ecx, DWORD PTR ?ms_singleton@?$CSingleton@VCPythonCharacterManager@@@@0PAVCPythonCharacterManager@@A ; CSingleton<CPythonCharacterManager>::ms_singleton
  00045	ff 75 fc	 push	 DWORD PTR _iVirtualID$[ebp]
  00048	83 c1 04	 add	 ecx, 4
  0004b	8b 01		 mov	 eax, DWORD PTR [ecx]
  0004d	ff 50 08	 call	 DWORD PTR [eax+8]
  00050	8b f0		 mov	 esi, eax

; 982  : 	if (pkInst)

  00052	85 f6		 test	 esi, esi
  00054	74 79		 je	 SHORT $LN4@chrtestSet

; 983  : 	{
; 984  : 		pkInst->SetAddRenderMode();

  00056	8b ce		 mov	 ecx, esi
  00058	e8 00 00 00 00	 call	 ?SetAddRenderMode@CInstanceBase@@QAEXXZ ; CInstanceBase::SetAddRenderMode

; 985  : 		pkInst->SetAddColor(0xff000000 | iColor);

  0005d	8b 55 f8	 mov	 edx, DWORD PTR _iColor$[ebp]
; File E:\Metin2_server\SolWayneSF v6\ClientVS22\extern\include\d3dx8math.inl

; 888  :     r = f * (FLOAT) (unsigned char) (dw >> 16);

  00060	f3 0f 10 0d 00
	00 00 00	 movss	 xmm1, DWORD PTR __real@3b808081
; File E:\Metin2_server\SolWayneSF v6\ClientVS22\source\UserInterface\PythonCharacterModule.cpp

; 985  : 		pkInst->SetAddColor(0xff000000 | iColor);

  00068	81 ca 00 00 00
	ff		 or	 edx, -16777216		; ff000000H
; File E:\Metin2_server\SolWayneSF v6\ClientVS22\extern\include\d3dx8math.inl

; 888  :     r = f * (FLOAT) (unsigned char) (dw >> 16);

  0006e	8b ca		 mov	 ecx, edx
  00070	c1 e9 10	 shr	 ecx, 16			; 00000010H
  00073	0f b6 c1	 movzx	 eax, cl
; File E:\Metin2_server\SolWayneSF v6\ClientVS22\source\UserInterface\PythonCharacterModule.cpp

; 985  : 		pkInst->SetAddColor(0xff000000 | iColor);

  00076	8b ce		 mov	 ecx, esi
  00078	66 0f 6e c0	 movd	 xmm0, eax
; File E:\Metin2_server\SolWayneSF v6\ClientVS22\extern\include\d3dx8math.inl

; 889  :     g = f * (FLOAT) (unsigned char) (dw >>  8);

  0007c	8b c2		 mov	 eax, edx
  0007e	0f 5b c0	 cvtdq2ps xmm0, xmm0
  00081	c1 e8 08	 shr	 eax, 8
  00084	0f b6 c0	 movzx	 eax, al
  00087	f3 0f 59 c1	 mulss	 xmm0, xmm1
  0008b	f3 0f 11 45 e8	 movss	 DWORD PTR $T1[ebp], xmm0
  00090	66 0f 6e c0	 movd	 xmm0, eax
  00094	0f 5b c0	 cvtdq2ps xmm0, xmm0

; 890  :     b = f * (FLOAT) (unsigned char) (dw >>  0);

  00097	0f b6 c2	 movzx	 eax, dl

; 891  :     a = f * (FLOAT) (unsigned char) (dw >> 24);

  0009a	c1 ea 18	 shr	 edx, 24			; 00000018H
  0009d	f3 0f 59 c1	 mulss	 xmm0, xmm1
  000a1	f3 0f 11 45 ec	 movss	 DWORD PTR $T1[ebp+4], xmm0
  000a6	66 0f 6e c0	 movd	 xmm0, eax
; File E:\Metin2_server\SolWayneSF v6\ClientVS22\source\UserInterface\PythonCharacterModule.cpp

; 985  : 		pkInst->SetAddColor(0xff000000 | iColor);

  000aa	8d 45 e8	 lea	 eax, DWORD PTR $T1[ebp]
; File E:\Metin2_server\SolWayneSF v6\ClientVS22\extern\include\d3dx8math.inl

; 890  :     b = f * (FLOAT) (unsigned char) (dw >>  0);

  000ad	0f 5b c0	 cvtdq2ps xmm0, xmm0
; File E:\Metin2_server\SolWayneSF v6\ClientVS22\source\UserInterface\PythonCharacterModule.cpp

; 985  : 		pkInst->SetAddColor(0xff000000 | iColor);

  000b0	50		 push	 eax
; File E:\Metin2_server\SolWayneSF v6\ClientVS22\extern\include\d3dx8math.inl

; 890  :     b = f * (FLOAT) (unsigned char) (dw >>  0);

  000b1	f3 0f 59 c1	 mulss	 xmm0, xmm1
  000b5	f3 0f 11 45 f0	 movss	 DWORD PTR $T1[ebp+8], xmm0
  000ba	66 0f 6e c2	 movd	 xmm0, edx

; 891  :     a = f * (FLOAT) (unsigned char) (dw >> 24);

  000be	0f 5b c0	 cvtdq2ps xmm0, xmm0
  000c1	f3 0f 59 c1	 mulss	 xmm0, xmm1
  000c5	f3 0f 11 45 f4	 movss	 DWORD PTR $T1[ebp+12], xmm0
; File E:\Metin2_server\SolWayneSF v6\ClientVS22\source\UserInterface\PythonCharacterModule.cpp

; 985  : 		pkInst->SetAddColor(0xff000000 | iColor);

  000ca	e8 00 00 00 00	 call	 ?SetAddColor@CInstanceBase@@QAEXABUD3DXCOLOR@@@Z ; CInstanceBase::SetAddColor
$LN4@chrtestSet:

; 986  : 	}
; 987  : 
; 988  : 	return Py_BuildNone();

  000cf	e8 00 00 00 00	 call	 ?Py_BuildNone@@YAPAU_object@@XZ ; Py_BuildNone
  000d4	5e		 pop	 esi

; 989  : }

  000d5	8b e5		 mov	 esp, ebp
  000d7	5d		 pop	 ebp
  000d8	c3		 ret	 0
?chrtestSetAddRenderMode@@YAPAU_object@@PAU1@0@Z ENDP	; chrtestSetAddRenderMode
_TEXT	ENDS
; Function compile flags: /Ogtp
; File E:\Metin2_server\SolWayneSF v6\ClientVS22\source\UserInterface\PythonCharacterModule.cpp
; File E:\Metin2_server\SolWayneSF v6\ClientVS22\extern\include\d3dx8math.inl
; File E:\Metin2_server\SolWayneSF v6\ClientVS22\source\UserInterface\PythonCharacterModule.cpp
; File E:\Metin2_server\SolWayneSF v6\ClientVS22\extern\include\d3dx8math.inl
; File E:\Metin2_server\SolWayneSF v6\ClientVS22\source\UserInterface\PythonCharacterModule.cpp
; File E:\Metin2_server\SolWayneSF v6\ClientVS22\extern\include\d3dx8math.inl
; File E:\Metin2_server\SolWayneSF v6\ClientVS22\source\UserInterface\PythonCharacterModule.cpp
; File E:\Metin2_server\SolWayneSF v6\ClientVS22\extern\include\d3dx8math.inl
; File E:\Metin2_server\SolWayneSF v6\ClientVS22\source\UserInterface\PythonCharacterModule.cpp
; File E:\Metin2_server\SolWayneSF v6\ClientVS22\extern\include\d3dx8math.inl
; File E:\Metin2_server\SolWayneSF v6\ClientVS22\source\UserInterface\PythonCharacterModule.cpp
;	COMDAT ?chrtestSetModulateRenderMode@@YAPAU_object@@PAU1@0@Z
_TEXT	SEGMENT
$T1 = -24						; size = 16
_iColor$ = -8						; size = 4
_iVirtualID$ = -4					; size = 4
_poSelf$ = 8						; size = 4
_poArgs$ = 12						; size = 4
?chrtestSetModulateRenderMode@@YAPAU_object@@PAU1@0@Z PROC ; chrtestSetModulateRenderMode, COMDAT

; 992  : {

  00000	55		 push	 ebp
  00001	8b ec		 mov	 ebp, esp
  00003	83 ec 18	 sub	 esp, 24			; 00000018H

; 993  : 	int iVirtualID;
; 994  : 	if (!PyTuple_GetInteger(poArgs, 0, &iVirtualID))

  00006	8d 45 fc	 lea	 eax, DWORD PTR _iVirtualID$[ebp]
  00009	56		 push	 esi
  0000a	8b 75 0c	 mov	 esi, DWORD PTR _poArgs$[ebp]
  0000d	50		 push	 eax
  0000e	6a 00		 push	 0
  00010	56		 push	 esi
  00011	e8 00 00 00 00	 call	 ?PyTuple_GetInteger@@YA_NPAU_object@@HPAH@Z ; PyTuple_GetInteger
  00016	83 c4 0c	 add	 esp, 12			; 0000000cH
  00019	84 c0		 test	 al, al
  0001b	75 0f		 jne	 SHORT $LN2@chrtestSet
$LN8@chrtestSet:

; 1008 : }

  0001d	6a 00		 push	 0
  0001f	e8 00 00 00 00	 call	 ?Py_BuildException@@YAPAU_object@@PBDZZ ; Py_BuildException
  00024	83 c4 04	 add	 esp, 4
  00027	5e		 pop	 esi
  00028	8b e5		 mov	 esp, ebp
  0002a	5d		 pop	 ebp
  0002b	c3		 ret	 0
$LN2@chrtestSet:

; 995  : 		return Py_BuildException();
; 996  : 	int iColor;
; 997  : 	if (!PyTuple_GetInteger(poArgs, 1, &iColor))

  0002c	8d 45 f8	 lea	 eax, DWORD PTR _iColor$[ebp]
  0002f	50		 push	 eax
  00030	6a 01		 push	 1
  00032	56		 push	 esi
  00033	e8 00 00 00 00	 call	 ?PyTuple_GetInteger@@YA_NPAU_object@@HPAH@Z ; PyTuple_GetInteger
  00038	83 c4 0c	 add	 esp, 12			; 0000000cH
  0003b	84 c0		 test	 al, al
  0003d	74 de		 je	 SHORT $LN8@chrtestSet

; 998  : 		return Py_BuildException();
; 999  : 
; 1000 : 	CInstanceBase * pkInst = CPythonCharacterManager::Instance().GetInstancePtr(iVirtualID);

  0003f	8b 0d 00 00 00
	00		 mov	 ecx, DWORD PTR ?ms_singleton@?$CSingleton@VCPythonCharacterManager@@@@0PAVCPythonCharacterManager@@A ; CSingleton<CPythonCharacterManager>::ms_singleton
  00045	ff 75 fc	 push	 DWORD PTR _iVirtualID$[ebp]
  00048	83 c1 04	 add	 ecx, 4
  0004b	8b 01		 mov	 eax, DWORD PTR [ecx]
  0004d	ff 50 08	 call	 DWORD PTR [eax+8]
  00050	8b f0		 mov	 esi, eax

; 1001 : 	if (pkInst)

  00052	85 f6		 test	 esi, esi
  00054	74 79		 je	 SHORT $LN4@chrtestSet

; 1002 : 	{
; 1003 : 		pkInst->SetModulateRenderMode();

  00056	8b ce		 mov	 ecx, esi
  00058	e8 00 00 00 00	 call	 ?SetModulateRenderMode@CInstanceBase@@QAEXXZ ; CInstanceBase::SetModulateRenderMode

; 1004 : 		pkInst->SetAddColor(0xff000000 | iColor);

  0005d	8b 55 f8	 mov	 edx, DWORD PTR _iColor$[ebp]
; File E:\Metin2_server\SolWayneSF v6\ClientVS22\extern\include\d3dx8math.inl

; 888  :     r = f * (FLOAT) (unsigned char) (dw >> 16);

  00060	f3 0f 10 0d 00
	00 00 00	 movss	 xmm1, DWORD PTR __real@3b808081
; File E:\Metin2_server\SolWayneSF v6\ClientVS22\source\UserInterface\PythonCharacterModule.cpp

; 1004 : 		pkInst->SetAddColor(0xff000000 | iColor);

  00068	81 ca 00 00 00
	ff		 or	 edx, -16777216		; ff000000H
; File E:\Metin2_server\SolWayneSF v6\ClientVS22\extern\include\d3dx8math.inl

; 888  :     r = f * (FLOAT) (unsigned char) (dw >> 16);

  0006e	8b ca		 mov	 ecx, edx
  00070	c1 e9 10	 shr	 ecx, 16			; 00000010H
  00073	0f b6 c1	 movzx	 eax, cl
; File E:\Metin2_server\SolWayneSF v6\ClientVS22\source\UserInterface\PythonCharacterModule.cpp

; 1004 : 		pkInst->SetAddColor(0xff000000 | iColor);

  00076	8b ce		 mov	 ecx, esi
  00078	66 0f 6e c0	 movd	 xmm0, eax
; File E:\Metin2_server\SolWayneSF v6\ClientVS22\extern\include\d3dx8math.inl

; 889  :     g = f * (FLOAT) (unsigned char) (dw >>  8);

  0007c	8b c2		 mov	 eax, edx
  0007e	0f 5b c0	 cvtdq2ps xmm0, xmm0
  00081	c1 e8 08	 shr	 eax, 8
  00084	0f b6 c0	 movzx	 eax, al
  00087	f3 0f 59 c1	 mulss	 xmm0, xmm1
  0008b	f3 0f 11 45 e8	 movss	 DWORD PTR $T1[ebp], xmm0
  00090	66 0f 6e c0	 movd	 xmm0, eax
  00094	0f 5b c0	 cvtdq2ps xmm0, xmm0

; 890  :     b = f * (FLOAT) (unsigned char) (dw >>  0);

  00097	0f b6 c2	 movzx	 eax, dl

; 891  :     a = f * (FLOAT) (unsigned char) (dw >> 24);

  0009a	c1 ea 18	 shr	 edx, 24			; 00000018H
  0009d	f3 0f 59 c1	 mulss	 xmm0, xmm1
  000a1	f3 0f 11 45 ec	 movss	 DWORD PTR $T1[ebp+4], xmm0
  000a6	66 0f 6e c0	 movd	 xmm0, eax
; File E:\Metin2_server\SolWayneSF v6\ClientVS22\source\UserInterface\PythonCharacterModule.cpp

; 1004 : 		pkInst->SetAddColor(0xff000000 | iColor);

  000aa	8d 45 e8	 lea	 eax, DWORD PTR $T1[ebp]
; File E:\Metin2_server\SolWayneSF v6\ClientVS22\extern\include\d3dx8math.inl

; 890  :     b = f * (FLOAT) (unsigned char) (dw >>  0);

  000ad	0f 5b c0	 cvtdq2ps xmm0, xmm0
; File E:\Metin2_server\SolWayneSF v6\ClientVS22\source\UserInterface\PythonCharacterModule.cpp

; 1004 : 		pkInst->SetAddColor(0xff000000 | iColor);

  000b0	50		 push	 eax
; File E:\Metin2_server\SolWayneSF v6\ClientVS22\extern\include\d3dx8math.inl

; 890  :     b = f * (FLOAT) (unsigned char) (dw >>  0);

  000b1	f3 0f 59 c1	 mulss	 xmm0, xmm1
  000b5	f3 0f 11 45 f0	 movss	 DWORD PTR $T1[ebp+8], xmm0
  000ba	66 0f 6e c2	 movd	 xmm0, edx

; 891  :     a = f * (FLOAT) (unsigned char) (dw >> 24);

  000be	0f 5b c0	 cvtdq2ps xmm0, xmm0
  000c1	f3 0f 59 c1	 mulss	 xmm0, xmm1
  000c5	f3 0f 11 45 f4	 movss	 DWORD PTR $T1[ebp+12], xmm0
; File E:\Metin2_server\SolWayneSF v6\ClientVS22\source\UserInterface\PythonCharacterModule.cpp

; 1004 : 		pkInst->SetAddColor(0xff000000 | iColor);

  000ca	e8 00 00 00 00	 call	 ?SetAddColor@CInstanceBase@@QAEXABUD3DXCOLOR@@@Z ; CInstanceBase::SetAddColor
$LN4@chrtestSet:

; 1005 : 	}
; 1006 : 
; 1007 : 	return Py_BuildNone();

  000cf	e8 00 00 00 00	 call	 ?Py_BuildNone@@YAPAU_object@@XZ ; Py_BuildNone
  000d4	5e		 pop	 esi

; 1008 : }

  000d5	8b e5		 mov	 esp, ebp
  000d7	5d		 pop	 ebp
  000d8	c3		 ret	 0
?chrtestSetModulateRenderMode@@YAPAU_object@@PAU1@0@Z ENDP ; chrtestSetModulateRenderMode
_TEXT	ENDS
; Function compile flags: /Ogtp
; File E:\Metin2_server\SolWayneSF v6\ClientVS22\source\UserInterface\PythonCharacterModule.cpp
; File E:\Metin2_server\SolWayneSF v6\ClientVS22\extern\include\d3dx8math.inl
; File E:\Metin2_server\SolWayneSF v6\ClientVS22\source\UserInterface\PythonCharacterModule.cpp
; File E:\Metin2_server\SolWayneSF v6\ClientVS22\extern\include\d3dx8math.inl
; File E:\Metin2_server\SolWayneSF v6\ClientVS22\source\UserInterface\PythonCharacterModule.cpp
; File E:\Metin2_server\SolWayneSF v6\ClientVS22\extern\include\d3dx8math.inl
; File E:\Metin2_server\SolWayneSF v6\ClientVS22\source\UserInterface\PythonCharacterModule.cpp
; File E:\Metin2_server\SolWayneSF v6\ClientVS22\extern\include\d3dx8math.inl
; File E:\Metin2_server\SolWayneSF v6\ClientVS22\source\UserInterface\PythonCharacterModule.cpp
;	COMDAT ?chrtestSetAddRenderModeRGB@@YAPAU_object@@PAU1@0@Z
_TEXT	SEGMENT
$T1 = -32						; size = 16
_fb$ = -16						; size = 4
_fg$ = -12						; size = 4
_fr$ = -8						; size = 4
_iVirtualID$ = -4					; size = 4
_poSelf$ = 8						; size = 4
_poArgs$ = 12						; size = 4
?chrtestSetAddRenderModeRGB@@YAPAU_object@@PAU1@0@Z PROC ; chrtestSetAddRenderModeRGB, COMDAT

; 1011 : {

  00000	55		 push	 ebp
  00001	8b ec		 mov	 ebp, esp
  00003	83 ec 20	 sub	 esp, 32			; 00000020H

; 1012 : 	int iVirtualID;
; 1013 : 	if (!PyTuple_GetInteger(poArgs, 0, &iVirtualID))

  00006	8d 45 fc	 lea	 eax, DWORD PTR _iVirtualID$[ebp]
  00009	56		 push	 esi
  0000a	8b 75 0c	 mov	 esi, DWORD PTR _poArgs$[ebp]
  0000d	50		 push	 eax
  0000e	6a 00		 push	 0
  00010	56		 push	 esi
  00011	e8 00 00 00 00	 call	 ?PyTuple_GetInteger@@YA_NPAU_object@@HPAH@Z ; PyTuple_GetInteger
  00016	83 c4 0c	 add	 esp, 12			; 0000000cH
  00019	84 c0		 test	 al, al
  0001b	75 0f		 jne	 SHORT $LN2@chrtestSet
$LN10@chrtestSet:

; 1033 : }

  0001d	6a 00		 push	 0
  0001f	e8 00 00 00 00	 call	 ?Py_BuildException@@YAPAU_object@@PBDZZ ; Py_BuildException
  00024	83 c4 04	 add	 esp, 4
  00027	5e		 pop	 esi
  00028	8b e5		 mov	 esp, ebp
  0002a	5d		 pop	 ebp
  0002b	c3		 ret	 0
$LN2@chrtestSet:

; 1014 : 		return Py_BuildException();
; 1015 : 	float fr;
; 1016 : 	if (!PyTuple_GetFloat(poArgs, 1, &fr))

  0002c	8d 45 f8	 lea	 eax, DWORD PTR _fr$[ebp]
  0002f	50		 push	 eax
  00030	6a 01		 push	 1
  00032	56		 push	 esi
  00033	e8 00 00 00 00	 call	 ?PyTuple_GetFloat@@YA_NPAU_object@@HPAM@Z ; PyTuple_GetFloat
  00038	83 c4 0c	 add	 esp, 12			; 0000000cH
  0003b	84 c0		 test	 al, al
  0003d	74 de		 je	 SHORT $LN10@chrtestSet

; 1017 : 		return Py_BuildException();
; 1018 : 	float fg;
; 1019 : 	if (!PyTuple_GetFloat(poArgs, 2, &fg))

  0003f	8d 45 f4	 lea	 eax, DWORD PTR _fg$[ebp]
  00042	50		 push	 eax
  00043	6a 02		 push	 2
  00045	56		 push	 esi
  00046	e8 00 00 00 00	 call	 ?PyTuple_GetFloat@@YA_NPAU_object@@HPAM@Z ; PyTuple_GetFloat
  0004b	83 c4 0c	 add	 esp, 12			; 0000000cH
  0004e	84 c0		 test	 al, al
  00050	74 cb		 je	 SHORT $LN10@chrtestSet

; 1020 : 		return Py_BuildException();
; 1021 : 	float fb;
; 1022 : 	if (!PyTuple_GetFloat(poArgs, 3, &fb))

  00052	8d 45 f0	 lea	 eax, DWORD PTR _fb$[ebp]
  00055	50		 push	 eax
  00056	6a 03		 push	 3
  00058	56		 push	 esi
  00059	e8 00 00 00 00	 call	 ?PyTuple_GetFloat@@YA_NPAU_object@@HPAM@Z ; PyTuple_GetFloat
  0005e	83 c4 0c	 add	 esp, 12			; 0000000cH
  00061	84 c0		 test	 al, al
  00063	74 b8		 je	 SHORT $LN10@chrtestSet

; 1023 : 		return Py_BuildException();
; 1024 : 
; 1025 : 	CInstanceBase * pkInst = CPythonCharacterManager::Instance().GetInstancePtr(iVirtualID);

  00065	8b 0d 00 00 00
	00		 mov	 ecx, DWORD PTR ?ms_singleton@?$CSingleton@VCPythonCharacterManager@@@@0PAVCPythonCharacterManager@@A ; CSingleton<CPythonCharacterManager>::ms_singleton
  0006b	ff 75 fc	 push	 DWORD PTR _iVirtualID$[ebp]
  0006e	83 c1 04	 add	 ecx, 4
  00071	8b 01		 mov	 eax, DWORD PTR [ecx]
  00073	ff 50 08	 call	 DWORD PTR [eax+8]
  00076	8b f0		 mov	 esi, eax

; 1026 : 	if (pkInst)

  00078	85 f6		 test	 esi, esi
  0007a	74 37		 je	 SHORT $LN6@chrtestSet

; 1027 : 	{
; 1028 : 		pkInst->SetAddRenderMode();

  0007c	8b ce		 mov	 ecx, esi
  0007e	e8 00 00 00 00	 call	 ?SetAddRenderMode@CInstanceBase@@QAEXXZ ; CInstanceBase::SetAddRenderMode
; File E:\Metin2_server\SolWayneSF v6\ClientVS22\extern\include\d3dx8math.inl

; 920  :     r = fr;

  00083	f3 0f 10 45 f8	 movss	 xmm0, DWORD PTR _fr$[ebp]
; File E:\Metin2_server\SolWayneSF v6\ClientVS22\source\UserInterface\PythonCharacterModule.cpp

; 1029 : 		pkInst->SetAddColor(D3DXCOLOR(fr, fg, fb, 1.0f));

  00088	8d 45 e0	 lea	 eax, DWORD PTR $T1[ebp]
; File E:\Metin2_server\SolWayneSF v6\ClientVS22\extern\include\d3dx8math.inl

; 920  :     r = fr;

  0008b	f3 0f 11 45 e0	 movss	 DWORD PTR $T1[ebp], xmm0
; File E:\Metin2_server\SolWayneSF v6\ClientVS22\source\UserInterface\PythonCharacterModule.cpp

; 1029 : 		pkInst->SetAddColor(D3DXCOLOR(fr, fg, fb, 1.0f));

  00090	8b ce		 mov	 ecx, esi
; File E:\Metin2_server\SolWayneSF v6\ClientVS22\extern\include\d3dx8math.inl

; 921  :     g = fg;

  00092	f3 0f 10 45 f4	 movss	 xmm0, DWORD PTR _fg$[ebp]
  00097	f3 0f 11 45 e4	 movss	 DWORD PTR $T1[ebp+4], xmm0

; 922  :     b = fb;

  0009c	f3 0f 10 45 f0	 movss	 xmm0, DWORD PTR _fb$[ebp]
; File E:\Metin2_server\SolWayneSF v6\ClientVS22\source\UserInterface\PythonCharacterModule.cpp

; 1029 : 		pkInst->SetAddColor(D3DXCOLOR(fr, fg, fb, 1.0f));

  000a1	50		 push	 eax
; File E:\Metin2_server\SolWayneSF v6\ClientVS22\extern\include\d3dx8math.inl

; 922  :     b = fb;

  000a2	f3 0f 11 45 e8	 movss	 DWORD PTR $T1[ebp+8], xmm0

; 923  :     a = fa;

  000a7	c7 45 ec 00 00
	80 3f		 mov	 DWORD PTR $T1[ebp+12], 1065353216 ; 3f800000H
; File E:\Metin2_server\SolWayneSF v6\ClientVS22\source\UserInterface\PythonCharacterModule.cpp

; 1029 : 		pkInst->SetAddColor(D3DXCOLOR(fr, fg, fb, 1.0f));

  000ae	e8 00 00 00 00	 call	 ?SetAddColor@CInstanceBase@@QAEXABUD3DXCOLOR@@@Z ; CInstanceBase::SetAddColor
$LN6@chrtestSet:

; 1030 : 	}
; 1031 : 
; 1032 : 	return Py_BuildNone();

  000b3	e8 00 00 00 00	 call	 ?Py_BuildNone@@YAPAU_object@@XZ ; Py_BuildNone
  000b8	5e		 pop	 esi

; 1033 : }

  000b9	8b e5		 mov	 esp, ebp
  000bb	5d		 pop	 ebp
  000bc	c3		 ret	 0
?chrtestSetAddRenderModeRGB@@YAPAU_object@@PAU1@0@Z ENDP ; chrtestSetAddRenderModeRGB
_TEXT	ENDS
; Function compile flags: /Ogtp
; File E:\Metin2_server\SolWayneSF v6\ClientVS22\source\UserInterface\PythonCharacterModule.cpp
; File E:\Metin2_server\SolWayneSF v6\ClientVS22\extern\include\d3dx8math.inl
; File E:\Metin2_server\SolWayneSF v6\ClientVS22\source\UserInterface\PythonCharacterModule.cpp
; File E:\Metin2_server\SolWayneSF v6\ClientVS22\extern\include\d3dx8math.inl
; File E:\Metin2_server\SolWayneSF v6\ClientVS22\source\UserInterface\PythonCharacterModule.cpp
; File E:\Metin2_server\SolWayneSF v6\ClientVS22\extern\include\d3dx8math.inl
; File E:\Metin2_server\SolWayneSF v6\ClientVS22\source\UserInterface\PythonCharacterModule.cpp
; File E:\Metin2_server\SolWayneSF v6\ClientVS22\extern\include\d3dx8math.inl
; File E:\Metin2_server\SolWayneSF v6\ClientVS22\source\UserInterface\PythonCharacterModule.cpp
;	COMDAT ?chrtestSetModulateRenderModeRGB@@YAPAU_object@@PAU1@0@Z
_TEXT	SEGMENT
$T1 = -32						; size = 16
_fb$ = -16						; size = 4
_fg$ = -12						; size = 4
_fr$ = -8						; size = 4
_iVirtualID$ = -4					; size = 4
_poSelf$ = 8						; size = 4
_poArgs$ = 12						; size = 4
?chrtestSetModulateRenderModeRGB@@YAPAU_object@@PAU1@0@Z PROC ; chrtestSetModulateRenderModeRGB, COMDAT

; 1036 : {

  00000	55		 push	 ebp
  00001	8b ec		 mov	 ebp, esp
  00003	83 ec 20	 sub	 esp, 32			; 00000020H

; 1037 : 	int iVirtualID;
; 1038 : 	if (!PyTuple_GetInteger(poArgs, 0, &iVirtualID))

  00006	8d 45 fc	 lea	 eax, DWORD PTR _iVirtualID$[ebp]
  00009	56		 push	 esi
  0000a	8b 75 0c	 mov	 esi, DWORD PTR _poArgs$[ebp]
  0000d	50		 push	 eax
  0000e	6a 00		 push	 0
  00010	56		 push	 esi
  00011	e8 00 00 00 00	 call	 ?PyTuple_GetInteger@@YA_NPAU_object@@HPAH@Z ; PyTuple_GetInteger
  00016	83 c4 0c	 add	 esp, 12			; 0000000cH
  00019	84 c0		 test	 al, al
  0001b	75 0f		 jne	 SHORT $LN2@chrtestSet
$LN10@chrtestSet:

; 1058 : }

  0001d	6a 00		 push	 0
  0001f	e8 00 00 00 00	 call	 ?Py_BuildException@@YAPAU_object@@PBDZZ ; Py_BuildException
  00024	83 c4 04	 add	 esp, 4
  00027	5e		 pop	 esi
  00028	8b e5		 mov	 esp, ebp
  0002a	5d		 pop	 ebp
  0002b	c3		 ret	 0
$LN2@chrtestSet:

; 1039 : 		return Py_BuildException();
; 1040 : 	float fr;
; 1041 : 	if (!PyTuple_GetFloat(poArgs, 1, &fr))

  0002c	8d 45 f8	 lea	 eax, DWORD PTR _fr$[ebp]
  0002f	50		 push	 eax
  00030	6a 01		 push	 1
  00032	56		 push	 esi
  00033	e8 00 00 00 00	 call	 ?PyTuple_GetFloat@@YA_NPAU_object@@HPAM@Z ; PyTuple_GetFloat
  00038	83 c4 0c	 add	 esp, 12			; 0000000cH
  0003b	84 c0		 test	 al, al
  0003d	74 de		 je	 SHORT $LN10@chrtestSet

; 1042 : 		return Py_BuildException();
; 1043 : 	float fg;
; 1044 : 	if (!PyTuple_GetFloat(poArgs, 2, &fg))

  0003f	8d 45 f4	 lea	 eax, DWORD PTR _fg$[ebp]
  00042	50		 push	 eax
  00043	6a 02		 push	 2
  00045	56		 push	 esi
  00046	e8 00 00 00 00	 call	 ?PyTuple_GetFloat@@YA_NPAU_object@@HPAM@Z ; PyTuple_GetFloat
  0004b	83 c4 0c	 add	 esp, 12			; 0000000cH
  0004e	84 c0		 test	 al, al
  00050	74 cb		 je	 SHORT $LN10@chrtestSet

; 1045 : 		return Py_BuildException();
; 1046 : 	float fb;
; 1047 : 	if (!PyTuple_GetFloat(poArgs, 3, &fb))

  00052	8d 45 f0	 lea	 eax, DWORD PTR _fb$[ebp]
  00055	50		 push	 eax
  00056	6a 03		 push	 3
  00058	56		 push	 esi
  00059	e8 00 00 00 00	 call	 ?PyTuple_GetFloat@@YA_NPAU_object@@HPAM@Z ; PyTuple_GetFloat
  0005e	83 c4 0c	 add	 esp, 12			; 0000000cH
  00061	84 c0		 test	 al, al
  00063	74 b8		 je	 SHORT $LN10@chrtestSet

; 1048 : 		return Py_BuildException();
; 1049 : 
; 1050 : 	CInstanceBase * pkInst = CPythonCharacterManager::Instance().GetInstancePtr(iVirtualID);

  00065	8b 0d 00 00 00
	00		 mov	 ecx, DWORD PTR ?ms_singleton@?$CSingleton@VCPythonCharacterManager@@@@0PAVCPythonCharacterManager@@A ; CSingleton<CPythonCharacterManager>::ms_singleton
  0006b	ff 75 fc	 push	 DWORD PTR _iVirtualID$[ebp]
  0006e	83 c1 04	 add	 ecx, 4
  00071	8b 01		 mov	 eax, DWORD PTR [ecx]
  00073	ff 50 08	 call	 DWORD PTR [eax+8]
  00076	8b f0		 mov	 esi, eax

; 1051 : 	if (pkInst)

  00078	85 f6		 test	 esi, esi
  0007a	74 37		 je	 SHORT $LN6@chrtestSet

; 1052 : 	{
; 1053 : 		pkInst->SetModulateRenderMode();

  0007c	8b ce		 mov	 ecx, esi
  0007e	e8 00 00 00 00	 call	 ?SetModulateRenderMode@CInstanceBase@@QAEXXZ ; CInstanceBase::SetModulateRenderMode
; File E:\Metin2_server\SolWayneSF v6\ClientVS22\extern\include\d3dx8math.inl

; 920  :     r = fr;

  00083	f3 0f 10 45 f8	 movss	 xmm0, DWORD PTR _fr$[ebp]
; File E:\Metin2_server\SolWayneSF v6\ClientVS22\source\UserInterface\PythonCharacterModule.cpp

; 1054 : 		pkInst->SetAddColor(D3DXCOLOR(fr, fg, fb, 1.0f));

  00088	8d 45 e0	 lea	 eax, DWORD PTR $T1[ebp]
; File E:\Metin2_server\SolWayneSF v6\ClientVS22\extern\include\d3dx8math.inl

; 920  :     r = fr;

  0008b	f3 0f 11 45 e0	 movss	 DWORD PTR $T1[ebp], xmm0
; File E:\Metin2_server\SolWayneSF v6\ClientVS22\source\UserInterface\PythonCharacterModule.cpp

; 1054 : 		pkInst->SetAddColor(D3DXCOLOR(fr, fg, fb, 1.0f));

  00090	8b ce		 mov	 ecx, esi
; File E:\Metin2_server\SolWayneSF v6\ClientVS22\extern\include\d3dx8math.inl

; 921  :     g = fg;

  00092	f3 0f 10 45 f4	 movss	 xmm0, DWORD PTR _fg$[ebp]
  00097	f3 0f 11 45 e4	 movss	 DWORD PTR $T1[ebp+4], xmm0

; 922  :     b = fb;

  0009c	f3 0f 10 45 f0	 movss	 xmm0, DWORD PTR _fb$[ebp]
; File E:\Metin2_server\SolWayneSF v6\ClientVS22\source\UserInterface\PythonCharacterModule.cpp

; 1054 : 		pkInst->SetAddColor(D3DXCOLOR(fr, fg, fb, 1.0f));

  000a1	50		 push	 eax
; File E:\Metin2_server\SolWayneSF v6\ClientVS22\extern\include\d3dx8math.inl

; 922  :     b = fb;

  000a2	f3 0f 11 45 e8	 movss	 DWORD PTR $T1[ebp+8], xmm0

; 923  :     a = fa;

  000a7	c7 45 ec 00 00
	80 3f		 mov	 DWORD PTR $T1[ebp+12], 1065353216 ; 3f800000H
; File E:\Metin2_server\SolWayneSF v6\ClientVS22\source\UserInterface\PythonCharacterModule.cpp

; 1054 : 		pkInst->SetAddColor(D3DXCOLOR(fr, fg, fb, 1.0f));

  000ae	e8 00 00 00 00	 call	 ?SetAddColor@CInstanceBase@@QAEXABUD3DXCOLOR@@@Z ; CInstanceBase::SetAddColor
$LN6@chrtestSet:

; 1055 : 	}
; 1056 : 
; 1057 : 	return Py_BuildNone();

  000b3	e8 00 00 00 00	 call	 ?Py_BuildNone@@YAPAU_object@@XZ ; Py_BuildNone
  000b8	5e		 pop	 esi

; 1058 : }

  000b9	8b e5		 mov	 esp, ebp
  000bb	5d		 pop	 ebp
  000bc	c3		 ret	 0
?chrtestSetModulateRenderModeRGB@@YAPAU_object@@PAU1@0@Z ENDP ; chrtestSetModulateRenderModeRGB
_TEXT	ENDS
; Function compile flags: /Ogtp
; File E:\Metin2_server\SolWayneSF v6\ClientVS22\source\UserInterface\PythonCharacterModule.cpp
;	COMDAT ?chrtestSetSpecularRenderMode@@YAPAU_object@@PAU1@0@Z
_TEXT	SEGMENT
_iPart$ = -12						; size = 4
_fAlpha$ = -8						; size = 4
_iVirtualID$ = -4					; size = 4
_poSelf$ = 8						; size = 4
_poArgs$ = 12						; size = 4
?chrtestSetSpecularRenderMode@@YAPAU_object@@PAU1@0@Z PROC ; chrtestSetSpecularRenderMode, COMDAT

; 1061 : {

  00000	55		 push	 ebp
  00001	8b ec		 mov	 ebp, esp
  00003	83 ec 0c	 sub	 esp, 12			; 0000000cH

; 1062 : 	int iVirtualID;
; 1063 : 	if (!PyTuple_GetInteger(poArgs, 0, &iVirtualID))

  00006	8d 45 fc	 lea	 eax, DWORD PTR _iVirtualID$[ebp]
  00009	56		 push	 esi
  0000a	8b 75 0c	 mov	 esi, DWORD PTR _poArgs$[ebp]
  0000d	50		 push	 eax
  0000e	6a 00		 push	 0
  00010	56		 push	 esi
  00011	e8 00 00 00 00	 call	 ?PyTuple_GetInteger@@YA_NPAU_object@@HPAH@Z ; PyTuple_GetInteger
  00016	83 c4 0c	 add	 esp, 12			; 0000000cH
  00019	84 c0		 test	 al, al
  0001b	75 0f		 jne	 SHORT $LN2@chrtestSet
$LN7@chrtestSet:

; 1079 : }

  0001d	6a 00		 push	 0
  0001f	e8 00 00 00 00	 call	 ?Py_BuildException@@YAPAU_object@@PBDZZ ; Py_BuildException
  00024	83 c4 04	 add	 esp, 4
  00027	5e		 pop	 esi
  00028	8b e5		 mov	 esp, ebp
  0002a	5d		 pop	 ebp
  0002b	c3		 ret	 0
$LN2@chrtestSet:

; 1064 : 		return Py_BuildException();
; 1065 : 	int iPart;
; 1066 : 	if (!PyTuple_GetInteger(poArgs, 1, &iPart))

  0002c	8d 45 f4	 lea	 eax, DWORD PTR _iPart$[ebp]
  0002f	50		 push	 eax
  00030	6a 01		 push	 1
  00032	56		 push	 esi
  00033	e8 00 00 00 00	 call	 ?PyTuple_GetInteger@@YA_NPAU_object@@HPAH@Z ; PyTuple_GetInteger
  00038	83 c4 0c	 add	 esp, 12			; 0000000cH
  0003b	84 c0		 test	 al, al
  0003d	74 de		 je	 SHORT $LN7@chrtestSet

; 1067 : 		return Py_BuildException();
; 1068 : 	float fAlpha;
; 1069 : 	if (!PyTuple_GetFloat(poArgs, 2, &fAlpha))

  0003f	8d 45 f8	 lea	 eax, DWORD PTR _fAlpha$[ebp]
  00042	50		 push	 eax
  00043	6a 02		 push	 2
  00045	56		 push	 esi
  00046	e8 00 00 00 00	 call	 ?PyTuple_GetFloat@@YA_NPAU_object@@HPAM@Z ; PyTuple_GetFloat
  0004b	83 c4 0c	 add	 esp, 12			; 0000000cH
  0004e	84 c0		 test	 al, al
  00050	74 cb		 je	 SHORT $LN7@chrtestSet

; 1070 : 		return Py_BuildException();
; 1071 : 
; 1072 : 	CInstanceBase * pkInst = CPythonCharacterManager::Instance().GetInstancePtr(iVirtualID);

  00052	8b 0d 00 00 00
	00		 mov	 ecx, DWORD PTR ?ms_singleton@?$CSingleton@VCPythonCharacterManager@@@@0PAVCPythonCharacterManager@@A ; CSingleton<CPythonCharacterManager>::ms_singleton
  00058	ff 75 fc	 push	 DWORD PTR _iVirtualID$[ebp]
  0005b	83 c1 04	 add	 ecx, 4
  0005e	8b 01		 mov	 eax, DWORD PTR [ecx]
  00060	ff 50 08	 call	 DWORD PTR [eax+8]

; 1073 : 	if (pkInst)

  00063	85 c0		 test	 eax, eax
  00065	74 1e		 je	 SHORT $LN5@chrtestSet

; 1074 : 	{
; 1075 : 		pkInst->GetGraphicThingInstanceRef().SetSpecularInfo(TRUE, iPart, fAlpha);

  00067	f3 0f 10 45 f8	 movss	 xmm0, DWORD PTR _fAlpha$[ebp]
  0006c	51		 push	 ecx
  0006d	f3 0f 11 04 24	 movss	 DWORD PTR [esp], xmm0
  00072	8b c8		 mov	 ecx, eax
  00074	ff 75 f4	 push	 DWORD PTR _iPart$[ebp]
  00077	6a 01		 push	 1
  00079	e8 00 00 00 00	 call	 ?GetGraphicThingInstanceRef@CInstanceBase@@QAEAAVCActorInstance@@XZ ; CInstanceBase::GetGraphicThingInstanceRef
  0007e	8b c8		 mov	 ecx, eax
  00080	e8 00 00 00 00	 call	 ?SetSpecularInfo@CActorInstance@@QAEXHHM@Z ; CActorInstance::SetSpecularInfo
$LN5@chrtestSet:

; 1076 : 	}
; 1077 : 
; 1078 : 	return Py_BuildNone();

  00085	e8 00 00 00 00	 call	 ?Py_BuildNone@@YAPAU_object@@XZ ; Py_BuildNone
  0008a	5e		 pop	 esi

; 1079 : }

  0008b	8b e5		 mov	 esp, ebp
  0008d	5d		 pop	 ebp
  0008e	c3		 ret	 0
?chrtestSetSpecularRenderMode@@YAPAU_object@@PAU1@0@Z ENDP ; chrtestSetSpecularRenderMode
_TEXT	ENDS
; Function compile flags: /Ogtp
; File E:\Metin2_server\SolWayneSF v6\ClientVS22\source\UserInterface\PythonCharacterModule.cpp
;	COMDAT ?chrtestSetSpecularRenderMode2@@YAPAU_object@@PAU1@0@Z
_TEXT	SEGMENT
_iPart$ = -12						; size = 4
_fAlpha$ = -8						; size = 4
_iVirtualID$ = -4					; size = 4
_poSelf$ = 8						; size = 4
_poArgs$ = 12						; size = 4
?chrtestSetSpecularRenderMode2@@YAPAU_object@@PAU1@0@Z PROC ; chrtestSetSpecularRenderMode2, COMDAT

; 1082 : {

  00000	55		 push	 ebp
  00001	8b ec		 mov	 ebp, esp
  00003	83 ec 0c	 sub	 esp, 12			; 0000000cH

; 1083 : 	int iVirtualID;
; 1084 : 	if (!PyTuple_GetInteger(poArgs, 0, &iVirtualID))

  00006	8d 45 fc	 lea	 eax, DWORD PTR _iVirtualID$[ebp]
  00009	56		 push	 esi
  0000a	8b 75 0c	 mov	 esi, DWORD PTR _poArgs$[ebp]
  0000d	50		 push	 eax
  0000e	6a 00		 push	 0
  00010	56		 push	 esi
  00011	e8 00 00 00 00	 call	 ?PyTuple_GetInteger@@YA_NPAU_object@@HPAH@Z ; PyTuple_GetInteger
  00016	83 c4 0c	 add	 esp, 12			; 0000000cH
  00019	84 c0		 test	 al, al
  0001b	75 0f		 jne	 SHORT $LN2@chrtestSet
$LN7@chrtestSet:

; 1100 : }

  0001d	6a 00		 push	 0
  0001f	e8 00 00 00 00	 call	 ?Py_BuildException@@YAPAU_object@@PBDZZ ; Py_BuildException
  00024	83 c4 04	 add	 esp, 4
  00027	5e		 pop	 esi
  00028	8b e5		 mov	 esp, ebp
  0002a	5d		 pop	 ebp
  0002b	c3		 ret	 0
$LN2@chrtestSet:

; 1085 : 		return Py_BuildException();
; 1086 : 	int iPart;
; 1087 : 	if (!PyTuple_GetInteger(poArgs, 1, &iPart))

  0002c	8d 45 f4	 lea	 eax, DWORD PTR _iPart$[ebp]
  0002f	50		 push	 eax
  00030	6a 01		 push	 1
  00032	56		 push	 esi
  00033	e8 00 00 00 00	 call	 ?PyTuple_GetInteger@@YA_NPAU_object@@HPAH@Z ; PyTuple_GetInteger
  00038	83 c4 0c	 add	 esp, 12			; 0000000cH
  0003b	84 c0		 test	 al, al
  0003d	74 de		 je	 SHORT $LN7@chrtestSet

; 1088 : 		return Py_BuildException();
; 1089 : 	float fAlpha;
; 1090 : 	if (!PyTuple_GetFloat(poArgs, 2, &fAlpha))

  0003f	8d 45 f8	 lea	 eax, DWORD PTR _fAlpha$[ebp]
  00042	50		 push	 eax
  00043	6a 02		 push	 2
  00045	56		 push	 esi
  00046	e8 00 00 00 00	 call	 ?PyTuple_GetFloat@@YA_NPAU_object@@HPAM@Z ; PyTuple_GetFloat
  0004b	83 c4 0c	 add	 esp, 12			; 0000000cH
  0004e	84 c0		 test	 al, al
  00050	74 cb		 je	 SHORT $LN7@chrtestSet

; 1091 : 		return Py_BuildException();
; 1092 : 
; 1093 : 	CInstanceBase * pkInst = CPythonCharacterManager::Instance().GetInstancePtr(iVirtualID);

  00052	8b 0d 00 00 00
	00		 mov	 ecx, DWORD PTR ?ms_singleton@?$CSingleton@VCPythonCharacterManager@@@@0PAVCPythonCharacterManager@@A ; CSingleton<CPythonCharacterManager>::ms_singleton
  00058	ff 75 fc	 push	 DWORD PTR _iVirtualID$[ebp]
  0005b	83 c1 04	 add	 ecx, 4
  0005e	8b 01		 mov	 eax, DWORD PTR [ecx]
  00060	ff 50 08	 call	 DWORD PTR [eax+8]

; 1094 : 	if (pkInst)

  00063	85 c0		 test	 eax, eax
  00065	74 1e		 je	 SHORT $LN5@chrtestSet

; 1095 : 	{
; 1096 : 		pkInst->GetGraphicThingInstanceRef().SetSpecularInfoForce(TRUE, iPart, fAlpha);

  00067	f3 0f 10 45 f8	 movss	 xmm0, DWORD PTR _fAlpha$[ebp]
  0006c	51		 push	 ecx
  0006d	f3 0f 11 04 24	 movss	 DWORD PTR [esp], xmm0
  00072	8b c8		 mov	 ecx, eax
  00074	ff 75 f4	 push	 DWORD PTR _iPart$[ebp]
  00077	6a 01		 push	 1
  00079	e8 00 00 00 00	 call	 ?GetGraphicThingInstanceRef@CInstanceBase@@QAEAAVCActorInstance@@XZ ; CInstanceBase::GetGraphicThingInstanceRef
  0007e	8b c8		 mov	 ecx, eax
  00080	e8 00 00 00 00	 call	 ?SetSpecularInfoForce@CActorInstance@@QAEXHHM@Z ; CActorInstance::SetSpecularInfoForce
$LN5@chrtestSet:

; 1097 : 	}
; 1098 : 
; 1099 : 	return Py_BuildNone();

  00085	e8 00 00 00 00	 call	 ?Py_BuildNone@@YAPAU_object@@XZ ; Py_BuildNone
  0008a	5e		 pop	 esi

; 1100 : }

  0008b	8b e5		 mov	 esp, ebp
  0008d	5d		 pop	 ebp
  0008e	c3		 ret	 0
?chrtestSetSpecularRenderMode2@@YAPAU_object@@PAU1@0@Z ENDP ; chrtestSetSpecularRenderMode2
_TEXT	ENDS
; Function compile flags: /Ogtp
; File E:\Metin2_server\SolWayneSF v6\ClientVS22\source\UserInterface\PythonCharacterModule.cpp
;	COMDAT ?chrtestRestoreRenderMode@@YAPAU_object@@PAU1@0@Z
_TEXT	SEGMENT
_iVirtualID$ = -4					; size = 4
_poSelf$ = 8						; size = 4
_poArgs$ = 12						; size = 4
?chrtestRestoreRenderMode@@YAPAU_object@@PAU1@0@Z PROC	; chrtestRestoreRenderMode, COMDAT

; 1103 : {

  00000	55		 push	 ebp
  00001	8b ec		 mov	 ebp, esp
  00003	51		 push	 ecx

; 1104 : 	int iVirtualID;
; 1105 : 	if (!PyTuple_GetInteger(poArgs, 0, &iVirtualID))

  00004	8d 45 fc	 lea	 eax, DWORD PTR _iVirtualID$[ebp]
  00007	50		 push	 eax
  00008	6a 00		 push	 0
  0000a	ff 75 0c	 push	 DWORD PTR _poArgs$[ebp]
  0000d	e8 00 00 00 00	 call	 ?PyTuple_GetInteger@@YA_NPAU_object@@HPAH@Z ; PyTuple_GetInteger
  00012	83 c4 0c	 add	 esp, 12			; 0000000cH
  00015	84 c0		 test	 al, al
  00017	75 0e		 jne	 SHORT $LN2@chrtestRes

; 1106 : 		return Py_BuildException();

  00019	6a 00		 push	 0
  0001b	e8 00 00 00 00	 call	 ?Py_BuildException@@YAPAU_object@@PBDZZ ; Py_BuildException
  00020	83 c4 04	 add	 esp, 4

; 1115 : }

  00023	8b e5		 mov	 esp, ebp
  00025	5d		 pop	 ebp
  00026	c3		 ret	 0
$LN2@chrtestRes:

; 1107 : 
; 1108 : 	CInstanceBase * pkInst = CPythonCharacterManager::Instance().GetInstancePtr(iVirtualID);

  00027	8b 0d 00 00 00
	00		 mov	 ecx, DWORD PTR ?ms_singleton@?$CSingleton@VCPythonCharacterManager@@@@0PAVCPythonCharacterManager@@A ; CSingleton<CPythonCharacterManager>::ms_singleton
  0002d	ff 75 fc	 push	 DWORD PTR _iVirtualID$[ebp]
  00030	83 c1 04	 add	 ecx, 4
  00033	8b 01		 mov	 eax, DWORD PTR [ecx]
  00035	ff 50 08	 call	 DWORD PTR [eax+8]

; 1109 : 	if (pkInst)

  00038	85 c0		 test	 eax, eax
  0003a	74 07		 je	 SHORT $LN3@chrtestRes

; 1110 : 	{
; 1111 : 		pkInst->RestoreRenderMode();

  0003c	8b c8		 mov	 ecx, eax
  0003e	e8 00 00 00 00	 call	 ?RestoreRenderMode@CInstanceBase@@QAEXXZ ; CInstanceBase::RestoreRenderMode
$LN3@chrtestRes:

; 1112 : 	}
; 1113 : 
; 1114 : 	return Py_BuildNone();

  00043	e8 00 00 00 00	 call	 ?Py_BuildNone@@YAPAU_object@@XZ ; Py_BuildNone

; 1115 : }

  00048	8b e5		 mov	 esp, ebp
  0004a	5d		 pop	 ebp
  0004b	c3		 ret	 0
?chrtestRestoreRenderMode@@YAPAU_object@@PAU1@0@Z ENDP	; chrtestRestoreRenderMode
_TEXT	ENDS
; Function compile flags: /Ogtp
; File E:\Metin2_server\SolWayneSF v6\ClientVS22\source\UserInterface\PythonCharacterModule.cpp
;	COMDAT ?chrFaintTest@@YAPAU_object@@PAU1@0@Z
_TEXT	SEGMENT
_poSelf$ = 8						; size = 4
_poArgs$ = 12						; size = 4
?chrFaintTest@@YAPAU_object@@PAU1@0@Z PROC		; chrFaintTest, COMDAT

; 1119 : 	CInstanceBase * pCharacterInstance = CPythonCharacterManager::Instance().GetSelectedInstancePtr();

  00000	8b 0d 00 00 00
	00		 mov	 ecx, DWORD PTR ?ms_singleton@?$CSingleton@VCPythonCharacterManager@@@@0PAVCPythonCharacterManager@@A ; CSingleton<CPythonCharacterManager>::ms_singleton
  00006	e8 00 00 00 00	 call	 ?GetSelectedInstancePtr@CPythonCharacterManager@@QAEPAVCInstanceBase@@XZ ; CPythonCharacterManager::GetSelectedInstancePtr

; 1120 : 	if (pCharacterInstance)

  0000b	85 c0		 test	 eax, eax
  0000d	74 7f		 je	 SHORT $LN4@chrFaintTe

; 1121 : 	{
; 1122 : 		if (pCharacterInstance->GetGraphicThingInstanceRef().IsFaint())

  0000f	56		 push	 esi
  00010	8b c8		 mov	 ecx, eax
  00012	e8 00 00 00 00	 call	 ?GetGraphicThingInstanceRef@CInstanceBase@@QAEAAVCActorInstance@@XZ ; CInstanceBase::GetGraphicThingInstanceRef
  00017	8b f0		 mov	 esi, eax
  00019	8b c8		 mov	 ecx, eax
  0001b	e8 00 00 00 00	 call	 ?IsFaint@CActorInstance@@QAEHXZ ; CActorInstance::IsFaint
  00020	85 c0		 test	 eax, eax
  00022	74 0f		 je	 SHORT $LN3@chrFaintTe

; 1123 : 		{
; 1124 : 			pCharacterInstance->GetGraphicThingInstanceRef().SetFaint(false);

  00024	6a 00		 push	 0

; 1131 : 			pCharacterInstance->GetGraphicThingInstanceRef().SetFaint(true);

  00026	8b ce		 mov	 ecx, esi
  00028	e8 00 00 00 00	 call	 ?SetFaint@CActorInstance@@QAEX_N@Z ; CActorInstance::SetFaint
  0002d	5e		 pop	 esi

; 1132 : 		}
; 1133 : 	}
; 1134 : 
; 1135 : 	return Py_BuildNone();

  0002e	e9 00 00 00 00	 jmp	 ?Py_BuildNone@@YAPAU_object@@XZ ; Py_BuildNone
$LN3@chrFaintTe:

; 1125 : 		}
; 1126 : 		else
; 1127 : 		{
; 1128 : 			pCharacterInstance->GetGraphicThingInstanceRef().InterceptOnceMotion(CRaceMotionData::NAME_DAMAGE_FLYING);

  00033	51		 push	 ecx
  00034	c7 04 24 00 00
	80 3f		 mov	 DWORD PTR [esp], 1065353216 ; 3f800000H
  0003b	6a 00		 push	 0
  0003d	51		 push	 ecx
  0003e	c7 04 24 cd cc
	cc 3d		 mov	 DWORD PTR [esp], 1036831949 ; 3dcccccdH
  00045	8b ce		 mov	 ecx, esi
  00047	6a 06		 push	 6
  00049	e8 00 00 00 00	 call	 ?InterceptOnceMotion@CActorInstance@@QAE_NKMIM@Z ; CActorInstance::InterceptOnceMotion

; 1129 : 			pCharacterInstance->GetGraphicThingInstanceRef().PushOnceMotion(CRaceMotionData::NAME_STAND_UP);

  0004e	83 ec 08	 sub	 esp, 8
  00051	8b ce		 mov	 ecx, esi
  00053	c7 44 24 04 00
	00 80 3f	 mov	 DWORD PTR [esp+4], 1065353216 ; 3f800000H
  0005b	c7 04 24 cd cc
	cc 3d		 mov	 DWORD PTR [esp], 1036831949 ; 3dcccccdH
  00062	6a 07		 push	 7
  00064	e8 00 00 00 00	 call	 ?PushOnceMotion@CActorInstance@@QAE_NKMM@Z ; CActorInstance::PushOnceMotion

; 1130 : 			pCharacterInstance->GetGraphicThingInstanceRef().PushLoopMotion(CRaceMotionData::NAME_WAIT);

  00069	83 ec 08	 sub	 esp, 8
  0006c	8b ce		 mov	 ecx, esi
  0006e	c7 44 24 04 00
	00 80 3f	 mov	 DWORD PTR [esp+4], 1065353216 ; 3f800000H
  00076	c7 04 24 cd cc
	cc 3d		 mov	 DWORD PTR [esp], 1036831949 ; 3dcccccdH
  0007d	6a 01		 push	 1
  0007f	e8 00 00 00 00	 call	 ?PushLoopMotion@CActorInstance@@QAE_NKMM@Z ; CActorInstance::PushLoopMotion

; 1131 : 			pCharacterInstance->GetGraphicThingInstanceRef().SetFaint(true);

  00084	6a 01		 push	 1
  00086	8b ce		 mov	 ecx, esi
  00088	e8 00 00 00 00	 call	 ?SetFaint@CActorInstance@@QAEX_N@Z ; CActorInstance::SetFaint
  0008d	5e		 pop	 esi
$LN4@chrFaintTe:

; 1132 : 		}
; 1133 : 	}
; 1134 : 
; 1135 : 	return Py_BuildNone();

  0008e	e9 00 00 00 00	 jmp	 ?Py_BuildNone@@YAPAU_object@@XZ ; Py_BuildNone
?chrFaintTest@@YAPAU_object@@PAU1@0@Z ENDP		; chrFaintTest
_TEXT	ENDS
; Function compile flags: /Ogtp
; File E:\Metin2_server\SolWayneSF v6\ClientVS22\source\UserInterface\PythonCharacterModule.cpp
;	COMDAT ?chrSetMoveSpeed@@YAPAU_object@@PAU1@0@Z
_TEXT	SEGMENT
_poSelf$ = 8						; size = 4
_poArgs$ = 12						; size = 4
?chrSetMoveSpeed@@YAPAU_object@@PAU1@0@Z PROC		; chrSetMoveSpeed, COMDAT

; 1140 : 	//int iSpeed;
; 1141 : 	//if (!PyTuple_GetInteger(poArgs, 0, &iSpeed))
; 1142 : 	//	return Py_BadArgument();
; 1143 : 
; 1144 : 	//CInstanceBase * pCharacterInstance = CPythonCharacterManager::Instance().GetSelectedInstancePtr();
; 1145 : 
; 1146 : 	//if (!pCharacterInstance)
; 1147 : 	//	return Py_BuildValue("i", 0);
; 1148 : 
; 1149 : 	//pCharacterInstance->SetMoveSpeed(iSpeed);
; 1150 : 
; 1151 : 	return Py_BuildNone();

  00000	e9 00 00 00 00	 jmp	 ?Py_BuildNone@@YAPAU_object@@XZ ; Py_BuildNone
?chrSetMoveSpeed@@YAPAU_object@@PAU1@0@Z ENDP		; chrSetMoveSpeed
_TEXT	ENDS
; Function compile flags: /Ogtp
; File E:\Metin2_server\SolWayneSF v6\ClientVS22\source\UserInterface\PythonCharacterModule.cpp
;	COMDAT ?chrSetAttackSpeed@@YAPAU_object@@PAU1@0@Z
_TEXT	SEGMENT
_poSelf$ = 8						; size = 4
_poArgs$ = 12						; size = 4
?chrSetAttackSpeed@@YAPAU_object@@PAU1@0@Z PROC		; chrSetAttackSpeed, COMDAT

; 1156 : 	//int iSpeed;
; 1157 : 	//if (!PyTuple_GetInteger(poArgs, 0, &iSpeed))
; 1158 : 	//	return Py_BadArgument();
; 1159 : 
; 1160 : 	//CInstanceBase * pCharacterInstance = CPythonCharacterManager::Instance().GetSelectedInstancePtr();
; 1161 : 
; 1162 : 	//if (!pCharacterInstance)
; 1163 : 	//	return Py_BuildValue("i", 0);
; 1164 : 
; 1165 : 	//pCharacterInstance->SetAttackSpeed(iSpeed);
; 1166 : 
; 1167 : 	return Py_BuildNone();

  00000	e9 00 00 00 00	 jmp	 ?Py_BuildNone@@YAPAU_object@@XZ ; Py_BuildNone
?chrSetAttackSpeed@@YAPAU_object@@PAU1@0@Z ENDP		; chrSetAttackSpeed
_TEXT	ENDS
; Function compile flags: /Ogtp
; File E:\Metin2_server\SolWayneSF v6\ClientVS22\source\UserInterface\PythonCharacterModule.cpp
;	COMDAT ?chrWeaponTraceSetTexture@@YAPAU_object@@PAU1@0@Z
_TEXT	SEGMENT
_szPathName$ = -4					; size = 4
_poSelf$ = 8						; size = 4
_poArgs$ = 12						; size = 4
?chrWeaponTraceSetTexture@@YAPAU_object@@PAU1@0@Z PROC	; chrWeaponTraceSetTexture, COMDAT

; 1171 : {

  00000	55		 push	 ebp
  00001	8b ec		 mov	 ebp, esp
  00003	51		 push	 ecx

; 1172 : 	char * szPathName;
; 1173 : 	if (!PyTuple_GetString(poArgs, 0, &szPathName))

  00004	8d 45 fc	 lea	 eax, DWORD PTR _szPathName$[ebp]
  00007	50		 push	 eax
  00008	6a 00		 push	 0
  0000a	ff 75 0c	 push	 DWORD PTR _poArgs$[ebp]
  0000d	e8 00 00 00 00	 call	 ?PyTuple_GetString@@YA_NPAU_object@@HPAPAD@Z ; PyTuple_GetString
  00012	83 c4 0c	 add	 esp, 12			; 0000000cH
  00015	84 c0		 test	 al, al
  00017	75 09		 jne	 SHORT $LN2@chrWeaponT

; 1174 : 		return Py_BadArgument();

  00019	e8 00 00 00 00	 call	 ?Py_BadArgument@@YAPAU_object@@XZ ; Py_BadArgument

; 1182 : }

  0001e	8b e5		 mov	 esp, ebp
  00020	5d		 pop	 ebp
  00021	c3		 ret	 0
$LN2@chrWeaponT:

; 1175 : 
; 1176 : 	CInstanceBase * pInstance = CPythonCharacterManager::Instance().GetMainInstancePtr();

  00022	8b 0d 00 00 00
	00		 mov	 ecx, DWORD PTR ?ms_singleton@?$CSingleton@VCPythonCharacterManager@@@@0PAVCPythonCharacterManager@@A ; CSingleton<CPythonCharacterManager>::ms_singleton
  00028	e8 00 00 00 00	 call	 ?GetMainInstancePtr@CPythonCharacterManager@@QAEPAVCInstanceBase@@XZ ; CPythonCharacterManager::GetMainInstancePtr

; 1177 : 	if (pInstance)

  0002d	85 c0		 test	 eax, eax
  0002f	74 11		 je	 SHORT $LN3@chrWeaponT

; 1178 : 	{
; 1179 : 		pInstance->GetGraphicThingInstanceRef().SetWeaponTraceTexture(szPathName);

  00031	ff 75 fc	 push	 DWORD PTR _szPathName$[ebp]
  00034	8b c8		 mov	 ecx, eax
  00036	e8 00 00 00 00	 call	 ?GetGraphicThingInstanceRef@CInstanceBase@@QAEAAVCActorInstance@@XZ ; CInstanceBase::GetGraphicThingInstanceRef
  0003b	8b c8		 mov	 ecx, eax
  0003d	e8 00 00 00 00	 call	 ?SetWeaponTraceTexture@CActorInstance@@QAEXPBD@Z ; CActorInstance::SetWeaponTraceTexture
$LN3@chrWeaponT:

; 1180 : 	}
; 1181 : 	return Py_BuildNone();

  00042	e8 00 00 00 00	 call	 ?Py_BuildNone@@YAPAU_object@@XZ ; Py_BuildNone

; 1182 : }

  00047	8b e5		 mov	 esp, ebp
  00049	5d		 pop	 ebp
  0004a	c3		 ret	 0
?chrWeaponTraceSetTexture@@YAPAU_object@@PAU1@0@Z ENDP	; chrWeaponTraceSetTexture
_TEXT	ENDS
; Function compile flags: /Ogtp
; File E:\Metin2_server\SolWayneSF v6\ClientVS22\source\UserInterface\PythonCharacterModule.cpp
;	COMDAT ?chrWeaponTraceUseTexture@@YAPAU_object@@PAU1@0@Z
_TEXT	SEGMENT
_poSelf$ = 8						; size = 4
_poArgs$ = 12						; size = 4
?chrWeaponTraceUseTexture@@YAPAU_object@@PAU1@0@Z PROC	; chrWeaponTraceUseTexture, COMDAT

; 1186 : 	CInstanceBase * pInstance = CPythonCharacterManager::Instance().GetMainInstancePtr();

  00000	8b 0d 00 00 00
	00		 mov	 ecx, DWORD PTR ?ms_singleton@?$CSingleton@VCPythonCharacterManager@@@@0PAVCPythonCharacterManager@@A ; CSingleton<CPythonCharacterManager>::ms_singleton
  00006	e8 00 00 00 00	 call	 ?GetMainInstancePtr@CPythonCharacterManager@@QAEPAVCInstanceBase@@XZ ; CPythonCharacterManager::GetMainInstancePtr

; 1187 : 	if (pInstance)

  0000b	85 c0		 test	 eax, eax
  0000d	74 0e		 je	 SHORT $LN2@chrWeaponT

; 1188 : 	{
; 1189 : 		pInstance->GetGraphicThingInstanceRef().UseTextureWeaponTrace();

  0000f	8b c8		 mov	 ecx, eax
  00011	e8 00 00 00 00	 call	 ?GetGraphicThingInstanceRef@CInstanceBase@@QAEAAVCActorInstance@@XZ ; CInstanceBase::GetGraphicThingInstanceRef
  00016	8b c8		 mov	 ecx, eax
  00018	e8 00 00 00 00	 call	 ?UseTextureWeaponTrace@CActorInstance@@QAEXXZ ; CActorInstance::UseTextureWeaponTrace
$LN2@chrWeaponT:

; 1190 : 	}
; 1191 : 	return Py_BuildNone();

  0001d	e9 00 00 00 00	 jmp	 ?Py_BuildNone@@YAPAU_object@@XZ ; Py_BuildNone
?chrWeaponTraceUseTexture@@YAPAU_object@@PAU1@0@Z ENDP	; chrWeaponTraceUseTexture
_TEXT	ENDS
; Function compile flags: /Ogtp
; File E:\Metin2_server\SolWayneSF v6\ClientVS22\source\UserInterface\PythonCharacterModule.cpp
;	COMDAT ?chrWeaponTraceUseAlpha@@YAPAU_object@@PAU1@0@Z
_TEXT	SEGMENT
_poSelf$ = 8						; size = 4
_poArgs$ = 12						; size = 4
?chrWeaponTraceUseAlpha@@YAPAU_object@@PAU1@0@Z PROC	; chrWeaponTraceUseAlpha, COMDAT

; 1196 : 	CInstanceBase * pInstance = CPythonCharacterManager::Instance().GetMainInstancePtr();

  00000	8b 0d 00 00 00
	00		 mov	 ecx, DWORD PTR ?ms_singleton@?$CSingleton@VCPythonCharacterManager@@@@0PAVCPythonCharacterManager@@A ; CSingleton<CPythonCharacterManager>::ms_singleton
  00006	e8 00 00 00 00	 call	 ?GetMainInstancePtr@CPythonCharacterManager@@QAEPAVCInstanceBase@@XZ ; CPythonCharacterManager::GetMainInstancePtr

; 1197 : 	if (pInstance)

  0000b	85 c0		 test	 eax, eax
  0000d	74 0e		 je	 SHORT $LN2@chrWeaponT

; 1198 : 	{
; 1199 : 		pInstance->GetGraphicThingInstanceRef().UseAlphaWeaponTrace();

  0000f	8b c8		 mov	 ecx, eax
  00011	e8 00 00 00 00	 call	 ?GetGraphicThingInstanceRef@CInstanceBase@@QAEAAVCActorInstance@@XZ ; CInstanceBase::GetGraphicThingInstanceRef
  00016	8b c8		 mov	 ecx, eax
  00018	e8 00 00 00 00	 call	 ?UseAlphaWeaponTrace@CActorInstance@@QAEXXZ ; CActorInstance::UseAlphaWeaponTrace
$LN2@chrWeaponT:

; 1200 : 	}
; 1201 : 	return Py_BuildNone();

  0001d	e9 00 00 00 00	 jmp	 ?Py_BuildNone@@YAPAU_object@@XZ ; Py_BuildNone
?chrWeaponTraceUseAlpha@@YAPAU_object@@PAU1@0@Z ENDP	; chrWeaponTraceUseAlpha
_TEXT	ENDS
; Function compile flags: /Ogtp
; File E:\Metin2_server\SolWayneSF v6\ClientVS22\source\UserInterface\PythonCharacterModule.cpp
; File E:\Metin2_server\SolWayneSF v6\ClientVS22\extern\include\d3dx8math.inl
; File E:\Metin2_server\SolWayneSF v6\ClientVS22\source\UserInterface\PythonCharacterModule.cpp
; File E:\Metin2_server\SolWayneSF v6\ClientVS22\extern\include\d3dx8math.inl
; File E:\Metin2_server\SolWayneSF v6\ClientVS22\source\UserInterface\PythonCharacterModule.cpp
;	COMDAT ?chrMoveToDestPosition@@YAPAU_object@@PAU1@0@Z
_TEXT	SEGMENT
_iy$ = -28						; size = 4
_ix$ = -24						; size = 4
_iVID$ = -20						; size = 4
$T1 = -16						; size = 12
__$ArrayPad$ = -4					; size = 4
_poSelf$ = 8						; size = 4
_poArgs$ = 12						; size = 4
?chrMoveToDestPosition@@YAPAU_object@@PAU1@0@Z PROC	; chrMoveToDestPosition, COMDAT

; 1205 : {

  00000	55		 push	 ebp
  00001	8b ec		 mov	 ebp, esp
  00003	83 ec 1c	 sub	 esp, 28			; 0000001cH
  00006	a1 00 00 00 00	 mov	 eax, DWORD PTR ___security_cookie
  0000b	33 c5		 xor	 eax, ebp
  0000d	89 45 fc	 mov	 DWORD PTR __$ArrayPad$[ebp], eax
  00010	56		 push	 esi
  00011	8b 75 0c	 mov	 esi, DWORD PTR _poArgs$[ebp]

; 1206 : 	int iVID;
; 1207 : 	if (!PyTuple_GetInteger(poArgs, 0, &iVID))

  00014	8d 45 ec	 lea	 eax, DWORD PTR _iVID$[ebp]
  00017	50		 push	 eax
  00018	6a 00		 push	 0
  0001a	56		 push	 esi
  0001b	e8 00 00 00 00	 call	 ?PyTuple_GetInteger@@YA_NPAU_object@@HPAH@Z ; PyTuple_GetInteger
  00020	83 c4 0c	 add	 esp, 12			; 0000000cH
  00023	84 c0		 test	 al, al
  00025	75 14		 jne	 SHORT $LN2@chrMoveToD
$LN10@chrMoveToD:

; 1222 : 
; 1223 : 	return Py_BuildNone();
; 1224 : }

  00027	e8 00 00 00 00	 call	 ?Py_BadArgument@@YAPAU_object@@XZ ; Py_BadArgument
  0002c	5e		 pop	 esi
  0002d	8b 4d fc	 mov	 ecx, DWORD PTR __$ArrayPad$[ebp]
  00030	33 cd		 xor	 ecx, ebp
  00032	e8 00 00 00 00	 call	 @__security_check_cookie@4
  00037	8b e5		 mov	 esp, ebp
  00039	5d		 pop	 ebp
  0003a	c3		 ret	 0
$LN2@chrMoveToD:

; 1208 : 		return Py_BadArgument();
; 1209 : 
; 1210 : 	int ix;
; 1211 : 	if (!PyTuple_GetInteger(poArgs, 1, &ix))

  0003b	8d 45 e8	 lea	 eax, DWORD PTR _ix$[ebp]
  0003e	50		 push	 eax
  0003f	6a 01		 push	 1
  00041	56		 push	 esi
  00042	e8 00 00 00 00	 call	 ?PyTuple_GetInteger@@YA_NPAU_object@@HPAH@Z ; PyTuple_GetInteger
  00047	83 c4 0c	 add	 esp, 12			; 0000000cH
  0004a	84 c0		 test	 al, al
  0004c	74 d9		 je	 SHORT $LN10@chrMoveToD

; 1212 : 		return Py_BadArgument();
; 1213 : 	int iy;
; 1214 : 	if (!PyTuple_GetInteger(poArgs, 2, &iy))

  0004e	8d 45 e4	 lea	 eax, DWORD PTR _iy$[ebp]
  00051	50		 push	 eax
  00052	6a 02		 push	 2
  00054	56		 push	 esi
  00055	e8 00 00 00 00	 call	 ?PyTuple_GetInteger@@YA_NPAU_object@@HPAH@Z ; PyTuple_GetInteger
  0005a	83 c4 0c	 add	 esp, 12			; 0000000cH
  0005d	84 c0		 test	 al, al
  0005f	74 c6		 je	 SHORT $LN10@chrMoveToD

; 1215 : 		return Py_BadArgument();
; 1216 : 
; 1217 : 	CInstanceBase * pCharacterInstance = CPythonCharacterManager::Instance().GetInstancePtr(iVID);

  00061	8b 0d 00 00 00
	00		 mov	 ecx, DWORD PTR ?ms_singleton@?$CSingleton@VCPythonCharacterManager@@@@0PAVCPythonCharacterManager@@A ; CSingleton<CPythonCharacterManager>::ms_singleton
  00067	ff 75 ec	 push	 DWORD PTR _iVID$[ebp]
  0006a	83 c1 04	 add	 ecx, 4
  0006d	8b 01		 mov	 eax, DWORD PTR [ecx]
  0006f	ff 50 08	 call	 DWORD PTR [eax+8]

; 1218 : 	if (!pCharacterInstance)

  00072	85 c0		 test	 eax, eax
  00074	74 2c		 je	 SHORT $LN9@chrMoveToD

; 1221 : 	pCharacterInstance->NEW_MoveToDestPixelPositionDirection(TPixelPosition(ix, iy, 0.0f));

  00076	66 0f 6e 45 e8	 movd	 xmm0, DWORD PTR _ix$[ebp]
  0007b	8d 4d f0	 lea	 ecx, DWORD PTR $T1[ebp]
  0007e	0f 5b c0	 cvtdq2ps xmm0, xmm0
  00081	51		 push	 ecx
  00082	8b c8		 mov	 ecx, eax
; File E:\Metin2_server\SolWayneSF v6\ClientVS22\extern\include\d3dx8math.inl

; 182  :     z = fz;

  00084	c7 45 f8 00 00
	00 00		 mov	 DWORD PTR $T1[ebp+8], 0
  0008b	f3 0f 11 45 f0	 movss	 DWORD PTR $T1[ebp], xmm0
  00090	66 0f 6e 45 e4	 movd	 xmm0, DWORD PTR _iy$[ebp]
; File E:\Metin2_server\SolWayneSF v6\ClientVS22\source\UserInterface\PythonCharacterModule.cpp

; 1221 : 	pCharacterInstance->NEW_MoveToDestPixelPositionDirection(TPixelPosition(ix, iy, 0.0f));

  00095	0f 5b c0	 cvtdq2ps xmm0, xmm0
; File E:\Metin2_server\SolWayneSF v6\ClientVS22\extern\include\d3dx8math.inl

; 181  :     y = fy;

  00098	f3 0f 11 45 f4	 movss	 DWORD PTR $T1[ebp+4], xmm0
; File E:\Metin2_server\SolWayneSF v6\ClientVS22\source\UserInterface\PythonCharacterModule.cpp

; 1221 : 	pCharacterInstance->NEW_MoveToDestPixelPositionDirection(TPixelPosition(ix, iy, 0.0f));

  0009d	e8 00 00 00 00	 call	 ?NEW_MoveToDestPixelPositionDirection@CInstanceBase@@QAE_NABUD3DXVECTOR3@@@Z ; CInstanceBase::NEW_MoveToDestPixelPositionDirection
$LN9@chrMoveToD:

; 1222 : 
; 1223 : 	return Py_BuildNone();
; 1224 : }

  000a2	e8 00 00 00 00	 call	 ?Py_BuildNone@@YAPAU_object@@XZ ; Py_BuildNone
  000a7	8b 4d fc	 mov	 ecx, DWORD PTR __$ArrayPad$[ebp]
  000aa	33 cd		 xor	 ecx, ebp
  000ac	5e		 pop	 esi
  000ad	e8 00 00 00 00	 call	 @__security_check_cookie@4
  000b2	8b e5		 mov	 esp, ebp
  000b4	5d		 pop	 ebp
  000b5	c3		 ret	 0
?chrMoveToDestPosition@@YAPAU_object@@PAU1@0@Z ENDP	; chrMoveToDestPosition
_TEXT	ENDS
; Function compile flags: /Ogtp
; File E:\Metin2_server\SolWayneSF v6\ClientVS22\source\UserInterface\PythonCharacterModule.cpp
;	COMDAT ?chrtestSetRideMan@@YAPAU_object@@PAU1@0@Z
_TEXT	SEGMENT
_iy$ = -140						; size = 4
_ix$ = -136						; size = 4
_imount$ = -132						; size = 4
_kCreateData$ = -128					; size = 112
__$ArrayPad$ = -16					; size = 4
__$EHRec$ = -12						; size = 12
_poSelf$ = 8						; size = 4
_poArgs$ = 12						; size = 4
?chrtestSetRideMan@@YAPAU_object@@PAU1@0@Z PROC		; chrtestSetRideMan, COMDAT

; 1227 : {

  00000	55		 push	 ebp
  00001	8b ec		 mov	 ebp, esp
  00003	6a ff		 push	 -1
  00005	68 00 00 00 00	 push	 __ehhandler$?chrtestSetRideMan@@YAPAU_object@@PAU1@0@Z
  0000a	64 a1 00 00 00
	00		 mov	 eax, DWORD PTR fs:0
  00010	50		 push	 eax
  00011	81 ec 80 00 00
	00		 sub	 esp, 128		; 00000080H
  00017	a1 00 00 00 00	 mov	 eax, DWORD PTR ___security_cookie
  0001c	33 c5		 xor	 eax, ebp
  0001e	89 45 f0	 mov	 DWORD PTR __$ArrayPad$[ebp], eax
  00021	56		 push	 esi
  00022	50		 push	 eax
  00023	8d 45 f4	 lea	 eax, DWORD PTR __$EHRec$[ebp]
  00026	64 a3 00 00 00
	00		 mov	 DWORD PTR fs:0, eax
  0002c	8b 75 0c	 mov	 esi, DWORD PTR _poArgs$[ebp]

; 1228 : 	int ix;
; 1229 : 	if (!PyTuple_GetInteger(poArgs, 0, &ix))

  0002f	8d 85 78 ff ff
	ff		 lea	 eax, DWORD PTR _ix$[ebp]
  00035	50		 push	 eax
  00036	6a 00		 push	 0
  00038	56		 push	 esi
  00039	e8 00 00 00 00	 call	 ?PyTuple_GetInteger@@YA_NPAU_object@@HPAH@Z ; PyTuple_GetInteger
  0003e	83 c4 0c	 add	 esp, 12			; 0000000cH
  00041	84 c0		 test	 al, al
  00043	75 0a		 jne	 SHORT $LN2@chrtestSet
$LN22@chrtestSet:

; 1255 : }

  00045	e8 00 00 00 00	 call	 ?Py_BadArgument@@YAPAU_object@@XZ ; Py_BadArgument
  0004a	e9 c5 00 00 00	 jmp	 $LN1@chrtestSet
$LN2@chrtestSet:

; 1230 : 		return Py_BadArgument();
; 1231 : 	int iy;
; 1232 : 	if (!PyTuple_GetInteger(poArgs, 1, &iy))

  0004f	8d 85 74 ff ff
	ff		 lea	 eax, DWORD PTR _iy$[ebp]
  00055	50		 push	 eax
  00056	6a 01		 push	 1
  00058	56		 push	 esi
  00059	e8 00 00 00 00	 call	 ?PyTuple_GetInteger@@YA_NPAU_object@@HPAH@Z ; PyTuple_GetInteger
  0005e	83 c4 0c	 add	 esp, 12			; 0000000cH
  00061	84 c0		 test	 al, al
  00063	74 e0		 je	 SHORT $LN22@chrtestSet

; 1233 : 		return Py_BadArgument();
; 1234 : 	int imount = 20030;
; 1235 : 	PyTuple_GetInteger(poArgs, 2, &imount);

  00065	8d 85 7c ff ff
	ff		 lea	 eax, DWORD PTR _imount$[ebp]
  0006b	c7 85 7c ff ff
	ff 3e 4e 00 00	 mov	 DWORD PTR _imount$[ebp], 20030 ; 00004e3eH
  00075	50		 push	 eax
  00076	6a 02		 push	 2
  00078	56		 push	 esi
  00079	e8 00 00 00 00	 call	 ?PyTuple_GetInteger@@YA_NPAU_object@@HPAH@Z ; PyTuple_GetInteger

; 1236 : 
; 1237 : 	CInstanceBase * pCharacterInstance = CPythonCharacterManager::Instance().RegisterInstance(1);

  0007e	8b 0d 00 00 00
	00		 mov	 ecx, DWORD PTR ?ms_singleton@?$CSingleton@VCPythonCharacterManager@@@@0PAVCPythonCharacterManager@@A ; CSingleton<CPythonCharacterManager>::ms_singleton
  00084	83 c4 0c	 add	 esp, 12			; 0000000cH
  00087	6a 01		 push	 1
  00089	e8 00 00 00 00	 call	 ?RegisterInstance@CPythonCharacterManager@@QAEPAVCInstanceBase@@K@Z ; CPythonCharacterManager::RegisterInstance
  0008e	8d 4d cb	 lea	 ecx, DWORD PTR _kCreateData$[ebp+75]
  00091	8b f0		 mov	 esi, eax
  00093	e8 00 00 00 00	 call	 ??0CAffectFlagContainer@@QAE@XZ ; CAffectFlagContainer::CAffectFlagContainer

; 1238 : 	CInstanceBase::SCreateData kCreateData;
; 1239 : 	ZeroMemory(&kCreateData, sizeof(kCreateData));

  00098	6a 70		 push	 112			; 00000070H
  0009a	8d 45 80	 lea	 eax, DWORD PTR _kCreateData$[ebp]
  0009d	c7 45 fc 00 00
	00 00		 mov	 DWORD PTR __$EHRec$[ebp+8], 0
  000a4	6a 00		 push	 0
  000a6	50		 push	 eax
  000a7	e8 00 00 00 00	 call	 _memset

; 1240 : 	kCreateData.m_bType = CActorInstance::TYPE_PC;
; 1241 : 	kCreateData.m_dwRace = 0;
; 1242 : 	kCreateData.m_dwArmor = 0;
; 1243 : 	kCreateData.m_dwHair = 100;
; 1244 : 	#ifdef ENABLE_SASH_SYSTEM
; 1245 : 	kCreateData.m_dwSash = 0;
; 1246 : 	#endif
; 1247 : 	kCreateData.m_dwMovSpd = 100;
; 1248 : 	kCreateData.m_dwAtkSpd = 100;
; 1249 : 	kCreateData.m_dwMountVnum = imount;

  000ac	8b 85 7c ff ff
	ff		 mov	 eax, DWORD PTR _imount$[ebp]
  000b2	83 c4 0c	 add	 esp, 12			; 0000000cH
  000b5	89 45 c4	 mov	 DWORD PTR _kCreateData$[ebp+68], eax

; 1250 : 	kCreateData.m_lPosX = ix;
; 1251 : 	kCreateData.m_lPosY = iy;
; 1252 : 	pCharacterInstance->Create(kCreateData);

  000b8	8b ce		 mov	 ecx, esi
  000ba	8b 85 78 ff ff
	ff		 mov	 eax, DWORD PTR _ix$[ebp]
  000c0	89 45 a4	 mov	 DWORD PTR _kCreateData$[ebp+36], eax
  000c3	8b 85 74 ff ff
	ff		 mov	 eax, DWORD PTR _iy$[ebp]
  000c9	89 45 a8	 mov	 DWORD PTR _kCreateData$[ebp+40], eax
  000cc	8d 45 80	 lea	 eax, DWORD PTR _kCreateData$[ebp]
  000cf	50		 push	 eax
  000d0	c6 45 80 06	 mov	 BYTE PTR _kCreateData$[ebp], 6
  000d4	c7 45 98 00 00
	00 00		 mov	 DWORD PTR _kCreateData$[ebp+24], 0
  000db	c7 45 b0 00 00
	00 00		 mov	 DWORD PTR _kCreateData$[ebp+48], 0
  000e2	c7 45 b8 64 00
	00 00		 mov	 DWORD PTR _kCreateData$[ebp+56], 100 ; 00000064H
  000e9	c7 45 bc 00 00
	00 00		 mov	 DWORD PTR _kCreateData$[ebp+60], 0
  000f0	c7 45 9c 64 00
	00 00		 mov	 DWORD PTR _kCreateData$[ebp+28], 100 ; 00000064H
  000f7	c7 45 a0 64 00
	00 00		 mov	 DWORD PTR _kCreateData$[ebp+32], 100 ; 00000064H
  000fe	e8 00 00 00 00	 call	 ?Create@CInstanceBase@@QAE_NABUSCreateData@1@@Z ; CInstanceBase::Create

; 1253 : 
; 1254 : 	return Py_BuildNone();

  00103	e8 00 00 00 00	 call	 ?Py_BuildNone@@YAPAU_object@@XZ ; Py_BuildNone
  00108	8d 4d 80	 lea	 ecx, DWORD PTR _kCreateData$[ebp]
  0010b	8b f0		 mov	 esi, eax
  0010d	e8 00 00 00 00	 call	 ??1SCreateData@CInstanceBase@@QAE@XZ
  00112	8b c6		 mov	 eax, esi
$LN1@chrtestSet:

; 1255 : }

  00114	8b 4d f4	 mov	 ecx, DWORD PTR __$EHRec$[ebp]
  00117	64 89 0d 00 00
	00 00		 mov	 DWORD PTR fs:0, ecx
  0011e	59		 pop	 ecx
  0011f	5e		 pop	 esi
  00120	8b 4d f0	 mov	 ecx, DWORD PTR __$ArrayPad$[ebp]
  00123	33 cd		 xor	 ecx, ebp
  00125	e8 00 00 00 00	 call	 @__security_check_cookie@4
  0012a	8b e5		 mov	 esp, ebp
  0012c	5d		 pop	 ebp
  0012d	c3		 ret	 0
_TEXT	ENDS
;	COMDAT text$x
text$x	SEGMENT
__unwindfunclet$?chrtestSetRideMan@@YAPAU_object@@PAU1@0@Z$0:
  00000	8d 4d 80	 lea	 ecx, DWORD PTR _kCreateData$[ebp]
  00003	e9 00 00 00 00	 jmp	 ??1SCreateData@CInstanceBase@@QAE@XZ
  00008	cc		 int	 3
  00009	cc		 int	 3
  0000a	cc		 int	 3
  0000b	cc		 int	 3
  0000c	cc		 int	 3
__ehhandler$?chrtestSetRideMan@@YAPAU_object@@PAU1@0@Z:
  0000d	90		 npad	 1
  0000e	90		 npad	 1
  0000f	8b 54 24 08	 mov	 edx, DWORD PTR [esp+8]
  00013	8d 42 0c	 lea	 eax, DWORD PTR [edx+12]
  00016	8b 8a 78 ff ff
	ff		 mov	 ecx, DWORD PTR [edx-136]
  0001c	33 c8		 xor	 ecx, eax
  0001e	e8 00 00 00 00	 call	 @__security_check_cookie@4
  00023	8b 4a fc	 mov	 ecx, DWORD PTR [edx-4]
  00026	33 c8		 xor	 ecx, eax
  00028	e8 00 00 00 00	 call	 @__security_check_cookie@4
  0002d	b8 00 00 00 00	 mov	 eax, OFFSET __ehfuncinfo$?chrtestSetRideMan@@YAPAU_object@@PAU1@0@Z
  00032	e9 00 00 00 00	 jmp	 ___CxxFrameHandler3
text$x	ENDS
?chrtestSetRideMan@@YAPAU_object@@PAU1@0@Z ENDP		; chrtestSetRideMan
; Function compile flags: /Ogtp
; File E:\Metin2_server\SolWayneSF v6\ClientVS22\source\UserInterface\PythonCharacterModule.cpp
;	COMDAT ?chrSetSash@@YAPAU_object@@PAU1@0@Z
_TEXT	SEGMENT
_dwSash$ = -4						; size = 4
_poSelf$ = 8						; size = 4
_poArgs$ = 12						; size = 4
?chrSetSash@@YAPAU_object@@PAU1@0@Z PROC		; chrSetSash, COMDAT

; 1259 : {

  00000	55		 push	 ebp
  00001	8b ec		 mov	 ebp, esp
  00003	51		 push	 ecx

; 1260 : 	int dwSash;
; 1261 : 	if (!PyTuple_GetInteger(poArgs, 0, &dwSash))

  00004	8d 45 fc	 lea	 eax, DWORD PTR _dwSash$[ebp]
  00007	50		 push	 eax
  00008	6a 00		 push	 0
  0000a	ff 75 0c	 push	 DWORD PTR _poArgs$[ebp]
  0000d	e8 00 00 00 00	 call	 ?PyTuple_GetInteger@@YA_NPAU_object@@HPAH@Z ; PyTuple_GetInteger
  00012	83 c4 0c	 add	 esp, 12			; 0000000cH
  00015	84 c0		 test	 al, al
  00017	75 0e		 jne	 SHORT $LN2@chrSetSash

; 1262 : 		return Py_BuildException();

  00019	6a 00		 push	 0
  0001b	e8 00 00 00 00	 call	 ?Py_BuildException@@YAPAU_object@@PBDZZ ; Py_BuildException
  00020	83 c4 04	 add	 esp, 4

; 1269 : 	return Py_BuildNone();
; 1270 : }

  00023	8b e5		 mov	 esp, ebp
  00025	5d		 pop	 ebp
  00026	c3		 ret	 0
$LN2@chrSetSash:

; 1263 : 	
; 1264 : 	CInstanceBase * pkInst = CPythonCharacterManager::Instance().GetSelectedInstancePtr();

  00027	8b 0d 00 00 00
	00		 mov	 ecx, DWORD PTR ?ms_singleton@?$CSingleton@VCPythonCharacterManager@@@@0PAVCPythonCharacterManager@@A ; CSingleton<CPythonCharacterManager>::ms_singleton
  0002d	e8 00 00 00 00	 call	 ?GetSelectedInstancePtr@CPythonCharacterManager@@QAEPAVCInstanceBase@@XZ ; CPythonCharacterManager::GetSelectedInstancePtr

; 1265 : 	if (!pkInst)

  00032	85 c0		 test	 eax, eax
  00034	74 0a		 je	 SHORT $LN5@chrSetSash

; 1266 : 		return Py_BuildNone();
; 1267 : 	
; 1268 : 	pkInst->SetSash(dwSash);

  00036	ff 75 fc	 push	 DWORD PTR _dwSash$[ebp]
  00039	8b c8		 mov	 ecx, eax
  0003b	e8 00 00 00 00	 call	 ?SetSash@CInstanceBase@@QAEXK@Z ; CInstanceBase::SetSash
$LN5@chrSetSash:

; 1269 : 	return Py_BuildNone();
; 1270 : }

  00040	e8 00 00 00 00	 call	 ?Py_BuildNone@@YAPAU_object@@XZ ; Py_BuildNone
  00045	8b e5		 mov	 esp, ebp
  00047	5d		 pop	 ebp
  00048	c3		 ret	 0
?chrSetSash@@YAPAU_object@@PAU1@0@Z ENDP		; chrSetSash
_TEXT	ENDS
; Function compile flags: /Ogtp
; File E:\Metin2_server\SolWayneSF v6\ClientVS22\source\UserInterface\PythonCharacterModule.cpp
;	COMDAT ?initchr@@YAXXZ
_TEXT	SEGMENT
?initchr@@YAXXZ PROC					; initchr, COMDAT

; 1274 : {

  00000	56		 push	 esi
  00001	57		 push	 edi

; 1275 : 	static PyMethodDef s_methods[] =
; 1276 : 	{
; 1277 : 		{ "DismountHorse",				chrDismountHorse,					METH_VARARGS },
; 1278 : 		{ "MountHorse",					chrMountHorse,						METH_VARARGS },
; 1279 : 
; 1280 : 		{ "Destroy",					chrDestroy,							METH_VARARGS },
; 1281 : 		{ "Update",						chrUpdate,							METH_VARARGS },
; 1282 : 		{ "Deform",						chrDeform,							METH_VARARGS },
; 1283 : 		{ "Render",						chrRender,							METH_VARARGS },
; 1284 : 		{ "RenderCollision",			chrRenderCollision,					METH_VARARGS },
; 1285 : 
; 1286 : 		// Functions For Python Code
; 1287 : 		{ "CreateInstance",				chrCreateInstance,					METH_VARARGS },
; 1288 : 		{ "DeleteInstance",				chrDeleteInstance,					METH_VARARGS },
; 1289 : 		{ "DeleteInstanceByFade",		chrDeleteInstanceByFade,			METH_VARARGS },
; 1290 : 		{ "SelectInstance",				chrSelectInstance,					METH_VARARGS },
; 1291 : 
; 1292 : 		{ "HasInstance",				chrHasInstance,						METH_VARARGS },
; 1293 : 		{ "IsEnemy",					chrIsEnemy,							METH_VARARGS },
; 1294 : 		{ "IsNPC",						chrIsNPC,							METH_VARARGS },
; 1295 : 		{ "IsGameMaster",				chrIsGameMaster,					METH_VARARGS },
; 1296 : 		{ "IsPartyMember",				chrIsPartyMember,					METH_VARARGS },
; 1297 : 
; 1298 : 		{ "Select",						chrSelect,							METH_VARARGS },
; 1299 : 		{ "SetAddRenderMode",			chrSetAddRenderMode,				METH_VARARGS },
; 1300 : 		{ "SetBlendRenderMode",			chrSetBlendRenderMode,				METH_VARARGS },
; 1301 : 		{ "Unselect",					chrUnselect,						METH_VARARGS },
; 1302 : 
; 1303 : 		{ "Hide",						chrHide,							METH_VARARGS },
; 1304 : 		{ "Show",						chrShow,							METH_VARARGS },
; 1305 : 		{ "Pick",						chrPick,							METH_VARARGS },
; 1306 : 		{ "PickAll",					chrPickAll,							METH_VARARGS },
; 1307 : 
; 1308 : 		{ "SetArmor",					chrSetArmor,						METH_VARARGS },
; 1309 : 		{ "SetWeapon",					chrSetWeapon,						METH_VARARGS },
; 1310 : 		{ "ChangeShape",				chrChangeShape,						METH_VARARGS },
; 1311 : 		{ "SetRace",					chrSetRace,							METH_VARARGS },
; 1312 : 		{ "SetHair",					chrSetHair,							METH_VARARGS },
; 1313 : 		{ "ChangeHair",					chrChangeHair,						METH_VARARGS },
; 1314 : 		{ "SetVirtualID",				chrSetVirtualID,					METH_VARARGS },
; 1315 : 		{ "SetNameString",				chrSetNameString,					METH_VARARGS },
; 1316 : 		{ "SetInstanceType",			chrSetInstanceType,					METH_VARARGS },
; 1317 : 
; 1318 : 		{ "SetPixelPosition",			chrSetPixelPosition,				METH_VARARGS },
; 1319 : 		{ "SetDirection",				chrSetDirection,					METH_VARARGS },
; 1320 : 		{ "Refresh",					chrRefresh,							METH_VARARGS },
; 1321 : 		{ "Revive",						chrRevive,							METH_VARARGS },
; 1322 : 		{ "Die",						chrDie,								METH_VARARGS },
; 1323 : #ifdef NEW_PET_SYSTEM
; 1324 : 		{ "RequestPetName",				braveRequestPetName,				METH_VARARGS },
; 1325 : #endif
; 1326 : 
; 1327 : 		{ "AttachEffectByID",			chrAttachEffectByID,				METH_VARARGS },
; 1328 : 		{ "AttachEffectByName",			chrAttachEffectByName,				METH_VARARGS },
; 1329 : 
; 1330 : 		{ "LookAt",						chrLookAt,							METH_VARARGS },
; 1331 : 		{ "SetMotionMode",				chrSetMotionMode,					METH_VARARGS },
; 1332 : 		{ "SetLoopMotion",				chrSetLoopMotion,					METH_VARARGS },
; 1333 : 		{ "BlendLoopMotion",			chrBlendLoopMotion,					METH_VARARGS },
; 1334 : 		{ "PushOnceMotion",				chrPushOnceMotion,					METH_VARARGS },
; 1335 : 		{ "PushLoopMotion",				chrPushLoopMotion,					METH_VARARGS },
; 1336 : 		{ "GetPixelPosition",			chrGetPixelPosition,				METH_VARARGS },
; 1337 : 		{ "SetRotation",				chrSetRotation,						METH_VARARGS },
; 1338 : 		{ "SetRotationAll",				chrSetRotationAll,					METH_VARARGS },
; 1339 : 		{ "BlendRotation",				chrBlendRotation,					METH_VARARGS },
; 1340 : 		{ "GetRotation",				chrGetRotation,						METH_VARARGS },
; 1341 : 		{ "GetRace",					chrGetRace,							METH_VARARGS },
; 1342 : 		{ "GetName",					chrGetName,							METH_VARARGS },
; 1343 : 		{ "GetNameByVID",				chrGetNameByVID,					METH_VARARGS },
; 1344 : 		{ "GetGuildID",					chrGetGuildID,						METH_VARARGS },
; 1345 : 		{ "GetProjectPosition",			chrGetProjectPosition,				METH_VARARGS },
; 1346 : 
; 1347 : 		{ "GetVirtualNumber",			chrGetVirtualNumber,				METH_VARARGS },
; 1348 : 		{ "GetInstanceType",			chrGetInstanceType,					METH_VARARGS },
; 1349 : 
; 1350 : 		{ "GetBoundBoxOnlyXY",			chrGetBoundBoxOnlyXY,				METH_VARARGS },
; 1351 : 
; 1352 : 		{ "RaceToJob",					chrRaceToJob,							METH_VARARGS },
; 1353 : 		{ "RaceToSex",					chrRaceToSex,							METH_VARARGS },
; 1354 : 
; 1355 : 		// For Test
; 1356 : 		{ "testGetPKData",					chrtestGetPKData,					METH_VARARGS },
; 1357 : 		{ "FaintTest",						chrFaintTest,						METH_VARARGS },
; 1358 : 		{ "SetMoveSpeed",					chrSetMoveSpeed,					METH_VARARGS },
; 1359 : 		{ "SetAttackSpeed",					chrSetAttackSpeed,					METH_VARARGS },
; 1360 : 		{ "WeaponTraceSetTexture",			chrWeaponTraceSetTexture,			METH_VARARGS },
; 1361 : 		{ "WeaponTraceUseAlpha",			chrWeaponTraceUseAlpha,				METH_VARARGS },
; 1362 : 		{ "WeaponTraceUseTexture",			chrWeaponTraceUseTexture,			METH_VARARGS },
; 1363 : 		{ "MoveToDestPosition",				chrMoveToDestPosition,				METH_VARARGS },
; 1364 : 		{ "testSetComboType",				chrtestSetComboType,				METH_VARARGS },
; 1365 : 		{ "testSetAddRenderMode",			chrtestSetAddRenderMode,			METH_VARARGS },
; 1366 : 		{ "testSetModulateRenderMode",		chrtestSetModulateRenderMode,		METH_VARARGS },
; 1367 : 		{ "testSetAddRenderModeRGB",		chrtestSetAddRenderModeRGB,			METH_VARARGS },
; 1368 : 		{ "testSetModulateRenderModeRGB",	chrtestSetModulateRenderModeRGB,	METH_VARARGS },
; 1369 : 		{ "testSetSpecularRenderMode",		chrtestSetSpecularRenderMode,		METH_VARARGS },
; 1370 : 		{ "testSetSpecularRenderMode2",		chrtestSetSpecularRenderMode2,		METH_VARARGS },
; 1371 : 		{ "testRestoreRenderMode",			chrtestRestoreRenderMode,			METH_VARARGS },
; 1372 : 		{ "testSetRideMan",					chrtestSetRideMan,					METH_VARARGS },
; 1373 : 
; 1374 : 		#ifdef ENABLE_SASH_SYSTEM
; 1375 : 		{"SetSash", chrSetSash, METH_VARARGS},
; 1376 : 		#endif
; 1377 : 
; 1378 : 		{ NULL,								NULL,								NULL		 },
; 1379 : 	};
; 1380 : 
; 1381 : 	PyObject * poModule = Py_InitModule("chr", s_methods);

  00002	68 f5 03 00 00	 push	 1013			; 000003f5H
  00007	6a 00		 push	 0
  00009	6a 00		 push	 0
  0000b	68 00 00 00 00	 push	 OFFSET ?s_methods@?1??initchr@@YAXXZ@4PAUPyMethodDef@@A
  00010	68 00 00 00 00	 push	 OFFSET ??_C@_03KMOFPJOC@chr@
  00015	ff 15 00 00 00
	00		 call	 DWORD PTR __imp__Py_InitModule4

; 1382 : 
; 1383 : 	// Length
; 1384 : 	PyModule_AddIntConstant(poModule, "PLAYER_NAME_MAX_LEN",				PLAYER_NAME_MAX_LEN);

  0001b	8b 35 00 00 00
	00		 mov	 esi, DWORD PTR __imp__PyModule_AddIntConstant
  00021	8b f8		 mov	 edi, eax
  00023	6a 0c		 push	 12			; 0000000cH
  00025	68 00 00 00 00	 push	 OFFSET ??_C@_0BE@BCBGONIE@PLAYER_NAME_MAX_LEN@
  0002a	57		 push	 edi
  0002b	ff d6		 call	 esi

; 1385 : 
; 1386 : 	// General
; 1387 : 	PyModule_AddIntConstant(poModule, "MOTION_NONE",						CRaceMotionData::NAME_NONE);

  0002d	6a 00		 push	 0
  0002f	68 00 00 00 00	 push	 OFFSET ??_C@_0M@GHHHCAEH@MOTION_NONE@
  00034	57		 push	 edi
  00035	ff d6		 call	 esi

; 1388 : 
; 1389 : 	PyModule_AddIntConstant(poModule, "MOTION_SPAWN",						CRaceMotionData::NAME_SPAWN);

  00037	6a 19		 push	 25			; 00000019H
  00039	68 00 00 00 00	 push	 OFFSET ??_C@_0N@JMBMLHMG@MOTION_SPAWN@
  0003e	57		 push	 edi
  0003f	ff d6		 call	 esi

; 1390 : 	PyModule_AddIntConstant(poModule, "MOTION_WAIT",						CRaceMotionData::NAME_WAIT);

  00041	6a 01		 push	 1
  00043	68 00 00 00 00	 push	 OFFSET ??_C@_0M@LMMOJHBC@MOTION_WAIT@
  00048	57		 push	 edi
  00049	ff d6		 call	 esi
  0004b	83 c4 44	 add	 esp, 68			; 00000044H

; 1391 : 	PyModule_AddIntConstant(poModule, "MOTION_WALK",						CRaceMotionData::NAME_WALK);

  0004e	6a 02		 push	 2
  00050	68 00 00 00 00	 push	 OFFSET ??_C@_0M@HHFPFLGH@MOTION_WALK@
  00055	57		 push	 edi
  00056	ff d6		 call	 esi

; 1392 : 	PyModule_AddIntConstant(poModule, "MOTION_RUN",							CRaceMotionData::NAME_RUN);

  00058	6a 03		 push	 3
  0005a	68 00 00 00 00	 push	 OFFSET ??_C@_0L@KHKCPAAF@MOTION_RUN@
  0005f	57		 push	 edi
  00060	ff d6		 call	 esi

; 1393 : 	PyModule_AddIntConstant(poModule, "MOTION_CHANGE_WEAPON",				CRaceMotionData::NAME_CHANGE_WEAPON);

  00062	6a 04		 push	 4
  00064	68 00 00 00 00	 push	 OFFSET ??_C@_0BF@ICKHJCNJ@MOTION_CHANGE_WEAPON@
  00069	57		 push	 edi
  0006a	ff d6		 call	 esi

; 1394 : 	PyModule_AddIntConstant(poModule, "MOTION_DAMAGE",						CRaceMotionData::NAME_DAMAGE);

  0006c	6a 05		 push	 5
  0006e	68 00 00 00 00	 push	 OFFSET ??_C@_0O@CKDFGNMB@MOTION_DAMAGE@
  00073	57		 push	 edi
  00074	ff d6		 call	 esi

; 1395 : 	PyModule_AddIntConstant(poModule, "MOTION_DAMAGE_FLYING",				CRaceMotionData::NAME_DAMAGE_FLYING);

  00076	6a 06		 push	 6
  00078	68 00 00 00 00	 push	 OFFSET ??_C@_0BF@LNCKFICM@MOTION_DAMAGE_FLYING@
  0007d	57		 push	 edi
  0007e	ff d6		 call	 esi

; 1396 : 	PyModule_AddIntConstant(poModule, "MOTION_STAND_UP",					CRaceMotionData::NAME_STAND_UP);

  00080	6a 07		 push	 7
  00082	68 00 00 00 00	 push	 OFFSET ??_C@_0BA@IDCGGFKN@MOTION_STAND_UP@
  00087	57		 push	 edi
  00088	ff d6		 call	 esi
  0008a	83 c4 48	 add	 esp, 72			; 00000048H

; 1397 : 	PyModule_AddIntConstant(poModule, "MOTION_DAMAGE_BACK",					CRaceMotionData::NAME_DAMAGE_BACK);

  0008d	6a 08		 push	 8
  0008f	68 00 00 00 00	 push	 OFFSET ??_C@_0BD@MNOACOOC@MOTION_DAMAGE_BACK@
  00094	57		 push	 edi
  00095	ff d6		 call	 esi

; 1398 : 	PyModule_AddIntConstant(poModule, "MOTION_DAMAGE_FLYING_BACK",			CRaceMotionData::NAME_DAMAGE_FLYING_BACK);

  00097	6a 09		 push	 9
  00099	68 00 00 00 00	 push	 OFFSET ??_C@_0BK@PDCLNNIP@MOTION_DAMAGE_FLYING_BACK@
  0009e	57		 push	 edi
  0009f	ff d6		 call	 esi

; 1399 : 	PyModule_AddIntConstant(poModule, "MOTION_STAND_UP_BACK",				CRaceMotionData::NAME_STAND_UP_BACK);

  000a1	6a 0a		 push	 10			; 0000000aH
  000a3	68 00 00 00 00	 push	 OFFSET ??_C@_0BF@DFDDIGMI@MOTION_STAND_UP_BACK@
  000a8	57		 push	 edi
  000a9	ff d6		 call	 esi

; 1400 : 	PyModule_AddIntConstant(poModule, "MOTION_DEAD",						CRaceMotionData::NAME_DEAD);

  000ab	6a 0b		 push	 11			; 0000000bH
  000ad	68 00 00 00 00	 push	 OFFSET ??_C@_0M@FADNKOPO@MOTION_DEAD@
  000b2	57		 push	 edi
  000b3	ff d6		 call	 esi

; 1401 : 	PyModule_AddIntConstant(poModule, "MOTION_DEAD_BACK",					CRaceMotionData::NAME_DEAD_BACK);

  000b5	6a 0c		 push	 12			; 0000000cH
  000b7	68 00 00 00 00	 push	 OFFSET ??_C@_0BB@FBKKIAJJ@MOTION_DEAD_BACK@
  000bc	57		 push	 edi
  000bd	ff d6		 call	 esi

; 1402 : 	PyModule_AddIntConstant(poModule, "MOTION_NORMAL_ATTACK",				CRaceMotionData::NAME_NORMAL_ATTACK);

  000bf	6a 0d		 push	 13			; 0000000dH
  000c1	68 00 00 00 00	 push	 OFFSET ??_C@_0BF@PDLLCGCI@MOTION_NORMAL_ATTACK@
  000c6	57		 push	 edi
  000c7	ff d6		 call	 esi
  000c9	83 c4 48	 add	 esp, 72			; 00000048H

; 1403 : 	PyModule_AddIntConstant(poModule, "MOTION_COMBO_ATTACK_1",				CRaceMotionData::NAME_COMBO_ATTACK_1);

  000cc	6a 0e		 push	 14			; 0000000eH
  000ce	68 00 00 00 00	 push	 OFFSET ??_C@_0BG@NHAANOLG@MOTION_COMBO_ATTACK_1@
  000d3	57		 push	 edi
  000d4	ff d6		 call	 esi

; 1404 : 	PyModule_AddIntConstant(poModule, "MOTION_COMBO_ATTACK_2",				CRaceMotionData::NAME_COMBO_ATTACK_2);

  000d6	6a 0f		 push	 15			; 0000000fH
  000d8	68 00 00 00 00	 push	 OFFSET ??_C@_0BG@PMCNINHF@MOTION_COMBO_ATTACK_2@
  000dd	57		 push	 edi
  000de	ff d6		 call	 esi

; 1405 : 	PyModule_AddIntConstant(poModule, "MOTION_COMBO_ATTACK_3",				CRaceMotionData::NAME_COMBO_ATTACK_3);

  000e0	6a 10		 push	 16			; 00000010H
  000e2	68 00 00 00 00	 push	 OFFSET ??_C@_0BG@OFDGLMDE@MOTION_COMBO_ATTACK_3@
  000e7	57		 push	 edi
  000e8	ff d6		 call	 esi

; 1406 : 	PyModule_AddIntConstant(poModule, "MOTION_COMBO_ATTACK_4",				CRaceMotionData::NAME_COMBO_ATTACK_4);

  000ea	6a 11		 push	 17			; 00000011H
  000ec	68 00 00 00 00	 push	 OFFSET ??_C@_0BG@KKHHCKPD@MOTION_COMBO_ATTACK_4@
  000f1	57		 push	 edi
  000f2	ff d6		 call	 esi

; 1407 : 	PyModule_AddIntConstant(poModule, "MOTION_COMBO_ATTACK_5",				CRaceMotionData::NAME_COMBO_ATTACK_5);

  000f4	6a 12		 push	 18			; 00000012H
  000f6	68 00 00 00 00	 push	 OFFSET ??_C@_0BG@LDGMBLLC@MOTION_COMBO_ATTACK_5@
  000fb	57		 push	 edi
  000fc	ff d6		 call	 esi

; 1408 : 	PyModule_AddIntConstant(poModule, "MOTION_COMBO_ATTACK_6",				CRaceMotionData::NAME_COMBO_ATTACK_6);

  000fe	6a 13		 push	 19			; 00000013H
  00100	68 00 00 00 00	 push	 OFFSET ??_C@_0BG@JIEBEIHB@MOTION_COMBO_ATTACK_6@
  00105	57		 push	 edi
  00106	ff d6		 call	 esi
  00108	83 c4 48	 add	 esp, 72			; 00000048H

; 1409 : 	PyModule_AddIntConstant(poModule, "MOTION_COMBO_ATTACK_7",				CRaceMotionData::NAME_COMBO_ATTACK_7);

  0010b	6a 14		 push	 20			; 00000014H
  0010d	68 00 00 00 00	 push	 OFFSET ??_C@_0BG@IBFKHJDA@MOTION_COMBO_ATTACK_7@
  00112	57		 push	 edi
  00113	ff d6		 call	 esi

; 1410 : 	PyModule_AddIntConstant(poModule, "MOTION_COMBO_ATTACK_8",				CRaceMotionData::NAME_COMBO_ATTACK_8);

  00115	6a 15		 push	 21			; 00000015H
  00117	68 00 00 00 00	 push	 OFFSET ??_C@_0BG@GMCGFPP@MOTION_COMBO_ATTACK_8@
  0011c	57		 push	 edi
  0011d	ff d6		 call	 esi

; 1411 : 	PyModule_AddIntConstant(poModule, "MOTION_INTRO_WAIT",					CRaceMotionData::NAME_INTRO_WAIT);

  0011f	6a 16		 push	 22			; 00000016H
  00121	68 00 00 00 00	 push	 OFFSET ??_C@_0BC@KGBJGDBO@MOTION_INTRO_WAIT@
  00126	57		 push	 edi
  00127	ff d6		 call	 esi

; 1412 : 	PyModule_AddIntConstant(poModule, "MOTION_INTRO_SELECTED",				CRaceMotionData::NAME_INTRO_SELECTED);

  00129	6a 17		 push	 23			; 00000017H
  0012b	68 00 00 00 00	 push	 OFFSET ??_C@_0BG@KEIOCEDJ@MOTION_INTRO_SELECTED@
  00130	57		 push	 edi
  00131	ff d6		 call	 esi

; 1413 : 	PyModule_AddIntConstant(poModule, "MOTION_INTRO_NOT_SELECTED",			CRaceMotionData::NAME_INTRO_NOT_SELECTED);

  00133	6a 18		 push	 24			; 00000018H
  00135	68 00 00 00 00	 push	 OFFSET ??_C@_0BK@BEALLN@MOTION_INTRO_NOT_SELECTED@
  0013a	57		 push	 edi
  0013b	ff d6		 call	 esi

; 1414 : 	PyModule_AddIntConstant(poModule, "MOTION_FISHING_THROW",				CRaceMotionData::NAME_FISHING_THROW);

  0013d	6a 1a		 push	 26			; 0000001aH
  0013f	68 00 00 00 00	 push	 OFFSET ??_C@_0BF@CHLKIEFK@MOTION_FISHING_THROW@
  00144	57		 push	 edi
  00145	ff d6		 call	 esi
  00147	83 c4 48	 add	 esp, 72			; 00000048H

; 1415 : 	PyModule_AddIntConstant(poModule, "MOTION_FISHING_WAIT",				CRaceMotionData::NAME_FISHING_WAIT);

  0014a	6a 1b		 push	 27			; 0000001bH
  0014c	68 00 00 00 00	 push	 OFFSET ??_C@_0BE@MOCHIGHH@MOTION_FISHING_WAIT@
  00151	57		 push	 edi
  00152	ff d6		 call	 esi

; 1416 : 	PyModule_AddIntConstant(poModule, "MOTION_FISHING_STOP",				CRaceMotionData::NAME_FISHING_STOP);

  00154	6a 1c		 push	 28			; 0000001cH
  00156	68 00 00 00 00	 push	 OFFSET ??_C@_0BE@DMIBDOKM@MOTION_FISHING_STOP@
  0015b	57		 push	 edi
  0015c	ff d6		 call	 esi

; 1417 : 	PyModule_AddIntConstant(poModule, "MOTION_FISHING_REACT",				CRaceMotionData::NAME_FISHING_REACT);

  0015e	6a 1d		 push	 29			; 0000001dH
  00160	68 00 00 00 00	 push	 OFFSET ??_C@_0BF@GJOIPBCA@MOTION_FISHING_REACT@
  00165	57		 push	 edi
  00166	ff d6		 call	 esi

; 1418 : 	PyModule_AddIntConstant(poModule, "MOTION_FISHING_CATCH",				CRaceMotionData::NAME_FISHING_CATCH);

  00168	6a 1e		 push	 30			; 0000001eH
  0016a	68 00 00 00 00	 push	 OFFSET ??_C@_0BF@NFFCHMCO@MOTION_FISHING_CATCH@
  0016f	57		 push	 edi
  00170	ff d6		 call	 esi

; 1419 : 	PyModule_AddIntConstant(poModule, "MOTION_FISHING_FAIL",				CRaceMotionData::NAME_FISHING_FAIL);

  00172	6a 1f		 push	 31			; 0000001fH
  00174	68 00 00 00 00	 push	 OFFSET ??_C@_0BE@BBLMKABM@MOTION_FISHING_FAIL@
  00179	57		 push	 edi
  0017a	ff d6		 call	 esi

; 1420 : 	PyModule_AddIntConstant(poModule, "MOTION_STOP",						CRaceMotionData::NAME_STOP);

  0017c	6a 20		 push	 32			; 00000020H
  0017e	68 00 00 00 00	 push	 OFFSET ??_C@_0M@EOGICPMJ@MOTION_STOP@
  00183	57		 push	 edi
  00184	ff d6		 call	 esi
  00186	83 c4 48	 add	 esp, 72			; 00000048H

; 1421 : 	PyModule_AddIntConstant(poModule, "MOTION_SKILL",						CRaceMotionData::NAME_SKILL);

  00189	6a 32		 push	 50			; 00000032H
  0018b	68 00 00 00 00	 push	 OFFSET ??_C@_0N@GMNNBHKJ@MOTION_SKILL@
  00190	57		 push	 edi
  00191	ff d6		 call	 esi

; 1422 : 	PyModule_AddIntConstant(poModule, "MOTION_CLAP",						CRaceMotionData::NAME_CLAP);

  00193	68 32 01 00 00	 push	 306			; 00000132H
  00198	68 00 00 00 00	 push	 OFFSET ??_C@_0M@LBLLOKDB@MOTION_CLAP@
  0019d	57		 push	 edi
  0019e	ff d6		 call	 esi

; 1423 : 	PyModule_AddIntConstant(poModule, "MOTION_DANCE_1",						CRaceMotionData::NAME_DANCE_1);

  001a0	68 46 01 00 00	 push	 326			; 00000146H
  001a5	68 00 00 00 00	 push	 OFFSET ??_C@_0P@GNPIAPBK@MOTION_DANCE_1@
  001aa	57		 push	 edi
  001ab	ff d6		 call	 esi

; 1424 : 	PyModule_AddIntConstant(poModule, "MOTION_DANCE_2",						CRaceMotionData::NAME_DANCE_2);

  001ad	68 47 01 00 00	 push	 327			; 00000147H
  001b2	68 00 00 00 00	 push	 OFFSET ??_C@_0P@EGNFFMNJ@MOTION_DANCE_2@
  001b7	57		 push	 edi
  001b8	ff d6		 call	 esi

; 1425 : 
; 1426 : 	PyModule_AddIntConstant(poModule, "MOTION_DANCE_3",						CRaceMotionData::NAME_DANCE_3);

  001ba	68 48 01 00 00	 push	 328			; 00000148H
  001bf	68 00 00 00 00	 push	 OFFSET ??_C@_0P@FPMOGNJI@MOTION_DANCE_3@
  001c4	57		 push	 edi
  001c5	ff d6		 call	 esi

; 1427 : 	PyModule_AddIntConstant(poModule, "MOTION_DANCE_4",						CRaceMotionData::NAME_DANCE_4);

  001c7	68 49 01 00 00	 push	 329			; 00000149H
  001cc	68 00 00 00 00	 push	 OFFSET ??_C@_0P@BAIPPLFP@MOTION_DANCE_4@
  001d1	57		 push	 edi
  001d2	ff d6		 call	 esi
  001d4	83 c4 48	 add	 esp, 72			; 00000048H

; 1428 : 	PyModule_AddIntConstant(poModule, "MOTION_DANCE_5",						CRaceMotionData::NAME_DANCE_5);

  001d7	68 4a 01 00 00	 push	 330			; 0000014aH
  001dc	68 00 00 00 00	 push	 OFFSET ??_C@_0P@JJEMKBO@MOTION_DANCE_5@
  001e1	57		 push	 edi
  001e2	ff d6		 call	 esi

; 1429 : 	PyModule_AddIntConstant(poModule, "MOTION_DANCE_6",						CRaceMotionData::NAME_DANCE_6);

  001e4	68 4b 01 00 00	 push	 331			; 0000014bH
  001e9	68 00 00 00 00	 push	 OFFSET ??_C@_0P@CCLJJJNN@MOTION_DANCE_6@
  001ee	57		 push	 edi
  001ef	ff d6		 call	 esi

; 1430 : 	PyModule_AddIntConstant(poModule, "MOTION_CONGRATULATION",				CRaceMotionData::NAME_CONGRATULATION);

  001f1	68 57 01 00 00	 push	 343			; 00000157H
  001f6	68 00 00 00 00	 push	 OFFSET ??_C@_0BG@BMOIGNKG@MOTION_CONGRATULATION@
  001fb	57		 push	 edi
  001fc	ff d6		 call	 esi

; 1431 : 	PyModule_AddIntConstant(poModule, "MOTION_FORGIVE",						CRaceMotionData::NAME_FORGIVE);

  001fe	68 58 01 00 00	 push	 344			; 00000158H
  00203	68 00 00 00 00	 push	 OFFSET ??_C@_0P@PACCCPNP@MOTION_FORGIVE@
  00208	57		 push	 edi
  00209	ff d6		 call	 esi

; 1432 : 	PyModule_AddIntConstant(poModule, "MOTION_ANGRY",						CRaceMotionData::NAME_ANGRY);

  0020b	68 59 01 00 00	 push	 345			; 00000159H
  00210	68 00 00 00 00	 push	 OFFSET ??_C@_0N@CLPBCEBE@MOTION_ANGRY@
  00215	57		 push	 edi
  00216	ff d6		 call	 esi

; 1433 : 	PyModule_AddIntConstant(poModule, "MOTION_ATTRACTIVE",					CRaceMotionData::NAME_ATTRACTIVE);

  00218	68 5a 01 00 00	 push	 346			; 0000015aH
  0021d	68 00 00 00 00	 push	 OFFSET ??_C@_0BC@MOMKLPKF@MOTION_ATTRACTIVE@
  00222	57		 push	 edi
  00223	ff d6		 call	 esi
  00225	83 c4 48	 add	 esp, 72			; 00000048H

; 1434 : 	PyModule_AddIntConstant(poModule, "MOTION_SAD",							CRaceMotionData::NAME_SAD);

  00228	68 5b 01 00 00	 push	 347			; 0000015bH
  0022d	68 00 00 00 00	 push	 OFFSET ??_C@_0L@PONOHEEG@MOTION_SAD@
  00232	57		 push	 edi
  00233	ff d6		 call	 esi

; 1435 : 	PyModule_AddIntConstant(poModule, "MOTION_SHY",							CRaceMotionData::NAME_SHY);

  00235	68 5c 01 00 00	 push	 348			; 0000015cH
  0023a	68 00 00 00 00	 push	 OFFSET ??_C@_0L@OGDCDNF@MOTION_SHY@
  0023f	57		 push	 edi
  00240	ff d6		 call	 esi

; 1436 : 	PyModule_AddIntConstant(poModule, "MOTION_CHEERUP",						CRaceMotionData::NAME_CHEERUP);

  00242	68 5d 01 00 00	 push	 349			; 0000015dH
  00247	68 00 00 00 00	 push	 OFFSET ??_C@_0P@KLJNPGKF@MOTION_CHEERUP@
  0024c	57		 push	 edi
  0024d	ff d6		 call	 esi

; 1437 : 	PyModule_AddIntConstant(poModule, "MOTION_BANTER",						CRaceMotionData::NAME_BANTER);

  0024f	68 5e 01 00 00	 push	 350			; 0000015eH
  00254	68 00 00 00 00	 push	 OFFSET ??_C@_0O@GPIFNFHO@MOTION_BANTER@
  00259	57		 push	 edi
  0025a	ff d6		 call	 esi

; 1438 : 	PyModule_AddIntConstant(poModule, "MOTION_JOY",							CRaceMotionData::NAME_JOY);

  0025c	68 5f 01 00 00	 push	 351			; 0000015fH
  00261	68 00 00 00 00	 push	 OFFSET ??_C@_0L@CGDNCNEF@MOTION_JOY@
  00266	57		 push	 edi
  00267	ff d6		 call	 esi

; 1439 : 	
; 1440 : 
; 1441 : 	PyModule_AddIntConstant(poModule, "MOTION_CHEERS_1",					CRaceMotionData::NAME_CHEERS_1);

  00269	68 33 01 00 00	 push	 307			; 00000133H
  0026e	68 00 00 00 00	 push	 OFFSET ??_C@_0BA@EOHNNFMC@MOTION_CHEERS_1@
  00273	57		 push	 edi
  00274	ff d6		 call	 esi
  00276	83 c4 48	 add	 esp, 72			; 00000048H

; 1442 : 	PyModule_AddIntConstant(poModule, "MOTION_CHEERS_2",					CRaceMotionData::NAME_CHEERS_2);

  00279	68 34 01 00 00	 push	 308			; 00000134H
  0027e	68 00 00 00 00	 push	 OFFSET ??_C@_0BA@GFFAIGAB@MOTION_CHEERS_2@
  00283	57		 push	 edi
  00284	ff d6		 call	 esi

; 1443 : 	PyModule_AddIntConstant(poModule, "MOTION_KISS_WITH_WARRIOR",			CRaceMotionData::NAME_KISS_WITH_WARRIOR);

  00286	68 35 01 00 00	 push	 309			; 00000135H
  0028b	68 00 00 00 00	 push	 OFFSET ??_C@_0BJ@BNMGACEI@MOTION_KISS_WITH_WARRIOR@
  00290	57		 push	 edi
  00291	ff d6		 call	 esi

; 1444 : 	PyModule_AddIntConstant(poModule, "MOTION_KISS_WITH_ASSASSIN",			CRaceMotionData::NAME_KISS_WITH_ASSASSIN);

  00293	68 36 01 00 00	 push	 310			; 00000136H
  00298	68 00 00 00 00	 push	 OFFSET ??_C@_0BK@PEHNDAJC@MOTION_KISS_WITH_ASSASSIN@
  0029d	57		 push	 edi
  0029e	ff d6		 call	 esi

; 1445 : 	PyModule_AddIntConstant(poModule, "MOTION_KISS_WITH_SURA",				CRaceMotionData::NAME_KISS_WITH_SURA);

  002a0	68 37 01 00 00	 push	 311			; 00000137H
  002a5	68 00 00 00 00	 push	 OFFSET ??_C@_0BG@FBINLMID@MOTION_KISS_WITH_SURA@
  002aa	57		 push	 edi
  002ab	ff d6		 call	 esi

; 1446 : 	PyModule_AddIntConstant(poModule, "MOTION_KISS_WITH_SHAMAN",			CRaceMotionData::NAME_KISS_WITH_SHAMAN);

  002ad	68 38 01 00 00	 push	 312			; 00000138H
  002b2	68 00 00 00 00	 push	 OFFSET ??_C@_0BI@BPAFKDHB@MOTION_KISS_WITH_SHAMAN@
  002b7	57		 push	 edi
  002b8	ff d6		 call	 esi

; 1447 : 	PyModule_AddIntConstant(poModule, "MOTION_FRENCH_KISS_WITH_WARRIOR",	CRaceMotionData::NAME_FRENCH_KISS_WITH_WARRIOR);

  002ba	68 39 01 00 00	 push	 313			; 00000139H
  002bf	68 00 00 00 00	 push	 OFFSET ??_C@_0CA@MCOGAAOA@MOTION_FRENCH_KISS_WITH_WARRIOR@
  002c4	57		 push	 edi
  002c5	ff d6		 call	 esi
  002c7	83 c4 48	 add	 esp, 72			; 00000048H

; 1448 : 	PyModule_AddIntConstant(poModule, "MOTION_FRENCH_KISS_WITH_ASSASSIN",	CRaceMotionData::NAME_FRENCH_KISS_WITH_ASSASSIN);

  002ca	68 3a 01 00 00	 push	 314			; 0000013aH
  002cf	68 00 00 00 00	 push	 OFFSET ??_C@_0CB@CMKPDLEK@MOTION_FRENCH_KISS_WITH_ASSASSI@
  002d4	57		 push	 edi
  002d5	ff d6		 call	 esi

; 1449 : 	PyModule_AddIntConstant(poModule, "MOTION_FRENCH_KISS_WITH_SURA",		CRaceMotionData::NAME_FRENCH_KISS_WITH_SURA);

  002d7	68 3b 01 00 00	 push	 315			; 0000013bH
  002dc	68 00 00 00 00	 push	 OFFSET ??_C@_0BN@OJCLLFKP@MOTION_FRENCH_KISS_WITH_SURA@
  002e1	57		 push	 edi
  002e2	ff d6		 call	 esi

; 1450 : 	PyModule_AddIntConstant(poModule, "MOTION_FRENCH_KISS_WITH_SHAMAN",		CRaceMotionData::NAME_FRENCH_KISS_WITH_SHAMAN);

  002e4	68 3c 01 00 00	 push	 316			; 0000013cH
  002e9	68 00 00 00 00	 push	 OFFSET ??_C@_0BP@FPOIMINN@MOTION_FRENCH_KISS_WITH_SHAMAN@
  002ee	57		 push	 edi
  002ef	ff d6		 call	 esi

; 1451 : 	PyModule_AddIntConstant(poModule, "MOTION_SLAP_HIT_WITH_WARRIOR",		CRaceMotionData::NAME_SLAP_HIT_WITH_WARRIOR);

  002f1	68 3d 01 00 00	 push	 317			; 0000013dH
  002f6	68 00 00 00 00	 push	 OFFSET ??_C@_0BN@KKCFGBMO@MOTION_SLAP_HIT_WITH_WARRIOR@
  002fb	57		 push	 edi
  002fc	ff d6		 call	 esi

; 1452 : 	PyModule_AddIntConstant(poModule, "MOTION_SLAP_HIT_WITH_ASSASSIN",		CRaceMotionData::NAME_SLAP_HIT_WITH_ASSASSIN);

  002fe	68 3e 01 00 00	 push	 318			; 0000013eH
  00303	68 00 00 00 00	 push	 OFFSET ??_C@_0BO@PABBPFOE@MOTION_SLAP_HIT_WITH_ASSASSIN@
  00308	57		 push	 edi
  00309	ff d6		 call	 esi

; 1453 : 	PyModule_AddIntConstant(poModule, "MOTION_SLAP_HIT_WITH_SURA",			CRaceMotionData::NAME_SLAP_HIT_WITH_SURA);

  0030b	68 3f 01 00 00	 push	 319			; 0000013fH
  00310	68 00 00 00 00	 push	 OFFSET ??_C@_0BK@BLGFNMMI@MOTION_SLAP_HIT_WITH_SURA@
  00315	57		 push	 edi
  00316	ff d6		 call	 esi
  00318	83 c4 48	 add	 esp, 72			; 00000048H

; 1454 : 	PyModule_AddIntConstant(poModule, "MOTION_SLAP_HIT_WITH_SHAMAN",		CRaceMotionData::NAME_SLAP_HIT_WITH_SHAMAN);

  0031b	68 40 01 00 00	 push	 320			; 00000140H
  00320	68 00 00 00 00	 push	 OFFSET ??_C@_0BM@EBDKBOAP@MOTION_SLAP_HIT_WITH_SHAMAN@
  00325	57		 push	 edi
  00326	ff d6		 call	 esi

; 1455 : 	PyModule_AddIntConstant(poModule, "MOTION_SLAP_HURT_WITH_WARRIOR",		CRaceMotionData::NAME_SLAP_HURT_WITH_WARRIOR);

  00328	68 41 01 00 00	 push	 321			; 00000141H
  0032d	68 00 00 00 00	 push	 OFFSET ??_C@_0BO@ENJIKGO@MOTION_SLAP_HURT_WITH_WARRIOR@
  00332	57		 push	 edi
  00333	ff d6		 call	 esi

; 1456 : 	PyModule_AddIntConstant(poModule, "MOTION_SLAP_HURT_WITH_ASSASSIN",		CRaceMotionData::NAME_SLAP_HURT_WITH_ASSASSIN);

  00335	68 42 01 00 00	 push	 322			; 00000142H
  0033a	68 00 00 00 00	 push	 OFFSET ??_C@_0BP@CGGJKKOH@MOTION_SLAP_HURT_WITH_ASSASSIN@
  0033f	57		 push	 edi
  00340	ff d6		 call	 esi

; 1457 : 	PyModule_AddIntConstant(poModule, "MOTION_SLAP_HURT_WITH_SURA",			CRaceMotionData::NAME_SLAP_HURT_WITH_SURA);

  00342	68 43 01 00 00	 push	 323			; 00000143H
  00347	68 00 00 00 00	 push	 OFFSET ??_C@_0BL@MNIFOENP@MOTION_SLAP_HURT_WITH_SURA@
  0034c	57		 push	 edi
  0034d	ff d6		 call	 esi

; 1458 : 	PyModule_AddIntConstant(poModule, "MOTION_SLAP_HURT_WITH_SHAMAN",		CRaceMotionData::NAME_SLAP_HURT_WITH_SHAMAN);

  0034f	68 44 01 00 00	 push	 324			; 00000144H
  00354	68 00 00 00 00	 push	 OFFSET ??_C@_0BN@GMLLPEOH@MOTION_SLAP_HURT_WITH_SHAMAN@
  00359	57		 push	 edi
  0035a	ff d6		 call	 esi

; 1459 : 	PyModule_AddIntConstant(poModule, "MOTION_DIG",							CRaceMotionData::NAME_DIG);

  0035c	68 45 01 00 00	 push	 325			; 00000145H
  00361	68 00 00 00 00	 push	 OFFSET ??_C@_0L@BGCOBJBL@MOTION_DIG@
  00366	57		 push	 edi
  00367	ff d6		 call	 esi
  00369	83 c4 48	 add	 esp, 72			; 00000048H

; 1460 : 
; 1461 : 	PyModule_AddIntConstant(poModule, "MOTION_MODE_RESERVED",				CRaceMotionData::MODE_RESERVED);

  0036c	6a 00		 push	 0
  0036e	68 00 00 00 00	 push	 OFFSET ??_C@_0BF@JPHCAJND@MOTION_MODE_RESERVED@
  00373	57		 push	 edi
  00374	ff d6		 call	 esi

; 1462 : 	PyModule_AddIntConstant(poModule, "MOTION_MODE_GENERAL",				CRaceMotionData::MODE_GENERAL);

  00376	6a 01		 push	 1
  00378	68 00 00 00 00	 push	 OFFSET ??_C@_0BE@PPOENDHJ@MOTION_MODE_GENERAL@
  0037d	57		 push	 edi
  0037e	ff d6		 call	 esi

; 1463 : 	PyModule_AddIntConstant(poModule, "MOTION_MODE_ONEHAND_SWORD",			CRaceMotionData::MODE_ONEHAND_SWORD);

  00380	6a 02		 push	 2
  00382	68 00 00 00 00	 push	 OFFSET ??_C@_0BK@EGEANFHJ@MOTION_MODE_ONEHAND_SWORD@
  00387	57		 push	 edi
  00388	ff d6		 call	 esi

; 1464 : 	PyModule_AddIntConstant(poModule, "MOTION_MODE_TWOHAND_SWORD",			CRaceMotionData::MODE_TWOHAND_SWORD);

  0038a	6a 03		 push	 3
  0038c	68 00 00 00 00	 push	 OFFSET ??_C@_0BK@LGGPJGKL@MOTION_MODE_TWOHAND_SWORD@
  00391	57		 push	 edi
  00392	ff d6		 call	 esi

; 1465 : 	PyModule_AddIntConstant(poModule, "MOTION_MODE_DUALHAND_SWORD",			CRaceMotionData::MODE_DUALHAND_SWORD);

  00394	6a 04		 push	 4
  00396	68 00 00 00 00	 push	 OFFSET ??_C@_0BL@BILJFJA@MOTION_MODE_DUALHAND_SWORD@
  0039b	57		 push	 edi
  0039c	ff d6		 call	 esi

; 1466 : 	PyModule_AddIntConstant(poModule, "MOTION_MODE_BOW",					CRaceMotionData::MODE_BOW);

  0039e	6a 05		 push	 5
  003a0	68 00 00 00 00	 push	 OFFSET ??_C@_0BA@BFLJJHOH@MOTION_MODE_BOW@
  003a5	57		 push	 edi
  003a6	ff d6		 call	 esi
  003a8	83 c4 48	 add	 esp, 72			; 00000048H

; 1467 : #ifdef ENABLE_NEW_ARROW_SYSTEM
; 1468 : 	PyModule_AddIntConstant(poModule, "MOTION_MODE_BOW_SPECIAL", CRaceMotionData::MODE_BOW_SPECIAL);

  003ab	6a 11		 push	 17			; 00000011H
  003ad	68 00 00 00 00	 push	 OFFSET ??_C@_0BI@OIGGOELP@MOTION_MODE_BOW_SPECIAL@
  003b2	57		 push	 edi
  003b3	ff d6		 call	 esi

; 1469 : #endif
; 1470 : 	PyModule_AddIntConstant(poModule, "MOTION_MODE_FAN",					CRaceMotionData::MODE_FAN);

  003b5	6a 06		 push	 6
  003b7	68 00 00 00 00	 push	 OFFSET ??_C@_0BA@LEFIEKC@MOTION_MODE_FAN@
  003bc	57		 push	 edi
  003bd	ff d6		 call	 esi

; 1471 : 	PyModule_AddIntConstant(poModule, "MOTION_MODE_BELL",					CRaceMotionData::MODE_BELL);

  003bf	6a 07		 push	 7
  003c1	68 00 00 00 00	 push	 OFFSET ??_C@_0BB@BNHJGCLA@MOTION_MODE_BELL@
  003c6	57		 push	 edi
  003c7	ff d6		 call	 esi

; 1472 : 	PyModule_AddIntConstant(poModule, "MOTION_MODE_FISHING",				CRaceMotionData::MODE_FISHING);

  003c9	6a 08		 push	 8
  003cb	68 00 00 00 00	 push	 OFFSET ??_C@_0BE@NMIGCCAP@MOTION_MODE_FISHING@
  003d0	57		 push	 edi
  003d1	ff d6		 call	 esi

; 1473 : 	PyModule_AddIntConstant(poModule, "MOTION_MODE_HORSE",					CRaceMotionData::MODE_HORSE);

  003d3	6a 09		 push	 9
  003d5	68 00 00 00 00	 push	 OFFSET ??_C@_0BC@KOFIOII@MOTION_MODE_HORSE@
  003da	57		 push	 edi
  003db	ff d6		 call	 esi

; 1474 : 	PyModule_AddIntConstant(poModule, "MOTION_MODE_HORSE_ONEHAND_SWORD",	CRaceMotionData::MODE_HORSE_ONEHAND_SWORD);

  003dd	6a 0a		 push	 10			; 0000000aH
  003df	68 00 00 00 00	 push	 OFFSET ??_C@_0CA@LBDCIFIC@MOTION_MODE_HORSE_ONEHAND_SWORD@
  003e4	57		 push	 edi
  003e5	ff d6		 call	 esi
  003e7	83 c4 48	 add	 esp, 72			; 00000048H

; 1475 : 	PyModule_AddIntConstant(poModule, "MOTION_MODE_HORSE_TWOHAND_SWORD",	CRaceMotionData::MODE_HORSE_TWOHAND_SWORD);

  003ea	6a 0b		 push	 11			; 0000000bH
  003ec	68 00 00 00 00	 push	 OFFSET ??_C@_0CA@EBBNMGFA@MOTION_MODE_HORSE_TWOHAND_SWORD@
  003f1	57		 push	 edi
  003f2	ff d6		 call	 esi

; 1476 : 	PyModule_AddIntConstant(poModule, "MOTION_MODE_HORSE_DUALHAND_SWORD",	CRaceMotionData::MODE_HORSE_DUALHAND_SWORD);

  003f4	6a 0c		 push	 12			; 0000000cH
  003f6	68 00 00 00 00	 push	 OFFSET ??_C@_0CB@CLBDMMFE@MOTION_MODE_HORSE_DUALHAND_SWOR@
  003fb	57		 push	 edi
  003fc	ff d6		 call	 esi

; 1477 : 	PyModule_AddIntConstant(poModule, "MOTION_MODE_HORSE_BOW",				CRaceMotionData::MODE_HORSE_BOW);

  003fe	6a 0d		 push	 13			; 0000000dH
  00400	68 00 00 00 00	 push	 OFFSET ??_C@_0BG@FPIIPCL@MOTION_MODE_HORSE_BOW@
  00405	57		 push	 edi
  00406	ff d6		 call	 esi

; 1478 : 	PyModule_AddIntConstant(poModule, "MOTION_MODE_HORSE_FAN",				CRaceMotionData::MODE_HORSE_FAN);

  00408	6a 0e		 push	 14			; 0000000eH
  0040a	68 00 00 00 00	 push	 OFFSET ??_C@_0BG@BLAEJMGO@MOTION_MODE_HORSE_FAN@
  0040f	57		 push	 edi
  00410	ff d6		 call	 esi

; 1479 : 	PyModule_AddIntConstant(poModule, "MOTION_MODE_HORSE_BELL",				CRaceMotionData::MODE_HORSE_BELL);

  00412	6a 0f		 push	 15			; 0000000fH
  00414	68 00 00 00 00	 push	 OFFSET ??_C@_0BH@IPLLKNDD@MOTION_MODE_HORSE_BELL@
  00419	57		 push	 edi
  0041a	ff d6		 call	 esi

; 1480 : 	PyModule_AddIntConstant(poModule, "MOTION_MODE_WEDDING_DRESS",			CRaceMotionData::MODE_WEDDING_DRESS);

  0041c	6a 10		 push	 16			; 00000010H
  0041e	68 00 00 00 00	 push	 OFFSET ??_C@_0BK@EFEKGCKJ@MOTION_MODE_WEDDING_DRESS@
  00423	57		 push	 edi
  00424	ff d6		 call	 esi
  00426	83 c4 48	 add	 esp, 72			; 00000048H

; 1481 : 
; 1482 : 	PyModule_AddIntConstant(poModule, "DIR_NORTH",							CInstanceBase::DIR_NORTH);

  00429	6a 00		 push	 0
  0042b	68 00 00 00 00	 push	 OFFSET ??_C@_09OGGLMICG@DIR_NORTH@
  00430	57		 push	 edi
  00431	ff d6		 call	 esi

; 1483 : 	PyModule_AddIntConstant(poModule, "DIR_NORTHEAST",						CInstanceBase::DIR_NORTHEAST);

  00433	6a 01		 push	 1
  00435	68 00 00 00 00	 push	 OFFSET ??_C@_0O@NGBDCCOD@DIR_NORTHEAST@
  0043a	57		 push	 edi
  0043b	ff d6		 call	 esi

; 1484 : 	PyModule_AddIntConstant(poModule, "DIR_EAST",							CInstanceBase::DIR_EAST);

  0043d	6a 02		 push	 2
  0043f	68 00 00 00 00	 push	 OFFSET ??_C@_08OGFOMCPI@DIR_EAST@
  00444	57		 push	 edi
  00445	ff d6		 call	 esi

; 1485 : 	PyModule_AddIntConstant(poModule, "DIR_SOUTHEAST",						CInstanceBase::DIR_SOUTHEAST);

  00447	6a 03		 push	 3
  00449	68 00 00 00 00	 push	 OFFSET ??_C@_0O@OIGCBKC@DIR_SOUTHEAST@
  0044e	57		 push	 edi
  0044f	ff d6		 call	 esi

; 1486 : 	PyModule_AddIntConstant(poModule, "DIR_SOUTH",							CInstanceBase::DIR_SOUTH);

  00451	6a 04		 push	 4
  00453	68 00 00 00 00	 push	 OFFSET ??_C@_09MEPEOBNK@DIR_SOUTH@
  00458	57		 push	 edi
  00459	ff d6		 call	 esi

; 1487 : 	PyModule_AddIntConstant(poModule, "DIR_SOUTHWEST",						CInstanceBase::DIR_SOUTHWEST);

  0045b	6a 05		 push	 5
  0045d	68 00 00 00 00	 push	 OFFSET ??_C@_0O@JLMEHCBH@DIR_SOUTHWEST@
  00462	57		 push	 edi
  00463	ff d6		 call	 esi
  00465	83 c4 48	 add	 esp, 72			; 00000048H

; 1488 : 	PyModule_AddIntConstant(poModule, "DIR_WEST",							CInstanceBase::DIR_WEST);

  00468	6a 06		 push	 6
  0046a	68 00 00 00 00	 push	 OFFSET ??_C@_08HDBMJBEN@DIR_WEST@
  0046f	57		 push	 edi
  00470	ff d6		 call	 esi

; 1489 : 	PyModule_AddIntConstant(poModule, "DIR_NORTHWEST",						CInstanceBase::DIR_NORTHWEST);

  00472	6a 07		 push	 7
  00474	68 00 00 00 00	 push	 OFFSET ??_C@_0O@EDFBHBFG@DIR_NORTHWEST@
  00479	57		 push	 edi
  0047a	ff d6		 call	 esi

; 1490 : 
; 1491 : 	PyModule_AddIntConstant(poModule, "INSTANCE_TYPE_PLAYER",				CActorInstance::TYPE_PC);

  0047c	6a 06		 push	 6
  0047e	68 00 00 00 00	 push	 OFFSET ??_C@_0BF@LBEOLJOH@INSTANCE_TYPE_PLAYER@
  00483	57		 push	 edi
  00484	ff d6		 call	 esi

; 1492 : 	PyModule_AddIntConstant(poModule, "INSTANCE_TYPE_NPC",					CActorInstance::TYPE_NPC);

  00486	6a 01		 push	 1
  00488	68 00 00 00 00	 push	 OFFSET ??_C@_0BC@HPKLHBPD@INSTANCE_TYPE_NPC@
  0048d	57		 push	 edi
  0048e	ff d6		 call	 esi

; 1493 : 	PyModule_AddIntConstant(poModule, "INSTANCE_TYPE_ENEMY",				CActorInstance::TYPE_ENEMY);

  00490	6a 00		 push	 0
  00492	68 00 00 00 00	 push	 OFFSET ??_C@_0BE@JLNEPCAN@INSTANCE_TYPE_ENEMY@
  00497	57		 push	 edi
  00498	ff d6		 call	 esi

; 1494 : 	PyModule_AddIntConstant(poModule, "INSTANCE_TYPE_BUILDING",				CActorInstance::TYPE_BUILDING);

  0049a	6a 05		 push	 5
  0049c	68 00 00 00 00	 push	 OFFSET ??_C@_0BH@FNPAMCND@INSTANCE_TYPE_BUILDING@
  004a1	57		 push	 edi
  004a2	ff d6		 call	 esi
  004a4	83 c4 48	 add	 esp, 72			; 00000048H

; 1495 : 	PyModule_AddIntConstant(poModule, "INSTANCE_TYPE_OBJECT",				CActorInstance::TYPE_OBJECT);

  004a7	6a 0a		 push	 10			; 0000000aH
  004a9	68 00 00 00 00	 push	 OFFSET ??_C@_0BF@CFBKDGLC@INSTANCE_TYPE_OBJECT@
  004ae	57		 push	 edi
  004af	ff d6		 call	 esi

; 1496 : 
; 1497 : 	PyModule_AddIntConstant(poModule, "PART_WEAPON",						CRaceData::PART_WEAPON);

  004b1	6a 01		 push	 1
  004b3	68 00 00 00 00	 push	 OFFSET ??_C@_0M@LDILJIBN@PART_WEAPON@
  004b8	57		 push	 edi
  004b9	ff d6		 call	 esi

; 1498 : 	PyModule_AddIntConstant(poModule, "PART_HEAD",							CRaceData::PART_HEAD);

  004bb	6a 02		 push	 2
  004bd	68 00 00 00 00	 push	 OFFSET ??_C@_09HAMNFDMJ@PART_HEAD@
  004c2	57		 push	 edi
  004c3	ff d6		 call	 esi

; 1499 : 	PyModule_AddIntConstant(poModule, "PART_WEAPON_LEFT",					CRaceData::PART_WEAPON_LEFT);

  004c5	6a 03		 push	 3
  004c7	68 00 00 00 00	 push	 OFFSET ??_C@_0BB@KENNFNCF@PART_WEAPON_LEFT@
  004cc	57		 push	 edi
  004cd	ff d6		 call	 esi

; 1500 : 
; 1501 : 	/////
; 1502 : 
; 1503 : 	PyModule_AddIntConstant(poModule, "AFFECT_POISON",						CInstanceBase::AFFECT_POISON);

  004cf	6a 03		 push	 3
  004d1	68 00 00 00 00	 push	 OFFSET ??_C@_0O@FFCFHML@AFFECT_POISON@
  004d6	57		 push	 edi
  004d7	ff d6		 call	 esi

; 1504 : 	PyModule_AddIntConstant(poModule, "AFFECT_SLOW",						CInstanceBase::AFFECT_SLOW);

  004d9	6a 04		 push	 4
  004db	68 00 00 00 00	 push	 OFFSET ??_C@_0M@LLKNMBHE@AFFECT_SLOW@
  004e0	57		 push	 edi
  004e1	ff d6		 call	 esi
  004e3	83 c4 48	 add	 esp, 72			; 00000048H

; 1505 : 	PyModule_AddIntConstant(poModule, "AFFECT_STUN",						CInstanceBase::AFFECT_STUN);

  004e6	6a 05		 push	 5
  004e8	68 00 00 00 00	 push	 OFFSET ??_C@_0M@KELBDBLK@AFFECT_STUN@
  004ed	57		 push	 edi
  004ee	ff d6		 call	 esi

; 1506 : 	PyModule_AddIntConstant(poModule, "AFFECT_MOV_SPEED_POTION",			CInstanceBase::AFFECT_MOV_SPEED_POTION);

  004f0	6a 0b		 push	 11			; 0000000bH
  004f2	68 00 00 00 00	 push	 OFFSET ??_C@_0BI@BEKPJJEK@AFFECT_MOV_SPEED_POTION@
  004f7	57		 push	 edi
  004f8	ff d6		 call	 esi

; 1507 : 	PyModule_AddIntConstant(poModule, "AFFECT_ATT_SPEED_POTION",			CInstanceBase::AFFECT_ATT_SPEED_POTION);

  004fa	6a 0c		 push	 12			; 0000000cH
  004fc	68 00 00 00 00	 push	 OFFSET ??_C@_0BI@JFMNFFKJ@AFFECT_ATT_SPEED_POTION@
  00501	57		 push	 edi
  00502	ff d6		 call	 esi

; 1508 : 	PyModule_AddIntConstant(poModule, "AFFECT_FISH_MIND",					CInstanceBase::AFFECT_FISH_MIND);

  00504	6a 0d		 push	 13			; 0000000dH
  00506	68 00 00 00 00	 push	 OFFSET ??_C@_0BB@HABGKKCK@AFFECT_FISH_MIND@
  0050b	57		 push	 edi
  0050c	ff d6		 call	 esi

; 1509 : 
; 1510 : 	PyModule_AddIntConstant(poModule, "AFFECT_JEONGWI",						CInstanceBase::AFFECT_JEONGWI);

  0050e	6a 0e		 push	 14			; 0000000eH
  00510	68 00 00 00 00	 push	 OFFSET ??_C@_0P@PMGJMPLA@AFFECT_JEONGWI@
  00515	57		 push	 edi
  00516	ff d6		 call	 esi

; 1511 : 	PyModule_AddIntConstant(poModule, "AFFECT_GEOMGYEONG",					CInstanceBase::AFFECT_GEOMGYEONG);

  00518	6a 0f		 push	 15			; 0000000fH
  0051a	68 00 00 00 00	 push	 OFFSET ??_C@_0BC@BPIBLGH@AFFECT_GEOMGYEONG@
  0051f	57		 push	 edi
  00520	ff d6		 call	 esi
  00522	83 c4 48	 add	 esp, 72			; 00000048H

; 1512 : 	PyModule_AddIntConstant(poModule, "AFFECT_CHEONGEUN",					CInstanceBase::AFFECT_CHEONGEUN);

  00525	6a 10		 push	 16			; 00000010H
  00527	68 00 00 00 00	 push	 OFFSET ??_C@_0BB@NMEHKBDD@AFFECT_CHEONGEUN@
  0052c	57		 push	 edi
  0052d	ff d6		 call	 esi

; 1513 : 	PyModule_AddIntConstant(poModule, "AFFECT_GYEONGGONG",					CInstanceBase::AFFECT_GYEONGGONG);

  0052f	6a 11		 push	 17			; 00000011H
  00531	68 00 00 00 00	 push	 OFFSET ??_C@_0BC@DNOFICLK@AFFECT_GYEONGGONG@
  00536	57		 push	 edi
  00537	ff d6		 call	 esi

; 1514 : 	PyModule_AddIntConstant(poModule, "AFFECT_EUNHYEONG",					CInstanceBase::AFFECT_EUNHYEONG);

  00539	6a 12		 push	 18			; 00000012H
  0053b	68 00 00 00 00	 push	 OFFSET ??_C@_0BB@NOAECAHF@AFFECT_EUNHYEONG@
  00540	57		 push	 edi
  00541	ff d6		 call	 esi

; 1515 : 	PyModule_AddIntConstant(poModule, "AFFECT_GWIGEOM",						CInstanceBase::AFFECT_GWIGEOM);

  00543	6a 13		 push	 19			; 00000013H
  00545	68 00 00 00 00	 push	 OFFSET ??_C@_0P@JADECJKN@AFFECT_GWIGEOM@
  0054a	57		 push	 edi
  0054b	ff d6		 call	 esi

; 1516 : 	PyModule_AddIntConstant(poModule, "AFFECT_GONGPO",						CInstanceBase::AFFECT_GONGPO);

  0054d	6a 14		 push	 20			; 00000014H
  0054f	68 00 00 00 00	 push	 OFFSET ??_C@_0O@MEBBDMFP@AFFECT_GONGPO@
  00554	57		 push	 edi
  00555	ff d6		 call	 esi

; 1517 : 	PyModule_AddIntConstant(poModule, "AFFECT_JUMAGAP",						CInstanceBase::AFFECT_JUMAGAP);

  00557	6a 15		 push	 21			; 00000015H
  00559	68 00 00 00 00	 push	 OFFSET ??_C@_0P@NHIEBDHO@AFFECT_JUMAGAP@
  0055e	57		 push	 edi
  0055f	ff d6		 call	 esi
  00561	83 c4 48	 add	 esp, 72			; 00000048H

; 1518 : 	PyModule_AddIntConstant(poModule, "AFFECT_HOSIN",						CInstanceBase::AFFECT_HOSIN);

  00564	6a 16		 push	 22			; 00000016H
  00566	68 00 00 00 00	 push	 OFFSET ??_C@_0N@BLOPJELK@AFFECT_HOSIN@
  0056b	57		 push	 edi
  0056c	ff d6		 call	 esi

; 1519 : 	PyModule_AddIntConstant(poModule, "AFFECT_BOHO",						CInstanceBase::AFFECT_BOHO);

  0056e	6a 17		 push	 23			; 00000017H
  00570	68 00 00 00 00	 push	 OFFSET ??_C@_0M@HDMMFOHE@AFFECT_BOHO@
  00575	57		 push	 edi
  00576	ff d6		 call	 esi

; 1520 : 	PyModule_AddIntConstant(poModule, "AFFECT_KWAESOK",						CInstanceBase::AFFECT_KWAESOK);

  00578	6a 18		 push	 24			; 00000018H
  0057a	68 00 00 00 00	 push	 OFFSET ??_C@_0P@HCCAECCK@AFFECT_KWAESOK@
  0057f	57		 push	 edi
  00580	ff d6		 call	 esi

; 1521 : 	PyModule_AddIntConstant(poModule, "AFFECT_HEUKSIN",						CInstanceBase::AFFECT_HEUKSIN);

  00582	6a 19		 push	 25			; 00000019H
  00584	68 00 00 00 00	 push	 OFFSET ??_C@_0P@FCGDLODF@AFFECT_HEUKSIN@
  00589	57		 push	 edi
  0058a	ff d6		 call	 esi

; 1522 : 	PyModule_AddIntConstant(poModule, "AFFECT_MUYEONG",						CInstanceBase::AFFECT_MUYEONG);

  0058c	6a 1a		 push	 26			; 0000001aH
  0058e	68 00 00 00 00	 push	 OFFSET ??_C@_0P@HLONBHGO@AFFECT_MUYEONG@
  00593	57		 push	 edi
  00594	ff d6		 call	 esi

; 1523 : 	PyModule_AddIntConstant(poModule, "AFFECT_GICHEON",						CInstanceBase::AFFECT_GICHEON);

  00596	6a 1d		 push	 29			; 0000001dH
  00598	68 00 00 00 00	 push	 OFFSET ??_C@_0P@KPDDCJEK@AFFECT_GICHEON@
  0059d	57		 push	 edi
  0059e	ff d6		 call	 esi
  005a0	83 c4 48	 add	 esp, 72			; 00000048H

; 1524 : 	PyModule_AddIntConstant(poModule, "AFFECT_JEUNGRYEOK",					CInstanceBase::AFFECT_JEUNGRYEOK);

  005a3	6a 1e		 push	 30			; 0000001eH
  005a5	68 00 00 00 00	 push	 OFFSET ??_C@_0BC@HABANGHD@AFFECT_JEUNGRYEOK@
  005aa	57		 push	 edi
  005ab	ff d6		 call	 esi

; 1525 : 	PyModule_AddIntConstant(poModule, "AFFECT_PABEOP",						CInstanceBase::AFFECT_PABEOP);

  005ad	6a 20		 push	 32			; 00000020H
  005af	68 00 00 00 00	 push	 OFFSET ??_C@_0O@OJLLDADG@AFFECT_PABEOP@
  005b4	57		 push	 edi
  005b5	ff d6		 call	 esi

; 1526 : 	PyModule_AddIntConstant(poModule, "AFFECT_FALLEN_CHEONGEUN",			CInstanceBase::AFFECT_FALLEN_CHEONGEUN);

  005b7	6a 21		 push	 33			; 00000021H
  005b9	68 00 00 00 00	 push	 OFFSET ??_C@_0BI@CFDHLOMB@AFFECT_FALLEN_CHEONGEUN@
  005be	57		 push	 edi
  005bf	ff d6		 call	 esi

; 1527 : 	PyModule_AddIntConstant(poModule, "AFFECT_CHINA_FIREWORK",				CInstanceBase::AFFECT_CHINA_FIREWORK);

  005c1	6a 26		 push	 38			; 00000026H
  005c3	68 00 00 00 00	 push	 OFFSET ??_C@_0BG@DFBDCPEK@AFFECT_CHINA_FIREWORK@
  005c8	57		 push	 edi
  005c9	ff d6		 call	 esi

; 1528 : 	PyModule_AddIntConstant(poModule, "NEW_AFFECT_MALL",					CInstanceBase::NEW_AFFECT_MALL);

  005cb	68 fe 01 00 00	 push	 510			; 000001feH
  005d0	68 00 00 00 00	 push	 OFFSET ??_C@_0BA@DBLFIOAN@NEW_AFFECT_MALL@
  005d5	57		 push	 edi
  005d6	ff d6		 call	 esi

; 1529 : 	PyModule_AddIntConstant(poModule, "NEW_AFFECT_NO_DEATH_PENALTY",		CInstanceBase::NEW_AFFECT_NO_DEATH_PENALTY);

  005d8	68 ff 01 00 00	 push	 511			; 000001ffH
  005dd	68 00 00 00 00	 push	 OFFSET ??_C@_0BM@NOKMEHMP@NEW_AFFECT_NO_DEATH_PENALTY@
  005e2	57		 push	 edi
  005e3	ff d6		 call	 esi
  005e5	83 c4 48	 add	 esp, 72			; 00000048H

; 1530 : 	PyModule_AddIntConstant(poModule, "NEW_AFFECT_SKILL_BOOK_BONUS",		CInstanceBase::NEW_AFFECT_SKILL_BOOK_BONUS);

  005e8	68 00 02 00 00	 push	 512			; 00000200H
  005ed	68 00 00 00 00	 push	 OFFSET ??_C@_0BM@ELPJNNPH@NEW_AFFECT_SKILL_BOOK_BONUS@
  005f2	57		 push	 edi
  005f3	ff d6		 call	 esi

; 1531 : 	PyModule_AddIntConstant(poModule, "NEW_AFFECT_SKILL_BOOK_NO_DELAY",		CInstanceBase::NEW_AFFECT_SKILL_BOOK_NO_DELAY);

  005f5	68 01 02 00 00	 push	 513			; 00000201H
  005fa	68 00 00 00 00	 push	 OFFSET ??_C@_0BP@ILCIKFOJ@NEW_AFFECT_SKILL_BOOK_NO_DELAY@
  005ff	57		 push	 edi
  00600	ff d6		 call	 esi

; 1532 : 	PyModule_AddIntConstant(poModule, "NEW_AFFECT_EXP_BONUS",				CInstanceBase::NEW_AFFECT_EXP_BONUS);

  00602	68 f4 01 00 00	 push	 500			; 000001f4H
  00607	68 00 00 00 00	 push	 OFFSET ??_C@_0BF@IGFBIBCE@NEW_AFFECT_EXP_BONUS@
  0060c	57		 push	 edi
  0060d	ff d6		 call	 esi

; 1533 : 	PyModule_AddIntConstant(poModule, "NEW_AFFECT_EXP_BONUS_EURO_FREE",		CInstanceBase::NEW_AFFECT_EXP_BONUS_EURO_FREE);

  0060f	68 04 02 00 00	 push	 516			; 00000204H
  00614	68 00 00 00 00	 push	 OFFSET ??_C@_0BP@PLLCKPKL@NEW_AFFECT_EXP_BONUS_EURO_FREE@
  00619	57		 push	 edi
  0061a	ff d6		 call	 esi

; 1534 : 	PyModule_AddIntConstant(poModule, "NEW_AFFECT_EXP_BONUS_EURO_FREE_UNDER_15",CInstanceBase::NEW_AFFECT_EXP_BONUS_EURO_FREE_UNDER_15);

  0061c	68 05 02 00 00	 push	 517			; 00000205H
  00621	68 00 00 00 00	 push	 OFFSET ??_C@_0CI@CIBKFDJK@NEW_AFFECT_EXP_BONUS_EURO_FREE_@
  00626	57		 push	 edi
  00627	ff d6		 call	 esi

; 1535 : 
; 1536 : 	PyModule_AddIntConstant(poModule, "NEW_AFFECT_ITEM_BONUS",				CInstanceBase::NEW_AFFECT_ITEM_BONUS);

  00629	68 f5 01 00 00	 push	 501			; 000001f5H
  0062e	68 00 00 00 00	 push	 OFFSET ??_C@_0BG@GBJOJDKK@NEW_AFFECT_ITEM_BONUS@
  00633	57		 push	 edi
  00634	ff d6		 call	 esi
  00636	83 c4 48	 add	 esp, 72			; 00000048H

; 1537 : 	PyModule_AddIntConstant(poModule, "NEW_AFFECT_SAFEBOX",					CInstanceBase::NEW_AFFECT_SAFEBOX);

  00639	68 f6 01 00 00	 push	 502			; 000001f6H
  0063e	68 00 00 00 00	 push	 OFFSET ??_C@_0BD@OLNAIOLN@NEW_AFFECT_SAFEBOX@
  00643	57		 push	 edi
  00644	ff d6		 call	 esi

; 1538 : 	PyModule_AddIntConstant(poModule, "NEW_AFFECT_AUTOLOOT",				CInstanceBase::NEW_AFFECT_AUTOLOOT);

  00646	68 f7 01 00 00	 push	 503			; 000001f7H
  0064b	68 00 00 00 00	 push	 OFFSET ??_C@_0BE@OGKIHHNM@NEW_AFFECT_AUTOLOOT@
  00650	57		 push	 edi
  00651	ff d6		 call	 esi

; 1539 : 	PyModule_AddIntConstant(poModule, "NEW_AFFECT_FISH_MIND",				CInstanceBase::NEW_AFFECT_FISH_MIND);

  00653	68 f8 01 00 00	 push	 504			; 000001f8H
  00658	68 00 00 00 00	 push	 OFFSET ??_C@_0BF@LHIEHLCN@NEW_AFFECT_FISH_MIND@
  0065d	57		 push	 edi
  0065e	ff d6		 call	 esi

; 1540 : 	PyModule_AddIntConstant(poModule, "NEW_AFFECT_MARRIAGE_FAST",			CInstanceBase::NEW_AFFECT_MARRIAGE_FAST);

  00660	68 f9 01 00 00	 push	 505			; 000001f9H
  00665	68 00 00 00 00	 push	 OFFSET ??_C@_0BJ@DEPPJPLB@NEW_AFFECT_MARRIAGE_FAST@
  0066a	57		 push	 edi
  0066b	ff d6		 call	 esi

; 1541 : 	PyModule_AddIntConstant(poModule, "NEW_AFFECT_GOLD_BONUS",				CInstanceBase::NEW_AFFECT_GOLD_BONUS);

  0066d	68 fa 01 00 00	 push	 506			; 000001faH
  00672	68 00 00 00 00	 push	 OFFSET ??_C@_0BG@FPEKGPMD@NEW_AFFECT_GOLD_BONUS@
  00677	57		 push	 edi
  00678	ff d6		 call	 esi

; 1542 : 	PyModule_AddIntConstant(poModule, "NEW_AFFECT_AUTO_HP_RECOVERY",		CInstanceBase::NEW_AFFECT_AUTO_HP_RECOVERY);

  0067a	68 16 02 00 00	 push	 534			; 00000216H
  0067f	68 00 00 00 00	 push	 OFFSET ??_C@_0BM@DLPBDIOI@NEW_AFFECT_AUTO_HP_RECOVERY@
  00684	57		 push	 edi
  00685	ff d6		 call	 esi
  00687	83 c4 48	 add	 esp, 72			; 00000048H

; 1543 : 	PyModule_AddIntConstant(poModule, "NEW_AFFECT_AUTO_SP_RECOVERY",		CInstanceBase::NEW_AFFECT_AUTO_SP_RECOVERY);

  0068a	68 17 02 00 00	 push	 535			; 00000217H
  0068f	68 00 00 00 00	 push	 OFFSET ??_C@_0BM@EGHLHBBK@NEW_AFFECT_AUTO_SP_RECOVERY@
  00694	57		 push	 edi
  00695	ff d6		 call	 esi

; 1544 : 
; 1545 : 	PyModule_AddIntConstant(poModule, "NEW_AFFECT_DRAGON_SOUL_QUALIFIED",		CInstanceBase::NEW_AFFECT_DRAGON_SOUL_QUALIFIED);

  00697	68 1c 02 00 00	 push	 540			; 0000021cH
  0069c	68 00 00 00 00	 push	 OFFSET ??_C@_0CB@MMNLNBEI@NEW_AFFECT_DRAGON_SOUL_QUALIFIE@
  006a1	57		 push	 edi
  006a2	ff d6		 call	 esi

; 1546 : 
; 1547 : 	PyModule_AddIntConstant(poModule, "NEW_AFFECT_DRAGON_SOUL_DECK1",		CInstanceBase::NEW_AFFECT_DRAGON_SOUL_DECK1);

  006a4	68 1d 02 00 00	 push	 541			; 0000021dH
  006a9	68 00 00 00 00	 push	 OFFSET ??_C@_0BN@DIIGGCFL@NEW_AFFECT_DRAGON_SOUL_DECK1@
  006ae	57		 push	 edi
  006af	ff d6		 call	 esi

; 1548 : 	PyModule_AddIntConstant(poModule, "NEW_AFFECT_DRAGON_SOUL_DECK2",		CInstanceBase::NEW_AFFECT_DRAGON_SOUL_DECK2);

  006b1	68 1e 02 00 00	 push	 542			; 0000021eH
  006b6	68 00 00 00 00	 push	 OFFSET ??_C@_0BN@BDKLDBJI@NEW_AFFECT_DRAGON_SOUL_DECK2@
  006bb	57		 push	 edi
  006bc	ff d6		 call	 esi

; 1549 : 
; 1550 : 	#ifdef ENABLE_SASH_SYSTEM
; 1551 : 	PyModule_AddIntConstant(poModule, "PART_SASH", CRaceData::PART_SASH);

  006be	6a 05		 push	 5
  006c0	68 00 00 00 00	 push	 OFFSET ??_C@_09FLIIFKBP@PART_SASH@
  006c5	57		 push	 edi
  006c6	ff d6		 call	 esi
  006c8	83 c4 3c	 add	 esp, 60			; 0000003cH
  006cb	5f		 pop	 edi
  006cc	5e		 pop	 esi

; 1552 : 	#endif
; 1553 : 
; 1554 : }

  006cd	c3		 ret	 0
?initchr@@YAXXZ ENDP					; initchr
_TEXT	ENDS
; Function compile flags: /Ogtp
; File C:\Program Files\Microsoft Visual Studio\2022\Community\VC\Tools\MSVC\14.34.31933\include\cmath
;	COMDAT ?fmod@@YAMMM@Z
_TEXT	SEGMENT
?fmod@@YAMMM@Z PROC					; fmod, COMDAT
; __Xx$ = xmm0s
; __Yx$ = xmm1s

; 146  : _NODISCARD _Check_return_ inline float fmod(_In_ float _Xx, _In_ float _Yx) noexcept /* strengthened */ {

  00000	51		 push	 ecx

; 147  :     return _CSTD fmodf(_Xx, _Yx);

  00001	e8 00 00 00 00	 call	 _fmodf

; 148  : }

  00006	59		 pop	 ecx
  00007	c3		 ret	 0
?fmod@@YAMMM@Z ENDP					; fmod
_TEXT	ENDS
END
