; Listing generated by Microsoft (R) Optimizing Compiler Version 19.34.31937.0 

	TITLE	e:\metin2_server\solwaynesf v6\clientvs22\vs_files\userinterface\distribute\pythonapplicationprocedure.obj
	.686P
	.XMM
	include listing.inc
	.model	flat

INCLUDELIB OLDNAMES

EXTRN	?WindowProcedure@CMSApplication@@MAEJPAUHWND__@@IIJ@Z:PROC ; CMSApplication::WindowProcedure
EXTRN	_WebBrowser_IsVisible:PROC
EXTRN	?ResizeBackBuffer@CGraphicDevice@@QAE_NII@Z:PROC ; CGraphicDevice::ResizeBackBuffer
EXTRN	?RunMouseMiddleButtonDown@CWindowManager@UI@@QAEXJJ@Z:PROC ; UI::CWindowManager::RunMouseMiddleButtonDown
EXTRN	?RunMouseMiddleButtonUp@CWindowManager@UI@@QAEXJJ@Z:PROC ; UI::CWindowManager::RunMouseMiddleButtonUp
EXTRN	__imp__GetCapture@0:PROC
EXTRN	?WMNotify@CIME@@QAEJPAUHWND__@@IIJ@Z:PROC	; CIME::WMNotify
EXTRN	?WMChar@CIME@@QAEJPAUHWND__@@IIJ@Z:PROC		; CIME::WMChar
EXTRN	?WMComposition@CIME@@QAEJPAUHWND__@@IIJ@Z:PROC	; CIME::WMComposition
EXTRN	?WMEndComposition@CIME@@QAEJPAUHWND__@@IIJ@Z:PROC ; CIME::WMEndComposition
EXTRN	?WMInputLanguage@CIME@@QAEJPAUHWND__@@IIJ@Z:PROC ; CIME::WMInputLanguage
EXTRN	?WMStartComposition@CIME@@QAEJPAUHWND__@@IIJ@Z:PROC ; CIME::WMStartComposition
EXTRN	?RestoreVolume@CSoundManager@@QAEXXZ:PROC	; CSoundManager::RestoreVolume
EXTRN	?SaveVolume@CSoundManager@@QAEXXZ:PROC		; CSoundManager::SaveVolume
EXTRN	__imp__ShowWindow@8:PROC
EXTRN	__imp__ChangeDisplaySettingsA@8:PROC
EXTRN	__imp__ReleaseCapture@0:PROC
EXTRN	__imp__SetCapture@4:PROC
;	COMDAT ?s_yDownPosition@?1??WindowProcedure@CPythonApplication@@MAEJPAUHWND__@@IIJ@Z@4HA
_BSS	SEGMENT
?s_yDownPosition@?1??WindowProcedure@CPythonApplication@@MAEJPAUHWND__@@IIJ@Z@4HA DD 01H DUP (?) ; `CPythonApplication::WindowProcedure'::`2'::s_yDownPosition
_BSS	ENDS
;	COMDAT ?s_xDownPosition@?1??WindowProcedure@CPythonApplication@@MAEJPAUHWND__@@IIJ@Z@4HA
_BSS	SEGMENT
?s_xDownPosition@?1??WindowProcedure@CPythonApplication@@MAEJPAUHWND__@@IIJ@Z@4HA DD 01H DUP (?) ; `CPythonApplication::WindowProcedure'::`2'::s_xDownPosition
_BSS	ENDS
PUBLIC	?__MinimizeFullScreenWindow@CPythonApplication@@IAEXPAUHWND__@@KK@Z ; CPythonApplication::__MinimizeFullScreenWindow
PUBLIC	?SafeReleaseCapture@CPythonApplication@@QAEXXZ	; CPythonApplication::SafeReleaseCapture
PUBLIC	?SafeSetCapture@CPythonApplication@@QAEXXZ	; CPythonApplication::SafeSetCapture
PUBLIC	?__SetFullScreenWindow@CPythonApplication@@IAEXPAUHWND__@@KKK@Z ; CPythonApplication::__SetFullScreenWindow
PUBLIC	?WindowProcedure@CPythonApplication@@MAEJPAUHWND__@@IIJ@Z ; CPythonApplication::WindowProcedure
?gs_nMouseCaptureRef@@3HA DD 01H DUP (?)		; gs_nMouseCaptureRef
_BSS	ENDS
; Function compile flags: /Ogtp
; File E:\Metin2_server\SolWayneSF v6\ClientVS22\source\UserInterface\PythonApplicationProcedure.cpp
;	COMDAT ?WindowProcedure@CPythonApplication@@MAEJPAUHWND__@@IIJ@Z
_TEXT	SEGMENT
_wParam$1$ = -24					; size = 4
_rcWnd$1 = -20						; size = 16
_rcWnd$2 = -20						; size = 16
__$ArrayPad$ = -4					; size = 4
_hWnd$ = 8						; size = 4
_uiMsg$ = 12						; size = 4
_wParam$ = 16						; size = 4
_lParam$ = 20						; size = 4
?WindowProcedure@CPythonApplication@@MAEJPAUHWND__@@IIJ@Z PROC ; CPythonApplication::WindowProcedure, COMDAT
; _this$ = ecx

; 50   : {

  00000	55		 push	 ebp
  00001	8b ec		 mov	 ebp, esp
  00003	83 ec 18	 sub	 esp, 24			; 00000018H
  00006	a1 00 00 00 00	 mov	 eax, DWORD PTR ___security_cookie
  0000b	33 c5		 xor	 eax, ebp
  0000d	89 45 fc	 mov	 DWORD PTR __$ArrayPad$[ebp], eax
  00010	53		 push	 ebx
  00011	8b 5d 08	 mov	 ebx, DWORD PTR _hWnd$[ebp]
  00014	56		 push	 esi
  00015	57		 push	 edi

; 51   : 	const int c_DoubleClickTime = 300;
; 52   : 	const int c_DoubleClickBox = 5;
; 53   : 	static int s_xDownPosition = 0;
; 54   : 	static int s_yDownPosition = 0;	
; 55   : 
; 56   : 	switch (uiMsg)

  00016	8b 7d 0c	 mov	 edi, DWORD PTR _uiMsg$[ebp]
  00019	8b f1		 mov	 esi, ecx
  0001b	8b 4d 10	 mov	 ecx, DWORD PTR _wParam$[ebp]
  0001e	89 4d e8	 mov	 DWORD PTR _wParam$1$[ebp], ecx
  00021	83 ff 1c	 cmp	 edi, 28			; 0000001cH
  00024	0f 87 fe 00 00
	00		 ja	 $LN58@WindowProc
  0002a	74 7a		 je	 SHORT $LN10@WindowProc
  0002c	8b c7		 mov	 eax, edi
  0002e	83 e8 02	 sub	 eax, 2
  00031	0f 84 88 04 00
	00		 je	 $LN33@WindowProc
  00037	83 e8 03	 sub	 eax, 3
  0003a	74 23		 je	 SHORT $LN37@WindowProc
  0003c	83 e8 0b	 sub	 eax, 11			; 0000000bH
  0003f	0f 85 ce 04 00
	00		 jne	 $LN67@WindowProc

; 260  : 					return 0;
; 261  : 				}
; 262  : 			}
; 263  : 			break;
; 264  : 
; 265  : 		case WM_CLOSE:
; 266  : #ifdef _DEBUG
; 267  : 			PostQuitMessage(0);
; 268  : #else	
; 269  : 			RunPressExitKey();

  00045	e8 00 00 00 00	 call	 ?RunPressExitKey@CPythonApplication@@QAEXXZ ; CPythonApplication::RunPressExitKey
  0004a	5f		 pop	 edi

; 281  : }

  0004b	5e		 pop	 esi
  0004c	33 c0		 xor	 eax, eax
  0004e	5b		 pop	 ebx
  0004f	8b 4d fc	 mov	 ecx, DWORD PTR __$ArrayPad$[ebp]
  00052	33 cd		 xor	 ecx, ebp
  00054	e8 00 00 00 00	 call	 @__security_check_cookie@4
  00059	8b e5		 mov	 esp, ebp
  0005b	5d		 pop	 ebp
  0005c	c2 10 00	 ret	 16			; 00000010H
$LN37@WindowProc:

; 192  : 
; 193  : 		case WM_SIZE:
; 194  : 			switch (wParam)

  0005f	8b 45 e8	 mov	 eax, DWORD PTR _wParam$1$[ebp]
  00062	8b c8		 mov	 ecx, eax
  00064	83 e9 00	 sub	 ecx, 0
  00067	74 05		 je	 SHORT $LN38@WindowProc
  00069	83 e9 02	 sub	 ecx, 2
  0006c	75 27		 jne	 SHORT $LN4@WindowProc
$LN38@WindowProc:

; 195  : 			{
; 196  : 				case SIZE_RESTORED:
; 197  : 				case SIZE_MAXIMIZED:
; 198  : 					{
; 199  : 						RECT rcWnd; 
; 200  : 						GetClientRect(&rcWnd); 

  0006e	8d 45 ec	 lea	 eax, DWORD PTR _rcWnd$2[ebp]
  00071	8b ce		 mov	 ecx, esi
  00073	50		 push	 eax
  00074	e8 00 00 00 00	 call	 ?GetClientRect@CMSWindow@@QAEXPAUtagRECT@@@Z ; CMSWindow::GetClientRect

; 201  : 				
; 202  : 						UINT uWidth=rcWnd.right-rcWnd.left; 
; 203  : 						UINT uHeight=rcWnd.bottom-rcWnd.left; 

  00079	8b 45 f8	 mov	 eax, DWORD PTR _rcWnd$2[ebp+12]

; 204  : 						m_grpDevice.ResizeBackBuffer(uWidth, uHeight);				

  0007c	8d 8e f4 15 02
	00		 lea	 ecx, DWORD PTR [esi+136692]
  00082	2b 45 ec	 sub	 eax, DWORD PTR _rcWnd$2[ebp]
  00085	50		 push	 eax
  00086	8b 45 f4	 mov	 eax, DWORD PTR _rcWnd$2[ebp+8]
  00089	2b 45 ec	 sub	 eax, DWORD PTR _rcWnd$2[ebp]
  0008c	50		 push	 eax
  0008d	e8 00 00 00 00	 call	 ?ResizeBackBuffer@CGraphicDevice@@QAE_NII@Z ; CGraphicDevice::ResizeBackBuffer
  00092	8b 45 e8	 mov	 eax, DWORD PTR _wParam$1$[ebp]
$LN4@WindowProc:

; 205  : 					}
; 206  : 					break;
; 207  : 			}
; 208  : 
; 209  : 			if (wParam==SIZE_MINIMIZED)
; 210  : 				m_isMinimizedWnd=true;
; 211  : 			else
; 212  : 				m_isMinimizedWnd=false;
; 213  : 
; 214  : 			OnSizeChange(short(LOWORD(lParam)), short(HIWORD(lParam)));
; 215  : 
; 216  : 			break;

  00095	83 f8 01	 cmp	 eax, 1
  00098	0f 94 c0	 sete	 al
  0009b	88 86 50 3e 02
	00		 mov	 BYTE PTR [esi+147024], al
  000a1	e9 6a 04 00 00	 jmp	 $LN72@WindowProc
$LN10@WindowProc:

; 57   : 	{
; 58   : 		case WM_ACTIVATEAPP:
; 59   : 			{
; 60   : 				m_isActivateWnd = (wParam == WA_ACTIVE) || (wParam == WA_CLICKACTIVE);

  000a6	83 f9 01	 cmp	 ecx, 1
  000a9	74 3b		 je	 SHORT $LN56@WindowProc
  000ab	83 f9 02	 cmp	 ecx, 2
  000ae	74 36		 je	 SHORT $LN56@WindowProc
  000b0	8d 8e e8 00 00
	00		 lea	 ecx, DWORD PTR [esi+232]
  000b6	c6 86 51 3e 02
	00 00		 mov	 BYTE PTR [esi+147025], 0

; 73   : 				else
; 74   : 				{
; 75   : 					m_SoundManager.SaveVolume();

  000bd	e8 00 00 00 00	 call	 ?SaveVolume@CSoundManager@@QAEXXZ ; CSoundManager::SaveVolume

; 76   : 
; 77   : 					//////////////////
; 78   : 
; 79   : 					if (m_isWindowFullScreenEnable)

  000c2	83 be 54 3e 02
	00 00		 cmp	 DWORD PTR [esi+147028], 0
  000c9	0f 84 41 04 00
	00		 je	 $LN72@WindowProc

; 80   : 					{
; 81   : 						__MinimizeFullScreenWindow(hWnd, m_dwWidth, m_dwHeight);

  000cf	ff b6 28 3d 02
	00		 push	 DWORD PTR [esi+146728]
  000d5	ff b6 24 3d 02
	00		 push	 DWORD PTR [esi+146724]
  000db	53		 push	 ebx
  000dc	e8 00 00 00 00	 call	 ?__MinimizeFullScreenWindow@CPythonApplication@@IAEXPAUHWND__@@KK@Z ; CPythonApplication::__MinimizeFullScreenWindow

; 82   : 					}
; 83   : 				}
; 84   : 			}
; 85   : 			break;

  000e1	e9 2a 04 00 00	 jmp	 $LN72@WindowProc
$LN56@WindowProc:

; 57   : 	{
; 58   : 		case WM_ACTIVATEAPP:
; 59   : 			{
; 60   : 				m_isActivateWnd = (wParam == WA_ACTIVE) || (wParam == WA_CLICKACTIVE);

  000e6	8d 8e e8 00 00
	00		 lea	 ecx, DWORD PTR [esi+232]
  000ec	c6 86 51 3e 02
	00 01		 mov	 BYTE PTR [esi+147025], 1

; 61   : 
; 62   : 				if (m_isActivateWnd)
; 63   : 				{
; 64   : 					m_SoundManager.RestoreVolume();

  000f3	e8 00 00 00 00	 call	 ?RestoreVolume@CSoundManager@@QAEXXZ ; CSoundManager::RestoreVolume

; 65   : 
; 66   : 					//////////////////
; 67   : 
; 68   : 					if (m_isWindowFullScreenEnable)

  000f8	83 be 54 3e 02
	00 00		 cmp	 DWORD PTR [esi+147028], 0
  000ff	0f 84 0b 04 00
	00		 je	 $LN72@WindowProc

; 69   : 					{
; 70   : 						__SetFullScreenWindow(hWnd, m_dwWidth, m_dwHeight, m_pySystem.GetBPP());

  00105	8d 8e 10 16 02
	00		 lea	 ecx, DWORD PTR [esi+136720]
  0010b	e8 00 00 00 00	 call	 ?GetBPP@CPythonSystem@@QAEKXZ ; CPythonSystem::GetBPP
  00110	50		 push	 eax
  00111	ff b6 28 3d 02
	00		 push	 DWORD PTR [esi+146728]
  00117	ff b6 24 3d 02
	00		 push	 DWORD PTR [esi+146724]
  0011d	51		 push	 ecx
  0011e	e8 00 00 00 00	 call	 ?__SetFullScreenWindow@CPythonApplication@@IAEXPAUHWND__@@KKK@Z ; CPythonApplication::__SetFullScreenWindow

; 71   : 					}
; 72   : 				}

  00123	e9 e8 03 00 00	 jmp	 $LN72@WindowProc
$LN58@WindowProc:

; 51   : 	const int c_DoubleClickTime = 300;
; 52   : 	const int c_DoubleClickBox = 5;
; 53   : 	static int s_xDownPosition = 0;
; 54   : 	static int s_yDownPosition = 0;	
; 55   : 
; 56   : 	switch (uiMsg)

  00128	81 ff 0d 01 00
	00		 cmp	 edi, 269		; 0000010dH
  0012e	0f 87 1c 01 00
	00		 ja	 $LN59@WindowProc
  00134	0f 84 ed 00 00
	00		 je	 $LN16@WindowProc
  0013a	8d 47 e0	 lea	 eax, DWORD PTR [edi-32]
  0013d	3d e5 00 00 00	 cmp	 eax, 229		; 000000e5H
  00142	0f 87 cb 03 00
	00		 ja	 $LN67@WindowProc
  00148	0f b6 80 00 00
	00 00		 movzx	 eax, BYTE PTR $LN63@WindowProc[eax]
  0014f	ff 24 85 00 00
	00 00		 jmp	 DWORD PTR $LN64@WindowProc[eax*4]
$LN15@WindowProc:

; 86   : 
; 87   : 		case WM_INPUTLANGCHANGE:
; 88   : 			return CPythonIME::Instance().WMInputLanguage(hWnd, uiMsg, wParam, lParam);

  00156	ff 75 14	 push	 DWORD PTR _lParam$[ebp]
  00159	8b 0d 00 00 00
	00		 mov	 ecx, DWORD PTR ?ms_singleton@?$CSingleton@VCPythonIME@@@@0PAVCPythonIME@@A ; CSingleton<CPythonIME>::ms_singleton
  0015f	ff 75 10	 push	 DWORD PTR _wParam$[ebp]
  00162	57		 push	 edi
  00163	8d 49 04	 lea	 ecx, DWORD PTR [ecx+4]
  00166	53		 push	 ebx
  00167	e8 00 00 00 00	 call	 ?WMInputLanguage@CIME@@QAEJPAUHWND__@@IIJ@Z ; CIME::WMInputLanguage
  0016c	5f		 pop	 edi

; 281  : }

  0016d	5e		 pop	 esi
  0016e	5b		 pop	 ebx
  0016f	8b 4d fc	 mov	 ecx, DWORD PTR __$ArrayPad$[ebp]
  00172	33 cd		 xor	 ecx, ebp
  00174	e8 00 00 00 00	 call	 @__security_check_cookie@4
  00179	8b e5		 mov	 esp, ebp
  0017b	5d		 pop	 ebp
  0017c	c2 10 00	 ret	 16			; 00000010H
$LN21@WindowProc:

; 110  : 
; 111  : 		case WM_CHAR:
; 112  : 			return CPythonIME::Instance().WMChar(hWnd, uiMsg, wParam, lParam);

  0017f	ff 75 14	 push	 DWORD PTR _lParam$[ebp]
  00182	8b 0d 00 00 00
	00		 mov	 ecx, DWORD PTR ?ms_singleton@?$CSingleton@VCPythonIME@@@@0PAVCPythonIME@@A ; CSingleton<CPythonIME>::ms_singleton
  00188	ff 75 10	 push	 DWORD PTR _wParam$[ebp]
  0018b	57		 push	 edi
  0018c	8d 49 04	 lea	 ecx, DWORD PTR [ecx+4]
  0018f	53		 push	 ebx
  00190	e8 00 00 00 00	 call	 ?WMChar@CIME@@QAEJPAUHWND__@@IIJ@Z ; CIME::WMChar
  00195	5f		 pop	 edi

; 281  : }

  00196	5e		 pop	 esi
  00197	5b		 pop	 ebx
  00198	8b 4d fc	 mov	 ecx, DWORD PTR __$ArrayPad$[ebp]
  0019b	33 cd		 xor	 ecx, ebp
  0019d	e8 00 00 00 00	 call	 @__security_check_cookie@4
  001a2	8b e5		 mov	 esp, ebp
  001a4	5d		 pop	 ebp
  001a5	c2 10 00	 ret	 16			; 00000010H
$LN22@WindowProc:

; 113  : 			break;
; 114  : 
; 115  : 		case WM_KEYDOWN:
; 116  : 			OnIMEKeyDown(LOWORD(wParam));

  001a8	8b 45 e8	 mov	 eax, DWORD PTR _wParam$1$[ebp]
  001ab	0f b7 c0	 movzx	 eax, ax
  001ae	50		 push	 eax
  001af	e8 00 00 00 00	 call	 ?OnIMEKeyDown@CPythonApplication@@IAEXH@Z ; CPythonApplication::OnIMEKeyDown

; 117  : 			break;

  001b4	e9 57 03 00 00	 jmp	 $LN72@WindowProc
$LN45@WindowProc:

; 226  : 				OnSizeChange(short(LOWORD(lParam)), short(HIWORD(lParam)));
; 227  : 			}
; 228  : 			break; 
; 229  : 
; 230  : 		case WM_SYSKEYDOWN:
; 231  : 			switch (LOWORD(wParam))
; 232  : 			{
; 233  : 				case VK_F10:
; 234  : 					break;
; 235  : 			}
; 236  : 			break;
; 237  : 
; 238  : 		case WM_SYSKEYUP:
; 239  : 			switch(LOWORD(wParam))

  001b9	66 83 f9 12	 cmp	 cx, 18			; 00000012H
  001bd	0f 84 fc 02 00
	00		 je	 $LN33@WindowProc
  001c3	e9 4b 03 00 00	 jmp	 $LN67@WindowProc
$LN48@WindowProc:

; 240  : 			{
; 241  : 				case 18:
; 242  : 					return FALSE;
; 243  : 					break;
; 244  : 				case VK_F10:
; 245  : 					break;
; 246  : 			}
; 247  : 			break;
; 248  : 
; 249  : 		case WM_SETCURSOR:
; 250  : 			if (IsActive())

  001c8	8b ce		 mov	 ecx, esi
  001ca	e8 00 00 00 00	 call	 ?IsActive@CMSWindow@@QAE_NXZ ; CMSWindow::IsActive
  001cf	84 c0		 test	 al, al
  001d1	0f 84 39 03 00
	00		 je	 $LN72@WindowProc

; 251  : 			{
; 252  : 				if (m_bCursorVisible && CURSOR_MODE_HARDWARE == m_iCursorMode)

  001d7	83 be 24 3e 02
	00 00		 cmp	 DWORD PTR [esi+146980], 0
  001de	74 2a		 je	 SHORT $LN50@WindowProc
  001e0	83 be 2c 3e 02
	00 00		 cmp	 DWORD PTR [esi+146988], 0
  001e7	75 21		 jne	 SHORT $LN50@WindowProc

; 253  : 				{
; 254  : 					SetCursor((HCURSOR) m_hCurrentCursor);

  001e9	ff b6 20 3e 02
	00		 push	 DWORD PTR [esi+146976]
  001ef	ff 15 00 00 00
	00		 call	 DWORD PTR __imp__SetCursor@4
  001f5	5f		 pop	 edi

; 281  : }

  001f6	5e		 pop	 esi
  001f7	33 c0		 xor	 eax, eax
  001f9	5b		 pop	 ebx
  001fa	8b 4d fc	 mov	 ecx, DWORD PTR __$ArrayPad$[ebp]
  001fd	33 cd		 xor	 ecx, ebp
  001ff	e8 00 00 00 00	 call	 @__security_check_cookie@4
  00204	8b e5		 mov	 esp, ebp
  00206	5d		 pop	 ebp
  00207	c2 10 00	 ret	 16			; 00000010H
$LN50@WindowProc:

; 255  : 					return 0;
; 256  : 				}
; 257  : 				else
; 258  : 				{
; 259  : 					SetCursor(NULL);

  0020a	6a 00		 push	 0
  0020c	ff 15 00 00 00
	00		 call	 DWORD PTR __imp__SetCursor@4
  00212	5f		 pop	 edi

; 281  : }

  00213	5e		 pop	 esi
  00214	33 c0		 xor	 eax, eax
  00216	5b		 pop	 ebx
  00217	8b 4d fc	 mov	 ecx, DWORD PTR __$ArrayPad$[ebp]
  0021a	33 cd		 xor	 ecx, ebp
  0021c	e8 00 00 00 00	 call	 @__security_check_cookie@4
  00221	8b e5		 mov	 esp, ebp
  00223	5d		 pop	 ebp
  00224	c2 10 00	 ret	 16			; 00000010H
$LN16@WindowProc:

; 89   : 			break;
; 90   : 
; 91   : 		case WM_IME_STARTCOMPOSITION:
; 92   : 			return CPythonIME::Instance().WMStartComposition(hWnd, uiMsg, wParam, lParam);

  00227	ff 75 14	 push	 DWORD PTR _lParam$[ebp]
  0022a	8b 0d 00 00 00
	00		 mov	 ecx, DWORD PTR ?ms_singleton@?$CSingleton@VCPythonIME@@@@0PAVCPythonIME@@A ; CSingleton<CPythonIME>::ms_singleton
  00230	ff 75 10	 push	 DWORD PTR _wParam$[ebp]
  00233	57		 push	 edi
  00234	8d 49 04	 lea	 ecx, DWORD PTR [ecx+4]
  00237	53		 push	 ebx
  00238	e8 00 00 00 00	 call	 ?WMStartComposition@CIME@@QAEJPAUHWND__@@IIJ@Z ; CIME::WMStartComposition
  0023d	5f		 pop	 edi

; 281  : }

  0023e	5e		 pop	 esi
  0023f	5b		 pop	 ebx
  00240	8b 4d fc	 mov	 ecx, DWORD PTR __$ArrayPad$[ebp]
  00243	33 cd		 xor	 ecx, ebp
  00245	e8 00 00 00 00	 call	 @__security_check_cookie@4
  0024a	8b e5		 mov	 esp, ebp
  0024c	5d		 pop	 ebp
  0024d	c2 10 00	 ret	 16			; 00000010H
$LN59@WindowProc:

; 51   : 	const int c_DoubleClickTime = 300;
; 52   : 	const int c_DoubleClickBox = 5;
; 53   : 	static int s_xDownPosition = 0;
; 54   : 	static int s_yDownPosition = 0;	
; 55   : 
; 56   : 	switch (uiMsg)

  00250	81 ff 01 02 00
	00		 cmp	 edi, 513		; 00000201H
  00256	0f 87 0d 01 00
	00		 ja	 $LN60@WindowProc
  0025c	74 64		 je	 SHORT $LN23@WindowProc
  0025e	8b c7		 mov	 eax, edi
  00260	2d 0e 01 00 00	 sub	 eax, 270		; 0000010eH
  00265	74 32		 je	 SHORT $LN18@WindowProc
  00267	83 e8 01	 sub	 eax, 1
  0026a	0f 85 a3 02 00
	00		 jne	 $LN67@WindowProc

; 93   : 			break;
; 94   : 
; 95   : 		case WM_IME_COMPOSITION:
; 96   : 			return CPythonIME::Instance().WMComposition(hWnd, uiMsg, wParam, lParam);

  00270	ff 75 14	 push	 DWORD PTR _lParam$[ebp]
  00273	8b 0d 00 00 00
	00		 mov	 ecx, DWORD PTR ?ms_singleton@?$CSingleton@VCPythonIME@@@@0PAVCPythonIME@@A ; CSingleton<CPythonIME>::ms_singleton
  00279	ff 75 10	 push	 DWORD PTR _wParam$[ebp]
  0027c	57		 push	 edi
  0027d	8d 49 04	 lea	 ecx, DWORD PTR [ecx+4]
  00280	53		 push	 ebx
  00281	e8 00 00 00 00	 call	 ?WMComposition@CIME@@QAEJPAUHWND__@@IIJ@Z ; CIME::WMComposition
  00286	5f		 pop	 edi

; 281  : }

  00287	5e		 pop	 esi
  00288	5b		 pop	 ebx
  00289	8b 4d fc	 mov	 ecx, DWORD PTR __$ArrayPad$[ebp]
  0028c	33 cd		 xor	 ecx, ebp
  0028e	e8 00 00 00 00	 call	 @__security_check_cookie@4
  00293	8b e5		 mov	 esp, ebp
  00295	5d		 pop	 ebp
  00296	c2 10 00	 ret	 16			; 00000010H
$LN18@WindowProc:

; 97   : 			break;
; 98   : 
; 99   : 		case WM_IME_ENDCOMPOSITION:
; 100  : 			return CPythonIME::Instance().WMEndComposition(hWnd, uiMsg, wParam, lParam);

  00299	ff 75 14	 push	 DWORD PTR _lParam$[ebp]
  0029c	8b 0d 00 00 00
	00		 mov	 ecx, DWORD PTR ?ms_singleton@?$CSingleton@VCPythonIME@@@@0PAVCPythonIME@@A ; CSingleton<CPythonIME>::ms_singleton
  002a2	ff 75 10	 push	 DWORD PTR _wParam$[ebp]
  002a5	57		 push	 edi
  002a6	8d 49 04	 lea	 ecx, DWORD PTR [ecx+4]
  002a9	53		 push	 ebx
  002aa	e8 00 00 00 00	 call	 ?WMEndComposition@CIME@@QAEJPAUHWND__@@IIJ@Z ; CIME::WMEndComposition
  002af	5f		 pop	 edi

; 281  : }

  002b0	5e		 pop	 esi
  002b1	5b		 pop	 ebx
  002b2	8b 4d fc	 mov	 ecx, DWORD PTR __$ArrayPad$[ebp]
  002b5	33 cd		 xor	 ecx, ebp
  002b7	e8 00 00 00 00	 call	 @__security_check_cookie@4
  002bc	8b e5		 mov	 esp, ebp
  002be	5d		 pop	 ebp
  002bf	c2 10 00	 ret	 16			; 00000010H
$LN23@WindowProc:

; 118  : 
; 119  : 		case WM_LBUTTONDOWN:
; 120  : 			SafeSetCapture();

  002c2	8b ce		 mov	 ecx, esi
  002c4	e8 00 00 00 00	 call	 ?SafeSetCapture@CPythonApplication@@QAEXXZ ; CPythonApplication::SafeSetCapture

; 121  : 
; 122  : 			if (ELTimer_GetMSec() - m_dwLButtonDownTime < c_DoubleClickTime &&
; 123  : 				abs(LOWORD(lParam) - s_xDownPosition) < c_DoubleClickBox &&

  002c9	e8 00 00 00 00	 call	 ?ELTimer_GetMSec@@YAKXZ	; ELTimer_GetMSec
  002ce	2b 86 10 3e 02
	00		 sub	 eax, DWORD PTR [esi+146960]
  002d4	3d 2c 01 00 00	 cmp	 eax, 300		; 0000012cH
  002d9	73 46		 jae	 SHORT $LN24@WindowProc
  002db	8b 7d 14	 mov	 edi, DWORD PTR _lParam$[ebp]
  002de	0f b7 df	 movzx	 ebx, di
  002e1	8b c3		 mov	 eax, ebx
  002e3	2b 05 00 00 00
	00		 sub	 eax, DWORD PTR ?s_xDownPosition@?1??WindowProcedure@CPythonApplication@@MAEJPAUHWND__@@IIJ@Z@4HA
  002e9	99		 cdq
  002ea	33 c2		 xor	 eax, edx
  002ec	2b c2		 sub	 eax, edx
  002ee	83 f8 05	 cmp	 eax, 5
  002f1	7d 2e		 jge	 SHORT $LN24@WindowProc
  002f3	c1 ef 10	 shr	 edi, 16			; 00000010H
  002f6	8b c7		 mov	 eax, edi
  002f8	2b 05 00 00 00
	00		 sub	 eax, DWORD PTR ?s_yDownPosition@?1??WindowProcedure@CPythonApplication@@MAEJPAUHWND__@@IIJ@Z@4HA
  002fe	99		 cdq
  002ff	33 c2		 xor	 eax, edx
  00301	2b c2		 sub	 eax, edx
  00303	83 f8 05	 cmp	 eax, 5
  00306	7d 19		 jge	 SHORT $LN24@WindowProc

; 124  : 				abs(HIWORD(lParam) - s_yDownPosition) < c_DoubleClickBox)
; 125  : 			{
; 126  : 				m_dwLButtonDownTime = 0;
; 127  : 
; 128  : 				OnMouseLeftButtonDoubleClick(short(LOWORD(lParam)), short(HIWORD(lParam)));

  00308	0f bf c7	 movsx	 eax, di
  0030b	50		 push	 eax
  0030c	0f bf c3	 movsx	 eax, bx
  0030f	50		 push	 eax
  00310	c7 86 10 3e 02
	00 00 00 00 00	 mov	 DWORD PTR [esi+146960], 0
  0031a	e8 00 00 00 00	 call	 ?OnMouseLeftButtonDoubleClick@CPythonApplication@@IAEXHH@Z ; CPythonApplication::OnMouseLeftButtonDoubleClick

; 129  : 			}

  0031f	eb 23		 jmp	 SHORT $LN25@WindowProc
$LN24@WindowProc:

; 130  : 			else
; 131  : 			{
; 132  : 				m_dwLButtonDownTime = ELTimer_GetMSec();

  00321	e8 00 00 00 00	 call	 ?ELTimer_GetMSec@@YAKXZ	; ELTimer_GetMSec
  00326	89 86 10 3e 02
	00		 mov	 DWORD PTR [esi+146960], eax

; 133  : 
; 134  : 				OnMouseLeftButtonDown(short(LOWORD(lParam)), short(HIWORD(lParam)));

  0032c	8b 45 14	 mov	 eax, DWORD PTR _lParam$[ebp]
  0032f	8b f8		 mov	 edi, eax
  00331	c1 ef 10	 shr	 edi, 16			; 00000010H
  00334	0f b7 d8	 movzx	 ebx, ax
  00337	0f bf c7	 movsx	 eax, di
  0033a	50		 push	 eax
  0033b	0f bf c3	 movsx	 eax, bx
  0033e	50		 push	 eax
  0033f	e8 00 00 00 00	 call	 ?OnMouseLeftButtonDown@CPythonApplication@@IAEXHH@Z ; CPythonApplication::OnMouseLeftButtonDown
$LN25@WindowProc:

; 135  : 			}
; 136  : 
; 137  : 			s_xDownPosition = LOWORD(lParam);

  00344	0f b7 c3	 movzx	 eax, bx
  00347	a3 00 00 00 00	 mov	 DWORD PTR ?s_xDownPosition@?1??WindowProcedure@CPythonApplication@@MAEJPAUHWND__@@IIJ@Z@4HA, eax

; 138  : 			s_yDownPosition = HIWORD(lParam);

  0034c	0f b7 c7	 movzx	 eax, di
  0034f	5f		 pop	 edi

; 281  : }

  00350	5e		 pop	 esi
  00351	a3 00 00 00 00	 mov	 DWORD PTR ?s_yDownPosition@?1??WindowProcedure@CPythonApplication@@MAEJPAUHWND__@@IIJ@Z@4HA, eax
  00356	33 c0		 xor	 eax, eax
  00358	5b		 pop	 ebx
  00359	8b 4d fc	 mov	 ecx, DWORD PTR __$ArrayPad$[ebp]
  0035c	33 cd		 xor	 ecx, ebp
  0035e	e8 00 00 00 00	 call	 @__security_check_cookie@4
  00363	8b e5		 mov	 esp, ebp
  00365	5d		 pop	 ebp
  00366	c2 10 00	 ret	 16			; 00000010H
$LN60@WindowProc:

; 51   : 	const int c_DoubleClickTime = 300;
; 52   : 	const int c_DoubleClickBox = 5;
; 53   : 	static int s_xDownPosition = 0;
; 54   : 	static int s_yDownPosition = 0;	
; 55   : 
; 56   : 	switch (uiMsg)

  00369	8d 87 fe fd ff
	ff		 lea	 eax, DWORD PTR [edi-514]
  0036f	3d 80 00 00 00	 cmp	 eax, 128		; 00000080H
  00374	0f 87 99 01 00
	00		 ja	 $LN67@WindowProc
  0037a	0f b6 80 00 00
	00 00		 movzx	 eax, BYTE PTR $LN65@WindowProc[eax]
  00381	ff 24 85 00 00
	00 00		 jmp	 DWORD PTR $LN66@WindowProc[eax*4]
$LN19@WindowProc:

; 101  : 			break;
; 102  : 
; 103  : 		case WM_IME_NOTIFY:
; 104  : 			return CPythonIME::Instance().WMNotify(hWnd, uiMsg, wParam, lParam);

  00388	ff 75 14	 push	 DWORD PTR _lParam$[ebp]
  0038b	8b 0d 00 00 00
	00		 mov	 ecx, DWORD PTR ?ms_singleton@?$CSingleton@VCPythonIME@@@@0PAVCPythonIME@@A ; CSingleton<CPythonIME>::ms_singleton
  00391	ff 75 10	 push	 DWORD PTR _wParam$[ebp]
  00394	57		 push	 edi
  00395	8d 49 04	 lea	 ecx, DWORD PTR [ecx+4]
  00398	53		 push	 ebx
  00399	e8 00 00 00 00	 call	 ?WMNotify@CIME@@QAEJPAUHWND__@@IIJ@Z ; CIME::WMNotify
  0039e	5f		 pop	 edi

; 281  : }

  0039f	5e		 pop	 esi
  003a0	5b		 pop	 ebx
  003a1	8b 4d fc	 mov	 ecx, DWORD PTR __$ArrayPad$[ebp]
  003a4	33 cd		 xor	 ecx, ebp
  003a6	e8 00 00 00 00	 call	 @__security_check_cookie@4
  003ab	8b e5		 mov	 esp, ebp
  003ad	5d		 pop	 ebp
  003ae	c2 10 00	 ret	 16			; 00000010H
$LN20@WindowProc:

; 105  : 			break;
; 106  : 
; 107  : 		case WM_IME_SETCONTEXT:
; 108  : 			lParam &= ~(ISC_SHOWUICOMPOSITIONWINDOW | ISC_SHOWUIALLCANDIDATEWINDOW);

  003b1	81 65 14 f0 ff
	ff 7f		 and	 DWORD PTR _lParam$[ebp], 2147483632 ; 7ffffff0H

; 109  : 			break;

  003b8	e9 56 01 00 00	 jmp	 $LN67@WindowProc
$LN26@WindowProc:

; 139  : 			return 0;
; 140  : 
; 141  : 		case WM_LBUTTONUP:
; 142  : 			m_dwLButtonUpTime = ELTimer_GetMSec();

  003bd	e8 00 00 00 00	 call	 ?ELTimer_GetMSec@@YAKXZ	; ELTimer_GetMSec
  003c2	89 86 14 3e 02
	00		 mov	 DWORD PTR [esi+146964], eax

; 143  : 
; 144  : 			if (hWnd == GetCapture())

  003c8	ff 15 00 00 00
	00		 call	 DWORD PTR __imp__GetCapture@0
  003ce	3b d8		 cmp	 ebx, eax
  003d0	0f 85 e9 00 00
	00		 jne	 $LN33@WindowProc

; 145  : 			{
; 146  : 				SafeReleaseCapture();

  003d6	e8 00 00 00 00	 call	 ?SafeReleaseCapture@CPythonApplication@@QAEXXZ ; CPythonApplication::SafeReleaseCapture

; 147  : 				OnMouseLeftButtonUp(short(LOWORD(lParam)), short(HIWORD(lParam)));

  003db	8b 45 14	 mov	 eax, DWORD PTR _lParam$[ebp]
  003de	8b d0		 mov	 edx, eax
  003e0	c1 ea 10	 shr	 edx, 16			; 00000010H
  003e3	0f b7 c8	 movzx	 ecx, ax
  003e6	0f bf c2	 movsx	 eax, dx
  003e9	50		 push	 eax
  003ea	0f bf c1	 movsx	 eax, cx
  003ed	50		 push	 eax
  003ee	e8 00 00 00 00	 call	 ?OnMouseLeftButtonUp@CPythonApplication@@IAEXHH@Z ; CPythonApplication::OnMouseLeftButtonUp
  003f3	5f		 pop	 edi

; 281  : }

  003f4	5e		 pop	 esi
  003f5	33 c0		 xor	 eax, eax
  003f7	5b		 pop	 ebx
  003f8	8b 4d fc	 mov	 ecx, DWORD PTR __$ArrayPad$[ebp]
  003fb	33 cd		 xor	 ecx, ebp
  003fd	e8 00 00 00 00	 call	 @__security_check_cookie@4
  00402	8b e5		 mov	 esp, ebp
  00404	5d		 pop	 ebp
  00405	c2 10 00	 ret	 16			; 00000010H
$LN28@WindowProc:

; 148  : 			}
; 149  : 			return 0;
; 150  : 
; 151  : 		case WM_MBUTTONDOWN:
; 152  : 			SafeSetCapture();

  00408	8b ce		 mov	 ecx, esi
  0040a	e8 00 00 00 00	 call	 ?SafeSetCapture@CPythonApplication@@QAEXXZ ; CPythonApplication::SafeSetCapture

; 153  : 
; 154  : 			UI::CWindowManager::Instance().RunMouseMiddleButtonDown(short(LOWORD(lParam)), short(HIWORD(lParam)));

  0040f	8b 4d 14	 mov	 ecx, DWORD PTR _lParam$[ebp]
  00412	8b c1		 mov	 eax, ecx
  00414	c1 e8 10	 shr	 eax, 16			; 00000010H
  00417	98		 cwde
  00418	0f b7 c9	 movzx	 ecx, cx
  0041b	50		 push	 eax
  0041c	0f bf c1	 movsx	 eax, cx
  0041f	8b 0d 00 00 00
	00		 mov	 ecx, DWORD PTR ?ms_singleton@?$CSingleton@VCWindowManager@UI@@@@0PAVCWindowManager@UI@@A ; CSingleton<UI::CWindowManager>::ms_singleton
  00425	50		 push	 eax
  00426	e8 00 00 00 00	 call	 ?RunMouseMiddleButtonDown@CWindowManager@UI@@QAEXJJ@Z ; UI::CWindowManager::RunMouseMiddleButtonDown

; 155  : //			OnMouseMiddleButtonDown(short(LOWORD(lParam)), short(HIWORD(lParam)));
; 156  : 			break;

  0042b	e9 e0 00 00 00	 jmp	 $LN72@WindowProc
$LN29@WindowProc:

; 157  : 
; 158  : 		case WM_MBUTTONUP:
; 159  : 			if (GetCapture() == hWnd)

  00430	ff 15 00 00 00
	00		 call	 DWORD PTR __imp__GetCapture@0
  00436	3b c3		 cmp	 eax, ebx
  00438	0f 85 d2 00 00
	00		 jne	 $LN72@WindowProc

; 160  : 			{
; 161  : 				SafeReleaseCapture();

  0043e	e8 00 00 00 00	 call	 ?SafeReleaseCapture@CPythonApplication@@QAEXXZ ; CPythonApplication::SafeReleaseCapture

; 162  : 
; 163  : 				UI::CWindowManager::Instance().RunMouseMiddleButtonUp(short(LOWORD(lParam)), short(HIWORD(lParam)));

  00443	8b 4d 14	 mov	 ecx, DWORD PTR _lParam$[ebp]
  00446	8b c1		 mov	 eax, ecx
  00448	c1 e8 10	 shr	 eax, 16			; 00000010H
  0044b	98		 cwde
  0044c	0f b7 c9	 movzx	 ecx, cx
  0044f	50		 push	 eax
  00450	0f bf c1	 movsx	 eax, cx
  00453	8b 0d 00 00 00
	00		 mov	 ecx, DWORD PTR ?ms_singleton@?$CSingleton@VCWindowManager@UI@@@@0PAVCWindowManager@UI@@A ; CSingleton<UI::CWindowManager>::ms_singleton
  00459	50		 push	 eax
  0045a	e8 00 00 00 00	 call	 ?RunMouseMiddleButtonUp@CWindowManager@UI@@QAEXJJ@Z ; UI::CWindowManager::RunMouseMiddleButtonUp

; 164  : //				OnMouseMiddleButtonUp(short(LOWORD(lParam)), short(HIWORD(lParam)));
; 165  : 			}
; 166  : 			break;

  0045f	e9 ac 00 00 00	 jmp	 $LN72@WindowProc
$LN31@WindowProc:

; 167  : 
; 168  : 		case WM_RBUTTONDOWN:
; 169  : 			SafeSetCapture();

  00464	8b ce		 mov	 ecx, esi
  00466	e8 00 00 00 00	 call	 ?SafeSetCapture@CPythonApplication@@QAEXXZ ; CPythonApplication::SafeSetCapture

; 170  : 			OnMouseRightButtonDown(short(LOWORD(lParam)), short(HIWORD(lParam)));

  0046b	8b 45 14	 mov	 eax, DWORD PTR _lParam$[ebp]
  0046e	8b d0		 mov	 edx, eax
  00470	c1 ea 10	 shr	 edx, 16			; 00000010H
  00473	0f b7 c8	 movzx	 ecx, ax
  00476	0f bf c2	 movsx	 eax, dx
  00479	50		 push	 eax
  0047a	0f bf c1	 movsx	 eax, cx
  0047d	50		 push	 eax
  0047e	e8 00 00 00 00	 call	 ?OnMouseRightButtonDown@CPythonApplication@@IAEXHH@Z ; CPythonApplication::OnMouseRightButtonDown
  00483	5f		 pop	 edi

; 281  : }

  00484	5e		 pop	 esi
  00485	33 c0		 xor	 eax, eax
  00487	5b		 pop	 ebx
  00488	8b 4d fc	 mov	 ecx, DWORD PTR __$ArrayPad$[ebp]
  0048b	33 cd		 xor	 ecx, ebp
  0048d	e8 00 00 00 00	 call	 @__security_check_cookie@4
  00492	8b e5		 mov	 esp, ebp
  00494	5d		 pop	 ebp
  00495	c2 10 00	 ret	 16			; 00000010H
$LN32@WindowProc:

; 171  : 			return 0;
; 172  : 
; 173  : 		case WM_RBUTTONUP:
; 174  : 			if (hWnd == GetCapture()) 

  00498	ff 15 00 00 00
	00		 call	 DWORD PTR __imp__GetCapture@0
  0049e	3b d8		 cmp	 ebx, eax
  004a0	75 1d		 jne	 SHORT $LN33@WindowProc

; 175  : 			{
; 176  : 				SafeReleaseCapture();

  004a2	e8 00 00 00 00	 call	 ?SafeReleaseCapture@CPythonApplication@@QAEXXZ ; CPythonApplication::SafeReleaseCapture

; 177  : 
; 178  : 				OnMouseRightButtonUp(short(LOWORD(lParam)), short(HIWORD(lParam)));

  004a7	8b 45 14	 mov	 eax, DWORD PTR _lParam$[ebp]
  004aa	8b d0		 mov	 edx, eax
  004ac	c1 ea 10	 shr	 edx, 16			; 00000010H
  004af	0f b7 c8	 movzx	 ecx, ax
  004b2	0f bf c2	 movsx	 eax, dx
  004b5	50		 push	 eax
  004b6	0f bf c1	 movsx	 eax, cx
  004b9	50		 push	 eax
  004ba	e8 00 00 00 00	 call	 ?OnMouseRightButtonUp@CPythonApplication@@IAEXHH@Z ; CPythonApplication::OnMouseRightButtonUp
$LN33@WindowProc:

; 281  : }

  004bf	5f		 pop	 edi
  004c0	5e		 pop	 esi
  004c1	33 c0		 xor	 eax, eax
  004c3	5b		 pop	 ebx
  004c4	8b 4d fc	 mov	 ecx, DWORD PTR __$ArrayPad$[ebp]
  004c7	33 cd		 xor	 ecx, ebp
  004c9	e8 00 00 00 00	 call	 @__security_check_cookie@4
  004ce	8b e5		 mov	 esp, ebp
  004d0	5d		 pop	 ebp
  004d1	c2 10 00	 ret	 16			; 00000010H
$LN34@WindowProc:

; 179  : 			}
; 180  : 			return 0;
; 181  : 
; 182  : 		case 0x20a:
; 183  : 			if (WebBrowser_IsVisible())

  004d4	e8 00 00 00 00	 call	 _WebBrowser_IsVisible
  004d9	85 c0		 test	 eax, eax
  004db	75 33		 jne	 SHORT $LN72@WindowProc

; 184  : 			{
; 185  : 				// 웹브라우저 상태일때는 휠 작동 안되도록 처리
; 186  : 			}
; 187  : 			else
; 188  : 			{
; 189  : 				OnMouseWheel(short(HIWORD(wParam)));

  004dd	8b 45 e8	 mov	 eax, DWORD PTR _wParam$1$[ebp]
  004e0	c1 e8 10	 shr	 eax, 16			; 00000010H
  004e3	98		 cwde
  004e4	50		 push	 eax
  004e5	e8 00 00 00 00	 call	 ?OnMouseWheel@CPythonApplication@@IAEXH@Z ; CPythonApplication::OnMouseWheel

; 190  : 			}
; 191  : 			break;

  004ea	eb 24		 jmp	 SHORT $LN72@WindowProc
$LN42@WindowProc:

; 217  : 
; 218  : 		case WM_EXITSIZEMOVE:    
; 219  : 			{
; 220  : 				RECT rcWnd; 
; 221  : 				GetClientRect(&rcWnd); 

  004ec	8d 45 ec	 lea	 eax, DWORD PTR _rcWnd$1[ebp]
  004ef	8b ce		 mov	 ecx, esi
  004f1	50		 push	 eax
  004f2	e8 00 00 00 00	 call	 ?GetClientRect@CMSWindow@@QAEXPAUtagRECT@@@Z ; CMSWindow::GetClientRect

; 222  : 				
; 223  : 				UINT uWidth=rcWnd.right-rcWnd.left; 
; 224  : 				UINT uHeight=rcWnd.bottom-rcWnd.left; 

  004f7	8b 45 f8	 mov	 eax, DWORD PTR _rcWnd$1[ebp+12]

; 225  : 				m_grpDevice.ResizeBackBuffer(uWidth, uHeight);				

  004fa	8d 8e f4 15 02
	00		 lea	 ecx, DWORD PTR [esi+136692]
  00500	2b 45 ec	 sub	 eax, DWORD PTR _rcWnd$1[ebp]
  00503	50		 push	 eax
  00504	8b 45 f4	 mov	 eax, DWORD PTR _rcWnd$1[ebp+8]
  00507	2b 45 ec	 sub	 eax, DWORD PTR _rcWnd$1[ebp]
  0050a	50		 push	 eax
  0050b	e8 00 00 00 00	 call	 ?ResizeBackBuffer@CGraphicDevice@@QAE_NII@Z ; CGraphicDevice::ResizeBackBuffer
$LN72@WindowProc:

; 270  : #endif
; 271  : 			return 0;
; 272  : 
; 273  : 		case WM_DESTROY:
; 274  : 			return 0;
; 275  : 		default:
; 276  : 			//Tracenf("%x msg %x", timeGetTime(), uiMsg);
; 277  : 			break;
; 278  : 	}	
; 279  : 
; 280  : 	return CMSApplication::WindowProcedure(hWnd, uiMsg, wParam, lParam);

  00510	8b 4d e8	 mov	 ecx, DWORD PTR _wParam$1$[ebp]
$LN67@WindowProc:
  00513	ff 75 14	 push	 DWORD PTR _lParam$[ebp]
  00516	51		 push	 ecx
  00517	57		 push	 edi
  00518	53		 push	 ebx
  00519	8b ce		 mov	 ecx, esi
  0051b	e8 00 00 00 00	 call	 ?WindowProcedure@CMSApplication@@MAEJPAUHWND__@@IIJ@Z ; CMSApplication::WindowProcedure

; 281  : }

  00520	8b 4d fc	 mov	 ecx, DWORD PTR __$ArrayPad$[ebp]
  00523	5f		 pop	 edi
  00524	5e		 pop	 esi
  00525	33 cd		 xor	 ecx, ebp
  00527	5b		 pop	 ebx
  00528	e8 00 00 00 00	 call	 @__security_check_cookie@4
  0052d	8b e5		 mov	 esp, ebp
  0052f	5d		 pop	 ebp
  00530	c2 10 00	 ret	 16			; 00000010H
  00533	90		 npad	 1
$LN64@WindowProc:
  00534	00 00 00 00	 DD	 $LN48@WindowProc
  00538	00 00 00 00	 DD	 $LN15@WindowProc
  0053c	00 00 00 00	 DD	 $LN22@WindowProc
  00540	00 00 00 00	 DD	 $LN21@WindowProc
  00544	00 00 00 00	 DD	 $LN67@WindowProc
  00548	00 00 00 00	 DD	 $LN45@WindowProc
  0054c	00 00 00 00	 DD	 $LN67@WindowProc
$LN63@WindowProc:
  00550	00		 DB	 0
  00551	06		 DB	 6
  00552	06		 DB	 6
  00553	06		 DB	 6
  00554	06		 DB	 6
  00555	06		 DB	 6
  00556	06		 DB	 6
  00557	06		 DB	 6
  00558	06		 DB	 6
  00559	06		 DB	 6
  0055a	06		 DB	 6
  0055b	06		 DB	 6
  0055c	06		 DB	 6
  0055d	06		 DB	 6
  0055e	06		 DB	 6
  0055f	06		 DB	 6
  00560	06		 DB	 6
  00561	06		 DB	 6
  00562	06		 DB	 6
  00563	06		 DB	 6
  00564	06		 DB	 6
  00565	06		 DB	 6
  00566	06		 DB	 6
  00567	06		 DB	 6
  00568	06		 DB	 6
  00569	06		 DB	 6
  0056a	06		 DB	 6
  0056b	06		 DB	 6
  0056c	06		 DB	 6
  0056d	06		 DB	 6
  0056e	06		 DB	 6
  0056f	06		 DB	 6
  00570	06		 DB	 6
  00571	06		 DB	 6
  00572	06		 DB	 6
  00573	06		 DB	 6
  00574	06		 DB	 6
  00575	06		 DB	 6
  00576	06		 DB	 6
  00577	06		 DB	 6
  00578	06		 DB	 6
  00579	06		 DB	 6
  0057a	06		 DB	 6
  0057b	06		 DB	 6
  0057c	06		 DB	 6
  0057d	06		 DB	 6
  0057e	06		 DB	 6
  0057f	06		 DB	 6
  00580	06		 DB	 6
  00581	01		 DB	 1
  00582	06		 DB	 6
  00583	06		 DB	 6
  00584	06		 DB	 6
  00585	06		 DB	 6
  00586	06		 DB	 6
  00587	06		 DB	 6
  00588	06		 DB	 6
  00589	06		 DB	 6
  0058a	06		 DB	 6
  0058b	06		 DB	 6
  0058c	06		 DB	 6
  0058d	06		 DB	 6
  0058e	06		 DB	 6
  0058f	06		 DB	 6
  00590	06		 DB	 6
  00591	06		 DB	 6
  00592	06		 DB	 6
  00593	06		 DB	 6
  00594	06		 DB	 6
  00595	06		 DB	 6
  00596	06		 DB	 6
  00597	06		 DB	 6
  00598	06		 DB	 6
  00599	06		 DB	 6
  0059a	06		 DB	 6
  0059b	06		 DB	 6
  0059c	06		 DB	 6
  0059d	06		 DB	 6
  0059e	06		 DB	 6
  0059f	06		 DB	 6
  005a0	06		 DB	 6
  005a1	06		 DB	 6
  005a2	06		 DB	 6
  005a3	06		 DB	 6
  005a4	06		 DB	 6
  005a5	06		 DB	 6
  005a6	06		 DB	 6
  005a7	06		 DB	 6
  005a8	06		 DB	 6
  005a9	06		 DB	 6
  005aa	06		 DB	 6
  005ab	06		 DB	 6
  005ac	06		 DB	 6
  005ad	06		 DB	 6
  005ae	06		 DB	 6
  005af	06		 DB	 6
  005b0	06		 DB	 6
  005b1	06		 DB	 6
  005b2	06		 DB	 6
  005b3	06		 DB	 6
  005b4	06		 DB	 6
  005b5	06		 DB	 6
  005b6	06		 DB	 6
  005b7	06		 DB	 6
  005b8	06		 DB	 6
  005b9	06		 DB	 6
  005ba	06		 DB	 6
  005bb	06		 DB	 6
  005bc	06		 DB	 6
  005bd	06		 DB	 6
  005be	06		 DB	 6
  005bf	06		 DB	 6
  005c0	06		 DB	 6
  005c1	06		 DB	 6
  005c2	06		 DB	 6
  005c3	06		 DB	 6
  005c4	06		 DB	 6
  005c5	06		 DB	 6
  005c6	06		 DB	 6
  005c7	06		 DB	 6
  005c8	06		 DB	 6
  005c9	06		 DB	 6
  005ca	06		 DB	 6
  005cb	06		 DB	 6
  005cc	06		 DB	 6
  005cd	06		 DB	 6
  005ce	06		 DB	 6
  005cf	06		 DB	 6
  005d0	06		 DB	 6
  005d1	06		 DB	 6
  005d2	06		 DB	 6
  005d3	06		 DB	 6
  005d4	06		 DB	 6
  005d5	06		 DB	 6
  005d6	06		 DB	 6
  005d7	06		 DB	 6
  005d8	06		 DB	 6
  005d9	06		 DB	 6
  005da	06		 DB	 6
  005db	06		 DB	 6
  005dc	06		 DB	 6
  005dd	06		 DB	 6
  005de	06		 DB	 6
  005df	06		 DB	 6
  005e0	06		 DB	 6
  005e1	06		 DB	 6
  005e2	06		 DB	 6
  005e3	06		 DB	 6
  005e4	06		 DB	 6
  005e5	06		 DB	 6
  005e6	06		 DB	 6
  005e7	06		 DB	 6
  005e8	06		 DB	 6
  005e9	06		 DB	 6
  005ea	06		 DB	 6
  005eb	06		 DB	 6
  005ec	06		 DB	 6
  005ed	06		 DB	 6
  005ee	06		 DB	 6
  005ef	06		 DB	 6
  005f0	06		 DB	 6
  005f1	06		 DB	 6
  005f2	06		 DB	 6
  005f3	06		 DB	 6
  005f4	06		 DB	 6
  005f5	06		 DB	 6
  005f6	06		 DB	 6
  005f7	06		 DB	 6
  005f8	06		 DB	 6
  005f9	06		 DB	 6
  005fa	06		 DB	 6
  005fb	06		 DB	 6
  005fc	06		 DB	 6
  005fd	06		 DB	 6
  005fe	06		 DB	 6
  005ff	06		 DB	 6
  00600	06		 DB	 6
  00601	06		 DB	 6
  00602	06		 DB	 6
  00603	06		 DB	 6
  00604	06		 DB	 6
  00605	06		 DB	 6
  00606	06		 DB	 6
  00607	06		 DB	 6
  00608	06		 DB	 6
  00609	06		 DB	 6
  0060a	06		 DB	 6
  0060b	06		 DB	 6
  0060c	06		 DB	 6
  0060d	06		 DB	 6
  0060e	06		 DB	 6
  0060f	06		 DB	 6
  00610	06		 DB	 6
  00611	06		 DB	 6
  00612	06		 DB	 6
  00613	06		 DB	 6
  00614	06		 DB	 6
  00615	06		 DB	 6
  00616	06		 DB	 6
  00617	06		 DB	 6
  00618	06		 DB	 6
  00619	06		 DB	 6
  0061a	06		 DB	 6
  0061b	06		 DB	 6
  0061c	06		 DB	 6
  0061d	06		 DB	 6
  0061e	06		 DB	 6
  0061f	06		 DB	 6
  00620	06		 DB	 6
  00621	06		 DB	 6
  00622	06		 DB	 6
  00623	06		 DB	 6
  00624	06		 DB	 6
  00625	06		 DB	 6
  00626	06		 DB	 6
  00627	06		 DB	 6
  00628	06		 DB	 6
  00629	06		 DB	 6
  0062a	06		 DB	 6
  0062b	06		 DB	 6
  0062c	06		 DB	 6
  0062d	06		 DB	 6
  0062e	06		 DB	 6
  0062f	06		 DB	 6
  00630	02		 DB	 2
  00631	06		 DB	 6
  00632	03		 DB	 3
  00633	06		 DB	 6
  00634	04		 DB	 4
  00635	05		 DB	 5
  00636	66 90		 npad	 2
$LN66@WindowProc:
  00638	00 00 00 00	 DD	 $LN26@WindowProc
  0063c	00 00 00 00	 DD	 $LN31@WindowProc
  00640	00 00 00 00	 DD	 $LN32@WindowProc
  00644	00 00 00 00	 DD	 $LN28@WindowProc
  00648	00 00 00 00	 DD	 $LN29@WindowProc
  0064c	00 00 00 00	 DD	 $LN34@WindowProc
  00650	00 00 00 00	 DD	 $LN42@WindowProc
  00654	00 00 00 00	 DD	 $LN20@WindowProc
  00658	00 00 00 00	 DD	 $LN19@WindowProc
  0065c	00 00 00 00	 DD	 $LN67@WindowProc
$LN65@WindowProc:
  00660	00		 DB	 0
  00661	09		 DB	 9
  00662	01		 DB	 1
  00663	02		 DB	 2
  00664	09		 DB	 9
  00665	03		 DB	 3
  00666	04		 DB	 4
  00667	09		 DB	 9
  00668	05		 DB	 5
  00669	09		 DB	 9
  0066a	09		 DB	 9
  0066b	09		 DB	 9
  0066c	09		 DB	 9
  0066d	09		 DB	 9
  0066e	09		 DB	 9
  0066f	09		 DB	 9
  00670	09		 DB	 9
  00671	09		 DB	 9
  00672	09		 DB	 9
  00673	09		 DB	 9
  00674	09		 DB	 9
  00675	09		 DB	 9
  00676	09		 DB	 9
  00677	09		 DB	 9
  00678	09		 DB	 9
  00679	09		 DB	 9
  0067a	09		 DB	 9
  0067b	09		 DB	 9
  0067c	09		 DB	 9
  0067d	09		 DB	 9
  0067e	09		 DB	 9
  0067f	09		 DB	 9
  00680	09		 DB	 9
  00681	09		 DB	 9
  00682	09		 DB	 9
  00683	09		 DB	 9
  00684	09		 DB	 9
  00685	09		 DB	 9
  00686	09		 DB	 9
  00687	09		 DB	 9
  00688	09		 DB	 9
  00689	09		 DB	 9
  0068a	09		 DB	 9
  0068b	09		 DB	 9
  0068c	09		 DB	 9
  0068d	09		 DB	 9
  0068e	09		 DB	 9
  0068f	09		 DB	 9
  00690	06		 DB	 6
  00691	09		 DB	 9
  00692	09		 DB	 9
  00693	09		 DB	 9
  00694	09		 DB	 9
  00695	09		 DB	 9
  00696	09		 DB	 9
  00697	09		 DB	 9
  00698	09		 DB	 9
  00699	09		 DB	 9
  0069a	09		 DB	 9
  0069b	09		 DB	 9
  0069c	09		 DB	 9
  0069d	09		 DB	 9
  0069e	09		 DB	 9
  0069f	09		 DB	 9
  006a0	09		 DB	 9
  006a1	09		 DB	 9
  006a2	09		 DB	 9
  006a3	09		 DB	 9
  006a4	09		 DB	 9
  006a5	09		 DB	 9
  006a6	09		 DB	 9
  006a7	09		 DB	 9
  006a8	09		 DB	 9
  006a9	09		 DB	 9
  006aa	09		 DB	 9
  006ab	09		 DB	 9
  006ac	09		 DB	 9
  006ad	09		 DB	 9
  006ae	09		 DB	 9
  006af	09		 DB	 9
  006b0	09		 DB	 9
  006b1	09		 DB	 9
  006b2	09		 DB	 9
  006b3	09		 DB	 9
  006b4	09		 DB	 9
  006b5	09		 DB	 9
  006b6	09		 DB	 9
  006b7	09		 DB	 9
  006b8	09		 DB	 9
  006b9	09		 DB	 9
  006ba	09		 DB	 9
  006bb	09		 DB	 9
  006bc	09		 DB	 9
  006bd	09		 DB	 9
  006be	09		 DB	 9
  006bf	09		 DB	 9
  006c0	09		 DB	 9
  006c1	09		 DB	 9
  006c2	09		 DB	 9
  006c3	09		 DB	 9
  006c4	09		 DB	 9
  006c5	09		 DB	 9
  006c6	09		 DB	 9
  006c7	09		 DB	 9
  006c8	09		 DB	 9
  006c9	09		 DB	 9
  006ca	09		 DB	 9
  006cb	09		 DB	 9
  006cc	09		 DB	 9
  006cd	09		 DB	 9
  006ce	09		 DB	 9
  006cf	09		 DB	 9
  006d0	09		 DB	 9
  006d1	09		 DB	 9
  006d2	09		 DB	 9
  006d3	09		 DB	 9
  006d4	09		 DB	 9
  006d5	09		 DB	 9
  006d6	09		 DB	 9
  006d7	09		 DB	 9
  006d8	09		 DB	 9
  006d9	09		 DB	 9
  006da	09		 DB	 9
  006db	09		 DB	 9
  006dc	09		 DB	 9
  006dd	09		 DB	 9
  006de	09		 DB	 9
  006df	07		 DB	 7
  006e0	08		 DB	 8
?WindowProcedure@CPythonApplication@@MAEJPAUHWND__@@IIJ@Z ENDP ; CPythonApplication::WindowProcedure
_TEXT	ENDS
; Function compile flags: /Ogtp
; File E:\Metin2_server\SolWayneSF v6\ClientVS22\source\UserInterface\PythonApplicationProcedure.cpp
;	COMDAT ?__SetFullScreenWindow@CPythonApplication@@IAEXPAUHWND__@@KKK@Z
_TEXT	SEGMENT
_DevMode$ = -160					; size = 156
__$ArrayPad$ = -4					; size = 4
_hWnd$dead$ = 8						; size = 4
_dwWidth$ = 12						; size = 4
_dwHeight$ = 16						; size = 4
_dwBPP$ = 20						; size = 4
?__SetFullScreenWindow@CPythonApplication@@IAEXPAUHWND__@@KKK@Z PROC ; CPythonApplication::__SetFullScreenWindow, COMDAT
; _this$dead$ = ecx

; 24   : {

  00000	55		 push	 ebp
  00001	8b ec		 mov	 ebp, esp
  00003	81 ec a0 00 00
	00		 sub	 esp, 160		; 000000a0H
  00009	a1 00 00 00 00	 mov	 eax, DWORD PTR ___security_cookie
  0000e	33 c5		 xor	 eax, ebp
  00010	89 45 fc	 mov	 DWORD PTR __$ArrayPad$[ebp], eax

; 25   : 	DEVMODE DevMode;
; 26   : 	DevMode.dmSize = sizeof(DevMode);

  00013	b8 9c 00 00 00	 mov	 eax, 156		; 0000009cH

; 27   : 	DevMode.dmBitsPerPel = dwBPP;
; 28   : 	DevMode.dmPelsWidth = dwWidth;
; 29   : 	DevMode.dmPelsHeight = dwHeight;
; 30   : 	DevMode.dmFields = DM_BITSPERPEL | DM_PELSWIDTH | DM_PELSHEIGHT;

  00018	c7 45 88 00 00
	1c 00		 mov	 DWORD PTR _DevMode$[ebp+40], 1835008 ; 001c0000H
  0001f	66 89 45 84	 mov	 WORD PTR _DevMode$[ebp+36], ax
  00023	8b 45 14	 mov	 eax, DWORD PTR _dwBPP$[ebp]
  00026	89 45 c8	 mov	 DWORD PTR _DevMode$[ebp+104], eax
  00029	8b 45 0c	 mov	 eax, DWORD PTR _dwWidth$[ebp]
  0002c	89 45 cc	 mov	 DWORD PTR _DevMode$[ebp+108], eax
  0002f	8b 45 10	 mov	 eax, DWORD PTR _dwHeight$[ebp]
  00032	89 45 d0	 mov	 DWORD PTR _DevMode$[ebp+112], eax

; 31   : 
; 32   : 	LONG Error = ChangeDisplaySettings(&DevMode, CDS_FULLSCREEN);

  00035	8d 85 60 ff ff
	ff		 lea	 eax, DWORD PTR _DevMode$[ebp]
  0003b	6a 04		 push	 4
  0003d	50		 push	 eax
  0003e	ff 15 00 00 00
	00		 call	 DWORD PTR __imp__ChangeDisplaySettingsA@8

; 33   : 	if(Error == DISP_CHANGE_RESTART)

  00044	83 f8 01	 cmp	 eax, 1
  00047	75 0a		 jne	 SHORT $LN2@SetFullScr

; 34   : 	{
; 35   : 		ChangeDisplaySettings(0,0);

  00049	6a 00		 push	 0
  0004b	6a 00		 push	 0
  0004d	ff 15 00 00 00
	00		 call	 DWORD PTR __imp__ChangeDisplaySettingsA@8
$LN2@SetFullScr:

; 36   : 	}
; 37   : }

  00053	8b 4d fc	 mov	 ecx, DWORD PTR __$ArrayPad$[ebp]
  00056	33 cd		 xor	 ecx, ebp
  00058	e8 00 00 00 00	 call	 @__security_check_cookie@4
  0005d	8b e5		 mov	 esp, ebp
  0005f	5d		 pop	 ebp
  00060	c2 10 00	 ret	 16			; 00000010H
?__SetFullScreenWindow@CPythonApplication@@IAEXPAUHWND__@@KKK@Z ENDP ; CPythonApplication::__SetFullScreenWindow
_TEXT	ENDS
; Function compile flags: /Ogtp
; File E:\Metin2_server\SolWayneSF v6\ClientVS22\source\UserInterface\PythonApplicationProcedure.cpp
;	COMDAT ?SafeSetCapture@CPythonApplication@@QAEXXZ
_TEXT	SEGMENT
?SafeSetCapture@CPythonApplication@@QAEXXZ PROC		; CPythonApplication::SafeSetCapture, COMDAT
; _this$ = ecx

; 12   : 	SetCapture(m_hWnd);

  00000	ff 71 04	 push	 DWORD PTR [ecx+4]
  00003	ff 15 00 00 00
	00		 call	 DWORD PTR __imp__SetCapture@4

; 13   : 	gs_nMouseCaptureRef++;

  00009	ff 05 00 00 00
	00		 inc	 DWORD PTR ?gs_nMouseCaptureRef@@3HA

; 14   : }

  0000f	c3		 ret	 0
?SafeSetCapture@CPythonApplication@@QAEXXZ ENDP		; CPythonApplication::SafeSetCapture
_TEXT	ENDS
; Function compile flags: /Ogtp
; File E:\Metin2_server\SolWayneSF v6\ClientVS22\source\UserInterface\PythonApplicationProcedure.cpp
;	COMDAT ?SafeReleaseCapture@CPythonApplication@@QAEXXZ
_TEXT	SEGMENT
?SafeReleaseCapture@CPythonApplication@@QAEXXZ PROC	; CPythonApplication::SafeReleaseCapture, COMDAT
; _this$dead$ = ecx

; 18   : 	gs_nMouseCaptureRef--;

  00000	83 2d 00 00 00
	00 01		 sub	 DWORD PTR ?gs_nMouseCaptureRef@@3HA, 1

; 19   : 	if (gs_nMouseCaptureRef==0)

  00007	75 06		 jne	 SHORT $LN2@SafeReleas

; 20   : 		ReleaseCapture();

  00009	ff 25 00 00 00
	00		 jmp	 DWORD PTR __imp__ReleaseCapture@0
$LN2@SafeReleas:

; 21   : }

  0000f	c3		 ret	 0
?SafeReleaseCapture@CPythonApplication@@QAEXXZ ENDP	; CPythonApplication::SafeReleaseCapture
_TEXT	ENDS
; Function compile flags: /Ogtp
; File E:\Metin2_server\SolWayneSF v6\ClientVS22\source\UserInterface\PythonApplicationProcedure.cpp
;	COMDAT ?__MinimizeFullScreenWindow@CPythonApplication@@IAEXPAUHWND__@@KK@Z
_TEXT	SEGMENT
_hWnd$ = 8						; size = 4
_dwWidth$ = 12						; size = 4
_dwHeight$ = 16						; size = 4
?__MinimizeFullScreenWindow@CPythonApplication@@IAEXPAUHWND__@@KK@Z PROC ; CPythonApplication::__MinimizeFullScreenWindow, COMDAT
; _this$dead$ = ecx

; 40   : {

  00000	55		 push	 ebp
  00001	8b ec		 mov	 ebp, esp

; 41   : 	ChangeDisplaySettings(0, 0);

  00003	6a 00		 push	 0
  00005	6a 00		 push	 0
  00007	ff 15 00 00 00
	00		 call	 DWORD PTR __imp__ChangeDisplaySettingsA@8

; 42   : 	SetWindowPos(hWnd, 0, 0, 0,

  0000d	6a 40		 push	 64			; 00000040H
  0000f	ff 75 10	 push	 DWORD PTR _dwHeight$[ebp]
  00012	ff 75 0c	 push	 DWORD PTR _dwWidth$[ebp]
  00015	6a 00		 push	 0
  00017	6a 00		 push	 0
  00019	6a 00		 push	 0
  0001b	ff 75 08	 push	 DWORD PTR _hWnd$[ebp]
  0001e	ff 15 00 00 00
	00		 call	 DWORD PTR __imp__SetWindowPos@28

; 43   : 				 dwWidth,
; 44   : 				 dwHeight,
; 45   : 				 SWP_SHOWWINDOW);
; 46   : 	ShowWindow(hWnd, SW_MINIMIZE);

  00024	6a 06		 push	 6
  00026	ff 75 08	 push	 DWORD PTR _hWnd$[ebp]
  00029	ff 15 00 00 00
	00		 call	 DWORD PTR __imp__ShowWindow@8

; 47   : }

  0002f	5d		 pop	 ebp
  00030	c2 0c 00	 ret	 12			; 0000000cH
?__MinimizeFullScreenWindow@CPythonApplication@@IAEXPAUHWND__@@KK@Z ENDP ; CPythonApplication::__MinimizeFullScreenWindow
_TEXT	ENDS
END
