; Listing generated by Microsoft (R) Optimizing Compiler Version 19.34.31937.0 

	TITLE	e:\metin2_server\solwaynesf v6\clientvs22\vs_files\userinterface\distribute\pythonplayereventhandler.obj
	.686P
	.XMM
	include listing.inc
	.model	flat

INCLUDELIB OLDNAMES

PUBLIC	??_C@_0CL@BHCKMNDC@Shoot?5?3?5?$LE?Y?$LI?$KF?5target?$LP?$KB?5?$LI?B?$LO?R?$LN?$MA?$LE?O?$LE@ ; `string'
PUBLIC	??_R2CPythonPlayerEventHandler@@8		; CPythonPlayerEventHandler::`RTTI Base Class Array'
PUBLIC	??_R2CNormalBowAttack_FlyEventHandler_AutoClear@CPythonPlayerEventHandler@@8 ; CPythonPlayerEventHandler::CNormalBowAttack_FlyEventHandler_AutoClear::`RTTI Base Class Array'
PUBLIC	??_R2IEventHandler@CActorInstance@@8		; CActorInstance::IEventHandler::`RTTI Base Class Array'
PUBLIC	??_R2IFlyEventHandler@@8			; IFlyEventHandler::`RTTI Base Class Array'
PUBLIC	??_R1A@?0A@EA@CNormalBowAttack_FlyEventHandler_AutoClear@CPythonPlayerEventHandler@@8 ; CPythonPlayerEventHandler::CNormalBowAttack_FlyEventHandler_AutoClear::`RTTI Base Class Descriptor at (0,-1,0,64)'
PUBLIC	??_R1A@?0A@EA@CPythonPlayerEventHandler@@8	; CPythonPlayerEventHandler::`RTTI Base Class Descriptor at (0,-1,0,64)'
PUBLIC	??_R1A@?0A@EA@IEventHandler@CActorInstance@@8	; CActorInstance::IEventHandler::`RTTI Base Class Descriptor at (0,-1,0,64)'
PUBLIC	??_R1A@?0A@EA@IFlyEventHandler@@8		; IFlyEventHandler::`RTTI Base Class Descriptor at (0,-1,0,64)'
PUBLIC	??_R3CNormalBowAttack_FlyEventHandler_AutoClear@CPythonPlayerEventHandler@@8 ; CPythonPlayerEventHandler::CNormalBowAttack_FlyEventHandler_AutoClear::`RTTI Class Hierarchy Descriptor'
PUBLIC	??_R3CPythonPlayerEventHandler@@8		; CPythonPlayerEventHandler::`RTTI Class Hierarchy Descriptor'
PUBLIC	??_R0?AVCNormalBowAttack_FlyEventHandler_AutoClear@CPythonPlayerEventHandler@@@8 ; CPythonPlayerEventHandler::CNormalBowAttack_FlyEventHandler_AutoClear `RTTI Type Descriptor'
PUBLIC	??_R0?AVCPythonPlayerEventHandler@@@8		; CPythonPlayerEventHandler `RTTI Type Descriptor'
PUBLIC	??_R3IEventHandler@CActorInstance@@8		; CActorInstance::IEventHandler::`RTTI Class Hierarchy Descriptor'
PUBLIC	??_R0?AVIEventHandler@CActorInstance@@@8	; CActorInstance::IEventHandler `RTTI Type Descriptor'
PUBLIC	??_R3IFlyEventHandler@@8			; IFlyEventHandler::`RTTI Class Hierarchy Descriptor'
PUBLIC	??_R0?AVIFlyEventHandler@@@8			; IFlyEventHandler `RTTI Type Descriptor'
PUBLIC	??_R4CNormalBowAttack_FlyEventHandler_AutoClear@CPythonPlayerEventHandler@@6B@ ; CPythonPlayerEventHandler::CNormalBowAttack_FlyEventHandler_AutoClear::`RTTI Complete Object Locator'
PUBLIC	??_R4CPythonPlayerEventHandler@@6B@		; CPythonPlayerEventHandler::`RTTI Complete Object Locator'
PUBLIC	??_R4IEventHandler@CActorInstance@@6B@		; CActorInstance::IEventHandler::`RTTI Complete Object Locator'
PUBLIC	??_R4IFlyEventHandler@@6B@			; IFlyEventHandler::`RTTI Complete Object Locator'
PUBLIC	??_7CPythonPlayerEventHandler@@6B@		; CPythonPlayerEventHandler::`vftable'
PUBLIC	??_7CNormalBowAttack_FlyEventHandler_AutoClear@CPythonPlayerEventHandler@@6B@ ; CPythonPlayerEventHandler::CNormalBowAttack_FlyEventHandler_AutoClear::`vftable'
PUBLIC	??_7IEventHandler@CActorInstance@@6B@		; CActorInstance::IEventHandler::`vftable'
PUBLIC	??_7IFlyEventHandler@@6B@			; IFlyEventHandler::`vftable'
EXTRN	?IS_HUGE_RACE@@YA_NI@Z:PROC			; IS_HUGE_RACE
;	COMDAT ??_7IFlyEventHandler@@6B@
CONST	SEGMENT
??_7IFlyEventHandler@@6B@ DD FLAT:??_R4IFlyEventHandler@@6B@ ; IFlyEventHandler::`vftable'
	DD	FLAT:??_EIFlyEventHandler@@UAEPAXI@Z
	DD	FLAT:?OnSetFlyTarget@IFlyEventHandler@@UAEXXZ
	DD	FLAT:?OnShoot@IFlyEventHandler@@UAEXK@Z
	DD	FLAT:?OnNoTarget@IFlyEventHandler@@UAEXXZ
	DD	FLAT:?OnNoArrow@IFlyEventHandler@@UAEXXZ
	DD	FLAT:?OnExplodingOutOfRange@IFlyEventHandler@@UAEXXZ
	DD	FLAT:?OnExplodingAtBackground@IFlyEventHandler@@UAEXXZ
	DD	FLAT:?OnExplodingAtAnotherTarget@IFlyEventHandler@@UAEXKK@Z
	DD	FLAT:?OnExplodingAtTarget@IFlyEventHandler@@UAEXK@Z
CONST	ENDS
;	COMDAT ??_7IEventHandler@CActorInstance@@6B@
CONST	SEGMENT
??_7IEventHandler@CActorInstance@@6B@ DD FLAT:??_R4IEventHandler@CActorInstance@@6B@ ; CActorInstance::IEventHandler::`vftable'
	DD	FLAT:??_EIEventHandler@CActorInstance@@UAEPAXI@Z
	DD	FLAT:__purecall
	DD	FLAT:__purecall
	DD	FLAT:__purecall
	DD	FLAT:__purecall
	DD	FLAT:__purecall
	DD	FLAT:__purecall
	DD	FLAT:__purecall
	DD	FLAT:__purecall
	DD	FLAT:__purecall
	DD	FLAT:__purecall
	DD	FLAT:__purecall
	DD	FLAT:__purecall
	DD	FLAT:__purecall
CONST	ENDS
;	COMDAT ??_7CNormalBowAttack_FlyEventHandler_AutoClear@CPythonPlayerEventHandler@@6B@
CONST	SEGMENT
??_7CNormalBowAttack_FlyEventHandler_AutoClear@CPythonPlayerEventHandler@@6B@ DD FLAT:??_R4CNormalBowAttack_FlyEventHandler_AutoClear@CPythonPlayerEventHandler@@6B@ ; CPythonPlayerEventHandler::CNormalBowAttack_FlyEventHandler_AutoClear::`vftable'
	DD	FLAT:??_ECNormalBowAttack_FlyEventHandler_AutoClear@CPythonPlayerEventHandler@@UAEPAXI@Z
	DD	FLAT:?OnSetFlyTarget@CNormalBowAttack_FlyEventHandler_AutoClear@CPythonPlayerEventHandler@@UAEXXZ
	DD	FLAT:?OnShoot@CNormalBowAttack_FlyEventHandler_AutoClear@CPythonPlayerEventHandler@@UAEXK@Z
	DD	FLAT:?OnNoTarget@CNormalBowAttack_FlyEventHandler_AutoClear@CPythonPlayerEventHandler@@UAEXXZ
	DD	FLAT:?OnNoArrow@IFlyEventHandler@@UAEXXZ
	DD	FLAT:?OnExplodingOutOfRange@CNormalBowAttack_FlyEventHandler_AutoClear@CPythonPlayerEventHandler@@UAEXXZ
	DD	FLAT:?OnExplodingAtBackground@CNormalBowAttack_FlyEventHandler_AutoClear@CPythonPlayerEventHandler@@UAEXXZ
	DD	FLAT:?OnExplodingAtAnotherTarget@CNormalBowAttack_FlyEventHandler_AutoClear@CPythonPlayerEventHandler@@UAEXKK@Z
	DD	FLAT:?OnExplodingAtTarget@CNormalBowAttack_FlyEventHandler_AutoClear@CPythonPlayerEventHandler@@UAEXK@Z
CONST	ENDS
;	COMDAT ??_7CPythonPlayerEventHandler@@6B@
CONST	SEGMENT
??_7CPythonPlayerEventHandler@@6B@ DD FLAT:??_R4CPythonPlayerEventHandler@@6B@ ; CPythonPlayerEventHandler::`vftable'
	DD	FLAT:??_ECPythonPlayerEventHandler@@UAEPAXI@Z
	DD	FLAT:?OnSyncing@CPythonPlayerEventHandler@@UAEXABUSState@IEventHandler@CActorInstance@@@Z
	DD	FLAT:?OnWaiting@CPythonPlayerEventHandler@@UAEXABUSState@IEventHandler@CActorInstance@@@Z
	DD	FLAT:?OnMoving@CPythonPlayerEventHandler@@UAEXABUSState@IEventHandler@CActorInstance@@@Z
	DD	FLAT:?OnMove@CPythonPlayerEventHandler@@UAEXABUSState@IEventHandler@CActorInstance@@@Z
	DD	FLAT:?OnStop@CPythonPlayerEventHandler@@UAEXABUSState@IEventHandler@CActorInstance@@@Z
	DD	FLAT:?OnWarp@CPythonPlayerEventHandler@@UAEXABUSState@IEventHandler@CActorInstance@@@Z
	DD	FLAT:?OnSetAffect@CPythonPlayerEventHandler@@UAEXI@Z
	DD	FLAT:?OnResetAffect@CPythonPlayerEventHandler@@UAEXI@Z
	DD	FLAT:?OnClearAffects@CPythonPlayerEventHandler@@UAEXXZ
	DD	FLAT:?OnAttack@CPythonPlayerEventHandler@@UAEXABUSState@IEventHandler@CActorInstance@@G@Z
	DD	FLAT:?OnUseSkill@CPythonPlayerEventHandler@@UAEXABUSState@IEventHandler@CActorInstance@@II@Z
	DD	FLAT:?OnHit@CPythonPlayerEventHandler@@UAEXIAAVCActorInstance@@H@Z
	DD	FLAT:?OnChangeShape@CPythonPlayerEventHandler@@UAEXXZ
	DD	FLAT:?OnUpdate@CPythonPlayerEventHandler@@UAEXXZ
CONST	ENDS
;	COMDAT ??_R4IFlyEventHandler@@6B@
rdata$r	SEGMENT
??_R4IFlyEventHandler@@6B@ DD 00H			; IFlyEventHandler::`RTTI Complete Object Locator'
	DD	00H
	DD	00H
	DD	FLAT:??_R0?AVIFlyEventHandler@@@8
	DD	FLAT:??_R3IFlyEventHandler@@8
rdata$r	ENDS
;	COMDAT ??_R4IEventHandler@CActorInstance@@6B@
rdata$r	SEGMENT
??_R4IEventHandler@CActorInstance@@6B@ DD 00H		; CActorInstance::IEventHandler::`RTTI Complete Object Locator'
	DD	00H
	DD	00H
	DD	FLAT:??_R0?AVIEventHandler@CActorInstance@@@8
	DD	FLAT:??_R3IEventHandler@CActorInstance@@8
rdata$r	ENDS
;	COMDAT ??_R4CPythonPlayerEventHandler@@6B@
rdata$r	SEGMENT
??_R4CPythonPlayerEventHandler@@6B@ DD 00H		; CPythonPlayerEventHandler::`RTTI Complete Object Locator'
	DD	00H
	DD	00H
	DD	FLAT:??_R0?AVCPythonPlayerEventHandler@@@8
	DD	FLAT:??_R3CPythonPlayerEventHandler@@8
rdata$r	ENDS
;	COMDAT ??_R4CNormalBowAttack_FlyEventHandler_AutoClear@CPythonPlayerEventHandler@@6B@
rdata$r	SEGMENT
??_R4CNormalBowAttack_FlyEventHandler_AutoClear@CPythonPlayerEventHandler@@6B@ DD 00H ; CPythonPlayerEventHandler::CNormalBowAttack_FlyEventHandler_AutoClear::`RTTI Complete Object Locator'
	DD	00H
	DD	00H
	DD	FLAT:??_R0?AVCNormalBowAttack_FlyEventHandler_AutoClear@CPythonPlayerEventHandler@@@8
	DD	FLAT:??_R3CNormalBowAttack_FlyEventHandler_AutoClear@CPythonPlayerEventHandler@@8
rdata$r	ENDS
;	COMDAT ??_R0?AVIFlyEventHandler@@@8
data$rs	SEGMENT
??_R0?AVIFlyEventHandler@@@8 DD FLAT:??_7type_info@@6B@	; IFlyEventHandler `RTTI Type Descriptor'
	DD	00H
	DB	'.?AVIFlyEventHandler@@', 00H
data$rs	ENDS
;	COMDAT ??_R3IFlyEventHandler@@8
rdata$r	SEGMENT
??_R3IFlyEventHandler@@8 DD 00H				; IFlyEventHandler::`RTTI Class Hierarchy Descriptor'
	DD	00H
	DD	01H
	DD	FLAT:??_R2IFlyEventHandler@@8
rdata$r	ENDS
;	COMDAT ??_R0?AVIEventHandler@CActorInstance@@@8
data$rs	SEGMENT
??_R0?AVIEventHandler@CActorInstance@@@8 DD FLAT:??_7type_info@@6B@ ; CActorInstance::IEventHandler `RTTI Type Descriptor'
	DD	00H
	DB	'.?AVIEventHandler@CActorInstance@@', 00H
data$rs	ENDS
;	COMDAT ??_R3IEventHandler@CActorInstance@@8
rdata$r	SEGMENT
??_R3IEventHandler@CActorInstance@@8 DD 00H		; CActorInstance::IEventHandler::`RTTI Class Hierarchy Descriptor'
	DD	00H
	DD	01H
	DD	FLAT:??_R2IEventHandler@CActorInstance@@8
rdata$r	ENDS
;	COMDAT ??_R0?AVCPythonPlayerEventHandler@@@8
data$rs	SEGMENT
??_R0?AVCPythonPlayerEventHandler@@@8 DD FLAT:??_7type_info@@6B@ ; CPythonPlayerEventHandler `RTTI Type Descriptor'
	DD	00H
	DB	'.?AVCPythonPlayerEventHandler@@', 00H
data$rs	ENDS
;	COMDAT ??_R0?AVCNormalBowAttack_FlyEventHandler_AutoClear@CPythonPlayerEventHandler@@@8
data$rs	SEGMENT
??_R0?AVCNormalBowAttack_FlyEventHandler_AutoClear@CPythonPlayerEventHandler@@@8 DD FLAT:??_7type_info@@6B@ ; CPythonPlayerEventHandler::CNormalBowAttack_FlyEventHandler_AutoClear `RTTI Type Descriptor'
	DD	00H
	DB	'.?AVCNormalBowAttack_FlyEventHandler_AutoClear@CPythonPl'
	DB	'ayerEventHandler@@', 00H
data$rs	ENDS
;	COMDAT ??_R3CPythonPlayerEventHandler@@8
rdata$r	SEGMENT
??_R3CPythonPlayerEventHandler@@8 DD 00H		; CPythonPlayerEventHandler::`RTTI Class Hierarchy Descriptor'
	DD	00H
	DD	02H
	DD	FLAT:??_R2CPythonPlayerEventHandler@@8
rdata$r	ENDS
;	COMDAT ??_R3CNormalBowAttack_FlyEventHandler_AutoClear@CPythonPlayerEventHandler@@8
rdata$r	SEGMENT
??_R3CNormalBowAttack_FlyEventHandler_AutoClear@CPythonPlayerEventHandler@@8 DD 00H ; CPythonPlayerEventHandler::CNormalBowAttack_FlyEventHandler_AutoClear::`RTTI Class Hierarchy Descriptor'
	DD	00H
	DD	02H
	DD	FLAT:??_R2CNormalBowAttack_FlyEventHandler_AutoClear@CPythonPlayerEventHandler@@8
rdata$r	ENDS
;	COMDAT ??_R1A@?0A@EA@IFlyEventHandler@@8
rdata$r	SEGMENT
??_R1A@?0A@EA@IFlyEventHandler@@8 DD FLAT:??_R0?AVIFlyEventHandler@@@8 ; IFlyEventHandler::`RTTI Base Class Descriptor at (0,-1,0,64)'
	DD	00H
	DD	00H
	DD	0ffffffffH
	DD	00H
	DD	040H
	DD	FLAT:??_R3IFlyEventHandler@@8
rdata$r	ENDS
;	COMDAT ??_R1A@?0A@EA@IEventHandler@CActorInstance@@8
rdata$r	SEGMENT
??_R1A@?0A@EA@IEventHandler@CActorInstance@@8 DD FLAT:??_R0?AVIEventHandler@CActorInstance@@@8 ; CActorInstance::IEventHandler::`RTTI Base Class Descriptor at (0,-1,0,64)'
	DD	00H
	DD	00H
	DD	0ffffffffH
	DD	00H
	DD	040H
	DD	FLAT:??_R3IEventHandler@CActorInstance@@8
rdata$r	ENDS
;	COMDAT ??_R1A@?0A@EA@CPythonPlayerEventHandler@@8
rdata$r	SEGMENT
??_R1A@?0A@EA@CPythonPlayerEventHandler@@8 DD FLAT:??_R0?AVCPythonPlayerEventHandler@@@8 ; CPythonPlayerEventHandler::`RTTI Base Class Descriptor at (0,-1,0,64)'
	DD	01H
	DD	00H
	DD	0ffffffffH
	DD	00H
	DD	040H
	DD	FLAT:??_R3CPythonPlayerEventHandler@@8
rdata$r	ENDS
;	COMDAT ??_R1A@?0A@EA@CNormalBowAttack_FlyEventHandler_AutoClear@CPythonPlayerEventHandler@@8
rdata$r	SEGMENT
??_R1A@?0A@EA@CNormalBowAttack_FlyEventHandler_AutoClear@CPythonPlayerEventHandler@@8 DD FLAT:??_R0?AVCNormalBowAttack_FlyEventHandler_AutoClear@CPythonPlayerEventHandler@@@8 ; CPythonPlayerEventHandler::CNormalBowAttack_FlyEventHandler_AutoClear::`RTTI Base Class Descriptor at (0,-1,0,64)'
	DD	01H
	DD	00H
	DD	0ffffffffH
	DD	00H
	DD	040H
	DD	FLAT:??_R3CNormalBowAttack_FlyEventHandler_AutoClear@CPythonPlayerEventHandler@@8
rdata$r	ENDS
;	COMDAT ??_R2IFlyEventHandler@@8
rdata$r	SEGMENT
??_R2IFlyEventHandler@@8 DD FLAT:??_R1A@?0A@EA@IFlyEventHandler@@8 ; IFlyEventHandler::`RTTI Base Class Array'
rdata$r	ENDS
;	COMDAT ??_R2IEventHandler@CActorInstance@@8
rdata$r	SEGMENT
??_R2IEventHandler@CActorInstance@@8 DD FLAT:??_R1A@?0A@EA@IEventHandler@CActorInstance@@8 ; CActorInstance::IEventHandler::`RTTI Base Class Array'
rdata$r	ENDS
;	COMDAT ??_R2CNormalBowAttack_FlyEventHandler_AutoClear@CPythonPlayerEventHandler@@8
rdata$r	SEGMENT
??_R2CNormalBowAttack_FlyEventHandler_AutoClear@CPythonPlayerEventHandler@@8 DD FLAT:??_R1A@?0A@EA@CNormalBowAttack_FlyEventHandler_AutoClear@CPythonPlayerEventHandler@@8 ; CPythonPlayerEventHandler::CNormalBowAttack_FlyEventHandler_AutoClear::`RTTI Base Class Array'
	DD	FLAT:??_R1A@?0A@EA@IFlyEventHandler@@8
rdata$r	ENDS
;	COMDAT ??_R2CPythonPlayerEventHandler@@8
rdata$r	SEGMENT
??_R2CPythonPlayerEventHandler@@8 DD FLAT:??_R1A@?0A@EA@CPythonPlayerEventHandler@@8 ; CPythonPlayerEventHandler::`RTTI Base Class Array'
	DD	FLAT:??_R1A@?0A@EA@IEventHandler@CActorInstance@@8
rdata$r	ENDS
;	COMDAT ??_C@_0CL@BHCKMNDC@Shoot?5?3?5?$LE?Y?$LI?$KF?5target?$LP?$KB?5?$LI?B?$LO?R?$LN?$MA?$LE?O?$LE@
CONST	SEGMENT
??_C@_0CL@BHCKMNDC@Shoot?5?3?5?$LE?Y?$LI?$KF?5target?$LP?$KB?5?$LI?B?$LO?R?$LN?$MA?$LE?O?$LE@ DB 'S'
	DB	'hoot : ', 0b4H, 0d9H, 0b8H, 0a5H, ' target', 0bfH, 0a1H, ' ', 0b8H
	DB	0c2H, 0beH, 0d2H, 0bdH, 0c0H, 0b4H, 0cfH, 0b4H, 0d9H, ' : %d, '
	DB	'%d', 0aH, 00H				; `string'
PUBLIC	??$construct_at@USVictim@CPythonPlayerEventHandler@@U12@$0A@@std@@YAPAUSVictim@CPythonPlayerEventHandler@@QAU12@$$QAU12@@Z ; std::construct_at<CPythonPlayerEventHandler::SVictim,CPythonPlayerEventHandler::SVictim,0>
PUBLIC	??$construct@USVictim@CPythonPlayerEventHandler@@U12@@?$_Default_allocator_traits@V?$allocator@USVictim@CPythonPlayerEventHandler@@@std@@@std@@SAXAAV?$allocator@USVictim@CPythonPlayerEventHandler@@@1@QAUSVictim@CPythonPlayerEventHandler@@$$QAU34@@Z ; std::_Default_allocator_traits<std::allocator<CPythonPlayerEventHandler::SVictim> >::construct<CPythonPlayerEventHandler::SVictim,CPythonPlayerEventHandler::SVictim>
PUBLIC	??$forward@USVictim@CPythonPlayerEventHandler@@@std@@YA$$QAUSVictim@CPythonPlayerEventHandler@@AAU12@@Z ; std::forward<CPythonPlayerEventHandler::SVictim>
PUBLIC	??$to_address@USVictim@CPythonPlayerEventHandler@@@std@@YAPAUSVictim@CPythonPlayerEventHandler@@QAU12@@Z ; std::to_address<CPythonPlayerEventHandler::SVictim>
PUBLIC	??$_Emplace_back@USVictim@CPythonPlayerEventHandler@@@?$_Uninitialized_backout_al@V?$allocator@USVictim@CPythonPlayerEventHandler@@@std@@@std@@QAEX$$QAUSVictim@CPythonPlayerEventHandler@@@Z ; std::_Uninitialized_backout_al<std::allocator<CPythonPlayerEventHandler::SVictim> >::_Emplace_back<CPythonPlayerEventHandler::SVictim>
PUBLIC	??$_To_address@PAUSVictim@CPythonPlayerEventHandler@@@std@@YA?A_PABQAUSVictim@CPythonPlayerEventHandler@@@Z ; std::_To_address<CPythonPlayerEventHandler::SVictim *>
PUBLIC	??$_Copy_memmove@PAUSVictim@CPythonPlayerEventHandler@@PAU12@@std@@YAPAUSVictim@CPythonPlayerEventHandler@@PAU12@00@Z ; std::_Copy_memmove<CPythonPlayerEventHandler::SVictim *,CPythonPlayerEventHandler::SVictim *>
PUBLIC	??$move@AAUSVictim@CPythonPlayerEventHandler@@@std@@YA$$QAUSVictim@CPythonPlayerEventHandler@@AAU12@@Z ; std::move<CPythonPlayerEventHandler::SVictim &>
PUBLIC	??$_Voidify_iter@PAUSVictim@CPythonPlayerEventHandler@@@std@@YAPAXPAUSVictim@CPythonPlayerEventHandler@@@Z ; std::_Voidify_iter<CPythonPlayerEventHandler::SVictim *>
PUBLIC	??$construct_at@USVictim@CPythonPlayerEventHandler@@ABU12@$0A@@std@@YAPAUSVictim@CPythonPlayerEventHandler@@QAU12@ABU12@@Z ; std::construct_at<CPythonPlayerEventHandler::SVictim,CPythonPlayerEventHandler::SVictim const &,0>
PUBLIC	??$addressof@USVictim@CPythonPlayerEventHandler@@@std@@YAPAUSVictim@CPythonPlayerEventHandler@@AAU12@@Z ; std::addressof<CPythonPlayerEventHandler::SVictim>
PUBLIC	??0?$_Uninitialized_backout_al@V?$allocator@USVictim@CPythonPlayerEventHandler@@@std@@@std@@QAE@PAUSVictim@CPythonPlayerEventHandler@@AAV?$allocator@USVictim@CPythonPlayerEventHandler@@@1@@Z ; std::_Uninitialized_backout_al<std::allocator<CPythonPlayerEventHandler::SVictim> >::_Uninitialized_backout_al<std::allocator<CPythonPlayerEventHandler::SVictim> >
PUBLIC	??1?$_Uninitialized_backout_al@V?$allocator@USVictim@CPythonPlayerEventHandler@@@std@@@std@@QAE@XZ ; std::_Uninitialized_backout_al<std::allocator<CPythonPlayerEventHandler::SVictim> >::~_Uninitialized_backout_al<std::allocator<CPythonPlayerEventHandler::SVictim> >
PUBLIC	?_Release@?$_Uninitialized_backout_al@V?$allocator@USVictim@CPythonPlayerEventHandler@@@std@@@std@@QAEPAUSVictim@CPythonPlayerEventHandler@@XZ ; std::_Uninitialized_backout_al<std::allocator<CPythonPlayerEventHandler::SVictim> >::_Release
PUBLIC	??$_Uninitialized_move@PAUSVictim@CPythonPlayerEventHandler@@V?$allocator@USVictim@CPythonPlayerEventHandler@@@std@@@std@@YAPAUSVictim@CPythonPlayerEventHandler@@QAU12@0PAU12@AAV?$allocator@USVictim@CPythonPlayerEventHandler@@@0@@Z ; std::_Uninitialized_move<CPythonPlayerEventHandler::SVictim *,std::allocator<CPythonPlayerEventHandler::SVictim> >
PUBLIC	??$_Get_unwrapped@ABQAUSVictim@CPythonPlayerEventHandler@@@std@@YA?A_TABQAUSVictim@CPythonPlayerEventHandler@@@Z ; std::_Get_unwrapped<CPythonPlayerEventHandler::SVictim * const &>
PUBLIC	??$construct@USVictim@CPythonPlayerEventHandler@@ABU12@@?$_Default_allocator_traits@V?$allocator@USVictim@CPythonPlayerEventHandler@@@std@@@std@@SAXAAV?$allocator@USVictim@CPythonPlayerEventHandler@@@1@QAUSVictim@CPythonPlayerEventHandler@@ABU34@@Z ; std::_Default_allocator_traits<std::allocator<CPythonPlayerEventHandler::SVictim> >::construct<CPythonPlayerEventHandler::SVictim,CPythonPlayerEventHandler::SVictim const &>
PUBLIC	??$_Unfancy@USVictim@CPythonPlayerEventHandler@@@std@@YAPAUSVictim@CPythonPlayerEventHandler@@PAU12@@Z ; std::_Unfancy<CPythonPlayerEventHandler::SVictim>
PUBLIC	??$_Construct_in_place@USVictim@CPythonPlayerEventHandler@@ABU12@@std@@YAXAAUSVictim@CPythonPlayerEventHandler@@ABU12@@Z ; std::_Construct_in_place<CPythonPlayerEventHandler::SVictim,CPythonPlayerEventHandler::SVictim const &>
PUBLIC	?_Get_first@?$_Compressed_pair@V?$allocator@USVictim@CPythonPlayerEventHandler@@@std@@V?$_Vector_val@U?$_Simple_types@USVictim@CPythonPlayerEventHandler@@@std@@@2@$00@std@@QBEABV?$allocator@USVictim@CPythonPlayerEventHandler@@@2@XZ ; std::_Compressed_pair<std::allocator<CPythonPlayerEventHandler::SVictim>,std::_Vector_val<std::_Simple_types<CPythonPlayerEventHandler::SVictim> >,1>::_Get_first
PUBLIC	?max_size@?$_Default_allocator_traits@V?$allocator@USVictim@CPythonPlayerEventHandler@@@std@@@std@@SAIABV?$allocator@USVictim@CPythonPlayerEventHandler@@@2@@Z ; std::_Default_allocator_traits<std::allocator<CPythonPlayerEventHandler::SVictim> >::max_size
PUBLIC	?capacity@?$vector@USVictim@CPythonPlayerEventHandler@@V?$allocator@USVictim@CPythonPlayerEventHandler@@@std@@@std@@QBEIXZ ; std::vector<CPythonPlayerEventHandler::SVictim,std::allocator<CPythonPlayerEventHandler::SVictim> >::capacity
PUBLIC	?_Getal@?$vector@USVictim@CPythonPlayerEventHandler@@V?$allocator@USVictim@CPythonPlayerEventHandler@@@std@@@std@@ABEABV?$allocator@USVictim@CPythonPlayerEventHandler@@@2@XZ ; std::vector<CPythonPlayerEventHandler::SVictim,std::allocator<CPythonPlayerEventHandler::SVictim> >::_Getal
PUBLIC	?allocate@?$allocator@USVictim@CPythonPlayerEventHandler@@@std@@QAEPAUSVictim@CPythonPlayerEventHandler@@I@Z ; std::allocator<CPythonPlayerEventHandler::SVictim>::allocate
PUBLIC	?max_size@?$vector@USVictim@CPythonPlayerEventHandler@@V?$allocator@USVictim@CPythonPlayerEventHandler@@@std@@@std@@QBEIXZ ; std::vector<CPythonPlayerEventHandler::SVictim,std::allocator<CPythonPlayerEventHandler::SVictim> >::max_size
PUBLIC	?_Calculate_growth@?$vector@USVictim@CPythonPlayerEventHandler@@V?$allocator@USVictim@CPythonPlayerEventHandler@@@std@@@std@@ABEII@Z ; std::vector<CPythonPlayerEventHandler::SVictim,std::allocator<CPythonPlayerEventHandler::SVictim> >::_Calculate_growth
PUBLIC	?_Change_array@?$vector@USVictim@CPythonPlayerEventHandler@@V?$allocator@USVictim@CPythonPlayerEventHandler@@@std@@@std@@AAEXQAUSVictim@CPythonPlayerEventHandler@@II@Z ; std::vector<CPythonPlayerEventHandler::SVictim,std::allocator<CPythonPlayerEventHandler::SVictim> >::_Change_array
PUBLIC	?_Xlength@?$vector@USVictim@CPythonPlayerEventHandler@@V?$allocator@USVictim@CPythonPlayerEventHandler@@@std@@@std@@CAXXZ ; std::vector<CPythonPlayerEventHandler::SVictim,std::allocator<CPythonPlayerEventHandler::SVictim> >::_Xlength
PUBLIC	?_Orphan_range@?$vector@USVictim@CPythonPlayerEventHandler@@V?$allocator@USVictim@CPythonPlayerEventHandler@@@std@@@std@@ABEXPAUSVictim@CPythonPlayerEventHandler@@0@Z ; std::vector<CPythonPlayerEventHandler::SVictim,std::allocator<CPythonPlayerEventHandler::SVictim> >::_Orphan_range
PUBLIC	??$_Emplace_reallocate@ABUSVictim@CPythonPlayerEventHandler@@@?$vector@USVictim@CPythonPlayerEventHandler@@V?$allocator@USVictim@CPythonPlayerEventHandler@@@std@@@std@@AAEPAUSVictim@CPythonPlayerEventHandler@@QAU23@ABU23@@Z ; std::vector<CPythonPlayerEventHandler::SVictim,std::allocator<CPythonPlayerEventHandler::SVictim> >::_Emplace_reallocate<CPythonPlayerEventHandler::SVictim const &>
PUBLIC	??$_Emplace_back_with_unused_capacity@ABUSVictim@CPythonPlayerEventHandler@@@?$vector@USVictim@CPythonPlayerEventHandler@@V?$allocator@USVictim@CPythonPlayerEventHandler@@@std@@@std@@AAEAAUSVictim@CPythonPlayerEventHandler@@ABU23@@Z ; std::vector<CPythonPlayerEventHandler::SVictim,std::allocator<CPythonPlayerEventHandler::SVictim> >::_Emplace_back_with_unused_capacity<CPythonPlayerEventHandler::SVictim const &>
PUBLIC	??$forward@ABUSVictim@CPythonPlayerEventHandler@@@std@@YAABUSVictim@CPythonPlayerEventHandler@@ABU12@@Z ; std::forward<CPythonPlayerEventHandler::SVictim const &>
PUBLIC	??0?$allocator@USVictim@CPythonPlayerEventHandler@@@std@@QAE@XZ ; std::allocator<CPythonPlayerEventHandler::SVictim>::allocator<CPythonPlayerEventHandler::SVictim>
PUBLIC	??0?$_Vector_val@U?$_Simple_types@USVictim@CPythonPlayerEventHandler@@@std@@@std@@QAE@XZ ; std::_Vector_val<std::_Simple_types<CPythonPlayerEventHandler::SVictim> >::_Vector_val<std::_Simple_types<CPythonPlayerEventHandler::SVictim> >
PUBLIC	??$?0$$V@?$_Compressed_pair@V?$allocator@USVictim@CPythonPlayerEventHandler@@@std@@V?$_Vector_val@U?$_Simple_types@USVictim@CPythonPlayerEventHandler@@@std@@@2@$00@std@@QAE@U_Zero_then_variadic_args_t@1@@Z ; std::_Compressed_pair<std::allocator<CPythonPlayerEventHandler::SVictim>,std::_Vector_val<std::_Simple_types<CPythonPlayerEventHandler::SVictim> >,1>::_Compressed_pair<std::allocator<CPythonPlayerEventHandler::SVictim>,std::_Vector_val<std::_Simple_types<CPythonPlayerEventHandler::SVictim> >,1><>
PUBLIC	??$_Emplace_one_at_back@ABUSVictim@CPythonPlayerEventHandler@@@?$vector@USVictim@CPythonPlayerEventHandler@@V?$allocator@USVictim@CPythonPlayerEventHandler@@@std@@@std@@AAEAAUSVictim@CPythonPlayerEventHandler@@ABU23@@Z ; std::vector<CPythonPlayerEventHandler::SVictim,std::allocator<CPythonPlayerEventHandler::SVictim> >::_Emplace_one_at_back<CPythonPlayerEventHandler::SVictim const &>
PUBLIC	??$_Destroy_range@V?$allocator@USVictim@CPythonPlayerEventHandler@@@std@@@std@@YAXPAUSVictim@CPythonPlayerEventHandler@@QAU12@AAV?$allocator@USVictim@CPythonPlayerEventHandler@@@0@@Z ; std::_Destroy_range<std::allocator<CPythonPlayerEventHandler::SVictim> >
PUBLIC	?deallocate@?$allocator@USVictim@CPythonPlayerEventHandler@@@std@@QAEXQAUSVictim@CPythonPlayerEventHandler@@I@Z ; std::allocator<CPythonPlayerEventHandler::SVictim>::deallocate
PUBLIC	?_Get_first@?$_Compressed_pair@V?$allocator@USVictim@CPythonPlayerEventHandler@@@std@@V?$_Vector_val@U?$_Simple_types@USVictim@CPythonPlayerEventHandler@@@std@@@2@$00@std@@QAEAAV?$allocator@USVictim@CPythonPlayerEventHandler@@@2@XZ ; std::_Compressed_pair<std::allocator<CPythonPlayerEventHandler::SVictim>,std::_Vector_val<std::_Simple_types<CPythonPlayerEventHandler::SVictim> >,1>::_Get_first
PUBLIC	?_Tidy@?$vector@USVictim@CPythonPlayerEventHandler@@V?$allocator@USVictim@CPythonPlayerEventHandler@@@std@@@std@@AAEXXZ ; std::vector<CPythonPlayerEventHandler::SVictim,std::allocator<CPythonPlayerEventHandler::SVictim> >::_Tidy
PUBLIC	?_Getal@?$vector@USVictim@CPythonPlayerEventHandler@@V?$allocator@USVictim@CPythonPlayerEventHandler@@@std@@@std@@AAEAAV?$allocator@USVictim@CPythonPlayerEventHandler@@@2@XZ ; std::vector<CPythonPlayerEventHandler::SVictim,std::allocator<CPythonPlayerEventHandler::SVictim> >::_Getal
PUBLIC	??0?$vector@USVictim@CPythonPlayerEventHandler@@V?$allocator@USVictim@CPythonPlayerEventHandler@@@std@@@std@@QAE@XZ ; std::vector<CPythonPlayerEventHandler::SVictim,std::allocator<CPythonPlayerEventHandler::SVictim> >::vector<CPythonPlayerEventHandler::SVictim,std::allocator<CPythonPlayerEventHandler::SVictim> >
PUBLIC	??1?$vector@USVictim@CPythonPlayerEventHandler@@V?$allocator@USVictim@CPythonPlayerEventHandler@@@std@@@std@@QAE@XZ ; std::vector<CPythonPlayerEventHandler::SVictim,std::allocator<CPythonPlayerEventHandler::SVictim> >::~vector<CPythonPlayerEventHandler::SVictim,std::allocator<CPythonPlayerEventHandler::SVictim> >
PUBLIC	?push_back@?$vector@USVictim@CPythonPlayerEventHandler@@V?$allocator@USVictim@CPythonPlayerEventHandler@@@std@@@std@@QAEXABUSVictim@CPythonPlayerEventHandler@@@Z ; std::vector<CPythonPlayerEventHandler::SVictim,std::allocator<CPythonPlayerEventHandler::SVictim> >::push_back
PUBLIC	?clear@?$vector@USVictim@CPythonPlayerEventHandler@@V?$allocator@USVictim@CPythonPlayerEventHandler@@@std@@@std@@QAEXXZ ; std::vector<CPythonPlayerEventHandler::SVictim,std::allocator<CPythonPlayerEventHandler::SVictim> >::clear
PUBLIC	?empty@?$vector@USVictim@CPythonPlayerEventHandler@@V?$allocator@USVictim@CPythonPlayerEventHandler@@@std@@@std@@QBE_NXZ ; std::vector<CPythonPlayerEventHandler::SVictim,std::allocator<CPythonPlayerEventHandler::SVictim> >::empty
PUBLIC	?size@?$vector@USVictim@CPythonPlayerEventHandler@@V?$allocator@USVictim@CPythonPlayerEventHandler@@@std@@@std@@QBEIXZ ; std::vector<CPythonPlayerEventHandler::SVictim,std::allocator<CPythonPlayerEventHandler::SVictim> >::size
PUBLIC	??A?$vector@USVictim@CPythonPlayerEventHandler@@V?$allocator@USVictim@CPythonPlayerEventHandler@@@std@@@std@@QAEAAUSVictim@CPythonPlayerEventHandler@@I@Z ; std::vector<CPythonPlayerEventHandler::SVictim,std::allocator<CPythonPlayerEventHandler::SVictim> >::operator[]
PUBLIC	?OnExplodingAtTarget@CNormalBowAttack_FlyEventHandler_AutoClear@CPythonPlayerEventHandler@@UAEXK@Z ; CPythonPlayerEventHandler::CNormalBowAttack_FlyEventHandler_AutoClear::OnExplodingAtTarget
PUBLIC	?OnExplodingAtAnotherTarget@CNormalBowAttack_FlyEventHandler_AutoClear@CPythonPlayerEventHandler@@UAEXKK@Z ; CPythonPlayerEventHandler::CNormalBowAttack_FlyEventHandler_AutoClear::OnExplodingAtAnotherTarget
PUBLIC	?Set@CNormalBowAttack_FlyEventHandler_AutoClear@CPythonPlayerEventHandler@@QAEXPAV2@PAVCInstanceBase@@1@Z ; CPythonPlayerEventHandler::CNormalBowAttack_FlyEventHandler_AutoClear::Set
PUBLIC	?OnShoot@CNormalBowAttack_FlyEventHandler_AutoClear@CPythonPlayerEventHandler@@UAEXK@Z ; CPythonPlayerEventHandler::CNormalBowAttack_FlyEventHandler_AutoClear::OnShoot
PUBLIC	??0SState@IEventHandler@CActorInstance@@QAE@XZ	; CActorInstance::IEventHandler::SState::SState
PUBLIC	?OnSetFlyTarget@CNormalBowAttack_FlyEventHandler_AutoClear@CPythonPlayerEventHandler@@UAEXXZ ; CPythonPlayerEventHandler::CNormalBowAttack_FlyEventHandler_AutoClear::OnSetFlyTarget
PUBLIC	??0CPythonPlayerEventHandler@@IAE@XZ		; CPythonPlayerEventHandler::CPythonPlayerEventHandler
PUBLIC	?OnHit@CPythonPlayerEventHandler@@UAEXIAAVCActorInstance@@H@Z ; CPythonPlayerEventHandler::OnHit
PUBLIC	?OnChangeShape@CPythonPlayerEventHandler@@UAEXXZ ; CPythonPlayerEventHandler::OnChangeShape
PUBLIC	?OnUpdate@CPythonPlayerEventHandler@@UAEXXZ	; CPythonPlayerEventHandler::OnUpdate
PUBLIC	?OnUseSkill@CPythonPlayerEventHandler@@UAEXABUSState@IEventHandler@CActorInstance@@II@Z ; CPythonPlayerEventHandler::OnUseSkill
PUBLIC	?OnAttack@CPythonPlayerEventHandler@@UAEXABUSState@IEventHandler@CActorInstance@@G@Z ; CPythonPlayerEventHandler::OnAttack
PUBLIC	?OnWarp@CPythonPlayerEventHandler@@UAEXABUSState@IEventHandler@CActorInstance@@@Z ; CPythonPlayerEventHandler::OnWarp
PUBLIC	?OnStop@CPythonPlayerEventHandler@@UAEXABUSState@IEventHandler@CActorInstance@@@Z ; CPythonPlayerEventHandler::OnStop
PUBLIC	?OnMove@CPythonPlayerEventHandler@@UAEXABUSState@IEventHandler@CActorInstance@@@Z ; CPythonPlayerEventHandler::OnMove
PUBLIC	?OnMoving@CPythonPlayerEventHandler@@UAEXABUSState@IEventHandler@CActorInstance@@@Z ; CPythonPlayerEventHandler::OnMoving
PUBLIC	?OnWaiting@CPythonPlayerEventHandler@@UAEXABUSState@IEventHandler@CActorInstance@@@Z ; CPythonPlayerEventHandler::OnWaiting
PUBLIC	?OnSyncing@CPythonPlayerEventHandler@@UAEXABUSState@IEventHandler@CActorInstance@@@Z ; CPythonPlayerEventHandler::OnSyncing
PUBLIC	?OnResetAffect@CPythonPlayerEventHandler@@UAEXI@Z ; CPythonPlayerEventHandler::OnResetAffect
PUBLIC	?OnSetAffect@CPythonPlayerEventHandler@@UAEXI@Z	; CPythonPlayerEventHandler::OnSetAffect
PUBLIC	?OnClearAffects@CPythonPlayerEventHandler@@UAEXXZ ; CPythonPlayerEventHandler::OnClearAffects
PUBLIC	??_GCPythonPlayerEventHandler@@UAEPAXI@Z	; CPythonPlayerEventHandler::`scalar deleting destructor'
PUBLIC	??1CPythonPlayerEventHandler@@UAE@XZ		; CPythonPlayerEventHandler::~CPythonPlayerEventHandler
PUBLIC	??_GCNormalBowAttack_FlyEventHandler_AutoClear@CPythonPlayerEventHandler@@UAEPAXI@Z ; CPythonPlayerEventHandler::CNormalBowAttack_FlyEventHandler_AutoClear::`scalar deleting destructor'
PUBLIC	?OnExplodingAtBackground@CNormalBowAttack_FlyEventHandler_AutoClear@CPythonPlayerEventHandler@@UAEXXZ ; CPythonPlayerEventHandler::CNormalBowAttack_FlyEventHandler_AutoClear::OnExplodingAtBackground
PUBLIC	?OnExplodingOutOfRange@CNormalBowAttack_FlyEventHandler_AutoClear@CPythonPlayerEventHandler@@UAEXXZ ; CPythonPlayerEventHandler::CNormalBowAttack_FlyEventHandler_AutoClear::OnExplodingOutOfRange
PUBLIC	?OnNoTarget@CNormalBowAttack_FlyEventHandler_AutoClear@CPythonPlayerEventHandler@@UAEXXZ ; CPythonPlayerEventHandler::CNormalBowAttack_FlyEventHandler_AutoClear::OnNoTarget
PUBLIC	??1CNormalBowAttack_FlyEventHandler_AutoClear@CPythonPlayerEventHandler@@UAE@XZ ; CPythonPlayerEventHandler::CNormalBowAttack_FlyEventHandler_AutoClear::~CNormalBowAttack_FlyEventHandler_AutoClear
PUBLIC	??0CNormalBowAttack_FlyEventHandler_AutoClear@CPythonPlayerEventHandler@@QAE@XZ ; CPythonPlayerEventHandler::CNormalBowAttack_FlyEventHandler_AutoClear::CNormalBowAttack_FlyEventHandler_AutoClear
PUBLIC	??_GIFlyEventHandler@@UAEPAXI@Z			; IFlyEventHandler::`scalar deleting destructor'
PUBLIC	?OnExplodingAtTarget@IFlyEventHandler@@UAEXK@Z	; IFlyEventHandler::OnExplodingAtTarget
PUBLIC	?OnExplodingAtAnotherTarget@IFlyEventHandler@@UAEXKK@Z ; IFlyEventHandler::OnExplodingAtAnotherTarget
PUBLIC	?OnExplodingAtBackground@IFlyEventHandler@@UAEXXZ ; IFlyEventHandler::OnExplodingAtBackground
PUBLIC	?OnExplodingOutOfRange@IFlyEventHandler@@UAEXXZ	; IFlyEventHandler::OnExplodingOutOfRange
PUBLIC	?OnNoArrow@IFlyEventHandler@@UAEXXZ		; IFlyEventHandler::OnNoArrow
PUBLIC	?OnNoTarget@IFlyEventHandler@@UAEXXZ		; IFlyEventHandler::OnNoTarget
PUBLIC	?OnShoot@IFlyEventHandler@@UAEXK@Z		; IFlyEventHandler::OnShoot
PUBLIC	?OnSetFlyTarget@IFlyEventHandler@@UAEXXZ	; IFlyEventHandler::OnSetFlyTarget
PUBLIC	??1IFlyEventHandler@@UAE@XZ			; IFlyEventHandler::~IFlyEventHandler
PUBLIC	??0IFlyEventHandler@@QAE@XZ			; IFlyEventHandler::IFlyEventHandler
PUBLIC	??_GIEventHandler@CActorInstance@@UAEPAXI@Z	; CActorInstance::IEventHandler::`scalar deleting destructor'
PUBLIC	??1IEventHandler@CActorInstance@@UAE@XZ		; CActorInstance::IEventHandler::~IEventHandler
PUBLIC	??0IEventHandler@CActorInstance@@QAE@XZ		; CActorInstance::IEventHandler::IEventHandler
PUBLIC	?GetSingleton@CPythonPlayerEventHandler@@SAAAV1@XZ ; CPythonPlayerEventHandler::GetSingleton
PUBLIC	?FlushVictimList@CPythonPlayerEventHandler@@QAEXXZ ; CPythonPlayerEventHandler::FlushVictimList
EXTRN	??_EIFlyEventHandler@@UAEPAXI@Z:PROC		; IFlyEventHandler::`vector deleting destructor'
EXTRN	??_EIEventHandler@CActorInstance@@UAEPAXI@Z:PROC ; CActorInstance::IEventHandler::`vector deleting destructor'
EXTRN	??_ECPythonPlayerEventHandler@@UAEPAXI@Z:PROC	; CPythonPlayerEventHandler::`vector deleting destructor'
EXTRN	??_ECNormalBowAttack_FlyEventHandler_AutoClear@CPythonPlayerEventHandler@@UAEPAXI@Z:PROC ; CPythonPlayerEventHandler::CNormalBowAttack_FlyEventHandler_AutoClear::`vector deleting destructor'
;	COMDAT ?$TSS0@?1??GetSingleton@CPythonPlayerEventHandler@@SAAAV2@XZ@4HA
_BSS	SEGMENT
?$TSS0@?1??GetSingleton@CPythonPlayerEventHandler@@SAAAV2@XZ@4HA DD 01H DUP (?) ; `CPythonPlayerEventHandler::GetSingleton'::`2'::$TSS0
_BSS	ENDS
;	COMDAT ?s_kPlayerEventHandler@?1??GetSingleton@CPythonPlayerEventHandler@@SAAAV2@XZ@4V2@A
_BSS	SEGMENT
?s_kPlayerEventHandler@?1??GetSingleton@CPythonPlayerEventHandler@@SAAAV2@XZ@4V2@A DB 038H DUP (?) ; `CPythonPlayerEventHandler::GetSingleton'::`2'::s_kPlayerEventHandler
_BSS	ENDS
; Function compile flags: /Ogtp
; File E:\Metin2_server\SolWayneSF v6\ClientVS22\source\UserInterface\PythonPlayerEventHandler.cpp
; File C:\Program Files\Microsoft Visual Studio\2022\Community\VC\Tools\MSVC\14.34.31933\include\vector
; File E:\Metin2_server\SolWayneSF v6\ClientVS22\source\UserInterface\PythonPlayerEventHandler.cpp
; File C:\Program Files\Microsoft Visual Studio\2022\Community\VC\Tools\MSVC\14.34.31933\include\vector
; File E:\Metin2_server\SolWayneSF v6\ClientVS22\source\UserInterface\PythonPlayerEventHandler.cpp
; File C:\Program Files\Microsoft Visual Studio\2022\Community\VC\Tools\MSVC\14.34.31933\include\vector
; File E:\Metin2_server\SolWayneSF v6\ClientVS22\source\UserInterface\PythonPlayerEventHandler.cpp
; File C:\Program Files\Microsoft Visual Studio\2022\Community\VC\Tools\MSVC\14.34.31933\include\vector
; File E:\Metin2_server\SolWayneSF v6\ClientVS22\source\UserInterface\PythonPlayerEventHandler.cpp
; File C:\Program Files\Microsoft Visual Studio\2022\Community\VC\Tools\MSVC\14.34.31933\include\vector
; File E:\Metin2_server\SolWayneSF v6\ClientVS22\source\UserInterface\PythonPlayerEventHandler.cpp
;	COMDAT ?FlushVictimList@CPythonPlayerEventHandler@@QAEXXZ
_TEXT	SEGMENT
_rkStream$1$ = -8					; size = 4
_kPacketSyncPos$ = -4					; size = 3
?FlushVictimList@CPythonPlayerEventHandler@@QAEXXZ PROC	; CPythonPlayerEventHandler::FlushVictimList, COMDAT
; _this$ = ecx

; 195  : {

  00000	55		 push	 ebp
  00001	8b ec		 mov	 ebp, esp
  00003	83 ec 08	 sub	 esp, 8
  00006	57		 push	 edi
  00007	8b f9		 mov	 edi, ecx
; File C:\Program Files\Microsoft Visual Studio\2022\Community\VC\Tools\MSVC\14.34.31933\include\vector

; 1927 :         return _My_data._Myfirst == _My_data._Mylast;

  00009	8b 4f 04	 mov	 ecx, DWORD PTR [edi+4]
  0000c	8b 47 08	 mov	 eax, DWORD PTR [edi+8]
  0000f	3b c8		 cmp	 ecx, eax
; File E:\Metin2_server\SolWayneSF v6\ClientVS22\source\UserInterface\PythonPlayerEventHandler.cpp

; 196  : 	if (m_kVctkVictim.empty())

  00011	74 70		 je	 SHORT $LN9@FlushVicti
; File C:\Program Files\Microsoft Visual Studio\2022\Community\VC\Tools\MSVC\14.34.31933\include\vector

; 1932 :         return static_cast<size_type>(_My_data._Mylast - _My_data._Myfirst);

  00013	2b c1		 sub	 eax, ecx
; File E:\Metin2_server\SolWayneSF v6\ClientVS22\source\UserInterface\PythonPlayerEventHandler.cpp

; 206  : 	kPacketSyncPos.bHeader=HEADER_CG_SYNC_POSITION;

  00015	c6 45 fc 08	 mov	 BYTE PTR _kPacketSyncPos$[ebp], 8
  00019	8b 0d 00 00 00
	00		 mov	 ecx, DWORD PTR ?ms_singleton@?$CSingleton@VCPythonNetworkStream@@@@0PAVCPythonNetworkStream@@A ; CSingleton<CPythonNetworkStream>::ms_singleton
; File C:\Program Files\Microsoft Visual Studio\2022\Community\VC\Tools\MSVC\14.34.31933\include\vector

; 1932 :         return static_cast<size_type>(_My_data._Mylast - _My_data._Myfirst);

  0001f	c1 f8 02	 sar	 eax, 2
  00022	53		 push	 ebx
  00023	69 d8 ab aa aa
	aa		 imul	 ebx, eax, -1431655765
; File E:\Metin2_server\SolWayneSF v6\ClientVS22\source\UserInterface\PythonPlayerEventHandler.cpp

; 203  : 	CPythonNetworkStream& rkStream=CPythonNetworkStream::Instance();

  00029	89 4d f8	 mov	 DWORD PTR _rkStream$1$[ebp], ecx

; 207  : 	kPacketSyncPos.wSize=sizeof(kPacketSyncPos)+sizeof(TPacketCGSyncPositionElement) * uiVictimCount;

  0002c	8d 04 5b	 lea	 eax, DWORD PTR [ebx+ebx*2]
  0002f	8d 04 85 03 00
	00 00		 lea	 eax, DWORD PTR [eax*4+3]
  00036	66 89 45 fd	 mov	 WORD PTR _kPacketSyncPos$[ebp+1], ax

; 208  : 
; 209  : 	rkStream.Send(sizeof(kPacketSyncPos), &kPacketSyncPos);

  0003a	8d 45 fc	 lea	 eax, DWORD PTR _kPacketSyncPos$[ebp]
  0003d	50		 push	 eax
  0003e	6a 03		 push	 3
  00040	e8 00 00 00 00	 call	 ?Send@CNetworkStream@@QAE_NHPBX@Z ; CNetworkStream::Send

; 210  : 
; 211  : 	for (unsigned int i = 0; i < uiVictimCount; ++i)

  00045	85 db		 test	 ebx, ebx
  00047	74 26		 je	 SHORT $LN3@FlushVicti
; File C:\Program Files\Microsoft Visual Studio\2022\Community\VC\Tools\MSVC\14.34.31933\include\vector

; 1932 :         return static_cast<size_type>(_My_data._Mylast - _My_data._Myfirst);

  00049	56		 push	 esi
  0004a	33 f6		 xor	 esi, esi
  0004c	0f 1f 40 00	 npad	 4
$LL4@FlushVicti:

; 1952 :         return _My_data._Myfirst[_Pos];

  00050	8b 47 04	 mov	 eax, DWORD PTR [edi+4]
; File E:\Metin2_server\SolWayneSF v6\ClientVS22\source\UserInterface\PythonPlayerEventHandler.cpp

; 214  : 		rkStream.SendSyncPositionElementPacket(rkVictim.m_dwVID, rkVictim.m_lPixelX, rkVictim.m_lPixelY);		

  00053	8b 4d f8	 mov	 ecx, DWORD PTR _rkStream$1$[ebp]
  00056	ff 74 30 08	 push	 DWORD PTR [eax+esi+8]
  0005a	ff 74 30 04	 push	 DWORD PTR [eax+esi+4]
  0005e	ff 34 30	 push	 DWORD PTR [eax+esi]
  00061	e8 00 00 00 00	 call	 ?SendSyncPositionElementPacket@CPythonNetworkStream@@QAE_NKKK@Z ; CPythonNetworkStream::SendSyncPositionElementPacket
  00066	8d 76 0c	 lea	 esi, DWORD PTR [esi+12]
  00069	83 eb 01	 sub	 ebx, 1
  0006c	75 e2		 jne	 SHORT $LL4@FlushVicti
  0006e	5e		 pop	 esi
$LN3@FlushVicti:

; 215  : 	}
; 216  : 
; 217  : 	rkStream.SendSequence();

  0006f	8b 4d f8	 mov	 ecx, DWORD PTR _rkStream$1$[ebp]
  00072	e8 00 00 00 00	 call	 ?SendSequence@CNetworkStream@@QAE_NXZ ; CNetworkStream::SendSequence
; File C:\Program Files\Microsoft Visual Studio\2022\Community\VC\Tools\MSVC\14.34.31933\include\vector

; 1829 :         if (_Myfirst == _Mylast) { // already empty, nothing to do

  00077	8b 47 04	 mov	 eax, DWORD PTR [edi+4]
  0007a	5b		 pop	 ebx
  0007b	3b 47 08	 cmp	 eax, DWORD PTR [edi+8]
  0007e	74 03		 je	 SHORT $LN9@FlushVicti

; 1830 :             // This is an optimization for debug mode: we can avoid taking the debug lock to invalidate iterators.
; 1831 :             // Note that when clearing an empty vector, this will preserve past-the-end iterators, which is allowed by
; 1832 :             // N4901 [tab:container.seq.req] "a.clear() [...] may invalidate the past-the-end iterator".
; 1833 :             return;
; 1834 :         }
; 1835 : 
; 1836 :         _My_data._Orphan_all();
; 1837 :         _Destroy_range(_Myfirst, _Mylast, _Getal());
; 1838 :         _ASAN_VECTOR_MODIFY(static_cast<difference_type>(_Myfirst - _Mylast)); // negative when destroying elements
; 1839 :         _Mylast = _Myfirst;

  00080	89 47 08	 mov	 DWORD PTR [edi+8], eax
$LN9@FlushVicti:
  00083	5f		 pop	 edi
; File E:\Metin2_server\SolWayneSF v6\ClientVS22\source\UserInterface\PythonPlayerEventHandler.cpp

; 219  : }

  00084	8b e5		 mov	 esp, ebp
  00086	5d		 pop	 ebp
  00087	c3		 ret	 0
?FlushVictimList@CPythonPlayerEventHandler@@QAEXXZ ENDP	; CPythonPlayerEventHandler::FlushVictimList
_TEXT	ENDS
; Function compile flags: /Ogtp
; File E:\Metin2_server\SolWayneSF v6\ClientVS22\source\UserInterface\PythonPlayerEventHandler.cpp
;	COMDAT ?GetSingleton@CPythonPlayerEventHandler@@SAAAV1@XZ
_TEXT	SEGMENT
?GetSingleton@CPythonPlayerEventHandler@@SAAAV1@XZ PROC	; CPythonPlayerEventHandler::GetSingleton, COMDAT

; 9    : 	static CPythonPlayerEventHandler s_kPlayerEventHandler;

  00000	64 a1 00 00 00
	00		 mov	 eax, DWORD PTR fs:__tls_array
  00006	8b 08		 mov	 ecx, DWORD PTR [eax]
  00008	a1 00 00 00 00	 mov	 eax, DWORD PTR ?$TSS0@?1??GetSingleton@CPythonPlayerEventHandler@@SAAAV2@XZ@4HA
  0000d	3b 81 00 00 00
	00		 cmp	 eax, DWORD PTR __Init_thread_epoch[ecx]
  00013	7f 06		 jg	 SHORT $LN7@GetSinglet
$LN4@GetSinglet:

; 10   : 	return s_kPlayerEventHandler;
; 11   : }

  00015	b8 00 00 00 00	 mov	 eax, OFFSET ?s_kPlayerEventHandler@?1??GetSingleton@CPythonPlayerEventHandler@@SAAAV2@XZ@4V2@A
  0001a	c3		 ret	 0
$LN7@GetSinglet:

; 9    : 	static CPythonPlayerEventHandler s_kPlayerEventHandler;

  0001b	68 00 00 00 00	 push	 OFFSET ?$TSS0@?1??GetSingleton@CPythonPlayerEventHandler@@SAAAV2@XZ@4HA
  00020	e8 00 00 00 00	 call	 __Init_thread_header
  00025	83 c4 04	 add	 esp, 4
  00028	83 3d 00 00 00
	00 ff		 cmp	 DWORD PTR ?$TSS0@?1??GetSingleton@CPythonPlayerEventHandler@@SAAAV2@XZ@4HA, -1
  0002f	75 e4		 jne	 SHORT $LN4@GetSinglet
  00031	e8 00 00 00 00	 call	 ??0CPythonPlayerEventHandler@@IAE@XZ ; CPythonPlayerEventHandler::CPythonPlayerEventHandler
  00036	68 00 00 00 00	 push	 OFFSET ??__Fs_kPlayerEventHandler@?1??GetSingleton@CPythonPlayerEventHandler@@SAAAV1@XZ@YAXXZ ; `CPythonPlayerEventHandler::GetSingleton'::`2'::`dynamic atexit destructor for 's_kPlayerEventHandler''
  0003b	e8 00 00 00 00	 call	 _atexit
  00040	68 00 00 00 00	 push	 OFFSET ?$TSS0@?1??GetSingleton@CPythonPlayerEventHandler@@SAAAV2@XZ@4HA
  00045	e8 00 00 00 00	 call	 __Init_thread_footer
  0004a	83 c4 08	 add	 esp, 8
  0004d	eb c6		 jmp	 SHORT $LN4@GetSinglet
?GetSingleton@CPythonPlayerEventHandler@@SAAAV1@XZ ENDP	; CPythonPlayerEventHandler::GetSingleton
_TEXT	ENDS
; Function compile flags: /Ogtp
; File E:\Metin2_server\SolWayneSF v6\ClientVS22\source\gamelib\ActorInstance.h
;	COMDAT ??0IEventHandler@CActorInstance@@QAE@XZ
_TEXT	SEGMENT
??0IEventHandler@CActorInstance@@QAE@XZ PROC		; CActorInstance::IEventHandler::IEventHandler, COMDAT
; _this$dead$ = ecx

; 47   : 				IEventHandler() {}

  00000	c7 05 00 00 00
	00 00 00 00 00	 mov	 DWORD PTR ?s_kPlayerEventHandler@?1??GetSingleton@CPythonPlayerEventHandler@@SAAAV2@XZ@4V2@A, OFFSET ??_7IEventHandler@CActorInstance@@6B@
  0000a	b8 00 00 00 00	 mov	 eax, OFFSET ?s_kPlayerEventHandler@?1??GetSingleton@CPythonPlayerEventHandler@@SAAAV2@XZ@4V2@A
  0000f	c3		 ret	 0
??0IEventHandler@CActorInstance@@QAE@XZ ENDP		; CActorInstance::IEventHandler::IEventHandler
_TEXT	ENDS
; Function compile flags: /Ogtp
; File E:\Metin2_server\SolWayneSF v6\ClientVS22\source\gamelib\ActorInstance.h
;	COMDAT ??1IEventHandler@CActorInstance@@UAE@XZ
_TEXT	SEGMENT
??1IEventHandler@CActorInstance@@UAE@XZ PROC		; CActorInstance::IEventHandler::~IEventHandler, COMDAT
; _this$ = ecx

; 48   : 				virtual ~IEventHandler() {}

  00000	c7 01 00 00 00
	00		 mov	 DWORD PTR [ecx], OFFSET ??_7IEventHandler@CActorInstance@@6B@
  00006	c3		 ret	 0
??1IEventHandler@CActorInstance@@UAE@XZ ENDP		; CActorInstance::IEventHandler::~IEventHandler
_TEXT	ENDS
; Function compile flags: /Ogtp
;	COMDAT ??_GIEventHandler@CActorInstance@@UAEPAXI@Z
_TEXT	SEGMENT
___flags$ = 8						; size = 4
??_GIEventHandler@CActorInstance@@UAEPAXI@Z PROC	; CActorInstance::IEventHandler::`scalar deleting destructor', COMDAT
; _this$ = ecx
  00000	55		 push	 ebp
  00001	8b ec		 mov	 ebp, esp
  00003	f6 45 08 01	 test	 BYTE PTR ___flags$[ebp], 1
  00007	56		 push	 esi
  00008	8b f1		 mov	 esi, ecx
  0000a	c7 06 00 00 00
	00		 mov	 DWORD PTR [esi], OFFSET ??_7IEventHandler@CActorInstance@@6B@
  00010	74 0b		 je	 SHORT $LN4@scalar
  00012	6a 04		 push	 4
  00014	56		 push	 esi
  00015	e8 00 00 00 00	 call	 ??3@YAXPAXI@Z		; operator delete
  0001a	83 c4 08	 add	 esp, 8
$LN4@scalar:
  0001d	8b c6		 mov	 eax, esi
  0001f	5e		 pop	 esi
  00020	5d		 pop	 ebp
  00021	c2 04 00	 ret	 4
??_GIEventHandler@CActorInstance@@UAEPAXI@Z ENDP	; CActorInstance::IEventHandler::`scalar deleting destructor'
_TEXT	ENDS
; Function compile flags: /Ogtp
; File E:\Metin2_server\SolWayneSF v6\ClientVS22\source\gamelib\FlyHandler.h
;	COMDAT ??0IFlyEventHandler@@QAE@XZ
_TEXT	SEGMENT
??0IFlyEventHandler@@QAE@XZ PROC			; IFlyEventHandler::IFlyEventHandler, COMDAT
; _this$ = ecx

; 6    : 	IFlyEventHandler() {}

  00000	c7 01 00 00 00
	00		 mov	 DWORD PTR [ecx], OFFSET ??_7IFlyEventHandler@@6B@
  00006	8b c1		 mov	 eax, ecx
  00008	c3		 ret	 0
??0IFlyEventHandler@@QAE@XZ ENDP			; IFlyEventHandler::IFlyEventHandler
_TEXT	ENDS
; Function compile flags: /Ogtp
; File E:\Metin2_server\SolWayneSF v6\ClientVS22\source\gamelib\FlyHandler.h
;	COMDAT ??1IFlyEventHandler@@UAE@XZ
_TEXT	SEGMENT
??1IFlyEventHandler@@UAE@XZ PROC			; IFlyEventHandler::~IFlyEventHandler, COMDAT
; _this$ = ecx

; 7    : 	virtual ~IFlyEventHandler() {}

  00000	c7 01 00 00 00
	00		 mov	 DWORD PTR [ecx], OFFSET ??_7IFlyEventHandler@@6B@
  00006	c3		 ret	 0
??1IFlyEventHandler@@UAE@XZ ENDP			; IFlyEventHandler::~IFlyEventHandler
_TEXT	ENDS
; Function compile flags: /Ogtp
; File E:\Metin2_server\SolWayneSF v6\ClientVS22\source\gamelib\FlyHandler.h
;	COMDAT ?OnSetFlyTarget@IFlyEventHandler@@UAEXXZ
_TEXT	SEGMENT
?OnSetFlyTarget@IFlyEventHandler@@UAEXXZ PROC		; IFlyEventHandler::OnSetFlyTarget, COMDAT
; _this$ = ecx

; 10   : 	virtual void OnSetFlyTarget() {}

  00000	c2 00 00	 ret	 0
?OnSetFlyTarget@IFlyEventHandler@@UAEXXZ ENDP		; IFlyEventHandler::OnSetFlyTarget
_TEXT	ENDS
; Function compile flags: /Ogtp
; File E:\Metin2_server\SolWayneSF v6\ClientVS22\source\gamelib\FlyHandler.h
;	COMDAT ?OnShoot@IFlyEventHandler@@UAEXK@Z
_TEXT	SEGMENT
_dwSkillIndex$ = 8					; size = 4
?OnShoot@IFlyEventHandler@@UAEXK@Z PROC			; IFlyEventHandler::OnShoot, COMDAT
; _this$ = ecx

; 11   : 	virtual void OnShoot(DWORD dwSkillIndex) {}

  00000	c2 04 00	 ret	 4
?OnShoot@IFlyEventHandler@@UAEXK@Z ENDP			; IFlyEventHandler::OnShoot
_TEXT	ENDS
; Function compile flags: /Ogtp
; File E:\Metin2_server\SolWayneSF v6\ClientVS22\source\gamelib\FlyHandler.h
;	COMDAT ?OnNoTarget@IFlyEventHandler@@UAEXXZ
_TEXT	SEGMENT
?OnNoTarget@IFlyEventHandler@@UAEXXZ PROC		; IFlyEventHandler::OnNoTarget, COMDAT
; _this$ = ecx

; 13   : 	virtual void OnNoTarget() {}

  00000	c2 00 00	 ret	 0
?OnNoTarget@IFlyEventHandler@@UAEXXZ ENDP		; IFlyEventHandler::OnNoTarget
_TEXT	ENDS
; Function compile flags: /Ogtp
; File E:\Metin2_server\SolWayneSF v6\ClientVS22\source\gamelib\FlyHandler.h
;	COMDAT ?OnNoArrow@IFlyEventHandler@@UAEXXZ
_TEXT	SEGMENT
?OnNoArrow@IFlyEventHandler@@UAEXXZ PROC		; IFlyEventHandler::OnNoArrow, COMDAT
; _this$ = ecx

; 14   : 	virtual void OnNoArrow() {}

  00000	c2 00 00	 ret	 0
?OnNoArrow@IFlyEventHandler@@UAEXXZ ENDP		; IFlyEventHandler::OnNoArrow
_TEXT	ENDS
; Function compile flags: /Ogtp
; File E:\Metin2_server\SolWayneSF v6\ClientVS22\source\gamelib\FlyHandler.h
;	COMDAT ?OnExplodingOutOfRange@IFlyEventHandler@@UAEXXZ
_TEXT	SEGMENT
?OnExplodingOutOfRange@IFlyEventHandler@@UAEXXZ PROC	; IFlyEventHandler::OnExplodingOutOfRange, COMDAT
; _this$ = ecx

; 17   : 	virtual void OnExplodingOutOfRange() {}

  00000	c2 00 00	 ret	 0
?OnExplodingOutOfRange@IFlyEventHandler@@UAEXXZ ENDP	; IFlyEventHandler::OnExplodingOutOfRange
_TEXT	ENDS
; Function compile flags: /Ogtp
; File E:\Metin2_server\SolWayneSF v6\ClientVS22\source\gamelib\FlyHandler.h
;	COMDAT ?OnExplodingAtBackground@IFlyEventHandler@@UAEXXZ
_TEXT	SEGMENT
?OnExplodingAtBackground@IFlyEventHandler@@UAEXXZ PROC	; IFlyEventHandler::OnExplodingAtBackground, COMDAT
; _this$ = ecx

; 18   : 	virtual void OnExplodingAtBackground() {}

  00000	c2 00 00	 ret	 0
?OnExplodingAtBackground@IFlyEventHandler@@UAEXXZ ENDP	; IFlyEventHandler::OnExplodingAtBackground
_TEXT	ENDS
; Function compile flags: /Ogtp
; File E:\Metin2_server\SolWayneSF v6\ClientVS22\source\gamelib\FlyHandler.h
;	COMDAT ?OnExplodingAtAnotherTarget@IFlyEventHandler@@UAEXKK@Z
_TEXT	SEGMENT
_dwSkillIndex$ = 8					; size = 4
_dwVID$ = 12						; size = 4
?OnExplodingAtAnotherTarget@IFlyEventHandler@@UAEXKK@Z PROC ; IFlyEventHandler::OnExplodingAtAnotherTarget, COMDAT
; _this$ = ecx

; 19   : 	virtual void OnExplodingAtAnotherTarget(DWORD dwSkillIndex, DWORD dwVID) {}

  00000	c2 08 00	 ret	 8
?OnExplodingAtAnotherTarget@IFlyEventHandler@@UAEXKK@Z ENDP ; IFlyEventHandler::OnExplodingAtAnotherTarget
_TEXT	ENDS
; Function compile flags: /Ogtp
; File E:\Metin2_server\SolWayneSF v6\ClientVS22\source\gamelib\FlyHandler.h
;	COMDAT ?OnExplodingAtTarget@IFlyEventHandler@@UAEXK@Z
_TEXT	SEGMENT
_dwSkillIndex$ = 8					; size = 4
?OnExplodingAtTarget@IFlyEventHandler@@UAEXK@Z PROC	; IFlyEventHandler::OnExplodingAtTarget, COMDAT
; _this$ = ecx

; 20   : 	virtual void OnExplodingAtTarget(DWORD dwSkillIndex) {}

  00000	c2 04 00	 ret	 4
?OnExplodingAtTarget@IFlyEventHandler@@UAEXK@Z ENDP	; IFlyEventHandler::OnExplodingAtTarget
_TEXT	ENDS
; Function compile flags: /Ogtp
;	COMDAT ??_GIFlyEventHandler@@UAEPAXI@Z
_TEXT	SEGMENT
___flags$ = 8						; size = 4
??_GIFlyEventHandler@@UAEPAXI@Z PROC			; IFlyEventHandler::`scalar deleting destructor', COMDAT
; _this$ = ecx
  00000	55		 push	 ebp
  00001	8b ec		 mov	 ebp, esp
  00003	f6 45 08 01	 test	 BYTE PTR ___flags$[ebp], 1
  00007	56		 push	 esi
  00008	8b f1		 mov	 esi, ecx
  0000a	c7 06 00 00 00
	00		 mov	 DWORD PTR [esi], OFFSET ??_7IFlyEventHandler@@6B@
  00010	74 0b		 je	 SHORT $LN4@scalar
  00012	6a 04		 push	 4
  00014	56		 push	 esi
  00015	e8 00 00 00 00	 call	 ??3@YAXPAXI@Z		; operator delete
  0001a	83 c4 08	 add	 esp, 8
$LN4@scalar:
  0001d	8b c6		 mov	 eax, esi
  0001f	5e		 pop	 esi
  00020	5d		 pop	 ebp
  00021	c2 04 00	 ret	 4
??_GIFlyEventHandler@@UAEPAXI@Z ENDP			; IFlyEventHandler::`scalar deleting destructor'
_TEXT	ENDS
; Function compile flags: /Ogtp
; File E:\Metin2_server\SolWayneSF v6\ClientVS22\source\UserInterface\PythonPlayerEventHandler.h
;	COMDAT ??0CNormalBowAttack_FlyEventHandler_AutoClear@CPythonPlayerEventHandler@@QAE@XZ
_TEXT	SEGMENT
??0CNormalBowAttack_FlyEventHandler_AutoClear@CPythonPlayerEventHandler@@QAE@XZ PROC ; CPythonPlayerEventHandler::CNormalBowAttack_FlyEventHandler_AutoClear::CNormalBowAttack_FlyEventHandler_AutoClear, COMDAT
; _this$ = ecx

; 57   : 				CNormalBowAttack_FlyEventHandler_AutoClear() {}

  00000	c7 01 00 00 00
	00		 mov	 DWORD PTR [ecx], OFFSET ??_7CNormalBowAttack_FlyEventHandler_AutoClear@CPythonPlayerEventHandler@@6B@
  00006	8b c1		 mov	 eax, ecx
  00008	c3		 ret	 0
??0CNormalBowAttack_FlyEventHandler_AutoClear@CPythonPlayerEventHandler@@QAE@XZ ENDP ; CPythonPlayerEventHandler::CNormalBowAttack_FlyEventHandler_AutoClear::CNormalBowAttack_FlyEventHandler_AutoClear
_TEXT	ENDS
; Function compile flags: /Ogtp
; File E:\Metin2_server\SolWayneSF v6\ClientVS22\source\UserInterface\PythonPlayerEventHandler.h
;	COMDAT ??1CNormalBowAttack_FlyEventHandler_AutoClear@CPythonPlayerEventHandler@@UAE@XZ
_TEXT	SEGMENT
??1CNormalBowAttack_FlyEventHandler_AutoClear@CPythonPlayerEventHandler@@UAE@XZ PROC ; CPythonPlayerEventHandler::CNormalBowAttack_FlyEventHandler_AutoClear::~CNormalBowAttack_FlyEventHandler_AutoClear, COMDAT
; _this$ = ecx

; 58   : 				virtual ~CNormalBowAttack_FlyEventHandler_AutoClear() {}

  00000	c7 01 00 00 00
	00		 mov	 DWORD PTR [ecx], OFFSET ??_7IFlyEventHandler@@6B@
  00006	c3		 ret	 0
??1CNormalBowAttack_FlyEventHandler_AutoClear@CPythonPlayerEventHandler@@UAE@XZ ENDP ; CPythonPlayerEventHandler::CNormalBowAttack_FlyEventHandler_AutoClear::~CNormalBowAttack_FlyEventHandler_AutoClear
_TEXT	ENDS
; Function compile flags: /Ogtp
; File E:\Metin2_server\SolWayneSF v6\ClientVS22\source\UserInterface\PythonPlayerEventHandler.h
;	COMDAT ?OnNoTarget@CNormalBowAttack_FlyEventHandler_AutoClear@CPythonPlayerEventHandler@@UAEXXZ
_TEXT	SEGMENT
?OnNoTarget@CNormalBowAttack_FlyEventHandler_AutoClear@CPythonPlayerEventHandler@@UAEXXZ PROC ; CPythonPlayerEventHandler::CNormalBowAttack_FlyEventHandler_AutoClear::OnNoTarget, COMDAT
; _this$ = ecx

; 66   : 				virtual void OnNoTarget() { /*Tracenf("Shoot : target .");*/ }

  00000	c2 00 00	 ret	 0
?OnNoTarget@CNormalBowAttack_FlyEventHandler_AutoClear@CPythonPlayerEventHandler@@UAEXXZ ENDP ; CPythonPlayerEventHandler::CNormalBowAttack_FlyEventHandler_AutoClear::OnNoTarget
_TEXT	ENDS
; Function compile flags: /Ogtp
; File E:\Metin2_server\SolWayneSF v6\ClientVS22\source\UserInterface\PythonPlayerEventHandler.h
;	COMDAT ?OnExplodingOutOfRange@CNormalBowAttack_FlyEventHandler_AutoClear@CPythonPlayerEventHandler@@UAEXXZ
_TEXT	SEGMENT
?OnExplodingOutOfRange@CNormalBowAttack_FlyEventHandler_AutoClear@CPythonPlayerEventHandler@@UAEXXZ PROC ; CPythonPlayerEventHandler::CNormalBowAttack_FlyEventHandler_AutoClear::OnExplodingOutOfRange, COMDAT
; _this$ = ecx

; 67   : 				virtual void OnExplodingOutOfRange() { /*Tracenf("Shoot :  .");*/ }

  00000	c2 00 00	 ret	 0
?OnExplodingOutOfRange@CNormalBowAttack_FlyEventHandler_AutoClear@CPythonPlayerEventHandler@@UAEXXZ ENDP ; CPythonPlayerEventHandler::CNormalBowAttack_FlyEventHandler_AutoClear::OnExplodingOutOfRange
_TEXT	ENDS
; Function compile flags: /Ogtp
; File E:\Metin2_server\SolWayneSF v6\ClientVS22\source\UserInterface\PythonPlayerEventHandler.h
;	COMDAT ?OnExplodingAtBackground@CNormalBowAttack_FlyEventHandler_AutoClear@CPythonPlayerEventHandler@@UAEXXZ
_TEXT	SEGMENT
?OnExplodingAtBackground@CNormalBowAttack_FlyEventHandler_AutoClear@CPythonPlayerEventHandler@@UAEXXZ PROC ; CPythonPlayerEventHandler::CNormalBowAttack_FlyEventHandler_AutoClear::OnExplodingAtBackground, COMDAT
; _this$ = ecx

; 68   : 				virtual void OnExplodingAtBackground() { /*Tracenf("Shoot :  .");*/ }

  00000	c2 00 00	 ret	 0
?OnExplodingAtBackground@CNormalBowAttack_FlyEventHandler_AutoClear@CPythonPlayerEventHandler@@UAEXXZ ENDP ; CPythonPlayerEventHandler::CNormalBowAttack_FlyEventHandler_AutoClear::OnExplodingAtBackground
_TEXT	ENDS
; Function compile flags: /Ogtp
;	COMDAT ??_GCNormalBowAttack_FlyEventHandler_AutoClear@CPythonPlayerEventHandler@@UAEPAXI@Z
_TEXT	SEGMENT
___flags$ = 8						; size = 4
??_GCNormalBowAttack_FlyEventHandler_AutoClear@CPythonPlayerEventHandler@@UAEPAXI@Z PROC ; CPythonPlayerEventHandler::CNormalBowAttack_FlyEventHandler_AutoClear::`scalar deleting destructor', COMDAT
; _this$ = ecx
  00000	55		 push	 ebp
  00001	8b ec		 mov	 ebp, esp
  00003	f6 45 08 01	 test	 BYTE PTR ___flags$[ebp], 1
  00007	56		 push	 esi
  00008	8b f1		 mov	 esi, ecx
  0000a	c7 06 00 00 00
	00		 mov	 DWORD PTR [esi], OFFSET ??_7IFlyEventHandler@@6B@
  00010	74 0b		 je	 SHORT $LN4@scalar
  00012	6a 10		 push	 16			; 00000010H
  00014	56		 push	 esi
  00015	e8 00 00 00 00	 call	 ??3@YAXPAXI@Z		; operator delete
  0001a	83 c4 08	 add	 esp, 8
$LN4@scalar:
  0001d	8b c6		 mov	 eax, esi
  0001f	5e		 pop	 esi
  00020	5d		 pop	 ebp
  00021	c2 04 00	 ret	 4
??_GCNormalBowAttack_FlyEventHandler_AutoClear@CPythonPlayerEventHandler@@UAEPAXI@Z ENDP ; CPythonPlayerEventHandler::CNormalBowAttack_FlyEventHandler_AutoClear::`scalar deleting destructor'
_TEXT	ENDS
; Function compile flags: /Ogtp
;	COMDAT ??__Fs_kPlayerEventHandler@?1??GetSingleton@CPythonPlayerEventHandler@@SAAAV1@XZ@YAXXZ
text$yd	SEGMENT
??__Fs_kPlayerEventHandler@?1??GetSingleton@CPythonPlayerEventHandler@@SAAAV1@XZ@YAXXZ PROC ; `CPythonPlayerEventHandler::GetSingleton'::`2'::`dynamic atexit destructor for 's_kPlayerEventHandler'', COMDAT
  00000	b9 00 00 00 00	 mov	 ecx, OFFSET ?s_kPlayerEventHandler@?1??GetSingleton@CPythonPlayerEventHandler@@SAAAV2@XZ@4V2@A
  00005	e9 00 00 00 00	 jmp	 ??1CPythonPlayerEventHandler@@UAE@XZ ; CPythonPlayerEventHandler::~CPythonPlayerEventHandler
??__Fs_kPlayerEventHandler@?1??GetSingleton@CPythonPlayerEventHandler@@SAAAV1@XZ@YAXXZ ENDP ; `CPythonPlayerEventHandler::GetSingleton'::`2'::`dynamic atexit destructor for 's_kPlayerEventHandler''
text$yd	ENDS
; Function compile flags: /Ogtp
; File E:\Metin2_server\SolWayneSF v6\ClientVS22\source\UserInterface\PythonPlayerEventHandler.cpp
;	COMDAT ??1CPythonPlayerEventHandler@@UAE@XZ
_TEXT	SEGMENT
??1CPythonPlayerEventHandler@@UAE@XZ PROC		; CPythonPlayerEventHandler::~CPythonPlayerEventHandler, COMDAT
; _this$ = ecx

; 14   : {

  00000	56		 push	 esi
  00001	8b f1		 mov	 esi, ecx

; 15   : }

  00003	8d 4e 04	 lea	 ecx, DWORD PTR [esi+4]
  00006	c7 06 00 00 00
	00		 mov	 DWORD PTR [esi], OFFSET ??_7CPythonPlayerEventHandler@@6B@
  0000c	c7 46 28 00 00
	00 00		 mov	 DWORD PTR [esi+40], OFFSET ??_7IFlyEventHandler@@6B@
  00013	e8 00 00 00 00	 call	 ??1?$vector@USVictim@CPythonPlayerEventHandler@@V?$allocator@USVictim@CPythonPlayerEventHandler@@@std@@@std@@QAE@XZ ; std::vector<CPythonPlayerEventHandler::SVictim,std::allocator<CPythonPlayerEventHandler::SVictim> >::~vector<CPythonPlayerEventHandler::SVictim,std::allocator<CPythonPlayerEventHandler::SVictim> >
  00018	c7 06 00 00 00
	00		 mov	 DWORD PTR [esi], OFFSET ??_7IEventHandler@CActorInstance@@6B@
  0001e	5e		 pop	 esi
  0001f	c3		 ret	 0
??1CPythonPlayerEventHandler@@UAE@XZ ENDP		; CPythonPlayerEventHandler::~CPythonPlayerEventHandler
_TEXT	ENDS
; Function compile flags: /Ogtp
;	COMDAT ??_GCPythonPlayerEventHandler@@UAEPAXI@Z
_TEXT	SEGMENT
___flags$ = 8						; size = 4
??_GCPythonPlayerEventHandler@@UAEPAXI@Z PROC		; CPythonPlayerEventHandler::`scalar deleting destructor', COMDAT
; _this$ = ecx
  00000	55		 push	 ebp
  00001	8b ec		 mov	 ebp, esp
  00003	56		 push	 esi
  00004	8b f1		 mov	 esi, ecx
  00006	e8 00 00 00 00	 call	 ??1CPythonPlayerEventHandler@@UAE@XZ ; CPythonPlayerEventHandler::~CPythonPlayerEventHandler
  0000b	f6 45 08 01	 test	 BYTE PTR ___flags$[ebp], 1
  0000f	74 0b		 je	 SHORT $LN4@scalar
  00011	6a 38		 push	 56			; 00000038H
  00013	56		 push	 esi
  00014	e8 00 00 00 00	 call	 ??3@YAXPAXI@Z		; operator delete
  00019	83 c4 08	 add	 esp, 8
$LN4@scalar:
  0001c	8b c6		 mov	 eax, esi
  0001e	5e		 pop	 esi
  0001f	5d		 pop	 ebp
  00020	c2 04 00	 ret	 4
??_GCPythonPlayerEventHandler@@UAEPAXI@Z ENDP		; CPythonPlayerEventHandler::`scalar deleting destructor'
_TEXT	ENDS
; Function compile flags: /Ogtp
; File E:\Metin2_server\SolWayneSF v6\ClientVS22\source\UserInterface\PythonPlayerEventHandler.cpp
;	COMDAT ?OnClearAffects@CPythonPlayerEventHandler@@UAEXXZ
_TEXT	SEGMENT
?OnClearAffects@CPythonPlayerEventHandler@@UAEXXZ PROC	; CPythonPlayerEventHandler::OnClearAffects, COMDAT
; _this$ = ecx

; 19   : 	CPythonPlayer::Instance().ClearAffects();

  00000	8b 0d 00 00 00
	00		 mov	 ecx, DWORD PTR ?ms_singleton@?$CSingleton@VCPythonPlayer@@@@0PAVCPythonPlayer@@A ; CSingleton<CPythonPlayer>::ms_singleton
  00006	e9 00 00 00 00	 jmp	 ?ClearAffects@CPythonPlayer@@QAEXXZ ; CPythonPlayer::ClearAffects
?OnClearAffects@CPythonPlayerEventHandler@@UAEXXZ ENDP	; CPythonPlayerEventHandler::OnClearAffects
_TEXT	ENDS
; Function compile flags: /Ogtp
; File E:\Metin2_server\SolWayneSF v6\ClientVS22\source\UserInterface\PythonPlayerEventHandler.cpp
;	COMDAT ?OnSetAffect@CPythonPlayerEventHandler@@UAEXI@Z
_TEXT	SEGMENT
_uAffect$ = 8						; size = 4
?OnSetAffect@CPythonPlayerEventHandler@@UAEXI@Z PROC	; CPythonPlayerEventHandler::OnSetAffect, COMDAT
; _this$ = ecx

; 23   : {

  00000	55		 push	 ebp
  00001	8b ec		 mov	 ebp, esp

; 24   : 	CPythonPlayer::Instance().SetAffect(uAffect);

  00003	8b 0d 00 00 00
	00		 mov	 ecx, DWORD PTR ?ms_singleton@?$CSingleton@VCPythonPlayer@@@@0PAVCPythonPlayer@@A ; CSingleton<CPythonPlayer>::ms_singleton

; 25   : }

  00009	5d		 pop	 ebp

; 24   : 	CPythonPlayer::Instance().SetAffect(uAffect);

  0000a	e9 00 00 00 00	 jmp	 ?SetAffect@CPythonPlayer@@QAEXI@Z ; CPythonPlayer::SetAffect
?OnSetAffect@CPythonPlayerEventHandler@@UAEXI@Z ENDP	; CPythonPlayerEventHandler::OnSetAffect
_TEXT	ENDS
; Function compile flags: /Ogtp
; File E:\Metin2_server\SolWayneSF v6\ClientVS22\source\UserInterface\PythonPlayerEventHandler.cpp
;	COMDAT ?OnResetAffect@CPythonPlayerEventHandler@@UAEXI@Z
_TEXT	SEGMENT
_uAffect$ = 8						; size = 4
?OnResetAffect@CPythonPlayerEventHandler@@UAEXI@Z PROC	; CPythonPlayerEventHandler::OnResetAffect, COMDAT
; _this$ = ecx

; 28   : {

  00000	55		 push	 ebp
  00001	8b ec		 mov	 ebp, esp

; 29   : 	CPythonPlayer::Instance().ResetAffect(uAffect);

  00003	8b 0d 00 00 00
	00		 mov	 ecx, DWORD PTR ?ms_singleton@?$CSingleton@VCPythonPlayer@@@@0PAVCPythonPlayer@@A ; CSingleton<CPythonPlayer>::ms_singleton

; 30   : }

  00009	5d		 pop	 ebp

; 29   : 	CPythonPlayer::Instance().ResetAffect(uAffect);

  0000a	e9 00 00 00 00	 jmp	 ?ResetAffect@CPythonPlayer@@QAEXI@Z ; CPythonPlayer::ResetAffect
?OnResetAffect@CPythonPlayerEventHandler@@UAEXI@Z ENDP	; CPythonPlayerEventHandler::OnResetAffect
_TEXT	ENDS
; Function compile flags: /Ogtp
; File E:\Metin2_server\SolWayneSF v6\ClientVS22\source\UserInterface\PythonPlayerEventHandler.cpp
;	COMDAT ?OnSyncing@CPythonPlayerEventHandler@@UAEXABUSState@IEventHandler@CActorInstance@@@Z
_TEXT	SEGMENT
_c_rkState$ = 8						; size = 4
?OnSyncing@CPythonPlayerEventHandler@@UAEXABUSState@IEventHandler@CActorInstance@@@Z PROC ; CPythonPlayerEventHandler::OnSyncing, COMDAT
; _this$ = ecx

; 33   : {

  00000	55		 push	 ebp
  00001	8b ec		 mov	 ebp, esp

; 34   : 	const TPixelPosition& c_rkPPosCurSyncing=c_rkState.kPPosSelf;
; 35   : 	m_kPPosPrevWaiting=c_rkPPosCurSyncing;

  00003	8b 45 08	 mov	 eax, DWORD PTR _c_rkState$[ebp]
  00006	f3 0f 7e 00	 movq	 xmm0, QWORD PTR [eax]
  0000a	66 0f d6 41 1c	 movq	 QWORD PTR [ecx+28], xmm0
  0000f	8b 40 08	 mov	 eax, DWORD PTR [eax+8]
  00012	89 41 24	 mov	 DWORD PTR [ecx+36], eax

; 36   : }

  00015	5d		 pop	 ebp
  00016	c2 04 00	 ret	 4
?OnSyncing@CPythonPlayerEventHandler@@UAEXABUSState@IEventHandler@CActorInstance@@@Z ENDP ; CPythonPlayerEventHandler::OnSyncing
_TEXT	ENDS
; Function compile flags: /Ogtp
; File E:\Metin2_server\SolWayneSF v6\ClientVS22\source\UserInterface\PythonPlayerEventHandler.cpp
; File C:\Program Files\Microsoft Visual Studio\2022\Community\VC\Tools\MSVC\14.34.31933\include\cmath
; File E:\Metin2_server\SolWayneSF v6\ClientVS22\source\UserInterface\PythonPlayerEventHandler.cpp
; File C:\Program Files\Microsoft Visual Studio\2022\Community\VC\Tools\MSVC\14.34.31933\include\cmath
; File E:\Metin2_server\SolWayneSF v6\ClientVS22\source\UserInterface\PythonPlayerEventHandler.cpp
; File C:\Program Files\Microsoft Visual Studio\2022\Community\VC\Tools\MSVC\14.34.31933\include\cmath
; File E:\Metin2_server\SolWayneSF v6\ClientVS22\source\UserInterface\PythonPlayerEventHandler.cpp
;	COMDAT ?OnWaiting@CPythonPlayerEventHandler@@UAEXABUSState@IEventHandler@CActorInstance@@@Z
_TEXT	SEGMENT
tv210 = 8						; size = 4
_c_rkState$ = 8						; size = 4
?OnWaiting@CPythonPlayerEventHandler@@UAEXABUSState@IEventHandler@CActorInstance@@@Z PROC ; CPythonPlayerEventHandler::OnWaiting, COMDAT
; _this$ = ecx

; 39   : {

  00000	55		 push	 ebp
  00001	8b ec		 mov	 ebp, esp
  00003	56		 push	 esi
  00004	8b f1		 mov	 esi, ecx

; 40   : 	DWORD dwCurTime=ELTimer_GetMSec();

  00006	e8 00 00 00 00	 call	 ?ELTimer_GetMSec@@YAKXZ	; ELTimer_GetMSec

; 41   : 	if (m_dwNextWaitingNotifyTime>dwCurTime)

  0000b	39 46 14	 cmp	 DWORD PTR [esi+20], eax
  0000e	77 73		 ja	 SHORT $LN1@OnWaiting

; 42   : 		return;
; 43   : 
; 44   : 	m_dwNextWaitingNotifyTime=dwCurTime+100;
; 45   : 
; 46   : 	const TPixelPosition& c_rkPPosCurWaiting=c_rkState.kPPosSelf;
; 47   : 	float dx=m_kPPosPrevWaiting.x-c_rkPPosCurWaiting.x;

  00010	f3 0f 10 4e 1c	 movss	 xmm1, DWORD PTR [esi+28]
  00015	83 c0 64	 add	 eax, 100		; 00000064H

; 48   : 	float dy=m_kPPosPrevWaiting.y-c_rkPPosCurWaiting.y;

  00018	f3 0f 10 46 20	 movss	 xmm0, DWORD PTR [esi+32]
  0001d	57		 push	 edi
  0001e	8b 7d 08	 mov	 edi, DWORD PTR _c_rkState$[ebp]
  00021	89 46 14	 mov	 DWORD PTR [esi+20], eax
; File C:\Program Files\Microsoft Visual Studio\2022\Community\VC\Tools\MSVC\14.34.31933\include\cmath

; 265  :     return _CSTD sqrtf(_Xx);

  00024	51		 push	 ecx
; File E:\Metin2_server\SolWayneSF v6\ClientVS22\source\UserInterface\PythonPlayerEventHandler.cpp

; 48   : 	float dy=m_kPPosPrevWaiting.y-c_rkPPosCurWaiting.y;

  00025	f3 0f 5c 47 04	 subss	 xmm0, DWORD PTR [edi+4]
  0002a	f3 0f 5c 0f	 subss	 xmm1, DWORD PTR [edi]

; 49   : 	float len=sqrt(dx*dx+dy*dy);

  0002e	f3 0f 59 c0	 mulss	 xmm0, xmm0
  00032	f3 0f 59 c9	 mulss	 xmm1, xmm1
  00036	f3 0f 58 c1	 addss	 xmm0, xmm1
; File C:\Program Files\Microsoft Visual Studio\2022\Community\VC\Tools\MSVC\14.34.31933\include\cmath

; 265  :     return _CSTD sqrtf(_Xx);

  0003a	f3 0f 11 04 24	 movss	 DWORD PTR [esp], xmm0
  0003f	e8 00 00 00 00	 call	 _sqrtf
; File E:\Metin2_server\SolWayneSF v6\ClientVS22\source\UserInterface\PythonPlayerEventHandler.cpp

; 51   : 	if (len<1.0f)

  00044	f3 0f 10 05 00
	00 00 00	 movss	 xmm0, DWORD PTR __real@3f800000
; File C:\Program Files\Microsoft Visual Studio\2022\Community\VC\Tools\MSVC\14.34.31933\include\cmath

; 265  :     return _CSTD sqrtf(_Xx);

  0004c	83 c4 04	 add	 esp, 4
; File E:\Metin2_server\SolWayneSF v6\ClientVS22\source\UserInterface\PythonPlayerEventHandler.cpp

; 51   : 	if (len<1.0f)

  0004f	d9 5d 08	 fstp	 DWORD PTR tv210[ebp]
  00052	0f 2f 45 08	 comiss	 xmm0, DWORD PTR tv210[ebp]
  00056	77 2a		 ja	 SHORT $LN9@OnWaiting

; 52   : 		return;
; 53   : 
; 54   : 	m_kPPosPrevWaiting=c_rkPPosCurWaiting;

  00058	f3 0f 7e 07	 movq	 xmm0, QWORD PTR [edi]

; 55   : 
; 56   : 	CPythonNetworkStream& rkNetStream=CPythonNetworkStream::Instance();
; 57   : 	rkNetStream.SendCharacterStatePacket(c_rkState.kPPosSelf, c_rkState.fAdvRotSelf, CInstanceBase::FUNC_WAIT, 0);

  0005c	6a 00		 push	 0
  0005e	66 0f d6 46 1c	 movq	 QWORD PTR [esi+28], xmm0
  00063	8b 47 08	 mov	 eax, DWORD PTR [edi+8]
  00066	6a 00		 push	 0
  00068	51		 push	 ecx
  00069	8b 0d 00 00 00
	00		 mov	 ecx, DWORD PTR ?ms_singleton@?$CSingleton@VCPythonNetworkStream@@@@0PAVCPythonNetworkStream@@A ; CSingleton<CPythonNetworkStream>::ms_singleton
  0006f	89 46 24	 mov	 DWORD PTR [esi+36], eax
  00072	f3 0f 10 47 0c	 movss	 xmm0, DWORD PTR [edi+12]
  00077	f3 0f 11 04 24	 movss	 DWORD PTR [esp], xmm0
  0007c	57		 push	 edi
  0007d	e8 00 00 00 00	 call	 ?SendCharacterStatePacket@CPythonNetworkStream@@QAE_NABUD3DXVECTOR3@@MII@Z ; CPythonNetworkStream::SendCharacterStatePacket
$LN9@OnWaiting:
  00082	5f		 pop	 edi
$LN1@OnWaiting:
  00083	5e		 pop	 esi

; 58   : 
; 59   : 	//Trace("waiting\n");
; 60   : }

  00084	5d		 pop	 ebp
  00085	c2 04 00	 ret	 4
?OnWaiting@CPythonPlayerEventHandler@@UAEXABUSState@IEventHandler@CActorInstance@@@Z ENDP ; CPythonPlayerEventHandler::OnWaiting
_TEXT	ENDS
; Function compile flags: /Ogtp
; File E:\Metin2_server\SolWayneSF v6\ClientVS22\source\UserInterface\PythonPlayerEventHandler.cpp
;	COMDAT ?OnMoving@CPythonPlayerEventHandler@@UAEXABUSState@IEventHandler@CActorInstance@@@Z
_TEXT	SEGMENT
_c_rkState$ = 8						; size = 4
?OnMoving@CPythonPlayerEventHandler@@UAEXABUSState@IEventHandler@CActorInstance@@@Z PROC ; CPythonPlayerEventHandler::OnMoving, COMDAT
; _this$ = ecx

; 63   : {

  00000	55		 push	 ebp
  00001	8b ec		 mov	 ebp, esp
  00003	56		 push	 esi
  00004	8b f1		 mov	 esi, ecx

; 64   : 	DWORD dwCurTime=ELTimer_GetMSec();		

  00006	e8 00 00 00 00	 call	 ?ELTimer_GetMSec@@YAKXZ	; ELTimer_GetMSec

; 65   : 	if (m_dwNextMovingNotifyTime>dwCurTime)

  0000b	39 46 18	 cmp	 DWORD PTR [esi+24], eax
  0000e	77 26		 ja	 SHORT $LN1@OnMoving

; 66   : 		return;
; 67   : 	
; 68   : 	m_dwNextMovingNotifyTime=dwCurTime+300;

  00010	05 2c 01 00 00	 add	 eax, 300		; 0000012cH
  00015	89 46 18	 mov	 DWORD PTR [esi+24], eax

; 69   : 	
; 70   : 	CPythonNetworkStream& rkNetStream=CPythonNetworkStream::Instance();
; 71   : 	rkNetStream.SendCharacterStatePacket(c_rkState.kPPosSelf, c_rkState.fAdvRotSelf, CInstanceBase::FUNC_MOVE, 0);

  00018	8b 45 08	 mov	 eax, DWORD PTR _c_rkState$[ebp]
  0001b	6a 00		 push	 0
  0001d	6a 01		 push	 1
  0001f	51		 push	 ecx
  00020	f3 0f 10 40 0c	 movss	 xmm0, DWORD PTR [eax+12]
  00025	8b 0d 00 00 00
	00		 mov	 ecx, DWORD PTR ?ms_singleton@?$CSingleton@VCPythonNetworkStream@@@@0PAVCPythonNetworkStream@@A ; CSingleton<CPythonNetworkStream>::ms_singleton
  0002b	f3 0f 11 04 24	 movss	 DWORD PTR [esp], xmm0
  00030	50		 push	 eax
  00031	e8 00 00 00 00	 call	 ?SendCharacterStatePacket@CPythonNetworkStream@@QAE_NABUD3DXVECTOR3@@MII@Z ; CPythonNetworkStream::SendCharacterStatePacket
$LN1@OnMoving:
  00036	5e		 pop	 esi

; 72   : 
; 73   : //	Trace("moving\n");
; 74   : }

  00037	5d		 pop	 ebp
  00038	c2 04 00	 ret	 4
?OnMoving@CPythonPlayerEventHandler@@UAEXABUSState@IEventHandler@CActorInstance@@@Z ENDP ; CPythonPlayerEventHandler::OnMoving
_TEXT	ENDS
; Function compile flags: /Ogtp
; File E:\Metin2_server\SolWayneSF v6\ClientVS22\source\UserInterface\PythonPlayerEventHandler.cpp
;	COMDAT ?OnMove@CPythonPlayerEventHandler@@UAEXABUSState@IEventHandler@CActorInstance@@@Z
_TEXT	SEGMENT
_c_rkState$ = 8						; size = 4
?OnMove@CPythonPlayerEventHandler@@UAEXABUSState@IEventHandler@CActorInstance@@@Z PROC ; CPythonPlayerEventHandler::OnMove, COMDAT
; _this$ = ecx

; 77   : {

  00000	55		 push	 ebp
  00001	8b ec		 mov	 ebp, esp
  00003	56		 push	 esi
  00004	8b f1		 mov	 esi, ecx

; 78   : 	DWORD dwCurTime=ELTimer_GetMSec();

  00006	e8 00 00 00 00	 call	 ?ELTimer_GetMSec@@YAKXZ	; ELTimer_GetMSec

; 79   : 	m_dwNextWaitingNotifyTime=dwCurTime+100;
; 80   : 	m_dwNextMovingNotifyTime=dwCurTime+300;
; 81   : 
; 82   : 	CPythonNetworkStream& rkNetStream=CPythonNetworkStream::Instance();
; 83   : 	rkNetStream.SendCharacterStatePacket(c_rkState.kPPosSelf, c_rkState.fAdvRotSelf, CInstanceBase::FUNC_MOVE, 0);

  0000b	6a 00		 push	 0
  0000d	6a 01		 push	 1
  0000f	51		 push	 ecx
  00010	8b 0d 00 00 00
	00		 mov	 ecx, DWORD PTR ?ms_singleton@?$CSingleton@VCPythonNetworkStream@@@@0PAVCPythonNetworkStream@@A ; CSingleton<CPythonNetworkStream>::ms_singleton
  00016	8d 50 64	 lea	 edx, DWORD PTR [eax+100]
  00019	05 2c 01 00 00	 add	 eax, 300		; 0000012cH
  0001e	89 56 14	 mov	 DWORD PTR [esi+20], edx
  00021	89 46 18	 mov	 DWORD PTR [esi+24], eax
  00024	8b 45 08	 mov	 eax, DWORD PTR _c_rkState$[ebp]
  00027	f3 0f 10 40 0c	 movss	 xmm0, DWORD PTR [eax+12]
  0002c	f3 0f 11 04 24	 movss	 DWORD PTR [esp], xmm0
  00031	50		 push	 eax
  00032	e8 00 00 00 00	 call	 ?SendCharacterStatePacket@CPythonNetworkStream@@QAE_NABUD3DXVECTOR3@@MII@Z ; CPythonNetworkStream::SendCharacterStatePacket
  00037	5e		 pop	 esi

; 84   : 
; 85   : //	Trace("move\n");
; 86   : }

  00038	5d		 pop	 ebp
  00039	c2 04 00	 ret	 4
?OnMove@CPythonPlayerEventHandler@@UAEXABUSState@IEventHandler@CActorInstance@@@Z ENDP ; CPythonPlayerEventHandler::OnMove
_TEXT	ENDS
; Function compile flags: /Ogtp
; File E:\Metin2_server\SolWayneSF v6\ClientVS22\source\UserInterface\PythonPlayerEventHandler.cpp
;	COMDAT ?OnStop@CPythonPlayerEventHandler@@UAEXABUSState@IEventHandler@CActorInstance@@@Z
_TEXT	SEGMENT
_c_rkState$ = 8						; size = 4
?OnStop@CPythonPlayerEventHandler@@UAEXABUSState@IEventHandler@CActorInstance@@@Z PROC ; CPythonPlayerEventHandler::OnStop, COMDAT
; _this$ = ecx

; 89   : {

  00000	55		 push	 ebp
  00001	8b ec		 mov	 ebp, esp

; 90   : 	CPythonNetworkStream& rkNetStream=CPythonNetworkStream::Instance();
; 91   : 	rkNetStream.SendCharacterStatePacket(c_rkState.kPPosSelf, c_rkState.fAdvRotSelf, CInstanceBase::FUNC_WAIT, 0);

  00003	8b 45 08	 mov	 eax, DWORD PTR _c_rkState$[ebp]
  00006	6a 00		 push	 0
  00008	6a 00		 push	 0
  0000a	51		 push	 ecx
  0000b	f3 0f 10 40 0c	 movss	 xmm0, DWORD PTR [eax+12]
  00010	8b 0d 00 00 00
	00		 mov	 ecx, DWORD PTR ?ms_singleton@?$CSingleton@VCPythonNetworkStream@@@@0PAVCPythonNetworkStream@@A ; CSingleton<CPythonNetworkStream>::ms_singleton
  00016	f3 0f 11 04 24	 movss	 DWORD PTR [esp], xmm0
  0001b	50		 push	 eax
  0001c	e8 00 00 00 00	 call	 ?SendCharacterStatePacket@CPythonNetworkStream@@QAE_NABUD3DXVECTOR3@@MII@Z ; CPythonNetworkStream::SendCharacterStatePacket

; 92   : 
; 93   : //	Trace("stop\n");
; 94   : }

  00021	5d		 pop	 ebp
  00022	c2 04 00	 ret	 4
?OnStop@CPythonPlayerEventHandler@@UAEXABUSState@IEventHandler@CActorInstance@@@Z ENDP ; CPythonPlayerEventHandler::OnStop
_TEXT	ENDS
; Function compile flags: /Ogtp
; File E:\Metin2_server\SolWayneSF v6\ClientVS22\source\UserInterface\PythonPlayerEventHandler.cpp
;	COMDAT ?OnWarp@CPythonPlayerEventHandler@@UAEXABUSState@IEventHandler@CActorInstance@@@Z
_TEXT	SEGMENT
_c_rkState$ = 8						; size = 4
?OnWarp@CPythonPlayerEventHandler@@UAEXABUSState@IEventHandler@CActorInstance@@@Z PROC ; CPythonPlayerEventHandler::OnWarp, COMDAT
; _this$ = ecx

; 97   : {

  00000	55		 push	 ebp
  00001	8b ec		 mov	 ebp, esp

; 98   : 	CPythonNetworkStream& rkNetStream=CPythonNetworkStream::Instance();
; 99   : 	rkNetStream.SendCharacterStatePacket(c_rkState.kPPosSelf, c_rkState.fAdvRotSelf, CInstanceBase::FUNC_WAIT, 0);

  00003	8b 45 08	 mov	 eax, DWORD PTR _c_rkState$[ebp]
  00006	6a 00		 push	 0
  00008	6a 00		 push	 0
  0000a	51		 push	 ecx
  0000b	f3 0f 10 40 0c	 movss	 xmm0, DWORD PTR [eax+12]
  00010	8b 0d 00 00 00
	00		 mov	 ecx, DWORD PTR ?ms_singleton@?$CSingleton@VCPythonNetworkStream@@@@0PAVCPythonNetworkStream@@A ; CSingleton<CPythonNetworkStream>::ms_singleton
  00016	f3 0f 11 04 24	 movss	 DWORD PTR [esp], xmm0
  0001b	50		 push	 eax
  0001c	e8 00 00 00 00	 call	 ?SendCharacterStatePacket@CPythonNetworkStream@@QAE_NABUD3DXVECTOR3@@MII@Z ; CPythonNetworkStream::SendCharacterStatePacket

; 100  : }

  00021	5d		 pop	 ebp
  00022	c2 04 00	 ret	 4
?OnWarp@CPythonPlayerEventHandler@@UAEXABUSState@IEventHandler@CActorInstance@@@Z ENDP ; CPythonPlayerEventHandler::OnWarp
_TEXT	ENDS
; Function compile flags: /Ogtp
; File E:\Metin2_server\SolWayneSF v6\ClientVS22\source\UserInterface\PythonPlayerEventHandler.cpp
;	COMDAT ?OnAttack@CPythonPlayerEventHandler@@UAEXABUSState@IEventHandler@CActorInstance@@G@Z
_TEXT	SEGMENT
_c_rkState$ = 8						; size = 4
_wMotionIndex$ = 12					; size = 2
?OnAttack@CPythonPlayerEventHandler@@UAEXABUSState@IEventHandler@CActorInstance@@G@Z PROC ; CPythonPlayerEventHandler::OnAttack, COMDAT
; _this$ = ecx

; 103  : {

  00000	55		 push	 ebp
  00001	8b ec		 mov	 ebp, esp

; 104  : //	Tracef("CPythonPlayerEventHandler::OnAttack [%d]\n", wMotionIndex);
; 105  : 	assert(wMotionIndex < 255);
; 106  : 
; 107  : 	CPythonNetworkStream& rkNetStream=CPythonNetworkStream::Instance();
; 108  : 	rkNetStream.SendCharacterStatePacket(c_rkState.kPPosSelf, c_rkState.fAdvRotSelf, CInstanceBase::FUNC_COMBO, wMotionIndex);

  00003	0f b7 45 0c	 movzx	 eax, WORD PTR _wMotionIndex$[ebp]
  00007	50		 push	 eax
  00008	8b 45 08	 mov	 eax, DWORD PTR _c_rkState$[ebp]
  0000b	6a 03		 push	 3
  0000d	51		 push	 ecx
  0000e	8b 0d 00 00 00
	00		 mov	 ecx, DWORD PTR ?ms_singleton@?$CSingleton@VCPythonNetworkStream@@@@0PAVCPythonNetworkStream@@A ; CSingleton<CPythonNetworkStream>::ms_singleton
  00014	f3 0f 10 40 0c	 movss	 xmm0, DWORD PTR [eax+12]
  00019	f3 0f 11 04 24	 movss	 DWORD PTR [esp], xmm0
  0001e	50		 push	 eax
  0001f	e8 00 00 00 00	 call	 ?SendCharacterStatePacket@CPythonNetworkStream@@QAE_NABUD3DXVECTOR3@@MII@Z ; CPythonNetworkStream::SendCharacterStatePacket

; 109  : 
; 110  : #ifdef __ATTACK_SPEED_CHECK__
; 111  : 	static DWORD s_dwLastTime=timeGetTime();
; 112  : 
; 113  : 	DWORD dwCurTime=timeGetTime();
; 114  : 	Tracef("%d\n", dwCurTime-s_dwLastTime);
; 115  : 	s_dwLastTime=dwCurTime;
; 116  : #endif
; 117  : 
; 118  : }

  00024	5d		 pop	 ebp
  00025	c2 08 00	 ret	 8
?OnAttack@CPythonPlayerEventHandler@@UAEXABUSState@IEventHandler@CActorInstance@@G@Z ENDP ; CPythonPlayerEventHandler::OnAttack
_TEXT	ENDS
; Function compile flags: /Ogtp
; File E:\Metin2_server\SolWayneSF v6\ClientVS22\source\UserInterface\PythonPlayerEventHandler.cpp
;	COMDAT ?OnUseSkill@CPythonPlayerEventHandler@@UAEXABUSState@IEventHandler@CActorInstance@@II@Z
_TEXT	SEGMENT
_c_rkState$ = 8						; size = 4
_uMotSkill$ = 12					; size = 4
_uArg$ = 16						; size = 4
?OnUseSkill@CPythonPlayerEventHandler@@UAEXABUSState@IEventHandler@CActorInstance@@II@Z PROC ; CPythonPlayerEventHandler::OnUseSkill, COMDAT
; _this$ = ecx

; 121  : {

  00000	55		 push	 ebp
  00001	8b ec		 mov	 ebp, esp

; 122  : 	CPythonNetworkStream& rkNetStream=CPythonNetworkStream::Instance();
; 123  : 	rkNetStream.SendCharacterStatePacket(c_rkState.kPPosSelf, c_rkState.fAdvRotSelf, CInstanceBase::FUNC_SKILL|uMotSkill, uArg);

  00003	ff 75 10	 push	 DWORD PTR _uArg$[ebp]
  00006	8b 45 0c	 mov	 eax, DWORD PTR _uMotSkill$[ebp]
  00009	0d 80 00 00 00	 or	 eax, 128		; 00000080H
  0000e	50		 push	 eax
  0000f	8b 45 08	 mov	 eax, DWORD PTR _c_rkState$[ebp]
  00012	51		 push	 ecx
  00013	8b 0d 00 00 00
	00		 mov	 ecx, DWORD PTR ?ms_singleton@?$CSingleton@VCPythonNetworkStream@@@@0PAVCPythonNetworkStream@@A ; CSingleton<CPythonNetworkStream>::ms_singleton
  00019	f3 0f 10 40 0c	 movss	 xmm0, DWORD PTR [eax+12]
  0001e	f3 0f 11 04 24	 movss	 DWORD PTR [esp], xmm0
  00023	50		 push	 eax
  00024	e8 00 00 00 00	 call	 ?SendCharacterStatePacket@CPythonNetworkStream@@QAE_NABUD3DXVECTOR3@@MII@Z ; CPythonNetworkStream::SendCharacterStatePacket

; 124  : }

  00029	5d		 pop	 ebp
  0002a	c2 0c 00	 ret	 12			; 0000000cH
?OnUseSkill@CPythonPlayerEventHandler@@UAEXABUSState@IEventHandler@CActorInstance@@II@Z ENDP ; CPythonPlayerEventHandler::OnUseSkill
_TEXT	ENDS
; Function compile flags: /Ogtp
; File E:\Metin2_server\SolWayneSF v6\ClientVS22\source\UserInterface\PythonPlayerEventHandler.cpp
;	COMDAT ?OnUpdate@CPythonPlayerEventHandler@@UAEXXZ
_TEXT	SEGMENT
?OnUpdate@CPythonPlayerEventHandler@@UAEXXZ PROC	; CPythonPlayerEventHandler::OnUpdate, COMDAT
; _this$ = ecx

; 128  : }

  00000	c2 00 00	 ret	 0
?OnUpdate@CPythonPlayerEventHandler@@UAEXXZ ENDP	; CPythonPlayerEventHandler::OnUpdate
_TEXT	ENDS
; Function compile flags: /Ogtp
; File E:\Metin2_server\SolWayneSF v6\ClientVS22\source\UserInterface\PythonPlayerEventHandler.cpp
;	COMDAT ?OnChangeShape@CPythonPlayerEventHandler@@UAEXXZ
_TEXT	SEGMENT
?OnChangeShape@CPythonPlayerEventHandler@@UAEXXZ PROC	; CPythonPlayerEventHandler::OnChangeShape, COMDAT
; _this$ = ecx

; 132  : 	CPythonPlayer::Instance().NEW_Stop();

  00000	8b 0d 00 00 00
	00		 mov	 ecx, DWORD PTR ?ms_singleton@?$CSingleton@VCPythonPlayer@@@@0PAVCPythonPlayer@@A ; CSingleton<CPythonPlayer>::ms_singleton
  00006	e9 00 00 00 00	 jmp	 ?NEW_Stop@CPythonPlayer@@QAEXXZ ; CPythonPlayer::NEW_Stop
?OnChangeShape@CPythonPlayerEventHandler@@UAEXXZ ENDP	; CPythonPlayerEventHandler::OnChangeShape
_TEXT	ENDS
; Function compile flags: /Ogtp
; File E:\Metin2_server\SolWayneSF v6\ClientVS22\source\UserInterface\PythonPlayerEventHandler.cpp
; File C:\Program Files\Microsoft Visual Studio\2022\Community\VC\Tools\MSVC\14.34.31933\include\vector
; File E:\Metin2_server\SolWayneSF v6\ClientVS22\source\UserInterface\PythonPlayerEventHandler.cpp
; File C:\Program Files\Microsoft Visual Studio\2022\Community\VC\Tools\MSVC\14.34.31933\include\vector
; File C:\Program Files\Microsoft Visual Studio\2022\Community\VC\Tools\MSVC\14.34.31933\include\xutility
; File C:\Program Files\Microsoft Visual Studio\2022\Community\VC\Tools\MSVC\14.34.31933\include\vector
; File E:\Metin2_server\SolWayneSF v6\ClientVS22\source\UserInterface\PythonPlayerEventHandler.cpp
; File C:\Program Files\Microsoft Visual Studio\2022\Community\VC\Tools\MSVC\14.34.31933\include\vector
; File E:\Metin2_server\SolWayneSF v6\ClientVS22\source\UserInterface\PythonPlayerEventHandler.cpp
;	COMDAT ?OnHit@CPythonPlayerEventHandler@@UAEXIAAVCActorInstance@@H@Z
_TEXT	SEGMENT
_kVictim$ = -16						; size = 12
__$ArrayPad$ = -4					; size = 4
_uSkill$ = 8						; size = 4
_rkActorVictim$ = 12					; size = 4
_isSendPacket$ = 16					; size = 4
?OnHit@CPythonPlayerEventHandler@@UAEXIAAVCActorInstance@@H@Z PROC ; CPythonPlayerEventHandler::OnHit, COMDAT
; _this$ = ecx

; 136  : {

  00000	55		 push	 ebp
  00001	8b ec		 mov	 ebp, esp
  00003	83 ec 10	 sub	 esp, 16			; 00000010H
  00006	a1 00 00 00 00	 mov	 eax, DWORD PTR ___security_cookie
  0000b	33 c5		 xor	 eax, ebp
  0000d	89 45 fc	 mov	 DWORD PTR __$ArrayPad$[ebp], eax
  00010	53		 push	 ebx
  00011	56		 push	 esi
  00012	8b 75 0c	 mov	 esi, DWORD PTR _rkActorVictim$[ebp]
  00015	57		 push	 edi
  00016	8b f9		 mov	 edi, ecx

; 137  : 	DWORD dwVIDVictim=rkActorVictim.GetVirtualID();

  00018	8b ce		 mov	 ecx, esi
  0001a	8b 06		 mov	 eax, DWORD PTR [esi]
  0001c	ff 50 48	 call	 DWORD PTR [eax+72]

; 138  : 
; 139  : 	// Update Target
; 140  : 	CPythonPlayer::Instance().SetTarget(dwVIDVictim, FALSE);

  0001f	8b 0d 00 00 00
	00		 mov	 ecx, DWORD PTR ?ms_singleton@?$CSingleton@VCPythonPlayer@@@@0PAVCPythonPlayer@@A ; CSingleton<CPythonPlayer>::ms_singleton
  00025	8b d8		 mov	 ebx, eax
  00027	83 c1 04	 add	 ecx, 4
  0002a	6a 00		 push	 0
  0002c	53		 push	 ebx
  0002d	8b 11		 mov	 edx, DWORD PTR [ecx]
  0002f	ff 52 60	 call	 DWORD PTR [edx+96]

; 141  : 	// Update Target
; 142  : 
; 143  : 	if (isSendPacket)

  00032	83 7d 10 00	 cmp	 DWORD PTR _isSendPacket$[ebp], 0
  00036	74 0f		 je	 SHORT $LN2@OnHit

; 144  : 	{
; 145  : //#define ATTACK_TIME_LOG
; 146  : #ifdef ATTACK_TIME_LOG
; 147  : 		static std::map<DWORD, float> s_prevTimed;
; 148  : 		float curTime = timeGetTime() / 1000.0f;
; 149  : 		bool isFirst = false;
; 150  : 		if (s_prevTimed.end() == s_prevTimed.find(dwVIDVictim))
; 151  : 		{
; 152  : 			s_prevTimed[dwVIDVictim] = curTime;
; 153  : 			isFirst = true;
; 154  : 		}
; 155  : 		float diffTime = curTime-s_prevTimed[dwVIDVictim];
; 156  : 		if (diffTime < 0.1f && !isFirst)
; 157  : 		{
; 158  : 			TraceError("ATTACK(SPEED_HACK): %.4f(%.4f) %d", curTime, diffTime, dwVIDVictim);
; 159  : 		}
; 160  : 		else
; 161  : 		{
; 162  : 			TraceError("ATTACK: %.4f(%.4f) %d", curTime, diffTime, dwVIDVictim);
; 163  : 		}
; 164  : 		
; 165  : 		s_prevTimed[dwVIDVictim] = curTime;
; 166  : #endif
; 167  : 		CPythonNetworkStream& rkStream=CPythonNetworkStream::Instance();
; 168  : 		rkStream.SendAttackPacket(uSkill, dwVIDVictim);

  00038	8b 0d 00 00 00
	00		 mov	 ecx, DWORD PTR ?ms_singleton@?$CSingleton@VCPythonNetworkStream@@@@0PAVCPythonNetworkStream@@A ; CSingleton<CPythonNetworkStream>::ms_singleton
  0003e	53		 push	 ebx
  0003f	ff 75 08	 push	 DWORD PTR _uSkill$[ebp]
  00042	e8 00 00 00 00	 call	 ?SendAttackPacket@CPythonNetworkStream@@QAE_NIK@Z ; CPythonNetworkStream::SendAttackPacket
$LN2@OnHit:

; 169  : 	}
; 170  : 
; 171  : 	if (!rkActorVictim.IsPushing())

  00047	8b ce		 mov	 ecx, esi
  00049	e8 00 00 00 00	 call	 ?IsPushing@CActorInstance@@QAE_NXZ ; CActorInstance::IsPushing
  0004e	84 c0		 test	 al, al
  00050	74 7d		 je	 SHORT $LN8@OnHit

; 172  : 		return;
; 173  : 
; 174  : 	//    
; 175  : 	extern bool IS_HUGE_RACE(unsigned int vnum);
; 176  : 	if (IS_HUGE_RACE(rkActorVictim.GetRace()))

  00052	8b ce		 mov	 ecx, esi
  00054	e8 00 00 00 00	 call	 ?GetRace@CActorInstance@@QAEKXZ ; CActorInstance::GetRace
  00059	50		 push	 eax
  0005a	e8 00 00 00 00	 call	 ?IS_HUGE_RACE@@YA_NI@Z	; IS_HUGE_RACE
  0005f	83 c4 04	 add	 esp, 4
  00062	84 c0		 test	 al, al
  00064	75 69		 jne	 SHORT $LN8@OnHit

; 177  : 		return;
; 178  : 
; 179  : 
; 180  : 	CPythonCharacterManager::Instance().AdjustCollisionWithOtherObjects(&rkActorVictim);

  00066	8b 0d 00 00 00
	00		 mov	 ecx, DWORD PTR ?ms_singleton@?$CSingleton@VCPythonCharacterManager@@@@0PAVCPythonCharacterManager@@A ; CSingleton<CPythonCharacterManager>::ms_singleton
  0006c	83 c1 08	 add	 ecx, 8
  0006f	56		 push	 esi
  00070	8b 01		 mov	 eax, DWORD PTR [ecx]
  00072	ff 50 04	 call	 DWORD PTR [eax+4]

; 181  : 
; 182  : 	const TPixelPosition& kPPosLast=rkActorVictim.NEW_GetLastPixelPositionRef();

  00075	8b ce		 mov	 ecx, esi
  00077	e8 00 00 00 00	 call	 ?NEW_GetLastPixelPositionRef@CActorInstance@@QAEABUD3DXVECTOR3@@XZ ; CActorInstance::NEW_GetLastPixelPositionRef

; 183  : 
; 184  : 	SVictim kVictim;
; 185  : 	kVictim.m_dwVID=dwVIDVictim;

  0007c	89 5d f0	 mov	 DWORD PTR _kVictim$[ebp], ebx

; 186  : 	kVictim.m_lPixelX=long(kPPosLast.x);
; 187  : 	kVictim.m_lPixelY=long(kPPosLast.y);
; 188  : 
; 189  : 	rkActorVictim.TEMP_Push(kVictim.m_lPixelX, kVictim.m_lPixelY);

  0007f	8b ce		 mov	 ecx, esi
  00081	f3 0f 2c 58 04	 cvttss2si ebx, DWORD PTR [eax+4]
  00086	f3 0f 2c 10	 cvttss2si edx, DWORD PTR [eax]
  0008a	53		 push	 ebx
  0008b	89 5d f8	 mov	 DWORD PTR _kVictim$[ebp+8], ebx
  0008e	52		 push	 edx
  0008f	89 55 f4	 mov	 DWORD PTR _kVictim$[ebp+4], edx
  00092	e8 00 00 00 00	 call	 ?TEMP_Push@CActorInstance@@QAEXHH@Z ; CActorInstance::TEMP_Push
; File C:\Program Files\Microsoft Visual Studio\2022\Community\VC\Tools\MSVC\14.34.31933\include\vector

; 844  :         if (_Mylast != _My_data._Myend) {

  00097	8b 47 08	 mov	 eax, DWORD PTR [edi+8]
; File E:\Metin2_server\SolWayneSF v6\ClientVS22\source\UserInterface\PythonPlayerEventHandler.cpp

; 191  : 	m_kVctkVictim.push_back(kVictim);

  0009a	8d 4f 04	 lea	 ecx, DWORD PTR [edi+4]
; File C:\Program Files\Microsoft Visual Studio\2022\Community\VC\Tools\MSVC\14.34.31933\include\vector

; 844  :         if (_Mylast != _My_data._Myend) {

  0009d	3b 47 0c	 cmp	 eax, DWORD PTR [edi+12]
  000a0	74 23		 je	 SHORT $LN9@OnHit
; File C:\Program Files\Microsoft Visual Studio\2022\Community\VC\Tools\MSVC\14.34.31933\include\xutility

; 231  :         ::new (_Voidify_iter(_STD addressof(_Obj))) _Ty(_STD forward<_Types>(_Args)...);

  000a2	f3 0f 7e 45 f0	 movq	 xmm0, QWORD PTR _kVictim$[ebp]
  000a7	66 0f d6 00	 movq	 QWORD PTR [eax], xmm0
  000ab	89 58 08	 mov	 DWORD PTR [eax+8], ebx
; File C:\Program Files\Microsoft Visual Studio\2022\Community\VC\Tools\MSVC\14.34.31933\include\vector

; 869  :         ++_Mylast;

  000ae	83 47 08 0c	 add	 DWORD PTR [edi+8], 12	; 0000000cH
  000b2	5f		 pop	 edi
; File E:\Metin2_server\SolWayneSF v6\ClientVS22\source\UserInterface\PythonPlayerEventHandler.cpp

; 192  : }

  000b3	5e		 pop	 esi
  000b4	5b		 pop	 ebx
  000b5	8b 4d fc	 mov	 ecx, DWORD PTR __$ArrayPad$[ebp]
  000b8	33 cd		 xor	 ecx, ebp
  000ba	e8 00 00 00 00	 call	 @__security_check_cookie@4
  000bf	8b e5		 mov	 esp, ebp
  000c1	5d		 pop	 ebp
  000c2	c2 0c 00	 ret	 12			; 0000000cH
$LN9@OnHit:
; File C:\Program Files\Microsoft Visual Studio\2022\Community\VC\Tools\MSVC\14.34.31933\include\vector

; 848  :         return *_Emplace_reallocate(_Mylast, _STD forward<_Valty>(_Val)...);

  000c5	8d 55 f0	 lea	 edx, DWORD PTR _kVictim$[ebp]
  000c8	52		 push	 edx
  000c9	50		 push	 eax
  000ca	e8 00 00 00 00	 call	 ??$_Emplace_reallocate@ABUSVictim@CPythonPlayerEventHandler@@@?$vector@USVictim@CPythonPlayerEventHandler@@V?$allocator@USVictim@CPythonPlayerEventHandler@@@std@@@std@@AAEPAUSVictim@CPythonPlayerEventHandler@@QAU23@ABU23@@Z ; std::vector<CPythonPlayerEventHandler::SVictim,std::allocator<CPythonPlayerEventHandler::SVictim> >::_Emplace_reallocate<CPythonPlayerEventHandler::SVictim const &>
$LN8@OnHit:
; File E:\Metin2_server\SolWayneSF v6\ClientVS22\source\UserInterface\PythonPlayerEventHandler.cpp

; 192  : }

  000cf	8b 4d fc	 mov	 ecx, DWORD PTR __$ArrayPad$[ebp]
  000d2	5f		 pop	 edi
  000d3	5e		 pop	 esi
  000d4	33 cd		 xor	 ecx, ebp
  000d6	5b		 pop	 ebx
  000d7	e8 00 00 00 00	 call	 @__security_check_cookie@4
  000dc	8b e5		 mov	 esp, ebp
  000de	5d		 pop	 ebp
  000df	c2 0c 00	 ret	 12			; 0000000cH
?OnHit@CPythonPlayerEventHandler@@UAEXIAAVCActorInstance@@H@Z ENDP ; CPythonPlayerEventHandler::OnHit
_TEXT	ENDS
; Function compile flags: /Ogtp
; File E:\Metin2_server\SolWayneSF v6\ClientVS22\source\UserInterface\PythonPlayerEventHandler.cpp
; File C:\Program Files\Microsoft Visual Studio\2022\Community\VC\Tools\MSVC\14.34.31933\include\vector
; File E:\Metin2_server\SolWayneSF v6\ClientVS22\source\UserInterface\PythonPlayerEventHandler.h
; File E:\Metin2_server\SolWayneSF v6\ClientVS22\source\UserInterface\PythonPlayerEventHandler.cpp
;	COMDAT ??0CPythonPlayerEventHandler@@IAE@XZ
_TEXT	SEGMENT
??0CPythonPlayerEventHandler@@IAE@XZ PROC		; CPythonPlayerEventHandler::CPythonPlayerEventHandler, COMDAT
; _this$dead$ = ecx

; 222  : {

  00000	c7 05 00 00 00
	00 00 00 00 00	 mov	 DWORD PTR ?s_kPlayerEventHandler@?1??GetSingleton@CPythonPlayerEventHandler@@SAAAV2@XZ@4V2@A, OFFSET ??_7CPythonPlayerEventHandler@@6B@

; 226  : }

  0000a	b8 00 00 00 00	 mov	 eax, OFFSET ?s_kPlayerEventHandler@?1??GetSingleton@CPythonPlayerEventHandler@@SAAAV2@XZ@4V2@A
; File C:\Program Files\Microsoft Visual Studio\2022\Community\VC\Tools\MSVC\14.34.31933\include\vector

; 390  :     _CONSTEXPR20 _Vector_val() noexcept : _Myfirst(), _Mylast(), _Myend() {}

  0000f	c7 05 04 00 00
	00 00 00 00 00	 mov	 DWORD PTR ?s_kPlayerEventHandler@?1??GetSingleton@CPythonPlayerEventHandler@@SAAAV2@XZ@4V2@A+4, 0
  00019	c7 05 08 00 00
	00 00 00 00 00	 mov	 DWORD PTR ?s_kPlayerEventHandler@?1??GetSingleton@CPythonPlayerEventHandler@@SAAAV2@XZ@4V2@A+8, 0
  00023	c7 05 0c 00 00
	00 00 00 00 00	 mov	 DWORD PTR ?s_kPlayerEventHandler@?1??GetSingleton@CPythonPlayerEventHandler@@SAAAV2@XZ@4V2@A+12, 0
; File E:\Metin2_server\SolWayneSF v6\ClientVS22\source\UserInterface\PythonPlayerEventHandler.h

; 57   : 				CNormalBowAttack_FlyEventHandler_AutoClear() {}

  0002d	c7 05 28 00 00
	00 00 00 00 00	 mov	 DWORD PTR ?s_kPlayerEventHandler@?1??GetSingleton@CPythonPlayerEventHandler@@SAAAV2@XZ@4V2@A+40, OFFSET ??_7CNormalBowAttack_FlyEventHandler_AutoClear@CPythonPlayerEventHandler@@6B@
; File E:\Metin2_server\SolWayneSF v6\ClientVS22\source\UserInterface\PythonPlayerEventHandler.cpp

; 223  : 	m_dwPrevComboIndex=0;

  00037	c7 05 10 00 00
	00 00 00 00 00	 mov	 DWORD PTR ?s_kPlayerEventHandler@?1??GetSingleton@CPythonPlayerEventHandler@@SAAAV2@XZ@4V2@A+16, 0

; 224  : 	m_dwNextMovingNotifyTime=0;

  00041	c7 05 18 00 00
	00 00 00 00 00	 mov	 DWORD PTR ?s_kPlayerEventHandler@?1??GetSingleton@CPythonPlayerEventHandler@@SAAAV2@XZ@4V2@A+24, 0

; 225  : 	m_dwNextWaitingNotifyTime=0;

  0004b	c7 05 14 00 00
	00 00 00 00 00	 mov	 DWORD PTR ?s_kPlayerEventHandler@?1??GetSingleton@CPythonPlayerEventHandler@@SAAAV2@XZ@4V2@A+20, 0

; 226  : }

  00055	c3		 ret	 0
??0CPythonPlayerEventHandler@@IAE@XZ ENDP		; CPythonPlayerEventHandler::CPythonPlayerEventHandler
_TEXT	ENDS
; Function compile flags: /Ogtp
; File E:\Metin2_server\SolWayneSF v6\ClientVS22\source\UserInterface\PythonPlayerEventHandler.cpp
;	COMDAT ?OnSetFlyTarget@CNormalBowAttack_FlyEventHandler_AutoClear@CPythonPlayerEventHandler@@UAEXXZ
_TEXT	SEGMENT
_s$ = -20						; size = 16
$T1 = -16						; size = 12
__$ArrayPad$ = -4					; size = 4
?OnSetFlyTarget@CNormalBowAttack_FlyEventHandler_AutoClear@CPythonPlayerEventHandler@@UAEXXZ PROC ; CPythonPlayerEventHandler::CNormalBowAttack_FlyEventHandler_AutoClear::OnSetFlyTarget, COMDAT
; _this$ = ecx

; 233  : {

  00000	55		 push	 ebp
  00001	8b ec		 mov	 ebp, esp
  00003	83 ec 14	 sub	 esp, 20			; 00000014H
  00006	a1 00 00 00 00	 mov	 eax, DWORD PTR ___security_cookie
  0000b	33 c5		 xor	 eax, ebp
  0000d	89 45 fc	 mov	 DWORD PTR __$ArrayPad$[ebp], eax
  00010	53		 push	 ebx
  00011	56		 push	 esi
  00012	8b d9		 mov	 ebx, ecx

; 234  : 	SState s;
; 235  : 	m_pInstMain->NEW_GetPixelPosition(&s.kPPosSelf);

  00014	8d 45 ec	 lea	 eax, DWORD PTR _s$[ebp]
  00017	57		 push	 edi
  00018	50		 push	 eax
  00019	8b 4b 08	 mov	 ecx, DWORD PTR [ebx+8]
  0001c	e8 00 00 00 00	 call	 ?NEW_GetPixelPosition@CInstanceBase@@QAEXPAUD3DXVECTOR3@@@Z ; CInstanceBase::NEW_GetPixelPosition

; 236  : 	s.fAdvRotSelf=m_pInstMain->GetGraphicThingInstancePtr()->GetTargetRotation();

  00021	8b 4b 08	 mov	 ecx, DWORD PTR [ebx+8]
  00024	e8 00 00 00 00	 call	 ?GetGraphicThingInstancePtr@CInstanceBase@@QAEPAVCActorInstance@@XZ ; CInstanceBase::GetGraphicThingInstancePtr
  00029	8b c8		 mov	 ecx, eax
  0002b	e8 00 00 00 00	 call	 ?GetTargetRotation@CActorInstance@@QAEMXZ ; CActorInstance::GetTargetRotation

; 237  : 
; 238  : 	CPythonNetworkStream& rpns=CPythonNetworkStream::Instance();

  00030	8b 3d 00 00 00
	00		 mov	 edi, DWORD PTR ?ms_singleton@?$CSingleton@VCPythonNetworkStream@@@@0PAVCPythonNetworkStream@@A ; CSingleton<CPythonNetworkStream>::ms_singleton
  00036	dd d8		 fstp	 ST(0)

; 239  : 	rpns.SendFlyTargetingPacket(m_pInstTarget->GetVirtualID(), m_pInstTarget->GetGraphicThingInstancePtr()->OnGetFlyTargetPosition());

  00038	8b 4b 0c	 mov	 ecx, DWORD PTR [ebx+12]
  0003b	e8 00 00 00 00	 call	 ?GetGraphicThingInstancePtr@CInstanceBase@@QAEPAVCActorInstance@@XZ ; CInstanceBase::GetGraphicThingInstancePtr
  00040	8d 55 f0	 lea	 edx, DWORD PTR $T1[ebp]
  00043	52		 push	 edx
  00044	8d 88 80 03 00
	00		 lea	 ecx, DWORD PTR [eax+896]
  0004a	8b 01		 mov	 eax, DWORD PTR [ecx]
  0004c	ff 50 04	 call	 DWORD PTR [eax+4]
  0004f	8b 4b 0c	 mov	 ecx, DWORD PTR [ebx+12]
  00052	8b f0		 mov	 esi, eax
  00054	e8 00 00 00 00	 call	 ?GetVirtualID@CInstanceBase@@QAEKXZ ; CInstanceBase::GetVirtualID
  00059	56		 push	 esi
  0005a	50		 push	 eax
  0005b	8b cf		 mov	 ecx, edi
  0005d	e8 00 00 00 00	 call	 ?SendFlyTargetingPacket@CPythonNetworkStream@@QAE_NKABUD3DXVECTOR3@@@Z ; CPythonNetworkStream::SendFlyTargetingPacket

; 240  : }

  00062	8b 4d fc	 mov	 ecx, DWORD PTR __$ArrayPad$[ebp]
  00065	5f		 pop	 edi
  00066	5e		 pop	 esi
  00067	33 cd		 xor	 ecx, ebp
  00069	5b		 pop	 ebx
  0006a	e8 00 00 00 00	 call	 @__security_check_cookie@4
  0006f	8b e5		 mov	 esp, ebp
  00071	5d		 pop	 ebp
  00072	c3		 ret	 0
?OnSetFlyTarget@CNormalBowAttack_FlyEventHandler_AutoClear@CPythonPlayerEventHandler@@UAEXXZ ENDP ; CPythonPlayerEventHandler::CNormalBowAttack_FlyEventHandler_AutoClear::OnSetFlyTarget
_TEXT	ENDS
; Function compile flags: /Ogtp
;	COMDAT ??0SState@IEventHandler@CActorInstance@@QAE@XZ
_TEXT	SEGMENT
??0SState@IEventHandler@CActorInstance@@QAE@XZ PROC	; CActorInstance::IEventHandler::SState::SState, COMDAT
; _this$ = ecx
  00000	8b c1		 mov	 eax, ecx
  00002	c3		 ret	 0
??0SState@IEventHandler@CActorInstance@@QAE@XZ ENDP	; CActorInstance::IEventHandler::SState::SState
_TEXT	ENDS
; Function compile flags: /Ogtp
; File E:\Metin2_server\SolWayneSF v6\ClientVS22\source\UserInterface\PythonPlayerEventHandler.cpp
;	COMDAT ?OnShoot@CNormalBowAttack_FlyEventHandler_AutoClear@CPythonPlayerEventHandler@@UAEXK@Z
_TEXT	SEGMENT
_dwSkillIndex$ = 8					; size = 4
?OnShoot@CNormalBowAttack_FlyEventHandler_AutoClear@CPythonPlayerEventHandler@@UAEXK@Z PROC ; CPythonPlayerEventHandler::CNormalBowAttack_FlyEventHandler_AutoClear::OnShoot, COMDAT
; _this$ = ecx

; 242  : {

  00000	55		 push	 ebp
  00001	8b ec		 mov	 ebp, esp

; 243  : 	CPythonNetworkStream& rpns=CPythonNetworkStream::Instance();
; 244  : 	rpns.SendShootPacket(dwSkillIndex);

  00003	8b 0d 00 00 00
	00		 mov	 ecx, DWORD PTR ?ms_singleton@?$CSingleton@VCPythonNetworkStream@@@@0PAVCPythonNetworkStream@@A ; CSingleton<CPythonNetworkStream>::ms_singleton

; 245  : }

  00009	5d		 pop	 ebp

; 243  : 	CPythonNetworkStream& rpns=CPythonNetworkStream::Instance();
; 244  : 	rpns.SendShootPacket(dwSkillIndex);

  0000a	e9 00 00 00 00	 jmp	 ?SendShootPacket@CPythonNetworkStream@@QAE_NI@Z ; CPythonNetworkStream::SendShootPacket
?OnShoot@CNormalBowAttack_FlyEventHandler_AutoClear@CPythonPlayerEventHandler@@UAEXK@Z ENDP ; CPythonPlayerEventHandler::CNormalBowAttack_FlyEventHandler_AutoClear::OnShoot
_TEXT	ENDS
; Function compile flags: /Ogtp
; File E:\Metin2_server\SolWayneSF v6\ClientVS22\source\UserInterface\PythonPlayerEventHandler.cpp
;	COMDAT ?Set@CNormalBowAttack_FlyEventHandler_AutoClear@CPythonPlayerEventHandler@@QAEXPAV2@PAVCInstanceBase@@1@Z
_TEXT	SEGMENT
_pParent$ = 8						; size = 4
_pInstMain$ = 12					; size = 4
_pInstTarget$ = 16					; size = 4
?Set@CNormalBowAttack_FlyEventHandler_AutoClear@CPythonPlayerEventHandler@@QAEXPAV2@PAVCInstanceBase@@1@Z PROC ; CPythonPlayerEventHandler::CNormalBowAttack_FlyEventHandler_AutoClear::Set, COMDAT
; _this$ = ecx

; 248  : {

  00000	55		 push	 ebp
  00001	8b ec		 mov	 ebp, esp

; 249  : 	m_pParent=(pParent);

  00003	8b 45 08	 mov	 eax, DWORD PTR _pParent$[ebp]
  00006	89 41 04	 mov	 DWORD PTR [ecx+4], eax

; 250  : 	m_pInstMain=(pInstMain);

  00009	8b 45 0c	 mov	 eax, DWORD PTR _pInstMain$[ebp]
  0000c	89 41 08	 mov	 DWORD PTR [ecx+8], eax

; 251  : 	m_pInstTarget=(pInstTarget);

  0000f	8b 45 10	 mov	 eax, DWORD PTR _pInstTarget$[ebp]
  00012	89 41 0c	 mov	 DWORD PTR [ecx+12], eax

; 252  : }

  00015	5d		 pop	 ebp
  00016	c2 0c 00	 ret	 12			; 0000000cH
?Set@CNormalBowAttack_FlyEventHandler_AutoClear@CPythonPlayerEventHandler@@QAEXPAV2@PAVCInstanceBase@@1@Z ENDP ; CPythonPlayerEventHandler::CNormalBowAttack_FlyEventHandler_AutoClear::Set
_TEXT	ENDS
; Function compile flags: /Ogtp
; File E:\Metin2_server\SolWayneSF v6\ClientVS22\source\UserInterface\PythonPlayerEventHandler.cpp
;	COMDAT ?OnExplodingAtAnotherTarget@CNormalBowAttack_FlyEventHandler_AutoClear@CPythonPlayerEventHandler@@UAEXKK@Z
_TEXT	SEGMENT
_dwSkillIndex$ = 8					; size = 4
_dwVID$ = 12						; size = 4
?OnExplodingAtAnotherTarget@CNormalBowAttack_FlyEventHandler_AutoClear@CPythonPlayerEventHandler@@UAEXKK@Z PROC ; CPythonPlayerEventHandler::CNormalBowAttack_FlyEventHandler_AutoClear::OnExplodingAtAnotherTarget, COMDAT
; _this$ = ecx

; 261  : 	return;
; 262  : 
; 263  : 	Tracef("Shoot :  target  : %d, %d\n", dwSkillIndex, dwVID);
; 264  : 
; 265  : 	CPythonNetworkStream& rkStream=CPythonNetworkStream::Instance();
; 266  : 	rkStream.SendAttackPacket(dwSkillIndex, dwVID);
; 267  : 
; 268  : 	CPythonCharacterManager& rkChrMgr = CPythonCharacterManager::Instance();
; 269  : 	CInstanceBase * pInstance = rkChrMgr.GetInstancePtr(dwVID);
; 270  : 	if (pInstance)
; 271  : 	{
; 272  : 		pInstance->GetGraphicThingInstanceRef().OnShootDamage();
; 273  : 	}
; 274  : }

  00000	c2 08 00	 ret	 8
?OnExplodingAtAnotherTarget@CNormalBowAttack_FlyEventHandler_AutoClear@CPythonPlayerEventHandler@@UAEXKK@Z ENDP ; CPythonPlayerEventHandler::CNormalBowAttack_FlyEventHandler_AutoClear::OnExplodingAtAnotherTarget
_TEXT	ENDS
; Function compile flags: /Ogtp
; File E:\Metin2_server\SolWayneSF v6\ClientVS22\source\UserInterface\PythonPlayerEventHandler.cpp
;	COMDAT ?OnExplodingAtTarget@CNormalBowAttack_FlyEventHandler_AutoClear@CPythonPlayerEventHandler@@UAEXK@Z
_TEXT	SEGMENT
_dwSkillIndex$ = 8					; size = 4
?OnExplodingAtTarget@CNormalBowAttack_FlyEventHandler_AutoClear@CPythonPlayerEventHandler@@UAEXK@Z PROC ; CPythonPlayerEventHandler::CNormalBowAttack_FlyEventHandler_AutoClear::OnExplodingAtTarget, COMDAT
; _this$ = ecx

; 277  : //	Tracef("Shoot :  target  : %d, %d\n", dwSkillIndex, m_pInstTarget->GetVirtualID());
; 278  : //	CPythonNetworkStream& rkStream=CPythonNetworkStream::Instance();
; 279  : //	rkStream.SendAttackPacket(dwSkillIndex, m_pInstTarget->GetVirtualID());
; 280  : }

  00000	c2 04 00	 ret	 4
?OnExplodingAtTarget@CNormalBowAttack_FlyEventHandler_AutoClear@CPythonPlayerEventHandler@@UAEXK@Z ENDP ; CPythonPlayerEventHandler::CNormalBowAttack_FlyEventHandler_AutoClear::OnExplodingAtTarget
_TEXT	ENDS
; Function compile flags: /Ogtp
; File C:\Program Files\Microsoft Visual Studio\2022\Community\VC\Tools\MSVC\14.34.31933\include\vector
;	COMDAT ??A?$vector@USVictim@CPythonPlayerEventHandler@@V?$allocator@USVictim@CPythonPlayerEventHandler@@@std@@@std@@QAEAAUSVictim@CPythonPlayerEventHandler@@I@Z
_TEXT	SEGMENT
__Pos$ = 8						; size = 4
??A?$vector@USVictim@CPythonPlayerEventHandler@@V?$allocator@USVictim@CPythonPlayerEventHandler@@@std@@@std@@QAEAAUSVictim@CPythonPlayerEventHandler@@I@Z PROC ; std::vector<CPythonPlayerEventHandler::SVictim,std::allocator<CPythonPlayerEventHandler::SVictim> >::operator[], COMDAT
; _this$ = ecx

; 1945 :     _NODISCARD _CONSTEXPR20 _Ty& operator[](const size_type _Pos) noexcept /* strengthened */ {

  00000	55		 push	 ebp
  00001	8b ec		 mov	 ebp, esp

; 1946 :         auto& _My_data = _Mypair._Myval2;
; 1947 : #if _CONTAINER_DEBUG_LEVEL > 0
; 1948 :         _STL_VERIFY(
; 1949 :             _Pos < static_cast<size_type>(_My_data._Mylast - _My_data._Myfirst), "vector subscript out of range");
; 1950 : #endif // _CONTAINER_DEBUG_LEVEL > 0
; 1951 : 
; 1952 :         return _My_data._Myfirst[_Pos];

  00003	8b 45 08	 mov	 eax, DWORD PTR __Pos$[ebp]
  00006	8d 14 40	 lea	 edx, DWORD PTR [eax+eax*2]
  00009	8b 01		 mov	 eax, DWORD PTR [ecx]
  0000b	8d 04 90	 lea	 eax, DWORD PTR [eax+edx*4]

; 1953 :     }

  0000e	5d		 pop	 ebp
  0000f	c2 04 00	 ret	 4
??A?$vector@USVictim@CPythonPlayerEventHandler@@V?$allocator@USVictim@CPythonPlayerEventHandler@@@std@@@std@@QAEAAUSVictim@CPythonPlayerEventHandler@@I@Z ENDP ; std::vector<CPythonPlayerEventHandler::SVictim,std::allocator<CPythonPlayerEventHandler::SVictim> >::operator[]
_TEXT	ENDS
; Function compile flags: /Ogtp
; File C:\Program Files\Microsoft Visual Studio\2022\Community\VC\Tools\MSVC\14.34.31933\include\vector
;	COMDAT ?size@?$vector@USVictim@CPythonPlayerEventHandler@@V?$allocator@USVictim@CPythonPlayerEventHandler@@@std@@@std@@QBEIXZ
_TEXT	SEGMENT
?size@?$vector@USVictim@CPythonPlayerEventHandler@@V?$allocator@USVictim@CPythonPlayerEventHandler@@@std@@@std@@QBEIXZ PROC ; std::vector<CPythonPlayerEventHandler::SVictim,std::allocator<CPythonPlayerEventHandler::SVictim> >::size, COMDAT
; _this$ = ecx

; 1931 :         auto& _My_data = _Mypair._Myval2;
; 1932 :         return static_cast<size_type>(_My_data._Mylast - _My_data._Myfirst);

  00000	8b 41 04	 mov	 eax, DWORD PTR [ecx+4]
  00003	2b 01		 sub	 eax, DWORD PTR [ecx]
  00005	c1 f8 02	 sar	 eax, 2
  00008	69 c0 ab aa aa
	aa		 imul	 eax, eax, -1431655765

; 1933 :     }

  0000e	c3		 ret	 0
?size@?$vector@USVictim@CPythonPlayerEventHandler@@V?$allocator@USVictim@CPythonPlayerEventHandler@@@std@@@std@@QBEIXZ ENDP ; std::vector<CPythonPlayerEventHandler::SVictim,std::allocator<CPythonPlayerEventHandler::SVictim> >::size
_TEXT	ENDS
; Function compile flags: /Ogtp
; File C:\Program Files\Microsoft Visual Studio\2022\Community\VC\Tools\MSVC\14.34.31933\include\vector
;	COMDAT ?empty@?$vector@USVictim@CPythonPlayerEventHandler@@V?$allocator@USVictim@CPythonPlayerEventHandler@@@std@@@std@@QBE_NXZ
_TEXT	SEGMENT
?empty@?$vector@USVictim@CPythonPlayerEventHandler@@V?$allocator@USVictim@CPythonPlayerEventHandler@@@std@@@std@@QBE_NXZ PROC ; std::vector<CPythonPlayerEventHandler::SVictim,std::allocator<CPythonPlayerEventHandler::SVictim> >::empty, COMDAT
; _this$ = ecx

; 1926 :         auto& _My_data = _Mypair._Myval2;
; 1927 :         return _My_data._Myfirst == _My_data._Mylast;

  00000	8b 01		 mov	 eax, DWORD PTR [ecx]
  00002	3b 41 04	 cmp	 eax, DWORD PTR [ecx+4]
  00005	0f 94 c0	 sete	 al

; 1928 :     }

  00008	c3		 ret	 0
?empty@?$vector@USVictim@CPythonPlayerEventHandler@@V?$allocator@USVictim@CPythonPlayerEventHandler@@@std@@@std@@QBE_NXZ ENDP ; std::vector<CPythonPlayerEventHandler::SVictim,std::allocator<CPythonPlayerEventHandler::SVictim> >::empty
_TEXT	ENDS
; Function compile flags: /Ogtp
; File C:\Program Files\Microsoft Visual Studio\2022\Community\VC\Tools\MSVC\14.34.31933\include\vector
;	COMDAT ?clear@?$vector@USVictim@CPythonPlayerEventHandler@@V?$allocator@USVictim@CPythonPlayerEventHandler@@@std@@@std@@QAEXXZ
_TEXT	SEGMENT
?clear@?$vector@USVictim@CPythonPlayerEventHandler@@V?$allocator@USVictim@CPythonPlayerEventHandler@@@std@@@std@@QAEXXZ PROC ; std::vector<CPythonPlayerEventHandler::SVictim,std::allocator<CPythonPlayerEventHandler::SVictim> >::clear, COMDAT
; _this$ = ecx

; 1825 :         auto& _My_data    = _Mypair._Myval2;
; 1826 :         pointer& _Myfirst = _My_data._Myfirst;
; 1827 :         pointer& _Mylast  = _My_data._Mylast;
; 1828 : 
; 1829 :         if (_Myfirst == _Mylast) { // already empty, nothing to do

  00000	8b 01		 mov	 eax, DWORD PTR [ecx]
  00002	3b 41 04	 cmp	 eax, DWORD PTR [ecx+4]
  00005	74 03		 je	 SHORT $LN1@clear

; 1830 :             // This is an optimization for debug mode: we can avoid taking the debug lock to invalidate iterators.
; 1831 :             // Note that when clearing an empty vector, this will preserve past-the-end iterators, which is allowed by
; 1832 :             // N4901 [tab:container.seq.req] "a.clear() [...] may invalidate the past-the-end iterator".
; 1833 :             return;
; 1834 :         }
; 1835 : 
; 1836 :         _My_data._Orphan_all();
; 1837 :         _Destroy_range(_Myfirst, _Mylast, _Getal());
; 1838 :         _ASAN_VECTOR_MODIFY(static_cast<difference_type>(_Myfirst - _Mylast)); // negative when destroying elements
; 1839 :         _Mylast = _Myfirst;

  00007	89 41 04	 mov	 DWORD PTR [ecx+4], eax
$LN1@clear:

; 1840 :     }

  0000a	c3		 ret	 0
?clear@?$vector@USVictim@CPythonPlayerEventHandler@@V?$allocator@USVictim@CPythonPlayerEventHandler@@@std@@@std@@QAEXXZ ENDP ; std::vector<CPythonPlayerEventHandler::SVictim,std::allocator<CPythonPlayerEventHandler::SVictim> >::clear
_TEXT	ENDS
; Function compile flags: /Ogtp
; File C:\Program Files\Microsoft Visual Studio\2022\Community\VC\Tools\MSVC\14.34.31933\include\vector
; File C:\Program Files\Microsoft Visual Studio\2022\Community\VC\Tools\MSVC\14.34.31933\include\xutility
; File C:\Program Files\Microsoft Visual Studio\2022\Community\VC\Tools\MSVC\14.34.31933\include\vector
;	COMDAT ?push_back@?$vector@USVictim@CPythonPlayerEventHandler@@V?$allocator@USVictim@CPythonPlayerEventHandler@@@std@@@std@@QAEXABUSVictim@CPythonPlayerEventHandler@@@Z
_TEXT	SEGMENT
__Val$ = 8						; size = 4
?push_back@?$vector@USVictim@CPythonPlayerEventHandler@@V?$allocator@USVictim@CPythonPlayerEventHandler@@@std@@@std@@QAEXABUSVictim@CPythonPlayerEventHandler@@@Z PROC ; std::vector<CPythonPlayerEventHandler::SVictim,std::allocator<CPythonPlayerEventHandler::SVictim> >::push_back, COMDAT
; _this$ = ecx

; 935  :     _CONSTEXPR20 void push_back(const _Ty& _Val) { // insert element at end, provide strong guarantee

  00000	55		 push	 ebp
  00001	8b ec		 mov	 ebp, esp

; 844  :         if (_Mylast != _My_data._Myend) {

  00003	8b 51 04	 mov	 edx, DWORD PTR [ecx+4]
  00006	3b 51 08	 cmp	 edx, DWORD PTR [ecx+8]
  00009	74 19		 je	 SHORT $LN4@push_back
; File C:\Program Files\Microsoft Visual Studio\2022\Community\VC\Tools\MSVC\14.34.31933\include\xutility

; 231  :         ::new (_Voidify_iter(_STD addressof(_Obj))) _Ty(_STD forward<_Types>(_Args)...);

  0000b	8b 45 08	 mov	 eax, DWORD PTR __Val$[ebp]
  0000e	f3 0f 7e 00	 movq	 xmm0, QWORD PTR [eax]
  00012	66 0f d6 02	 movq	 QWORD PTR [edx], xmm0
  00016	8b 40 08	 mov	 eax, DWORD PTR [eax+8]
  00019	89 42 08	 mov	 DWORD PTR [edx+8], eax
; File C:\Program Files\Microsoft Visual Studio\2022\Community\VC\Tools\MSVC\14.34.31933\include\vector

; 869  :         ++_Mylast;

  0001c	83 41 04 0c	 add	 DWORD PTR [ecx+4], 12	; 0000000cH

; 936  :         _Emplace_one_at_back(_Val);
; 937  :     }

  00020	5d		 pop	 ebp
  00021	c2 04 00	 ret	 4
$LN4@push_back:

; 848  :         return *_Emplace_reallocate(_Mylast, _STD forward<_Valty>(_Val)...);

  00024	ff 75 08	 push	 DWORD PTR __Val$[ebp]
  00027	52		 push	 edx
  00028	e8 00 00 00 00	 call	 ??$_Emplace_reallocate@ABUSVictim@CPythonPlayerEventHandler@@@?$vector@USVictim@CPythonPlayerEventHandler@@V?$allocator@USVictim@CPythonPlayerEventHandler@@@std@@@std@@AAEPAUSVictim@CPythonPlayerEventHandler@@QAU23@ABU23@@Z ; std::vector<CPythonPlayerEventHandler::SVictim,std::allocator<CPythonPlayerEventHandler::SVictim> >::_Emplace_reallocate<CPythonPlayerEventHandler::SVictim const &>

; 936  :         _Emplace_one_at_back(_Val);
; 937  :     }

  0002d	5d		 pop	 ebp
  0002e	c2 04 00	 ret	 4
?push_back@?$vector@USVictim@CPythonPlayerEventHandler@@V?$allocator@USVictim@CPythonPlayerEventHandler@@@std@@@std@@QAEXABUSVictim@CPythonPlayerEventHandler@@@Z ENDP ; std::vector<CPythonPlayerEventHandler::SVictim,std::allocator<CPythonPlayerEventHandler::SVictim> >::push_back
_TEXT	ENDS
; Function compile flags: /Ogtp
; File C:\Program Files\Microsoft Visual Studio\2022\Community\VC\Tools\MSVC\14.34.31933\include\vector
; File C:\Program Files\Microsoft Visual Studio\2022\Community\VC\Tools\MSVC\14.34.31933\include\xmemory
; File C:\Program Files\Microsoft Visual Studio\2022\Community\VC\Tools\MSVC\14.34.31933\include\vector
; File C:\Program Files\Microsoft Visual Studio\2022\Community\VC\Tools\MSVC\14.34.31933\include\xmemory
; File C:\Program Files\Microsoft Visual Studio\2022\Community\VC\Tools\MSVC\14.34.31933\include\vector
; File C:\Program Files\Microsoft Visual Studio\2022\Community\VC\Tools\MSVC\14.34.31933\include\xmemory
; File C:\Program Files\Microsoft Visual Studio\2022\Community\VC\Tools\MSVC\14.34.31933\include\vector
;	COMDAT ??1?$vector@USVictim@CPythonPlayerEventHandler@@V?$allocator@USVictim@CPythonPlayerEventHandler@@@std@@@std@@QAE@XZ
_TEXT	SEGMENT
??1?$vector@USVictim@CPythonPlayerEventHandler@@V?$allocator@USVictim@CPythonPlayerEventHandler@@@std@@@std@@QAE@XZ PROC ; std::vector<CPythonPlayerEventHandler::SVictim,std::allocator<CPythonPlayerEventHandler::SVictim> >::~vector<CPythonPlayerEventHandler::SVictim,std::allocator<CPythonPlayerEventHandler::SVictim> >, COMDAT
; _this$ = ecx

; 829  :     _CONSTEXPR20 ~vector() noexcept {

  00000	56		 push	 esi
  00001	8b f1		 mov	 esi, ecx

; 2107 :         if (_Myfirst) { // destroy and deallocate old array

  00003	8b 16		 mov	 edx, DWORD PTR [esi]
  00005	85 d2		 test	 edx, edx
  00007	74 4e		 je	 SHORT $LN4@vector

; 2108 :             _Destroy_range(_Myfirst, _Mylast, _Al);
; 2109 :             _ASAN_VECTOR_REMOVE;
; 2110 :             _Al.deallocate(_Myfirst, static_cast<size_type>(_Myend - _Myfirst));

  00009	8b 46 08	 mov	 eax, DWORD PTR [esi+8]
  0000c	2b c2		 sub	 eax, edx
  0000e	c1 f8 02	 sar	 eax, 2
  00011	69 c0 ab aa aa
	aa		 imul	 eax, eax, -1431655765
; File C:\Program Files\Microsoft Visual Studio\2022\Community\VC\Tools\MSVC\14.34.31933\include\xmemory

; 830  :         _Deallocate<_New_alignof<_Ty>>(_Ptr, sizeof(_Ty) * _Count);

  00017	8d 0c 40	 lea	 ecx, DWORD PTR [eax+eax*2]
  0001a	c1 e1 02	 shl	 ecx, 2

; 251  :         if (_Bytes >= _Big_allocation_threshold) { // boost the alignment of big allocations to help autovectorization

  0001d	81 f9 00 10 00
	00		 cmp	 ecx, 4096		; 00001000H
  00023	72 14		 jb	 SHORT $LN22@vector

; 147  :     _Bytes += _Non_user_size;

  00025	57		 push	 edi

; 148  : 
; 149  :     const uintptr_t* const _Ptr_user = static_cast<uintptr_t*>(_Ptr);
; 150  :     const uintptr_t _Ptr_container   = _Ptr_user[-1];

  00026	8b 7a fc	 mov	 edi, DWORD PTR [edx-4]
  00029	83 c1 23	 add	 ecx, 35			; 00000023H

; 151  : 
; 152  :     // If the following asserts, it likely means that we are performing
; 153  :     // an aligned delete on memory coming from an unaligned allocation.
; 154  :     _STL_ASSERT(_Ptr_user[-2] == _Big_allocation_sentinel, "invalid argument");
; 155  : 
; 156  :     // Extra paranoia on aligned allocation/deallocation; ensure _Ptr_container is
; 157  :     // in range [_Min_back_shift, _Non_user_size]
; 158  : #ifdef _DEBUG
; 159  :     constexpr uintptr_t _Min_back_shift = 2 * sizeof(void*);
; 160  : #else // ^^^ _DEBUG ^^^ // vvv !_DEBUG vvv
; 161  :     constexpr uintptr_t _Min_back_shift = sizeof(void*);
; 162  : #endif // _DEBUG
; 163  :     const uintptr_t _Back_shift = reinterpret_cast<uintptr_t>(_Ptr) - _Ptr_container;

  0002c	2b d7		 sub	 edx, edi

; 164  :     _STL_VERIFY(_Back_shift >= _Min_back_shift && _Back_shift <= _Non_user_size, "invalid argument");

  0002e	8d 42 fc	 lea	 eax, DWORD PTR [edx-4]
  00031	83 f8 1f	 cmp	 eax, 31			; 0000001fH
  00034	77 23		 ja	 SHORT $LN19@vector

; 165  :     _Ptr = reinterpret_cast<void*>(_Ptr_container);

  00036	8b d7		 mov	 edx, edi
  00038	5f		 pop	 edi
$LN22@vector:

; 255  :         ::operator delete(_Ptr, _Bytes);

  00039	51		 push	 ecx
  0003a	52		 push	 edx
  0003b	e8 00 00 00 00	 call	 ??3@YAXPAXI@Z		; operator delete
; File C:\Program Files\Microsoft Visual Studio\2022\Community\VC\Tools\MSVC\14.34.31933\include\vector

; 2112 :             _Myfirst = nullptr;

  00040	c7 06 00 00 00
	00		 mov	 DWORD PTR [esi], 0
; File C:\Program Files\Microsoft Visual Studio\2022\Community\VC\Tools\MSVC\14.34.31933\include\xmemory

; 255  :         ::operator delete(_Ptr, _Bytes);

  00046	83 c4 08	 add	 esp, 8
; File C:\Program Files\Microsoft Visual Studio\2022\Community\VC\Tools\MSVC\14.34.31933\include\vector

; 2113 :             _Mylast  = nullptr;

  00049	c7 46 04 00 00
	00 00		 mov	 DWORD PTR [esi+4], 0

; 2114 :             _Myend   = nullptr;

  00050	c7 46 08 00 00
	00 00		 mov	 DWORD PTR [esi+8], 0
$LN4@vector:
  00057	5e		 pop	 esi

; 835  :     }

  00058	c3		 ret	 0
$LN19@vector:
; File C:\Program Files\Microsoft Visual Studio\2022\Community\VC\Tools\MSVC\14.34.31933\include\xmemory

; 164  :     _STL_VERIFY(_Back_shift >= _Min_back_shift && _Back_shift <= _Non_user_size, "invalid argument");

  00059	e8 00 00 00 00	 call	 __invalid_parameter_noinfo_noreturn
$LN27@vector:
  0005e	cc		 int	 3
??1?$vector@USVictim@CPythonPlayerEventHandler@@V?$allocator@USVictim@CPythonPlayerEventHandler@@@std@@@std@@QAE@XZ ENDP ; std::vector<CPythonPlayerEventHandler::SVictim,std::allocator<CPythonPlayerEventHandler::SVictim> >::~vector<CPythonPlayerEventHandler::SVictim,std::allocator<CPythonPlayerEventHandler::SVictim> >
_TEXT	ENDS
; Function compile flags: /Ogtp
; File C:\Program Files\Microsoft Visual Studio\2022\Community\VC\Tools\MSVC\14.34.31933\include\vector
;	COMDAT ??0?$vector@USVictim@CPythonPlayerEventHandler@@V?$allocator@USVictim@CPythonPlayerEventHandler@@@std@@@std@@QAE@XZ
_TEXT	SEGMENT
??0?$vector@USVictim@CPythonPlayerEventHandler@@V?$allocator@USVictim@CPythonPlayerEventHandler@@@std@@@std@@QAE@XZ PROC ; std::vector<CPythonPlayerEventHandler::SVictim,std::allocator<CPythonPlayerEventHandler::SVictim> >::vector<CPythonPlayerEventHandler::SVictim,std::allocator<CPythonPlayerEventHandler::SVictim> >, COMDAT
; _this$ = ecx

; 390  :     _CONSTEXPR20 _Vector_val() noexcept : _Myfirst(), _Mylast(), _Myend() {}

  00000	c7 01 00 00 00
	00		 mov	 DWORD PTR [ecx], 0

; 674  :         _Mypair._Myval2._Alloc_proxy(_GET_PROXY_ALLOCATOR(_Alty, _Getal()));
; 675  :     }

  00006	8b c1		 mov	 eax, ecx

; 390  :     _CONSTEXPR20 _Vector_val() noexcept : _Myfirst(), _Mylast(), _Myend() {}

  00008	c7 41 04 00 00
	00 00		 mov	 DWORD PTR [ecx+4], 0
  0000f	c7 41 08 00 00
	00 00		 mov	 DWORD PTR [ecx+8], 0

; 674  :         _Mypair._Myval2._Alloc_proxy(_GET_PROXY_ALLOCATOR(_Alty, _Getal()));
; 675  :     }

  00016	c3		 ret	 0
??0?$vector@USVictim@CPythonPlayerEventHandler@@V?$allocator@USVictim@CPythonPlayerEventHandler@@@std@@@std@@QAE@XZ ENDP ; std::vector<CPythonPlayerEventHandler::SVictim,std::allocator<CPythonPlayerEventHandler::SVictim> >::vector<CPythonPlayerEventHandler::SVictim,std::allocator<CPythonPlayerEventHandler::SVictim> >
_TEXT	ENDS
; Function compile flags: /Ogtp
; File C:\Program Files\Microsoft Visual Studio\2022\Community\VC\Tools\MSVC\14.34.31933\include\vector
;	COMDAT ?_Getal@?$vector@USVictim@CPythonPlayerEventHandler@@V?$allocator@USVictim@CPythonPlayerEventHandler@@@std@@@std@@AAEAAV?$allocator@USVictim@CPythonPlayerEventHandler@@@2@XZ
_TEXT	SEGMENT
?_Getal@?$vector@USVictim@CPythonPlayerEventHandler@@V?$allocator@USVictim@CPythonPlayerEventHandler@@@std@@@std@@AAEAAV?$allocator@USVictim@CPythonPlayerEventHandler@@@2@XZ PROC ; std::vector<CPythonPlayerEventHandler::SVictim,std::allocator<CPythonPlayerEventHandler::SVictim> >::_Getal, COMDAT
; _this$ = ecx

; 2244 :         return _Mypair._Get_first();

  00000	8b c1		 mov	 eax, ecx

; 2245 :     }

  00002	c3		 ret	 0
?_Getal@?$vector@USVictim@CPythonPlayerEventHandler@@V?$allocator@USVictim@CPythonPlayerEventHandler@@@std@@@std@@AAEAAV?$allocator@USVictim@CPythonPlayerEventHandler@@@2@XZ ENDP ; std::vector<CPythonPlayerEventHandler::SVictim,std::allocator<CPythonPlayerEventHandler::SVictim> >::_Getal
_TEXT	ENDS
; Function compile flags: /Ogtp
; File C:\Program Files\Microsoft Visual Studio\2022\Community\VC\Tools\MSVC\14.34.31933\include\vector
; File C:\Program Files\Microsoft Visual Studio\2022\Community\VC\Tools\MSVC\14.34.31933\include\xmemory
; File C:\Program Files\Microsoft Visual Studio\2022\Community\VC\Tools\MSVC\14.34.31933\include\vector
; File C:\Program Files\Microsoft Visual Studio\2022\Community\VC\Tools\MSVC\14.34.31933\include\xmemory
; File C:\Program Files\Microsoft Visual Studio\2022\Community\VC\Tools\MSVC\14.34.31933\include\vector
; File C:\Program Files\Microsoft Visual Studio\2022\Community\VC\Tools\MSVC\14.34.31933\include\xmemory
; File C:\Program Files\Microsoft Visual Studio\2022\Community\VC\Tools\MSVC\14.34.31933\include\vector
;	COMDAT ?_Tidy@?$vector@USVictim@CPythonPlayerEventHandler@@V?$allocator@USVictim@CPythonPlayerEventHandler@@@std@@@std@@AAEXXZ
_TEXT	SEGMENT
?_Tidy@?$vector@USVictim@CPythonPlayerEventHandler@@V?$allocator@USVictim@CPythonPlayerEventHandler@@@std@@@std@@AAEXXZ PROC ; std::vector<CPythonPlayerEventHandler::SVictim,std::allocator<CPythonPlayerEventHandler::SVictim> >::_Tidy, COMDAT
; _this$ = ecx

; 2098 :     _CONSTEXPR20 void _Tidy() noexcept { // free all storage

  00000	56		 push	 esi
  00001	8b f1		 mov	 esi, ecx

; 2099 :         auto& _Al         = _Getal();
; 2100 :         auto& _My_data    = _Mypair._Myval2;
; 2101 :         pointer& _Myfirst = _My_data._Myfirst;
; 2102 :         pointer& _Mylast  = _My_data._Mylast;
; 2103 :         pointer& _Myend   = _My_data._Myend;
; 2104 : 
; 2105 :         _My_data._Orphan_all();
; 2106 : 
; 2107 :         if (_Myfirst) { // destroy and deallocate old array

  00003	8b 16		 mov	 edx, DWORD PTR [esi]
  00005	85 d2		 test	 edx, edx
  00007	74 4e		 je	 SHORT $LN2@Tidy

; 2108 :             _Destroy_range(_Myfirst, _Mylast, _Al);
; 2109 :             _ASAN_VECTOR_REMOVE;
; 2110 :             _Al.deallocate(_Myfirst, static_cast<size_type>(_Myend - _Myfirst));

  00009	8b 46 08	 mov	 eax, DWORD PTR [esi+8]
  0000c	2b c2		 sub	 eax, edx
  0000e	c1 f8 02	 sar	 eax, 2
  00011	69 c0 ab aa aa
	aa		 imul	 eax, eax, -1431655765
; File C:\Program Files\Microsoft Visual Studio\2022\Community\VC\Tools\MSVC\14.34.31933\include\xmemory

; 830  :         _Deallocate<_New_alignof<_Ty>>(_Ptr, sizeof(_Ty) * _Count);

  00017	8d 0c 40	 lea	 ecx, DWORD PTR [eax+eax*2]
  0001a	c1 e1 02	 shl	 ecx, 2

; 251  :         if (_Bytes >= _Big_allocation_threshold) { // boost the alignment of big allocations to help autovectorization

  0001d	81 f9 00 10 00
	00		 cmp	 ecx, 4096		; 00001000H
  00023	72 14		 jb	 SHORT $LN20@Tidy

; 147  :     _Bytes += _Non_user_size;

  00025	57		 push	 edi

; 148  : 
; 149  :     const uintptr_t* const _Ptr_user = static_cast<uintptr_t*>(_Ptr);
; 150  :     const uintptr_t _Ptr_container   = _Ptr_user[-1];

  00026	8b 7a fc	 mov	 edi, DWORD PTR [edx-4]
  00029	83 c1 23	 add	 ecx, 35			; 00000023H

; 151  : 
; 152  :     // If the following asserts, it likely means that we are performing
; 153  :     // an aligned delete on memory coming from an unaligned allocation.
; 154  :     _STL_ASSERT(_Ptr_user[-2] == _Big_allocation_sentinel, "invalid argument");
; 155  : 
; 156  :     // Extra paranoia on aligned allocation/deallocation; ensure _Ptr_container is
; 157  :     // in range [_Min_back_shift, _Non_user_size]
; 158  : #ifdef _DEBUG
; 159  :     constexpr uintptr_t _Min_back_shift = 2 * sizeof(void*);
; 160  : #else // ^^^ _DEBUG ^^^ // vvv !_DEBUG vvv
; 161  :     constexpr uintptr_t _Min_back_shift = sizeof(void*);
; 162  : #endif // _DEBUG
; 163  :     const uintptr_t _Back_shift = reinterpret_cast<uintptr_t>(_Ptr) - _Ptr_container;

  0002c	2b d7		 sub	 edx, edi

; 164  :     _STL_VERIFY(_Back_shift >= _Min_back_shift && _Back_shift <= _Non_user_size, "invalid argument");

  0002e	8d 42 fc	 lea	 eax, DWORD PTR [edx-4]
  00031	83 f8 1f	 cmp	 eax, 31			; 0000001fH
  00034	77 23		 ja	 SHORT $LN17@Tidy

; 165  :     _Ptr = reinterpret_cast<void*>(_Ptr_container);

  00036	8b d7		 mov	 edx, edi
  00038	5f		 pop	 edi
$LN20@Tidy:

; 255  :         ::operator delete(_Ptr, _Bytes);

  00039	51		 push	 ecx
  0003a	52		 push	 edx
  0003b	e8 00 00 00 00	 call	 ??3@YAXPAXI@Z		; operator delete
; File C:\Program Files\Microsoft Visual Studio\2022\Community\VC\Tools\MSVC\14.34.31933\include\vector

; 2112 :             _Myfirst = nullptr;

  00040	c7 06 00 00 00
	00		 mov	 DWORD PTR [esi], 0
; File C:\Program Files\Microsoft Visual Studio\2022\Community\VC\Tools\MSVC\14.34.31933\include\xmemory

; 255  :         ::operator delete(_Ptr, _Bytes);

  00046	83 c4 08	 add	 esp, 8
; File C:\Program Files\Microsoft Visual Studio\2022\Community\VC\Tools\MSVC\14.34.31933\include\vector

; 2113 :             _Mylast  = nullptr;

  00049	c7 46 04 00 00
	00 00		 mov	 DWORD PTR [esi+4], 0

; 2114 :             _Myend   = nullptr;

  00050	c7 46 08 00 00
	00 00		 mov	 DWORD PTR [esi+8], 0
$LN2@Tidy:

; 2116 :     }

  00057	5e		 pop	 esi
  00058	c3		 ret	 0
$LN17@Tidy:
; File C:\Program Files\Microsoft Visual Studio\2022\Community\VC\Tools\MSVC\14.34.31933\include\xmemory

; 164  :     _STL_VERIFY(_Back_shift >= _Min_back_shift && _Back_shift <= _Non_user_size, "invalid argument");

  00059	e8 00 00 00 00	 call	 __invalid_parameter_noinfo_noreturn
$LN24@Tidy:
  0005e	cc		 int	 3
?_Tidy@?$vector@USVictim@CPythonPlayerEventHandler@@V?$allocator@USVictim@CPythonPlayerEventHandler@@@std@@@std@@AAEXXZ ENDP ; std::vector<CPythonPlayerEventHandler::SVictim,std::allocator<CPythonPlayerEventHandler::SVictim> >::_Tidy
_TEXT	ENDS
; Function compile flags: /Ogtp
; File C:\Program Files\Microsoft Visual Studio\2022\Community\VC\Tools\MSVC\14.34.31933\include\xmemory
;	COMDAT ?_Get_first@?$_Compressed_pair@V?$allocator@USVictim@CPythonPlayerEventHandler@@@std@@V?$_Vector_val@U?$_Simple_types@USVictim@CPythonPlayerEventHandler@@@std@@@2@$00@std@@QAEAAV?$allocator@USVictim@CPythonPlayerEventHandler@@@2@XZ
_TEXT	SEGMENT
?_Get_first@?$_Compressed_pair@V?$allocator@USVictim@CPythonPlayerEventHandler@@@std@@V?$_Vector_val@U?$_Simple_types@USVictim@CPythonPlayerEventHandler@@@std@@@2@$00@std@@QAEAAV?$allocator@USVictim@CPythonPlayerEventHandler@@@2@XZ PROC ; std::_Compressed_pair<std::allocator<CPythonPlayerEventHandler::SVictim>,std::_Vector_val<std::_Simple_types<CPythonPlayerEventHandler::SVictim> >,1>::_Get_first, COMDAT
; _this$ = ecx

; 1384 :         return *this;

  00000	8b c1		 mov	 eax, ecx

; 1385 :     }

  00002	c3		 ret	 0
?_Get_first@?$_Compressed_pair@V?$allocator@USVictim@CPythonPlayerEventHandler@@@std@@V?$_Vector_val@U?$_Simple_types@USVictim@CPythonPlayerEventHandler@@@std@@@2@$00@std@@QAEAAV?$allocator@USVictim@CPythonPlayerEventHandler@@@2@XZ ENDP ; std::_Compressed_pair<std::allocator<CPythonPlayerEventHandler::SVictim>,std::_Vector_val<std::_Simple_types<CPythonPlayerEventHandler::SVictim> >,1>::_Get_first
_TEXT	ENDS
; Function compile flags: /Ogtp
; File C:\Program Files\Microsoft Visual Studio\2022\Community\VC\Tools\MSVC\14.34.31933\include\xmemory
;	COMDAT ?deallocate@?$allocator@USVictim@CPythonPlayerEventHandler@@@std@@QAEXQAUSVictim@CPythonPlayerEventHandler@@I@Z
_TEXT	SEGMENT
__Ptr$ = 8						; size = 4
__Count$ = 12						; size = 4
?deallocate@?$allocator@USVictim@CPythonPlayerEventHandler@@@std@@QAEXQAUSVictim@CPythonPlayerEventHandler@@I@Z PROC ; std::allocator<CPythonPlayerEventHandler::SVictim>::deallocate, COMDAT
; _this$dead$ = ecx

; 827  :     _CONSTEXPR20 void deallocate(_Ty* const _Ptr, const size_t _Count) {

  00000	55		 push	 ebp
  00001	8b ec		 mov	 ebp, esp

; 828  :         _STL_ASSERT(_Ptr != nullptr || _Count == 0, "null pointer cannot point to a block of non-zero size");
; 829  :         // no overflow check on the following multiply; we assume _Allocate did that check
; 830  :         _Deallocate<_New_alignof<_Ty>>(_Ptr, sizeof(_Ty) * _Count);

  00003	8b 45 0c	 mov	 eax, DWORD PTR __Count$[ebp]
  00006	8d 0c 40	 lea	 ecx, DWORD PTR [eax+eax*2]
  00009	8b 45 08	 mov	 eax, DWORD PTR __Ptr$[ebp]
  0000c	c1 e1 02	 shl	 ecx, 2

; 251  :         if (_Bytes >= _Big_allocation_threshold) { // boost the alignment of big allocations to help autovectorization

  0000f	81 f9 00 10 00
	00		 cmp	 ecx, 4096		; 00001000H
  00015	72 12		 jb	 SHORT $LN17@deallocate

; 150  :     const uintptr_t _Ptr_container   = _Ptr_user[-1];

  00017	8b 50 fc	 mov	 edx, DWORD PTR [eax-4]
  0001a	83 c1 23	 add	 ecx, 35			; 00000023H

; 151  : 
; 152  :     // If the following asserts, it likely means that we are performing
; 153  :     // an aligned delete on memory coming from an unaligned allocation.
; 154  :     _STL_ASSERT(_Ptr_user[-2] == _Big_allocation_sentinel, "invalid argument");
; 155  : 
; 156  :     // Extra paranoia on aligned allocation/deallocation; ensure _Ptr_container is
; 157  :     // in range [_Min_back_shift, _Non_user_size]
; 158  : #ifdef _DEBUG
; 159  :     constexpr uintptr_t _Min_back_shift = 2 * sizeof(void*);
; 160  : #else // ^^^ _DEBUG ^^^ // vvv !_DEBUG vvv
; 161  :     constexpr uintptr_t _Min_back_shift = sizeof(void*);
; 162  : #endif // _DEBUG
; 163  :     const uintptr_t _Back_shift = reinterpret_cast<uintptr_t>(_Ptr) - _Ptr_container;

  0001d	2b c2		 sub	 eax, edx

; 164  :     _STL_VERIFY(_Back_shift >= _Min_back_shift && _Back_shift <= _Non_user_size, "invalid argument");

  0001f	83 c0 fc	 add	 eax, -4			; fffffffcH
  00022	83 f8 1f	 cmp	 eax, 31			; 0000001fH
  00025	77 10		 ja	 SHORT $LN14@deallocate

; 165  :     _Ptr = reinterpret_cast<void*>(_Ptr_container);

  00027	8b c2		 mov	 eax, edx
$LN17@deallocate:

; 255  :         ::operator delete(_Ptr, _Bytes);

  00029	51		 push	 ecx
  0002a	50		 push	 eax
  0002b	e8 00 00 00 00	 call	 ??3@YAXPAXI@Z		; operator delete
  00030	83 c4 08	 add	 esp, 8

; 831  :     }

  00033	5d		 pop	 ebp
  00034	c2 08 00	 ret	 8
$LN14@deallocate:

; 164  :     _STL_VERIFY(_Back_shift >= _Min_back_shift && _Back_shift <= _Non_user_size, "invalid argument");

  00037	e8 00 00 00 00	 call	 __invalid_parameter_noinfo_noreturn
$LN20@deallocate:
  0003c	cc		 int	 3
?deallocate@?$allocator@USVictim@CPythonPlayerEventHandler@@@std@@QAEXQAUSVictim@CPythonPlayerEventHandler@@I@Z ENDP ; std::allocator<CPythonPlayerEventHandler::SVictim>::deallocate
_TEXT	ENDS
; Function compile flags: /Ogtp
; File C:\Program Files\Microsoft Visual Studio\2022\Community\VC\Tools\MSVC\14.34.31933\include\xmemory
;	COMDAT ??$_Destroy_range@V?$allocator@USVictim@CPythonPlayerEventHandler@@@std@@@std@@YAXPAUSVictim@CPythonPlayerEventHandler@@QAU12@AAV?$allocator@USVictim@CPythonPlayerEventHandler@@@0@@Z
_TEXT	SEGMENT
__Al$dead$ = 8						; size = 4
??$_Destroy_range@V?$allocator@USVictim@CPythonPlayerEventHandler@@@std@@@std@@YAXPAUSVictim@CPythonPlayerEventHandler@@QAU12@AAV?$allocator@USVictim@CPythonPlayerEventHandler@@@0@@Z PROC ; std::_Destroy_range<std::allocator<CPythonPlayerEventHandler::SVictim> >, COMDAT
; __First$dead$ = ecx
; __Last$dead$ = edx

; 944  :     // note that this is an optimization for debug mode codegen; in release mode the BE removes all of this
; 945  :     using _Ty = typename _Alloc::value_type;
; 946  :     if constexpr (!conjunction_v<is_trivially_destructible<_Ty>, _Uses_default_destroy<_Alloc, _Ty*>>) {
; 947  :         for (; _First != _Last; ++_First) {
; 948  :             allocator_traits<_Alloc>::destroy(_Al, _Unfancy(_First));
; 949  :         }
; 950  :     }
; 951  : }

  00000	c2 00 00	 ret	 0
??$_Destroy_range@V?$allocator@USVictim@CPythonPlayerEventHandler@@@std@@@std@@YAXPAUSVictim@CPythonPlayerEventHandler@@QAU12@AAV?$allocator@USVictim@CPythonPlayerEventHandler@@@0@@Z ENDP ; std::_Destroy_range<std::allocator<CPythonPlayerEventHandler::SVictim> >
_TEXT	ENDS
; Function compile flags: /Ogtp
; File C:\Program Files\Microsoft Visual Studio\2022\Community\VC\Tools\MSVC\14.34.31933\include\vector
; File C:\Program Files\Microsoft Visual Studio\2022\Community\VC\Tools\MSVC\14.34.31933\include\xutility
; File C:\Program Files\Microsoft Visual Studio\2022\Community\VC\Tools\MSVC\14.34.31933\include\vector
;	COMDAT ??$_Emplace_one_at_back@ABUSVictim@CPythonPlayerEventHandler@@@?$vector@USVictim@CPythonPlayerEventHandler@@V?$allocator@USVictim@CPythonPlayerEventHandler@@@std@@@std@@AAEAAUSVictim@CPythonPlayerEventHandler@@ABU23@@Z
_TEXT	SEGMENT
_<_Val_0>$ = 8						; size = 4
??$_Emplace_one_at_back@ABUSVictim@CPythonPlayerEventHandler@@@?$vector@USVictim@CPythonPlayerEventHandler@@V?$allocator@USVictim@CPythonPlayerEventHandler@@@std@@@std@@AAEAAUSVictim@CPythonPlayerEventHandler@@ABU23@@Z PROC ; std::vector<CPythonPlayerEventHandler::SVictim,std::allocator<CPythonPlayerEventHandler::SVictim> >::_Emplace_one_at_back<CPythonPlayerEventHandler::SVictim const &>, COMDAT
; _this$ = ecx

; 839  :     _CONSTEXPR20 _Ty& _Emplace_one_at_back(_Valty&&... _Val) {

  00000	55		 push	 ebp
  00001	8b ec		 mov	 ebp, esp
  00003	8b d1		 mov	 edx, ecx

; 840  :         // insert by perfectly forwarding into element at end, provide strong guarantee
; 841  :         auto& _My_data   = _Mypair._Myval2;
; 842  :         pointer& _Mylast = _My_data._Mylast;
; 843  : 
; 844  :         if (_Mylast != _My_data._Myend) {

  00005	8b 4a 04	 mov	 ecx, DWORD PTR [edx+4]
  00008	3b 4a 08	 cmp	 ecx, DWORD PTR [edx+8]
  0000b	74 1e		 je	 SHORT $LN2@Emplace_on
; File C:\Program Files\Microsoft Visual Studio\2022\Community\VC\Tools\MSVC\14.34.31933\include\xutility

; 231  :         ::new (_Voidify_iter(_STD addressof(_Obj))) _Ty(_STD forward<_Types>(_Args)...);

  0000d	8b 45 08	 mov	 eax, DWORD PTR _<_Val_0>$[ebp]
  00010	f3 0f 7e 00	 movq	 xmm0, QWORD PTR [eax]
  00014	66 0f d6 01	 movq	 QWORD PTR [ecx], xmm0
  00018	8b 40 08	 mov	 eax, DWORD PTR [eax+8]
  0001b	89 41 08	 mov	 DWORD PTR [ecx+8], eax
; File C:\Program Files\Microsoft Visual Studio\2022\Community\VC\Tools\MSVC\14.34.31933\include\vector

; 868  :         _Ty& _Result = *_Mylast;

  0001e	8b 42 04	 mov	 eax, DWORD PTR [edx+4]

; 869  :         ++_Mylast;

  00021	8d 48 0c	 lea	 ecx, DWORD PTR [eax+12]
  00024	89 4a 04	 mov	 DWORD PTR [edx+4], ecx

; 849  :     }

  00027	5d		 pop	 ebp
  00028	c2 04 00	 ret	 4
$LN2@Emplace_on:

; 845  :             return _Emplace_back_with_unused_capacity(_STD forward<_Valty>(_Val)...);
; 846  :         }
; 847  : 
; 848  :         return *_Emplace_reallocate(_Mylast, _STD forward<_Valty>(_Val)...);

  0002b	ff 75 08	 push	 DWORD PTR _<_Val_0>$[ebp]
  0002e	51		 push	 ecx
  0002f	8b ca		 mov	 ecx, edx
  00031	e8 00 00 00 00	 call	 ??$_Emplace_reallocate@ABUSVictim@CPythonPlayerEventHandler@@@?$vector@USVictim@CPythonPlayerEventHandler@@V?$allocator@USVictim@CPythonPlayerEventHandler@@@std@@@std@@AAEPAUSVictim@CPythonPlayerEventHandler@@QAU23@ABU23@@Z ; std::vector<CPythonPlayerEventHandler::SVictim,std::allocator<CPythonPlayerEventHandler::SVictim> >::_Emplace_reallocate<CPythonPlayerEventHandler::SVictim const &>

; 849  :     }

  00036	5d		 pop	 ebp
  00037	c2 04 00	 ret	 4
??$_Emplace_one_at_back@ABUSVictim@CPythonPlayerEventHandler@@@?$vector@USVictim@CPythonPlayerEventHandler@@V?$allocator@USVictim@CPythonPlayerEventHandler@@@std@@@std@@AAEAAUSVictim@CPythonPlayerEventHandler@@ABU23@@Z ENDP ; std::vector<CPythonPlayerEventHandler::SVictim,std::allocator<CPythonPlayerEventHandler::SVictim> >::_Emplace_one_at_back<CPythonPlayerEventHandler::SVictim const &>
_TEXT	ENDS
; Function compile flags: /Ogtp
; File C:\Program Files\Microsoft Visual Studio\2022\Community\VC\Tools\MSVC\14.34.31933\include\xmemory
; File C:\Program Files\Microsoft Visual Studio\2022\Community\VC\Tools\MSVC\14.34.31933\include\vector
; File C:\Program Files\Microsoft Visual Studio\2022\Community\VC\Tools\MSVC\14.34.31933\include\xmemory
; File C:\Program Files\Microsoft Visual Studio\2022\Community\VC\Tools\MSVC\14.34.31933\include\vector
; File C:\Program Files\Microsoft Visual Studio\2022\Community\VC\Tools\MSVC\14.34.31933\include\xmemory
;	COMDAT ??$?0$$V@?$_Compressed_pair@V?$allocator@USVictim@CPythonPlayerEventHandler@@@std@@V?$_Vector_val@U?$_Simple_types@USVictim@CPythonPlayerEventHandler@@@std@@@2@$00@std@@QAE@U_Zero_then_variadic_args_t@1@@Z
_TEXT	SEGMENT
___formal$ = 8						; size = 1
??$?0$$V@?$_Compressed_pair@V?$allocator@USVictim@CPythonPlayerEventHandler@@@std@@V?$_Vector_val@U?$_Simple_types@USVictim@CPythonPlayerEventHandler@@@std@@@2@$00@std@@QAE@U_Zero_then_variadic_args_t@1@@Z PROC ; std::_Compressed_pair<std::allocator<CPythonPlayerEventHandler::SVictim>,std::_Vector_val<std::_Simple_types<CPythonPlayerEventHandler::SVictim> >,1>::_Compressed_pair<std::allocator<CPythonPlayerEventHandler::SVictim>,std::_Vector_val<std::_Simple_types<CPythonPlayerEventHandler::SVictim> >,1><>, COMDAT
; _this$ = ecx
; File C:\Program Files\Microsoft Visual Studio\2022\Community\VC\Tools\MSVC\14.34.31933\include\vector

; 390  :     _CONSTEXPR20 _Vector_val() noexcept : _Myfirst(), _Mylast(), _Myend() {}

  00000	c7 01 00 00 00
	00		 mov	 DWORD PTR [ecx], 0
; File C:\Program Files\Microsoft Visual Studio\2022\Community\VC\Tools\MSVC\14.34.31933\include\xmemory

; 1376 :         : _Ty1(), _Myval2(_STD forward<_Other2>(_Val2)...) {}

  00006	8b c1		 mov	 eax, ecx
; File C:\Program Files\Microsoft Visual Studio\2022\Community\VC\Tools\MSVC\14.34.31933\include\vector

; 390  :     _CONSTEXPR20 _Vector_val() noexcept : _Myfirst(), _Mylast(), _Myend() {}

  00008	c7 41 04 00 00
	00 00		 mov	 DWORD PTR [ecx+4], 0
  0000f	c7 41 08 00 00
	00 00		 mov	 DWORD PTR [ecx+8], 0
; File C:\Program Files\Microsoft Visual Studio\2022\Community\VC\Tools\MSVC\14.34.31933\include\xmemory

; 1376 :         : _Ty1(), _Myval2(_STD forward<_Other2>(_Val2)...) {}

  00016	c2 04 00	 ret	 4
??$?0$$V@?$_Compressed_pair@V?$allocator@USVictim@CPythonPlayerEventHandler@@@std@@V?$_Vector_val@U?$_Simple_types@USVictim@CPythonPlayerEventHandler@@@std@@@2@$00@std@@QAE@U_Zero_then_variadic_args_t@1@@Z ENDP ; std::_Compressed_pair<std::allocator<CPythonPlayerEventHandler::SVictim>,std::_Vector_val<std::_Simple_types<CPythonPlayerEventHandler::SVictim> >,1>::_Compressed_pair<std::allocator<CPythonPlayerEventHandler::SVictim>,std::_Vector_val<std::_Simple_types<CPythonPlayerEventHandler::SVictim> >,1><>
_TEXT	ENDS
; Function compile flags: /Ogtp
; File C:\Program Files\Microsoft Visual Studio\2022\Community\VC\Tools\MSVC\14.34.31933\include\vector
;	COMDAT ??0?$_Vector_val@U?$_Simple_types@USVictim@CPythonPlayerEventHandler@@@std@@@std@@QAE@XZ
_TEXT	SEGMENT
??0?$_Vector_val@U?$_Simple_types@USVictim@CPythonPlayerEventHandler@@@std@@@std@@QAE@XZ PROC ; std::_Vector_val<std::_Simple_types<CPythonPlayerEventHandler::SVictim> >::_Vector_val<std::_Simple_types<CPythonPlayerEventHandler::SVictim> >, COMDAT
; _this$ = ecx

; 390  :     _CONSTEXPR20 _Vector_val() noexcept : _Myfirst(), _Mylast(), _Myend() {}

  00000	c7 01 00 00 00
	00		 mov	 DWORD PTR [ecx], 0
  00006	8b c1		 mov	 eax, ecx
  00008	c7 41 04 00 00
	00 00		 mov	 DWORD PTR [ecx+4], 0
  0000f	c7 41 08 00 00
	00 00		 mov	 DWORD PTR [ecx+8], 0
  00016	c3		 ret	 0
??0?$_Vector_val@U?$_Simple_types@USVictim@CPythonPlayerEventHandler@@@std@@@std@@QAE@XZ ENDP ; std::_Vector_val<std::_Simple_types<CPythonPlayerEventHandler::SVictim> >::_Vector_val<std::_Simple_types<CPythonPlayerEventHandler::SVictim> >
_TEXT	ENDS
; Function compile flags: /Ogtp
; File C:\Program Files\Microsoft Visual Studio\2022\Community\VC\Tools\MSVC\14.34.31933\include\xmemory
;	COMDAT ??0?$allocator@USVictim@CPythonPlayerEventHandler@@@std@@QAE@XZ
_TEXT	SEGMENT
??0?$allocator@USVictim@CPythonPlayerEventHandler@@@std@@QAE@XZ PROC ; std::allocator<CPythonPlayerEventHandler::SVictim>::allocator<CPythonPlayerEventHandler::SVictim>, COMDAT
; _this$ = ecx

; 819  :     constexpr allocator() noexcept {}

  00000	8b c1		 mov	 eax, ecx
  00002	c3		 ret	 0
??0?$allocator@USVictim@CPythonPlayerEventHandler@@@std@@QAE@XZ ENDP ; std::allocator<CPythonPlayerEventHandler::SVictim>::allocator<CPythonPlayerEventHandler::SVictim>
_TEXT	ENDS
; Function compile flags: /Ogtp
; File C:\Program Files\Microsoft Visual Studio\2022\Community\VC\Tools\MSVC\14.34.31933\include\type_traits
;	COMDAT ??$forward@ABUSVictim@CPythonPlayerEventHandler@@@std@@YAABUSVictim@CPythonPlayerEventHandler@@ABU12@@Z
_TEXT	SEGMENT
??$forward@ABUSVictim@CPythonPlayerEventHandler@@@std@@YAABUSVictim@CPythonPlayerEventHandler@@ABU12@@Z PROC ; std::forward<CPythonPlayerEventHandler::SVictim const &>, COMDAT
; __Arg$ = ecx

; 1426 :     return static_cast<_Ty&&>(_Arg);

  00000	8b c1		 mov	 eax, ecx

; 1427 : }

  00002	c3		 ret	 0
??$forward@ABUSVictim@CPythonPlayerEventHandler@@@std@@YAABUSVictim@CPythonPlayerEventHandler@@ABU12@@Z ENDP ; std::forward<CPythonPlayerEventHandler::SVictim const &>
_TEXT	ENDS
; Function compile flags: /Ogtp
; File C:\Program Files\Microsoft Visual Studio\2022\Community\VC\Tools\MSVC\14.34.31933\include\vector
; File C:\Program Files\Microsoft Visual Studio\2022\Community\VC\Tools\MSVC\14.34.31933\include\xutility
; File C:\Program Files\Microsoft Visual Studio\2022\Community\VC\Tools\MSVC\14.34.31933\include\vector
; File C:\Program Files\Microsoft Visual Studio\2022\Community\VC\Tools\MSVC\14.34.31933\include\xutility
; File C:\Program Files\Microsoft Visual Studio\2022\Community\VC\Tools\MSVC\14.34.31933\include\vector
; File C:\Program Files\Microsoft Visual Studio\2022\Community\VC\Tools\MSVC\14.34.31933\include\xutility
; File C:\Program Files\Microsoft Visual Studio\2022\Community\VC\Tools\MSVC\14.34.31933\include\vector
;	COMDAT ??$_Emplace_back_with_unused_capacity@ABUSVictim@CPythonPlayerEventHandler@@@?$vector@USVictim@CPythonPlayerEventHandler@@V?$allocator@USVictim@CPythonPlayerEventHandler@@@std@@@std@@AAEAAUSVictim@CPythonPlayerEventHandler@@ABU23@@Z
_TEXT	SEGMENT
_<_Val_0>$ = 8						; size = 4
??$_Emplace_back_with_unused_capacity@ABUSVictim@CPythonPlayerEventHandler@@@?$vector@USVictim@CPythonPlayerEventHandler@@V?$allocator@USVictim@CPythonPlayerEventHandler@@@std@@@std@@AAEAAUSVictim@CPythonPlayerEventHandler@@ABU23@@Z PROC ; std::vector<CPythonPlayerEventHandler::SVictim,std::allocator<CPythonPlayerEventHandler::SVictim> >::_Emplace_back_with_unused_capacity<CPythonPlayerEventHandler::SVictim const &>, COMDAT
; _this$ = ecx

; 852  :     _CONSTEXPR20 _Ty& _Emplace_back_with_unused_capacity(_Valty&&... _Val) {

  00000	55		 push	 ebp
  00001	8b ec		 mov	 ebp, esp
; File C:\Program Files\Microsoft Visual Studio\2022\Community\VC\Tools\MSVC\14.34.31933\include\xutility

; 231  :         ::new (_Voidify_iter(_STD addressof(_Obj))) _Ty(_STD forward<_Types>(_Args)...);

  00003	8b 45 08	 mov	 eax, DWORD PTR _<_Val_0>$[ebp]
; File C:\Program Files\Microsoft Visual Studio\2022\Community\VC\Tools\MSVC\14.34.31933\include\vector

; 852  :     _CONSTEXPR20 _Ty& _Emplace_back_with_unused_capacity(_Valty&&... _Val) {

  00006	56		 push	 esi
  00007	8b f1		 mov	 esi, ecx
; File C:\Program Files\Microsoft Visual Studio\2022\Community\VC\Tools\MSVC\14.34.31933\include\xutility

; 231  :         ::new (_Voidify_iter(_STD addressof(_Obj))) _Ty(_STD forward<_Types>(_Args)...);

  00009	f3 0f 7e 00	 movq	 xmm0, QWORD PTR [eax]
; File C:\Program Files\Microsoft Visual Studio\2022\Community\VC\Tools\MSVC\14.34.31933\include\vector

; 860  :             _Construct_in_place(*_Mylast, _STD forward<_Valty>(_Val)...);

  0000d	8b 56 04	 mov	 edx, DWORD PTR [esi+4]
; File C:\Program Files\Microsoft Visual Studio\2022\Community\VC\Tools\MSVC\14.34.31933\include\xutility

; 231  :         ::new (_Voidify_iter(_STD addressof(_Obj))) _Ty(_STD forward<_Types>(_Args)...);

  00010	66 0f d6 02	 movq	 QWORD PTR [edx], xmm0
  00014	8b 40 08	 mov	 eax, DWORD PTR [eax+8]
  00017	89 42 08	 mov	 DWORD PTR [edx+8], eax
; File C:\Program Files\Microsoft Visual Studio\2022\Community\VC\Tools\MSVC\14.34.31933\include\vector

; 868  :         _Ty& _Result = *_Mylast;

  0001a	8b 46 04	 mov	 eax, DWORD PTR [esi+4]

; 869  :         ++_Mylast;

  0001d	8d 48 0c	 lea	 ecx, DWORD PTR [eax+12]
  00020	89 4e 04	 mov	 DWORD PTR [esi+4], ecx

; 870  : 
; 871  :         return _Result;

  00023	5e		 pop	 esi

; 872  :     }

  00024	5d		 pop	 ebp
  00025	c2 04 00	 ret	 4
??$_Emplace_back_with_unused_capacity@ABUSVictim@CPythonPlayerEventHandler@@@?$vector@USVictim@CPythonPlayerEventHandler@@V?$allocator@USVictim@CPythonPlayerEventHandler@@@std@@@std@@AAEAAUSVictim@CPythonPlayerEventHandler@@ABU23@@Z ENDP ; std::vector<CPythonPlayerEventHandler::SVictim,std::allocator<CPythonPlayerEventHandler::SVictim> >::_Emplace_back_with_unused_capacity<CPythonPlayerEventHandler::SVictim const &>
_TEXT	ENDS
; Function compile flags: /Ogtp
; File C:\Program Files\Microsoft Visual Studio\2022\Community\VC\Tools\MSVC\14.34.31933\include\vector
; File C:\Program Files\Microsoft Visual Studio\2022\Community\VC\Tools\MSVC\14.34.31933\include\xmemory
; File C:\Program Files\Microsoft Visual Studio\2022\Community\VC\Tools\MSVC\14.34.31933\include\vector
; File C:\Program Files\Microsoft Visual Studio\2022\Community\VC\Tools\MSVC\14.34.31933\include\xmemory
; File C:\Program Files\Microsoft Visual Studio\2022\Community\VC\Tools\MSVC\14.34.31933\include\vector
; File C:\Program Files\Microsoft Visual Studio\2022\Community\VC\Tools\MSVC\14.34.31933\include\xmemory
; File C:\Program Files\Microsoft Visual Studio\2022\Community\VC\Tools\MSVC\14.34.31933\include\vector
; File C:\Program Files\Microsoft Visual Studio\2022\Community\VC\Tools\MSVC\14.34.31933\include\xmemory
; File C:\Program Files\Microsoft Visual Studio\2022\Community\VC\Tools\MSVC\14.34.31933\include\vector
; File C:\Program Files\Microsoft Visual Studio\2022\Community\VC\Tools\MSVC\14.34.31933\include\xmemory
; File C:\Program Files\Microsoft Visual Studio\2022\Community\VC\Tools\MSVC\14.34.31933\include\vector
; File C:\Program Files\Microsoft Visual Studio\2022\Community\VC\Tools\MSVC\14.34.31933\include\xmemory
; File C:\Program Files\Microsoft Visual Studio\2022\Community\VC\Tools\MSVC\14.34.31933\include\vector
; File C:\Program Files\Microsoft Visual Studio\2022\Community\VC\Tools\MSVC\14.34.31933\include\xmemory
; File C:\Program Files\Microsoft Visual Studio\2022\Community\VC\Tools\MSVC\14.34.31933\include\vector
; File C:\Program Files\Microsoft Visual Studio\2022\Community\VC\Tools\MSVC\14.34.31933\include\xmemory
; File C:\Program Files\Microsoft Visual Studio\2022\Community\VC\Tools\MSVC\14.34.31933\include\vector
; File C:\Program Files\Microsoft Visual Studio\2022\Community\VC\Tools\MSVC\14.34.31933\include\xmemory
; File C:\Program Files\Microsoft Visual Studio\2022\Community\VC\Tools\MSVC\14.34.31933\include\vector
; File C:\Program Files\Microsoft Visual Studio\2022\Community\VC\Tools\MSVC\14.34.31933\include\xmemory
; File C:\Program Files\Microsoft Visual Studio\2022\Community\VC\Tools\MSVC\14.34.31933\include\vector
; File C:\Program Files\Microsoft Visual Studio\2022\Community\VC\Tools\MSVC\14.34.31933\include\xmemory
; File C:\Program Files\Microsoft Visual Studio\2022\Community\VC\Tools\MSVC\14.34.31933\include\vector
; File C:\Program Files\Microsoft Visual Studio\2022\Community\VC\Tools\MSVC\14.34.31933\include\xmemory
; File C:\Program Files\Microsoft Visual Studio\2022\Community\VC\Tools\MSVC\14.34.31933\include\vector
;	COMDAT ??$_Emplace_reallocate@ABUSVictim@CPythonPlayerEventHandler@@@?$vector@USVictim@CPythonPlayerEventHandler@@V?$allocator@USVictim@CPythonPlayerEventHandler@@@std@@@std@@AAEPAUSVictim@CPythonPlayerEventHandler@@QAU23@ABU23@@Z
_TEXT	SEGMENT
__Newsize$1$ = -12					; size = 4
tv729 = -8						; size = 4
__Whereoff$1$ = -8					; size = 4
tv733 = -4						; size = 4
__Whereptr$ = 8						; size = 4
_<_Val_0>$ = 12						; size = 4
??$_Emplace_reallocate@ABUSVictim@CPythonPlayerEventHandler@@@?$vector@USVictim@CPythonPlayerEventHandler@@V?$allocator@USVictim@CPythonPlayerEventHandler@@@std@@@std@@AAEPAUSVictim@CPythonPlayerEventHandler@@QAU23@ABU23@@Z PROC ; std::vector<CPythonPlayerEventHandler::SVictim,std::allocator<CPythonPlayerEventHandler::SVictim> >::_Emplace_reallocate<CPythonPlayerEventHandler::SVictim const &>, COMDAT
; _this$ = ecx

; 875  :     _CONSTEXPR20 pointer _Emplace_reallocate(const pointer _Whereptr, _Valty&&... _Val) {

  00000	55		 push	 ebp
  00001	8b ec		 mov	 ebp, esp
  00003	83 ec 0c	 sub	 esp, 12			; 0000000cH

; 876  :         // reallocate and insert by perfectly forwarding _Val at _Whereptr
; 877  :         _Alty& _Al        = _Getal();
; 878  :         auto& _My_data    = _Mypair._Myval2;
; 879  :         pointer& _Myfirst = _My_data._Myfirst;
; 880  :         pointer& _Mylast  = _My_data._Mylast;
; 881  : 
; 882  :         _STL_INTERNAL_CHECK(_Mylast == _My_data._Myend); // check that we have no unused capacity
; 883  : 
; 884  :         const auto _Whereoff = static_cast<size_type>(_Whereptr - _Myfirst);

  00006	8b 55 08	 mov	 edx, DWORD PTR __Whereptr$[ebp]
  00009	b8 ab aa aa 2a	 mov	 eax, 715827883		; 2aaaaaabH
  0000e	53		 push	 ebx
  0000f	56		 push	 esi
  00010	57		 push	 edi
  00011	8b f9		 mov	 edi, ecx
  00013	8b 0f		 mov	 ecx, DWORD PTR [edi]
  00015	2b d1		 sub	 edx, ecx
  00017	f7 ea		 imul	 edx
  00019	d1 fa		 sar	 edx, 1
  0001b	8b c2		 mov	 eax, edx
  0001d	c1 e8 1f	 shr	 eax, 31			; 0000001fH
  00020	03 c2		 add	 eax, edx
  00022	89 45 f8	 mov	 DWORD PTR __Whereoff$1$[ebp], eax

; 885  :         const auto _Oldsize  = static_cast<size_type>(_Mylast - _Myfirst);

  00025	8b 47 04	 mov	 eax, DWORD PTR [edi+4]
  00028	2b c1		 sub	 eax, ecx
  0002a	c1 f8 02	 sar	 eax, 2
  0002d	69 d8 ab aa aa
	aa		 imul	 ebx, eax, -1431655765

; 886  : 
; 887  :         if (_Oldsize == max_size()) {

  00033	81 fb 55 55 55
	15		 cmp	 ebx, 357913941		; 15555555H
  00039	0f 84 2e 01 00
	00		 je	 $LN131@Emplace_re

; 1942 :         return static_cast<size_type>(_My_data._Myend - _My_data._Myfirst);

  0003f	8b 47 08	 mov	 eax, DWORD PTR [edi+8]

; 889  :         }
; 890  : 
; 891  :         const size_type _Newsize     = _Oldsize + 1;

  00042	43		 inc	 ebx

; 1942 :         return static_cast<size_type>(_My_data._Myend - _My_data._Myfirst);

  00043	2b c1		 sub	 eax, ecx

; 889  :         }
; 890  : 
; 891  :         const size_type _Newsize     = _Oldsize + 1;

  00045	89 5d f4	 mov	 DWORD PTR __Newsize$1$[ebp], ebx

; 1942 :         return static_cast<size_type>(_My_data._Myend - _My_data._Myfirst);

  00048	c1 f8 02	 sar	 eax, 2
  0004b	69 d0 ab aa aa
	aa		 imul	 edx, eax, -1431655765

; 2029 :         if (_Oldcapacity > _Max - _Oldcapacity / 2) {

  00051	b8 55 55 55 15	 mov	 eax, 357913941		; 15555555H
  00056	8b ca		 mov	 ecx, edx
  00058	d1 e9		 shr	 ecx, 1
  0005a	2b c1		 sub	 eax, ecx
  0005c	3b d0		 cmp	 edx, eax
  0005e	76 15		 jbe	 SHORT $LN12@Emplace_re

; 2030 :             return _Max; // geometric growth would overflow

  00060	b8 fc ff ff ff	 mov	 eax, -4			; fffffffcH
; File C:\Program Files\Microsoft Visual Studio\2022\Community\VC\Tools\MSVC\14.34.31933\include\xmemory

; 229  :             return _Allocate_manually_vector_aligned<_Traits>(_Bytes);

  00065	50		 push	 eax
; File C:\Program Files\Microsoft Visual Studio\2022\Community\VC\Tools\MSVC\14.34.31933\include\vector

; 2030 :             return _Max; // geometric growth would overflow

  00066	89 45 fc	 mov	 DWORD PTR tv733[ebp], eax
; File C:\Program Files\Microsoft Visual Studio\2022\Community\VC\Tools\MSVC\14.34.31933\include\xmemory

; 229  :             return _Allocate_manually_vector_aligned<_Traits>(_Bytes);

  00069	e8 00 00 00 00	 call	 ??$_Allocate_manually_vector_aligned@U_Default_allocate_traits@std@@@std@@YAPAXI@Z ; std::_Allocate_manually_vector_aligned<std::_Default_allocate_traits>
  0006e	83 c4 04	 add	 esp, 4
  00071	8b f0		 mov	 esi, eax
  00073	eb 46		 jmp	 SHORT $LN23@Emplace_re
$LN12@Emplace_re:
; File C:\Program Files\Microsoft Visual Studio\2022\Community\VC\Tools\MSVC\14.34.31933\include\vector

; 2033 :         const size_type _Geometric = _Oldcapacity + _Oldcapacity / 2;

  00075	8d 04 11	 lea	 eax, DWORD PTR [ecx+edx]
; File C:\Program Files\Microsoft Visual Studio\2022\Community\VC\Tools\MSVC\14.34.31933\include\xmemory

; 60   :         if (_Count > _Max_possible) {

  00078	8b cb		 mov	 ecx, ebx
  0007a	3b c3		 cmp	 eax, ebx
  0007c	0f 43 c8	 cmovae	 ecx, eax
  0007f	81 f9 55 55 55
	15		 cmp	 ecx, 357913941		; 15555555H
  00085	0f 87 e7 00 00
	00		 ja	 $LN132@Emplace_re

; 62   :         }
; 63   :     }
; 64   : 
; 65   :     return _Count * _Ty_size;

  0008b	8d 04 49	 lea	 eax, DWORD PTR [ecx+ecx*2]
  0008e	c1 e0 02	 shl	 eax, 2
  00091	89 45 fc	 mov	 DWORD PTR tv733[ebp], eax

; 228  :         if (_Bytes >= _Big_allocation_threshold) { // boost the alignment of big allocations to help autovectorization

  00094	3d 00 10 00 00	 cmp	 eax, 4096		; 00001000H
  00099	72 0d		 jb	 SHORT $LN123@Emplace_re

; 229  :             return _Allocate_manually_vector_aligned<_Traits>(_Bytes);

  0009b	50		 push	 eax
  0009c	e8 00 00 00 00	 call	 ??$_Allocate_manually_vector_aligned@U_Default_allocate_traits@std@@@std@@YAPAXI@Z ; std::_Allocate_manually_vector_aligned<std::_Default_allocate_traits>
  000a1	83 c4 04	 add	 esp, 4
  000a4	8b f0		 mov	 esi, eax
  000a6	eb 13		 jmp	 SHORT $LN23@Emplace_re
$LN123@Emplace_re:

; 230  :         }
; 231  :     }
; 232  : #endif // defined(_M_IX86) || defined(_M_X64)
; 233  : 
; 234  :     if (_Bytes != 0) {

  000a8	85 c0		 test	 eax, eax
  000aa	74 0d		 je	 SHORT $LN26@Emplace_re

; 77   :         return ::operator new(_Bytes);

  000ac	50		 push	 eax
  000ad	e8 00 00 00 00	 call	 ??2@YAPAXI@Z		; operator new
  000b2	83 c4 04	 add	 esp, 4

; 235  :         return _Traits::_Allocate(_Bytes);

  000b5	8b f0		 mov	 esi, eax
  000b7	eb 02		 jmp	 SHORT $LN23@Emplace_re
$LN26@Emplace_re:

; 236  :     }
; 237  : 
; 238  :     return nullptr;

  000b9	33 f6		 xor	 esi, esi
$LN23@Emplace_re:
; File C:\Program Files\Microsoft Visual Studio\2022\Community\VC\Tools\MSVC\14.34.31933\include\vector

; 899  :         _Alty_traits::construct(_Al, _Unfancy(_Newvec + _Whereoff), _STD forward<_Valty>(_Val)...);

  000bb	8b 45 f8	 mov	 eax, DWORD PTR __Whereoff$1$[ebp]
  000be	8d 04 40	 lea	 eax, DWORD PTR [eax+eax*2]
  000c1	8d 0c 86	 lea	 ecx, DWORD PTR [esi+eax*4]
; File C:\Program Files\Microsoft Visual Studio\2022\Community\VC\Tools\MSVC\14.34.31933\include\xmemory

; 680  :             ::new (_Voidify_iter(_Ptr)) _Objty(_STD forward<_Types>(_Args)...);

  000c4	8b 45 0c	 mov	 eax, DWORD PTR _<_Val_0>$[ebp]
; File C:\Program Files\Microsoft Visual Studio\2022\Community\VC\Tools\MSVC\14.34.31933\include\vector

; 899  :         _Alty_traits::construct(_Al, _Unfancy(_Newvec + _Whereoff), _STD forward<_Valty>(_Val)...);

  000c7	89 4d f8	 mov	 DWORD PTR tv729[ebp], ecx
; File C:\Program Files\Microsoft Visual Studio\2022\Community\VC\Tools\MSVC\14.34.31933\include\xmemory

; 680  :             ::new (_Voidify_iter(_Ptr)) _Objty(_STD forward<_Types>(_Args)...);

  000ca	f3 0f 7e 00	 movq	 xmm0, QWORD PTR [eax]
  000ce	66 0f d6 01	 movq	 QWORD PTR [ecx], xmm0
  000d2	8b 40 08	 mov	 eax, DWORD PTR [eax+8]
  000d5	89 41 08	 mov	 DWORD PTR [ecx+8], eax
; File C:\Program Files\Microsoft Visual Studio\2022\Community\VC\Tools\MSVC\14.34.31933\include\vector

; 902  :         if (_Whereptr == _Mylast) { // at back, provide strong guarantee

  000d8	8b 57 04	 mov	 edx, DWORD PTR [edi+4]
  000db	8b 45 08	 mov	 eax, DWORD PTR __Whereptr$[ebp]
  000de	8b 0f		 mov	 ecx, DWORD PTR [edi]
  000e0	3b c2		 cmp	 eax, edx
  000e2	75 04		 jne	 SHORT $LN4@Emplace_re
; File C:\Program Files\Microsoft Visual Studio\2022\Community\VC\Tools\MSVC\14.34.31933\include\xmemory

; 1800 :             _Copy_memmove(_UFirst, _ULast, _Unfancy(_Dest));

  000e4	8b c6		 mov	 eax, esi
; File C:\Program Files\Microsoft Visual Studio\2022\Community\VC\Tools\MSVC\14.34.31933\include\vector

; 908  :         } else { // provide basic guarantee

  000e6	eb 17		 jmp	 SHORT $LN98@Emplace_re
$LN4@Emplace_re:
; File C:\Program Files\Microsoft Visual Studio\2022\Community\VC\Tools\MSVC\14.34.31933\include\xmemory

; 1800 :             _Copy_memmove(_UFirst, _ULast, _Unfancy(_Dest));

  000e8	56		 push	 esi
  000e9	8b d0		 mov	 edx, eax
  000eb	e8 00 00 00 00	 call	 ??$_Copy_memmove@PAUSVictim@CPythonPlayerEventHandler@@PAU12@@std@@YAPAUSVictim@CPythonPlayerEventHandler@@PAU12@00@Z ; std::_Copy_memmove<CPythonPlayerEventHandler::SVictim *,CPythonPlayerEventHandler::SVictim *>
; File C:\Program Files\Microsoft Visual Studio\2022\Community\VC\Tools\MSVC\14.34.31933\include\vector

; 911  :             _Uninitialized_move(_Whereptr, _Mylast, _Newvec + _Whereoff + 1, _Al);

  000f0	8b 45 f8	 mov	 eax, DWORD PTR tv729[ebp]
; File C:\Program Files\Microsoft Visual Studio\2022\Community\VC\Tools\MSVC\14.34.31933\include\xmemory

; 1800 :             _Copy_memmove(_UFirst, _ULast, _Unfancy(_Dest));

  000f3	83 c4 04	 add	 esp, 4

; 1793 :     const auto _ULast = _Get_unwrapped(_Last);

  000f6	8b 57 04	 mov	 edx, DWORD PTR [edi+4]
; File C:\Program Files\Microsoft Visual Studio\2022\Community\VC\Tools\MSVC\14.34.31933\include\vector

; 911  :             _Uninitialized_move(_Whereptr, _Mylast, _Newvec + _Whereoff + 1, _Al);

  000f9	83 c0 0c	 add	 eax, 12			; 0000000cH
; File C:\Program Files\Microsoft Visual Studio\2022\Community\VC\Tools\MSVC\14.34.31933\include\xmemory

; 1800 :             _Copy_memmove(_UFirst, _ULast, _Unfancy(_Dest));

  000fc	8b 4d 08	 mov	 ecx, DWORD PTR __Whereptr$[ebp]
$LN98@Emplace_re:
; File C:\Program Files\Microsoft Visual Studio\2022\Community\VC\Tools\MSVC\14.34.31933\include\vector

; 911  :             _Uninitialized_move(_Whereptr, _Mylast, _Newvec + _Whereoff + 1, _Al);

  000ff	50		 push	 eax
  00100	e8 00 00 00 00	 call	 ??$_Copy_memmove@PAUSVictim@CPythonPlayerEventHandler@@PAU12@@std@@YAPAUSVictim@CPythonPlayerEventHandler@@PAU12@00@Z ; std::_Copy_memmove<CPythonPlayerEventHandler::SVictim *,CPythonPlayerEventHandler::SVictim *>

; 2086 :         if (_Myfirst) { // destroy and deallocate old array

  00105	8b 0f		 mov	 ecx, DWORD PTR [edi]

; 911  :             _Uninitialized_move(_Whereptr, _Mylast, _Newvec + _Whereoff + 1, _Al);

  00107	83 c4 04	 add	 esp, 4

; 2086 :         if (_Myfirst) { // destroy and deallocate old array

  0010a	85 c9		 test	 ecx, ecx
  0010c	74 3b		 je	 SHORT $LN44@Emplace_re

; 2087 :             _Destroy_range(_Myfirst, _Mylast, _Al);
; 2088 :             _ASAN_VECTOR_REMOVE;
; 2089 :             _Al.deallocate(_Myfirst, static_cast<size_type>(_Myend - _Myfirst));

  0010e	8b 47 08	 mov	 eax, DWORD PTR [edi+8]
  00111	2b c1		 sub	 eax, ecx
  00113	c1 f8 02	 sar	 eax, 2
  00116	69 c0 ab aa aa
	aa		 imul	 eax, eax, -1431655765
; File C:\Program Files\Microsoft Visual Studio\2022\Community\VC\Tools\MSVC\14.34.31933\include\xmemory

; 830  :         _Deallocate<_New_alignof<_Ty>>(_Ptr, sizeof(_Ty) * _Count);

  0011c	8d 14 40	 lea	 edx, DWORD PTR [eax+eax*2]
  0011f	c1 e2 02	 shl	 edx, 2

; 251  :         if (_Bytes >= _Big_allocation_threshold) { // boost the alignment of big allocations to help autovectorization

  00122	81 fa 00 10 00
	00		 cmp	 edx, 4096		; 00001000H
  00128	72 15		 jb	 SHORT $LN56@Emplace_re

; 150  :     const uintptr_t _Ptr_container   = _Ptr_user[-1];

  0012a	8b 59 fc	 mov	 ebx, DWORD PTR [ecx-4]
  0012d	83 c2 23	 add	 edx, 35			; 00000023H

; 151  : 
; 152  :     // If the following asserts, it likely means that we are performing
; 153  :     // an aligned delete on memory coming from an unaligned allocation.
; 154  :     _STL_ASSERT(_Ptr_user[-2] == _Big_allocation_sentinel, "invalid argument");
; 155  : 
; 156  :     // Extra paranoia on aligned allocation/deallocation; ensure _Ptr_container is
; 157  :     // in range [_Min_back_shift, _Non_user_size]
; 158  : #ifdef _DEBUG
; 159  :     constexpr uintptr_t _Min_back_shift = 2 * sizeof(void*);
; 160  : #else // ^^^ _DEBUG ^^^ // vvv !_DEBUG vvv
; 161  :     constexpr uintptr_t _Min_back_shift = sizeof(void*);
; 162  : #endif // _DEBUG
; 163  :     const uintptr_t _Back_shift = reinterpret_cast<uintptr_t>(_Ptr) - _Ptr_container;

  00130	2b cb		 sub	 ecx, ebx

; 164  :     _STL_VERIFY(_Back_shift >= _Min_back_shift && _Back_shift <= _Non_user_size, "invalid argument");

  00132	8d 41 fc	 lea	 eax, DWORD PTR [ecx-4]
  00135	83 f8 1f	 cmp	 eax, 31			; 0000001fH
  00138	77 2e		 ja	 SHORT $LN53@Emplace_re

; 165  :     _Ptr = reinterpret_cast<void*>(_Ptr_container);

  0013a	8b cb		 mov	 ecx, ebx
  0013c	8b 5d f4	 mov	 ebx, DWORD PTR __Newsize$1$[ebp]
$LN56@Emplace_re:

; 255  :         ::operator delete(_Ptr, _Bytes);

  0013f	52		 push	 edx
  00140	51		 push	 ecx
  00141	e8 00 00 00 00	 call	 ??3@YAXPAXI@Z		; operator delete
  00146	83 c4 08	 add	 esp, 8
$LN44@Emplace_re:
; File C:\Program Files\Microsoft Visual Studio\2022\Community\VC\Tools\MSVC\14.34.31933\include\vector

; 920  :         return _Newvec + _Whereoff;

  00149	8b 45 f8	 mov	 eax, DWORD PTR tv729[ebp]

; 2093 :         _Mylast  = _Newvec + _Newsize;

  0014c	8d 0c 5b	 lea	 ecx, DWORD PTR [ebx+ebx*2]
  0014f	8d 0c 8e	 lea	 ecx, DWORD PTR [esi+ecx*4]
  00152	89 37		 mov	 DWORD PTR [edi], esi
  00154	89 4f 04	 mov	 DWORD PTR [edi+4], ecx

; 2094 :         _Myend   = _Newvec + _Newcapacity;

  00157	8b 4d fc	 mov	 ecx, DWORD PTR tv733[ebp]
  0015a	03 ce		 add	 ecx, esi
  0015c	89 4f 08	 mov	 DWORD PTR [edi+8], ecx

; 920  :         return _Newvec + _Whereoff;

  0015f	5f		 pop	 edi
  00160	5e		 pop	 esi
  00161	5b		 pop	 ebx

; 921  :     }

  00162	8b e5		 mov	 esp, ebp
  00164	5d		 pop	 ebp
  00165	c2 08 00	 ret	 8
$LN53@Emplace_re:
; File C:\Program Files\Microsoft Visual Studio\2022\Community\VC\Tools\MSVC\14.34.31933\include\xmemory

; 164  :     _STL_VERIFY(_Back_shift >= _Min_back_shift && _Back_shift <= _Non_user_size, "invalid argument");

  00168	e8 00 00 00 00	 call	 __invalid_parameter_noinfo_noreturn
$LN131@Emplace_re:
; File C:\Program Files\Microsoft Visual Studio\2022\Community\VC\Tools\MSVC\14.34.31933\include\vector

; 888  :             _Xlength();

  0016d	e8 00 00 00 00	 call	 ?_Xlength@?$vector@USVictim@CPythonPlayerEventHandler@@V?$allocator@USVictim@CPythonPlayerEventHandler@@@std@@@std@@CAXXZ ; std::vector<CPythonPlayerEventHandler::SVictim,std::allocator<CPythonPlayerEventHandler::SVictim> >::_Xlength
$LN132@Emplace_re:
; File C:\Program Files\Microsoft Visual Studio\2022\Community\VC\Tools\MSVC\14.34.31933\include\xmemory

; 61   :             _Throw_bad_array_new_length(); // multiply overflow

  00172	e8 00 00 00 00	 call	 ?_Throw_bad_array_new_length@std@@YAXXZ ; std::_Throw_bad_array_new_length
$LN129@Emplace_re:
  00177	cc		 int	 3
??$_Emplace_reallocate@ABUSVictim@CPythonPlayerEventHandler@@@?$vector@USVictim@CPythonPlayerEventHandler@@V?$allocator@USVictim@CPythonPlayerEventHandler@@@std@@@std@@AAEPAUSVictim@CPythonPlayerEventHandler@@QAU23@ABU23@@Z ENDP ; std::vector<CPythonPlayerEventHandler::SVictim,std::allocator<CPythonPlayerEventHandler::SVictim> >::_Emplace_reallocate<CPythonPlayerEventHandler::SVictim const &>
_TEXT	ENDS
; Function compile flags: /Ogtp
; File C:\Program Files\Microsoft Visual Studio\2022\Community\VC\Tools\MSVC\14.34.31933\include\vector
;	COMDAT ?_Orphan_range@?$vector@USVictim@CPythonPlayerEventHandler@@V?$allocator@USVictim@CPythonPlayerEventHandler@@@std@@@std@@ABEXPAUSVictim@CPythonPlayerEventHandler@@0@Z
_TEXT	SEGMENT
___formal$dead$ = 8					; size = 4
___formal$dead$ = 12					; size = 4
?_Orphan_range@?$vector@USVictim@CPythonPlayerEventHandler@@V?$allocator@USVictim@CPythonPlayerEventHandler@@@std@@@std@@ABEXPAUSVictim@CPythonPlayerEventHandler@@0@Z PROC ; std::vector<CPythonPlayerEventHandler::SVictim,std::allocator<CPythonPlayerEventHandler::SVictim> >::_Orphan_range, COMDAT
; _this$dead$ = ecx

; 2240 :     _CONSTEXPR20 void _Orphan_range(pointer, pointer) const {}

  00000	c2 08 00	 ret	 8
?_Orphan_range@?$vector@USVictim@CPythonPlayerEventHandler@@V?$allocator@USVictim@CPythonPlayerEventHandler@@@std@@@std@@ABEXPAUSVictim@CPythonPlayerEventHandler@@0@Z ENDP ; std::vector<CPythonPlayerEventHandler::SVictim,std::allocator<CPythonPlayerEventHandler::SVictim> >::_Orphan_range
_TEXT	ENDS
; Function compile flags: /Ogtp
; File C:\Program Files\Microsoft Visual Studio\2022\Community\VC\Tools\MSVC\14.34.31933\include\vector
;	COMDAT ?_Xlength@?$vector@USVictim@CPythonPlayerEventHandler@@V?$allocator@USVictim@CPythonPlayerEventHandler@@@std@@@std@@CAXXZ
_TEXT	SEGMENT
?_Xlength@?$vector@USVictim@CPythonPlayerEventHandler@@V?$allocator@USVictim@CPythonPlayerEventHandler@@@std@@@std@@CAXXZ PROC ; std::vector<CPythonPlayerEventHandler::SVictim,std::allocator<CPythonPlayerEventHandler::SVictim> >::_Xlength, COMDAT

; 2201 :         _Xlength_error("vector too long");

  00000	68 00 00 00 00	 push	 OFFSET ??_C@_0BA@FOIKENOD@vector?5too?5long@
  00005	e8 00 00 00 00	 call	 ?_Xlength_error@std@@YAXPBD@Z ; std::_Xlength_error
$LN3@Xlength:
  0000a	cc		 int	 3
?_Xlength@?$vector@USVictim@CPythonPlayerEventHandler@@V?$allocator@USVictim@CPythonPlayerEventHandler@@@std@@@std@@CAXXZ ENDP ; std::vector<CPythonPlayerEventHandler::SVictim,std::allocator<CPythonPlayerEventHandler::SVictim> >::_Xlength
_TEXT	ENDS
; Function compile flags: /Ogtp
; File C:\Program Files\Microsoft Visual Studio\2022\Community\VC\Tools\MSVC\14.34.31933\include\vector
; File C:\Program Files\Microsoft Visual Studio\2022\Community\VC\Tools\MSVC\14.34.31933\include\xmemory
; File C:\Program Files\Microsoft Visual Studio\2022\Community\VC\Tools\MSVC\14.34.31933\include\vector
; File C:\Program Files\Microsoft Visual Studio\2022\Community\VC\Tools\MSVC\14.34.31933\include\xmemory
; File C:\Program Files\Microsoft Visual Studio\2022\Community\VC\Tools\MSVC\14.34.31933\include\vector
;	COMDAT ?_Change_array@?$vector@USVictim@CPythonPlayerEventHandler@@V?$allocator@USVictim@CPythonPlayerEventHandler@@@std@@@std@@AAEXQAUSVictim@CPythonPlayerEventHandler@@II@Z
_TEXT	SEGMENT
__Newvec$ = 8						; size = 4
__Newsize$ = 12						; size = 4
__Newcapacity$ = 16					; size = 4
?_Change_array@?$vector@USVictim@CPythonPlayerEventHandler@@V?$allocator@USVictim@CPythonPlayerEventHandler@@@std@@@std@@AAEXQAUSVictim@CPythonPlayerEventHandler@@II@Z PROC ; std::vector<CPythonPlayerEventHandler::SVictim,std::allocator<CPythonPlayerEventHandler::SVictim> >::_Change_array, COMDAT
; _this$ = ecx

; 2076 :     _CONSTEXPR20 void _Change_array(const pointer _Newvec, const size_type _Newsize, const size_type _Newcapacity) {

  00000	55		 push	 ebp
  00001	8b ec		 mov	 ebp, esp
  00003	56		 push	 esi
  00004	8b f1		 mov	 esi, ecx

; 2077 :         // orphan all iterators, discard old array, acquire new array
; 2078 :         auto& _Al         = _Getal();
; 2079 :         auto& _My_data    = _Mypair._Myval2;
; 2080 :         pointer& _Myfirst = _My_data._Myfirst;
; 2081 :         pointer& _Mylast  = _My_data._Mylast;
; 2082 :         pointer& _Myend   = _My_data._Myend;
; 2083 : 
; 2084 :         _My_data._Orphan_all();
; 2085 : 
; 2086 :         if (_Myfirst) { // destroy and deallocate old array

  00006	8b 16		 mov	 edx, DWORD PTR [esi]
  00008	85 d2		 test	 edx, edx
  0000a	74 3a		 je	 SHORT $LN8@Change_arr

; 2087 :             _Destroy_range(_Myfirst, _Mylast, _Al);
; 2088 :             _ASAN_VECTOR_REMOVE;
; 2089 :             _Al.deallocate(_Myfirst, static_cast<size_type>(_Myend - _Myfirst));

  0000c	8b 46 08	 mov	 eax, DWORD PTR [esi+8]
  0000f	2b c2		 sub	 eax, edx
  00011	c1 f8 02	 sar	 eax, 2
  00014	69 c0 ab aa aa
	aa		 imul	 eax, eax, -1431655765
; File C:\Program Files\Microsoft Visual Studio\2022\Community\VC\Tools\MSVC\14.34.31933\include\xmemory

; 830  :         _Deallocate<_New_alignof<_Ty>>(_Ptr, sizeof(_Ty) * _Count);

  0001a	8d 0c 40	 lea	 ecx, DWORD PTR [eax+eax*2]
  0001d	c1 e1 02	 shl	 ecx, 2

; 251  :         if (_Bytes >= _Big_allocation_threshold) { // boost the alignment of big allocations to help autovectorization

  00020	81 f9 00 10 00
	00		 cmp	 ecx, 4096		; 00001000H
  00026	72 14		 jb	 SHORT $LN20@Change_arr

; 147  :     _Bytes += _Non_user_size;

  00028	57		 push	 edi

; 148  : 
; 149  :     const uintptr_t* const _Ptr_user = static_cast<uintptr_t*>(_Ptr);
; 150  :     const uintptr_t _Ptr_container   = _Ptr_user[-1];

  00029	8b 7a fc	 mov	 edi, DWORD PTR [edx-4]
  0002c	83 c1 23	 add	 ecx, 35			; 00000023H

; 151  : 
; 152  :     // If the following asserts, it likely means that we are performing
; 153  :     // an aligned delete on memory coming from an unaligned allocation.
; 154  :     _STL_ASSERT(_Ptr_user[-2] == _Big_allocation_sentinel, "invalid argument");
; 155  : 
; 156  :     // Extra paranoia on aligned allocation/deallocation; ensure _Ptr_container is
; 157  :     // in range [_Min_back_shift, _Non_user_size]
; 158  : #ifdef _DEBUG
; 159  :     constexpr uintptr_t _Min_back_shift = 2 * sizeof(void*);
; 160  : #else // ^^^ _DEBUG ^^^ // vvv !_DEBUG vvv
; 161  :     constexpr uintptr_t _Min_back_shift = sizeof(void*);
; 162  : #endif // _DEBUG
; 163  :     const uintptr_t _Back_shift = reinterpret_cast<uintptr_t>(_Ptr) - _Ptr_container;

  0002f	2b d7		 sub	 edx, edi

; 164  :     _STL_VERIFY(_Back_shift >= _Min_back_shift && _Back_shift <= _Non_user_size, "invalid argument");

  00031	8d 42 fc	 lea	 eax, DWORD PTR [edx-4]
  00034	83 f8 1f	 cmp	 eax, 31			; 0000001fH
  00037	77 2f		 ja	 SHORT $LN17@Change_arr

; 165  :     _Ptr = reinterpret_cast<void*>(_Ptr_container);

  00039	8b d7		 mov	 edx, edi
  0003b	5f		 pop	 edi
$LN20@Change_arr:

; 255  :         ::operator delete(_Ptr, _Bytes);

  0003c	51		 push	 ecx
  0003d	52		 push	 edx
  0003e	e8 00 00 00 00	 call	 ??3@YAXPAXI@Z		; operator delete
  00043	83 c4 08	 add	 esp, 8
$LN8@Change_arr:
; File C:\Program Files\Microsoft Visual Studio\2022\Community\VC\Tools\MSVC\14.34.31933\include\vector

; 2092 :         _Myfirst = _Newvec;

  00046	8b 4d 08	 mov	 ecx, DWORD PTR __Newvec$[ebp]

; 2093 :         _Mylast  = _Newvec + _Newsize;

  00049	8b 45 0c	 mov	 eax, DWORD PTR __Newsize$[ebp]
  0004c	89 0e		 mov	 DWORD PTR [esi], ecx
  0004e	8d 04 40	 lea	 eax, DWORD PTR [eax+eax*2]
  00051	8d 04 81	 lea	 eax, DWORD PTR [ecx+eax*4]
  00054	89 46 04	 mov	 DWORD PTR [esi+4], eax

; 2094 :         _Myend   = _Newvec + _Newcapacity;

  00057	8b 45 10	 mov	 eax, DWORD PTR __Newcapacity$[ebp]
  0005a	8d 04 40	 lea	 eax, DWORD PTR [eax+eax*2]
  0005d	8d 04 81	 lea	 eax, DWORD PTR [ecx+eax*4]
  00060	89 46 08	 mov	 DWORD PTR [esi+8], eax
  00063	5e		 pop	 esi

; 2096 :     }

  00064	5d		 pop	 ebp
  00065	c2 0c 00	 ret	 12			; 0000000cH
$LN17@Change_arr:
; File C:\Program Files\Microsoft Visual Studio\2022\Community\VC\Tools\MSVC\14.34.31933\include\xmemory

; 164  :     _STL_VERIFY(_Back_shift >= _Min_back_shift && _Back_shift <= _Non_user_size, "invalid argument");

  00068	e8 00 00 00 00	 call	 __invalid_parameter_noinfo_noreturn
$LN24@Change_arr:
  0006d	cc		 int	 3
?_Change_array@?$vector@USVictim@CPythonPlayerEventHandler@@V?$allocator@USVictim@CPythonPlayerEventHandler@@@std@@@std@@AAEXQAUSVictim@CPythonPlayerEventHandler@@II@Z ENDP ; std::vector<CPythonPlayerEventHandler::SVictim,std::allocator<CPythonPlayerEventHandler::SVictim> >::_Change_array
_TEXT	ENDS
; Function compile flags: /Ogtp
; File C:\Program Files\Microsoft Visual Studio\2022\Community\VC\Tools\MSVC\14.34.31933\include\vector
;	COMDAT ?_Calculate_growth@?$vector@USVictim@CPythonPlayerEventHandler@@V?$allocator@USVictim@CPythonPlayerEventHandler@@@std@@@std@@ABEII@Z
_TEXT	SEGMENT
__Newsize$ = 8						; size = 4
?_Calculate_growth@?$vector@USVictim@CPythonPlayerEventHandler@@V?$allocator@USVictim@CPythonPlayerEventHandler@@@std@@@std@@ABEII@Z PROC ; std::vector<CPythonPlayerEventHandler::SVictim,std::allocator<CPythonPlayerEventHandler::SVictim> >::_Calculate_growth, COMDAT
; _this$ = ecx

; 2024 :     _CONSTEXPR20 size_type _Calculate_growth(const size_type _Newsize) const {

  00000	55		 push	 ebp
  00001	8b ec		 mov	 ebp, esp

; 1942 :         return static_cast<size_type>(_My_data._Myend - _My_data._Myfirst);

  00003	8b 41 08	 mov	 eax, DWORD PTR [ecx+8]
  00006	2b 01		 sub	 eax, DWORD PTR [ecx]

; 2025 :         // given _Oldcapacity and _Newsize, calculate geometric growth
; 2026 :         const size_type _Oldcapacity = capacity();
; 2027 :         const auto _Max              = max_size();
; 2028 : 
; 2029 :         if (_Oldcapacity > _Max - _Oldcapacity / 2) {

  00008	b9 55 55 55 15	 mov	 ecx, 357913941		; 15555555H

; 1942 :         return static_cast<size_type>(_My_data._Myend - _My_data._Myfirst);

  0000d	c1 f8 02	 sar	 eax, 2

; 2024 :     _CONSTEXPR20 size_type _Calculate_growth(const size_type _Newsize) const {

  00010	56		 push	 esi

; 1942 :         return static_cast<size_type>(_My_data._Myend - _My_data._Myfirst);

  00011	69 f0 ab aa aa
	aa		 imul	 esi, eax, -1431655765

; 2025 :         // given _Oldcapacity and _Newsize, calculate geometric growth
; 2026 :         const size_type _Oldcapacity = capacity();
; 2027 :         const auto _Max              = max_size();
; 2028 : 
; 2029 :         if (_Oldcapacity > _Max - _Oldcapacity / 2) {

  00017	8b d6		 mov	 edx, esi
  00019	d1 ea		 shr	 edx, 1
  0001b	2b ca		 sub	 ecx, edx
  0001d	3b f1		 cmp	 esi, ecx
  0001f	76 0a		 jbe	 SHORT $LN2@Calculate_

; 2030 :             return _Max; // geometric growth would overflow

  00021	b8 55 55 55 15	 mov	 eax, 357913941		; 15555555H
  00026	5e		 pop	 esi

; 2036 :             return _Newsize; // geometric growth would be insufficient
; 2037 :         }
; 2038 : 
; 2039 :         return _Geometric; // geometric growth is sufficient
; 2040 :     }

  00027	5d		 pop	 ebp
  00028	c2 04 00	 ret	 4
$LN2@Calculate_:

; 2031 :         }
; 2032 : 
; 2033 :         const size_type _Geometric = _Oldcapacity + _Oldcapacity / 2;

  0002b	8d 04 32	 lea	 eax, DWORD PTR [edx+esi]

; 2034 : 
; 2035 :         if (_Geometric < _Newsize) {

  0002e	3b 45 08	 cmp	 eax, DWORD PTR __Newsize$[ebp]
  00031	5e		 pop	 esi
  00032	0f 42 45 08	 cmovb	 eax, DWORD PTR __Newsize$[ebp]

; 2036 :             return _Newsize; // geometric growth would be insufficient
; 2037 :         }
; 2038 : 
; 2039 :         return _Geometric; // geometric growth is sufficient
; 2040 :     }

  00036	5d		 pop	 ebp
  00037	c2 04 00	 ret	 4
?_Calculate_growth@?$vector@USVictim@CPythonPlayerEventHandler@@V?$allocator@USVictim@CPythonPlayerEventHandler@@@std@@@std@@ABEII@Z ENDP ; std::vector<CPythonPlayerEventHandler::SVictim,std::allocator<CPythonPlayerEventHandler::SVictim> >::_Calculate_growth
_TEXT	ENDS
; Function compile flags: /Ogtp
; File C:\Program Files\Microsoft Visual Studio\2022\Community\VC\Tools\MSVC\14.34.31933\include\vector
;	COMDAT ?max_size@?$vector@USVictim@CPythonPlayerEventHandler@@V?$allocator@USVictim@CPythonPlayerEventHandler@@@std@@@std@@QBEIXZ
_TEXT	SEGMENT
?max_size@?$vector@USVictim@CPythonPlayerEventHandler@@V?$allocator@USVictim@CPythonPlayerEventHandler@@@std@@@std@@QBEIXZ PROC ; std::vector<CPythonPlayerEventHandler::SVictim,std::allocator<CPythonPlayerEventHandler::SVictim> >::max_size, COMDAT
; _this$dead$ = ecx

; 1936 :         return (_STD min)(

  00000	b8 55 55 55 15	 mov	 eax, 357913941		; 15555555H

; 1937 :             static_cast<size_type>((numeric_limits<difference_type>::max)()), _Alty_traits::max_size(_Getal()));
; 1938 :     }

  00005	c3		 ret	 0
?max_size@?$vector@USVictim@CPythonPlayerEventHandler@@V?$allocator@USVictim@CPythonPlayerEventHandler@@@std@@@std@@QBEIXZ ENDP ; std::vector<CPythonPlayerEventHandler::SVictim,std::allocator<CPythonPlayerEventHandler::SVictim> >::max_size
_TEXT	ENDS
; Function compile flags: /Ogtp
; File C:\Program Files\Microsoft Visual Studio\2022\Community\VC\Tools\MSVC\14.34.31933\include\xmemory
;	COMDAT ?allocate@?$allocator@USVictim@CPythonPlayerEventHandler@@@std@@QAEPAUSVictim@CPythonPlayerEventHandler@@I@Z
_TEXT	SEGMENT
__Count$ = 8						; size = 4
?allocate@?$allocator@USVictim@CPythonPlayerEventHandler@@@std@@QAEPAUSVictim@CPythonPlayerEventHandler@@I@Z PROC ; std::allocator<CPythonPlayerEventHandler::SVictim>::allocate, COMDAT
; _this$dead$ = ecx

; 833  :     _NODISCARD_RAW_PTR_ALLOC _CONSTEXPR20 __declspec(allocator) _Ty* allocate(_CRT_GUARDOVERFLOW const size_t _Count) {

  00000	55		 push	 ebp
  00001	8b ec		 mov	 ebp, esp

; 60   :         if (_Count > _Max_possible) {

  00003	8b 45 08	 mov	 eax, DWORD PTR __Count$[ebp]
  00006	3d 55 55 55 15	 cmp	 eax, 357913941		; 15555555H
  0000b	77 31		 ja	 SHORT $LN16@allocate

; 62   :         }
; 63   :     }
; 64   : 
; 65   :     return _Count * _Ty_size;

  0000d	8d 04 40	 lea	 eax, DWORD PTR [eax+eax*2]
  00010	c1 e0 02	 shl	 eax, 2

; 228  :         if (_Bytes >= _Big_allocation_threshold) { // boost the alignment of big allocations to help autovectorization

  00013	3d 00 10 00 00	 cmp	 eax, 4096		; 00001000H
  00018	72 0d		 jb	 SHORT $LN9@allocate

; 229  :             return _Allocate_manually_vector_aligned<_Traits>(_Bytes);

  0001a	50		 push	 eax
  0001b	e8 00 00 00 00	 call	 ??$_Allocate_manually_vector_aligned@U_Default_allocate_traits@std@@@std@@YAPAXI@Z ; std::_Allocate_manually_vector_aligned<std::_Default_allocate_traits>
  00020	83 c4 04	 add	 esp, 4

; 834  :         static_assert(sizeof(value_type) > 0, "value_type must be complete before calling allocate.");
; 835  :         return static_cast<_Ty*>(_Allocate<_New_alignof<_Ty>>(_Get_size_of_n<sizeof(_Ty)>(_Count)));
; 836  :     }

  00023	5d		 pop	 ebp
  00024	c2 04 00	 ret	 4
$LN9@allocate:

; 234  :     if (_Bytes != 0) {

  00027	85 c0		 test	 eax, eax
  00029	74 0d		 je	 SHORT $LN10@allocate

; 77   :         return ::operator new(_Bytes);

  0002b	50		 push	 eax
  0002c	e8 00 00 00 00	 call	 ??2@YAPAXI@Z		; operator new
  00031	83 c4 04	 add	 esp, 4

; 834  :         static_assert(sizeof(value_type) > 0, "value_type must be complete before calling allocate.");
; 835  :         return static_cast<_Ty*>(_Allocate<_New_alignof<_Ty>>(_Get_size_of_n<sizeof(_Ty)>(_Count)));
; 836  :     }

  00034	5d		 pop	 ebp
  00035	c2 04 00	 ret	 4
$LN10@allocate:

; 238  :     return nullptr;

  00038	33 c0		 xor	 eax, eax

; 834  :         static_assert(sizeof(value_type) > 0, "value_type must be complete before calling allocate.");
; 835  :         return static_cast<_Ty*>(_Allocate<_New_alignof<_Ty>>(_Get_size_of_n<sizeof(_Ty)>(_Count)));
; 836  :     }

  0003a	5d		 pop	 ebp
  0003b	c2 04 00	 ret	 4
$LN16@allocate:

; 61   :             _Throw_bad_array_new_length(); // multiply overflow

  0003e	e8 00 00 00 00	 call	 ?_Throw_bad_array_new_length@std@@YAXXZ ; std::_Throw_bad_array_new_length
$LN14@allocate:
  00043	cc		 int	 3
?allocate@?$allocator@USVictim@CPythonPlayerEventHandler@@@std@@QAEPAUSVictim@CPythonPlayerEventHandler@@I@Z ENDP ; std::allocator<CPythonPlayerEventHandler::SVictim>::allocate
_TEXT	ENDS
; Function compile flags: /Ogtp
; File C:\Program Files\Microsoft Visual Studio\2022\Community\VC\Tools\MSVC\14.34.31933\include\vector
;	COMDAT ?_Getal@?$vector@USVictim@CPythonPlayerEventHandler@@V?$allocator@USVictim@CPythonPlayerEventHandler@@@std@@@std@@ABEABV?$allocator@USVictim@CPythonPlayerEventHandler@@@2@XZ
_TEXT	SEGMENT
?_Getal@?$vector@USVictim@CPythonPlayerEventHandler@@V?$allocator@USVictim@CPythonPlayerEventHandler@@@std@@@std@@ABEABV?$allocator@USVictim@CPythonPlayerEventHandler@@@2@XZ PROC ; std::vector<CPythonPlayerEventHandler::SVictim,std::allocator<CPythonPlayerEventHandler::SVictim> >::_Getal, COMDAT
; _this$ = ecx

; 2248 :         return _Mypair._Get_first();

  00000	8b c1		 mov	 eax, ecx

; 2249 :     }

  00002	c3		 ret	 0
?_Getal@?$vector@USVictim@CPythonPlayerEventHandler@@V?$allocator@USVictim@CPythonPlayerEventHandler@@@std@@@std@@ABEABV?$allocator@USVictim@CPythonPlayerEventHandler@@@2@XZ ENDP ; std::vector<CPythonPlayerEventHandler::SVictim,std::allocator<CPythonPlayerEventHandler::SVictim> >::_Getal
_TEXT	ENDS
; Function compile flags: /Ogtp
; File C:\Program Files\Microsoft Visual Studio\2022\Community\VC\Tools\MSVC\14.34.31933\include\vector
;	COMDAT ?capacity@?$vector@USVictim@CPythonPlayerEventHandler@@V?$allocator@USVictim@CPythonPlayerEventHandler@@@std@@@std@@QBEIXZ
_TEXT	SEGMENT
?capacity@?$vector@USVictim@CPythonPlayerEventHandler@@V?$allocator@USVictim@CPythonPlayerEventHandler@@@std@@@std@@QBEIXZ PROC ; std::vector<CPythonPlayerEventHandler::SVictim,std::allocator<CPythonPlayerEventHandler::SVictim> >::capacity, COMDAT
; _this$ = ecx

; 1941 :         auto& _My_data = _Mypair._Myval2;
; 1942 :         return static_cast<size_type>(_My_data._Myend - _My_data._Myfirst);

  00000	8b 41 08	 mov	 eax, DWORD PTR [ecx+8]
  00003	2b 01		 sub	 eax, DWORD PTR [ecx]
  00005	c1 f8 02	 sar	 eax, 2
  00008	69 c0 ab aa aa
	aa		 imul	 eax, eax, -1431655765

; 1943 :     }

  0000e	c3		 ret	 0
?capacity@?$vector@USVictim@CPythonPlayerEventHandler@@V?$allocator@USVictim@CPythonPlayerEventHandler@@@std@@@std@@QBEIXZ ENDP ; std::vector<CPythonPlayerEventHandler::SVictim,std::allocator<CPythonPlayerEventHandler::SVictim> >::capacity
_TEXT	ENDS
; Function compile flags: /Ogtp
; File C:\Program Files\Microsoft Visual Studio\2022\Community\VC\Tools\MSVC\14.34.31933\include\xmemory
;	COMDAT ?max_size@?$_Default_allocator_traits@V?$allocator@USVictim@CPythonPlayerEventHandler@@@std@@@std@@SAIABV?$allocator@USVictim@CPythonPlayerEventHandler@@@2@@Z
_TEXT	SEGMENT
?max_size@?$_Default_allocator_traits@V?$allocator@USVictim@CPythonPlayerEventHandler@@@std@@@std@@SAIABV?$allocator@USVictim@CPythonPlayerEventHandler@@@2@@Z PROC ; std::_Default_allocator_traits<std::allocator<CPythonPlayerEventHandler::SVictim> >::max_size, COMDAT
; ___formal$dead$ = ecx

; 694  :         return static_cast<size_t>(-1) / sizeof(value_type);

  00000	b8 55 55 55 15	 mov	 eax, 357913941		; 15555555H

; 695  :     }

  00005	c3		 ret	 0
?max_size@?$_Default_allocator_traits@V?$allocator@USVictim@CPythonPlayerEventHandler@@@std@@@std@@SAIABV?$allocator@USVictim@CPythonPlayerEventHandler@@@2@@Z ENDP ; std::_Default_allocator_traits<std::allocator<CPythonPlayerEventHandler::SVictim> >::max_size
_TEXT	ENDS
; Function compile flags: /Ogtp
; File C:\Program Files\Microsoft Visual Studio\2022\Community\VC\Tools\MSVC\14.34.31933\include\xmemory
;	COMDAT ?_Get_first@?$_Compressed_pair@V?$allocator@USVictim@CPythonPlayerEventHandler@@@std@@V?$_Vector_val@U?$_Simple_types@USVictim@CPythonPlayerEventHandler@@@std@@@2@$00@std@@QBEABV?$allocator@USVictim@CPythonPlayerEventHandler@@@2@XZ
_TEXT	SEGMENT
?_Get_first@?$_Compressed_pair@V?$allocator@USVictim@CPythonPlayerEventHandler@@@std@@V?$_Vector_val@U?$_Simple_types@USVictim@CPythonPlayerEventHandler@@@std@@@2@$00@std@@QBEABV?$allocator@USVictim@CPythonPlayerEventHandler@@@2@XZ PROC ; std::_Compressed_pair<std::allocator<CPythonPlayerEventHandler::SVictim>,std::_Vector_val<std::_Simple_types<CPythonPlayerEventHandler::SVictim> >,1>::_Get_first, COMDAT
; _this$ = ecx

; 1388 :         return *this;

  00000	8b c1		 mov	 eax, ecx

; 1389 :     }

  00002	c3		 ret	 0
?_Get_first@?$_Compressed_pair@V?$allocator@USVictim@CPythonPlayerEventHandler@@@std@@V?$_Vector_val@U?$_Simple_types@USVictim@CPythonPlayerEventHandler@@@std@@@2@$00@std@@QBEABV?$allocator@USVictim@CPythonPlayerEventHandler@@@2@XZ ENDP ; std::_Compressed_pair<std::allocator<CPythonPlayerEventHandler::SVictim>,std::_Vector_val<std::_Simple_types<CPythonPlayerEventHandler::SVictim> >,1>::_Get_first
_TEXT	ENDS
; Function compile flags: /Ogtp
; File C:\Program Files\Microsoft Visual Studio\2022\Community\VC\Tools\MSVC\14.34.31933\include\xutility
;	COMDAT ??$_Construct_in_place@USVictim@CPythonPlayerEventHandler@@ABU12@@std@@YAXAAUSVictim@CPythonPlayerEventHandler@@ABU12@@Z
_TEXT	SEGMENT
??$_Construct_in_place@USVictim@CPythonPlayerEventHandler@@ABU12@@std@@YAXAAUSVictim@CPythonPlayerEventHandler@@ABU12@@Z PROC ; std::_Construct_in_place<CPythonPlayerEventHandler::SVictim,CPythonPlayerEventHandler::SVictim const &>, COMDAT
; __Obj$ = ecx
; _<_Args_0>$ = edx

; 225  : #if _HAS_CXX20
; 226  :     if (_STD is_constant_evaluated()) {
; 227  :         _STD construct_at(_STD addressof(_Obj), _STD forward<_Types>(_Args)...);
; 228  :     } else
; 229  : #endif // _HAS_CXX20
; 230  :     {
; 231  :         ::new (_Voidify_iter(_STD addressof(_Obj))) _Ty(_STD forward<_Types>(_Args)...);

  00000	f3 0f 7e 02	 movq	 xmm0, QWORD PTR [edx]
  00004	66 0f d6 01	 movq	 QWORD PTR [ecx], xmm0
  00008	8b 42 08	 mov	 eax, DWORD PTR [edx+8]
  0000b	89 41 08	 mov	 DWORD PTR [ecx+8], eax

; 232  :     }
; 233  : }

  0000e	c3		 ret	 0
??$_Construct_in_place@USVictim@CPythonPlayerEventHandler@@ABU12@@std@@YAXAAUSVictim@CPythonPlayerEventHandler@@ABU12@@Z ENDP ; std::_Construct_in_place<CPythonPlayerEventHandler::SVictim,CPythonPlayerEventHandler::SVictim const &>
_TEXT	ENDS
; Function compile flags: /Ogtp
; File C:\Program Files\Microsoft Visual Studio\2022\Community\VC\Tools\MSVC\14.34.31933\include\xstddef
;	COMDAT ??$_Unfancy@USVictim@CPythonPlayerEventHandler@@@std@@YAPAUSVictim@CPythonPlayerEventHandler@@PAU12@@Z
_TEXT	SEGMENT
??$_Unfancy@USVictim@CPythonPlayerEventHandler@@@std@@YAPAUSVictim@CPythonPlayerEventHandler@@PAU12@@Z PROC ; std::_Unfancy<CPythonPlayerEventHandler::SVictim>, COMDAT
; __Ptr$ = ecx

; 294  :     return _Ptr;

  00000	8b c1		 mov	 eax, ecx

; 295  : }

  00002	c3		 ret	 0
??$_Unfancy@USVictim@CPythonPlayerEventHandler@@@std@@YAPAUSVictim@CPythonPlayerEventHandler@@PAU12@@Z ENDP ; std::_Unfancy<CPythonPlayerEventHandler::SVictim>
_TEXT	ENDS
; Function compile flags: /Ogtp
; File C:\Program Files\Microsoft Visual Studio\2022\Community\VC\Tools\MSVC\14.34.31933\include\xmemory
;	COMDAT ??$construct@USVictim@CPythonPlayerEventHandler@@ABU12@@?$_Default_allocator_traits@V?$allocator@USVictim@CPythonPlayerEventHandler@@@std@@@std@@SAXAAV?$allocator@USVictim@CPythonPlayerEventHandler@@@1@QAUSVictim@CPythonPlayerEventHandler@@ABU34@@Z
_TEXT	SEGMENT
_<_Args_0>$ = 8						; size = 4
??$construct@USVictim@CPythonPlayerEventHandler@@ABU12@@?$_Default_allocator_traits@V?$allocator@USVictim@CPythonPlayerEventHandler@@@std@@@std@@SAXAAV?$allocator@USVictim@CPythonPlayerEventHandler@@@1@QAUSVictim@CPythonPlayerEventHandler@@ABU34@@Z PROC ; std::_Default_allocator_traits<std::allocator<CPythonPlayerEventHandler::SVictim> >::construct<CPythonPlayerEventHandler::SVictim,CPythonPlayerEventHandler::SVictim const &>, COMDAT
; ___formal$dead$ = ecx
; __Ptr$ = edx

; 673  :     static _CONSTEXPR20 void construct(_Alloc&, _Objty* const _Ptr, _Types&&... _Args) {

  00000	55		 push	 ebp
  00001	8b ec		 mov	 ebp, esp

; 674  : #if _HAS_CXX20
; 675  :         if (_STD is_constant_evaluated()) {
; 676  :             _STD construct_at(_Ptr, _STD forward<_Types>(_Args)...);
; 677  :         } else
; 678  : #endif // _HAS_CXX20
; 679  :         {
; 680  :             ::new (_Voidify_iter(_Ptr)) _Objty(_STD forward<_Types>(_Args)...);

  00003	8b 45 08	 mov	 eax, DWORD PTR _<_Args_0>$[ebp]
  00006	f3 0f 7e 00	 movq	 xmm0, QWORD PTR [eax]
  0000a	66 0f d6 02	 movq	 QWORD PTR [edx], xmm0
  0000e	8b 40 08	 mov	 eax, DWORD PTR [eax+8]
  00011	89 42 08	 mov	 DWORD PTR [edx+8], eax

; 681  :         }
; 682  :     }

  00014	5d		 pop	 ebp
  00015	c3		 ret	 0
??$construct@USVictim@CPythonPlayerEventHandler@@ABU12@@?$_Default_allocator_traits@V?$allocator@USVictim@CPythonPlayerEventHandler@@@std@@@std@@SAXAAV?$allocator@USVictim@CPythonPlayerEventHandler@@@1@QAUSVictim@CPythonPlayerEventHandler@@ABU34@@Z ENDP ; std::_Default_allocator_traits<std::allocator<CPythonPlayerEventHandler::SVictim> >::construct<CPythonPlayerEventHandler::SVictim,CPythonPlayerEventHandler::SVictim const &>
_TEXT	ENDS
; Function compile flags: /Ogtp
; File C:\Program Files\Microsoft Visual Studio\2022\Community\VC\Tools\MSVC\14.34.31933\include\xutility
;	COMDAT ??$_Get_unwrapped@ABQAUSVictim@CPythonPlayerEventHandler@@@std@@YA?A_TABQAUSVictim@CPythonPlayerEventHandler@@@Z
_TEXT	SEGMENT
??$_Get_unwrapped@ABQAUSVictim@CPythonPlayerEventHandler@@@std@@YA?A_TABQAUSVictim@CPythonPlayerEventHandler@@@Z PROC ; std::_Get_unwrapped<CPythonPlayerEventHandler::SVictim * const &>, COMDAT
; __It$ = ecx

; 912  :     // unwrap an iterator previously subjected to _Adl_verify_range or otherwise validated
; 913  :     if constexpr (is_pointer_v<decay_t<_Iter>>) { // special-case pointers and arrays
; 914  :         return _It + 0;

  00000	8b 01		 mov	 eax, DWORD PTR [ecx]

; 915  :     } else if constexpr (_Unwrappable_v<_Iter>) {
; 916  :         return static_cast<_Iter&&>(_It)._Unwrapped();
; 917  :     } else {
; 918  :         return static_cast<_Iter&&>(_It);
; 919  :     }
; 920  : }

  00002	c3		 ret	 0
??$_Get_unwrapped@ABQAUSVictim@CPythonPlayerEventHandler@@@std@@YA?A_TABQAUSVictim@CPythonPlayerEventHandler@@@Z ENDP ; std::_Get_unwrapped<CPythonPlayerEventHandler::SVictim * const &>
_TEXT	ENDS
; Function compile flags: /Ogtp
; File C:\Program Files\Microsoft Visual Studio\2022\Community\VC\Tools\MSVC\14.34.31933\include\xmemory
;	COMDAT ??$_Uninitialized_move@PAUSVictim@CPythonPlayerEventHandler@@V?$allocator@USVictim@CPythonPlayerEventHandler@@@std@@@std@@YAPAUSVictim@CPythonPlayerEventHandler@@QAU12@0PAU12@AAV?$allocator@USVictim@CPythonPlayerEventHandler@@@0@@Z
_TEXT	SEGMENT
__Dest$ = 8						; size = 4
__Al$dead$ = 12						; size = 4
??$_Uninitialized_move@PAUSVictim@CPythonPlayerEventHandler@@V?$allocator@USVictim@CPythonPlayerEventHandler@@@std@@@std@@YAPAUSVictim@CPythonPlayerEventHandler@@QAU12@0PAU12@AAV?$allocator@USVictim@CPythonPlayerEventHandler@@@0@@Z PROC ; std::_Uninitialized_move<CPythonPlayerEventHandler::SVictim *,std::allocator<CPythonPlayerEventHandler::SVictim> >, COMDAT
; __First$ = ecx
; __Last$ = edx

; 1788 :     const _InIt _First, const _InIt _Last, _Alloc_ptr_t<_Alloc> _Dest, _Alloc& _Al) {

  00000	55		 push	 ebp
  00001	8b ec		 mov	 ebp, esp
  00003	53		 push	 ebx

; 1789 :     // move [_First, _Last) to raw _Dest, using _Al
; 1790 :     // note: only called internally from elsewhere in the STL
; 1791 :     using _Ptrval     = typename _Alloc::value_type*;
; 1792 :     auto _UFirst      = _Get_unwrapped(_First);
; 1793 :     const auto _ULast = _Get_unwrapped(_Last);
; 1794 :     if constexpr (conjunction_v<bool_constant<_Iter_move_cat<decltype(_UFirst), _Ptrval>::_Bitcopy_constructible>,
; 1795 :                       _Uses_default_construct<_Alloc, _Ptrval, decltype(_STD move(*_UFirst))>>) {
; 1796 : #if _HAS_CXX20
; 1797 :         if (!_STD is_constant_evaluated())
; 1798 : #endif // _HAS_CXX20
; 1799 :         {
; 1800 :             _Copy_memmove(_UFirst, _ULast, _Unfancy(_Dest));

  00004	8b 5d 08	 mov	 ebx, DWORD PTR __Dest$[ebp]
  00007	56		 push	 esi
  00008	57		 push	 edi
  00009	53		 push	 ebx
  0000a	8b fa		 mov	 edi, edx
  0000c	8b f1		 mov	 esi, ecx
  0000e	e8 00 00 00 00	 call	 ??$_Copy_memmove@PAUSVictim@CPythonPlayerEventHandler@@PAU12@@std@@YAPAUSVictim@CPythonPlayerEventHandler@@PAU12@00@Z ; std::_Copy_memmove<CPythonPlayerEventHandler::SVictim *,CPythonPlayerEventHandler::SVictim *>

; 1801 :             return _Dest + (_ULast - _UFirst);

  00013	2b fe		 sub	 edi, esi
  00015	b8 ab aa aa 2a	 mov	 eax, 715827883		; 2aaaaaabH
  0001a	f7 ef		 imul	 edi
  0001c	83 c4 04	 add	 esp, 4
  0001f	d1 fa		 sar	 edx, 1
  00021	8b c2		 mov	 eax, edx
  00023	c1 e8 1f	 shr	 eax, 31			; 0000001fH
  00026	03 c2		 add	 eax, edx
  00028	5f		 pop	 edi
  00029	5e		 pop	 esi
  0002a	8d 04 40	 lea	 eax, DWORD PTR [eax+eax*2]
  0002d	8d 04 83	 lea	 eax, DWORD PTR [ebx+eax*4]
  00030	5b		 pop	 ebx

; 1802 :         }
; 1803 :     }
; 1804 : 
; 1805 :     _Uninitialized_backout_al<_Alloc> _Backout{_Dest, _Al};
; 1806 :     for (; _UFirst != _ULast; ++_UFirst) {
; 1807 :         _Backout._Emplace_back(_STD move(*_UFirst));
; 1808 :     }
; 1809 : 
; 1810 :     return _Backout._Release();
; 1811 : }

  00031	5d		 pop	 ebp
  00032	c3		 ret	 0
??$_Uninitialized_move@PAUSVictim@CPythonPlayerEventHandler@@V?$allocator@USVictim@CPythonPlayerEventHandler@@@std@@@std@@YAPAUSVictim@CPythonPlayerEventHandler@@QAU12@0PAU12@AAV?$allocator@USVictim@CPythonPlayerEventHandler@@@0@@Z ENDP ; std::_Uninitialized_move<CPythonPlayerEventHandler::SVictim *,std::allocator<CPythonPlayerEventHandler::SVictim> >
_TEXT	ENDS
; Function compile flags: /Ogtp
; File C:\Program Files\Microsoft Visual Studio\2022\Community\VC\Tools\MSVC\14.34.31933\include\xmemory
;	COMDAT ?_Release@?$_Uninitialized_backout_al@V?$allocator@USVictim@CPythonPlayerEventHandler@@@std@@@std@@QAEPAUSVictim@CPythonPlayerEventHandler@@XZ
_TEXT	SEGMENT
?_Release@?$_Uninitialized_backout_al@V?$allocator@USVictim@CPythonPlayerEventHandler@@@std@@@std@@QAEPAUSVictim@CPythonPlayerEventHandler@@XZ PROC ; std::_Uninitialized_backout_al<std::allocator<CPythonPlayerEventHandler::SVictim> >::_Release, COMDAT
; _this$ = ecx

; 1668 :         _First = _Last;

  00000	8b 41 04	 mov	 eax, DWORD PTR [ecx+4]
  00003	89 01		 mov	 DWORD PTR [ecx], eax

; 1669 :         return _Last;
; 1670 :     }

  00005	c3		 ret	 0
?_Release@?$_Uninitialized_backout_al@V?$allocator@USVictim@CPythonPlayerEventHandler@@@std@@@std@@QAEPAUSVictim@CPythonPlayerEventHandler@@XZ ENDP ; std::_Uninitialized_backout_al<std::allocator<CPythonPlayerEventHandler::SVictim> >::_Release
_TEXT	ENDS
; Function compile flags: /Ogtp
; File C:\Program Files\Microsoft Visual Studio\2022\Community\VC\Tools\MSVC\14.34.31933\include\xmemory
;	COMDAT ??1?$_Uninitialized_backout_al@V?$allocator@USVictim@CPythonPlayerEventHandler@@@std@@@std@@QAE@XZ
_TEXT	SEGMENT
??1?$_Uninitialized_backout_al@V?$allocator@USVictim@CPythonPlayerEventHandler@@@std@@@std@@QAE@XZ PROC ; std::_Uninitialized_backout_al<std::allocator<CPythonPlayerEventHandler::SVictim> >::~_Uninitialized_backout_al<std::allocator<CPythonPlayerEventHandler::SVictim> >, COMDAT
; _this$ = ecx

; 1658 :         _Destroy_range(_First, _Last, _Al);
; 1659 :     }

  00000	c2 00 00	 ret	 0
??1?$_Uninitialized_backout_al@V?$allocator@USVictim@CPythonPlayerEventHandler@@@std@@@std@@QAE@XZ ENDP ; std::_Uninitialized_backout_al<std::allocator<CPythonPlayerEventHandler::SVictim> >::~_Uninitialized_backout_al<std::allocator<CPythonPlayerEventHandler::SVictim> >
_TEXT	ENDS
; Function compile flags: /Ogtp
; File C:\Program Files\Microsoft Visual Studio\2022\Community\VC\Tools\MSVC\14.34.31933\include\xmemory
;	COMDAT ??0?$_Uninitialized_backout_al@V?$allocator@USVictim@CPythonPlayerEventHandler@@@std@@@std@@QAE@PAUSVictim@CPythonPlayerEventHandler@@AAV?$allocator@USVictim@CPythonPlayerEventHandler@@@1@@Z
_TEXT	SEGMENT
__Dest$ = 8						; size = 4
__Al_$ = 12						; size = 4
??0?$_Uninitialized_backout_al@V?$allocator@USVictim@CPythonPlayerEventHandler@@@std@@@std@@QAE@PAUSVictim@CPythonPlayerEventHandler@@AAV?$allocator@USVictim@CPythonPlayerEventHandler@@@1@@Z PROC ; std::_Uninitialized_backout_al<std::allocator<CPythonPlayerEventHandler::SVictim> >::_Uninitialized_backout_al<std::allocator<CPythonPlayerEventHandler::SVictim> >, COMDAT
; _this$ = ecx

; 1652 :     _CONSTEXPR20 _Uninitialized_backout_al(pointer _Dest, _Alloc& _Al_) : _First(_Dest), _Last(_Dest), _Al(_Al_) {}

  00000	55		 push	 ebp
  00001	8b ec		 mov	 ebp, esp
  00003	8b 45 08	 mov	 eax, DWORD PTR __Dest$[ebp]
  00006	89 01		 mov	 DWORD PTR [ecx], eax
  00008	89 41 04	 mov	 DWORD PTR [ecx+4], eax
  0000b	8b 45 0c	 mov	 eax, DWORD PTR __Al_$[ebp]
  0000e	89 41 08	 mov	 DWORD PTR [ecx+8], eax
  00011	8b c1		 mov	 eax, ecx
  00013	5d		 pop	 ebp
  00014	c2 08 00	 ret	 8
??0?$_Uninitialized_backout_al@V?$allocator@USVictim@CPythonPlayerEventHandler@@@std@@@std@@QAE@PAUSVictim@CPythonPlayerEventHandler@@AAV?$allocator@USVictim@CPythonPlayerEventHandler@@@1@@Z ENDP ; std::_Uninitialized_backout_al<std::allocator<CPythonPlayerEventHandler::SVictim> >::_Uninitialized_backout_al<std::allocator<CPythonPlayerEventHandler::SVictim> >
_TEXT	ENDS
; Function compile flags: /Ogtp
; File C:\Program Files\Microsoft Visual Studio\2022\Community\VC\Tools\MSVC\14.34.31933\include\xstddef
;	COMDAT ??$addressof@USVictim@CPythonPlayerEventHandler@@@std@@YAPAUSVictim@CPythonPlayerEventHandler@@AAU12@@Z
_TEXT	SEGMENT
??$addressof@USVictim@CPythonPlayerEventHandler@@@std@@YAPAUSVictim@CPythonPlayerEventHandler@@AAU12@@Z PROC ; std::addressof<CPythonPlayerEventHandler::SVictim>, COMDAT
; __Val$ = ecx

; 281  :     return __builtin_addressof(_Val);

  00000	8b c1		 mov	 eax, ecx

; 282  : }

  00002	c3		 ret	 0
??$addressof@USVictim@CPythonPlayerEventHandler@@@std@@YAPAUSVictim@CPythonPlayerEventHandler@@AAU12@@Z ENDP ; std::addressof<CPythonPlayerEventHandler::SVictim>
_TEXT	ENDS
; Function compile flags: /Ogtp
; File C:\Program Files\Microsoft Visual Studio\2022\Community\VC\Tools\MSVC\14.34.31933\include\xutility
;	COMDAT ??$construct_at@USVictim@CPythonPlayerEventHandler@@ABU12@$0A@@std@@YAPAUSVictim@CPythonPlayerEventHandler@@QAU12@ABU12@@Z
_TEXT	SEGMENT
??$construct_at@USVictim@CPythonPlayerEventHandler@@ABU12@$0A@@std@@YAPAUSVictim@CPythonPlayerEventHandler@@QAU12@ABU12@@Z PROC ; std::construct_at<CPythonPlayerEventHandler::SVictim,CPythonPlayerEventHandler::SVictim const &,0>, COMDAT
; __Location$ = ecx
; _<_Args_0>$ = edx

; 218  :     _MSVC_CONSTEXPR return ::new (_Voidify_iter(_Location)) _Ty(_STD forward<_Types>(_Args)...);

  00000	f3 0f 7e 02	 movq	 xmm0, QWORD PTR [edx]
  00004	66 0f d6 01	 movq	 QWORD PTR [ecx], xmm0
  00008	8b 42 08	 mov	 eax, DWORD PTR [edx+8]
  0000b	89 41 08	 mov	 DWORD PTR [ecx+8], eax
  0000e	8b c1		 mov	 eax, ecx

; 219  : }

  00010	c3		 ret	 0
??$construct_at@USVictim@CPythonPlayerEventHandler@@ABU12@$0A@@std@@YAPAUSVictim@CPythonPlayerEventHandler@@QAU12@ABU12@@Z ENDP ; std::construct_at<CPythonPlayerEventHandler::SVictim,CPythonPlayerEventHandler::SVictim const &,0>
_TEXT	ENDS
; Function compile flags: /Ogtp
; File C:\Program Files\Microsoft Visual Studio\2022\Community\VC\Tools\MSVC\14.34.31933\include\xutility
;	COMDAT ??$_Voidify_iter@PAUSVictim@CPythonPlayerEventHandler@@@std@@YAPAXPAUSVictim@CPythonPlayerEventHandler@@@Z
_TEXT	SEGMENT
??$_Voidify_iter@PAUSVictim@CPythonPlayerEventHandler@@@std@@YAPAXPAUSVictim@CPythonPlayerEventHandler@@@Z PROC ; std::_Voidify_iter<CPythonPlayerEventHandler::SVictim *>, COMDAT
; __It$ = ecx

; 201  :     if constexpr (is_pointer_v<_Iter>) {
; 202  :         return const_cast<void*>(static_cast<const volatile void*>(_It));

  00000	8b c1		 mov	 eax, ecx

; 203  :     } else {
; 204  :         return const_cast<void*>(static_cast<const volatile void*>(_STD addressof(*_It)));
; 205  :     }
; 206  : }

  00002	c3		 ret	 0
??$_Voidify_iter@PAUSVictim@CPythonPlayerEventHandler@@@std@@YAPAXPAUSVictim@CPythonPlayerEventHandler@@@Z ENDP ; std::_Voidify_iter<CPythonPlayerEventHandler::SVictim *>
_TEXT	ENDS
; Function compile flags: /Ogtp
; File C:\Program Files\Microsoft Visual Studio\2022\Community\VC\Tools\MSVC\14.34.31933\include\type_traits
;	COMDAT ??$move@AAUSVictim@CPythonPlayerEventHandler@@@std@@YA$$QAUSVictim@CPythonPlayerEventHandler@@AAU12@@Z
_TEXT	SEGMENT
??$move@AAUSVictim@CPythonPlayerEventHandler@@@std@@YA$$QAUSVictim@CPythonPlayerEventHandler@@AAU12@@Z PROC ; std::move<CPythonPlayerEventHandler::SVictim &>, COMDAT
; __Arg$ = ecx

; 1437 :     return static_cast<remove_reference_t<_Ty>&&>(_Arg);

  00000	8b c1		 mov	 eax, ecx

; 1438 : }

  00002	c3		 ret	 0
??$move@AAUSVictim@CPythonPlayerEventHandler@@@std@@YA$$QAUSVictim@CPythonPlayerEventHandler@@AAU12@@Z ENDP ; std::move<CPythonPlayerEventHandler::SVictim &>
_TEXT	ENDS
; Function compile flags: /Ogtp
; File C:\Program Files\Microsoft Visual Studio\2022\Community\VC\Tools\MSVC\14.34.31933\include\xutility
;	COMDAT ??$_Copy_memmove@PAUSVictim@CPythonPlayerEventHandler@@PAU12@@std@@YAPAUSVictim@CPythonPlayerEventHandler@@PAU12@00@Z
_TEXT	SEGMENT
__Dest$ = 8						; size = 4
??$_Copy_memmove@PAUSVictim@CPythonPlayerEventHandler@@PAU12@@std@@YAPAUSVictim@CPythonPlayerEventHandler@@PAU12@00@Z PROC ; std::_Copy_memmove<CPythonPlayerEventHandler::SVictim *,CPythonPlayerEventHandler::SVictim *>, COMDAT
; __First$ = ecx
; __Last$ = edx

; 3833 : _OutCtgIt _Copy_memmove(_CtgIt _First, _CtgIt _Last, _OutCtgIt _Dest) {

  00000	55		 push	 ebp
  00001	8b ec		 mov	 ebp, esp
  00003	56		 push	 esi

; 3834 :     auto _FirstPtr              = _To_address(_First);
; 3835 :     auto _LastPtr               = _To_address(_Last);
; 3836 :     auto _DestPtr               = _To_address(_Dest);
; 3837 :     const char* const _First_ch = const_cast<const char*>(reinterpret_cast<const volatile char*>(_FirstPtr));
; 3838 :     const char* const _Last_ch  = const_cast<const char*>(reinterpret_cast<const volatile char*>(_LastPtr));
; 3839 :     char* const _Dest_ch        = const_cast<char*>(reinterpret_cast<const volatile char*>(_DestPtr));
; 3840 :     const auto _Count           = static_cast<size_t>(_Last_ch - _First_ch);
; 3841 :     _CSTD memmove(_Dest_ch, _First_ch, _Count);

  00004	8b 75 08	 mov	 esi, DWORD PTR __Dest$[ebp]
  00007	57		 push	 edi
  00008	8b fa		 mov	 edi, edx
  0000a	2b f9		 sub	 edi, ecx
  0000c	57		 push	 edi
  0000d	51		 push	 ecx
  0000e	56		 push	 esi
  0000f	e8 00 00 00 00	 call	 _memmove
  00014	83 c4 0c	 add	 esp, 12			; 0000000cH

; 3842 :     if constexpr (is_pointer_v<_OutCtgIt>) {
; 3843 :         return reinterpret_cast<_OutCtgIt>(_Dest_ch + _Count);

  00017	8d 04 37	 lea	 eax, DWORD PTR [edi+esi]
  0001a	5f		 pop	 edi
  0001b	5e		 pop	 esi

; 3844 :     } else {
; 3845 :         return _Dest + (_LastPtr - _FirstPtr);
; 3846 :     }
; 3847 : }

  0001c	5d		 pop	 ebp
  0001d	c3		 ret	 0
??$_Copy_memmove@PAUSVictim@CPythonPlayerEventHandler@@PAU12@@std@@YAPAUSVictim@CPythonPlayerEventHandler@@PAU12@00@Z ENDP ; std::_Copy_memmove<CPythonPlayerEventHandler::SVictim *,CPythonPlayerEventHandler::SVictim *>
_TEXT	ENDS
; Function compile flags: /Ogtp
; File C:\Program Files\Microsoft Visual Studio\2022\Community\VC\Tools\MSVC\14.34.31933\include\xutility
;	COMDAT ??$_To_address@PAUSVictim@CPythonPlayerEventHandler@@@std@@YA?A_PABQAUSVictim@CPythonPlayerEventHandler@@@Z
_TEXT	SEGMENT
??$_To_address@PAUSVictim@CPythonPlayerEventHandler@@@std@@YA?A_PABQAUSVictim@CPythonPlayerEventHandler@@@Z PROC ; std::_To_address<CPythonPlayerEventHandler::SVictim *>, COMDAT
; __Val$ = ecx

; 3703 :     _STL_INTERNAL_STATIC_ASSERT(contiguous_iterator<_Iter>);
; 3704 :     return _STD to_address(_Val);

  00000	8b 01		 mov	 eax, DWORD PTR [ecx]

; 3705 : }

  00002	c3		 ret	 0
??$_To_address@PAUSVictim@CPythonPlayerEventHandler@@@std@@YA?A_PABQAUSVictim@CPythonPlayerEventHandler@@@Z ENDP ; std::_To_address<CPythonPlayerEventHandler::SVictim *>
_TEXT	ENDS
; Function compile flags: /Ogtp
; File C:\Program Files\Microsoft Visual Studio\2022\Community\VC\Tools\MSVC\14.34.31933\include\xmemory
;	COMDAT ??$_Emplace_back@USVictim@CPythonPlayerEventHandler@@@?$_Uninitialized_backout_al@V?$allocator@USVictim@CPythonPlayerEventHandler@@@std@@@std@@QAEX$$QAUSVictim@CPythonPlayerEventHandler@@@Z
_TEXT	SEGMENT
_<_Vals_0>$ = 8						; size = 4
??$_Emplace_back@USVictim@CPythonPlayerEventHandler@@@?$_Uninitialized_backout_al@V?$allocator@USVictim@CPythonPlayerEventHandler@@@std@@@std@@QAEX$$QAUSVictim@CPythonPlayerEventHandler@@@Z PROC ; std::_Uninitialized_backout_al<std::allocator<CPythonPlayerEventHandler::SVictim> >::_Emplace_back<CPythonPlayerEventHandler::SVictim>, COMDAT
; _this$ = ecx

; 1662 :     _CONSTEXPR20 void _Emplace_back(_Types&&... _Vals) { // construct a new element at *_Last and increment

  00000	55		 push	 ebp
  00001	8b ec		 mov	 ebp, esp

; 680  :             ::new (_Voidify_iter(_Ptr)) _Objty(_STD forward<_Types>(_Args)...);

  00003	8b 45 08	 mov	 eax, DWORD PTR _<_Vals_0>$[ebp]

; 1663 :         allocator_traits<_Alloc>::construct(_Al, _Unfancy(_Last), _STD forward<_Types>(_Vals)...);

  00006	8b 51 04	 mov	 edx, DWORD PTR [ecx+4]

; 680  :             ::new (_Voidify_iter(_Ptr)) _Objty(_STD forward<_Types>(_Args)...);

  00009	f3 0f 7e 00	 movq	 xmm0, QWORD PTR [eax]
  0000d	66 0f d6 02	 movq	 QWORD PTR [edx], xmm0
  00011	8b 40 08	 mov	 eax, DWORD PTR [eax+8]
  00014	89 42 08	 mov	 DWORD PTR [edx+8], eax

; 1664 :         ++_Last;

  00017	83 41 04 0c	 add	 DWORD PTR [ecx+4], 12	; 0000000cH

; 1665 :     }

  0001b	5d		 pop	 ebp
  0001c	c2 04 00	 ret	 4
??$_Emplace_back@USVictim@CPythonPlayerEventHandler@@@?$_Uninitialized_backout_al@V?$allocator@USVictim@CPythonPlayerEventHandler@@@std@@@std@@QAEX$$QAUSVictim@CPythonPlayerEventHandler@@@Z ENDP ; std::_Uninitialized_backout_al<std::allocator<CPythonPlayerEventHandler::SVictim> >::_Emplace_back<CPythonPlayerEventHandler::SVictim>
_TEXT	ENDS
; Function compile flags: /Ogtp
; File C:\Program Files\Microsoft Visual Studio\2022\Community\VC\Tools\MSVC\14.34.31933\include\xutility
;	COMDAT ??$to_address@USVictim@CPythonPlayerEventHandler@@@std@@YAPAUSVictim@CPythonPlayerEventHandler@@QAU12@@Z
_TEXT	SEGMENT
??$to_address@USVictim@CPythonPlayerEventHandler@@@std@@YAPAUSVictim@CPythonPlayerEventHandler@@QAU12@@Z PROC ; std::to_address<CPythonPlayerEventHandler::SVictim>, COMDAT
; __Val$ = ecx

; 290  :     static_assert(!is_function_v<_Ty>,
; 291  :         "N4810 20.10.4 [pointer.conversion]/2: The program is ill-formed if T is a function type.");
; 292  :     return _Val;

  00000	8b c1		 mov	 eax, ecx

; 293  : }

  00002	c3		 ret	 0
??$to_address@USVictim@CPythonPlayerEventHandler@@@std@@YAPAUSVictim@CPythonPlayerEventHandler@@QAU12@@Z ENDP ; std::to_address<CPythonPlayerEventHandler::SVictim>
_TEXT	ENDS
; Function compile flags: /Ogtp
; File C:\Program Files\Microsoft Visual Studio\2022\Community\VC\Tools\MSVC\14.34.31933\include\type_traits
;	COMDAT ??$forward@USVictim@CPythonPlayerEventHandler@@@std@@YA$$QAUSVictim@CPythonPlayerEventHandler@@AAU12@@Z
_TEXT	SEGMENT
??$forward@USVictim@CPythonPlayerEventHandler@@@std@@YA$$QAUSVictim@CPythonPlayerEventHandler@@AAU12@@Z PROC ; std::forward<CPythonPlayerEventHandler::SVictim>, COMDAT
; __Arg$ = ecx

; 1426 :     return static_cast<_Ty&&>(_Arg);

  00000	8b c1		 mov	 eax, ecx

; 1427 : }

  00002	c3		 ret	 0
??$forward@USVictim@CPythonPlayerEventHandler@@@std@@YA$$QAUSVictim@CPythonPlayerEventHandler@@AAU12@@Z ENDP ; std::forward<CPythonPlayerEventHandler::SVictim>
_TEXT	ENDS
; Function compile flags: /Ogtp
; File C:\Program Files\Microsoft Visual Studio\2022\Community\VC\Tools\MSVC\14.34.31933\include\xmemory
;	COMDAT ??$construct@USVictim@CPythonPlayerEventHandler@@U12@@?$_Default_allocator_traits@V?$allocator@USVictim@CPythonPlayerEventHandler@@@std@@@std@@SAXAAV?$allocator@USVictim@CPythonPlayerEventHandler@@@1@QAUSVictim@CPythonPlayerEventHandler@@$$QAU34@@Z
_TEXT	SEGMENT
_<_Args_0>$ = 8						; size = 4
??$construct@USVictim@CPythonPlayerEventHandler@@U12@@?$_Default_allocator_traits@V?$allocator@USVictim@CPythonPlayerEventHandler@@@std@@@std@@SAXAAV?$allocator@USVictim@CPythonPlayerEventHandler@@@1@QAUSVictim@CPythonPlayerEventHandler@@$$QAU34@@Z PROC ; std::_Default_allocator_traits<std::allocator<CPythonPlayerEventHandler::SVictim> >::construct<CPythonPlayerEventHandler::SVictim,CPythonPlayerEventHandler::SVictim>, COMDAT
; ___formal$dead$ = ecx
; __Ptr$ = edx

; 673  :     static _CONSTEXPR20 void construct(_Alloc&, _Objty* const _Ptr, _Types&&... _Args) {

  00000	55		 push	 ebp
  00001	8b ec		 mov	 ebp, esp

; 674  : #if _HAS_CXX20
; 675  :         if (_STD is_constant_evaluated()) {
; 676  :             _STD construct_at(_Ptr, _STD forward<_Types>(_Args)...);
; 677  :         } else
; 678  : #endif // _HAS_CXX20
; 679  :         {
; 680  :             ::new (_Voidify_iter(_Ptr)) _Objty(_STD forward<_Types>(_Args)...);

  00003	8b 45 08	 mov	 eax, DWORD PTR _<_Args_0>$[ebp]
  00006	f3 0f 7e 00	 movq	 xmm0, QWORD PTR [eax]
  0000a	66 0f d6 02	 movq	 QWORD PTR [edx], xmm0
  0000e	8b 40 08	 mov	 eax, DWORD PTR [eax+8]
  00011	89 42 08	 mov	 DWORD PTR [edx+8], eax

; 681  :         }
; 682  :     }

  00014	5d		 pop	 ebp
  00015	c3		 ret	 0
??$construct@USVictim@CPythonPlayerEventHandler@@U12@@?$_Default_allocator_traits@V?$allocator@USVictim@CPythonPlayerEventHandler@@@std@@@std@@SAXAAV?$allocator@USVictim@CPythonPlayerEventHandler@@@1@QAUSVictim@CPythonPlayerEventHandler@@$$QAU34@@Z ENDP ; std::_Default_allocator_traits<std::allocator<CPythonPlayerEventHandler::SVictim> >::construct<CPythonPlayerEventHandler::SVictim,CPythonPlayerEventHandler::SVictim>
_TEXT	ENDS
; Function compile flags: /Ogtp
; File C:\Program Files\Microsoft Visual Studio\2022\Community\VC\Tools\MSVC\14.34.31933\include\xutility
;	COMDAT ??$construct_at@USVictim@CPythonPlayerEventHandler@@U12@$0A@@std@@YAPAUSVictim@CPythonPlayerEventHandler@@QAU12@$$QAU12@@Z
_TEXT	SEGMENT
??$construct_at@USVictim@CPythonPlayerEventHandler@@U12@$0A@@std@@YAPAUSVictim@CPythonPlayerEventHandler@@QAU12@$$QAU12@@Z PROC ; std::construct_at<CPythonPlayerEventHandler::SVictim,CPythonPlayerEventHandler::SVictim,0>, COMDAT
; __Location$ = ecx
; _<_Args_0>$ = edx

; 218  :     _MSVC_CONSTEXPR return ::new (_Voidify_iter(_Location)) _Ty(_STD forward<_Types>(_Args)...);

  00000	f3 0f 7e 02	 movq	 xmm0, QWORD PTR [edx]
  00004	66 0f d6 01	 movq	 QWORD PTR [ecx], xmm0
  00008	8b 42 08	 mov	 eax, DWORD PTR [edx+8]
  0000b	89 41 08	 mov	 DWORD PTR [ecx+8], eax
  0000e	8b c1		 mov	 eax, ecx

; 219  : }

  00010	c3		 ret	 0
??$construct_at@USVictim@CPythonPlayerEventHandler@@U12@$0A@@std@@YAPAUSVictim@CPythonPlayerEventHandler@@QAU12@$$QAU12@@Z ENDP ; std::construct_at<CPythonPlayerEventHandler::SVictim,CPythonPlayerEventHandler::SVictim,0>
_TEXT	ENDS
END
