; Listing generated by Microsoft (R) Optimizing Compiler Version 19.34.31937.0 

	TITLE	e:\metin2_server\solwaynesf v6\clientvs22\vs_files\userinterface\distribute\pythoneventmanager.obj
	.686P
	.XMM
	include listing.inc
	.model	flat

INCLUDELIB OLDNAMES

PUBLIC	??_C@_01GLPGHMHM@z@				; `string'
PUBLIC	??_C@_02HNLLPFKA@up@				; `string'
PUBLIC	??_C@_04CHADEDPO@view@				; `string'
PUBLIC	??_C@_05HCKPILGO@cross@				; `string'
PUBLIC	??_C@_08LHFODBFO@distance@			; `string'
PUBLIC	??_C@_03BHFFHIBL@rot@				; `string'
PUBLIC	??_C@_05NCNFOFLM@pitch@				; `string'
PUBLIC	??_C@_05MFEJDJP@value@				; `string'
PUBLIC	??_C@_0EK@NAEFMGNK@CPythonEventManager?3?3SetRestric@ ; `string'
PUBLIC	??_C@_0EH@KHNDFHCA@CPythonEventManager?3?3SetEventHa@ ; `string'
PUBLIC	??_C@_01JEJKBAGA@g@				; `string'
PUBLIC	??_C@_01OJONOECF@b@				; `string'
PUBLIC	??_C@_09DIPEHMLE@DoneEvent@			; `string'
PUBLIC	??_C@_03LOJEKLML@src@				; `string'
PUBLIC	??_C@_0M@MHNDOIJH@OnLeftImage@			; `string'
PUBLIC	??_C@_0L@ELIGNPMG@OnTopImage@			; `string'
PUBLIC	??_C@_0BC@OIPDJOGL@OnBackgroundImage@		; `string'
PUBLIC	??_C@_05GFDPDNFA@?$CIiis?$CJ@			; `string'
PUBLIC	??_C@_07COJEPNBG@OnImage@			; `string'
PUBLIC	??_C@_0L@NDIFBCJA@image_name@			; `string'
PUBLIC	??_C@_05PHLGJONK@title@				; `string'
PUBLIC	??_C@_04EBPADADD@desc@				; `string'
PUBLIC	??_C@_05FKHKFDID@index@				; `string'
PUBLIC	??_C@_05KBOMEDGA@total@				; `string'
PUBLIC	??_C@_0L@HIIGNCOA@image_type@			; `string'
PUBLIC	??_C@_03DAKNAIGI@idx@				; `string'
PUBLIC	??_C@_08GKIEGGBC@?$CIsissii?$CJ@		; `string'
PUBLIC	??_C@_0BB@FCLBKNGH@OnInsertItemIcon@		; `string'
PUBLIC	??_C@_08KJCKKFJC@?$CIssssii?$CJ@		; `string'
PUBLIC	??_C@_0O@LBIBFC@OnInsertImage@			; `string'
PUBLIC	??_C@_09CNONGEHE@icon_type@			; `string'
PUBLIC	??_C@_09IGOOKEAE@icon_name@			; `string'
PUBLIC	??_C@_04MEMAJGDJ@name@				; `string'
PUBLIC	??_C@_0BD@MDDAOGBD@?A?$LG?$LA?$KC?$LD?$KN?5?$LP?k?H?$KF?$LM?$KO?$DP?4?4?4?4@ ; `string'
PUBLIC	??_C@_09MIAHMBP@highlight@			; `string'
PUBLIC	??_C@_06GEDDNFGH@?$CIisss?$CJ@			; `string'
PUBLIC	??_C@_0BB@JCGLEGP@BINARY_RecvQuest@		; `string'
PUBLIC	??_C@_04JMLDJNEM@?$CIis?$CJ@			; `string'
PUBLIC	??_C@_09IBEAJOHJ@RecvQuest@			; `string'
PUBLIC	??_C@_09LBCONMEI@blendtime@			; `string'
PUBLIC	??_C@_05HJCMGBKF@speed@				; `string'
PUBLIC	??_C@_03LDCBIPEL@?$CIf?$CJ@			; `string'
PUBLIC	??_C@_07EAEHEHPO@FadeOut@			; `string'
PUBLIC	??_C@_06GCJPJKOH@FadeIn@			; `string'
PUBLIC	??_C@_08JJKJMBO@WhiteOut@			; `string'
PUBLIC	??_C@_07NGADDHAB@WhiteIn@			; `string'
PUBLIC	??_C@_0N@CCHILNPP@OnTitleImage@			; `string'
PUBLIC	??_C@_0BA@FCPOOKJM@killstone_count@		; `string'
PUBLIC	??_C@_0O@DDDIKPAP@killmob_count@		; `string'
PUBLIC	??_C@_0M@NAENPPOP@find_hidden@			; `string'
PUBLIC	??_C@_0N@MAFIFFGH@hidden_total@			; `string'
PUBLIC	??_C@_0L@HLMCPCKO@use_potion@			; `string'
PUBLIC	??_C@_0L@HAAPAAPF@is_revived@			; `string'
PUBLIC	??_C@_0L@CEFFAPEL@killallmob@			; `string'
PUBLIC	??_C@_0L@OIFGKHMH@total_time@			; `string'
PUBLIC	??_C@_09HPFMCAOO@bonus_exp@			; `string'
PUBLIC	??_C@_0M@EDIBAKKL@?$CIiiiiiiiii?$CJ@		; `string'
PUBLIC	??_C@_0BC@GLAGHMFL@ShowDungeonResult@		; `string'
PUBLIC	??_C@_05IGKADHGO@width@				; `string'
PUBLIC	??_C@_06LNLHEAAG@height@			; `string'
PUBLIC	??_C@_06JKFPDEMN@OnSize@			; `string'
PUBLIC	??_C@_07MNOKODDC@OnInput@			; `string'
PUBLIC	??_C@_07DDHNKDGP@timeout@			; `string'
PUBLIC	??_C@_09FOPMPDJN@CloseSelf@			; `string'
PUBLIC	??_C@_0BM@GFGEFDCO@BINARY_OpenSelectItemWindow@	; `string'
PUBLIC	??_C@_0P@FONAKFHL@MakeNextButton@		; `string'
PUBLIC	??_C@_0N@NKMOFENJ@MakeQuestion@			; `string'
PUBLIC	??_C@_04LCKGAMBB@?$CIsi?$CJ@			; `string'
PUBLIC	??_C@_0P@EGMAHDDO@AppendQuestion@		; `string'
PUBLIC	??_C@_0DL@PFMMJDKG@CPythonEventManager?3?3InsertLine@ ; `string'
PUBLIC	??_C@_0DD@ENOBDFJN@CPythonEventManager?3?3InsertLine@ ; `string'
PUBLIC	??_C@_0CK@JOIMEHF@?5?$CB?$CB?5PARSING?5ERROR?5?9?5Strange?5Com@ ; `string'
PUBLIC	??_C@_0BB@GNKEGEMJ@?$LD?$LC?$MA?$LK?5?$LN?C?$LA?$KD?5?3?5?$CFd?C?J@ ; `string'
PUBLIC	??_C@_06MJINCFFA@LETTER@			; `string'
PUBLIC	??_C@_05DPNLPLKI@COLOR@				; `string'
PUBLIC	??_C@_05IBAECHHA@DELAY@				; `string'
PUBLIC	??_C@_05EMNIMLKD@ENTER@				; `string'
PUBLIC	??_C@_04DBNKAKHO@WAIT@				; `string'
PUBLIC	??_C@_05PONODPI@CLEAR@				; `string'
PUBLIC	??_C@_08MDIDLFIL@QUESTION@			; `string'
PUBLIC	??_C@_04MOKMKBJN@NEXT@				; `string'
PUBLIC	??_C@_04KANDKFIK@DONE@				; `string'
PUBLIC	??_C@_09GHNJOICA@LEFTIMAGE@			; `string'
PUBLIC	??_C@_08LGGHBKNM@TOPIMAGE@			; `string'
PUBLIC	??_C@_07CDIOHGPA@BGIMAGE@			; `string'
PUBLIC	??_C@_05BNHKIGFN@IMAGE@				; `string'
PUBLIC	??_C@_0N@LEAJJLAE@ADDMAPSIGNAL@			; `string'
PUBLIC	??_C@_0P@MCDNLKLH@CLEARMAPSIGNAL@		; `string'
PUBLIC	??_C@_09GPHHDAMH@SETMSGPOS@			; `string'
PUBLIC	??_C@_09DCGGFGEI@ADJMSGPOS@			; `string'
PUBLIC	??_C@_0L@HNINCFNF@SETCMAPPOS@			; `string'
PUBLIC	??_C@_0M@NLCKLGGC@QUESTBUTTON@			; `string'
PUBLIC	??_C@_0BC@HFDJPBHI@QUESTBUTTON_CLOSE@		; `string'
PUBLIC	??_C@_05DJAECLDN@SLEEP@				; `string'
PUBLIC	??_C@_0L@JFBLMOIC@SET_CAMERA@			; `string'
PUBLIC	??_C@_0N@LDDFAHD@BLEND_CAMERA@			; `string'
PUBLIC	??_C@_0P@JLFCBANF@RESTORE_CAMERA@		; `string'
PUBLIC	??_C@_08HDAMPNGA@FADE_OUT@			; `string'
PUBLIC	??_C@_07BBFGMBEC@FADE_IN@			; `string'
PUBLIC	??_C@_09FBLOEAGA@WHITE_OUT@			; `string'
PUBLIC	??_C@_08KBPNHIPE@WHITE_IN@			; `string'
PUBLIC	??_C@_0L@LKNFDGAI@CLEAR_TEXT@			; `string'
PUBLIC	??_C@_0BN@MHHHIBEN@TEXT_HORIZONTAL_ALIGN_CENTER@ ; `string'
PUBLIC	??_C@_0M@HJKMCEHO@TITLE_IMAGE@			; `string'
PUBLIC	??_C@_0L@PGFMEELF@RUN_CINEMA@			; `string'
PUBLIC	??_C@_0P@FFIDJBND@DUNGEON_RESULT@		; `string'
PUBLIC	??_C@_04BLNHNEEM@ITEM@				; `string'
PUBLIC	??_C@_03OEMEHHJ@MOB@				; `string'
PUBLIC	??_C@_08MALMLJOJ@COLOR256@			; `string'
PUBLIC	??_C@_0M@PMFMMHLB@WINDOW_SIZE@			; `string'
PUBLIC	??_C@_05POAEJIHJ@INPUT@				; `string'
PUBLIC	??_C@_0N@BAJAMEHH@CONFIRM_WAIT@			; `string'
PUBLIC	??_C@_0BB@EAAHJLBE@END_CONFIRM_WAIT@		; `string'
PUBLIC	??_C@_0N@IBBMOEIC@INSERT_IMAGE@			; `string'
PUBLIC	??_C@_0M@NHAJMLIB@SELECT_ITEM@			; `string'
PUBLIC	??_R2?$CDynamicPool@USEventSet@CPythonEventManager@@@@8 ; CDynamicPool<CPythonEventManager::SEventSet>::`RTTI Base Class Array'
PUBLIC	??_R2SEventSet@CPythonEventManager@@8		; CPythonEventManager::SEventSet::`RTTI Base Class Array'
PUBLIC	??_R2CPythonEventManager@@8			; CPythonEventManager::`RTTI Base Class Array'
PUBLIC	??_R2?$CSingleton@VCPythonEventManager@@@@8	; CSingleton<CPythonEventManager>::`RTTI Base Class Array'
PUBLIC	??_R2?$CDynamicPool@VCGraphicTextInstance@@@@8	; CDynamicPool<CGraphicTextInstance>::`RTTI Base Class Array'
PUBLIC	??_R1A@?0A@EA@?$CDynamicPool@USEventSet@CPythonEventManager@@@@8 ; CDynamicPool<CPythonEventManager::SEventSet>::`RTTI Base Class Descriptor at (0,-1,0,64)'
PUBLIC	??_R1A@?0A@EA@SEventSet@CPythonEventManager@@8	; CPythonEventManager::SEventSet::`RTTI Base Class Descriptor at (0,-1,0,64)'
PUBLIC	??_R1A@?0A@EA@CPythonEventManager@@8		; CPythonEventManager::`RTTI Base Class Descriptor at (0,-1,0,64)'
PUBLIC	??_R1A@?0A@EA@?$CSingleton@VCPythonEventManager@@@@8 ; CSingleton<CPythonEventManager>::`RTTI Base Class Descriptor at (0,-1,0,64)'
PUBLIC	??_R1A@?0A@EA@?$CDynamicPool@VCGraphicTextInstance@@@@8 ; CDynamicPool<CGraphicTextInstance>::`RTTI Base Class Descriptor at (0,-1,0,64)'
PUBLIC	??_R3?$CDynamicPool@USEventSet@CPythonEventManager@@@@8 ; CDynamicPool<CPythonEventManager::SEventSet>::`RTTI Class Hierarchy Descriptor'
PUBLIC	??_R0?AV?$CDynamicPool@USEventSet@CPythonEventManager@@@@@8 ; CDynamicPool<CPythonEventManager::SEventSet> `RTTI Type Descriptor'
PUBLIC	??_R3SEventSet@CPythonEventManager@@8		; CPythonEventManager::SEventSet::`RTTI Class Hierarchy Descriptor'
PUBLIC	??_R0?AUSEventSet@CPythonEventManager@@@8	; CPythonEventManager::SEventSet `RTTI Type Descriptor'
PUBLIC	??_R3?$CSingleton@VCPythonEventManager@@@@8	; CSingleton<CPythonEventManager>::`RTTI Class Hierarchy Descriptor'
PUBLIC	??_R0?AV?$CSingleton@VCPythonEventManager@@@@@8	; CSingleton<CPythonEventManager> `RTTI Type Descriptor'
PUBLIC	??_R3CPythonEventManager@@8			; CPythonEventManager::`RTTI Class Hierarchy Descriptor'
PUBLIC	??_R0?AVCPythonEventManager@@@8			; CPythonEventManager `RTTI Type Descriptor'
PUBLIC	??_R3?$CDynamicPool@VCGraphicTextInstance@@@@8	; CDynamicPool<CGraphicTextInstance>::`RTTI Class Hierarchy Descriptor'
PUBLIC	??_R0?AV?$CDynamicPool@VCGraphicTextInstance@@@@@8 ; CDynamicPool<CGraphicTextInstance> `RTTI Type Descriptor'
PUBLIC	??_R4?$CDynamicPool@USEventSet@CPythonEventManager@@@@6B@ ; CDynamicPool<CPythonEventManager::SEventSet>::`RTTI Complete Object Locator'
PUBLIC	??_R4SEventSet@CPythonEventManager@@6B@		; CPythonEventManager::SEventSet::`RTTI Complete Object Locator'
PUBLIC	??_R4?$CSingleton@VCPythonEventManager@@@@6B@	; CSingleton<CPythonEventManager>::`RTTI Complete Object Locator'
PUBLIC	??_R4CPythonEventManager@@6B@			; CPythonEventManager::`RTTI Complete Object Locator'
PUBLIC	??_R4?$CDynamicPool@VCGraphicTextInstance@@@@6B@ ; CDynamicPool<CGraphicTextInstance>::`RTTI Complete Object Locator'
PUBLIC	?ms_singleton@?$CSingleton@VCPythonEventManager@@@@0PAVCPythonEventManager@@A ; CSingleton<CPythonEventManager>::ms_singleton
PUBLIC	??_7?$CSingleton@VCPythonEventManager@@@@6B@	; CSingleton<CPythonEventManager>::`vftable'
PUBLIC	??_7?$CDynamicPool@USEventSet@CPythonEventManager@@@@6B@ ; CDynamicPool<CPythonEventManager::SEventSet>::`vftable'
PUBLIC	??_7?$CDynamicPool@VCGraphicTextInstance@@@@6B@	; CDynamicPool<CGraphicTextInstance>::`vftable'
PUBLIC	??_7CPythonEventManager@@6B@			; CPythonEventManager::`vftable'
PUBLIC	??_7SEventSet@CPythonEventManager@@6B@		; CPythonEventManager::SEventSet::`vftable'
EXTRN	?GetHorizontalAlign@CGraphicTextInstance@@QAEHXZ:PROC ; CGraphicTextInstance::GetHorizontalAlign
EXTRN	?GetTextSize@CGraphicTextInstance@@QAEXPAH0@Z:PROC ; CGraphicTextInstance::GetTextSize
EXTRN	?SetColor@CGraphicTextInstance@@QAEXMMMM@Z:PROC	; CGraphicTextInstance::SetColor
EXTRN	?GetCmd@Group@script@@QAE_NAAUSCmd@2@@Z:PROC	; script::Group::GetCmd
EXTRN	?SetValueString@CGraphicTextInstance@@QAEXABV?$basic_string@DU?$char_traits@D@std@@V?$allocator@D@2@@std@@@Z:PROC ; CGraphicTextInstance::SetValueString
EXTRN	__imp__timeGetTime@0:PROC
EXTRN	?SetHorizonalAlign@CGraphicTextInstance@@QAEXH@Z:PROC ; CGraphicTextInstance::SetHorizonalAlign
EXTRN	?ReadCmd@Group@script@@QAE_NAAUSCmd@2@@Z:PROC	; script::Group::ReadCmd
EXTRN	?Create@Group@script@@QAE_NABV?$basic_string@DU?$char_traits@D@std@@V?$allocator@D@2@@std@@@Z:PROC ; script::Group::Create
EXTRN	?Read@CMappedFile@@QAEHPAXH@Z:PROC		; CMappedFile::Read
EXTRN	??1Group@script@@QAE@XZ:PROC			; script::Group::~Group
EXTRN	??0Group@script@@QAE@XZ:PROC			; script::Group::Group
;	COMDAT ?ms_singleton@?$CSingleton@VCPythonEventManager@@@@0PAVCPythonEventManager@@A
_BSS	SEGMENT
?ms_singleton@?$CSingleton@VCPythonEventManager@@@@0PAVCPythonEventManager@@A DD 01H DUP (?) ; CSingleton<CPythonEventManager>::ms_singleton
_BSS	ENDS
;	COMDAT ??_7SEventSet@CPythonEventManager@@6B@
CONST	SEGMENT
??_7SEventSet@CPythonEventManager@@6B@ DD FLAT:??_R4SEventSet@CPythonEventManager@@6B@ ; CPythonEventManager::SEventSet::`vftable'
	DD	FLAT:??_ESEventSet@CPythonEventManager@@UAEPAXI@Z
CONST	ENDS
;	COMDAT ?strEmptyValue@?1??GetArgumentString@@YAABV?$basic_string@DU?$char_traits@D@std@@V?$allocator@D@2@@std@@PBDAAV?$list@USArgumet@script@@V?$allocator@USArgumet@script@@@std@@@3@@Z@4V23@A
_DATA	SEGMENT
?strEmptyValue@?1??GetArgumentString@@YAABV?$basic_string@DU?$char_traits@D@std@@V?$allocator@D@2@@std@@PBDAAV?$list@USArgumet@script@@V?$allocator@USArgumet@script@@@std@@@3@@Z@4V23@A DB 00H ; `GetArgumentString'::`2'::strEmptyValue
	DB	00H
	DB	00H
	DB	00H
	DB	00H
	DB	00H
	DB	00H
	DB	00H
	DB	00H
	DB	00H
	DB	00H
	DB	00H
	DB	00H
	DB	00H
	DB	00H
	DB	00H
	DD	00H
	DD	0fH
_DATA	ENDS
;	COMDAT ??_7CPythonEventManager@@6B@
CONST	SEGMENT
??_7CPythonEventManager@@6B@ DD FLAT:??_R4CPythonEventManager@@6B@ ; CPythonEventManager::`vftable'
	DD	FLAT:??_ECPythonEventManager@@UAEPAXI@Z
CONST	ENDS
;	COMDAT ??_7?$CDynamicPool@VCGraphicTextInstance@@@@6B@
CONST	SEGMENT
??_7?$CDynamicPool@VCGraphicTextInstance@@@@6B@ DD FLAT:??_R4?$CDynamicPool@VCGraphicTextInstance@@@@6B@ ; CDynamicPool<CGraphicTextInstance>::`vftable'
	DD	FLAT:??_E?$CDynamicPool@VCGraphicTextInstance@@@@UAEPAXI@Z
CONST	ENDS
;	COMDAT ??_7?$CDynamicPool@USEventSet@CPythonEventManager@@@@6B@
CONST	SEGMENT
??_7?$CDynamicPool@USEventSet@CPythonEventManager@@@@6B@ DD FLAT:??_R4?$CDynamicPool@USEventSet@CPythonEventManager@@@@6B@ ; CDynamicPool<CPythonEventManager::SEventSet>::`vftable'
	DD	FLAT:??_E?$CDynamicPool@USEventSet@CPythonEventManager@@@@UAEPAXI@Z
CONST	ENDS
;	COMDAT ??_7?$CSingleton@VCPythonEventManager@@@@6B@
CONST	SEGMENT
??_7?$CSingleton@VCPythonEventManager@@@@6B@ DD FLAT:??_R4?$CSingleton@VCPythonEventManager@@@@6B@ ; CSingleton<CPythonEventManager>::`vftable'
	DD	FLAT:??_E?$CSingleton@VCPythonEventManager@@@@UAEPAXI@Z
CONST	ENDS
;	COMDAT ??_R4?$CDynamicPool@VCGraphicTextInstance@@@@6B@
rdata$r	SEGMENT
??_R4?$CDynamicPool@VCGraphicTextInstance@@@@6B@ DD 00H	; CDynamicPool<CGraphicTextInstance>::`RTTI Complete Object Locator'
	DD	00H
	DD	00H
	DD	FLAT:??_R0?AV?$CDynamicPool@VCGraphicTextInstance@@@@@8
	DD	FLAT:??_R3?$CDynamicPool@VCGraphicTextInstance@@@@8
rdata$r	ENDS
;	COMDAT ??_R4CPythonEventManager@@6B@
rdata$r	SEGMENT
??_R4CPythonEventManager@@6B@ DD 00H			; CPythonEventManager::`RTTI Complete Object Locator'
	DD	00H
	DD	00H
	DD	FLAT:??_R0?AVCPythonEventManager@@@8
	DD	FLAT:??_R3CPythonEventManager@@8
rdata$r	ENDS
;	COMDAT ??_R4?$CSingleton@VCPythonEventManager@@@@6B@
rdata$r	SEGMENT
??_R4?$CSingleton@VCPythonEventManager@@@@6B@ DD 00H	; CSingleton<CPythonEventManager>::`RTTI Complete Object Locator'
	DD	00H
	DD	00H
	DD	FLAT:??_R0?AV?$CSingleton@VCPythonEventManager@@@@@8
	DD	FLAT:??_R3?$CSingleton@VCPythonEventManager@@@@8
rdata$r	ENDS
;	COMDAT ??_R4SEventSet@CPythonEventManager@@6B@
rdata$r	SEGMENT
??_R4SEventSet@CPythonEventManager@@6B@ DD 00H		; CPythonEventManager::SEventSet::`RTTI Complete Object Locator'
	DD	00H
	DD	00H
	DD	FLAT:??_R0?AUSEventSet@CPythonEventManager@@@8
	DD	FLAT:??_R3SEventSet@CPythonEventManager@@8
rdata$r	ENDS
;	COMDAT ??_R4?$CDynamicPool@USEventSet@CPythonEventManager@@@@6B@
rdata$r	SEGMENT
??_R4?$CDynamicPool@USEventSet@CPythonEventManager@@@@6B@ DD 00H ; CDynamicPool<CPythonEventManager::SEventSet>::`RTTI Complete Object Locator'
	DD	00H
	DD	00H
	DD	FLAT:??_R0?AV?$CDynamicPool@USEventSet@CPythonEventManager@@@@@8
	DD	FLAT:??_R3?$CDynamicPool@USEventSet@CPythonEventManager@@@@8
rdata$r	ENDS
;	COMDAT ??_R0?AV?$CDynamicPool@VCGraphicTextInstance@@@@@8
data$rs	SEGMENT
??_R0?AV?$CDynamicPool@VCGraphicTextInstance@@@@@8 DD FLAT:??_7type_info@@6B@ ; CDynamicPool<CGraphicTextInstance> `RTTI Type Descriptor'
	DD	00H
	DB	'.?AV?$CDynamicPool@VCGraphicTextInstance@@@@', 00H
data$rs	ENDS
;	COMDAT ??_R3?$CDynamicPool@VCGraphicTextInstance@@@@8
rdata$r	SEGMENT
??_R3?$CDynamicPool@VCGraphicTextInstance@@@@8 DD 00H	; CDynamicPool<CGraphicTextInstance>::`RTTI Class Hierarchy Descriptor'
	DD	00H
	DD	01H
	DD	FLAT:??_R2?$CDynamicPool@VCGraphicTextInstance@@@@8
rdata$r	ENDS
;	COMDAT ??_R0?AVCPythonEventManager@@@8
data$rs	SEGMENT
??_R0?AVCPythonEventManager@@@8 DD FLAT:??_7type_info@@6B@ ; CPythonEventManager `RTTI Type Descriptor'
	DD	00H
	DB	'.?AVCPythonEventManager@@', 00H
data$rs	ENDS
;	COMDAT ??_R3CPythonEventManager@@8
rdata$r	SEGMENT
??_R3CPythonEventManager@@8 DD 00H			; CPythonEventManager::`RTTI Class Hierarchy Descriptor'
	DD	00H
	DD	02H
	DD	FLAT:??_R2CPythonEventManager@@8
rdata$r	ENDS
;	COMDAT ??_R0?AV?$CSingleton@VCPythonEventManager@@@@@8
data$rs	SEGMENT
??_R0?AV?$CSingleton@VCPythonEventManager@@@@@8 DD FLAT:??_7type_info@@6B@ ; CSingleton<CPythonEventManager> `RTTI Type Descriptor'
	DD	00H
	DB	'.?AV?$CSingleton@VCPythonEventManager@@@@', 00H
data$rs	ENDS
;	COMDAT ??_R3?$CSingleton@VCPythonEventManager@@@@8
rdata$r	SEGMENT
??_R3?$CSingleton@VCPythonEventManager@@@@8 DD 00H	; CSingleton<CPythonEventManager>::`RTTI Class Hierarchy Descriptor'
	DD	00H
	DD	01H
	DD	FLAT:??_R2?$CSingleton@VCPythonEventManager@@@@8
rdata$r	ENDS
;	COMDAT ??_R0?AUSEventSet@CPythonEventManager@@@8
data$rs	SEGMENT
??_R0?AUSEventSet@CPythonEventManager@@@8 DD FLAT:??_7type_info@@6B@ ; CPythonEventManager::SEventSet `RTTI Type Descriptor'
	DD	00H
	DB	'.?AUSEventSet@CPythonEventManager@@', 00H
data$rs	ENDS
;	COMDAT ??_R3SEventSet@CPythonEventManager@@8
rdata$r	SEGMENT
??_R3SEventSet@CPythonEventManager@@8 DD 00H		; CPythonEventManager::SEventSet::`RTTI Class Hierarchy Descriptor'
	DD	00H
	DD	01H
	DD	FLAT:??_R2SEventSet@CPythonEventManager@@8
rdata$r	ENDS
;	COMDAT ??_R0?AV?$CDynamicPool@USEventSet@CPythonEventManager@@@@@8
data$rs	SEGMENT
??_R0?AV?$CDynamicPool@USEventSet@CPythonEventManager@@@@@8 DD FLAT:??_7type_info@@6B@ ; CDynamicPool<CPythonEventManager::SEventSet> `RTTI Type Descriptor'
	DD	00H
	DB	'.?AV?$CDynamicPool@USEventSet@CPythonEventManager@@@@', 00H
data$rs	ENDS
;	COMDAT ??_R3?$CDynamicPool@USEventSet@CPythonEventManager@@@@8
rdata$r	SEGMENT
??_R3?$CDynamicPool@USEventSet@CPythonEventManager@@@@8 DD 00H ; CDynamicPool<CPythonEventManager::SEventSet>::`RTTI Class Hierarchy Descriptor'
	DD	00H
	DD	01H
	DD	FLAT:??_R2?$CDynamicPool@USEventSet@CPythonEventManager@@@@8
rdata$r	ENDS
;	COMDAT ??_R1A@?0A@EA@?$CDynamicPool@VCGraphicTextInstance@@@@8
rdata$r	SEGMENT
??_R1A@?0A@EA@?$CDynamicPool@VCGraphicTextInstance@@@@8 DD FLAT:??_R0?AV?$CDynamicPool@VCGraphicTextInstance@@@@@8 ; CDynamicPool<CGraphicTextInstance>::`RTTI Base Class Descriptor at (0,-1,0,64)'
	DD	00H
	DD	00H
	DD	0ffffffffH
	DD	00H
	DD	040H
	DD	FLAT:??_R3?$CDynamicPool@VCGraphicTextInstance@@@@8
rdata$r	ENDS
;	COMDAT ??_R1A@?0A@EA@?$CSingleton@VCPythonEventManager@@@@8
rdata$r	SEGMENT
??_R1A@?0A@EA@?$CSingleton@VCPythonEventManager@@@@8 DD FLAT:??_R0?AV?$CSingleton@VCPythonEventManager@@@@@8 ; CSingleton<CPythonEventManager>::`RTTI Base Class Descriptor at (0,-1,0,64)'
	DD	00H
	DD	00H
	DD	0ffffffffH
	DD	00H
	DD	040H
	DD	FLAT:??_R3?$CSingleton@VCPythonEventManager@@@@8
rdata$r	ENDS
;	COMDAT ??_R1A@?0A@EA@CPythonEventManager@@8
rdata$r	SEGMENT
??_R1A@?0A@EA@CPythonEventManager@@8 DD FLAT:??_R0?AVCPythonEventManager@@@8 ; CPythonEventManager::`RTTI Base Class Descriptor at (0,-1,0,64)'
	DD	01H
	DD	00H
	DD	0ffffffffH
	DD	00H
	DD	040H
	DD	FLAT:??_R3CPythonEventManager@@8
rdata$r	ENDS
;	COMDAT ??_R1A@?0A@EA@SEventSet@CPythonEventManager@@8
rdata$r	SEGMENT
??_R1A@?0A@EA@SEventSet@CPythonEventManager@@8 DD FLAT:??_R0?AUSEventSet@CPythonEventManager@@@8 ; CPythonEventManager::SEventSet::`RTTI Base Class Descriptor at (0,-1,0,64)'
	DD	00H
	DD	00H
	DD	0ffffffffH
	DD	00H
	DD	040H
	DD	FLAT:??_R3SEventSet@CPythonEventManager@@8
rdata$r	ENDS
;	COMDAT ??_R1A@?0A@EA@?$CDynamicPool@USEventSet@CPythonEventManager@@@@8
rdata$r	SEGMENT
??_R1A@?0A@EA@?$CDynamicPool@USEventSet@CPythonEventManager@@@@8 DD FLAT:??_R0?AV?$CDynamicPool@USEventSet@CPythonEventManager@@@@@8 ; CDynamicPool<CPythonEventManager::SEventSet>::`RTTI Base Class Descriptor at (0,-1,0,64)'
	DD	00H
	DD	00H
	DD	0ffffffffH
	DD	00H
	DD	040H
	DD	FLAT:??_R3?$CDynamicPool@USEventSet@CPythonEventManager@@@@8
rdata$r	ENDS
;	COMDAT ??_R2?$CDynamicPool@VCGraphicTextInstance@@@@8
rdata$r	SEGMENT
??_R2?$CDynamicPool@VCGraphicTextInstance@@@@8 DD FLAT:??_R1A@?0A@EA@?$CDynamicPool@VCGraphicTextInstance@@@@8 ; CDynamicPool<CGraphicTextInstance>::`RTTI Base Class Array'
rdata$r	ENDS
;	COMDAT ??_R2?$CSingleton@VCPythonEventManager@@@@8
rdata$r	SEGMENT
??_R2?$CSingleton@VCPythonEventManager@@@@8 DD FLAT:??_R1A@?0A@EA@?$CSingleton@VCPythonEventManager@@@@8 ; CSingleton<CPythonEventManager>::`RTTI Base Class Array'
rdata$r	ENDS
;	COMDAT ??_R2CPythonEventManager@@8
rdata$r	SEGMENT
??_R2CPythonEventManager@@8 DD FLAT:??_R1A@?0A@EA@CPythonEventManager@@8 ; CPythonEventManager::`RTTI Base Class Array'
	DD	FLAT:??_R1A@?0A@EA@?$CSingleton@VCPythonEventManager@@@@8
rdata$r	ENDS
;	COMDAT ??_R2SEventSet@CPythonEventManager@@8
rdata$r	SEGMENT
??_R2SEventSet@CPythonEventManager@@8 DD FLAT:??_R1A@?0A@EA@SEventSet@CPythonEventManager@@8 ; CPythonEventManager::SEventSet::`RTTI Base Class Array'
rdata$r	ENDS
;	COMDAT ??_R2?$CDynamicPool@USEventSet@CPythonEventManager@@@@8
rdata$r	SEGMENT
??_R2?$CDynamicPool@USEventSet@CPythonEventManager@@@@8 DD FLAT:??_R1A@?0A@EA@?$CDynamicPool@USEventSet@CPythonEventManager@@@@8 ; CDynamicPool<CPythonEventManager::SEventSet>::`RTTI Base Class Array'
rdata$r	ENDS
;	COMDAT ??_C@_0M@NHAJMLIB@SELECT_ITEM@
CONST	SEGMENT
??_C@_0M@NHAJMLIB@SELECT_ITEM@ DB 'SELECT_ITEM', 00H	; `string'
CONST	ENDS
;	COMDAT ??_C@_0N@IBBMOEIC@INSERT_IMAGE@
CONST	SEGMENT
??_C@_0N@IBBMOEIC@INSERT_IMAGE@ DB 'INSERT_IMAGE', 00H	; `string'
CONST	ENDS
;	COMDAT ??_C@_0BB@EAAHJLBE@END_CONFIRM_WAIT@
CONST	SEGMENT
??_C@_0BB@EAAHJLBE@END_CONFIRM_WAIT@ DB 'END_CONFIRM_WAIT', 00H ; `string'
CONST	ENDS
;	COMDAT ??_C@_0N@BAJAMEHH@CONFIRM_WAIT@
CONST	SEGMENT
??_C@_0N@BAJAMEHH@CONFIRM_WAIT@ DB 'CONFIRM_WAIT', 00H	; `string'
CONST	ENDS
;	COMDAT ??_C@_05POAEJIHJ@INPUT@
CONST	SEGMENT
??_C@_05POAEJIHJ@INPUT@ DB 'INPUT', 00H			; `string'
CONST	ENDS
;	COMDAT ??_C@_0M@PMFMMHLB@WINDOW_SIZE@
CONST	SEGMENT
??_C@_0M@PMFMMHLB@WINDOW_SIZE@ DB 'WINDOW_SIZE', 00H	; `string'
CONST	ENDS
;	COMDAT ??_C@_08MALMLJOJ@COLOR256@
CONST	SEGMENT
??_C@_08MALMLJOJ@COLOR256@ DB 'COLOR256', 00H		; `string'
CONST	ENDS
;	COMDAT ??_C@_03OEMEHHJ@MOB@
CONST	SEGMENT
??_C@_03OEMEHHJ@MOB@ DB 'MOB', 00H			; `string'
CONST	ENDS
;	COMDAT ??_C@_04BLNHNEEM@ITEM@
CONST	SEGMENT
??_C@_04BLNHNEEM@ITEM@ DB 'ITEM', 00H			; `string'
CONST	ENDS
;	COMDAT ??_C@_0P@FFIDJBND@DUNGEON_RESULT@
CONST	SEGMENT
??_C@_0P@FFIDJBND@DUNGEON_RESULT@ DB 'DUNGEON_RESULT', 00H ; `string'
CONST	ENDS
;	COMDAT ??_C@_0L@PGFMEELF@RUN_CINEMA@
CONST	SEGMENT
??_C@_0L@PGFMEELF@RUN_CINEMA@ DB 'RUN_CINEMA', 00H	; `string'
CONST	ENDS
;	COMDAT ??_C@_0M@HJKMCEHO@TITLE_IMAGE@
CONST	SEGMENT
??_C@_0M@HJKMCEHO@TITLE_IMAGE@ DB 'TITLE_IMAGE', 00H	; `string'
CONST	ENDS
;	COMDAT ??_C@_0BN@MHHHIBEN@TEXT_HORIZONTAL_ALIGN_CENTER@
CONST	SEGMENT
??_C@_0BN@MHHHIBEN@TEXT_HORIZONTAL_ALIGN_CENTER@ DB 'TEXT_HORIZONTAL_ALIG'
	DB	'N_CENTER', 00H				; `string'
CONST	ENDS
;	COMDAT ??_C@_0L@LKNFDGAI@CLEAR_TEXT@
CONST	SEGMENT
??_C@_0L@LKNFDGAI@CLEAR_TEXT@ DB 'CLEAR_TEXT', 00H	; `string'
CONST	ENDS
;	COMDAT ??_C@_08KBPNHIPE@WHITE_IN@
CONST	SEGMENT
??_C@_08KBPNHIPE@WHITE_IN@ DB 'WHITE_IN', 00H		; `string'
CONST	ENDS
;	COMDAT ??_C@_09FBLOEAGA@WHITE_OUT@
CONST	SEGMENT
??_C@_09FBLOEAGA@WHITE_OUT@ DB 'WHITE_OUT', 00H		; `string'
CONST	ENDS
;	COMDAT ??_C@_07BBFGMBEC@FADE_IN@
CONST	SEGMENT
??_C@_07BBFGMBEC@FADE_IN@ DB 'FADE_IN', 00H		; `string'
CONST	ENDS
;	COMDAT ??_C@_08HDAMPNGA@FADE_OUT@
CONST	SEGMENT
??_C@_08HDAMPNGA@FADE_OUT@ DB 'FADE_OUT', 00H		; `string'
CONST	ENDS
;	COMDAT ??_C@_0P@JLFCBANF@RESTORE_CAMERA@
CONST	SEGMENT
??_C@_0P@JLFCBANF@RESTORE_CAMERA@ DB 'RESTORE_CAMERA', 00H ; `string'
CONST	ENDS
;	COMDAT ??_C@_0N@LDDFAHD@BLEND_CAMERA@
CONST	SEGMENT
??_C@_0N@LDDFAHD@BLEND_CAMERA@ DB 'BLEND_CAMERA', 00H	; `string'
CONST	ENDS
;	COMDAT ??_C@_0L@JFBLMOIC@SET_CAMERA@
CONST	SEGMENT
??_C@_0L@JFBLMOIC@SET_CAMERA@ DB 'SET_CAMERA', 00H	; `string'
CONST	ENDS
;	COMDAT ??_C@_05DJAECLDN@SLEEP@
CONST	SEGMENT
??_C@_05DJAECLDN@SLEEP@ DB 'SLEEP', 00H			; `string'
CONST	ENDS
;	COMDAT ??_C@_0BC@HFDJPBHI@QUESTBUTTON_CLOSE@
CONST	SEGMENT
??_C@_0BC@HFDJPBHI@QUESTBUTTON_CLOSE@ DB 'QUESTBUTTON_CLOSE', 00H ; `string'
CONST	ENDS
;	COMDAT ??_C@_0M@NLCKLGGC@QUESTBUTTON@
CONST	SEGMENT
??_C@_0M@NLCKLGGC@QUESTBUTTON@ DB 'QUESTBUTTON', 00H	; `string'
CONST	ENDS
;	COMDAT ??_C@_0L@HNINCFNF@SETCMAPPOS@
CONST	SEGMENT
??_C@_0L@HNINCFNF@SETCMAPPOS@ DB 'SETCMAPPOS', 00H	; `string'
CONST	ENDS
;	COMDAT ??_C@_09DCGGFGEI@ADJMSGPOS@
CONST	SEGMENT
??_C@_09DCGGFGEI@ADJMSGPOS@ DB 'ADJMSGPOS', 00H		; `string'
CONST	ENDS
;	COMDAT ??_C@_09GPHHDAMH@SETMSGPOS@
CONST	SEGMENT
??_C@_09GPHHDAMH@SETMSGPOS@ DB 'SETMSGPOS', 00H		; `string'
CONST	ENDS
;	COMDAT ??_C@_0P@MCDNLKLH@CLEARMAPSIGNAL@
CONST	SEGMENT
??_C@_0P@MCDNLKLH@CLEARMAPSIGNAL@ DB 'CLEARMAPSIGNAL', 00H ; `string'
CONST	ENDS
;	COMDAT ??_C@_0N@LEAJJLAE@ADDMAPSIGNAL@
CONST	SEGMENT
??_C@_0N@LEAJJLAE@ADDMAPSIGNAL@ DB 'ADDMAPSIGNAL', 00H	; `string'
CONST	ENDS
;	COMDAT ??_C@_05BNHKIGFN@IMAGE@
CONST	SEGMENT
??_C@_05BNHKIGFN@IMAGE@ DB 'IMAGE', 00H			; `string'
CONST	ENDS
;	COMDAT ??_C@_07CDIOHGPA@BGIMAGE@
CONST	SEGMENT
??_C@_07CDIOHGPA@BGIMAGE@ DB 'BGIMAGE', 00H		; `string'
CONST	ENDS
;	COMDAT ??_C@_08LGGHBKNM@TOPIMAGE@
CONST	SEGMENT
??_C@_08LGGHBKNM@TOPIMAGE@ DB 'TOPIMAGE', 00H		; `string'
CONST	ENDS
;	COMDAT ??_C@_09GHNJOICA@LEFTIMAGE@
CONST	SEGMENT
??_C@_09GHNJOICA@LEFTIMAGE@ DB 'LEFTIMAGE', 00H		; `string'
CONST	ENDS
;	COMDAT ??_C@_04KANDKFIK@DONE@
CONST	SEGMENT
??_C@_04KANDKFIK@DONE@ DB 'DONE', 00H			; `string'
CONST	ENDS
;	COMDAT ??_C@_04MOKMKBJN@NEXT@
CONST	SEGMENT
??_C@_04MOKMKBJN@NEXT@ DB 'NEXT', 00H			; `string'
CONST	ENDS
;	COMDAT ??_C@_08MDIDLFIL@QUESTION@
CONST	SEGMENT
??_C@_08MDIDLFIL@QUESTION@ DB 'QUESTION', 00H		; `string'
CONST	ENDS
;	COMDAT ??_C@_05PONODPI@CLEAR@
CONST	SEGMENT
??_C@_05PONODPI@CLEAR@ DB 'CLEAR', 00H			; `string'
CONST	ENDS
;	COMDAT ??_C@_04DBNKAKHO@WAIT@
CONST	SEGMENT
??_C@_04DBNKAKHO@WAIT@ DB 'WAIT', 00H			; `string'
CONST	ENDS
;	COMDAT ??_C@_05EMNIMLKD@ENTER@
CONST	SEGMENT
??_C@_05EMNIMLKD@ENTER@ DB 'ENTER', 00H			; `string'
CONST	ENDS
;	COMDAT ??_C@_05IBAECHHA@DELAY@
CONST	SEGMENT
??_C@_05IBAECHHA@DELAY@ DB 'DELAY', 00H			; `string'
CONST	ENDS
;	COMDAT ??_C@_05DPNLPLKI@COLOR@
CONST	SEGMENT
??_C@_05DPNLPLKI@COLOR@ DB 'COLOR', 00H			; `string'
CONST	ENDS
;	COMDAT ??_C@_06MJINCFFA@LETTER@
CONST	SEGMENT
??_C@_06MJINCFFA@LETTER@ DB 'LETTER', 00H		; `string'
CONST	ENDS
;	COMDAT ??_C@_0BB@GNKEGEMJ@?$LD?$LC?$MA?$LK?5?$LN?C?$LA?$KD?5?3?5?$CFd?C?J@
CONST	SEGMENT
??_C@_0BB@GNKEGEMJ@?$LD?$LC?$MA?$LK?5?$LN?C?$LA?$KD?5?3?5?$CFd?C?J@ DB 0b3H
	DB	0b2H, 0c0H, 0baH, ' ', 0bdH, 0c3H, 0b0H, 0a3H, ' : %d', 0c3H, 0caH
	DB	00H						; `string'
CONST	ENDS
;	COMDAT ??_C@_0CK@JOIMEHF@?5?$CB?$CB?5PARSING?5ERROR?5?9?5Strange?5Com@
CONST	SEGMENT
??_C@_0CK@JOIMEHF@?5?$CB?$CB?5PARSING?5ERROR?5?9?5Strange?5Com@ DB ' !! P'
	DB	'ARSING ERROR - Strange Command : %s', 0aH, 00H ; `string'
CONST	ENDS
;	COMDAT ??_C@_0DD@ENOBDFJN@CPythonEventManager?3?3InsertLine@
CONST	SEGMENT
??_C@_0DD@ENOBDFJN@CPythonEventManager?3?3InsertLine@ DB 'CPythonEventMan'
	DB	'ager::InsertLine - OUT_OF_TEXT_LINE', 00H	; `string'
CONST	ENDS
;	COMDAT ??_C@_0DL@PFMMJDKG@CPythonEventManager?3?3InsertLine@
CONST	SEGMENT
??_C@_0DL@PFMMJDKG@CPythonEventManager?3?3InsertLine@ DB 'CPythonEventMan'
	DB	'ager::InsertLine - CANNOT_FIND_DEFAULT_FONT', 00H ; `string'
CONST	ENDS
;	COMDAT ??_C@_0P@EGMAHDDO@AppendQuestion@
CONST	SEGMENT
??_C@_0P@EGMAHDDO@AppendQuestion@ DB 'AppendQuestion', 00H ; `string'
CONST	ENDS
;	COMDAT ??_C@_04LCKGAMBB@?$CIsi?$CJ@
CONST	SEGMENT
??_C@_04LCKGAMBB@?$CIsi?$CJ@ DB '(si)', 00H		; `string'
CONST	ENDS
;	COMDAT ??_C@_0N@NKMOFENJ@MakeQuestion@
CONST	SEGMENT
??_C@_0N@NKMOFENJ@MakeQuestion@ DB 'MakeQuestion', 00H	; `string'
CONST	ENDS
;	COMDAT ??_C@_0P@FONAKFHL@MakeNextButton@
CONST	SEGMENT
??_C@_0P@FONAKFHL@MakeNextButton@ DB 'MakeNextButton', 00H ; `string'
CONST	ENDS
;	COMDAT ??_C@_0BM@GFGEFDCO@BINARY_OpenSelectItemWindow@
CONST	SEGMENT
??_C@_0BM@GFGEFDCO@BINARY_OpenSelectItemWindow@ DB 'BINARY_OpenSelectItem'
	DB	'Window', 00H				; `string'
CONST	ENDS
;	COMDAT ??_C@_09FOPMPDJN@CloseSelf@
CONST	SEGMENT
??_C@_09FOPMPDJN@CloseSelf@ DB 'CloseSelf', 00H		; `string'
CONST	ENDS
;	COMDAT ??_C@_07DDHNKDGP@timeout@
CONST	SEGMENT
??_C@_07DDHNKDGP@timeout@ DB 'timeout', 00H		; `string'
CONST	ENDS
;	COMDAT ??_C@_07MNOKODDC@OnInput@
CONST	SEGMENT
??_C@_07MNOKODDC@OnInput@ DB 'OnInput', 00H		; `string'
CONST	ENDS
;	COMDAT ??_C@_06JKFPDEMN@OnSize@
CONST	SEGMENT
??_C@_06JKFPDEMN@OnSize@ DB 'OnSize', 00H		; `string'
CONST	ENDS
;	COMDAT ??_C@_06LNLHEAAG@height@
CONST	SEGMENT
??_C@_06LNLHEAAG@height@ DB 'height', 00H		; `string'
CONST	ENDS
;	COMDAT ??_C@_05IGKADHGO@width@
CONST	SEGMENT
??_C@_05IGKADHGO@width@ DB 'width', 00H			; `string'
CONST	ENDS
;	COMDAT ??_C@_0BC@GLAGHMFL@ShowDungeonResult@
CONST	SEGMENT
??_C@_0BC@GLAGHMFL@ShowDungeonResult@ DB 'ShowDungeonResult', 00H ; `string'
CONST	ENDS
;	COMDAT ??_C@_0M@EDIBAKKL@?$CIiiiiiiiii?$CJ@
CONST	SEGMENT
??_C@_0M@EDIBAKKL@?$CIiiiiiiiii?$CJ@ DB '(iiiiiiiii)', 00H ; `string'
CONST	ENDS
;	COMDAT ??_C@_09HPFMCAOO@bonus_exp@
CONST	SEGMENT
??_C@_09HPFMCAOO@bonus_exp@ DB 'bonus_exp', 00H		; `string'
CONST	ENDS
;	COMDAT ??_C@_0L@OIFGKHMH@total_time@
CONST	SEGMENT
??_C@_0L@OIFGKHMH@total_time@ DB 'total_time', 00H	; `string'
CONST	ENDS
;	COMDAT ??_C@_0L@CEFFAPEL@killallmob@
CONST	SEGMENT
??_C@_0L@CEFFAPEL@killallmob@ DB 'killallmob', 00H	; `string'
CONST	ENDS
;	COMDAT ??_C@_0L@HAAPAAPF@is_revived@
CONST	SEGMENT
??_C@_0L@HAAPAAPF@is_revived@ DB 'is_revived', 00H	; `string'
CONST	ENDS
;	COMDAT ??_C@_0L@HLMCPCKO@use_potion@
CONST	SEGMENT
??_C@_0L@HLMCPCKO@use_potion@ DB 'use_potion', 00H	; `string'
CONST	ENDS
;	COMDAT ??_C@_0N@MAFIFFGH@hidden_total@
CONST	SEGMENT
??_C@_0N@MAFIFFGH@hidden_total@ DB 'hidden_total', 00H	; `string'
CONST	ENDS
;	COMDAT ??_C@_0M@NAENPPOP@find_hidden@
CONST	SEGMENT
??_C@_0M@NAENPPOP@find_hidden@ DB 'find_hidden', 00H	; `string'
CONST	ENDS
;	COMDAT ??_C@_0O@DDDIKPAP@killmob_count@
CONST	SEGMENT
??_C@_0O@DDDIKPAP@killmob_count@ DB 'killmob_count', 00H ; `string'
CONST	ENDS
;	COMDAT ??_C@_0BA@FCPOOKJM@killstone_count@
CONST	SEGMENT
??_C@_0BA@FCPOOKJM@killstone_count@ DB 'killstone_count', 00H ; `string'
CONST	ENDS
;	COMDAT ??_C@_0N@CCHILNPP@OnTitleImage@
CONST	SEGMENT
??_C@_0N@CCHILNPP@OnTitleImage@ DB 'OnTitleImage', 00H	; `string'
CONST	ENDS
;	COMDAT ??_C@_07NGADDHAB@WhiteIn@
CONST	SEGMENT
??_C@_07NGADDHAB@WhiteIn@ DB 'WhiteIn', 00H		; `string'
CONST	ENDS
;	COMDAT ??_C@_08JJKJMBO@WhiteOut@
CONST	SEGMENT
??_C@_08JJKJMBO@WhiteOut@ DB 'WhiteOut', 00H		; `string'
CONST	ENDS
;	COMDAT ??_C@_06GCJPJKOH@FadeIn@
CONST	SEGMENT
??_C@_06GCJPJKOH@FadeIn@ DB 'FadeIn', 00H		; `string'
CONST	ENDS
;	COMDAT ??_C@_07EAEHEHPO@FadeOut@
CONST	SEGMENT
??_C@_07EAEHEHPO@FadeOut@ DB 'FadeOut', 00H		; `string'
CONST	ENDS
;	COMDAT ??_C@_03LDCBIPEL@?$CIf?$CJ@
CONST	SEGMENT
??_C@_03LDCBIPEL@?$CIf?$CJ@ DB '(f)', 00H		; `string'
CONST	ENDS
;	COMDAT ??_C@_05HJCMGBKF@speed@
CONST	SEGMENT
??_C@_05HJCMGBKF@speed@ DB 'speed', 00H			; `string'
CONST	ENDS
;	COMDAT ??_C@_09LBCONMEI@blendtime@
CONST	SEGMENT
??_C@_09LBCONMEI@blendtime@ DB 'blendtime', 00H		; `string'
CONST	ENDS
;	COMDAT ??_C@_09IBEAJOHJ@RecvQuest@
CONST	SEGMENT
??_C@_09IBEAJOHJ@RecvQuest@ DB 'RecvQuest', 00H		; `string'
CONST	ENDS
;	COMDAT ??_C@_04JMLDJNEM@?$CIis?$CJ@
CONST	SEGMENT
??_C@_04JMLDJNEM@?$CIis?$CJ@ DB '(is)', 00H		; `string'
CONST	ENDS
;	COMDAT ??_C@_0BB@JCGLEGP@BINARY_RecvQuest@
CONST	SEGMENT
??_C@_0BB@JCGLEGP@BINARY_RecvQuest@ DB 'BINARY_RecvQuest', 00H ; `string'
CONST	ENDS
;	COMDAT ??_C@_06GEDDNFGH@?$CIisss?$CJ@
CONST	SEGMENT
??_C@_06GEDDNFGH@?$CIisss?$CJ@ DB '(isss)', 00H		; `string'
CONST	ENDS
;	COMDAT ??_C@_09MIAHMBP@highlight@
CONST	SEGMENT
??_C@_09MIAHMBP@highlight@ DB 'highlight', 00H		; `string'
CONST	ENDS
;	COMDAT ??_C@_0BD@MDDAOGBD@?A?$LG?$LA?$KC?$LD?$KN?5?$LP?k?H?$KF?$LM?$KO?$DP?4?4?4?4@
CONST	SEGMENT
??_C@_0BD@MDDAOGBD@?A?$LG?$LA?$KC?$LD?$KN?5?$LP?k?H?$KF?$LM?$KO?$DP?4?4?4?4@ DB 0c1H
	DB	0b6H, 0b0H, 0a2H, 0b3H, 0adH, ' ', 0bfH, 0ebH, 0c8H, 0a5H, 0bcH
	DB	0aeH, '?....', 00H				; `string'
CONST	ENDS
;	COMDAT ??_C@_04MEMAJGDJ@name@
CONST	SEGMENT
??_C@_04MEMAJGDJ@name@ DB 'name', 00H			; `string'
CONST	ENDS
;	COMDAT ??_C@_09IGOOKEAE@icon_name@
CONST	SEGMENT
??_C@_09IGOOKEAE@icon_name@ DB 'icon_name', 00H		; `string'
CONST	ENDS
;	COMDAT ??_C@_09CNONGEHE@icon_type@
CONST	SEGMENT
??_C@_09CNONGEHE@icon_type@ DB 'icon_type', 00H		; `string'
CONST	ENDS
;	COMDAT ??_C@_0O@LBIBFC@OnInsertImage@
CONST	SEGMENT
??_C@_0O@LBIBFC@OnInsertImage@ DB 'OnInsertImage', 00H	; `string'
CONST	ENDS
;	COMDAT ??_C@_08KJCKKFJC@?$CIssssii?$CJ@
CONST	SEGMENT
??_C@_08KJCKKFJC@?$CIssssii?$CJ@ DB '(ssssii)', 00H	; `string'
CONST	ENDS
;	COMDAT ??_C@_0BB@FCLBKNGH@OnInsertItemIcon@
CONST	SEGMENT
??_C@_0BB@FCLBKNGH@OnInsertItemIcon@ DB 'OnInsertItemIcon', 00H ; `string'
CONST	ENDS
;	COMDAT ??_C@_08GKIEGGBC@?$CIsissii?$CJ@
CONST	SEGMENT
??_C@_08GKIEGGBC@?$CIsissii?$CJ@ DB '(sissii)', 00H	; `string'
CONST	ENDS
;	COMDAT ??_C@_03DAKNAIGI@idx@
CONST	SEGMENT
??_C@_03DAKNAIGI@idx@ DB 'idx', 00H			; `string'
CONST	ENDS
;	COMDAT ??_C@_0L@HIIGNCOA@image_type@
CONST	SEGMENT
??_C@_0L@HIIGNCOA@image_type@ DB 'image_type', 00H	; `string'
CONST	ENDS
;	COMDAT ??_C@_05KBOMEDGA@total@
CONST	SEGMENT
??_C@_05KBOMEDGA@total@ DB 'total', 00H			; `string'
CONST	ENDS
;	COMDAT ??_C@_05FKHKFDID@index@
CONST	SEGMENT
??_C@_05FKHKFDID@index@ DB 'index', 00H			; `string'
CONST	ENDS
;	COMDAT ??_C@_04EBPADADD@desc@
CONST	SEGMENT
??_C@_04EBPADADD@desc@ DB 'desc', 00H			; `string'
CONST	ENDS
;	COMDAT ??_C@_05PHLGJONK@title@
CONST	SEGMENT
??_C@_05PHLGJONK@title@ DB 'title', 00H			; `string'
CONST	ENDS
;	COMDAT ??_C@_0L@NDIFBCJA@image_name@
CONST	SEGMENT
??_C@_0L@NDIFBCJA@image_name@ DB 'image_name', 00H	; `string'
CONST	ENDS
;	COMDAT ??_C@_07COJEPNBG@OnImage@
CONST	SEGMENT
??_C@_07COJEPNBG@OnImage@ DB 'OnImage', 00H		; `string'
CONST	ENDS
;	COMDAT ??_C@_05GFDPDNFA@?$CIiis?$CJ@
CONST	SEGMENT
??_C@_05GFDPDNFA@?$CIiis?$CJ@ DB '(iis)', 00H		; `string'
CONST	ENDS
;	COMDAT ??_C@_0BC@OIPDJOGL@OnBackgroundImage@
CONST	SEGMENT
??_C@_0BC@OIPDJOGL@OnBackgroundImage@ DB 'OnBackgroundImage', 00H ; `string'
CONST	ENDS
;	COMDAT ??_C@_0L@ELIGNPMG@OnTopImage@
CONST	SEGMENT
??_C@_0L@ELIGNPMG@OnTopImage@ DB 'OnTopImage', 00H	; `string'
CONST	ENDS
;	COMDAT ??_C@_0M@MHNDOIJH@OnLeftImage@
CONST	SEGMENT
??_C@_0M@MHNDOIJH@OnLeftImage@ DB 'OnLeftImage', 00H	; `string'
CONST	ENDS
;	COMDAT ??_C@_03LOJEKLML@src@
CONST	SEGMENT
??_C@_03LOJEKLML@src@ DB 'src', 00H			; `string'
CONST	ENDS
;	COMDAT ??_C@_09DIPEHMLE@DoneEvent@
CONST	SEGMENT
??_C@_09DIPEHMLE@DoneEvent@ DB 'DoneEvent', 00H		; `string'
CONST	ENDS
;	COMDAT ??_C@_01OJONOECF@b@
CONST	SEGMENT
??_C@_01OJONOECF@b@ DB 'b', 00H				; `string'
CONST	ENDS
;	COMDAT ??_C@_01JEJKBAGA@g@
CONST	SEGMENT
??_C@_01JEJKBAGA@g@ DB 'g', 00H				; `string'
CONST	ENDS
;	COMDAT ??_C@_0EH@KHNDFHCA@CPythonEventManager?3?3SetEventHa@
CONST	SEGMENT
??_C@_0EH@KHNDFHCA@CPythonEventManager?3?3SetEventHa@ DB 'CPythonEventMan'
	DB	'ager::SetEventHandler m_EventSetVector[iIndex=%d]==NULL', 00H ; `string'
CONST	ENDS
;	COMDAT ??_C@_0EK@NAEFMGNK@CPythonEventManager?3?3SetRestric@
CONST	SEGMENT
??_C@_0EK@NAEFMGNK@CPythonEventManager?3?3SetRestric@ DB 'CPythonEventMan'
	DB	'ager::SetRestrictedCount m_EventSetVector[iIndex=%d]==NULL', 00H ; `string'
CONST	ENDS
;	COMDAT ??_C@_05MFEJDJP@value@
CONST	SEGMENT
??_C@_05MFEJDJP@value@ DB 'value', 00H			; `string'
CONST	ENDS
;	COMDAT ??_C@_05NCNFOFLM@pitch@
CONST	SEGMENT
??_C@_05NCNFOFLM@pitch@ DB 'pitch', 00H			; `string'
CONST	ENDS
;	COMDAT ??_C@_03BHFFHIBL@rot@
CONST	SEGMENT
??_C@_03BHFFHIBL@rot@ DB 'rot', 00H			; `string'
CONST	ENDS
;	COMDAT ??_C@_08LHFODBFO@distance@
CONST	SEGMENT
??_C@_08LHFODBFO@distance@ DB 'distance', 00H		; `string'
CONST	ENDS
;	COMDAT ??_C@_05HCKPILGO@cross@
CONST	SEGMENT
??_C@_05HCKPILGO@cross@ DB 'cross', 00H			; `string'
CONST	ENDS
;	COMDAT ??_C@_04CHADEDPO@view@
CONST	SEGMENT
??_C@_04CHADEDPO@view@ DB 'view', 00H			; `string'
CONST	ENDS
;	COMDAT ??_C@_02HNLLPFKA@up@
CONST	SEGMENT
??_C@_02HNLLPFKA@up@ DB 'up', 00H			; `string'
CONST	ENDS
;	COMDAT ??_C@_01GLPGHMHM@z@
CONST	SEGMENT
??_C@_01GLPGHMHM@z@ DB 'z', 00H				; `string'
PUBLIC	?append@?$basic_string@DU?$char_traits@D@std@@V?$allocator@D@2@@std@@QAEAAV12@ABV12@@Z ; std::basic_string<char,std::char_traits<char>,std::allocator<char> >::append
PUBLIC	??A?$basic_string@DU?$char_traits@D@std@@V?$allocator@D@2@@std@@QAEAADI@Z ; std::basic_string<char,std::char_traits<char>,std::allocator<char> >::operator[]
PUBLIC	??$construct_at@PAVCGraphicTextInstance@@PAV1@$0A@@std@@YAPAPAVCGraphicTextInstance@@QAPAV1@$$QAPAV1@@Z ; std::construct_at<CGraphicTextInstance *,CGraphicTextInstance *,0>
PUBLIC	??$move@AAV?$tuple@$$QAV?$basic_string@DU?$char_traits@D@std@@V?$allocator@D@2@@std@@@std@@@std@@YA$$QAV?$tuple@$$QAV?$basic_string@DU?$char_traits@D@std@@V?$allocator@D@2@@std@@@0@AAV10@@Z ; std::move<std::tuple<std::basic_string<char,std::char_traits<char>,std::allocator<char> > &&> &>
PUBLIC	??$construct@PAVCGraphicTextInstance@@PAV1@@?$_Default_allocator_traits@V?$allocator@PAVCGraphicTextInstance@@@std@@@std@@SAXAAV?$allocator@PAVCGraphicTextInstance@@@1@QAPAVCGraphicTextInstance@@$$QAPAV3@@Z ; std::_Default_allocator_traits<std::allocator<CGraphicTextInstance *> >::construct<CGraphicTextInstance *,CGraphicTextInstance *>
PUBLIC	??$forward@PAVCGraphicTextInstance@@@std@@YA$$QAPAVCGraphicTextInstance@@AAPAV1@@Z ; std::forward<CGraphicTextInstance *>
PUBLIC	??$to_address@PAVCGraphicTextInstance@@@std@@YAPAPAVCGraphicTextInstance@@QAPAV1@@Z ; std::to_address<CGraphicTextInstance *>
PUBLIC	??$_Tuple_get@$0A@$$QAV?$basic_string@DU?$char_traits@D@std@@V?$allocator@D@2@@std@@@std@@YA$$QA_P$$QAV?$tuple@$$QAV?$basic_string@DU?$char_traits@D@std@@V?$allocator@D@2@@std@@@0@@Z ; std::_Tuple_get<0,std::basic_string<char,std::char_traits<char>,std::allocator<char> > &&>
PUBLIC	??$?0V?$tuple@$$QAV?$basic_string@DU?$char_traits@D@std@@V?$allocator@D@2@@std@@@std@@V?$tuple@$$V@1@$0A@$$Z$S@?$pair@$$CBV?$basic_string@DU?$char_traits@D@std@@V?$allocator@D@2@@std@@H@std@@QAE@AAV?$tuple@$$QAV?$basic_string@DU?$char_traits@D@std@@V?$allocator@D@2@@std@@@1@AAV?$tuple@$$V@1@U?$integer_sequence@I$0A@@1@U?$integer_sequence@I$S@1@@Z ; std::pair<std::basic_string<char,std::char_traits<char>,std::allocator<char> > const ,int>::pair<std::basic_string<char,std::char_traits<char>,std::allocator<char> > const ,int><std::tuple<std::basic_string<char,std::char_traits<char>,std::allocator<char> > &&>,std::tuple<>,0>
PUBLIC	??$?0V?$basic_string@DU?$char_traits@D@std@@V?$allocator@D@2@@std@@@?$_Tuple_val@$$QAV?$basic_string@DU?$char_traits@D@std@@V?$allocator@D@2@@std@@@std@@QAE@$$QAV?$basic_string@DU?$char_traits@D@std@@V?$allocator@D@2@@1@@Z ; std::_Tuple_val<std::basic_string<char,std::char_traits<char>,std::allocator<char> > &&>::_Tuple_val<std::basic_string<char,std::char_traits<char>,std::allocator<char> > &&><std::basic_string<char,std::char_traits<char>,std::allocator<char> > >
PUBLIC	??$to_address@PAUSEventSet@CPythonEventManager@@@std@@YAPAPAUSEventSet@CPythonEventManager@@QAPAU12@@Z ; std::to_address<CPythonEventManager::SEventSet *>
PUBLIC	??_GSArgumet@script@@QAEPAXI@Z			; script::SArgumet::`scalar deleting destructor'
PUBLIC	??1SArgumet@script@@QAE@XZ			; script::SArgumet::~SArgumet
PUBLIC	??$destroy_at@USArgumet@script@@@std@@YAXQAUSArgumet@script@@@Z ; std::destroy_at<script::SArgumet>
PUBLIC	??$construct_at@PAUSEventSet@CPythonEventManager@@ABQAU12@$0A@@std@@YAPAPAUSEventSet@CPythonEventManager@@QAPAU12@ABQAU12@@Z ; std::construct_at<CPythonEventManager::SEventSet *,CPythonEventManager::SEventSet * const &,0>
PUBLIC	??$_Emplace_back@PAVCGraphicTextInstance@@@?$_Uninitialized_backout_al@V?$allocator@PAVCGraphicTextInstance@@@std@@@std@@QAEX$$QAPAVCGraphicTextInstance@@@Z ; std::_Uninitialized_backout_al<std::allocator<CGraphicTextInstance *> >::_Emplace_back<CGraphicTextInstance *>
PUBLIC	??$_To_address@PAPAVCGraphicTextInstance@@@std@@YA?A_PABQAPAVCGraphicTextInstance@@@Z ; std::_To_address<CGraphicTextInstance * *>
PUBLIC	??$_Copy_memmove@PAPAVCGraphicTextInstance@@PAPAV1@@std@@YAPAPAVCGraphicTextInstance@@PAPAV1@00@Z ; std::_Copy_memmove<CGraphicTextInstance * *,CGraphicTextInstance * *>
PUBLIC	??$move@AAPAVCGraphicTextInstance@@@std@@YA$$QAPAVCGraphicTextInstance@@AAPAV1@@Z ; std::move<CGraphicTextInstance * &>
PUBLIC	??$_Voidify_iter@PAPAVCGraphicTextInstance@@@std@@YAPAXPAPAVCGraphicTextInstance@@@Z ; std::_Voidify_iter<CGraphicTextInstance * *>
PUBLIC	??$construct_at@PAVCGraphicTextInstance@@ABQAV1@$0A@@std@@YAPAPAVCGraphicTextInstance@@QAPAV1@ABQAV1@@Z ; std::construct_at<CGraphicTextInstance *,CGraphicTextInstance * const &,0>
PUBLIC	??$addressof@PAVCGraphicTextInstance@@@std@@YAPAPAVCGraphicTextInstance@@AAPAV1@@Z ; std::addressof<CGraphicTextInstance *>
PUBLIC	??$construct_at@PAU?$_Tree_node@U?$pair@$$CBV?$basic_string@DU?$char_traits@D@std@@V?$allocator@D@2@@std@@H@std@@PAX@std@@AAPAU12@$0A@@std@@YAPAPAU?$_Tree_node@U?$pair@$$CBV?$basic_string@DU?$char_traits@D@std@@V?$allocator@D@2@@std@@H@std@@PAX@0@QAPAU10@AAPAU10@@Z ; std::construct_at<std::_Tree_node<std::pair<std::basic_string<char,std::char_traits<char>,std::allocator<char> > const ,int>,void *> *,std::_Tree_node<std::pair<std::basic_string<char,std::char_traits<char>,std::allocator<char> > const ,int>,void *> * &,0>
PUBLIC	??$forward@AAPAU?$_Tree_node@U?$pair@$$CBV?$basic_string@DU?$char_traits@D@std@@V?$allocator@D@2@@std@@H@std@@PAX@std@@@std@@YAAAPAU?$_Tree_node@U?$pair@$$CBV?$basic_string@DU?$char_traits@D@std@@V?$allocator@D@2@@std@@H@std@@PAX@0@AAPAU10@@Z ; std::forward<std::_Tree_node<std::pair<std::basic_string<char,std::char_traits<char>,std::allocator<char> > const ,int>,void *> * &>
PUBLIC	??$?0$$QAV?$basic_string@DU?$char_traits@D@std@@V?$allocator@D@2@@std@@$$Z$$V@?$pair@$$CBV?$basic_string@DU?$char_traits@D@std@@V?$allocator@D@2@@std@@H@std@@QAE@Upiecewise_construct_t@1@V?$tuple@$$QAV?$basic_string@DU?$char_traits@D@std@@V?$allocator@D@2@@std@@@1@V?$tuple@$$V@1@@Z ; std::pair<std::basic_string<char,std::char_traits<char>,std::allocator<char> > const ,int>::pair<std::basic_string<char,std::char_traits<char>,std::allocator<char> > const ,int><std::basic_string<char,std::char_traits<char>,std::allocator<char> > &&>
PUBLIC	??$_Voidify_iter@PAU?$pair@$$CBV?$basic_string@DU?$char_traits@D@std@@V?$allocator@D@2@@std@@H@std@@@std@@YAPAXPAU?$pair@$$CBV?$basic_string@DU?$char_traits@D@std@@V?$allocator@D@2@@std@@H@0@@Z ; std::_Voidify_iter<std::pair<std::basic_string<char,std::char_traits<char>,std::allocator<char> > const ,int> *>
PUBLIC	??$construct_at@U?$pair@$$CBV?$basic_string@DU?$char_traits@D@std@@V?$allocator@D@2@@std@@H@std@@ABUpiecewise_construct_t@2@V?$tuple@$$QAV?$basic_string@DU?$char_traits@D@std@@V?$allocator@D@2@@std@@@2@V?$tuple@$$V@2@$0A@@std@@YAPAU?$pair@$$CBV?$basic_string@DU?$char_traits@D@std@@V?$allocator@D@2@@std@@H@0@QAU10@ABUpiecewise_construct_t@0@$$QAV?$tuple@$$QAV?$basic_string@DU?$char_traits@D@std@@V?$allocator@D@2@@std@@@0@$$QAV?$tuple@$$V@0@@Z ; std::construct_at<std::pair<std::basic_string<char,std::char_traits<char>,std::allocator<char> > const ,int>,std::piecewise_construct_t const &,std::tuple<std::basic_string<char,std::char_traits<char>,std::allocator<char> > &&>,std::tuple<>,0>
PUBLIC	??$?0U_Exact_args_t@std@@V?$basic_string@DU?$char_traits@D@std@@V?$allocator@D@2@@1@$$V$0A@@?$tuple@$$QAV?$basic_string@DU?$char_traits@D@std@@V?$allocator@D@2@@std@@@std@@QAE@U_Exact_args_t@1@$$QAV?$basic_string@DU?$char_traits@D@std@@V?$allocator@D@2@@1@@Z ; std::tuple<std::basic_string<char,std::char_traits<char>,std::allocator<char> > &&>::tuple<std::basic_string<char,std::char_traits<char>,std::allocator<char> > &&><std::_Exact_args_t,std::basic_string<char,std::char_traits<char>,std::allocator<char> >,0>
PUBLIC	??$_Voidify_iter@PAUSTextLine@CPythonEventManager@@@std@@YAPAXPAUSTextLine@CPythonEventManager@@@Z ; std::_Voidify_iter<CPythonEventManager::STextLine *>
PUBLIC	??$construct_at@USTextLine@CPythonEventManager@@ABU12@$0A@@std@@YAPAUSTextLine@CPythonEventManager@@QAU12@ABU12@@Z ; std::construct_at<CPythonEventManager::STextLine,CPythonEventManager::STextLine const &,0>
PUBLIC	??$_Emplace_back@PAUSEventSet@CPythonEventManager@@@?$_Uninitialized_backout_al@V?$allocator@PAUSEventSet@CPythonEventManager@@@std@@@std@@QAEX$$QAPAUSEventSet@CPythonEventManager@@@Z ; std::_Uninitialized_backout_al<std::allocator<CPythonEventManager::SEventSet *> >::_Emplace_back<CPythonEventManager::SEventSet *>
PUBLIC	??$_To_address@PAPAUSEventSet@CPythonEventManager@@@std@@YA?A_PABQAPAUSEventSet@CPythonEventManager@@@Z ; std::_To_address<CPythonEventManager::SEventSet * *>
PUBLIC	??$_Copy_memmove@PAPAUSEventSet@CPythonEventManager@@PAPAU12@@std@@YAPAPAUSEventSet@CPythonEventManager@@PAPAU12@00@Z ; std::_Copy_memmove<CPythonEventManager::SEventSet * *,CPythonEventManager::SEventSet * *>
PUBLIC	??$_Voidify_iter@PAPAUSEventSet@CPythonEventManager@@@std@@YAPAXPAPAUSEventSet@CPythonEventManager@@@Z ; std::_Voidify_iter<CPythonEventManager::SEventSet * *>
PUBLIC	??$construct_at@PAUSEventSet@CPythonEventManager@@PAU12@$0A@@std@@YAPAPAUSEventSet@CPythonEventManager@@QAPAU12@$$QAPAU12@@Z ; std::construct_at<CPythonEventManager::SEventSet *,CPythonEventManager::SEventSet *,0>
PUBLIC	??$addressof@PAUSEventSet@CPythonEventManager@@@std@@YAPAPAUSEventSet@CPythonEventManager@@AAPAU12@@Z ; std::addressof<CPythonEventManager::SEventSet *>
PUBLIC	??0?$_Uninitialized_backout_al@V?$allocator@PAUSEventSet@CPythonEventManager@@@std@@@std@@QAE@PAPAUSEventSet@CPythonEventManager@@AAV?$allocator@PAUSEventSet@CPythonEventManager@@@1@@Z ; std::_Uninitialized_backout_al<std::allocator<CPythonEventManager::SEventSet *> >::_Uninitialized_backout_al<std::allocator<CPythonEventManager::SEventSet *> >
PUBLIC	??1?$_Uninitialized_backout_al@V?$allocator@PAUSEventSet@CPythonEventManager@@@std@@@std@@QAE@XZ ; std::_Uninitialized_backout_al<std::allocator<CPythonEventManager::SEventSet *> >::~_Uninitialized_backout_al<std::allocator<CPythonEventManager::SEventSet *> >
PUBLIC	?_Release@?$_Uninitialized_backout_al@V?$allocator@PAUSEventSet@CPythonEventManager@@@std@@@std@@QAEPAPAUSEventSet@CPythonEventManager@@XZ ; std::_Uninitialized_backout_al<std::allocator<CPythonEventManager::SEventSet *> >::_Release
PUBLIC	??0?$_Uninitialized_backout_al@V?$allocator@PAVCGraphicTextInstance@@@std@@@std@@QAE@PAPAVCGraphicTextInstance@@AAV?$allocator@PAVCGraphicTextInstance@@@1@@Z ; std::_Uninitialized_backout_al<std::allocator<CGraphicTextInstance *> >::_Uninitialized_backout_al<std::allocator<CGraphicTextInstance *> >
PUBLIC	??1?$_Uninitialized_backout_al@V?$allocator@PAVCGraphicTextInstance@@@std@@@std@@QAE@XZ ; std::_Uninitialized_backout_al<std::allocator<CGraphicTextInstance *> >::~_Uninitialized_backout_al<std::allocator<CGraphicTextInstance *> >
PUBLIC	?_Release@?$_Uninitialized_backout_al@V?$allocator@PAVCGraphicTextInstance@@@std@@@std@@QAEPAPAVCGraphicTextInstance@@XZ ; std::_Uninitialized_backout_al<std::allocator<CGraphicTextInstance *> >::_Release
PUBLIC	??_G?$pair@$$CBV?$basic_string@DU?$char_traits@D@std@@V?$allocator@D@2@@std@@H@std@@QAEPAXI@Z ; std::pair<std::basic_string<char,std::char_traits<char>,std::allocator<char> > const ,int>::`scalar deleting destructor'
PUBLIC	??0?$tuple@$$QAV?$basic_string@DU?$char_traits@D@std@@V?$allocator@D@2@@std@@@std@@QAE@$$QAV01@@Z ; std::tuple<std::basic_string<char,std::char_traits<char>,std::allocator<char> > &&>::tuple<std::basic_string<char,std::char_traits<char>,std::allocator<char> > &&>
PUBLIC	??$destroy_at@USTextLine@CPythonEventManager@@@std@@YAXQAUSTextLine@CPythonEventManager@@@Z ; std::destroy_at<CPythonEventManager::STextLine>
PUBLIC	??$construct_at@PAU?$_List_node@USTextLine@CPythonEventManager@@PAX@std@@ABQAU12@$0A@@std@@YAPAPAU?$_List_node@USTextLine@CPythonEventManager@@PAX@0@QAPAU10@ABQAU10@@Z ; std::construct_at<std::_List_node<CPythonEventManager::STextLine,void *> *,std::_List_node<CPythonEventManager::STextLine,void *> * const &,0>
PUBLIC	??$forward@ABQAU?$_List_node@USTextLine@CPythonEventManager@@PAX@std@@@std@@YAABQAU?$_List_node@USTextLine@CPythonEventManager@@PAX@0@ABQAU10@@Z ; std::forward<std::_List_node<CPythonEventManager::STextLine,void *> * const &>
PUBLIC	??1?$pair@$$CBV?$basic_string@DU?$char_traits@D@std@@V?$allocator@D@2@@std@@H@std@@QAE@XZ ; std::pair<std::basic_string<char,std::char_traits<char>,std::allocator<char> > const ,int>::~pair<std::basic_string<char,std::char_traits<char>,std::allocator<char> > const ,int>
PUBLIC	??$destroy_at@U?$pair@$$CBV?$basic_string@DU?$char_traits@D@std@@V?$allocator@D@2@@std@@H@std@@@std@@YAXQAU?$pair@$$CBV?$basic_string@DU?$char_traits@D@std@@V?$allocator@D@2@@std@@H@0@@Z ; std::destroy_at<std::pair<std::basic_string<char,std::char_traits<char>,std::allocator<char> > const ,int> >
PUBLIC	??$_Voidify_iter@PAPAU?$_Tree_node@U?$pair@$$CBV?$basic_string@DU?$char_traits@D@std@@V?$allocator@D@2@@std@@H@std@@PAX@std@@@std@@YAPAXPAPAU?$_Tree_node@U?$pair@$$CBV?$basic_string@DU?$char_traits@D@std@@V?$allocator@D@2@@std@@H@std@@PAX@0@@Z ; std::_Voidify_iter<std::_Tree_node<std::pair<std::basic_string<char,std::char_traits<char>,std::allocator<char> > const ,int>,void *> * *>
PUBLIC	??$construct_at@PAU?$_Tree_node@U?$pair@$$CBV?$basic_string@DU?$char_traits@D@std@@V?$allocator@D@2@@std@@H@std@@PAX@std@@ABQAU12@$0A@@std@@YAPAPAU?$_Tree_node@U?$pair@$$CBV?$basic_string@DU?$char_traits@D@std@@V?$allocator@D@2@@std@@H@std@@PAX@0@QAPAU10@ABQAU10@@Z ; std::construct_at<std::_Tree_node<std::pair<std::basic_string<char,std::char_traits<char>,std::allocator<char> > const ,int>,void *> *,std::_Tree_node<std::pair<std::basic_string<char,std::char_traits<char>,std::allocator<char> > const ,int>,void *> * const &,0>
PUBLIC	??$addressof@PAU?$_Tree_node@U?$pair@$$CBV?$basic_string@DU?$char_traits@D@std@@V?$allocator@D@2@@std@@H@std@@PAX@std@@@std@@YAPAPAU?$_Tree_node@U?$pair@$$CBV?$basic_string@DU?$char_traits@D@std@@V?$allocator@D@2@@std@@H@std@@PAX@0@AAPAU10@@Z ; std::addressof<std::_Tree_node<std::pair<std::basic_string<char,std::char_traits<char>,std::allocator<char> > const ,int>,void *> *>
PUBLIC	??$destroy@USArgumet@script@@@?$_Default_allocator_traits@V?$allocator@U?$_List_node@USArgumet@script@@PAX@std@@@std@@@std@@SAXAAV?$allocator@U?$_List_node@USArgumet@script@@PAX@std@@@1@QAUSArgumet@script@@@Z ; std::_Default_allocator_traits<std::allocator<std::_List_node<script::SArgumet,void *> > >::destroy<script::SArgumet>
PUBLIC	??$addressof@USArgumet@script@@@std@@YAPAUSArgumet@script@@AAU12@@Z ; std::addressof<script::SArgumet>
PUBLIC	??$construct@PAUSEventSet@CPythonEventManager@@ABQAU12@@?$_Default_allocator_traits@V?$allocator@PAUSEventSet@CPythonEventManager@@@std@@@std@@SAXAAV?$allocator@PAUSEventSet@CPythonEventManager@@@1@QAPAUSEventSet@CPythonEventManager@@ABQAU34@@Z ; std::_Default_allocator_traits<std::allocator<CPythonEventManager::SEventSet *> >::construct<CPythonEventManager::SEventSet *,CPythonEventManager::SEventSet * const &>
PUBLIC	??$_Construct_in_place@PAUSEventSet@CPythonEventManager@@ABQAU12@@std@@YAXAAPAUSEventSet@CPythonEventManager@@ABQAU12@@Z ; std::_Construct_in_place<CPythonEventManager::SEventSet *,CPythonEventManager::SEventSet * const &>
PUBLIC	??$_Uninitialized_move@PAPAVCGraphicTextInstance@@V?$allocator@PAVCGraphicTextInstance@@@std@@@std@@YAPAPAVCGraphicTextInstance@@QAPAV1@0PAPAV1@AAV?$allocator@PAVCGraphicTextInstance@@@0@@Z ; std::_Uninitialized_move<CGraphicTextInstance * *,std::allocator<CGraphicTextInstance *> >
PUBLIC	??$_Get_unwrapped@ABQAPAVCGraphicTextInstance@@@std@@YA?A_TABQAPAVCGraphicTextInstance@@@Z ; std::_Get_unwrapped<CGraphicTextInstance * * const &>
PUBLIC	??$construct@PAVCGraphicTextInstance@@ABQAV1@@?$_Default_allocator_traits@V?$allocator@PAVCGraphicTextInstance@@@std@@@std@@SAXAAV?$allocator@PAVCGraphicTextInstance@@@1@QAPAVCGraphicTextInstance@@ABQAV3@@Z ; std::_Default_allocator_traits<std::allocator<CGraphicTextInstance *> >::construct<CGraphicTextInstance *,CGraphicTextInstance * const &>
PUBLIC	??$_Construct_in_place@PAVCGraphicTextInstance@@ABQAV1@@std@@YAXAAPAVCGraphicTextInstance@@ABQAV1@@Z ; std::_Construct_in_place<CGraphicTextInstance *,CGraphicTextInstance * const &>
PUBLIC	??$_Freenode@V?$allocator@U?$_Tree_node@U?$pair@$$CBV?$basic_string@DU?$char_traits@D@std@@V?$allocator@D@2@@std@@H@std@@PAX@std@@@std@@@?$_Tree_node@U?$pair@$$CBV?$basic_string@DU?$char_traits@D@std@@V?$allocator@D@2@@std@@H@std@@PAX@std@@SAXAAV?$allocator@U?$_Tree_node@U?$pair@$$CBV?$basic_string@DU?$char_traits@D@std@@V?$allocator@D@2@@std@@H@std@@PAX@std@@@1@PAU01@@Z ; std::_Tree_node<std::pair<std::basic_string<char,std::char_traits<char>,std::allocator<char> > const ,int>,void *>::_Freenode<std::allocator<std::_Tree_node<std::pair<std::basic_string<char,std::char_traits<char>,std::allocator<char> > const ,int>,void *> > >
PUBLIC	??$exchange@PAU?$_Tree_node@U?$pair@$$CBV?$basic_string@DU?$char_traits@D@std@@V?$allocator@D@2@@std@@H@std@@PAX@std@@AAPAU12@@std@@YAPAU?$_Tree_node@U?$pair@$$CBV?$basic_string@DU?$char_traits@D@std@@V?$allocator@D@2@@std@@H@std@@PAX@0@AAPAU10@0@Z ; std::exchange<std::_Tree_node<std::pair<std::basic_string<char,std::char_traits<char>,std::allocator<char> > const ,int>,void *> *,std::_Tree_node<std::pair<std::basic_string<char,std::char_traits<char>,std::allocator<char> > const ,int>,void *> * &>
PUBLIC	??$forward@PAU?$_Tree_node@U?$pair@$$CBV?$basic_string@DU?$char_traits@D@std@@V?$allocator@D@2@@std@@H@std@@PAX@std@@@std@@YA$$QAPAU?$_Tree_node@U?$pair@$$CBV?$basic_string@DU?$char_traits@D@std@@V?$allocator@D@2@@std@@H@std@@PAX@0@AAPAU10@@Z ; std::forward<std::_Tree_node<std::pair<std::basic_string<char,std::char_traits<char>,std::allocator<char> > const ,int>,void *> *>
PUBLIC	??$forward@ABQAU?$_Tree_node@U?$pair@$$CBV?$basic_string@DU?$char_traits@D@std@@V?$allocator@D@2@@std@@H@std@@PAX@std@@@std@@YAABQAU?$_Tree_node@U?$pair@$$CBV?$basic_string@DU?$char_traits@D@std@@V?$allocator@D@2@@std@@H@std@@PAX@0@ABQAU10@@Z ; std::forward<std::_Tree_node<std::pair<std::basic_string<char,std::char_traits<char>,std::allocator<char> > const ,int>,void *> * const &>
PUBLIC	??$_Construct_in_place@PAU?$_Tree_node@U?$pair@$$CBV?$basic_string@DU?$char_traits@D@std@@V?$allocator@D@2@@std@@H@std@@PAX@std@@AAPAU12@@std@@YAXAAPAU?$_Tree_node@U?$pair@$$CBV?$basic_string@DU?$char_traits@D@std@@V?$allocator@D@2@@std@@H@std@@PAX@0@0@Z ; std::_Construct_in_place<std::_Tree_node<std::pair<std::basic_string<char,std::char_traits<char>,std::allocator<char> > const ,int>,void *> *,std::_Tree_node<std::pair<std::basic_string<char,std::char_traits<char>,std::allocator<char> > const ,int>,void *> * &>
PUBLIC	??$construct@U?$pair@$$CBV?$basic_string@DU?$char_traits@D@std@@V?$allocator@D@2@@std@@H@std@@ABUpiecewise_construct_t@2@V?$tuple@$$QAV?$basic_string@DU?$char_traits@D@std@@V?$allocator@D@2@@std@@@2@V?$tuple@$$V@2@@?$_Default_allocator_traits@V?$allocator@U?$_Tree_node@U?$pair@$$CBV?$basic_string@DU?$char_traits@D@std@@V?$allocator@D@2@@std@@H@std@@PAX@std@@@std@@@std@@SAXAAV?$allocator@U?$_Tree_node@U?$pair@$$CBV?$basic_string@DU?$char_traits@D@std@@V?$allocator@D@2@@std@@H@std@@PAX@std@@@1@QAU?$pair@$$CBV?$basic_string@DU?$char_traits@D@std@@V?$allocator@D@2@@std@@H@1@ABUpiecewise_construct_t@1@$$QAV?$tuple@$$QAV?$basic_string@DU?$char_traits@D@std@@V?$allocator@D@2@@std@@@1@$$QAV?$tuple@$$V@1@@Z ; std::_Default_allocator_traits<std::allocator<std::_Tree_node<std::pair<std::basic_string<char,std::char_traits<char>,std::allocator<char> > const ,int>,void *> > >::construct<std::pair<std::basic_string<char,std::char_traits<char>,std::allocator<char> > const ,int>,std::piecewise_construct_t const &,std::tuple<std::basic_string<char,std::char_traits<char>,std::allocator<char> > &&>,std::tuple<> >
PUBLIC	??$forward@V?$tuple@$$QAV?$basic_string@DU?$char_traits@D@std@@V?$allocator@D@2@@std@@@std@@@std@@YA$$QAV?$tuple@$$QAV?$basic_string@DU?$char_traits@D@std@@V?$allocator@D@2@@std@@@0@AAV10@@Z ; std::forward<std::tuple<std::basic_string<char,std::char_traits<char>,std::allocator<char> > &&> >
PUBLIC	??$?0V?$basic_string@DU?$char_traits@D@std@@V?$allocator@D@2@@std@@$$V$0A@@?$tuple@$$QAV?$basic_string@DU?$char_traits@D@std@@V?$allocator@D@2@@std@@@std@@QAE@$$QAV?$basic_string@DU?$char_traits@D@std@@V?$allocator@D@2@@1@@Z ; std::tuple<std::basic_string<char,std::char_traits<char>,std::allocator<char> > &&>::tuple<std::basic_string<char,std::char_traits<char>,std::allocator<char> > &&><std::basic_string<char,std::char_traits<char>,std::allocator<char> >,0>
PUBLIC	??$_Kfn@$$CBV?$basic_string@DU?$char_traits@D@std@@V?$allocator@D@2@@std@@H@?$_Tmap_traits@V?$basic_string@DU?$char_traits@D@std@@V?$allocator@D@2@@std@@HU?$less@V?$basic_string@DU?$char_traits@D@std@@V?$allocator@D@2@@std@@@2@V?$allocator@U?$pair@$$CBV?$basic_string@DU?$char_traits@D@std@@V?$allocator@D@2@@std@@H@std@@@2@$0A@@std@@SAABV?$basic_string@DU?$char_traits@D@std@@V?$allocator@D@2@@1@ABU?$pair@$$CBV?$basic_string@DU?$char_traits@D@std@@V?$allocator@D@2@@std@@H@1@@Z ; std::_Tmap_traits<std::basic_string<char,std::char_traits<char>,std::allocator<char> >,int,std::less<std::basic_string<char,std::char_traits<char>,std::allocator<char> > >,std::allocator<std::pair<std::basic_string<char,std::char_traits<char>,std::allocator<char> > const ,int> >,0>::_Kfn<std::basic_string<char,std::char_traits<char>,std::allocator<char> > const ,int>
PUBLIC	??$construct@USTextLine@CPythonEventManager@@ABU12@@?$_Default_allocator_traits@V?$allocator@U?$_List_node@USTextLine@CPythonEventManager@@PAX@std@@@std@@@std@@SAXAAV?$allocator@U?$_List_node@USTextLine@CPythonEventManager@@PAX@std@@@1@QAUSTextLine@CPythonEventManager@@ABU34@@Z ; std::_Default_allocator_traits<std::allocator<std::_List_node<CPythonEventManager::STextLine,void *> > >::construct<CPythonEventManager::STextLine,CPythonEventManager::STextLine const &>
PUBLIC	??$_Uninitialized_move@PAPAUSEventSet@CPythonEventManager@@V?$allocator@PAUSEventSet@CPythonEventManager@@@std@@@std@@YAPAPAUSEventSet@CPythonEventManager@@QAPAU12@0PAPAU12@AAV?$allocator@PAUSEventSet@CPythonEventManager@@@0@@Z ; std::_Uninitialized_move<CPythonEventManager::SEventSet * *,std::allocator<CPythonEventManager::SEventSet *> >
PUBLIC	??$_Get_unwrapped@ABQAPAUSEventSet@CPythonEventManager@@@std@@YA?A_TABQAPAUSEventSet@CPythonEventManager@@@Z ; std::_Get_unwrapped<CPythonEventManager::SEventSet * * const &>
PUBLIC	??$construct@PAUSEventSet@CPythonEventManager@@PAU12@@?$_Default_allocator_traits@V?$allocator@PAUSEventSet@CPythonEventManager@@@std@@@std@@SAXAAV?$allocator@PAUSEventSet@CPythonEventManager@@@1@QAPAUSEventSet@CPythonEventManager@@$$QAPAU34@@Z ; std::_Default_allocator_traits<std::allocator<CPythonEventManager::SEventSet *> >::construct<CPythonEventManager::SEventSet *,CPythonEventManager::SEventSet *>
PUBLIC	??$_Construct_in_place@PAUSEventSet@CPythonEventManager@@PAU12@@std@@YAXAAPAUSEventSet@CPythonEventManager@@$$QAPAU12@@Z ; std::_Construct_in_place<CPythonEventManager::SEventSet *,CPythonEventManager::SEventSet *>
PUBLIC	?_Get_first@?$_Compressed_pair@V?$allocator@PAUSEventSet@CPythonEventManager@@@std@@V?$_Vector_val@U?$_Simple_types@PAUSEventSet@CPythonEventManager@@@std@@@2@$00@std@@QBEABV?$allocator@PAUSEventSet@CPythonEventManager@@@2@XZ ; std::_Compressed_pair<std::allocator<CPythonEventManager::SEventSet *>,std::_Vector_val<std::_Simple_types<CPythonEventManager::SEventSet *> >,1>::_Get_first
PUBLIC	?_Get_first@?$_Compressed_pair@V?$allocator@PAVCGraphicTextInstance@@@std@@V?$_Vector_val@U?$_Simple_types@PAVCGraphicTextInstance@@@std@@@2@$00@std@@QBEABV?$allocator@PAVCGraphicTextInstance@@@2@XZ ; std::_Compressed_pair<std::allocator<CGraphicTextInstance *>,std::_Vector_val<std::_Simple_types<CGraphicTextInstance *> >,1>::_Get_first
PUBLIC	?_Get_first@?$_Compressed_pair@U?$less@V?$basic_string@DU?$char_traits@D@std@@V?$allocator@D@2@@std@@@std@@V?$_Compressed_pair@V?$allocator@U?$_Tree_node@U?$pair@$$CBV?$basic_string@DU?$char_traits@D@std@@V?$allocator@D@2@@std@@H@std@@PAX@std@@@std@@V?$_Tree_val@U?$_Tree_simple_types@U?$pair@$$CBV?$basic_string@DU?$char_traits@D@std@@V?$allocator@D@2@@std@@H@std@@@std@@@2@$00@2@$00@std@@QBEABU?$less@V?$basic_string@DU?$char_traits@D@std@@V?$allocator@D@2@@std@@@2@XZ ; std::_Compressed_pair<std::less<std::basic_string<char,std::char_traits<char>,std::allocator<char> > >,std::_Compressed_pair<std::allocator<std::_Tree_node<std::pair<std::basic_string<char,std::char_traits<char>,std::allocator<char> > const ,int>,void *> >,std::_Tree_val<std::_Tree_simple_types<std::pair<std::basic_string<char,std::char_traits<char>,std::allocator<char> > const ,int> > >,1>,1>::_Get_first
PUBLIC	?max_size@?$_Default_allocator_traits@V?$allocator@PAUSEventSet@CPythonEventManager@@@std@@@std@@SAIABV?$allocator@PAUSEventSet@CPythonEventManager@@@2@@Z ; std::_Default_allocator_traits<std::allocator<CPythonEventManager::SEventSet *> >::max_size
PUBLIC	?capacity@?$vector@PAUSEventSet@CPythonEventManager@@V?$allocator@PAUSEventSet@CPythonEventManager@@@std@@@std@@QBEIXZ ; std::vector<CPythonEventManager::SEventSet *,std::allocator<CPythonEventManager::SEventSet *> >::capacity
PUBLIC	?_Getal@?$vector@PAUSEventSet@CPythonEventManager@@V?$allocator@PAUSEventSet@CPythonEventManager@@@std@@@std@@ABEABV?$allocator@PAUSEventSet@CPythonEventManager@@@2@XZ ; std::vector<CPythonEventManager::SEventSet *,std::allocator<CPythonEventManager::SEventSet *> >::_Getal
PUBLIC	?max_size@?$_Default_allocator_traits@V?$allocator@PAVCGraphicTextInstance@@@std@@@std@@SAIABV?$allocator@PAVCGraphicTextInstance@@@2@@Z ; std::_Default_allocator_traits<std::allocator<CGraphicTextInstance *> >::max_size
PUBLIC	?capacity@?$vector@PAVCGraphicTextInstance@@V?$allocator@PAVCGraphicTextInstance@@@std@@@std@@QBEIXZ ; std::vector<CGraphicTextInstance *,std::allocator<CGraphicTextInstance *> >::capacity
PUBLIC	?_Getal@?$vector@PAVCGraphicTextInstance@@V?$allocator@PAVCGraphicTextInstance@@@std@@@std@@ABEABV?$allocator@PAVCGraphicTextInstance@@@2@XZ ; std::vector<CGraphicTextInstance *,std::allocator<CGraphicTextInstance *> >::_Getal
PUBLIC	??0?$_Alloc_construct_ptr@V?$allocator@U?$_Tree_node@U?$pair@$$CBV?$basic_string@DU?$char_traits@D@std@@V?$allocator@D@2@@std@@H@std@@PAX@std@@@std@@@std@@QAE@AAV?$allocator@U?$_Tree_node@U?$pair@$$CBV?$basic_string@DU?$char_traits@D@std@@V?$allocator@D@2@@std@@H@std@@PAX@std@@@1@@Z ; std::_Alloc_construct_ptr<std::allocator<std::_Tree_node<std::pair<std::basic_string<char,std::char_traits<char>,std::allocator<char> > const ,int>,void *> > >::_Alloc_construct_ptr<std::allocator<std::_Tree_node<std::pair<std::basic_string<char,std::char_traits<char>,std::allocator<char> > const ,int>,void *> > >
PUBLIC	?_Allocate@?$_Alloc_construct_ptr@V?$allocator@U?$_Tree_node@U?$pair@$$CBV?$basic_string@DU?$char_traits@D@std@@V?$allocator@D@2@@std@@H@std@@PAX@std@@@std@@@std@@QAEXXZ ; std::_Alloc_construct_ptr<std::allocator<std::_Tree_node<std::pair<std::basic_string<char,std::char_traits<char>,std::allocator<char> > const ,int>,void *> > >::_Allocate
PUBLIC	??0?$allocator@U?$_Tree_node@U?$pair@$$CBV?$basic_string@DU?$char_traits@D@std@@V?$allocator@D@2@@std@@H@std@@PAX@std@@@std@@QAE@XZ ; std::allocator<std::_Tree_node<std::pair<std::basic_string<char,std::char_traits<char>,std::allocator<char> > const ,int>,void *> >::allocator<std::_Tree_node<std::pair<std::basic_string<char,std::char_traits<char>,std::allocator<char> > const ,int>,void *> >
PUBLIC	?deallocate@?$_Default_allocator_traits@V?$allocator@U?$_Tree_node@U?$pair@$$CBV?$basic_string@DU?$char_traits@D@std@@V?$allocator@D@2@@std@@H@std@@PAX@std@@@std@@@std@@SAXAAV?$allocator@U?$_Tree_node@U?$pair@$$CBV?$basic_string@DU?$char_traits@D@std@@V?$allocator@D@2@@std@@H@std@@PAX@std@@@2@QAU?$_Tree_node@U?$pair@$$CBV?$basic_string@DU?$char_traits@D@std@@V?$allocator@D@2@@std@@H@std@@PAX@2@I@Z ; std::_Default_allocator_traits<std::allocator<std::_Tree_node<std::pair<std::basic_string<char,std::char_traits<char>,std::allocator<char> > const ,int>,void *> > >::deallocate
PUBLIC	?_Getcomp@?$_Tree@V?$_Tmap_traits@V?$basic_string@DU?$char_traits@D@std@@V?$allocator@D@2@@std@@HU?$less@V?$basic_string@DU?$char_traits@D@std@@V?$allocator@D@2@@std@@@2@V?$allocator@U?$pair@$$CBV?$basic_string@DU?$char_traits@D@std@@V?$allocator@D@2@@std@@H@std@@@2@$0A@@std@@@std@@IBEABU?$less@V?$basic_string@DU?$char_traits@D@std@@V?$allocator@D@2@@std@@@2@XZ ; std::_Tree<std::_Tmap_traits<std::basic_string<char,std::char_traits<char>,std::allocator<char> >,int,std::less<std::basic_string<char,std::char_traits<char>,std::allocator<char> > >,std::allocator<std::pair<std::basic_string<char,std::char_traits<char>,std::allocator<char> > const ,int> >,0> >::_Getcomp
PUBLIC	??0?$_Tree_val@U?$_Tree_simple_types@U?$pair@$$CBV?$basic_string@DU?$char_traits@D@std@@V?$allocator@D@2@@std@@H@std@@@std@@@std@@QAE@XZ ; std::_Tree_val<std::_Tree_simple_types<std::pair<std::basic_string<char,std::char_traits<char>,std::allocator<char> > const ,int> > >::_Tree_val<std::_Tree_simple_types<std::pair<std::basic_string<char,std::char_traits<char>,std::allocator<char> > const ,int> > >
PUBLIC	?allocate@?$allocator@PAUSEventSet@CPythonEventManager@@@std@@QAEPAPAUSEventSet@CPythonEventManager@@I@Z ; std::allocator<CPythonEventManager::SEventSet *>::allocate
PUBLIC	?max_size@?$vector@PAUSEventSet@CPythonEventManager@@V?$allocator@PAUSEventSet@CPythonEventManager@@@std@@@std@@QBEIXZ ; std::vector<CPythonEventManager::SEventSet *,std::allocator<CPythonEventManager::SEventSet *> >::max_size
PUBLIC	?_Calculate_growth@?$vector@PAUSEventSet@CPythonEventManager@@V?$allocator@PAUSEventSet@CPythonEventManager@@@std@@@std@@ABEII@Z ; std::vector<CPythonEventManager::SEventSet *,std::allocator<CPythonEventManager::SEventSet *> >::_Calculate_growth
PUBLIC	?_Change_array@?$vector@PAUSEventSet@CPythonEventManager@@V?$allocator@PAUSEventSet@CPythonEventManager@@@std@@@std@@AAEXQAPAUSEventSet@CPythonEventManager@@II@Z ; std::vector<CPythonEventManager::SEventSet *,std::allocator<CPythonEventManager::SEventSet *> >::_Change_array
PUBLIC	?_Xlength@?$vector@PAUSEventSet@CPythonEventManager@@V?$allocator@PAUSEventSet@CPythonEventManager@@@std@@@std@@CAXXZ ; std::vector<CPythonEventManager::SEventSet *,std::allocator<CPythonEventManager::SEventSet *> >::_Xlength
PUBLIC	?allocate@?$allocator@PAVCGraphicTextInstance@@@std@@QAEPAPAVCGraphicTextInstance@@I@Z ; std::allocator<CGraphicTextInstance *>::allocate
PUBLIC	?max_size@?$vector@PAVCGraphicTextInstance@@V?$allocator@PAVCGraphicTextInstance@@@std@@@std@@QBEIXZ ; std::vector<CGraphicTextInstance *,std::allocator<CGraphicTextInstance *> >::max_size
PUBLIC	?_Calculate_growth@?$vector@PAVCGraphicTextInstance@@V?$allocator@PAVCGraphicTextInstance@@@std@@@std@@ABEII@Z ; std::vector<CGraphicTextInstance *,std::allocator<CGraphicTextInstance *> >::_Calculate_growth
PUBLIC	?_Change_array@?$vector@PAVCGraphicTextInstance@@V?$allocator@PAVCGraphicTextInstance@@@std@@@std@@AAEXQAPAVCGraphicTextInstance@@II@Z ; std::vector<CGraphicTextInstance *,std::allocator<CGraphicTextInstance *> >::_Change_array
PUBLIC	?_Xlength@?$vector@PAVCGraphicTextInstance@@V?$allocator@PAVCGraphicTextInstance@@@std@@@std@@CAXXZ ; std::vector<CGraphicTextInstance *,std::allocator<CGraphicTextInstance *> >::_Xlength
PUBLIC	??0?$_Alloc_construct_ptr@V?$allocator@U?$_List_node@USTextLine@CPythonEventManager@@PAX@std@@@std@@@std@@QAE@AAV?$allocator@U?$_List_node@USTextLine@CPythonEventManager@@PAX@std@@@1@@Z ; std::_Alloc_construct_ptr<std::allocator<std::_List_node<CPythonEventManager::STextLine,void *> > >::_Alloc_construct_ptr<std::allocator<std::_List_node<CPythonEventManager::STextLine,void *> > >
PUBLIC	?_Allocate@?$_Alloc_construct_ptr@V?$allocator@U?$_List_node@USTextLine@CPythonEventManager@@PAX@std@@@std@@@std@@QAEXXZ ; std::_Alloc_construct_ptr<std::allocator<std::_List_node<CPythonEventManager::STextLine,void *> > >::_Allocate
PUBLIC	??0?$_Tree_temp_node_alloc@V?$allocator@U?$_Tree_node@U?$pair@$$CBV?$basic_string@DU?$char_traits@D@std@@V?$allocator@D@2@@std@@H@std@@PAX@std@@@std@@@std@@QAE@AAV?$allocator@U?$_Tree_node@U?$pair@$$CBV?$basic_string@DU?$char_traits@D@std@@V?$allocator@D@2@@std@@H@std@@PAX@std@@@1@@Z ; std::_Tree_temp_node_alloc<std::allocator<std::_Tree_node<std::pair<std::basic_string<char,std::char_traits<char>,std::allocator<char> > const ,int>,void *> > >::_Tree_temp_node_alloc<std::allocator<std::_Tree_node<std::pair<std::basic_string<char,std::char_traits<char>,std::allocator<char> > const ,int>,void *> > >
PUBLIC	??$addressof@$$CBV?$_Tree_val@U?$_Tree_simple_types@U?$pair@$$CBV?$basic_string@DU?$char_traits@D@std@@V?$allocator@D@2@@std@@H@std@@@std@@@std@@@std@@YAPBV?$_Tree_val@U?$_Tree_simple_types@U?$pair@$$CBV?$basic_string@DU?$char_traits@D@std@@V?$allocator@D@2@@std@@H@std@@@std@@@0@ABV10@@Z ; std::addressof<std::_Tree_val<std::_Tree_simple_types<std::pair<std::basic_string<char,std::char_traits<char>,std::allocator<char> > const ,int> > > const >
PUBLIC	??$destroy@USTextLine@CPythonEventManager@@@?$_Default_allocator_traits@V?$allocator@U?$_List_node@USTextLine@CPythonEventManager@@PAX@std@@@std@@@std@@SAXAAV?$allocator@U?$_List_node@USTextLine@CPythonEventManager@@PAX@std@@@1@QAUSTextLine@CPythonEventManager@@@Z ; std::_Default_allocator_traits<std::allocator<std::_List_node<CPythonEventManager::STextLine,void *> > >::destroy<CPythonEventManager::STextLine>
PUBLIC	??$addressof@USTextLine@CPythonEventManager@@@std@@YAPAUSTextLine@CPythonEventManager@@AAU12@@Z ; std::addressof<CPythonEventManager::STextLine>
PUBLIC	??$_Construct_in_place@PAU?$_List_node@USTextLine@CPythonEventManager@@PAX@std@@ABQAU12@@std@@YAXAAPAU?$_List_node@USTextLine@CPythonEventManager@@PAX@0@ABQAU10@@Z ; std::_Construct_in_place<std::_List_node<CPythonEventManager::STextLine,void *> *,std::_List_node<CPythonEventManager::STextLine,void *> * const &>
PUBLIC	??$exchange@PAU?$_Tree_node@U?$pair@$$CBV?$basic_string@DU?$char_traits@D@std@@V?$allocator@D@2@@std@@H@std@@PAX@std@@$$T@std@@YAPAU?$_Tree_node@U?$pair@$$CBV?$basic_string@DU?$char_traits@D@std@@V?$allocator@D@2@@std@@H@std@@PAX@0@AAPAU10@$$QA$$T@Z ; std::exchange<std::_Tree_node<std::pair<std::basic_string<char,std::char_traits<char>,std::allocator<char> > const ,int>,void *> *,std::nullptr_t>
PUBLIC	??$destroy@U?$pair@$$CBV?$basic_string@DU?$char_traits@D@std@@V?$allocator@D@2@@std@@H@std@@@?$_Default_allocator_traits@V?$allocator@U?$_Tree_node@U?$pair@$$CBV?$basic_string@DU?$char_traits@D@std@@V?$allocator@D@2@@std@@H@std@@PAX@std@@@std@@@std@@SAXAAV?$allocator@U?$_Tree_node@U?$pair@$$CBV?$basic_string@DU?$char_traits@D@std@@V?$allocator@D@2@@std@@H@std@@PAX@std@@@1@QAU?$pair@$$CBV?$basic_string@DU?$char_traits@D@std@@V?$allocator@D@2@@std@@H@1@@Z ; std::_Default_allocator_traits<std::allocator<std::_Tree_node<std::pair<std::basic_string<char,std::char_traits<char>,std::allocator<char> > const ,int>,void *> > >::destroy<std::pair<std::basic_string<char,std::char_traits<char>,std::allocator<char> > const ,int> >
PUBLIC	??$_Destroy_in_place@PAU?$_Tree_node@U?$pair@$$CBV?$basic_string@DU?$char_traits@D@std@@V?$allocator@D@2@@std@@H@std@@PAX@std@@@std@@YAXAAPAU?$_Tree_node@U?$pair@$$CBV?$basic_string@DU?$char_traits@D@std@@V?$allocator@D@2@@std@@H@std@@PAX@0@@Z ; std::_Destroy_in_place<std::_Tree_node<std::pair<std::basic_string<char,std::char_traits<char>,std::allocator<char> > const ,int>,void *> *>
PUBLIC	??$_Construct_in_place@PAU?$_Tree_node@U?$pair@$$CBV?$basic_string@DU?$char_traits@D@std@@V?$allocator@D@2@@std@@H@std@@PAX@std@@ABQAU12@@std@@YAXAAPAU?$_Tree_node@U?$pair@$$CBV?$basic_string@DU?$char_traits@D@std@@V?$allocator@D@2@@std@@H@std@@PAX@0@ABQAU10@@Z ; std::_Construct_in_place<std::_Tree_node<std::pair<std::basic_string<char,std::char_traits<char>,std::allocator<char> > const ,int>,void *> *,std::_Tree_node<std::pair<std::basic_string<char,std::char_traits<char>,std::allocator<char> > const ,int>,void *> * const &>
PUBLIC	??$_Destroy_in_place@PAU?$_List_node@USArgumet@script@@PAX@std@@@std@@YAXAAPAU?$_List_node@USArgumet@script@@PAX@0@@Z ; std::_Destroy_in_place<std::_List_node<script::SArgumet,void *> *>
PUBLIC	??$_Freenode@V?$allocator@U?$_List_node@USArgumet@script@@PAX@std@@@std@@@?$_List_node@USArgumet@script@@PAX@std@@SAXAAV?$allocator@U?$_List_node@USArgumet@script@@PAX@std@@@1@PAU01@@Z ; std::_List_node<script::SArgumet,void *>::_Freenode<std::allocator<std::_List_node<script::SArgumet,void *> > >
PUBLIC	??$_Voidify_iter@PAPAU?$_List_node@USArgumet@script@@PAX@std@@@std@@YAPAXPAPAU?$_List_node@USArgumet@script@@PAX@0@@Z ; std::_Voidify_iter<std::_List_node<script::SArgumet,void *> * *>
PUBLIC	??$construct_at@PAU?$_List_node@USArgumet@script@@PAX@std@@AAPAU12@$0A@@std@@YAPAPAU?$_List_node@USArgumet@script@@PAX@0@QAPAU10@AAPAU10@@Z ; std::construct_at<std::_List_node<script::SArgumet,void *> *,std::_List_node<script::SArgumet,void *> * &,0>
PUBLIC	??$forward@AAPAU?$_List_node@USArgumet@script@@PAX@std@@@std@@YAAAPAU?$_List_node@USArgumet@script@@PAX@0@AAPAU10@@Z ; std::forward<std::_List_node<script::SArgumet,void *> * &>
PUBLIC	??$addressof@PAU?$_List_node@USArgumet@script@@PAX@std@@@std@@YAPAPAU?$_List_node@USArgumet@script@@PAX@0@AAPAU10@@Z ; std::addressof<std::_List_node<script::SArgumet,void *> *>
PUBLIC	??$_Destroy_in_place@PAU?$_List_node@USTextLine@CPythonEventManager@@PAX@std@@@std@@YAXAAPAU?$_List_node@USTextLine@CPythonEventManager@@PAX@0@@Z ; std::_Destroy_in_place<std::_List_node<CPythonEventManager::STextLine,void *> *>
PUBLIC	??$_Voidify_iter@PAPAU?$_List_node@USTextLine@CPythonEventManager@@PAX@std@@@std@@YAPAXPAPAU?$_List_node@USTextLine@CPythonEventManager@@PAX@0@@Z ; std::_Voidify_iter<std::_List_node<CPythonEventManager::STextLine,void *> * *>
PUBLIC	??$construct_at@PAU?$_List_node@USTextLine@CPythonEventManager@@PAX@std@@AAPAU12@$0A@@std@@YAPAPAU?$_List_node@USTextLine@CPythonEventManager@@PAX@0@QAPAU10@AAPAU10@@Z ; std::construct_at<std::_List_node<CPythonEventManager::STextLine,void *> *,std::_List_node<CPythonEventManager::STextLine,void *> * &,0>
PUBLIC	??$forward@AAPAU?$_List_node@USTextLine@CPythonEventManager@@PAX@std@@@std@@YAAAPAU?$_List_node@USTextLine@CPythonEventManager@@PAX@0@AAPAU10@@Z ; std::forward<std::_List_node<CPythonEventManager::STextLine,void *> * &>
PUBLIC	??$addressof@PAU?$_List_node@USTextLine@CPythonEventManager@@PAX@std@@@std@@YAPAPAU?$_List_node@USTextLine@CPythonEventManager@@PAX@0@AAPAU10@@Z ; std::addressof<std::_List_node<CPythonEventManager::STextLine,void *> *>
PUBLIC	??$_Emplace_reallocate@ABQAUSEventSet@CPythonEventManager@@@?$vector@PAUSEventSet@CPythonEventManager@@V?$allocator@PAUSEventSet@CPythonEventManager@@@std@@@std@@AAEPAPAUSEventSet@CPythonEventManager@@QAPAU23@ABQAU23@@Z ; std::vector<CPythonEventManager::SEventSet *,std::allocator<CPythonEventManager::SEventSet *> >::_Emplace_reallocate<CPythonEventManager::SEventSet * const &>
PUBLIC	??$_Emplace_back_with_unused_capacity@ABQAUSEventSet@CPythonEventManager@@@?$vector@PAUSEventSet@CPythonEventManager@@V?$allocator@PAUSEventSet@CPythonEventManager@@@std@@@std@@AAEAAPAUSEventSet@CPythonEventManager@@ABQAU23@@Z ; std::vector<CPythonEventManager::SEventSet *,std::allocator<CPythonEventManager::SEventSet *> >::_Emplace_back_with_unused_capacity<CPythonEventManager::SEventSet * const &>
PUBLIC	??$forward@ABQAUSEventSet@CPythonEventManager@@@std@@YAABQAUSEventSet@CPythonEventManager@@ABQAU12@@Z ; std::forward<CPythonEventManager::SEventSet * const &>
PUBLIC	??$destroy_at@PAUSEventSet@CPythonEventManager@@@std@@YAXQAPAUSEventSet@CPythonEventManager@@@Z ; std::destroy_at<CPythonEventManager::SEventSet *>
PUBLIC	??$_Emplace_reallocate@ABQAVCGraphicTextInstance@@@?$vector@PAVCGraphicTextInstance@@V?$allocator@PAVCGraphicTextInstance@@@std@@@std@@AAEPAPAVCGraphicTextInstance@@QAPAV2@ABQAV2@@Z ; std::vector<CGraphicTextInstance *,std::allocator<CGraphicTextInstance *> >::_Emplace_reallocate<CGraphicTextInstance * const &>
PUBLIC	??$_Emplace_back_with_unused_capacity@ABQAVCGraphicTextInstance@@@?$vector@PAVCGraphicTextInstance@@V?$allocator@PAVCGraphicTextInstance@@@std@@@std@@AAEAAPAVCGraphicTextInstance@@ABQAV2@@Z ; std::vector<CGraphicTextInstance *,std::allocator<CGraphicTextInstance *> >::_Emplace_back_with_unused_capacity<CGraphicTextInstance * const &>
PUBLIC	??$forward@ABQAVCGraphicTextInstance@@@std@@YAABQAVCGraphicTextInstance@@ABQAV1@@Z ; std::forward<CGraphicTextInstance * const &>
PUBLIC	??$destroy_at@PAVCGraphicTextInstance@@@std@@YAXQAPAVCGraphicTextInstance@@@Z ; std::destroy_at<CGraphicTextInstance *>
PUBLIC	??$_Freenode0@V?$allocator@U?$_Tree_node@U?$pair@$$CBV?$basic_string@DU?$char_traits@D@std@@V?$allocator@D@2@@std@@H@std@@PAX@std@@@std@@@?$_Tree_node@U?$pair@$$CBV?$basic_string@DU?$char_traits@D@std@@V?$allocator@D@2@@std@@H@std@@PAX@std@@SAXAAV?$allocator@U?$_Tree_node@U?$pair@$$CBV?$basic_string@DU?$char_traits@D@std@@V?$allocator@D@2@@std@@H@std@@PAX@std@@@1@PAU01@@Z ; std::_Tree_node<std::pair<std::basic_string<char,std::char_traits<char>,std::allocator<char> > const ,int>,void *>::_Freenode0<std::allocator<std::_Tree_node<std::pair<std::basic_string<char,std::char_traits<char>,std::allocator<char> > const ,int>,void *> > >
PUBLIC	??$_Erase_tree@V?$allocator@U?$_Tree_node@U?$pair@$$CBV?$basic_string@DU?$char_traits@D@std@@V?$allocator@D@2@@std@@H@std@@PAX@std@@@std@@@?$_Tree_val@U?$_Tree_simple_types@U?$pair@$$CBV?$basic_string@DU?$char_traits@D@std@@V?$allocator@D@2@@std@@H@std@@@std@@@std@@QAEXAAV?$allocator@U?$_Tree_node@U?$pair@$$CBV?$basic_string@DU?$char_traits@D@std@@V?$allocator@D@2@@std@@H@std@@PAX@std@@@1@PAU?$_Tree_node@U?$pair@$$CBV?$basic_string@DU?$char_traits@D@std@@V?$allocator@D@2@@std@@H@std@@PAX@1@@Z ; std::_Tree_val<std::_Tree_simple_types<std::pair<std::basic_string<char,std::char_traits<char>,std::allocator<char> > const ,int> > >::_Erase_tree<std::allocator<std::_Tree_node<std::pair<std::basic_string<char,std::char_traits<char>,std::allocator<char> > const ,int>,void *> > >
PUBLIC	??$?0PAU?$_Tree_node@U?$pair@$$CBV?$basic_string@DU?$char_traits@D@std@@V?$allocator@D@2@@std@@H@std@@PAX@std@@_N$0A@@?$pair@PAU?$_Tree_node@U?$pair@$$CBV?$basic_string@DU?$char_traits@D@std@@V?$allocator@D@2@@std@@H@std@@PAX@std@@_N@std@@QAE@$$QAPAU?$_Tree_node@U?$pair@$$CBV?$basic_string@DU?$char_traits@D@std@@V?$allocator@D@2@@std@@H@std@@PAX@1@$$QA_N@Z ; std::pair<std::_Tree_node<std::pair<std::basic_string<char,std::char_traits<char>,std::allocator<char> > const ,int>,void *> *,bool>::pair<std::_Tree_node<std::pair<std::basic_string<char,std::char_traits<char>,std::allocator<char> > const ,int>,void *> *,bool><std::_Tree_node<std::pair<std::basic_string<char,std::char_traits<char>,std::allocator<char> > const ,int>,void *> *,bool,0>
PUBLIC	??$?0ABQAU?$_Tree_node@U?$pair@$$CBV?$basic_string@DU?$char_traits@D@std@@V?$allocator@D@2@@std@@H@std@@PAX@std@@_N$0A@@?$pair@PAU?$_Tree_node@U?$pair@$$CBV?$basic_string@DU?$char_traits@D@std@@V?$allocator@D@2@@std@@H@std@@PAX@std@@_N@std@@QAE@ABQAU?$_Tree_node@U?$pair@$$CBV?$basic_string@DU?$char_traits@D@std@@V?$allocator@D@2@@std@@H@std@@PAX@1@$$QA_N@Z ; std::pair<std::_Tree_node<std::pair<std::basic_string<char,std::char_traits<char>,std::allocator<char> > const ,int>,void *> *,bool>::pair<std::_Tree_node<std::pair<std::basic_string<char,std::char_traits<char>,std::allocator<char> > const ,int>,void *> *,bool><std::_Tree_node<std::pair<std::basic_string<char,std::char_traits<char>,std::allocator<char> > const ,int>,void *> * const &,bool,0>
PUBLIC	??$?0ABUpiecewise_construct_t@std@@V?$tuple@$$QAV?$basic_string@DU?$char_traits@D@std@@V?$allocator@D@2@@std@@@1@V?$tuple@$$V@1@@?$_Tree_temp_node@V?$allocator@U?$_Tree_node@U?$pair@$$CBV?$basic_string@DU?$char_traits@D@std@@V?$allocator@D@2@@std@@H@std@@PAX@std@@@std@@@std@@QAE@AAV?$allocator@U?$_Tree_node@U?$pair@$$CBV?$basic_string@DU?$char_traits@D@std@@V?$allocator@D@2@@std@@H@std@@PAX@std@@@1@PAU?$_Tree_node@U?$pair@$$CBV?$basic_string@DU?$char_traits@D@std@@V?$allocator@D@2@@std@@H@std@@PAX@1@ABUpiecewise_construct_t@1@$$QAV?$tuple@$$QAV?$basic_string@DU?$char_traits@D@std@@V?$allocator@D@2@@std@@@1@$$QAV?$tuple@$$V@1@@Z ; std::_Tree_temp_node<std::allocator<std::_Tree_node<std::pair<std::basic_string<char,std::char_traits<char>,std::allocator<char> > const ,int>,void *> > >::_Tree_temp_node<std::allocator<std::_Tree_node<std::pair<std::basic_string<char,std::char_traits<char>,std::allocator<char> > const ,int>,void *> > ><std::piecewise_construct_t const &,std::tuple<std::basic_string<char,std::char_traits<char>,std::allocator<char> > &&>,std::tuple<> >
PUBLIC	??$forward_as_tuple@V?$basic_string@DU?$char_traits@D@std@@V?$allocator@D@2@@std@@@std@@YA?AV?$tuple@$$QAV?$basic_string@DU?$char_traits@D@std@@V?$allocator@D@2@@std@@@0@$$QAV?$basic_string@DU?$char_traits@D@std@@V?$allocator@D@2@@0@@Z ; std::forward_as_tuple<std::basic_string<char,std::char_traits<char>,std::allocator<char> > >
PUBLIC	??$_Lower_bound_duplicate@V?$basic_string@DU?$char_traits@D@std@@V?$allocator@D@2@@std@@@?$_Tree@V?$_Tmap_traits@V?$basic_string@DU?$char_traits@D@std@@V?$allocator@D@2@@std@@HU?$less@V?$basic_string@DU?$char_traits@D@std@@V?$allocator@D@2@@std@@@2@V?$allocator@U?$pair@$$CBV?$basic_string@DU?$char_traits@D@std@@V?$allocator@D@2@@std@@H@std@@@2@$0A@@std@@@std@@IBE_NQAU?$_Tree_node@U?$pair@$$CBV?$basic_string@DU?$char_traits@D@std@@V?$allocator@D@2@@std@@H@std@@PAX@1@ABV?$basic_string@DU?$char_traits@D@std@@V?$allocator@D@2@@1@@Z ; std::_Tree<std::_Tmap_traits<std::basic_string<char,std::char_traits<char>,std::allocator<char> >,int,std::less<std::basic_string<char,std::char_traits<char>,std::allocator<char> > >,std::allocator<std::pair<std::basic_string<char,std::char_traits<char>,std::allocator<char> > const ,int> >,0> >::_Lower_bound_duplicate<std::basic_string<char,std::char_traits<char>,std::allocator<char> > >
PUBLIC	??$_Find_lower_bound@V?$basic_string@DU?$char_traits@D@std@@V?$allocator@D@2@@std@@@?$_Tree@V?$_Tmap_traits@V?$basic_string@DU?$char_traits@D@std@@V?$allocator@D@2@@std@@HU?$less@V?$basic_string@DU?$char_traits@D@std@@V?$allocator@D@2@@std@@@2@V?$allocator@U?$pair@$$CBV?$basic_string@DU?$char_traits@D@std@@V?$allocator@D@2@@std@@H@std@@@2@$0A@@std@@@std@@IBE?AU?$_Tree_find_result@PAU?$_Tree_node@U?$pair@$$CBV?$basic_string@DU?$char_traits@D@std@@V?$allocator@D@2@@std@@H@std@@PAX@std@@@1@ABV?$basic_string@DU?$char_traits@D@std@@V?$allocator@D@2@@1@@Z ; std::_Tree<std::_Tmap_traits<std::basic_string<char,std::char_traits<char>,std::allocator<char> >,int,std::less<std::basic_string<char,std::char_traits<char>,std::allocator<char> > >,std::allocator<std::pair<std::basic_string<char,std::char_traits<char>,std::allocator<char> > const ,int> >,0> >::_Find_lower_bound<std::basic_string<char,std::char_traits<char>,std::allocator<char> > >
PUBLIC	??$?0ABUSTextLine@CPythonEventManager@@@?$_List_node_emplace_op2@V?$allocator@U?$_List_node@USTextLine@CPythonEventManager@@PAX@std@@@std@@@std@@QAE@AAV?$allocator@U?$_List_node@USTextLine@CPythonEventManager@@PAX@std@@@1@ABUSTextLine@CPythonEventManager@@@Z ; std::_List_node_emplace_op2<std::allocator<std::_List_node<CPythonEventManager::STextLine,void *> > >::_List_node_emplace_op2<std::allocator<std::_List_node<CPythonEventManager::STextLine,void *> > ><CPythonEventManager::STextLine const &>
PUBLIC	??$forward@ABUSTextLine@CPythonEventManager@@@std@@YAABUSTextLine@CPythonEventManager@@ABU12@@Z ; std::forward<CPythonEventManager::STextLine const &>
PUBLIC	??$_Freenode@V?$allocator@U?$_List_node@USTextLine@CPythonEventManager@@PAX@std@@@std@@@?$_List_node@USTextLine@CPythonEventManager@@PAX@std@@SAXAAV?$allocator@U?$_List_node@USTextLine@CPythonEventManager@@PAX@std@@@1@PAU01@@Z ; std::_List_node<CPythonEventManager::STextLine,void *>::_Freenode<std::allocator<std::_List_node<CPythonEventManager::STextLine,void *> > >
PUBLIC	??$_Emplace_reallocate@PAUSEventSet@CPythonEventManager@@@?$vector@PAUSEventSet@CPythonEventManager@@V?$allocator@PAUSEventSet@CPythonEventManager@@@std@@@std@@AAEPAPAUSEventSet@CPythonEventManager@@QAPAU23@$$QAPAU23@@Z ; std::vector<CPythonEventManager::SEventSet *,std::allocator<CPythonEventManager::SEventSet *> >::_Emplace_reallocate<CPythonEventManager::SEventSet *>
PUBLIC	??$_Emplace_back_with_unused_capacity@PAUSEventSet@CPythonEventManager@@@?$vector@PAUSEventSet@CPythonEventManager@@V?$allocator@PAUSEventSet@CPythonEventManager@@@std@@@std@@AAEAAPAUSEventSet@CPythonEventManager@@$$QAPAU23@@Z ; std::vector<CPythonEventManager::SEventSet *,std::allocator<CPythonEventManager::SEventSet *> >::_Emplace_back_with_unused_capacity<CPythonEventManager::SEventSet *>
PUBLIC	??$forward@PAUSEventSet@CPythonEventManager@@@std@@YA$$QAPAUSEventSet@CPythonEventManager@@AAPAU12@@Z ; std::forward<CPythonEventManager::SEventSet *>
PUBLIC	??$?0$$V@?$_Compressed_pair@V?$allocator@U?$_Tree_node@U?$pair@$$CBV?$basic_string@DU?$char_traits@D@std@@V?$allocator@D@2@@std@@H@std@@PAX@std@@@std@@V?$_Tree_val@U?$_Tree_simple_types@U?$pair@$$CBV?$basic_string@DU?$char_traits@D@std@@V?$allocator@D@2@@std@@H@std@@@std@@@2@$00@std@@QAE@U_Zero_then_variadic_args_t@1@@Z ; std::_Compressed_pair<std::allocator<std::_Tree_node<std::pair<std::basic_string<char,std::char_traits<char>,std::allocator<char> > const ,int>,void *> >,std::_Tree_val<std::_Tree_simple_types<std::pair<std::basic_string<char,std::char_traits<char>,std::allocator<char> > const ,int> > >,1>::_Compressed_pair<std::allocator<std::_Tree_node<std::pair<std::basic_string<char,std::char_traits<char>,std::allocator<char> > const ,int>,void *> >,std::_Tree_val<std::_Tree_simple_types<std::pair<std::basic_string<char,std::char_traits<char>,std::allocator<char> > const ,int> > >,1><>
PUBLIC	?_Get_first@?$_Compressed_pair@V?$allocator@U?$_Tree_node@U?$pair@$$CBV?$basic_string@DU?$char_traits@D@std@@V?$allocator@D@2@@std@@H@std@@PAX@std@@@std@@V?$_Tree_val@U?$_Tree_simple_types@U?$pair@$$CBV?$basic_string@DU?$char_traits@D@std@@V?$allocator@D@2@@std@@H@std@@@std@@@2@$00@std@@QBEABV?$allocator@U?$_Tree_node@U?$pair@$$CBV?$basic_string@DU?$char_traits@D@std@@V?$allocator@D@2@@std@@H@std@@PAX@std@@@2@XZ ; std::_Compressed_pair<std::allocator<std::_Tree_node<std::pair<std::basic_string<char,std::char_traits<char>,std::allocator<char> > const ,int>,void *> >,std::_Tree_val<std::_Tree_simple_types<std::pair<std::basic_string<char,std::char_traits<char>,std::allocator<char> > const ,int> > >,1>::_Get_first
PUBLIC	?deallocate@?$allocator@U?$_Tree_node@U?$pair@$$CBV?$basic_string@DU?$char_traits@D@std@@V?$allocator@D@2@@std@@H@std@@PAX@std@@@std@@QAEXQAU?$_Tree_node@U?$pair@$$CBV?$basic_string@DU?$char_traits@D@std@@V?$allocator@D@2@@std@@H@std@@PAX@2@I@Z ; std::allocator<std::_Tree_node<std::pair<std::basic_string<char,std::char_traits<char>,std::allocator<char> > const ,int>,void *> >::deallocate
PUBLIC	?max_size@?$_Default_allocator_traits@V?$allocator@U?$_Tree_node@U?$pair@$$CBV?$basic_string@DU?$char_traits@D@std@@V?$allocator@D@2@@std@@H@std@@PAX@std@@@std@@@std@@SAIABV?$allocator@U?$_Tree_node@U?$pair@$$CBV?$basic_string@DU?$char_traits@D@std@@V?$allocator@D@2@@std@@H@std@@PAX@std@@@2@@Z ; std::_Default_allocator_traits<std::allocator<std::_Tree_node<std::pair<std::basic_string<char,std::char_traits<char>,std::allocator<char> > const ,int>,void *> > >::max_size
PUBLIC	?_Getal@?$_Tree@V?$_Tmap_traits@V?$basic_string@DU?$char_traits@D@std@@V?$allocator@D@2@@std@@HU?$less@V?$basic_string@DU?$char_traits@D@std@@V?$allocator@D@2@@std@@@2@V?$allocator@U?$pair@$$CBV?$basic_string@DU?$char_traits@D@std@@V?$allocator@D@2@@std@@H@std@@@2@$0A@@std@@@std@@IBEABV?$allocator@U?$_Tree_node@U?$pair@$$CBV?$basic_string@DU?$char_traits@D@std@@V?$allocator@D@2@@std@@H@std@@PAX@std@@@2@XZ ; std::_Tree<std::_Tmap_traits<std::basic_string<char,std::char_traits<char>,std::allocator<char> >,int,std::less<std::basic_string<char,std::char_traits<char>,std::allocator<char> > >,std::allocator<std::pair<std::basic_string<char,std::char_traits<char>,std::allocator<char> > const ,int> >,0> >::_Getal
PUBLIC	?_Get_first@?$_Compressed_pair@V?$allocator@U?$_List_node@USTextLine@CPythonEventManager@@PAX@std@@@std@@V?$_List_val@U?$_List_simple_types@USTextLine@CPythonEventManager@@@std@@@2@$00@std@@QBEABV?$allocator@U?$_List_node@USTextLine@CPythonEventManager@@PAX@std@@@2@XZ ; std::_Compressed_pair<std::allocator<std::_List_node<CPythonEventManager::STextLine,void *> >,std::_List_val<std::_List_simple_types<CPythonEventManager::STextLine> >,1>::_Get_first
PUBLIC	?deallocate@?$allocator@U?$_List_node@USArgumet@script@@PAX@std@@@std@@QAEXQAU?$_List_node@USArgumet@script@@PAX@2@I@Z ; std::allocator<std::_List_node<script::SArgumet,void *> >::deallocate
PUBLIC	?max_size@?$_Tree@V?$_Tmap_traits@V?$basic_string@DU?$char_traits@D@std@@V?$allocator@D@2@@std@@HU?$less@V?$basic_string@DU?$char_traits@D@std@@V?$allocator@D@2@@std@@@2@V?$allocator@U?$pair@$$CBV?$basic_string@DU?$char_traits@D@std@@V?$allocator@D@2@@std@@H@std@@@2@$0A@@std@@@std@@QBEIXZ ; std::_Tree<std::_Tmap_traits<std::basic_string<char,std::char_traits<char>,std::allocator<char> >,int,std::less<std::basic_string<char,std::char_traits<char>,std::allocator<char> > >,std::allocator<std::pair<std::basic_string<char,std::char_traits<char>,std::allocator<char> > const ,int> >,0> >::max_size
PUBLIC	?_Lrotate@?$_Tree_val@U?$_Tree_simple_types@U?$pair@$$CBV?$basic_string@DU?$char_traits@D@std@@V?$allocator@D@2@@std@@H@std@@@std@@@std@@QAEXPAU?$_Tree_node@U?$pair@$$CBV?$basic_string@DU?$char_traits@D@std@@V?$allocator@D@2@@std@@H@std@@PAX@2@@Z ; std::_Tree_val<std::_Tree_simple_types<std::pair<std::basic_string<char,std::char_traits<char>,std::allocator<char> > const ,int> > >::_Lrotate
PUBLIC	?_Rrotate@?$_Tree_val@U?$_Tree_simple_types@U?$pair@$$CBV?$basic_string@DU?$char_traits@D@std@@V?$allocator@D@2@@std@@H@std@@@std@@@std@@QAEXPAU?$_Tree_node@U?$pair@$$CBV?$basic_string@DU?$char_traits@D@std@@V?$allocator@D@2@@std@@H@std@@PAX@2@@Z ; std::_Tree_val<std::_Tree_simple_types<std::pair<std::basic_string<char,std::char_traits<char>,std::allocator<char> > const ,int> > >::_Rrotate
PUBLIC	?deallocate@?$allocator@U?$_List_node@USTextLine@CPythonEventManager@@PAX@std@@@std@@QAEXQAU?$_List_node@USTextLine@CPythonEventManager@@PAX@2@I@Z ; std::allocator<std::_List_node<CPythonEventManager::STextLine,void *> >::deallocate
PUBLIC	?max_size@?$_Default_allocator_traits@V?$allocator@U?$_List_node@USTextLine@CPythonEventManager@@PAX@std@@@std@@@std@@SAIABV?$allocator@U?$_List_node@USTextLine@CPythonEventManager@@PAX@std@@@2@@Z ; std::_Default_allocator_traits<std::allocator<std::_List_node<CPythonEventManager::STextLine,void *> > >::max_size
PUBLIC	?_Getal@?$list@USTextLine@CPythonEventManager@@V?$allocator@USTextLine@CPythonEventManager@@@std@@@std@@ABEABV?$allocator@U?$_List_node@USTextLine@CPythonEventManager@@PAX@std@@@2@XZ ; std::list<CPythonEventManager::STextLine,std::allocator<CPythonEventManager::STextLine> >::_Getal
PUBLIC	??1?$_Alloc_construct_ptr@V?$allocator@U?$_List_node@USTextLine@CPythonEventManager@@PAX@std@@@std@@@std@@QAE@XZ ; std::_Alloc_construct_ptr<std::allocator<std::_List_node<CPythonEventManager::STextLine,void *> > >::~_Alloc_construct_ptr<std::allocator<std::_List_node<CPythonEventManager::STextLine,void *> > >
PUBLIC	??1?$_Alloc_construct_ptr@V?$allocator@U?$_Tree_node@U?$pair@$$CBV?$basic_string@DU?$char_traits@D@std@@V?$allocator@D@2@@std@@H@std@@PAX@std@@@std@@@std@@QAE@XZ ; std::_Alloc_construct_ptr<std::allocator<std::_Tree_node<std::pair<std::basic_string<char,std::char_traits<char>,std::allocator<char> > const ,int>,void *> > >::~_Alloc_construct_ptr<std::allocator<std::_Tree_node<std::pair<std::basic_string<char,std::char_traits<char>,std::allocator<char> > const ,int>,void *> > >
PUBLIC	??1?$_Tree_temp_node_alloc@V?$allocator@U?$_Tree_node@U?$pair@$$CBV?$basic_string@DU?$char_traits@D@std@@V?$allocator@D@2@@std@@H@std@@PAX@std@@@std@@@std@@QAE@XZ ; std::_Tree_temp_node_alloc<std::allocator<std::_Tree_node<std::pair<std::basic_string<char,std::char_traits<char>,std::allocator<char> > const ,int>,void *> > >::~_Tree_temp_node_alloc<std::allocator<std::_Tree_node<std::pair<std::basic_string<char,std::char_traits<char>,std::allocator<char> > const ,int>,void *> > >
PUBLIC	??0?$allocator@U?$_List_node@USArgumet@script@@PAX@std@@@std@@QAE@XZ ; std::allocator<std::_List_node<script::SArgumet,void *> >::allocator<std::_List_node<script::SArgumet,void *> >
PUBLIC	?deallocate@?$_Default_allocator_traits@V?$allocator@U?$_List_node@USArgumet@script@@PAX@std@@@std@@@std@@SAXAAV?$allocator@U?$_List_node@USArgumet@script@@PAX@std@@@2@QAU?$_List_node@USArgumet@script@@PAX@2@I@Z ; std::_Default_allocator_traits<std::allocator<std::_List_node<script::SArgumet,void *> > >::deallocate
PUBLIC	??0?$_List_val@U?$_List_simple_types@USArgumet@script@@@std@@@std@@QAE@XZ ; std::_List_val<std::_List_simple_types<script::SArgumet> >::_List_val<std::_List_simple_types<script::SArgumet> >
PUBLIC	?allocate@?$allocator@U?$_Tree_node@U?$pair@$$CBV?$basic_string@DU?$char_traits@D@std@@V?$allocator@D@2@@std@@H@std@@PAX@std@@@std@@QAEPAU?$_Tree_node@U?$pair@$$CBV?$basic_string@DU?$char_traits@D@std@@V?$allocator@D@2@@std@@H@std@@PAX@2@I@Z ; std::allocator<std::_Tree_node<std::pair<std::basic_string<char,std::char_traits<char>,std::allocator<char> > const ,int>,void *> >::allocate
PUBLIC	?_Check_grow_by_1@?$_Tree@V?$_Tmap_traits@V?$basic_string@DU?$char_traits@D@std@@V?$allocator@D@2@@std@@HU?$less@V?$basic_string@DU?$char_traits@D@std@@V?$allocator@D@2@@std@@@2@V?$allocator@U?$pair@$$CBV?$basic_string@DU?$char_traits@D@std@@V?$allocator@D@2@@std@@H@std@@@2@$0A@@std@@@std@@IAEXXZ ; std::_Tree<std::_Tmap_traits<std::basic_string<char,std::char_traits<char>,std::allocator<char> >,int,std::less<std::basic_string<char,std::char_traits<char>,std::allocator<char> > >,std::allocator<std::pair<std::basic_string<char,std::char_traits<char>,std::allocator<char> > const ,int> >,0> >::_Check_grow_by_1
PUBLIC	?_Get_scary@?$_Tree@V?$_Tmap_traits@V?$basic_string@DU?$char_traits@D@std@@V?$allocator@D@2@@std@@HU?$less@V?$basic_string@DU?$char_traits@D@std@@V?$allocator@D@2@@std@@@2@V?$allocator@U?$pair@$$CBV?$basic_string@DU?$char_traits@D@std@@V?$allocator@D@2@@std@@H@std@@@2@$0A@@std@@@std@@IBEPBV?$_Tree_val@U?$_Tree_simple_types@U?$pair@$$CBV?$basic_string@DU?$char_traits@D@std@@V?$allocator@D@2@@std@@H@std@@@std@@@2@XZ ; std::_Tree<std::_Tmap_traits<std::basic_string<char,std::char_traits<char>,std::allocator<char> >,int,std::less<std::basic_string<char,std::char_traits<char>,std::allocator<char> > >,std::allocator<std::pair<std::basic_string<char,std::char_traits<char>,std::allocator<char> > const ,int> >,0> >::_Get_scary
PUBLIC	?_Insert_node@?$_Tree_val@U?$_Tree_simple_types@U?$pair@$$CBV?$basic_string@DU?$char_traits@D@std@@V?$allocator@D@2@@std@@H@std@@@std@@@std@@QAEPAU?$_Tree_node@U?$pair@$$CBV?$basic_string@DU?$char_traits@D@std@@V?$allocator@D@2@@std@@H@std@@PAX@2@U?$_Tree_id@PAU?$_Tree_node@U?$pair@$$CBV?$basic_string@DU?$char_traits@D@std@@V?$allocator@D@2@@std@@H@std@@PAX@std@@@2@QAU32@@Z ; std::_Tree_val<std::_Tree_simple_types<std::pair<std::basic_string<char,std::char_traits<char>,std::allocator<char> > const ,int> > >::_Insert_node
PUBLIC	??0?$allocator@U?$_List_node@USTextLine@CPythonEventManager@@PAX@std@@@std@@QAE@XZ ; std::allocator<std::_List_node<CPythonEventManager::STextLine,void *> >::allocator<std::_List_node<CPythonEventManager::STextLine,void *> >
PUBLIC	?deallocate@?$_Default_allocator_traits@V?$allocator@U?$_List_node@USTextLine@CPythonEventManager@@PAX@std@@@std@@@std@@SAXAAV?$allocator@U?$_List_node@USTextLine@CPythonEventManager@@PAX@std@@@2@QAU?$_List_node@USTextLine@CPythonEventManager@@PAX@2@I@Z ; std::_Default_allocator_traits<std::allocator<std::_List_node<CPythonEventManager::STextLine,void *> > >::deallocate
PUBLIC	?max_size@?$list@USTextLine@CPythonEventManager@@V?$allocator@USTextLine@CPythonEventManager@@@std@@@std@@QBEIXZ ; std::list<CPythonEventManager::STextLine,std::allocator<CPythonEventManager::STextLine> >::max_size
PUBLIC	??0?$_List_val@U?$_List_simple_types@USTextLine@CPythonEventManager@@@std@@@std@@QAE@XZ ; std::_List_val<std::_List_simple_types<CPythonEventManager::STextLine> >::_List_val<std::_List_simple_types<CPythonEventManager::STextLine> >
PUBLIC	??0?$allocator@PAUSEventSet@CPythonEventManager@@@std@@QAE@XZ ; std::allocator<CPythonEventManager::SEventSet *>::allocator<CPythonEventManager::SEventSet *>
PUBLIC	??0?$_Vector_val@U?$_Simple_types@PAUSEventSet@CPythonEventManager@@@std@@@std@@QAE@XZ ; std::_Vector_val<std::_Simple_types<CPythonEventManager::SEventSet *> >::_Vector_val<std::_Simple_types<CPythonEventManager::SEventSet *> >
PUBLIC	??0?$allocator@PAVCGraphicTextInstance@@@std@@QAE@XZ ; std::allocator<CGraphicTextInstance *>::allocator<CGraphicTextInstance *>
PUBLIC	??0?$_Vector_val@U?$_Simple_types@PAVCGraphicTextInstance@@@std@@@std@@QAE@XZ ; std::_Vector_val<std::_Simple_types<CGraphicTextInstance *> >::_Vector_val<std::_Simple_types<CGraphicTextInstance *> >
PUBLIC	??1?$_List_node_emplace_op2@V?$allocator@U?$_List_node@USTextLine@CPythonEventManager@@PAX@std@@@std@@@std@@QAE@XZ ; std::_List_node_emplace_op2<std::allocator<std::_List_node<CPythonEventManager::STextLine,void *> > >::~_List_node_emplace_op2<std::allocator<std::_List_node<CPythonEventManager::STextLine,void *> > >
PUBLIC	?_Transfer_before@?$_List_node_emplace_op2@V?$allocator@U?$_List_node@USTextLine@CPythonEventManager@@PAX@std@@@std@@@std@@QAEPAU?$_List_node@USTextLine@CPythonEventManager@@PAX@2@QAU32@@Z ; std::_List_node_emplace_op2<std::allocator<std::_List_node<CPythonEventManager::STextLine,void *> > >::_Transfer_before
PUBLIC	?_Release@?$_Alloc_construct_ptr@V?$allocator@U?$_Tree_node@U?$pair@$$CBV?$basic_string@DU?$char_traits@D@std@@V?$allocator@D@2@@std@@H@std@@PAX@std@@@std@@@std@@QAEPAU?$_Tree_node@U?$pair@$$CBV?$basic_string@DU?$char_traits@D@std@@V?$allocator@D@2@@std@@H@std@@PAX@2@XZ ; std::_Alloc_construct_ptr<std::allocator<std::_Tree_node<std::pair<std::basic_string<char,std::char_traits<char>,std::allocator<char> > const ,int>,void *> > >::_Release
PUBLIC	??1?$_Tree_temp_node@V?$allocator@U?$_Tree_node@U?$pair@$$CBV?$basic_string@DU?$char_traits@D@std@@V?$allocator@D@2@@std@@H@std@@PAX@std@@@std@@@std@@QAE@XZ ; std::_Tree_temp_node<std::allocator<std::_Tree_node<std::pair<std::basic_string<char,std::char_traits<char>,std::allocator<char> > const ,int>,void *> > >::~_Tree_temp_node<std::allocator<std::_Tree_node<std::pair<std::basic_string<char,std::char_traits<char>,std::allocator<char> > const ,int>,void *> > >
PUBLIC	??$_Get_size_of_n@$0DI@@std@@YAII@Z		; std::_Get_size_of_n<56>
PUBLIC	??$_Buyheadnode@V?$allocator@U?$_Tree_node@U?$pair@$$CBV?$basic_string@DU?$char_traits@D@std@@V?$allocator@D@2@@std@@H@std@@PAX@std@@@std@@@?$_Tree_node@U?$pair@$$CBV?$basic_string@DU?$char_traits@D@std@@V?$allocator@D@2@@std@@H@std@@PAX@std@@SAPAU01@AAV?$allocator@U?$_Tree_node@U?$pair@$$CBV?$basic_string@DU?$char_traits@D@std@@V?$allocator@D@2@@std@@H@std@@PAX@std@@@1@@Z ; std::_Tree_node<std::pair<std::basic_string<char,std::char_traits<char>,std::allocator<char> > const ,int>,void *>::_Buyheadnode<std::allocator<std::_Tree_node<std::pair<std::basic_string<char,std::char_traits<char>,std::allocator<char> > const ,int>,void *> > >
PUBLIC	??$_Destroy_range@V?$allocator@PAVCGraphicTextInstance@@@std@@@std@@YAXPAPAVCGraphicTextInstance@@QAPAV1@AAV?$allocator@PAVCGraphicTextInstance@@@0@@Z ; std::_Destroy_range<std::allocator<CGraphicTextInstance *> >
PUBLIC	??$_Freenode0@V?$allocator@U?$_List_node@USArgumet@script@@PAX@std@@@std@@@?$_List_node@USArgumet@script@@PAX@std@@SAXAAV?$allocator@U?$_List_node@USArgumet@script@@PAX@std@@@1@PAU01@@Z ; std::_List_node<script::SArgumet,void *>::_Freenode0<std::allocator<std::_List_node<script::SArgumet,void *> > >
PUBLIC	??$_Free_non_head@V?$allocator@U?$_List_node@USArgumet@script@@PAX@std@@@std@@@?$_List_node@USArgumet@script@@PAX@std@@SAXAAV?$allocator@U?$_List_node@USArgumet@script@@PAX@std@@@1@PAU01@@Z ; std::_List_node<script::SArgumet,void *>::_Free_non_head<std::allocator<std::_List_node<script::SArgumet,void *> > >
PUBLIC	??$_Construct_in_place@PAU?$_List_node@USArgumet@script@@PAX@std@@AAPAU12@@std@@YAXAAPAU?$_List_node@USArgumet@script@@PAX@0@0@Z ; std::_Construct_in_place<std::_List_node<script::SArgumet,void *> *,std::_List_node<script::SArgumet,void *> * &>
PUBLIC	??$?0ABU?$less@V?$basic_string@DU?$char_traits@D@std@@V?$allocator@D@2@@std@@@std@@U_Zero_then_variadic_args_t@1@@?$_Compressed_pair@U?$less@V?$basic_string@DU?$char_traits@D@std@@V?$allocator@D@2@@std@@@std@@V?$_Compressed_pair@V?$allocator@U?$_Tree_node@U?$pair@$$CBV?$basic_string@DU?$char_traits@D@std@@V?$allocator@D@2@@std@@H@std@@PAX@std@@@std@@V?$_Tree_val@U?$_Tree_simple_types@U?$pair@$$CBV?$basic_string@DU?$char_traits@D@std@@V?$allocator@D@2@@std@@H@std@@@std@@@2@$00@2@$00@std@@QAE@U_One_then_variadic_args_t@1@ABU?$less@V?$basic_string@DU?$char_traits@D@std@@V?$allocator@D@2@@std@@@1@$$QAU_Zero_then_variadic_args_t@1@@Z ; std::_Compressed_pair<std::less<std::basic_string<char,std::char_traits<char>,std::allocator<char> > >,std::_Compressed_pair<std::allocator<std::_Tree_node<std::pair<std::basic_string<char,std::char_traits<char>,std::allocator<char> > const ,int>,void *> >,std::_Tree_val<std::_Tree_simple_types<std::pair<std::basic_string<char,std::char_traits<char>,std::allocator<char> > const ,int> > >,1>,1>::_Compressed_pair<std::less<std::basic_string<char,std::char_traits<char>,std::allocator<char> > >,std::_Compressed_pair<std::allocator<std::_Tree_node<std::pair<std::basic_string<char,std::char_traits<char>,std::allocator<char> > const ,int>,void *> >,std::_Tree_val<std::_Tree_simple_types<std::pair<std::basic_string<char,std::char_traits<char>,std::allocator<char> > const ,int> > >,1>,1><std::less<std::basic_string<char,std::char_traits<char>,std::allocator<char> > > const &,std::_Zero_then_variadic_args_t>
PUBLIC	??$addressof@V?$_Tree_val@U?$_Tree_simple_types@U?$pair@$$CBV?$basic_string@DU?$char_traits@D@std@@V?$allocator@D@2@@std@@H@std@@@std@@@std@@@std@@YAPAV?$_Tree_val@U?$_Tree_simple_types@U?$pair@$$CBV?$basic_string@DU?$char_traits@D@std@@V?$allocator@D@2@@std@@H@std@@@std@@@0@AAV10@@Z ; std::addressof<std::_Tree_val<std::_Tree_simple_types<std::pair<std::basic_string<char,std::char_traits<char>,std::allocator<char> > const ,int> > > >
PUBLIC	??$_Freenode0@V?$allocator@U?$_List_node@USTextLine@CPythonEventManager@@PAX@std@@@std@@@?$_List_node@USTextLine@CPythonEventManager@@PAX@std@@SAXAAV?$allocator@U?$_List_node@USTextLine@CPythonEventManager@@PAX@std@@@1@PAU01@@Z ; std::_List_node<CPythonEventManager::STextLine,void *>::_Freenode0<std::allocator<std::_List_node<CPythonEventManager::STextLine,void *> > >
PUBLIC	??$_Construct_in_place@PAU?$_List_node@USTextLine@CPythonEventManager@@PAX@std@@AAPAU12@@std@@YAXAAPAU?$_List_node@USTextLine@CPythonEventManager@@PAX@0@0@Z ; std::_Construct_in_place<std::_List_node<CPythonEventManager::STextLine,void *> *,std::_List_node<CPythonEventManager::STextLine,void *> * &>
PUBLIC	??$_Emplace_one_at_back@ABQAUSEventSet@CPythonEventManager@@@?$vector@PAUSEventSet@CPythonEventManager@@V?$allocator@PAUSEventSet@CPythonEventManager@@@std@@@std@@AAEAAPAUSEventSet@CPythonEventManager@@ABQAU23@@Z ; std::vector<CPythonEventManager::SEventSet *,std::allocator<CPythonEventManager::SEventSet *> >::_Emplace_one_at_back<CPythonEventManager::SEventSet * const &>
PUBLIC	??$destroy@PAUSEventSet@CPythonEventManager@@@?$_Default_allocator_traits@V?$allocator@PAUSEventSet@CPythonEventManager@@@std@@@std@@SAXAAV?$allocator@PAUSEventSet@CPythonEventManager@@@1@QAPAUSEventSet@CPythonEventManager@@@Z ; std::_Default_allocator_traits<std::allocator<CPythonEventManager::SEventSet *> >::destroy<CPythonEventManager::SEventSet *>
PUBLIC	??$_Unfancy@PAUSEventSet@CPythonEventManager@@@std@@YAPAPAUSEventSet@CPythonEventManager@@PAPAU12@@Z ; std::_Unfancy<CPythonEventManager::SEventSet *>
PUBLIC	??$?0$$V@?$_Compressed_pair@V?$allocator@PAVCGraphicTextInstance@@@std@@V?$_Vector_val@U?$_Simple_types@PAVCGraphicTextInstance@@@std@@@2@$00@std@@QAE@U_Zero_then_variadic_args_t@1@@Z ; std::_Compressed_pair<std::allocator<CGraphicTextInstance *>,std::_Vector_val<std::_Simple_types<CGraphicTextInstance *> >,1>::_Compressed_pair<std::allocator<CGraphicTextInstance *>,std::_Vector_val<std::_Simple_types<CGraphicTextInstance *> >,1><>
PUBLIC	??$_Emplace_one_at_back@ABQAVCGraphicTextInstance@@@?$vector@PAVCGraphicTextInstance@@V?$allocator@PAVCGraphicTextInstance@@@std@@@std@@AAEAAPAVCGraphicTextInstance@@ABQAV2@@Z ; std::vector<CGraphicTextInstance *,std::allocator<CGraphicTextInstance *> >::_Emplace_one_at_back<CGraphicTextInstance * const &>
PUBLIC	??$destroy@PAVCGraphicTextInstance@@@?$_Default_allocator_traits@V?$allocator@PAVCGraphicTextInstance@@@std@@@std@@SAXAAV?$allocator@PAVCGraphicTextInstance@@@1@QAPAVCGraphicTextInstance@@@Z ; std::_Default_allocator_traits<std::allocator<CGraphicTextInstance *> >::destroy<CGraphicTextInstance *>
PUBLIC	??$_Unfancy@PAVCGraphicTextInstance@@@std@@YAPAPAVCGraphicTextInstance@@PAPAV1@@Z ; std::_Unfancy<CGraphicTextInstance *>
PUBLIC	??$addressof@U?$pair@$$CBV?$basic_string@DU?$char_traits@D@std@@V?$allocator@D@2@@std@@H@std@@@std@@YAPAU?$pair@$$CBV?$basic_string@DU?$char_traits@D@std@@V?$allocator@D@2@@std@@H@0@AAU10@@Z ; std::addressof<std::pair<std::basic_string<char,std::char_traits<char>,std::allocator<char> > const ,int> >
PUBLIC	??$?0$$V@?$_Compressed_pair@V?$allocator@U?$_List_node@USArgumet@script@@PAX@std@@@std@@V?$_List_val@U?$_List_simple_types@USArgumet@script@@@std@@@2@$00@std@@QAE@U_Zero_then_variadic_args_t@1@@Z ; std::_Compressed_pair<std::allocator<std::_List_node<script::SArgumet,void *> >,std::_List_val<std::_List_simple_types<script::SArgumet> >,1>::_Compressed_pair<std::allocator<std::_List_node<script::SArgumet,void *> >,std::_List_val<std::_List_simple_types<script::SArgumet> >,1><>
PUBLIC	??$addressof@V?$_List_val@U?$_List_simple_types@USArgumet@script@@@std@@@std@@@std@@YAPAV?$_List_val@U?$_List_simple_types@USArgumet@script@@@std@@@0@AAV10@@Z ; std::addressof<std::_List_val<std::_List_simple_types<script::SArgumet> > >
PUBLIC	??$_Erase_head@V?$allocator@U?$_Tree_node@U?$pair@$$CBV?$basic_string@DU?$char_traits@D@std@@V?$allocator@D@2@@std@@H@std@@PAX@std@@@std@@@?$_Tree_val@U?$_Tree_simple_types@U?$pair@$$CBV?$basic_string@DU?$char_traits@D@std@@V?$allocator@D@2@@std@@H@std@@@std@@@std@@QAEXAAV?$allocator@U?$_Tree_node@U?$pair@$$CBV?$basic_string@DU?$char_traits@D@std@@V?$allocator@D@2@@std@@H@std@@PAX@std@@@1@@Z ; std::_Tree_val<std::_Tree_simple_types<std::pair<std::basic_string<char,std::char_traits<char>,std::allocator<char> > const ,int> > >::_Erase_head<std::allocator<std::_Tree_node<std::pair<std::basic_string<char,std::char_traits<char>,std::allocator<char> > const ,int>,void *> > >
PUBLIC	??$_Find@V?$basic_string@DU?$char_traits@D@std@@V?$allocator@D@2@@std@@@?$_Tree@V?$_Tmap_traits@V?$basic_string@DU?$char_traits@D@std@@V?$allocator@D@2@@std@@HU?$less@V?$basic_string@DU?$char_traits@D@std@@V?$allocator@D@2@@std@@@2@V?$allocator@U?$pair@$$CBV?$basic_string@DU?$char_traits@D@std@@V?$allocator@D@2@@std@@H@std@@@2@$0A@@std@@@std@@ABEPAU?$_Tree_node@U?$pair@$$CBV?$basic_string@DU?$char_traits@D@std@@V?$allocator@D@2@@std@@H@std@@PAX@1@ABV?$basic_string@DU?$char_traits@D@std@@V?$allocator@D@2@@1@@Z ; std::_Tree<std::_Tmap_traits<std::basic_string<char,std::char_traits<char>,std::allocator<char> >,int,std::less<std::basic_string<char,std::char_traits<char>,std::allocator<char> > >,std::allocator<std::pair<std::basic_string<char,std::char_traits<char>,std::allocator<char> > const ,int> >,0> >::_Find<std::basic_string<char,std::char_traits<char>,std::allocator<char> > >
PUBLIC	??$_Try_emplace@V?$basic_string@DU?$char_traits@D@std@@V?$allocator@D@2@@std@@$$V@?$map@V?$basic_string@DU?$char_traits@D@std@@V?$allocator@D@2@@std@@HU?$less@V?$basic_string@DU?$char_traits@D@std@@V?$allocator@D@2@@std@@@2@V?$allocator@U?$pair@$$CBV?$basic_string@DU?$char_traits@D@std@@V?$allocator@D@2@@std@@H@std@@@2@@std@@AAE?AU?$pair@PAU?$_Tree_node@U?$pair@$$CBV?$basic_string@DU?$char_traits@D@std@@V?$allocator@D@2@@std@@H@std@@PAX@std@@_N@1@$$QAV?$basic_string@DU?$char_traits@D@std@@V?$allocator@D@2@@1@@Z ; std::map<std::basic_string<char,std::char_traits<char>,std::allocator<char> >,int,std::less<std::basic_string<char,std::char_traits<char>,std::allocator<char> > >,std::allocator<std::pair<std::basic_string<char,std::char_traits<char>,std::allocator<char> > const ,int> > >::_Try_emplace<std::basic_string<char,std::char_traits<char>,std::allocator<char> > >
PUBLIC	??$?0$$V@?$_Compressed_pair@V?$allocator@U?$_List_node@USTextLine@CPythonEventManager@@PAX@std@@@std@@V?$_List_val@U?$_List_simple_types@USTextLine@CPythonEventManager@@@std@@@2@$00@std@@QAE@U_Zero_then_variadic_args_t@1@@Z ; std::_Compressed_pair<std::allocator<std::_List_node<CPythonEventManager::STextLine,void *> >,std::_List_val<std::_List_simple_types<CPythonEventManager::STextLine> >,1>::_Compressed_pair<std::allocator<std::_List_node<CPythonEventManager::STextLine,void *> >,std::_List_val<std::_List_simple_types<CPythonEventManager::STextLine> >,1><>
PUBLIC	??$addressof@V?$_List_val@U?$_List_simple_types@USTextLine@CPythonEventManager@@@std@@@std@@@std@@YAPAV?$_List_val@U?$_List_simple_types@USTextLine@CPythonEventManager@@@std@@@0@AAV10@@Z ; std::addressof<std::_List_val<std::_List_simple_types<CPythonEventManager::STextLine> > >
PUBLIC	??$_Emplace@ABUSTextLine@CPythonEventManager@@@?$list@USTextLine@CPythonEventManager@@V?$allocator@USTextLine@CPythonEventManager@@@std@@@std@@QAEPAU?$_List_node@USTextLine@CPythonEventManager@@PAX@1@QAU21@ABUSTextLine@CPythonEventManager@@@Z ; std::list<CPythonEventManager::STextLine,std::allocator<CPythonEventManager::STextLine> >::_Emplace<CPythonEventManager::STextLine const &>
PUBLIC	??$_Free_non_head@V?$allocator@U?$_List_node@USTextLine@CPythonEventManager@@PAX@std@@@std@@@?$_List_node@USTextLine@CPythonEventManager@@PAX@std@@SAXAAV?$allocator@U?$_List_node@USTextLine@CPythonEventManager@@PAX@std@@@1@PAU01@@Z ; std::_List_node<CPythonEventManager::STextLine,void *>::_Free_non_head<std::allocator<std::_List_node<CPythonEventManager::STextLine,void *> > >
PUBLIC	??$?0$$V@?$_Compressed_pair@V?$allocator@PAUSEventSet@CPythonEventManager@@@std@@V?$_Vector_val@U?$_Simple_types@PAUSEventSet@CPythonEventManager@@@std@@@2@$00@std@@QAE@U_Zero_then_variadic_args_t@1@@Z ; std::_Compressed_pair<std::allocator<CPythonEventManager::SEventSet *>,std::_Vector_val<std::_Simple_types<CPythonEventManager::SEventSet *> >,1>::_Compressed_pair<std::allocator<CPythonEventManager::SEventSet *>,std::_Vector_val<std::_Simple_types<CPythonEventManager::SEventSet *> >,1><>
PUBLIC	??$_Emplace_one_at_back@PAUSEventSet@CPythonEventManager@@@?$vector@PAUSEventSet@CPythonEventManager@@V?$allocator@PAUSEventSet@CPythonEventManager@@@std@@@std@@AAEAAPAUSEventSet@CPythonEventManager@@$$QAPAU23@@Z ; std::vector<CPythonEventManager::SEventSet *,std::allocator<CPythonEventManager::SEventSet *> >::_Emplace_one_at_back<CPythonEventManager::SEventSet *>
PUBLIC	??$move@AAPAUSEventSet@CPythonEventManager@@@std@@YA$$QAPAUSEventSet@CPythonEventManager@@AAPAU12@@Z ; std::move<CPythonEventManager::SEventSet * &>
PUBLIC	??$_Destroy_range@V?$allocator@PAUSEventSet@CPythonEventManager@@@std@@@std@@YAXPAPAUSEventSet@CPythonEventManager@@QAPAU12@AAV?$allocator@PAUSEventSet@CPythonEventManager@@@0@@Z ; std::_Destroy_range<std::allocator<CPythonEventManager::SEventSet *> >
PUBLIC	?deallocate@?$allocator@PAVCGraphicTextInstance@@@std@@QAEXQAPAVCGraphicTextInstance@@I@Z ; std::allocator<CGraphicTextInstance *>::deallocate
PUBLIC	?_Get_first@?$_Compressed_pair@V?$allocator@PAVCGraphicTextInstance@@@std@@V?$_Vector_val@U?$_Simple_types@PAVCGraphicTextInstance@@@std@@@2@$00@std@@QAEAAV?$allocator@PAVCGraphicTextInstance@@@2@XZ ; std::_Compressed_pair<std::allocator<CGraphicTextInstance *>,std::_Vector_val<std::_Simple_types<CGraphicTextInstance *> >,1>::_Get_first
PUBLIC	?allocate@?$allocator@U?$_List_node@USArgumet@script@@PAX@std@@@std@@QAEPAU?$_List_node@USArgumet@script@@PAX@2@I@Z ; std::allocator<std::_List_node<script::SArgumet,void *> >::allocate
PUBLIC	?_Get_first@?$_Compressed_pair@V?$allocator@U?$_List_node@USArgumet@script@@PAX@std@@@std@@V?$_List_val@U?$_List_simple_types@USArgumet@script@@@std@@@2@$00@std@@QAEAAV?$allocator@U?$_List_node@USArgumet@script@@PAX@std@@@2@XZ ; std::_Compressed_pair<std::allocator<std::_List_node<script::SArgumet,void *> >,std::_List_val<std::_List_simple_types<script::SArgumet> >,1>::_Get_first
PUBLIC	?_Alloc_sentinel_and_proxy@?$_Tree@V?$_Tmap_traits@V?$basic_string@DU?$char_traits@D@std@@V?$allocator@D@2@@std@@HU?$less@V?$basic_string@DU?$char_traits@D@std@@V?$allocator@D@2@@std@@@2@V?$allocator@U?$pair@$$CBV?$basic_string@DU?$char_traits@D@std@@V?$allocator@D@2@@std@@H@std@@@2@$0A@@std@@@std@@IAEXXZ ; std::_Tree<std::_Tmap_traits<std::basic_string<char,std::char_traits<char>,std::allocator<char> >,int,std::less<std::basic_string<char,std::char_traits<char>,std::allocator<char> > >,std::allocator<std::pair<std::basic_string<char,std::char_traits<char>,std::allocator<char> > const ,int> >,0> >::_Alloc_sentinel_and_proxy
PUBLIC	?_Get_first@?$_Compressed_pair@V?$allocator@U?$_Tree_node@U?$pair@$$CBV?$basic_string@DU?$char_traits@D@std@@V?$allocator@D@2@@std@@H@std@@PAX@std@@@std@@V?$_Tree_val@U?$_Tree_simple_types@U?$pair@$$CBV?$basic_string@DU?$char_traits@D@std@@V?$allocator@D@2@@std@@H@std@@@std@@@2@$00@std@@QAEAAV?$allocator@U?$_Tree_node@U?$pair@$$CBV?$basic_string@DU?$char_traits@D@std@@V?$allocator@D@2@@std@@H@std@@PAX@std@@@2@XZ ; std::_Compressed_pair<std::allocator<std::_Tree_node<std::pair<std::basic_string<char,std::char_traits<char>,std::allocator<char> > const ,int>,void *> >,std::_Tree_val<std::_Tree_simple_types<std::pair<std::basic_string<char,std::char_traits<char>,std::allocator<char> > const ,int> > >,1>::_Get_first
PUBLIC	?allocate@?$allocator@U?$_List_node@USTextLine@CPythonEventManager@@PAX@std@@@std@@QAEPAU?$_List_node@USTextLine@CPythonEventManager@@PAX@2@I@Z ; std::allocator<std::_List_node<CPythonEventManager::STextLine,void *> >::allocate
PUBLIC	?_Get_first@?$_Compressed_pair@V?$allocator@U?$_List_node@USTextLine@CPythonEventManager@@PAX@std@@@std@@V?$_List_val@U?$_List_simple_types@USTextLine@CPythonEventManager@@@std@@@2@$00@std@@QAEAAV?$allocator@U?$_List_node@USTextLine@CPythonEventManager@@PAX@std@@@2@XZ ; std::_Compressed_pair<std::allocator<std::_List_node<CPythonEventManager::STextLine,void *> >,std::_List_val<std::_List_simple_types<CPythonEventManager::STextLine> >,1>::_Get_first
PUBLIC	?deallocate@?$allocator@PAUSEventSet@CPythonEventManager@@@std@@QAEXQAPAUSEventSet@CPythonEventManager@@I@Z ; std::allocator<CPythonEventManager::SEventSet *>::deallocate
PUBLIC	?_Unchecked_begin@?$vector@PAUSEventSet@CPythonEventManager@@V?$allocator@PAUSEventSet@CPythonEventManager@@@std@@@std@@QAEPAPAUSEventSet@CPythonEventManager@@XZ ; std::vector<CPythonEventManager::SEventSet *,std::allocator<CPythonEventManager::SEventSet *> >::_Unchecked_begin
PUBLIC	?_Unchecked_end@?$vector@PAUSEventSet@CPythonEventManager@@V?$allocator@PAUSEventSet@CPythonEventManager@@@std@@@std@@QAEPAPAUSEventSet@CPythonEventManager@@XZ ; std::vector<CPythonEventManager::SEventSet *,std::allocator<CPythonEventManager::SEventSet *> >::_Unchecked_end
PUBLIC	?_Orphan_range@?$vector@PAUSEventSet@CPythonEventManager@@V?$allocator@PAUSEventSet@CPythonEventManager@@@std@@@std@@ABEXPAPAUSEventSet@CPythonEventManager@@0@Z ; std::vector<CPythonEventManager::SEventSet *,std::allocator<CPythonEventManager::SEventSet *> >::_Orphan_range
PUBLIC	?_Get_first@?$_Compressed_pair@V?$allocator@PAUSEventSet@CPythonEventManager@@@std@@V?$_Vector_val@U?$_Simple_types@PAUSEventSet@CPythonEventManager@@@std@@@2@$00@std@@QAEAAV?$allocator@PAUSEventSet@CPythonEventManager@@@2@XZ ; std::_Compressed_pair<std::allocator<CPythonEventManager::SEventSet *>,std::_Vector_val<std::_Simple_types<CPythonEventManager::SEventSet *> >,1>::_Get_first
PUBLIC	?Delete@?$CDynamicPool@USEventSet@CPythonEventManager@@@@KAXPAUSEventSet@CPythonEventManager@@@Z ; CDynamicPool<CPythonEventManager::SEventSet>::Delete
PUBLIC	?Delete@?$CDynamicPool@VCGraphicTextInstance@@@@KAXPAVCGraphicTextInstance@@@Z ; CDynamicPool<CGraphicTextInstance>::Delete
PUBLIC	?clear@?$vector@PAVCGraphicTextInstance@@V?$allocator@PAVCGraphicTextInstance@@@std@@@std@@QAEXXZ ; std::vector<CGraphicTextInstance *,std::allocator<CGraphicTextInstance *> >::clear
PUBLIC	?_Unchecked_begin@?$vector@PAVCGraphicTextInstance@@V?$allocator@PAVCGraphicTextInstance@@@std@@@std@@QAEPAPAVCGraphicTextInstance@@XZ ; std::vector<CGraphicTextInstance *,std::allocator<CGraphicTextInstance *> >::_Unchecked_begin
PUBLIC	?_Unchecked_end@?$vector@PAVCGraphicTextInstance@@V?$allocator@PAVCGraphicTextInstance@@@std@@@std@@QAEPAPAVCGraphicTextInstance@@XZ ; std::vector<CGraphicTextInstance *,std::allocator<CGraphicTextInstance *> >::_Unchecked_end
PUBLIC	?_Tidy@?$vector@PAVCGraphicTextInstance@@V?$allocator@PAVCGraphicTextInstance@@@std@@@std@@AAEXXZ ; std::vector<CGraphicTextInstance *,std::allocator<CGraphicTextInstance *> >::_Tidy
PUBLIC	?_Orphan_range@?$vector@PAVCGraphicTextInstance@@V?$allocator@PAVCGraphicTextInstance@@@std@@@std@@ABEXPAPAVCGraphicTextInstance@@0@Z ; std::vector<CGraphicTextInstance *,std::allocator<CGraphicTextInstance *> >::_Orphan_range
PUBLIC	?_Getal@?$vector@PAVCGraphicTextInstance@@V?$allocator@PAVCGraphicTextInstance@@@std@@@std@@AAEAAV?$allocator@PAVCGraphicTextInstance@@@2@XZ ; std::vector<CGraphicTextInstance *,std::allocator<CGraphicTextInstance *> >::_Getal
PUBLIC	??D?$_Tree_const_iterator@V?$_Tree_val@U?$_Tree_simple_types@U?$pair@$$CBV?$basic_string@DU?$char_traits@D@std@@V?$allocator@D@2@@std@@H@std@@@std@@@std@@@std@@QBEABU?$pair@$$CBV?$basic_string@DU?$char_traits@D@std@@V?$allocator@D@2@@std@@H@1@XZ ; std::_Tree_const_iterator<std::_Tree_val<std::_Tree_simple_types<std::pair<std::basic_string<char,std::char_traits<char>,std::allocator<char> > const ,int> > > >::operator*
PUBLIC	?_Tidy@?$list@USArgumet@script@@V?$allocator@USArgumet@script@@@std@@@std@@AAEXXZ ; std::list<script::SArgumet,std::allocator<script::SArgumet> >::_Tidy
PUBLIC	?_Alloc_sentinel_and_proxy@?$list@USArgumet@script@@V?$allocator@USArgumet@script@@@std@@@std@@AAEXXZ ; std::list<script::SArgumet,std::allocator<script::SArgumet> >::_Alloc_sentinel_and_proxy
PUBLIC	?_Getal@?$list@USArgumet@script@@V?$allocator@USArgumet@script@@@std@@@std@@AAEAAV?$allocator@U?$_List_node@USArgumet@script@@PAX@std@@@2@XZ ; std::list<script::SArgumet,std::allocator<script::SArgumet> >::_Getal
PUBLIC	??0?$_Tree@V?$_Tmap_traits@V?$basic_string@DU?$char_traits@D@std@@V?$allocator@D@2@@std@@HU?$less@V?$basic_string@DU?$char_traits@D@std@@V?$allocator@D@2@@std@@@2@V?$allocator@U?$pair@$$CBV?$basic_string@DU?$char_traits@D@std@@V?$allocator@D@2@@std@@H@std@@@2@$0A@@std@@@std@@QAE@ABU?$less@V?$basic_string@DU?$char_traits@D@std@@V?$allocator@D@2@@std@@@1@@Z ; std::_Tree<std::_Tmap_traits<std::basic_string<char,std::char_traits<char>,std::allocator<char> >,int,std::less<std::basic_string<char,std::char_traits<char>,std::allocator<char> > >,std::allocator<std::pair<std::basic_string<char,std::char_traits<char>,std::allocator<char> > const ,int> >,0> >::_Tree<std::_Tmap_traits<std::basic_string<char,std::char_traits<char>,std::allocator<char> >,int,std::less<std::basic_string<char,std::char_traits<char>,std::allocator<char> > >,std::allocator<std::pair<std::basic_string<char,std::char_traits<char>,std::allocator<char> > const ,int> >,0> >
PUBLIC	?_Getal@?$_Tree@V?$_Tmap_traits@V?$basic_string@DU?$char_traits@D@std@@V?$allocator@D@2@@std@@HU?$less@V?$basic_string@DU?$char_traits@D@std@@V?$allocator@D@2@@std@@@2@V?$allocator@U?$pair@$$CBV?$basic_string@DU?$char_traits@D@std@@V?$allocator@D@2@@std@@H@std@@@2@$0A@@std@@@std@@IAEAAV?$allocator@U?$_Tree_node@U?$pair@$$CBV?$basic_string@DU?$char_traits@D@std@@V?$allocator@D@2@@std@@H@std@@PAX@std@@@2@XZ ; std::_Tree<std::_Tmap_traits<std::basic_string<char,std::char_traits<char>,std::allocator<char> >,int,std::less<std::basic_string<char,std::char_traits<char>,std::allocator<char> > >,std::allocator<std::pair<std::basic_string<char,std::char_traits<char>,std::allocator<char> > const ,int> >,0> >::_Getal
PUBLIC	?_Get_scary@?$_Tree@V?$_Tmap_traits@V?$basic_string@DU?$char_traits@D@std@@V?$allocator@D@2@@std@@HU?$less@V?$basic_string@DU?$char_traits@D@std@@V?$allocator@D@2@@std@@@2@V?$allocator@U?$pair@$$CBV?$basic_string@DU?$char_traits@D@std@@V?$allocator@D@2@@std@@H@std@@@2@$0A@@std@@@std@@IAEPAV?$_Tree_val@U?$_Tree_simple_types@U?$pair@$$CBV?$basic_string@DU?$char_traits@D@std@@V?$allocator@D@2@@std@@H@std@@@std@@@2@XZ ; std::_Tree<std::_Tmap_traits<std::basic_string<char,std::char_traits<char>,std::allocator<char> >,int,std::less<std::basic_string<char,std::char_traits<char>,std::allocator<char> > >,std::allocator<std::pair<std::basic_string<char,std::char_traits<char>,std::allocator<char> > const ,int> >,0> >::_Get_scary
PUBLIC	?_Tidy@?$list@USTextLine@CPythonEventManager@@V?$allocator@USTextLine@CPythonEventManager@@@std@@@std@@AAEXXZ ; std::list<CPythonEventManager::STextLine,std::allocator<CPythonEventManager::STextLine> >::_Tidy
PUBLIC	?_Alloc_sentinel_and_proxy@?$list@USTextLine@CPythonEventManager@@V?$allocator@USTextLine@CPythonEventManager@@@std@@@std@@AAEXXZ ; std::list<CPythonEventManager::STextLine,std::allocator<CPythonEventManager::STextLine> >::_Alloc_sentinel_and_proxy
PUBLIC	?_Getal@?$list@USTextLine@CPythonEventManager@@V?$allocator@USTextLine@CPythonEventManager@@@std@@@std@@AAEAAV?$allocator@U?$_List_node@USTextLine@CPythonEventManager@@PAX@std@@@2@XZ ; std::list<CPythonEventManager::STextLine,std::allocator<CPythonEventManager::STextLine> >::_Getal
PUBLIC	?_Orphan_non_end@?$_List_val@U?$_List_simple_types@USTextLine@CPythonEventManager@@@std@@@std@@QAEXXZ ; std::_List_val<std::_List_simple_types<CPythonEventManager::STextLine> >::_Orphan_non_end
PUBLIC	?push_back@?$vector@PAUSEventSet@CPythonEventManager@@V?$allocator@PAUSEventSet@CPythonEventManager@@@std@@@std@@QAEXABQAUSEventSet@CPythonEventManager@@@Z ; std::vector<CPythonEventManager::SEventSet *,std::allocator<CPythonEventManager::SEventSet *> >::push_back
PUBLIC	?pop_back@?$vector@PAUSEventSet@CPythonEventManager@@V?$allocator@PAUSEventSet@CPythonEventManager@@@std@@@std@@QAEXXZ ; std::vector<CPythonEventManager::SEventSet *,std::allocator<CPythonEventManager::SEventSet *> >::pop_back
PUBLIC	?empty@?$vector@PAUSEventSet@CPythonEventManager@@V?$allocator@PAUSEventSet@CPythonEventManager@@@std@@@std@@QBE_NXZ ; std::vector<CPythonEventManager::SEventSet *,std::allocator<CPythonEventManager::SEventSet *> >::empty
PUBLIC	?back@?$vector@PAUSEventSet@CPythonEventManager@@V?$allocator@PAUSEventSet@CPythonEventManager@@@std@@@std@@QAEAAPAUSEventSet@CPythonEventManager@@XZ ; std::vector<CPythonEventManager::SEventSet *,std::allocator<CPythonEventManager::SEventSet *> >::back
PUBLIC	?_Tidy@?$vector@PAUSEventSet@CPythonEventManager@@V?$allocator@PAUSEventSet@CPythonEventManager@@@std@@@std@@AAEXXZ ; std::vector<CPythonEventManager::SEventSet *,std::allocator<CPythonEventManager::SEventSet *> >::_Tidy
PUBLIC	?_Getal@?$vector@PAUSEventSet@CPythonEventManager@@V?$allocator@PAUSEventSet@CPythonEventManager@@@std@@@std@@AAEAAV?$allocator@PAUSEventSet@CPythonEventManager@@@2@XZ ; std::vector<CPythonEventManager::SEventSet *,std::allocator<CPythonEventManager::SEventSet *> >::_Getal
PUBLIC	?Destroy@?$CDynamicPool@USEventSet@CPythonEventManager@@@@QAEXXZ ; CDynamicPool<CPythonEventManager::SEventSet>::Destroy
PUBLIC	?Destroy@?$CDynamicPool@VCGraphicTextInstance@@@@QAEXXZ ; CDynamicPool<CGraphicTextInstance>::Destroy
PUBLIC	??0?$vector@PAVCGraphicTextInstance@@V?$allocator@PAVCGraphicTextInstance@@@std@@@std@@QAE@XZ ; std::vector<CGraphicTextInstance *,std::allocator<CGraphicTextInstance *> >::vector<CGraphicTextInstance *,std::allocator<CGraphicTextInstance *> >
PUBLIC	??1?$vector@PAVCGraphicTextInstance@@V?$allocator@PAVCGraphicTextInstance@@@std@@@std@@QAE@XZ ; std::vector<CGraphicTextInstance *,std::allocator<CGraphicTextInstance *> >::~vector<CGraphicTextInstance *,std::allocator<CGraphicTextInstance *> >
PUBLIC	?push_back@?$vector@PAVCGraphicTextInstance@@V?$allocator@PAVCGraphicTextInstance@@@std@@@std@@QAEXABQAVCGraphicTextInstance@@@Z ; std::vector<CGraphicTextInstance *,std::allocator<CGraphicTextInstance *> >::push_back
PUBLIC	?pop_back@?$vector@PAVCGraphicTextInstance@@V?$allocator@PAVCGraphicTextInstance@@@std@@@std@@QAEXXZ ; std::vector<CGraphicTextInstance *,std::allocator<CGraphicTextInstance *> >::pop_back
PUBLIC	?empty@?$vector@PAVCGraphicTextInstance@@V?$allocator@PAVCGraphicTextInstance@@@std@@@std@@QBE_NXZ ; std::vector<CGraphicTextInstance *,std::allocator<CGraphicTextInstance *> >::empty
PUBLIC	?back@?$vector@PAVCGraphicTextInstance@@V?$allocator@PAVCGraphicTextInstance@@@std@@@std@@QAEAAPAVCGraphicTextInstance@@XZ ; std::vector<CGraphicTextInstance *,std::allocator<CGraphicTextInstance *> >::back
PUBLIC	??0?$_List_unchecked_const_iterator@V?$_List_val@U?$_List_simple_types@USArgumet@script@@@std@@@std@@U_Iterator_base0@2@@std@@QAE@PAU?$_List_node@USArgumet@script@@PAX@1@PBV?$_List_val@U?$_List_simple_types@USArgumet@script@@@std@@@1@@Z ; std::_List_unchecked_const_iterator<std::_List_val<std::_List_simple_types<script::SArgumet> >,std::_Iterator_base0>::_List_unchecked_const_iterator<std::_List_val<std::_List_simple_types<script::SArgumet> >,std::_Iterator_base0>
PUBLIC	??D?$_List_const_iterator@V?$_List_val@U?$_List_simple_types@USArgumet@script@@@std@@@std@@@std@@QBEABUSArgumet@script@@XZ ; std::_List_const_iterator<std::_List_val<std::_List_simple_types<script::SArgumet> > >::operator*
PUBLIC	??E?$_List_const_iterator@V?$_List_val@U?$_List_simple_types@USArgumet@script@@@std@@@std@@@std@@QAEAAV01@XZ ; std::_List_const_iterator<std::_List_val<std::_List_simple_types<script::SArgumet> > >::operator++
PUBLIC	??0?$_List_unchecked_const_iterator@V?$_List_val@U?$_List_simple_types@USTextLine@CPythonEventManager@@@std@@@std@@U_Iterator_base0@2@@std@@QAE@PAU?$_List_node@USTextLine@CPythonEventManager@@PAX@1@PBV?$_List_val@U?$_List_simple_types@USTextLine@CPythonEventManager@@@std@@@1@@Z ; std::_List_unchecked_const_iterator<std::_List_val<std::_List_simple_types<CPythonEventManager::STextLine> >,std::_Iterator_base0>::_List_unchecked_const_iterator<std::_List_val<std::_List_simple_types<CPythonEventManager::STextLine> >,std::_Iterator_base0>
PUBLIC	??D?$_List_const_iterator@V?$_List_val@U?$_List_simple_types@USTextLine@CPythonEventManager@@@std@@@std@@@std@@QBEABUSTextLine@CPythonEventManager@@XZ ; std::_List_const_iterator<std::_List_val<std::_List_simple_types<CPythonEventManager::STextLine> > >::operator*
PUBLIC	??E?$_List_const_iterator@V?$_List_val@U?$_List_simple_types@USTextLine@CPythonEventManager@@@std@@@std@@@std@@QAEAAV01@XZ ; std::_List_const_iterator<std::_List_val<std::_List_simple_types<CPythonEventManager::STextLine> > >::operator++
PUBLIC	??0?$_Tree_unchecked_const_iterator@V?$_Tree_val@U?$_Tree_simple_types@U?$pair@$$CBV?$basic_string@DU?$char_traits@D@std@@V?$allocator@D@2@@std@@H@std@@@std@@@std@@U_Iterator_base0@2@@std@@QAE@PAU?$_Tree_node@U?$pair@$$CBV?$basic_string@DU?$char_traits@D@std@@V?$allocator@D@2@@std@@H@std@@PAX@1@PBV?$_Tree_val@U?$_Tree_simple_types@U?$pair@$$CBV?$basic_string@DU?$char_traits@D@std@@V?$allocator@D@2@@std@@H@std@@@std@@@1@@Z ; std::_Tree_unchecked_const_iterator<std::_Tree_val<std::_Tree_simple_types<std::pair<std::basic_string<char,std::char_traits<char>,std::allocator<char> > const ,int> > >,std::_Iterator_base0>::_Tree_unchecked_const_iterator<std::_Tree_val<std::_Tree_simple_types<std::pair<std::basic_string<char,std::char_traits<char>,std::allocator<char> > const ,int> > >,std::_Iterator_base0>
PUBLIC	??D?$_Tree_iterator@V?$_Tree_val@U?$_Tree_simple_types@U?$pair@$$CBV?$basic_string@DU?$char_traits@D@std@@V?$allocator@D@2@@std@@H@std@@@std@@@std@@@std@@QBEAAU?$pair@$$CBV?$basic_string@DU?$char_traits@D@std@@V?$allocator@D@2@@std@@H@1@XZ ; std::_Tree_iterator<std::_Tree_val<std::_Tree_simple_types<std::pair<std::basic_string<char,std::char_traits<char>,std::allocator<char> > const ,int> > > >::operator*
PUBLIC	?pointer_to@?$pointer_traits@PAU?$pair@$$CBV?$basic_string@DU?$char_traits@D@std@@V?$allocator@D@2@@std@@H@std@@@std@@SAPAU?$pair@$$CBV?$basic_string@DU?$char_traits@D@std@@V?$allocator@D@2@@std@@H@2@AAU32@@Z ; std::pointer_traits<std::pair<std::basic_string<char,std::char_traits<char>,std::allocator<char> > const ,int> *>::pointer_to
PUBLIC	??0?$_List_const_iterator@V?$_List_val@U?$_List_simple_types@USArgumet@script@@@std@@@std@@@std@@QAE@PAU?$_List_node@USArgumet@script@@PAX@1@PBV?$_List_val@U?$_List_simple_types@USArgumet@script@@@std@@@1@@Z ; std::_List_const_iterator<std::_List_val<std::_List_simple_types<script::SArgumet> > >::_List_const_iterator<std::_List_val<std::_List_simple_types<script::SArgumet> > >
PUBLIC	??0?$_Tree_const_iterator@V?$_Tree_val@U?$_Tree_simple_types@U?$pair@$$CBV?$basic_string@DU?$char_traits@D@std@@V?$allocator@D@2@@std@@H@std@@@std@@@std@@@std@@QAE@PAU?$_Tree_node@U?$pair@$$CBV?$basic_string@DU?$char_traits@D@std@@V?$allocator@D@2@@std@@H@std@@PAX@1@PBV?$_Tree_val@U?$_Tree_simple_types@U?$pair@$$CBV?$basic_string@DU?$char_traits@D@std@@V?$allocator@D@2@@std@@H@std@@@std@@@1@@Z ; std::_Tree_const_iterator<std::_Tree_val<std::_Tree_simple_types<std::pair<std::basic_string<char,std::char_traits<char>,std::allocator<char> > const ,int> > > >::_Tree_const_iterator<std::_Tree_val<std::_Tree_simple_types<std::pair<std::basic_string<char,std::char_traits<char>,std::allocator<char> > const ,int> > > >
PUBLIC	??0?$_List_const_iterator@V?$_List_val@U?$_List_simple_types@USTextLine@CPythonEventManager@@@std@@@std@@@std@@QAE@PAU?$_List_node@USTextLine@CPythonEventManager@@PAX@1@PBV?$_List_val@U?$_List_simple_types@USTextLine@CPythonEventManager@@@std@@@1@@Z ; std::_List_const_iterator<std::_List_val<std::_List_simple_types<CPythonEventManager::STextLine> > >::_List_const_iterator<std::_List_val<std::_List_simple_types<CPythonEventManager::STextLine> > >
PUBLIC	??0?$_List_iterator@V?$_List_val@U?$_List_simple_types@USArgumet@script@@@std@@@std@@@std@@QAE@PAU?$_List_node@USArgumet@script@@PAX@1@PBV?$_List_val@U?$_List_simple_types@USArgumet@script@@@std@@@1@@Z ; std::_List_iterator<std::_List_val<std::_List_simple_types<script::SArgumet> > >::_List_iterator<std::_List_val<std::_List_simple_types<script::SArgumet> > >
PUBLIC	??_G?$CSingleton@VCPythonEventManager@@@@UAEPAXI@Z ; CSingleton<CPythonEventManager>::`scalar deleting destructor'
PUBLIC	??0?$_Tree_iterator@V?$_Tree_val@U?$_Tree_simple_types@U?$pair@$$CBV?$basic_string@DU?$char_traits@D@std@@V?$allocator@D@2@@std@@H@std@@@std@@@std@@@std@@QAE@PAU?$_Tree_node@U?$pair@$$CBV?$basic_string@DU?$char_traits@D@std@@V?$allocator@D@2@@std@@H@std@@PAX@1@PBV?$_Tree_val@U?$_Tree_simple_types@U?$pair@$$CBV?$basic_string@DU?$char_traits@D@std@@V?$allocator@D@2@@std@@H@std@@@std@@@1@@Z ; std::_Tree_iterator<std::_Tree_val<std::_Tree_simple_types<std::pair<std::basic_string<char,std::char_traits<char>,std::allocator<char> > const ,int> > > >::_Tree_iterator<std::_Tree_val<std::_Tree_simple_types<std::pair<std::basic_string<char,std::char_traits<char>,std::allocator<char> > const ,int> > > >
PUBLIC	??0?$_List_iterator@V?$_List_val@U?$_List_simple_types@USTextLine@CPythonEventManager@@@std@@@std@@@std@@QAE@PAU?$_List_node@USTextLine@CPythonEventManager@@PAX@1@PBV?$_List_val@U?$_List_simple_types@USTextLine@CPythonEventManager@@@std@@@1@@Z ; std::_List_iterator<std::_List_val<std::_List_simple_types<CPythonEventManager::STextLine> > >::_List_iterator<std::_List_val<std::_List_simple_types<CPythonEventManager::STextLine> > >
PUBLIC	??_G?$CDynamicPool@USEventSet@CPythonEventManager@@@@UAEPAXI@Z ; CDynamicPool<CPythonEventManager::SEventSet>::`scalar deleting destructor'
PUBLIC	??_G?$CDynamicPool@VCGraphicTextInstance@@@@UAEPAXI@Z ; CDynamicPool<CGraphicTextInstance>::`scalar deleting destructor'
PUBLIC	??0?$list@USArgumet@script@@V?$allocator@USArgumet@script@@@std@@@std@@QAE@XZ ; std::list<script::SArgumet,std::allocator<script::SArgumet> >::list<script::SArgumet,std::allocator<script::SArgumet> >
PUBLIC	??1?$list@USArgumet@script@@V?$allocator@USArgumet@script@@@std@@@std@@QAE@XZ ; std::list<script::SArgumet,std::allocator<script::SArgumet> >::~list<script::SArgumet,std::allocator<script::SArgumet> >
PUBLIC	?begin@?$list@USArgumet@script@@V?$allocator@USArgumet@script@@@std@@@std@@QAE?AV?$_List_iterator@V?$_List_val@U?$_List_simple_types@USArgumet@script@@@std@@@std@@@2@XZ ; std::list<script::SArgumet,std::allocator<script::SArgumet> >::begin
PUBLIC	?end@?$list@USArgumet@script@@V?$allocator@USArgumet@script@@@std@@@std@@QAE?AV?$_List_iterator@V?$_List_val@U?$_List_simple_types@USArgumet@script@@@std@@@std@@@2@XZ ; std::list<script::SArgumet,std::allocator<script::SArgumet> >::end
PUBLIC	?size@?$list@USArgumet@script@@V?$allocator@USArgumet@script@@@std@@@std@@QBEIXZ ; std::list<script::SArgumet,std::allocator<script::SArgumet> >::size
PUBLIC	?empty@?$list@USArgumet@script@@V?$allocator@USArgumet@script@@@std@@@std@@QBE_NXZ ; std::list<script::SArgumet,std::allocator<script::SArgumet> >::empty
PUBLIC	??0?$CSingleton@VCPythonEventManager@@@@QAE@XZ	; CSingleton<CPythonEventManager>::CSingleton<CPythonEventManager>
PUBLIC	??1?$CSingleton@VCPythonEventManager@@@@UAE@XZ	; CSingleton<CPythonEventManager>::~CSingleton<CPythonEventManager>
PUBLIC	??1?$_Tree@V?$_Tmap_traits@V?$basic_string@DU?$char_traits@D@std@@V?$allocator@D@2@@std@@HU?$less@V?$basic_string@DU?$char_traits@D@std@@V?$allocator@D@2@@std@@@2@V?$allocator@U?$pair@$$CBV?$basic_string@DU?$char_traits@D@std@@V?$allocator@D@2@@std@@H@std@@@2@$0A@@std@@@std@@QAE@XZ ; std::_Tree<std::_Tmap_traits<std::basic_string<char,std::char_traits<char>,std::allocator<char> >,int,std::less<std::basic_string<char,std::char_traits<char>,std::allocator<char> > >,std::allocator<std::pair<std::basic_string<char,std::char_traits<char>,std::allocator<char> > const ,int> >,0> >::~_Tree<std::_Tmap_traits<std::basic_string<char,std::char_traits<char>,std::allocator<char> >,int,std::less<std::basic_string<char,std::char_traits<char>,std::allocator<char> > >,std::allocator<std::pair<std::basic_string<char,std::char_traits<char>,std::allocator<char> > const ,int> >,0> >
PUBLIC	?end@?$_Tree@V?$_Tmap_traits@V?$basic_string@DU?$char_traits@D@std@@V?$allocator@D@2@@std@@HU?$less@V?$basic_string@DU?$char_traits@D@std@@V?$allocator@D@2@@std@@@2@V?$allocator@U?$pair@$$CBV?$basic_string@DU?$char_traits@D@std@@V?$allocator@D@2@@std@@H@std@@@2@$0A@@std@@@std@@QAE?AV?$_Tree_iterator@V?$_Tree_val@U?$_Tree_simple_types@U?$pair@$$CBV?$basic_string@DU?$char_traits@D@std@@V?$allocator@D@2@@std@@H@std@@@std@@@std@@@2@XZ ; std::_Tree<std::_Tmap_traits<std::basic_string<char,std::char_traits<char>,std::allocator<char> >,int,std::less<std::basic_string<char,std::char_traits<char>,std::allocator<char> > >,std::allocator<std::pair<std::basic_string<char,std::char_traits<char>,std::allocator<char> > const ,int> >,0> >::end
PUBLIC	?find@?$_Tree@V?$_Tmap_traits@V?$basic_string@DU?$char_traits@D@std@@V?$allocator@D@2@@std@@HU?$less@V?$basic_string@DU?$char_traits@D@std@@V?$allocator@D@2@@std@@@2@V?$allocator@U?$pair@$$CBV?$basic_string@DU?$char_traits@D@std@@V?$allocator@D@2@@std@@H@std@@@2@$0A@@std@@@std@@QAE?AV?$_Tree_iterator@V?$_Tree_val@U?$_Tree_simple_types@U?$pair@$$CBV?$basic_string@DU?$char_traits@D@std@@V?$allocator@D@2@@std@@H@std@@@std@@@std@@@2@ABV?$basic_string@DU?$char_traits@D@std@@V?$allocator@D@2@@2@@Z ; std::_Tree<std::_Tmap_traits<std::basic_string<char,std::char_traits<char>,std::allocator<char> >,int,std::less<std::basic_string<char,std::char_traits<char>,std::allocator<char> > >,std::allocator<std::pair<std::basic_string<char,std::char_traits<char>,std::allocator<char> > const ,int> >,0> >::find
PUBLIC	??0?$map@V?$basic_string@DU?$char_traits@D@std@@V?$allocator@D@2@@std@@HU?$less@V?$basic_string@DU?$char_traits@D@std@@V?$allocator@D@2@@std@@@2@V?$allocator@U?$pair@$$CBV?$basic_string@DU?$char_traits@D@std@@V?$allocator@D@2@@std@@H@std@@@2@@std@@QAE@XZ ; std::map<std::basic_string<char,std::char_traits<char>,std::allocator<char> >,int,std::less<std::basic_string<char,std::char_traits<char>,std::allocator<char> > >,std::allocator<std::pair<std::basic_string<char,std::char_traits<char>,std::allocator<char> > const ,int> > >::map<std::basic_string<char,std::char_traits<char>,std::allocator<char> >,int,std::less<std::basic_string<char,std::char_traits<char>,std::allocator<char> > >,std::allocator<std::pair<std::basic_string<char,std::char_traits<char>,std::allocator<char> > const ,int> > >
PUBLIC	??A?$map@V?$basic_string@DU?$char_traits@D@std@@V?$allocator@D@2@@std@@HU?$less@V?$basic_string@DU?$char_traits@D@std@@V?$allocator@D@2@@std@@@2@V?$allocator@U?$pair@$$CBV?$basic_string@DU?$char_traits@D@std@@V?$allocator@D@2@@std@@H@std@@@2@@std@@QAEAAH$$QAV?$basic_string@DU?$char_traits@D@std@@V?$allocator@D@2@@1@@Z ; std::map<std::basic_string<char,std::char_traits<char>,std::allocator<char> >,int,std::less<std::basic_string<char,std::char_traits<char>,std::allocator<char> > >,std::allocator<std::pair<std::basic_string<char,std::char_traits<char>,std::allocator<char> > const ,int> > >::operator[]
PUBLIC	??0?$list@USTextLine@CPythonEventManager@@V?$allocator@USTextLine@CPythonEventManager@@@std@@@std@@QAE@XZ ; std::list<CPythonEventManager::STextLine,std::allocator<CPythonEventManager::STextLine> >::list<CPythonEventManager::STextLine,std::allocator<CPythonEventManager::STextLine> >
PUBLIC	??1?$list@USTextLine@CPythonEventManager@@V?$allocator@USTextLine@CPythonEventManager@@@std@@@std@@QAE@XZ ; std::list<CPythonEventManager::STextLine,std::allocator<CPythonEventManager::STextLine> >::~list<CPythonEventManager::STextLine,std::allocator<CPythonEventManager::STextLine> >
PUBLIC	?begin@?$list@USTextLine@CPythonEventManager@@V?$allocator@USTextLine@CPythonEventManager@@@std@@@std@@QAE?AV?$_List_iterator@V?$_List_val@U?$_List_simple_types@USTextLine@CPythonEventManager@@@std@@@std@@@2@XZ ; std::list<CPythonEventManager::STextLine,std::allocator<CPythonEventManager::STextLine> >::begin
PUBLIC	?end@?$list@USTextLine@CPythonEventManager@@V?$allocator@USTextLine@CPythonEventManager@@@std@@@std@@QAE?AV?$_List_iterator@V?$_List_val@U?$_List_simple_types@USTextLine@CPythonEventManager@@@std@@@std@@@2@XZ ; std::list<CPythonEventManager::STextLine,std::allocator<CPythonEventManager::STextLine> >::end
PUBLIC	?size@?$list@USTextLine@CPythonEventManager@@V?$allocator@USTextLine@CPythonEventManager@@@std@@@std@@QBEIXZ ; std::list<CPythonEventManager::STextLine,std::allocator<CPythonEventManager::STextLine> >::size
PUBLIC	?push_back@?$list@USTextLine@CPythonEventManager@@V?$allocator@USTextLine@CPythonEventManager@@@std@@@std@@QAEXABUSTextLine@CPythonEventManager@@@Z ; std::list<CPythonEventManager::STextLine,std::allocator<CPythonEventManager::STextLine> >::push_back
PUBLIC	?clear@?$list@USTextLine@CPythonEventManager@@V?$allocator@USTextLine@CPythonEventManager@@@std@@@std@@QAEXXZ ; std::list<CPythonEventManager::STextLine,std::allocator<CPythonEventManager::STextLine> >::clear
PUBLIC	??0?$vector@PAUSEventSet@CPythonEventManager@@V?$allocator@PAUSEventSet@CPythonEventManager@@@std@@@std@@QAE@XZ ; std::vector<CPythonEventManager::SEventSet *,std::allocator<CPythonEventManager::SEventSet *> >::vector<CPythonEventManager::SEventSet *,std::allocator<CPythonEventManager::SEventSet *> >
PUBLIC	??1?$vector@PAUSEventSet@CPythonEventManager@@V?$allocator@PAUSEventSet@CPythonEventManager@@@std@@@std@@QAE@XZ ; std::vector<CPythonEventManager::SEventSet *,std::allocator<CPythonEventManager::SEventSet *> >::~vector<CPythonEventManager::SEventSet *,std::allocator<CPythonEventManager::SEventSet *> >
PUBLIC	?push_back@?$vector@PAUSEventSet@CPythonEventManager@@V?$allocator@PAUSEventSet@CPythonEventManager@@@std@@@std@@QAEX$$QAPAUSEventSet@CPythonEventManager@@@Z ; std::vector<CPythonEventManager::SEventSet *,std::allocator<CPythonEventManager::SEventSet *> >::push_back
PUBLIC	?clear@?$vector@PAUSEventSet@CPythonEventManager@@V?$allocator@PAUSEventSet@CPythonEventManager@@@std@@@std@@QAEXXZ ; std::vector<CPythonEventManager::SEventSet *,std::allocator<CPythonEventManager::SEventSet *> >::clear
PUBLIC	?size@?$vector@PAUSEventSet@CPythonEventManager@@V?$allocator@PAUSEventSet@CPythonEventManager@@@std@@@std@@QBEIXZ ; std::vector<CPythonEventManager::SEventSet *,std::allocator<CPythonEventManager::SEventSet *> >::size
PUBLIC	??A?$vector@PAUSEventSet@CPythonEventManager@@V?$allocator@PAUSEventSet@CPythonEventManager@@@std@@@std@@QAEAAPAUSEventSet@CPythonEventManager@@I@Z ; std::vector<CPythonEventManager::SEventSet *,std::allocator<CPythonEventManager::SEventSet *> >::operator[]
PUBLIC	??0?$CDynamicPool@USEventSet@CPythonEventManager@@@@QAE@XZ ; CDynamicPool<CPythonEventManager::SEventSet>::CDynamicPool<CPythonEventManager::SEventSet>
PUBLIC	??1?$CDynamicPool@USEventSet@CPythonEventManager@@@@UAE@XZ ; CDynamicPool<CPythonEventManager::SEventSet>::~CDynamicPool<CPythonEventManager::SEventSet>
PUBLIC	?Clear@?$CDynamicPool@USEventSet@CPythonEventManager@@@@QAEXXZ ; CDynamicPool<CPythonEventManager::SEventSet>::Clear
PUBLIC	?Alloc@?$CDynamicPool@USEventSet@CPythonEventManager@@@@QAEPAUSEventSet@CPythonEventManager@@XZ ; CDynamicPool<CPythonEventManager::SEventSet>::Alloc
PUBLIC	?Free@?$CDynamicPool@USEventSet@CPythonEventManager@@@@QAEXPAUSEventSet@CPythonEventManager@@@Z ; CDynamicPool<CPythonEventManager::SEventSet>::Free
PUBLIC	??0?$CDynamicPool@VCGraphicTextInstance@@@@QAE@XZ ; CDynamicPool<CGraphicTextInstance>::CDynamicPool<CGraphicTextInstance>
PUBLIC	??1?$CDynamicPool@VCGraphicTextInstance@@@@UAE@XZ ; CDynamicPool<CGraphicTextInstance>::~CDynamicPool<CGraphicTextInstance>
PUBLIC	?Clear@?$CDynamicPool@VCGraphicTextInstance@@@@QAEXXZ ; CDynamicPool<CGraphicTextInstance>::Clear
PUBLIC	?Alloc@?$CDynamicPool@VCGraphicTextInstance@@@@QAEPAVCGraphicTextInstance@@XZ ; CDynamicPool<CGraphicTextInstance>::Alloc
PUBLIC	?Free@?$CDynamicPool@VCGraphicTextInstance@@@@QAEXPAVCGraphicTextInstance@@@Z ; CDynamicPool<CGraphicTextInstance>::Free
PUBLIC	??8?$_List_const_iterator@V?$_List_val@U?$_List_simple_types@USArgumet@script@@@std@@@std@@@std@@QBE_NABV01@@Z ; std::_List_const_iterator<std::_List_val<std::_List_simple_types<script::SArgumet> > >::operator==
PUBLIC	??D?$_List_iterator@V?$_List_val@U?$_List_simple_types@USArgumet@script@@@std@@@std@@@std@@QBEAAUSArgumet@script@@XZ ; std::_List_iterator<std::_List_val<std::_List_simple_types<script::SArgumet> > >::operator*
PUBLIC	??E?$_List_iterator@V?$_List_val@U?$_List_simple_types@USArgumet@script@@@std@@@std@@@std@@QAEAAV01@XZ ; std::_List_iterator<std::_List_val<std::_List_simple_types<script::SArgumet> > >::operator++
PUBLIC	??8?$_List_const_iterator@V?$_List_val@U?$_List_simple_types@USTextLine@CPythonEventManager@@@std@@@std@@@std@@QBE_NABV01@@Z ; std::_List_const_iterator<std::_List_val<std::_List_simple_types<CPythonEventManager::STextLine> > >::operator==
PUBLIC	??D?$_List_iterator@V?$_List_val@U?$_List_simple_types@USTextLine@CPythonEventManager@@@std@@@std@@@std@@QBEAAUSTextLine@CPythonEventManager@@XZ ; std::_List_iterator<std::_List_val<std::_List_simple_types<CPythonEventManager::STextLine> > >::operator*
PUBLIC	??E?$_List_iterator@V?$_List_val@U?$_List_simple_types@USTextLine@CPythonEventManager@@@std@@@std@@@std@@QAEAAV01@XZ ; std::_List_iterator<std::_List_val<std::_List_simple_types<CPythonEventManager::STextLine> > >::operator++
PUBLIC	??8?$_Tree_const_iterator@V?$_Tree_val@U?$_Tree_simple_types@U?$pair@$$CBV?$basic_string@DU?$char_traits@D@std@@V?$allocator@D@2@@std@@H@std@@@std@@@std@@@std@@QBE_NABV01@@Z ; std::_Tree_const_iterator<std::_Tree_val<std::_Tree_simple_types<std::pair<std::basic_string<char,std::char_traits<char>,std::allocator<char> > const ,int> > > >::operator==
PUBLIC	??C?$_Tree_iterator@V?$_Tree_val@U?$_Tree_simple_types@U?$pair@$$CBV?$basic_string@DU?$char_traits@D@std@@V?$allocator@D@2@@std@@H@std@@@std@@@std@@@std@@QBEPAU?$pair@$$CBV?$basic_string@DU?$char_traits@D@std@@V?$allocator@D@2@@std@@H@1@XZ ; std::_Tree_iterator<std::_Tree_val<std::_Tree_simple_types<std::pair<std::basic_string<char,std::char_traits<char>,std::allocator<char> > const ,int> > > >::operator->
PUBLIC	??1?$map@V?$basic_string@DU?$char_traits@D@std@@V?$allocator@D@2@@std@@HU?$less@V?$basic_string@DU?$char_traits@D@std@@V?$allocator@D@2@@std@@@2@V?$allocator@U?$pair@$$CBV?$basic_string@DU?$char_traits@D@std@@V?$allocator@D@2@@std@@H@std@@@2@@std@@QAE@XZ ; std::map<std::basic_string<char,std::char_traits<char>,std::allocator<char> >,int,std::less<std::basic_string<char,std::char_traits<char>,std::allocator<char> > >,std::allocator<std::pair<std::basic_string<char,std::char_traits<char>,std::allocator<char> > const ,int> > >::~map<std::basic_string<char,std::char_traits<char>,std::allocator<char> >,int,std::less<std::basic_string<char,std::char_traits<char>,std::allocator<char> > >,std::allocator<std::pair<std::basic_string<char,std::char_traits<char>,std::allocator<char> > const ,int> > >
PUBLIC	??_GCPythonEventManager@@UAEPAXI@Z		; CPythonEventManager::`scalar deleting destructor'
PUBLIC	?SetLeftTimeString@CPythonEventManager@@QAEXPBD@Z ; CPythonEventManager::SetLeftTimeString
PUBLIC	?SetInterfaceWindow@CPythonEventManager@@QAEXPAU_object@@@Z ; CPythonEventManager::SetInterfaceWindow
PUBLIC	?CheckEventSetIndex@CPythonEventManager@@IAE_NH@Z ; CPythonEventManager::CheckEventSetIndex
PUBLIC	?GetScriptEventIndex@CPythonEventManager@@IAE_NPBDPAH1@Z ; CPythonEventManager::GetScriptEventIndex
PUBLIC	?__AddSpace@CPythonEventManager@@IAEXAAUSEventSet@1@H@Z ; CPythonEventManager::__AddSpace
PUBLIC	?RefreshLinePosition@CPythonEventManager@@IAEXPAUSEventSet@1@@Z ; CPythonEventManager::RefreshLinePosition
PUBLIC	?__InsertLine@CPythonEventManager@@IAEXAAUSEventSet@1@HH@Z ; CPythonEventManager::__InsertLine
PUBLIC	?ClearLine@CPythonEventManager@@IAEXPAUSEventSet@1@@Z ; CPythonEventManager::ClearLine
PUBLIC	?GetLineCount@CPythonEventManager@@QAEHH@Z	; CPythonEventManager::GetLineCount
PUBLIC	?GetVisibleStartLine@CPythonEventManager@@QAEHH@Z ; CPythonEventManager::GetVisibleStartLine
PUBLIC	?SetVisibleLineCount@CPythonEventManager@@QAEXHH@Z ; CPythonEventManager::SetVisibleLineCount
PUBLIC	?SetVisibleStartLine@CPythonEventManager@@QAEXHH@Z ; CPythonEventManager::SetVisibleStartLine
PUBLIC	?SelectAnswer@CPythonEventManager@@QAEXHH@Z	; CPythonEventManager::SelectAnswer
PUBLIC	?MakeQuestion@CPythonEventManager@@IAEXPAUSEventSet@1@AAV?$list@USArgumet@script@@V?$allocator@USArgumet@script@@@std@@@std@@@Z ; CPythonEventManager::MakeQuestion
PUBLIC	?MakeNextButton@CPythonEventManager@@IAEXPAUSEventSet@1@H@Z ; CPythonEventManager::MakeNextButton
PUBLIC	?EndEventProcess@CPythonEventManager@@QAEXH@Z	; CPythonEventManager::EndEventProcess
PUBLIC	?IsWait@CPythonEventManager@@QAE_NH@Z		; CPythonEventManager::IsWait
PUBLIC	?Skip@CPythonEventManager@@QAEXH@Z		; CPythonEventManager::Skip
PUBLIC	?RenderEventSet@CPythonEventManager@@QAEXH@Z	; CPythonEventManager::RenderEventSet
PUBLIC	?ProcessEventSet@CPythonEventManager@@IAEXPAUSEventSet@1@@Z ; CPythonEventManager::ProcessEventSet
PUBLIC	?SetEventSetWidth@CPythonEventManager@@QAEXHH@Z	; CPythonEventManager::SetEventSetWidth
PUBLIC	?UpdateEventSet@CPythonEventManager@@QAEXHHH@Z	; CPythonEventManager::UpdateEventSet
PUBLIC	?InsertText@CPythonEventManager@@QAEXHPBDH@Z	; CPythonEventManager::InsertText
PUBLIC	?AddEventSetLocalYPosition@CPythonEventManager@@QAEXHH@Z ; CPythonEventManager::AddEventSetLocalYPosition
PUBLIC	?GetEventSetLocalYPosition@CPythonEventManager@@QAEHH@Z ; CPythonEventManager::GetEventSetLocalYPosition
PUBLIC	?SetEventHandler@CPythonEventManager@@QAEXHPAU_object@@@Z ; CPythonEventManager::SetEventHandler
PUBLIC	?SetRestrictedCount@CPythonEventManager@@QAEXHH@Z ; CPythonEventManager::SetRestrictedCount
PUBLIC	?GetEmptyEventSetSlot@CPythonEventManager@@IAEKXZ ; CPythonEventManager::GetEmptyEventSetSlot
PUBLIC	?__ClearEventSetp@CPythonEventManager@@QAEXPAUSEventSet@1@@Z ; CPythonEventManager::__ClearEventSetp
PUBLIC	?ClearEventSeti@CPythonEventManager@@QAEXH@Z	; CPythonEventManager::ClearEventSeti
PUBLIC	??1SCmd@script@@QAE@XZ				; script::SCmd::~SCmd
PUBLIC	?RegisterEventSetFromString@CPythonEventManager@@QAEHABV?$basic_string@DU?$char_traits@D@std@@V?$allocator@D@2@@std@@@Z ; CPythonEventManager::RegisterEventSetFromString
PUBLIC	?RegisterEventSet@CPythonEventManager@@QAEHPBD@Z ; CPythonEventManager::RegisterEventSet
PUBLIC	?__InitEventSet@CPythonEventManager@@IAEXAAUSEventSet@1@@Z ; CPythonEventManager::__InitEventSet
PUBLIC	?GetCameraSettingFromArgList@@YAXAAV?$list@USArgumet@script@@V?$allocator@USArgumet@script@@@std@@@std@@PAUSCameraSetting@IAbstractApplication@@@Z ; GetCameraSettingFromArgList
PUBLIC	?GetArgument@@YAPBDPBDAAV?$list@USArgumet@script@@V?$allocator@USArgumet@script@@@std@@@std@@@Z ; GetArgument
PUBLIC	?GetArgumentString@@YAABV?$basic_string@DU?$char_traits@D@std@@V?$allocator@D@2@@std@@PBDAAV?$list@USArgumet@script@@V?$allocator@USArgumet@script@@@std@@@2@@Z ; GetArgumentString
PUBLIC	??_GSEventSet@CPythonEventManager@@UAEPAXI@Z	; CPythonEventManager::SEventSet::`scalar deleting destructor'
PUBLIC	??1SEventSet@CPythonEventManager@@UAE@XZ	; CPythonEventManager::SEventSet::~SEventSet
PUBLIC	??0SEventSet@CPythonEventManager@@QAE@XZ	; CPythonEventManager::SEventSet::SEventSet
PUBLIC	??0SCmd@script@@QAE@XZ				; script::SCmd::SCmd
PUBLIC	??0CPythonEventManager@@QAE@XZ			; CPythonEventManager::CPythonEventManager
PUBLIC	??1CPythonEventManager@@UAE@XZ			; CPythonEventManager::~CPythonEventManager
PUBLIC	?Destroy@CPythonEventManager@@QAEXXZ		; CPythonEventManager::Destroy
EXTRN	??_E?$CDynamicPool@VCGraphicTextInstance@@@@UAEPAXI@Z:PROC ; CDynamicPool<CGraphicTextInstance>::`vector deleting destructor'
EXTRN	??_ECPythonEventManager@@UAEPAXI@Z:PROC		; CPythonEventManager::`vector deleting destructor'
EXTRN	??_E?$CSingleton@VCPythonEventManager@@@@UAEPAXI@Z:PROC ; CSingleton<CPythonEventManager>::`vector deleting destructor'
EXTRN	??_ESEventSet@CPythonEventManager@@UAEPAXI@Z:PROC ; CPythonEventManager::SEventSet::`vector deleting destructor'
EXTRN	??_E?$CDynamicPool@USEventSet@CPythonEventManager@@@@UAEPAXI@Z:PROC ; CDynamicPool<CPythonEventManager::SEventSet>::`vector deleting destructor'
;	COMDAT ?$TSS0@?1??GetArgumentString@@YAABV?$basic_string@DU?$char_traits@D@std@@V?$allocator@D@2@@std@@PBDAAV?$list@USArgumet@script@@V?$allocator@USArgumet@script@@@std@@@3@@Z@4HA
_BSS	SEGMENT
?$TSS0@?1??GetArgumentString@@YAABV?$basic_string@DU?$char_traits@D@std@@V?$allocator@D@2@@std@@PBDAAV?$list@USArgumet@script@@V?$allocator@USArgumet@script@@@std@@@3@@Z@4HA DD 01H DUP (?) ; `GetArgumentString'::`2'::$TSS0
_BSS	ENDS
;	COMDAT xdata$x
xdata$x	SEGMENT
__ehfuncinfo$??0CPythonEventManager@@QAE@XZ DD 019930522H
	DD	030H
	DD	FLAT:__unwindtable$??0CPythonEventManager@@QAE@XZ
	DD	2 DUP(00H)
	DD	2 DUP(00H)
	DD	00H
	DD	01H
	ORG $+4
__unwindtable$??0CPythonEventManager@@QAE@XZ DD 0ffffffffH
	DD	FLAT:__unwindfunclet$??0CPythonEventManager@@QAE@XZ$0
	DD	00H
	DD	FLAT:__unwindfunclet$??0CPythonEventManager@@QAE@XZ$1
	DD	01H
	DD	FLAT:__unwindfunclet$??0CPythonEventManager@@QAE@XZ$2
	DD	02H
	DD	FLAT:__unwindfunclet$??0CPythonEventManager@@QAE@XZ$3
	DD	03H
	DD	FLAT:__unwindfunclet$??0CPythonEventManager@@QAE@XZ$4
	DD	04H
	DD	FLAT:__unwindfunclet$??0CPythonEventManager@@QAE@XZ$5
	DD	05H
	DD	FLAT:__unwindfunclet$??0CPythonEventManager@@QAE@XZ$6
	DD	05H
	DD	FLAT:__unwindfunclet$??0CPythonEventManager@@QAE@XZ$7
	DD	05H
	DD	FLAT:__unwindfunclet$??0CPythonEventManager@@QAE@XZ$8
	DD	05H
	DD	FLAT:__unwindfunclet$??0CPythonEventManager@@QAE@XZ$9
	DD	05H
	DD	FLAT:__unwindfunclet$??0CPythonEventManager@@QAE@XZ$10
	DD	05H
	DD	FLAT:__unwindfunclet$??0CPythonEventManager@@QAE@XZ$11
	DD	05H
	DD	FLAT:__unwindfunclet$??0CPythonEventManager@@QAE@XZ$12
	DD	05H
	DD	FLAT:__unwindfunclet$??0CPythonEventManager@@QAE@XZ$13
	DD	05H
	DD	FLAT:__unwindfunclet$??0CPythonEventManager@@QAE@XZ$14
	DD	05H
	DD	FLAT:__unwindfunclet$??0CPythonEventManager@@QAE@XZ$15
	DD	05H
	DD	FLAT:__unwindfunclet$??0CPythonEventManager@@QAE@XZ$16
	DD	05H
	DD	FLAT:__unwindfunclet$??0CPythonEventManager@@QAE@XZ$17
	DD	05H
	DD	FLAT:__unwindfunclet$??0CPythonEventManager@@QAE@XZ$18
	DD	05H
	DD	FLAT:__unwindfunclet$??0CPythonEventManager@@QAE@XZ$19
	DD	05H
	DD	FLAT:__unwindfunclet$??0CPythonEventManager@@QAE@XZ$20
	DD	05H
	DD	FLAT:__unwindfunclet$??0CPythonEventManager@@QAE@XZ$21
	DD	05H
	DD	FLAT:__unwindfunclet$??0CPythonEventManager@@QAE@XZ$22
	DD	05H
	DD	FLAT:__unwindfunclet$??0CPythonEventManager@@QAE@XZ$23
	DD	05H
	DD	FLAT:__unwindfunclet$??0CPythonEventManager@@QAE@XZ$24
	DD	05H
	DD	FLAT:__unwindfunclet$??0CPythonEventManager@@QAE@XZ$25
	DD	05H
	DD	FLAT:__unwindfunclet$??0CPythonEventManager@@QAE@XZ$26
	DD	05H
	DD	FLAT:__unwindfunclet$??0CPythonEventManager@@QAE@XZ$27
	DD	05H
	DD	FLAT:__unwindfunclet$??0CPythonEventManager@@QAE@XZ$28
	DD	05H
	DD	FLAT:__unwindfunclet$??0CPythonEventManager@@QAE@XZ$29
	DD	05H
	DD	FLAT:__unwindfunclet$??0CPythonEventManager@@QAE@XZ$30
	DD	05H
	DD	FLAT:__unwindfunclet$??0CPythonEventManager@@QAE@XZ$31
	DD	05H
	DD	FLAT:__unwindfunclet$??0CPythonEventManager@@QAE@XZ$32
	DD	05H
	DD	FLAT:__unwindfunclet$??0CPythonEventManager@@QAE@XZ$33
	DD	05H
	DD	FLAT:__unwindfunclet$??0CPythonEventManager@@QAE@XZ$34
	DD	05H
	DD	FLAT:__unwindfunclet$??0CPythonEventManager@@QAE@XZ$35
	DD	05H
	DD	FLAT:__unwindfunclet$??0CPythonEventManager@@QAE@XZ$36
	DD	05H
	DD	FLAT:__unwindfunclet$??0CPythonEventManager@@QAE@XZ$37
	DD	05H
	DD	FLAT:__unwindfunclet$??0CPythonEventManager@@QAE@XZ$38
	DD	05H
	DD	FLAT:__unwindfunclet$??0CPythonEventManager@@QAE@XZ$39
	DD	05H
	DD	FLAT:__unwindfunclet$??0CPythonEventManager@@QAE@XZ$40
	DD	05H
	DD	FLAT:__unwindfunclet$??0CPythonEventManager@@QAE@XZ$41
	DD	05H
	DD	FLAT:__unwindfunclet$??0CPythonEventManager@@QAE@XZ$42
	DD	05H
	DD	FLAT:__unwindfunclet$??0CPythonEventManager@@QAE@XZ$43
	DD	05H
	DD	FLAT:__unwindfunclet$??0CPythonEventManager@@QAE@XZ$44
	DD	05H
	DD	FLAT:__unwindfunclet$??0CPythonEventManager@@QAE@XZ$45
	DD	05H
	DD	FLAT:__unwindfunclet$??0CPythonEventManager@@QAE@XZ$46
	DD	05H
	DD	FLAT:__unwindfunclet$??0CPythonEventManager@@QAE@XZ$47
xdata$x	ENDS
;	COMDAT xdata$x
xdata$x	SEGMENT
__ehfuncinfo$??0SCmd@script@@QAE@XZ DD 019930522H
	DD	01H
	DD	FLAT:__unwindtable$??0SCmd@script@@QAE@XZ
	DD	2 DUP(00H)
	DD	2 DUP(00H)
	DD	00H
	DD	01H
__unwindtable$??0SCmd@script@@QAE@XZ DD 0ffffffffH
	DD	FLAT:__unwindfunclet$??0SCmd@script@@QAE@XZ$0
xdata$x	ENDS
;	COMDAT xdata$x
xdata$x	SEGMENT
__ehfuncinfo$??0SEventSet@CPythonEventManager@@QAE@XZ DD 019930522H
	DD	02H
	DD	FLAT:__unwindtable$??0SEventSet@CPythonEventManager@@QAE@XZ
	DD	2 DUP(00H)
	DD	2 DUP(00H)
	DD	00H
	DD	01H
__unwindtable$??0SEventSet@CPythonEventManager@@QAE@XZ DD 0ffffffffH
	DD	FLAT:__unwindfunclet$??0SEventSet@CPythonEventManager@@QAE@XZ$0
	DD	00H
	DD	FLAT:__unwindfunclet$??0SEventSet@CPythonEventManager@@QAE@XZ$1
xdata$x	ENDS
;	COMDAT xdata$x
xdata$x	SEGMENT
__ehfuncinfo$?RegisterEventSet@CPythonEventManager@@QAEHPBD@Z DD 019930522H
	DD	02H
	DD	FLAT:__unwindtable$?RegisterEventSet@CPythonEventManager@@QAEHPBD@Z
	DD	2 DUP(00H)
	DD	2 DUP(00H)
	DD	00H
	DD	01H
__unwindtable$?RegisterEventSet@CPythonEventManager@@QAEHPBD@Z DD 0ffffffffH
	DD	FLAT:__unwindfunclet$?RegisterEventSet@CPythonEventManager@@QAEHPBD@Z$0
	DD	00H
	DD	FLAT:__unwindfunclet$?RegisterEventSet@CPythonEventManager@@QAEHPBD@Z$1
xdata$x	ENDS
;	COMDAT xdata$x
xdata$x	SEGMENT
__ehfuncinfo$?RegisterEventSetFromString@CPythonEventManager@@QAEHABV?$basic_string@DU?$char_traits@D@std@@V?$allocator@D@2@@std@@@Z DD 019930522H
	DD	02H
	DD	FLAT:__unwindtable$?RegisterEventSetFromString@CPythonEventManager@@QAEHABV?$basic_string@DU?$char_traits@D@std@@V?$allocator@D@2@@std@@@Z
	DD	2 DUP(00H)
	DD	2 DUP(00H)
	DD	00H
	DD	01H
__unwindtable$?RegisterEventSetFromString@CPythonEventManager@@QAEHABV?$basic_string@DU?$char_traits@D@std@@V?$allocator@D@2@@std@@@Z DD 0ffffffffH
	DD	FLAT:__unwindfunclet$?RegisterEventSetFromString@CPythonEventManager@@QAEHABV?$basic_string@DU?$char_traits@D@std@@V?$allocator@D@2@@std@@@Z$0
	DD	00H
	DD	FLAT:__unwindfunclet$?RegisterEventSetFromString@CPythonEventManager@@QAEHABV?$basic_string@DU?$char_traits@D@std@@V?$allocator@D@2@@std@@@Z$1
xdata$x	ENDS
;	COMDAT xdata$x
xdata$x	SEGMENT
__ehfuncinfo$?ProcessEventSet@CPythonEventManager@@IAEXPAUSEventSet@1@@Z DD 019930522H
	DD	01H
	DD	FLAT:__unwindtable$?ProcessEventSet@CPythonEventManager@@IAEXPAUSEventSet@1@@Z
	DD	2 DUP(00H)
	DD	2 DUP(00H)
	DD	00H
	DD	01H
__unwindtable$?ProcessEventSet@CPythonEventManager@@IAEXPAUSEventSet@1@@Z DD 0ffffffffH
	DD	FLAT:__unwindfunclet$?ProcessEventSet@CPythonEventManager@@IAEXPAUSEventSet@1@@Z$0
xdata$x	ENDS
;	COMDAT xdata$x
xdata$x	SEGMENT
__ehfuncinfo$?__InsertLine@CPythonEventManager@@IAEXAAUSEventSet@1@HH@Z DD 019930522H
	DD	02H
	DD	FLAT:__unwindtable$?__InsertLine@CPythonEventManager@@IAEXAAUSEventSet@1@HH@Z
	DD	2 DUP(00H)
	DD	2 DUP(00H)
	DD	00H
	DD	01H
__unwindtable$?__InsertLine@CPythonEventManager@@IAEXAAUSEventSet@1@HH@Z DD 0ffffffffH
	DD	FLAT:__unwindfunclet$?__InsertLine@CPythonEventManager@@IAEXAAUSEventSet@1@HH@Z$1
	DD	0ffffffffH
	DD	FLAT:__unwindfunclet$?__InsertLine@CPythonEventManager@@IAEXAAUSEventSet@1@HH@Z$3
xdata$x	ENDS
;	COMDAT xdata$x
xdata$x	SEGMENT
__ehfuncinfo$?Alloc@?$CDynamicPool@VCGraphicTextInstance@@@@QAEPAVCGraphicTextInstance@@XZ DD 019930522H
	DD	01H
	DD	FLAT:__unwindtable$?Alloc@?$CDynamicPool@VCGraphicTextInstance@@@@QAEPAVCGraphicTextInstance@@XZ
	DD	2 DUP(00H)
	DD	2 DUP(00H)
	DD	00H
	DD	01H
__unwindtable$?Alloc@?$CDynamicPool@VCGraphicTextInstance@@@@QAEPAVCGraphicTextInstance@@XZ DD 0ffffffffH
	DD	FLAT:__unwindfunclet$?Alloc@?$CDynamicPool@VCGraphicTextInstance@@@@QAEPAVCGraphicTextInstance@@XZ$0
xdata$x	ENDS
;	COMDAT xdata$x
xdata$x	SEGMENT
__ehfuncinfo$?Alloc@?$CDynamicPool@USEventSet@CPythonEventManager@@@@QAEPAUSEventSet@CPythonEventManager@@XZ DD 019930522H
	DD	03H
	DD	FLAT:__unwindtable$?Alloc@?$CDynamicPool@USEventSet@CPythonEventManager@@@@QAEPAUSEventSet@CPythonEventManager@@XZ
	DD	2 DUP(00H)
	DD	2 DUP(00H)
	DD	00H
	DD	01H
__unwindtable$?Alloc@?$CDynamicPool@USEventSet@CPythonEventManager@@@@QAEPAUSEventSet@CPythonEventManager@@XZ DD 0ffffffffH
	DD	FLAT:__unwindfunclet$?Alloc@?$CDynamicPool@USEventSet@CPythonEventManager@@@@QAEPAUSEventSet@CPythonEventManager@@XZ$0
	DD	00H
	DD	FLAT:__unwindfunclet$?Alloc@?$CDynamicPool@USEventSet@CPythonEventManager@@@@QAEPAUSEventSet@CPythonEventManager@@XZ$1
	DD	01H
	DD	FLAT:__unwindfunclet$?Alloc@?$CDynamicPool@USEventSet@CPythonEventManager@@@@QAEPAUSEventSet@CPythonEventManager@@XZ$2
xdata$x	ENDS
;	COMDAT xdata$x
xdata$x	SEGMENT
__ehfuncinfo$?push_back@?$list@USTextLine@CPythonEventManager@@V?$allocator@USTextLine@CPythonEventManager@@@std@@@std@@QAEXABUSTextLine@CPythonEventManager@@@Z DD 019930522H
	DD	01H
	DD	FLAT:__unwindtable$?push_back@?$list@USTextLine@CPythonEventManager@@V?$allocator@USTextLine@CPythonEventManager@@@std@@@std@@QAEXABUSTextLine@CPythonEventManager@@@Z
	DD	2 DUP(00H)
	DD	2 DUP(00H)
	DD	00H
	DD	01H
__unwindtable$?push_back@?$list@USTextLine@CPythonEventManager@@V?$allocator@USTextLine@CPythonEventManager@@@std@@@std@@QAEXABUSTextLine@CPythonEventManager@@@Z DD 0ffffffffH
	DD	FLAT:__unwindfunclet$?push_back@?$list@USTextLine@CPythonEventManager@@V?$allocator@USTextLine@CPythonEventManager@@@std@@@std@@QAEXABUSTextLine@CPythonEventManager@@@Z$1
xdata$x	ENDS
;	COMDAT xdata$x
xdata$x	SEGMENT
__ehfuncinfo$??A?$map@V?$basic_string@DU?$char_traits@D@std@@V?$allocator@D@2@@std@@HU?$less@V?$basic_string@DU?$char_traits@D@std@@V?$allocator@D@2@@std@@@2@V?$allocator@U?$pair@$$CBV?$basic_string@DU?$char_traits@D@std@@V?$allocator@D@2@@std@@H@std@@@2@@std@@QAEAAH$$QAV?$basic_string@DU?$char_traits@D@std@@V?$allocator@D@2@@1@@Z DD 019930522H
	DD	01H
	DD	FLAT:__unwindtable$??A?$map@V?$basic_string@DU?$char_traits@D@std@@V?$allocator@D@2@@std@@HU?$less@V?$basic_string@DU?$char_traits@D@std@@V?$allocator@D@2@@std@@@2@V?$allocator@U?$pair@$$CBV?$basic_string@DU?$char_traits@D@std@@V?$allocator@D@2@@std@@H@std@@@2@@std@@QAEAAH$$QAV?$basic_string@DU?$char_traits@D@std@@V?$allocator@D@2@@1@@Z
	DD	2 DUP(00H)
	DD	2 DUP(00H)
	DD	00H
	DD	01H
__unwindtable$??A?$map@V?$basic_string@DU?$char_traits@D@std@@V?$allocator@D@2@@std@@HU?$less@V?$basic_string@DU?$char_traits@D@std@@V?$allocator@D@2@@std@@@2@V?$allocator@U?$pair@$$CBV?$basic_string@DU?$char_traits@D@std@@V?$allocator@D@2@@std@@H@std@@@2@@std@@QAEAAH$$QAV?$basic_string@DU?$char_traits@D@std@@V?$allocator@D@2@@1@@Z DD 0ffffffffH
	DD	FLAT:__unwindfunclet$??A?$map@V?$basic_string@DU?$char_traits@D@std@@V?$allocator@D@2@@std@@HU?$less@V?$basic_string@DU?$char_traits@D@std@@V?$allocator@D@2@@std@@@2@V?$allocator@U?$pair@$$CBV?$basic_string@DU?$char_traits@D@std@@V?$allocator@D@2@@std@@H@std@@@2@@std@@QAEAAH$$QAV?$basic_string@DU?$char_traits@D@std@@V?$allocator@D@2@@1@@Z$2
xdata$x	ENDS
;	COMDAT xdata$x
xdata$x	SEGMENT
__ehfuncinfo$??$_Emplace@ABUSTextLine@CPythonEventManager@@@?$list@USTextLine@CPythonEventManager@@V?$allocator@USTextLine@CPythonEventManager@@@std@@@std@@QAEPAU?$_List_node@USTextLine@CPythonEventManager@@PAX@1@QAU21@ABUSTextLine@CPythonEventManager@@@Z DD 019930522H
	DD	01H
	DD	FLAT:__unwindtable$??$_Emplace@ABUSTextLine@CPythonEventManager@@@?$list@USTextLine@CPythonEventManager@@V?$allocator@USTextLine@CPythonEventManager@@@std@@@std@@QAEPAU?$_List_node@USTextLine@CPythonEventManager@@PAX@1@QAU21@ABUSTextLine@CPythonEventManager@@@Z
	DD	2 DUP(00H)
	DD	2 DUP(00H)
	DD	00H
	DD	01H
__unwindtable$??$_Emplace@ABUSTextLine@CPythonEventManager@@@?$list@USTextLine@CPythonEventManager@@V?$allocator@USTextLine@CPythonEventManager@@@std@@@std@@QAEPAU?$_List_node@USTextLine@CPythonEventManager@@PAX@1@QAU21@ABUSTextLine@CPythonEventManager@@@Z DD 0ffffffffH
	DD	FLAT:__unwindfunclet$??$_Emplace@ABUSTextLine@CPythonEventManager@@@?$list@USTextLine@CPythonEventManager@@V?$allocator@USTextLine@CPythonEventManager@@@std@@@std@@QAEPAU?$_List_node@USTextLine@CPythonEventManager@@PAX@1@QAU21@ABUSTextLine@CPythonEventManager@@@Z$1
xdata$x	ENDS
;	COMDAT xdata$x
xdata$x	SEGMENT
__ehfuncinfo$??$_Try_emplace@V?$basic_string@DU?$char_traits@D@std@@V?$allocator@D@2@@std@@$$V@?$map@V?$basic_string@DU?$char_traits@D@std@@V?$allocator@D@2@@std@@HU?$less@V?$basic_string@DU?$char_traits@D@std@@V?$allocator@D@2@@std@@@2@V?$allocator@U?$pair@$$CBV?$basic_string@DU?$char_traits@D@std@@V?$allocator@D@2@@std@@H@std@@@2@@std@@AAE?AU?$pair@PAU?$_Tree_node@U?$pair@$$CBV?$basic_string@DU?$char_traits@D@std@@V?$allocator@D@2@@std@@H@std@@PAX@std@@_N@1@$$QAV?$basic_string@DU?$char_traits@D@std@@V?$allocator@D@2@@1@@Z DD 019930522H
	DD	01H
	DD	FLAT:__unwindtable$??$_Try_emplace@V?$basic_string@DU?$char_traits@D@std@@V?$allocator@D@2@@std@@$$V@?$map@V?$basic_string@DU?$char_traits@D@std@@V?$allocator@D@2@@std@@HU?$less@V?$basic_string@DU?$char_traits@D@std@@V?$allocator@D@2@@std@@@2@V?$allocator@U?$pair@$$CBV?$basic_string@DU?$char_traits@D@std@@V?$allocator@D@2@@std@@H@std@@@2@@std@@AAE?AU?$pair@PAU?$_Tree_node@U?$pair@$$CBV?$basic_string@DU?$char_traits@D@std@@V?$allocator@D@2@@std@@H@std@@PAX@std@@_N@1@$$QAV?$basic_string@DU?$char_traits@D@std@@V?$allocator@D@2@@1@@Z
	DD	2 DUP(00H)
	DD	2 DUP(00H)
	DD	00H
	DD	01H
__unwindtable$??$_Try_emplace@V?$basic_string@DU?$char_traits@D@std@@V?$allocator@D@2@@std@@$$V@?$map@V?$basic_string@DU?$char_traits@D@std@@V?$allocator@D@2@@std@@HU?$less@V?$basic_string@DU?$char_traits@D@std@@V?$allocator@D@2@@std@@@2@V?$allocator@U?$pair@$$CBV?$basic_string@DU?$char_traits@D@std@@V?$allocator@D@2@@std@@H@std@@@2@@std@@AAE?AU?$pair@PAU?$_Tree_node@U?$pair@$$CBV?$basic_string@DU?$char_traits@D@std@@V?$allocator@D@2@@std@@H@std@@PAX@std@@_N@1@$$QAV?$basic_string@DU?$char_traits@D@std@@V?$allocator@D@2@@1@@Z DD 0ffffffffH
	DD	FLAT:__unwindfunclet$??$_Try_emplace@V?$basic_string@DU?$char_traits@D@std@@V?$allocator@D@2@@std@@$$V@?$map@V?$basic_string@DU?$char_traits@D@std@@V?$allocator@D@2@@std@@HU?$less@V?$basic_string@DU?$char_traits@D@std@@V?$allocator@D@2@@std@@@2@V?$allocator@U?$pair@$$CBV?$basic_string@DU?$char_traits@D@std@@V?$allocator@D@2@@std@@H@std@@@2@@std@@AAE?AU?$pair@PAU?$_Tree_node@U?$pair@$$CBV?$basic_string@DU?$char_traits@D@std@@V?$allocator@D@2@@std@@H@std@@PAX@std@@_N@1@$$QAV?$basic_string@DU?$char_traits@D@std@@V?$allocator@D@2@@1@@Z$2
xdata$x	ENDS
;	COMDAT xdata$x
xdata$x	SEGMENT
__ehfuncinfo$??$?0ABUSTextLine@CPythonEventManager@@@?$_List_node_emplace_op2@V?$allocator@U?$_List_node@USTextLine@CPythonEventManager@@PAX@std@@@std@@@std@@QAE@AAV?$allocator@U?$_List_node@USTextLine@CPythonEventManager@@PAX@std@@@1@ABUSTextLine@CPythonEventManager@@@Z DD 019930522H
	DD	01H
	DD	FLAT:__unwindtable$??$?0ABUSTextLine@CPythonEventManager@@@?$_List_node_emplace_op2@V?$allocator@U?$_List_node@USTextLine@CPythonEventManager@@PAX@std@@@std@@@std@@QAE@AAV?$allocator@U?$_List_node@USTextLine@CPythonEventManager@@PAX@std@@@1@ABUSTextLine@CPythonEventManager@@@Z
	DD	2 DUP(00H)
	DD	2 DUP(00H)
	DD	00H
	DD	01H
__unwindtable$??$?0ABUSTextLine@CPythonEventManager@@@?$_List_node_emplace_op2@V?$allocator@U?$_List_node@USTextLine@CPythonEventManager@@PAX@std@@@std@@@std@@QAE@AAV?$allocator@U?$_List_node@USTextLine@CPythonEventManager@@PAX@std@@@1@ABUSTextLine@CPythonEventManager@@@Z DD 0ffffffffH
	DD	FLAT:__unwindfunclet$??$?0ABUSTextLine@CPythonEventManager@@@?$_List_node_emplace_op2@V?$allocator@U?$_List_node@USTextLine@CPythonEventManager@@PAX@std@@@std@@@std@@QAE@AAV?$allocator@U?$_List_node@USTextLine@CPythonEventManager@@PAX@std@@@1@ABUSTextLine@CPythonEventManager@@@Z$0
xdata$x	ENDS
;	COMDAT xdata$x
xdata$x	SEGMENT
__ehfuncinfo$??$?0ABUpiecewise_construct_t@std@@V?$tuple@$$QAV?$basic_string@DU?$char_traits@D@std@@V?$allocator@D@2@@std@@@1@V?$tuple@$$V@1@@?$_Tree_temp_node@V?$allocator@U?$_Tree_node@U?$pair@$$CBV?$basic_string@DU?$char_traits@D@std@@V?$allocator@D@2@@std@@H@std@@PAX@std@@@std@@@std@@QAE@AAV?$allocator@U?$_Tree_node@U?$pair@$$CBV?$basic_string@DU?$char_traits@D@std@@V?$allocator@D@2@@std@@H@std@@PAX@std@@@1@PAU?$_Tree_node@U?$pair@$$CBV?$basic_string@DU?$char_traits@D@std@@V?$allocator@D@2@@std@@H@std@@PAX@1@ABUpiecewise_construct_t@1@$$QAV?$tuple@$$QAV?$basic_string@DU?$char_traits@D@std@@V?$allocator@D@2@@std@@@1@$$QAV?$tuple@$$V@1@@Z DD 019930522H
	DD	01H
	DD	FLAT:__unwindtable$??$?0ABUpiecewise_construct_t@std@@V?$tuple@$$QAV?$basic_string@DU?$char_traits@D@std@@V?$allocator@D@2@@std@@@1@V?$tuple@$$V@1@@?$_Tree_temp_node@V?$allocator@U?$_Tree_node@U?$pair@$$CBV?$basic_string@DU?$char_traits@D@std@@V?$allocator@D@2@@std@@H@std@@PAX@std@@@std@@@std@@QAE@AAV?$allocator@U?$_Tree_node@U?$pair@$$CBV?$basic_string@DU?$char_traits@D@std@@V?$allocator@D@2@@std@@H@std@@PAX@std@@@1@PAU?$_Tree_node@U?$pair@$$CBV?$basic_string@DU?$char_traits@D@std@@V?$allocator@D@2@@std@@H@std@@PAX@1@ABUpiecewise_construct_t@1@$$QAV?$tuple@$$QAV?$basic_string@DU?$char_traits@D@std@@V?$allocator@D@2@@std@@@1@$$QAV?$tuple@$$V@1@@Z
	DD	2 DUP(00H)
	DD	2 DUP(00H)
	DD	00H
	DD	01H
__unwindtable$??$?0ABUpiecewise_construct_t@std@@V?$tuple@$$QAV?$basic_string@DU?$char_traits@D@std@@V?$allocator@D@2@@std@@@1@V?$tuple@$$V@1@@?$_Tree_temp_node@V?$allocator@U?$_Tree_node@U?$pair@$$CBV?$basic_string@DU?$char_traits@D@std@@V?$allocator@D@2@@std@@H@std@@PAX@std@@@std@@@std@@QAE@AAV?$allocator@U?$_Tree_node@U?$pair@$$CBV?$basic_string@DU?$char_traits@D@std@@V?$allocator@D@2@@std@@H@std@@PAX@std@@@1@PAU?$_Tree_node@U?$pair@$$CBV?$basic_string@DU?$char_traits@D@std@@V?$allocator@D@2@@std@@H@std@@PAX@1@ABUpiecewise_construct_t@1@$$QAV?$tuple@$$QAV?$basic_string@DU?$char_traits@D@std@@V?$allocator@D@2@@std@@@1@$$QAV?$tuple@$$V@1@@Z DD 0ffffffffH
	DD	FLAT:__unwindfunclet$??$?0ABUpiecewise_construct_t@std@@V?$tuple@$$QAV?$basic_string@DU?$char_traits@D@std@@V?$allocator@D@2@@std@@@1@V?$tuple@$$V@1@@?$_Tree_temp_node@V?$allocator@U?$_Tree_node@U?$pair@$$CBV?$basic_string@DU?$char_traits@D@std@@V?$allocator@D@2@@std@@H@std@@PAX@std@@@std@@@std@@QAE@AAV?$allocator@U?$_Tree_node@U?$pair@$$CBV?$basic_string@DU?$char_traits@D@std@@V?$allocator@D@2@@std@@H@std@@PAX@std@@@1@PAU?$_Tree_node@U?$pair@$$CBV?$basic_string@DU?$char_traits@D@std@@V?$allocator@D@2@@std@@H@std@@PAX@1@ABUpiecewise_construct_t@1@$$QAV?$tuple@$$QAV?$basic_string@DU?$char_traits@D@std@@V?$allocator@D@2@@std@@@1@$$QAV?$tuple@$$V@1@@Z$1
xdata$x	ENDS
;	COMDAT xdata$x
xdata$x	SEGMENT
__ehfuncinfo$??0?$_Tree_temp_node_alloc@V?$allocator@U?$_Tree_node@U?$pair@$$CBV?$basic_string@DU?$char_traits@D@std@@V?$allocator@D@2@@std@@H@std@@PAX@std@@@std@@@std@@QAE@AAV?$allocator@U?$_Tree_node@U?$pair@$$CBV?$basic_string@DU?$char_traits@D@std@@V?$allocator@D@2@@std@@H@std@@PAX@std@@@1@@Z DD 019930522H
	DD	01H
	DD	FLAT:__unwindtable$??0?$_Tree_temp_node_alloc@V?$allocator@U?$_Tree_node@U?$pair@$$CBV?$basic_string@DU?$char_traits@D@std@@V?$allocator@D@2@@std@@H@std@@PAX@std@@@std@@@std@@QAE@AAV?$allocator@U?$_Tree_node@U?$pair@$$CBV?$basic_string@DU?$char_traits@D@std@@V?$allocator@D@2@@std@@H@std@@PAX@std@@@1@@Z
	DD	2 DUP(00H)
	DD	2 DUP(00H)
	DD	00H
	DD	01H
__unwindtable$??0?$_Tree_temp_node_alloc@V?$allocator@U?$_Tree_node@U?$pair@$$CBV?$basic_string@DU?$char_traits@D@std@@V?$allocator@D@2@@std@@H@std@@PAX@std@@@std@@@std@@QAE@AAV?$allocator@U?$_Tree_node@U?$pair@$$CBV?$basic_string@DU?$char_traits@D@std@@V?$allocator@D@2@@std@@H@std@@PAX@std@@@1@@Z DD 0ffffffffH
	DD	FLAT:__unwindfunclet$??0?$_Tree_temp_node_alloc@V?$allocator@U?$_Tree_node@U?$pair@$$CBV?$basic_string@DU?$char_traits@D@std@@V?$allocator@D@2@@std@@H@std@@PAX@std@@@std@@@std@@QAE@AAV?$allocator@U?$_Tree_node@U?$pair@$$CBV?$basic_string@DU?$char_traits@D@std@@V?$allocator@D@2@@std@@H@std@@PAX@std@@@1@@Z$0
; Function compile flags: /Ogtp
; File E:\Metin2_server\SolWayneSF v6\ClientVS22\source\UserInterface\PythonEventManager.cpp
; File C:\Program Files\Microsoft Visual Studio\2022\Community\VC\Tools\MSVC\14.34.31933\include\vector
; File E:\Metin2_server\SolWayneSF v6\ClientVS22\source\eterLib\Pool.h
; File C:\Program Files\Microsoft Visual Studio\2022\Community\VC\Tools\MSVC\14.34.31933\include\vector
; File E:\Metin2_server\SolWayneSF v6\ClientVS22\source\eterLib\Pool.h
; File C:\Program Files\Microsoft Visual Studio\2022\Community\VC\Tools\MSVC\14.34.31933\include\vector
; File E:\Metin2_server\SolWayneSF v6\ClientVS22\source\UserInterface\PythonEventManager.cpp
;	COMDAT ?Destroy@CPythonEventManager@@QAEXXZ
_TEXT	SEGMENT
?Destroy@CPythonEventManager@@QAEXXZ PROC		; CPythonEventManager::Destroy, COMDAT
; _this$ = ecx

; 1134 : {

  00000	56		 push	 esi
  00001	8b f1		 mov	 esi, ecx
; File C:\Program Files\Microsoft Visual Studio\2022\Community\VC\Tools\MSVC\14.34.31933\include\vector

; 1829 :         if (_Myfirst == _Mylast) { // already empty, nothing to do

  00003	8b 46 0c	 mov	 eax, DWORD PTR [esi+12]
  00006	3b 46 10	 cmp	 eax, DWORD PTR [esi+16]
  00009	74 03		 je	 SHORT $LN3@Destroy

; 1830 :             // This is an optimization for debug mode: we can avoid taking the debug lock to invalidate iterators.
; 1831 :             // Note that when clearing an empty vector, this will preserve past-the-end iterators, which is allowed by
; 1832 :             // N4901 [tab:container.seq.req] "a.clear() [...] may invalidate the past-the-end iterator".
; 1833 :             return;
; 1834 :         }
; 1835 : 
; 1836 :         _My_data._Orphan_all();
; 1837 :         _Destroy_range(_Myfirst, _Mylast, _Getal());
; 1838 :         _ASAN_VECTOR_MODIFY(static_cast<difference_type>(_Myfirst - _Mylast)); // negative when destroying elements
; 1839 :         _Mylast = _Myfirst;

  0000b	89 46 10	 mov	 DWORD PTR [esi+16], eax
$LN3@Destroy:
  0000e	53		 push	 ebx
; File E:\Metin2_server\SolWayneSF v6\ClientVS22\source\eterLib\Pool.h

; 50   : 			for (auto v : m_kVct_pkData)

  0000f	8b 5e 24	 mov	 ebx, DWORD PTR [esi+36]
  00012	57		 push	 edi
  00013	8b 7e 20	 mov	 edi, DWORD PTR [esi+32]
  00016	3b fb		 cmp	 edi, ebx
  00018	74 19		 je	 SHORT $LN10@Destroy
  0001a	66 0f 1f 44 00
	00		 npad	 6
$LL11@Destroy:

; 111  : 			delete pkData;

  00020	8b 0f		 mov	 ecx, DWORD PTR [edi]
  00022	85 c9		 test	 ecx, ecx
  00024	74 06		 je	 SHORT $LN9@Destroy
  00026	8b 01		 mov	 eax, DWORD PTR [ecx]
  00028	6a 01		 push	 1
  0002a	ff 10		 call	 DWORD PTR [eax]
$LN9@Destroy:

; 50   : 			for (auto v : m_kVct_pkData)

  0002c	83 c7 04	 add	 edi, 4
  0002f	3b fb		 cmp	 edi, ebx
  00031	75 ed		 jne	 SHORT $LL11@Destroy
$LN10@Destroy:
; File C:\Program Files\Microsoft Visual Studio\2022\Community\VC\Tools\MSVC\14.34.31933\include\vector

; 1829 :         if (_Myfirst == _Mylast) { // already empty, nothing to do

  00033	8b 46 20	 mov	 eax, DWORD PTR [esi+32]
  00036	3b 46 24	 cmp	 eax, DWORD PTR [esi+36]
  00039	74 03		 je	 SHORT $LN17@Destroy

; 1830 :             // This is an optimization for debug mode: we can avoid taking the debug lock to invalidate iterators.
; 1831 :             // Note that when clearing an empty vector, this will preserve past-the-end iterators, which is allowed by
; 1832 :             // N4901 [tab:container.seq.req] "a.clear() [...] may invalidate the past-the-end iterator".
; 1833 :             return;
; 1834 :         }
; 1835 : 
; 1836 :         _My_data._Orphan_all();
; 1837 :         _Destroy_range(_Myfirst, _Mylast, _Getal());
; 1838 :         _ASAN_VECTOR_MODIFY(static_cast<difference_type>(_Myfirst - _Mylast)); // negative when destroying elements
; 1839 :         _Mylast = _Myfirst;

  0003b	89 46 24	 mov	 DWORD PTR [esi+36], eax
$LN17@Destroy:

; 1829 :         if (_Myfirst == _Mylast) { // already empty, nothing to do

  0003e	8b 46 2c	 mov	 eax, DWORD PTR [esi+44]
  00041	3b 46 30	 cmp	 eax, DWORD PTR [esi+48]
  00044	74 03		 je	 SHORT $LN20@Destroy

; 1830 :             // This is an optimization for debug mode: we can avoid taking the debug lock to invalidate iterators.
; 1831 :             // Note that when clearing an empty vector, this will preserve past-the-end iterators, which is allowed by
; 1832 :             // N4901 [tab:container.seq.req] "a.clear() [...] may invalidate the past-the-end iterator".
; 1833 :             return;
; 1834 :         }
; 1835 : 
; 1836 :         _My_data._Orphan_all();
; 1837 :         _Destroy_range(_Myfirst, _Mylast, _Getal());
; 1838 :         _ASAN_VECTOR_MODIFY(static_cast<difference_type>(_Myfirst - _Mylast)); // negative when destroying elements
; 1839 :         _Mylast = _Myfirst;

  00046	89 46 30	 mov	 DWORD PTR [esi+48], eax
$LN20@Destroy:
; File E:\Metin2_server\SolWayneSF v6\ClientVS22\source\eterLib\Pool.h

; 50   : 			for (auto v : m_kVct_pkData)

  00049	8b 5e 48	 mov	 ebx, DWORD PTR [esi+72]
  0004c	8b 7e 44	 mov	 edi, DWORD PTR [esi+68]
  0004f	3b fb		 cmp	 edi, ebx
  00051	74 13		 je	 SHORT $LN27@Destroy
$LL28@Destroy:

; 111  : 			delete pkData;

  00053	8b 0f		 mov	 ecx, DWORD PTR [edi]
  00055	85 c9		 test	 ecx, ecx
  00057	74 06		 je	 SHORT $LN26@Destroy
  00059	8b 01		 mov	 eax, DWORD PTR [ecx]
  0005b	6a 01		 push	 1
  0005d	ff 10		 call	 DWORD PTR [eax]
$LN26@Destroy:

; 50   : 			for (auto v : m_kVct_pkData)

  0005f	83 c7 04	 add	 edi, 4
  00062	3b fb		 cmp	 edi, ebx
  00064	75 ed		 jne	 SHORT $LL28@Destroy
$LN27@Destroy:
; File C:\Program Files\Microsoft Visual Studio\2022\Community\VC\Tools\MSVC\14.34.31933\include\vector

; 1829 :         if (_Myfirst == _Mylast) { // already empty, nothing to do

  00066	8b 46 44	 mov	 eax, DWORD PTR [esi+68]
  00069	5f		 pop	 edi
  0006a	5b		 pop	 ebx
  0006b	3b 46 48	 cmp	 eax, DWORD PTR [esi+72]
  0006e	74 03		 je	 SHORT $LN34@Destroy

; 1830 :             // This is an optimization for debug mode: we can avoid taking the debug lock to invalidate iterators.
; 1831 :             // Note that when clearing an empty vector, this will preserve past-the-end iterators, which is allowed by
; 1832 :             // N4901 [tab:container.seq.req] "a.clear() [...] may invalidate the past-the-end iterator".
; 1833 :             return;
; 1834 :         }
; 1835 : 
; 1836 :         _My_data._Orphan_all();
; 1837 :         _Destroy_range(_Myfirst, _Mylast, _Getal());
; 1838 :         _ASAN_VECTOR_MODIFY(static_cast<difference_type>(_Myfirst - _Mylast)); // negative when destroying elements
; 1839 :         _Mylast = _Myfirst;

  00070	89 46 48	 mov	 DWORD PTR [esi+72], eax
$LN34@Destroy:

; 1829 :         if (_Myfirst == _Mylast) { // already empty, nothing to do

  00073	8b 46 50	 mov	 eax, DWORD PTR [esi+80]
  00076	3b 46 54	 cmp	 eax, DWORD PTR [esi+84]
  00079	74 03		 je	 SHORT $LN37@Destroy

; 1830 :             // This is an optimization for debug mode: we can avoid taking the debug lock to invalidate iterators.
; 1831 :             // Note that when clearing an empty vector, this will preserve past-the-end iterators, which is allowed by
; 1832 :             // N4901 [tab:container.seq.req] "a.clear() [...] may invalidate the past-the-end iterator".
; 1833 :             return;
; 1834 :         }
; 1835 : 
; 1836 :         _My_data._Orphan_all();
; 1837 :         _Destroy_range(_Myfirst, _Mylast, _Getal());
; 1838 :         _ASAN_VECTOR_MODIFY(static_cast<difference_type>(_Myfirst - _Mylast)); // negative when destroying elements
; 1839 :         _Mylast = _Myfirst;

  0007b	89 46 54	 mov	 DWORD PTR [esi+84], eax
$LN37@Destroy:
  0007e	5e		 pop	 esi
; File E:\Metin2_server\SolWayneSF v6\ClientVS22\source\UserInterface\PythonEventManager.cpp

; 1138 : }

  0007f	c3		 ret	 0
?Destroy@CPythonEventManager@@QAEXXZ ENDP		; CPythonEventManager::Destroy
_TEXT	ENDS
; Function compile flags: /Ogtp
; File E:\Metin2_server\SolWayneSF v6\ClientVS22\source\UserInterface\PythonEventManager.cpp
; File C:\Program Files\Microsoft Visual Studio\2022\Community\VC\Tools\MSVC\14.34.31933\include\xstring
; File C:\Program Files\Microsoft Visual Studio\2022\Community\VC\Tools\MSVC\14.34.31933\include\xmemory
; File C:\Program Files\Microsoft Visual Studio\2022\Community\VC\Tools\MSVC\14.34.31933\include\xstring
; File C:\Program Files\Microsoft Visual Studio\2022\Community\VC\Tools\MSVC\14.34.31933\include\xmemory
; File C:\Program Files\Microsoft Visual Studio\2022\Community\VC\Tools\MSVC\14.34.31933\include\xstring
; File E:\Metin2_server\SolWayneSF v6\ClientVS22\source\eterLib\Pool.h
; File C:\Program Files\Microsoft Visual Studio\2022\Community\VC\Tools\MSVC\14.34.31933\include\xstring
; File E:\Metin2_server\SolWayneSF v6\ClientVS22\source\eterLib\Pool.h
; File E:\Metin2_server\SolWayneSF v6\ClientVS22\source\UserInterface\PythonEventManager.cpp
; File C:\Program Files\Microsoft Visual Studio\2022\Community\VC\Tools\MSVC\14.34.31933\include\xtree
; File E:\Metin2_server\SolWayneSF v6\ClientVS22\source\UserInterface\PythonEventManager.cpp
; File C:\Program Files\Microsoft Visual Studio\2022\Community\VC\Tools\MSVC\14.34.31933\include\xtree
; File C:\Program Files\Microsoft Visual Studio\2022\Community\VC\Tools\MSVC\14.34.31933\include\xmemory
; File E:\Metin2_server\SolWayneSF v6\ClientVS22\source\eterBase\Singleton.h
; File E:\Metin2_server\SolWayneSF v6\ClientVS22\source\UserInterface\PythonEventManager.cpp
; File C:\Program Files\Microsoft Visual Studio\2022\Community\VC\Tools\MSVC\14.34.31933\include\xmemory
; File E:\Metin2_server\SolWayneSF v6\ClientVS22\source\UserInterface\PythonEventManager.cpp
;	COMDAT ??1CPythonEventManager@@UAE@XZ
_TEXT	SEGMENT
??1CPythonEventManager@@UAE@XZ PROC			; CPythonEventManager::~CPythonEventManager, COMDAT
; _this$ = ecx

; 1212 : {

  00000	56		 push	 esi
  00001	57		 push	 edi
  00002	8b f9		 mov	 edi, ecx
  00004	c7 07 00 00 00
	00		 mov	 DWORD PTR [edi], OFFSET ??_7CPythonEventManager@@6B@
; File C:\Program Files\Microsoft Visual Studio\2022\Community\VC\Tools\MSVC\14.34.31933\include\xstring

; 2301 :         return _BUF_SIZE <= _Myres;

  0000a	8b 4f 7c	 mov	 ecx, DWORD PTR [edi+124]
  0000d	83 f9 10	 cmp	 ecx, 16			; 00000010H

; 5008 :         if (_My_data._Large_string_engaged()) {

  00010	72 2c		 jb	 SHORT $LN15@CPythonEve
; File C:\Program Files\Microsoft Visual Studio\2022\Community\VC\Tools\MSVC\14.34.31933\include\xmemory

; 830  :         _Deallocate<_New_alignof<_Ty>>(_Ptr, sizeof(_Ty) * _Count);

  00012	8b 47 68	 mov	 eax, DWORD PTR [edi+104]
; File C:\Program Files\Microsoft Visual Studio\2022\Community\VC\Tools\MSVC\14.34.31933\include\xstring

; 5013 :             _Al.deallocate(_Ptr, _My_data._Myres + 1);

  00015	41		 inc	 ecx
; File C:\Program Files\Microsoft Visual Studio\2022\Community\VC\Tools\MSVC\14.34.31933\include\xmemory

; 251  :         if (_Bytes >= _Big_allocation_threshold) { // boost the alignment of big allocations to help autovectorization

  00016	81 f9 00 10 00
	00		 cmp	 ecx, 4096		; 00001000H
  0001c	72 16		 jb	 SHORT $LN27@CPythonEve

; 150  :     const uintptr_t _Ptr_container   = _Ptr_user[-1];

  0001e	8b 50 fc	 mov	 edx, DWORD PTR [eax-4]
  00021	83 c1 23	 add	 ecx, 35			; 00000023H

; 151  : 
; 152  :     // If the following asserts, it likely means that we are performing
; 153  :     // an aligned delete on memory coming from an unaligned allocation.
; 154  :     _STL_ASSERT(_Ptr_user[-2] == _Big_allocation_sentinel, "invalid argument");
; 155  : 
; 156  :     // Extra paranoia on aligned allocation/deallocation; ensure _Ptr_container is
; 157  :     // in range [_Min_back_shift, _Non_user_size]
; 158  : #ifdef _DEBUG
; 159  :     constexpr uintptr_t _Min_back_shift = 2 * sizeof(void*);
; 160  : #else // ^^^ _DEBUG ^^^ // vvv !_DEBUG vvv
; 161  :     constexpr uintptr_t _Min_back_shift = sizeof(void*);
; 162  : #endif // _DEBUG
; 163  :     const uintptr_t _Back_shift = reinterpret_cast<uintptr_t>(_Ptr) - _Ptr_container;

  00024	2b c2		 sub	 eax, edx

; 164  :     _STL_VERIFY(_Back_shift >= _Min_back_shift && _Back_shift <= _Non_user_size, "invalid argument");

  00026	83 c0 fc	 add	 eax, -4			; fffffffcH
  00029	83 f8 1f	 cmp	 eax, 31			; 0000001fH
  0002c	0f 87 84 00 00
	00		 ja	 $LN24@CPythonEve

; 165  :     _Ptr = reinterpret_cast<void*>(_Ptr_container);

  00032	8b c2		 mov	 eax, edx
$LN27@CPythonEve:

; 255  :         ::operator delete(_Ptr, _Bytes);

  00034	51		 push	 ecx
  00035	50		 push	 eax
  00036	e8 00 00 00 00	 call	 ??3@YAXPAXI@Z		; operator delete
  0003b	83 c4 08	 add	 esp, 8
$LN15@CPythonEve:
; File C:\Program Files\Microsoft Visual Studio\2022\Community\VC\Tools\MSVC\14.34.31933\include\xstring

; 5016 :         _My_data._Mysize = 0;

  0003e	c7 47 78 00 00
	00 00		 mov	 DWORD PTR [edi+120], 0
; File E:\Metin2_server\SolWayneSF v6\ClientVS22\source\eterLib\Pool.h

; 26   : 		}

  00045	8d 4f 50	 lea	 ecx, DWORD PTR [edi+80]
; File C:\Program Files\Microsoft Visual Studio\2022\Community\VC\Tools\MSVC\14.34.31933\include\xstring

; 5017 :         _My_data._Myres  = _BUF_SIZE - 1;

  00048	c7 47 7c 0f 00
	00 00		 mov	 DWORD PTR [edi+124], 15	; 0000000fH

; 5018 :         // the _Traits::assign is last so the codegen doesn't think the char write can alias this
; 5019 :         _Traits::assign(_My_data._Bx._Buf[0], _Elem());

  0004f	c6 47 68 00	 mov	 BYTE PTR [edi+104], 0
; File E:\Metin2_server\SolWayneSF v6\ClientVS22\source\eterLib\Pool.h

; 18   : 		{

  00053	c7 47 40 00 00
	00 00		 mov	 DWORD PTR [edi+64], OFFSET ??_7?$CDynamicPool@VCGraphicTextInstance@@@@6B@

; 26   : 		}

  0005a	e8 00 00 00 00	 call	 ??1?$vector@PAVCGraphicTextInstance@@V?$allocator@PAVCGraphicTextInstance@@@std@@@std@@QAE@XZ ; std::vector<CGraphicTextInstance *,std::allocator<CGraphicTextInstance *> >::~vector<CGraphicTextInstance *,std::allocator<CGraphicTextInstance *> >
  0005f	8d 4f 44	 lea	 ecx, DWORD PTR [edi+68]
  00062	e8 00 00 00 00	 call	 ??1?$vector@PAVCGraphicTextInstance@@V?$allocator@PAVCGraphicTextInstance@@@std@@@std@@QAE@XZ ; std::vector<CGraphicTextInstance *,std::allocator<CGraphicTextInstance *> >::~vector<CGraphicTextInstance *,std::allocator<CGraphicTextInstance *> >
  00067	8d 4f 2c	 lea	 ecx, DWORD PTR [edi+44]
  0006a	c7 47 1c 00 00
	00 00		 mov	 DWORD PTR [edi+28], OFFSET ??_7?$CDynamicPool@USEventSet@CPythonEventManager@@@@6B@
  00071	e8 00 00 00 00	 call	 ??1?$vector@PAUSEventSet@CPythonEventManager@@V?$allocator@PAUSEventSet@CPythonEventManager@@@std@@@std@@QAE@XZ ; std::vector<CPythonEventManager::SEventSet *,std::allocator<CPythonEventManager::SEventSet *> >::~vector<CPythonEventManager::SEventSet *,std::allocator<CPythonEventManager::SEventSet *> >
  00076	8d 4f 20	 lea	 ecx, DWORD PTR [edi+32]
  00079	e8 00 00 00 00	 call	 ??1?$vector@PAUSEventSet@CPythonEventManager@@V?$allocator@PAUSEventSet@CPythonEventManager@@@std@@@std@@QAE@XZ ; std::vector<CPythonEventManager::SEventSet *,std::allocator<CPythonEventManager::SEventSet *> >::~vector<CPythonEventManager::SEventSet *,std::allocator<CPythonEventManager::SEventSet *> >
; File E:\Metin2_server\SolWayneSF v6\ClientVS22\source\UserInterface\PythonEventManager.cpp

; 1213 : }

  0007e	8d 4f 0c	 lea	 ecx, DWORD PTR [edi+12]
  00081	e8 00 00 00 00	 call	 ??1?$vector@PAUSEventSet@CPythonEventManager@@V?$allocator@PAUSEventSet@CPythonEventManager@@@std@@@std@@QAE@XZ ; std::vector<CPythonEventManager::SEventSet *,std::allocator<CPythonEventManager::SEventSet *> >::~vector<CPythonEventManager::SEventSet *,std::allocator<CPythonEventManager::SEventSet *> >
; File C:\Program Files\Microsoft Visual Studio\2022\Community\VC\Tools\MSVC\14.34.31933\include\xtree

; 754  :         _Erase_tree(_Al, _Myhead->_Parent);

  00086	8b 47 04	 mov	 eax, DWORD PTR [edi+4]
; File E:\Metin2_server\SolWayneSF v6\ClientVS22\source\UserInterface\PythonEventManager.cpp

; 1213 : }

  00089	8d 77 04	 lea	 esi, DWORD PTR [edi+4]
; File C:\Program Files\Microsoft Visual Studio\2022\Community\VC\Tools\MSVC\14.34.31933\include\xtree

; 754  :         _Erase_tree(_Al, _Myhead->_Parent);

  0008c	8b ce		 mov	 ecx, esi
  0008e	ff 70 04	 push	 DWORD PTR [eax+4]
  00091	56		 push	 esi
  00092	e8 00 00 00 00	 call	 ??$_Erase_tree@V?$allocator@U?$_Tree_node@U?$pair@$$CBV?$basic_string@DU?$char_traits@D@std@@V?$allocator@D@2@@std@@H@std@@PAX@std@@@std@@@?$_Tree_val@U?$_Tree_simple_types@U?$pair@$$CBV?$basic_string@DU?$char_traits@D@std@@V?$allocator@D@2@@std@@H@std@@@std@@@std@@QAEXAAV?$allocator@U?$_Tree_node@U?$pair@$$CBV?$basic_string@DU?$char_traits@D@std@@V?$allocator@D@2@@std@@H@std@@PAX@std@@@1@PAU?$_Tree_node@U?$pair@$$CBV?$basic_string@DU?$char_traits@D@std@@V?$allocator@D@2@@std@@H@std@@PAX@1@@Z ; std::_Tree_val<std::_Tree_simple_types<std::pair<std::basic_string<char,std::char_traits<char>,std::allocator<char> > const ,int> > >::_Erase_tree<std::allocator<std::_Tree_node<std::pair<std::basic_string<char,std::char_traits<char>,std::allocator<char> > const ,int>,void *> > >
; File C:\Program Files\Microsoft Visual Studio\2022\Community\VC\Tools\MSVC\14.34.31933\include\xmemory

; 255  :         ::operator delete(_Ptr, _Bytes);

  00097	6a 2c		 push	 44			; 0000002cH
  00099	ff 36		 push	 DWORD PTR [esi]
  0009b	e8 00 00 00 00	 call	 ??3@YAXPAXI@Z		; operator delete
  000a0	83 c4 08	 add	 esp, 8
; File E:\Metin2_server\SolWayneSF v6\ClientVS22\source\eterBase\Singleton.h

; 19   : 	{ 

  000a3	c7 07 00 00 00
	00		 mov	 DWORD PTR [edi], OFFSET ??_7?$CSingleton@VCPythonEventManager@@@@6B@

; 20   : 		assert(ms_singleton);
; 21   : 		ms_singleton = 0; 

  000a9	c7 05 00 00 00
	00 00 00 00 00	 mov	 DWORD PTR ?ms_singleton@?$CSingleton@VCPythonEventManager@@@@0PAVCPythonEventManager@@A, 0 ; CSingleton<CPythonEventManager>::ms_singleton
  000b3	5f		 pop	 edi
  000b4	5e		 pop	 esi
; File E:\Metin2_server\SolWayneSF v6\ClientVS22\source\UserInterface\PythonEventManager.cpp

; 1213 : }

  000b5	c3		 ret	 0
$LN24@CPythonEve:
; File C:\Program Files\Microsoft Visual Studio\2022\Community\VC\Tools\MSVC\14.34.31933\include\xmemory

; 164  :     _STL_VERIFY(_Back_shift >= _Min_back_shift && _Back_shift <= _Non_user_size, "invalid argument");

  000b6	e8 00 00 00 00	 call	 __invalid_parameter_noinfo_noreturn
$LN94@CPythonEve:
  000bb	cc		 int	 3
??1CPythonEventManager@@UAE@XZ ENDP			; CPythonEventManager::~CPythonEventManager
_TEXT	ENDS
; Function compile flags: /Ogtp
; File E:\Metin2_server\SolWayneSF v6\ClientVS22\source\UserInterface\PythonEventManager.cpp
; File E:\Metin2_server\SolWayneSF v6\ClientVS22\source\eterBase\Singleton.h
; File E:\Metin2_server\SolWayneSF v6\ClientVS22\source\UserInterface\PythonEventManager.cpp
; File C:\Program Files\Microsoft Visual Studio\2022\Community\VC\Tools\MSVC\14.34.31933\include\xmemory
; File E:\Metin2_server\SolWayneSF v6\ClientVS22\source\UserInterface\PythonEventManager.cpp
; File C:\Program Files\Microsoft Visual Studio\2022\Community\VC\Tools\MSVC\14.34.31933\include\xtree
; File C:\Program Files\Microsoft Visual Studio\2022\Community\VC\Tools\MSVC\14.34.31933\include\xmemory
; File C:\Program Files\Microsoft Visual Studio\2022\Community\VC\Tools\MSVC\14.34.31933\include\xtree
; File C:\Program Files\Microsoft Visual Studio\2022\Community\VC\Tools\MSVC\14.34.31933\include\vector
; File E:\Metin2_server\SolWayneSF v6\ClientVS22\source\eterLib\Pool.h
; File C:\Program Files\Microsoft Visual Studio\2022\Community\VC\Tools\MSVC\14.34.31933\include\vector
; File E:\Metin2_server\SolWayneSF v6\ClientVS22\source\eterLib\Pool.h
; File C:\Program Files\Microsoft Visual Studio\2022\Community\VC\Tools\MSVC\14.34.31933\include\vector
; File E:\Metin2_server\SolWayneSF v6\ClientVS22\source\eterLib\Pool.h
; File E:\Metin2_server\SolWayneSF v6\ClientVS22\source\UserInterface\PythonEventManager.cpp
; File C:\Program Files\Microsoft Visual Studio\2022\Community\VC\Tools\MSVC\14.34.31933\include\xstring
; File C:\Program Files\Microsoft Visual Studio\2022\Community\VC\Tools\MSVC\14.34.31933\include\xmemory
; File C:\Program Files\Microsoft Visual Studio\2022\Community\VC\Tools\MSVC\14.34.31933\include\xstring
; File C:\Program Files\Microsoft Visual Studio\2022\Community\VC\Tools\MSVC\14.34.31933\include\xmemory
; File C:\Program Files\Microsoft Visual Studio\2022\Community\VC\Tools\MSVC\14.34.31933\include\xstring
; File C:\Program Files\Microsoft Visual Studio\2022\Community\VC\Tools\MSVC\14.34.31933\include\xmemory
; File C:\Program Files\Microsoft Visual Studio\2022\Community\VC\Tools\MSVC\14.34.31933\include\xstring
; File E:\Metin2_server\SolWayneSF v6\ClientVS22\source\UserInterface\PythonEventManager.cpp
; File C:\Program Files\Microsoft Visual Studio\2022\Community\VC\Tools\MSVC\14.34.31933\include\xstring
; File C:\Program Files\Microsoft Visual Studio\2022\Community\VC\Tools\MSVC\14.34.31933\include\xmemory
; File C:\Program Files\Microsoft Visual Studio\2022\Community\VC\Tools\MSVC\14.34.31933\include\xstring
; File C:\Program Files\Microsoft Visual Studio\2022\Community\VC\Tools\MSVC\14.34.31933\include\xmemory
; File C:\Program Files\Microsoft Visual Studio\2022\Community\VC\Tools\MSVC\14.34.31933\include\xstring
; File E:\Metin2_server\SolWayneSF v6\ClientVS22\source\UserInterface\PythonEventManager.cpp
; File C:\Program Files\Microsoft Visual Studio\2022\Community\VC\Tools\MSVC\14.34.31933\include\xstring
; File C:\Program Files\Microsoft Visual Studio\2022\Community\VC\Tools\MSVC\14.34.31933\include\xmemory
; File C:\Program Files\Microsoft Visual Studio\2022\Community\VC\Tools\MSVC\14.34.31933\include\xstring
; File C:\Program Files\Microsoft Visual Studio\2022\Community\VC\Tools\MSVC\14.34.31933\include\xmemory
; File C:\Program Files\Microsoft Visual Studio\2022\Community\VC\Tools\MSVC\14.34.31933\include\xstring
; File E:\Metin2_server\SolWayneSF v6\ClientVS22\source\UserInterface\PythonEventManager.cpp
; File C:\Program Files\Microsoft Visual Studio\2022\Community\VC\Tools\MSVC\14.34.31933\include\xstring
; File C:\Program Files\Microsoft Visual Studio\2022\Community\VC\Tools\MSVC\14.34.31933\include\xmemory
; File C:\Program Files\Microsoft Visual Studio\2022\Community\VC\Tools\MSVC\14.34.31933\include\xstring
; File C:\Program Files\Microsoft Visual Studio\2022\Community\VC\Tools\MSVC\14.34.31933\include\xmemory
; File C:\Program Files\Microsoft Visual Studio\2022\Community\VC\Tools\MSVC\14.34.31933\include\xstring
; File E:\Metin2_server\SolWayneSF v6\ClientVS22\source\UserInterface\PythonEventManager.cpp
; File C:\Program Files\Microsoft Visual Studio\2022\Community\VC\Tools\MSVC\14.34.31933\include\xstring
; File C:\Program Files\Microsoft Visual Studio\2022\Community\VC\Tools\MSVC\14.34.31933\include\xmemory
; File C:\Program Files\Microsoft Visual Studio\2022\Community\VC\Tools\MSVC\14.34.31933\include\xstring
; File C:\Program Files\Microsoft Visual Studio\2022\Community\VC\Tools\MSVC\14.34.31933\include\xmemory
; File C:\Program Files\Microsoft Visual Studio\2022\Community\VC\Tools\MSVC\14.34.31933\include\xstring
; File E:\Metin2_server\SolWayneSF v6\ClientVS22\source\UserInterface\PythonEventManager.cpp
; File C:\Program Files\Microsoft Visual Studio\2022\Community\VC\Tools\MSVC\14.34.31933\include\xstring
; File C:\Program Files\Microsoft Visual Studio\2022\Community\VC\Tools\MSVC\14.34.31933\include\xmemory
; File C:\Program Files\Microsoft Visual Studio\2022\Community\VC\Tools\MSVC\14.34.31933\include\xstring
; File C:\Program Files\Microsoft Visual Studio\2022\Community\VC\Tools\MSVC\14.34.31933\include\xmemory
; File C:\Program Files\Microsoft Visual Studio\2022\Community\VC\Tools\MSVC\14.34.31933\include\xstring
; File E:\Metin2_server\SolWayneSF v6\ClientVS22\source\UserInterface\PythonEventManager.cpp
; File C:\Program Files\Microsoft Visual Studio\2022\Community\VC\Tools\MSVC\14.34.31933\include\xstring
; File C:\Program Files\Microsoft Visual Studio\2022\Community\VC\Tools\MSVC\14.34.31933\include\xmemory
; File C:\Program Files\Microsoft Visual Studio\2022\Community\VC\Tools\MSVC\14.34.31933\include\xstring
; File C:\Program Files\Microsoft Visual Studio\2022\Community\VC\Tools\MSVC\14.34.31933\include\xmemory
; File C:\Program Files\Microsoft Visual Studio\2022\Community\VC\Tools\MSVC\14.34.31933\include\xstring
; File E:\Metin2_server\SolWayneSF v6\ClientVS22\source\UserInterface\PythonEventManager.cpp
; File C:\Program Files\Microsoft Visual Studio\2022\Community\VC\Tools\MSVC\14.34.31933\include\xstring
; File C:\Program Files\Microsoft Visual Studio\2022\Community\VC\Tools\MSVC\14.34.31933\include\xmemory
; File C:\Program Files\Microsoft Visual Studio\2022\Community\VC\Tools\MSVC\14.34.31933\include\xstring
; File C:\Program Files\Microsoft Visual Studio\2022\Community\VC\Tools\MSVC\14.34.31933\include\xmemory
; File C:\Program Files\Microsoft Visual Studio\2022\Community\VC\Tools\MSVC\14.34.31933\include\xstring
; File E:\Metin2_server\SolWayneSF v6\ClientVS22\source\UserInterface\PythonEventManager.cpp
; File C:\Program Files\Microsoft Visual Studio\2022\Community\VC\Tools\MSVC\14.34.31933\include\xstring
; File C:\Program Files\Microsoft Visual Studio\2022\Community\VC\Tools\MSVC\14.34.31933\include\xmemory
; File C:\Program Files\Microsoft Visual Studio\2022\Community\VC\Tools\MSVC\14.34.31933\include\xstring
; File C:\Program Files\Microsoft Visual Studio\2022\Community\VC\Tools\MSVC\14.34.31933\include\xmemory
; File C:\Program Files\Microsoft Visual Studio\2022\Community\VC\Tools\MSVC\14.34.31933\include\xstring
; File E:\Metin2_server\SolWayneSF v6\ClientVS22\source\UserInterface\PythonEventManager.cpp
; File C:\Program Files\Microsoft Visual Studio\2022\Community\VC\Tools\MSVC\14.34.31933\include\xstring
; File C:\Program Files\Microsoft Visual Studio\2022\Community\VC\Tools\MSVC\14.34.31933\include\xmemory
; File C:\Program Files\Microsoft Visual Studio\2022\Community\VC\Tools\MSVC\14.34.31933\include\xstring
; File C:\Program Files\Microsoft Visual Studio\2022\Community\VC\Tools\MSVC\14.34.31933\include\xmemory
; File C:\Program Files\Microsoft Visual Studio\2022\Community\VC\Tools\MSVC\14.34.31933\include\xstring
; File E:\Metin2_server\SolWayneSF v6\ClientVS22\source\UserInterface\PythonEventManager.cpp
; File C:\Program Files\Microsoft Visual Studio\2022\Community\VC\Tools\MSVC\14.34.31933\include\xstring
; File C:\Program Files\Microsoft Visual Studio\2022\Community\VC\Tools\MSVC\14.34.31933\include\xmemory
; File C:\Program Files\Microsoft Visual Studio\2022\Community\VC\Tools\MSVC\14.34.31933\include\xstring
; File C:\Program Files\Microsoft Visual Studio\2022\Community\VC\Tools\MSVC\14.34.31933\include\xmemory
; File C:\Program Files\Microsoft Visual Studio\2022\Community\VC\Tools\MSVC\14.34.31933\include\xstring
; File E:\Metin2_server\SolWayneSF v6\ClientVS22\source\UserInterface\PythonEventManager.cpp
; File C:\Program Files\Microsoft Visual Studio\2022\Community\VC\Tools\MSVC\14.34.31933\include\xstring
; File C:\Program Files\Microsoft Visual Studio\2022\Community\VC\Tools\MSVC\14.34.31933\include\xmemory
; File C:\Program Files\Microsoft Visual Studio\2022\Community\VC\Tools\MSVC\14.34.31933\include\xstring
; File C:\Program Files\Microsoft Visual Studio\2022\Community\VC\Tools\MSVC\14.34.31933\include\xmemory
; File C:\Program Files\Microsoft Visual Studio\2022\Community\VC\Tools\MSVC\14.34.31933\include\xstring
; File E:\Metin2_server\SolWayneSF v6\ClientVS22\source\UserInterface\PythonEventManager.cpp
; File C:\Program Files\Microsoft Visual Studio\2022\Community\VC\Tools\MSVC\14.34.31933\include\xstring
; File C:\Program Files\Microsoft Visual Studio\2022\Community\VC\Tools\MSVC\14.34.31933\include\xmemory
; File C:\Program Files\Microsoft Visual Studio\2022\Community\VC\Tools\MSVC\14.34.31933\include\xstring
; File C:\Program Files\Microsoft Visual Studio\2022\Community\VC\Tools\MSVC\14.34.31933\include\xmemory
; File C:\Program Files\Microsoft Visual Studio\2022\Community\VC\Tools\MSVC\14.34.31933\include\xstring
; File E:\Metin2_server\SolWayneSF v6\ClientVS22\source\UserInterface\PythonEventManager.cpp
; File C:\Program Files\Microsoft Visual Studio\2022\Community\VC\Tools\MSVC\14.34.31933\include\xstring
; File C:\Program Files\Microsoft Visual Studio\2022\Community\VC\Tools\MSVC\14.34.31933\include\xmemory
; File C:\Program Files\Microsoft Visual Studio\2022\Community\VC\Tools\MSVC\14.34.31933\include\xstring
; File C:\Program Files\Microsoft Visual Studio\2022\Community\VC\Tools\MSVC\14.34.31933\include\xmemory
; File C:\Program Files\Microsoft Visual Studio\2022\Community\VC\Tools\MSVC\14.34.31933\include\xstring
; File E:\Metin2_server\SolWayneSF v6\ClientVS22\source\UserInterface\PythonEventManager.cpp
; File C:\Program Files\Microsoft Visual Studio\2022\Community\VC\Tools\MSVC\14.34.31933\include\xstring
; File C:\Program Files\Microsoft Visual Studio\2022\Community\VC\Tools\MSVC\14.34.31933\include\xmemory
; File C:\Program Files\Microsoft Visual Studio\2022\Community\VC\Tools\MSVC\14.34.31933\include\xstring
; File C:\Program Files\Microsoft Visual Studio\2022\Community\VC\Tools\MSVC\14.34.31933\include\xmemory
; File C:\Program Files\Microsoft Visual Studio\2022\Community\VC\Tools\MSVC\14.34.31933\include\xstring
; File E:\Metin2_server\SolWayneSF v6\ClientVS22\source\UserInterface\PythonEventManager.cpp
; File C:\Program Files\Microsoft Visual Studio\2022\Community\VC\Tools\MSVC\14.34.31933\include\xstring
; File C:\Program Files\Microsoft Visual Studio\2022\Community\VC\Tools\MSVC\14.34.31933\include\xmemory
; File C:\Program Files\Microsoft Visual Studio\2022\Community\VC\Tools\MSVC\14.34.31933\include\xstring
; File C:\Program Files\Microsoft Visual Studio\2022\Community\VC\Tools\MSVC\14.34.31933\include\xmemory
; File C:\Program Files\Microsoft Visual Studio\2022\Community\VC\Tools\MSVC\14.34.31933\include\xstring
; File E:\Metin2_server\SolWayneSF v6\ClientVS22\source\UserInterface\PythonEventManager.cpp
; File C:\Program Files\Microsoft Visual Studio\2022\Community\VC\Tools\MSVC\14.34.31933\include\xstring
; File C:\Program Files\Microsoft Visual Studio\2022\Community\VC\Tools\MSVC\14.34.31933\include\xmemory
; File C:\Program Files\Microsoft Visual Studio\2022\Community\VC\Tools\MSVC\14.34.31933\include\xstring
; File C:\Program Files\Microsoft Visual Studio\2022\Community\VC\Tools\MSVC\14.34.31933\include\xmemory
; File C:\Program Files\Microsoft Visual Studio\2022\Community\VC\Tools\MSVC\14.34.31933\include\xstring
; File E:\Metin2_server\SolWayneSF v6\ClientVS22\source\UserInterface\PythonEventManager.cpp
; File C:\Program Files\Microsoft Visual Studio\2022\Community\VC\Tools\MSVC\14.34.31933\include\xstring
; File C:\Program Files\Microsoft Visual Studio\2022\Community\VC\Tools\MSVC\14.34.31933\include\xmemory
; File C:\Program Files\Microsoft Visual Studio\2022\Community\VC\Tools\MSVC\14.34.31933\include\xstring
; File C:\Program Files\Microsoft Visual Studio\2022\Community\VC\Tools\MSVC\14.34.31933\include\xmemory
; File C:\Program Files\Microsoft Visual Studio\2022\Community\VC\Tools\MSVC\14.34.31933\include\xstring
; File E:\Metin2_server\SolWayneSF v6\ClientVS22\source\UserInterface\PythonEventManager.cpp
; File C:\Program Files\Microsoft Visual Studio\2022\Community\VC\Tools\MSVC\14.34.31933\include\xstring
; File C:\Program Files\Microsoft Visual Studio\2022\Community\VC\Tools\MSVC\14.34.31933\include\xmemory
; File C:\Program Files\Microsoft Visual Studio\2022\Community\VC\Tools\MSVC\14.34.31933\include\xstring
; File C:\Program Files\Microsoft Visual Studio\2022\Community\VC\Tools\MSVC\14.34.31933\include\xmemory
; File C:\Program Files\Microsoft Visual Studio\2022\Community\VC\Tools\MSVC\14.34.31933\include\xstring
; File E:\Metin2_server\SolWayneSF v6\ClientVS22\source\UserInterface\PythonEventManager.cpp
; File C:\Program Files\Microsoft Visual Studio\2022\Community\VC\Tools\MSVC\14.34.31933\include\xstring
; File C:\Program Files\Microsoft Visual Studio\2022\Community\VC\Tools\MSVC\14.34.31933\include\xmemory
; File C:\Program Files\Microsoft Visual Studio\2022\Community\VC\Tools\MSVC\14.34.31933\include\xstring
; File C:\Program Files\Microsoft Visual Studio\2022\Community\VC\Tools\MSVC\14.34.31933\include\xmemory
; File C:\Program Files\Microsoft Visual Studio\2022\Community\VC\Tools\MSVC\14.34.31933\include\xstring
; File E:\Metin2_server\SolWayneSF v6\ClientVS22\source\UserInterface\PythonEventManager.cpp
; File C:\Program Files\Microsoft Visual Studio\2022\Community\VC\Tools\MSVC\14.34.31933\include\xmemory
; File E:\Metin2_server\SolWayneSF v6\ClientVS22\source\UserInterface\PythonEventManager.cpp
;	COMDAT ??0CPythonEventManager@@QAE@XZ
_TEXT	SEGMENT
_this$GSCopy$ = -48					; size = 4
_this$ = -44						; size = 4
_this$ = -44						; size = 4
$T2 = -40						; size = 24
$T3 = -40						; size = 24
$T4 = -40						; size = 24
$T5 = -40						; size = 24
$T6 = -40						; size = 24
$T7 = -40						; size = 24
$T8 = -40						; size = 24
$T9 = -40						; size = 24
$T10 = -40						; size = 24
$T11 = -40						; size = 24
$T12 = -40						; size = 24
$T13 = -40						; size = 24
$T14 = -40						; size = 24
$T15 = -40						; size = 24
$T16 = -40						; size = 24
$T17 = -40						; size = 24
$T18 = -40						; size = 24
$T19 = -40						; size = 24
$T20 = -40						; size = 24
$T21 = -40						; size = 24
$T22 = -40						; size = 24
$T23 = -40						; size = 24
$T24 = -40						; size = 24
$T25 = -40						; size = 24
$T26 = -40						; size = 24
$T27 = -40						; size = 24
$T28 = -40						; size = 24
$T29 = -40						; size = 24
$T30 = -40						; size = 24
$T31 = -40						; size = 24
$T32 = -40						; size = 24
$T33 = -40						; size = 24
$T34 = -40						; size = 24
$T35 = -40						; size = 24
$T36 = -40						; size = 24
$T37 = -40						; size = 24
$T38 = -40						; size = 24
$T39 = -40						; size = 24
$T40 = -40						; size = 24
$T41 = -40						; size = 24
$T42 = -40						; size = 24
$T43 = -40						; size = 24
__$ArrayPad$ = -16					; size = 4
__$EHRec$ = -12						; size = 12
??0CPythonEventManager@@QAE@XZ PROC			; CPythonEventManager::CPythonEventManager, COMDAT
; _this$ = ecx

; 1152 : {

  00000	55		 push	 ebp
  00001	8b ec		 mov	 ebp, esp
  00003	6a ff		 push	 -1
  00005	68 00 00 00 00	 push	 __ehhandler$??0CPythonEventManager@@QAE@XZ
  0000a	64 a1 00 00 00
	00		 mov	 eax, DWORD PTR fs:0
  00010	50		 push	 eax
  00011	83 ec 24	 sub	 esp, 36			; 00000024H
  00014	a1 00 00 00 00	 mov	 eax, DWORD PTR ___security_cookie
  00019	33 c5		 xor	 eax, ebp
  0001b	89 45 f0	 mov	 DWORD PTR __$ArrayPad$[ebp], eax
  0001e	56		 push	 esi
  0001f	57		 push	 edi
  00020	50		 push	 eax
  00021	8d 45 f4	 lea	 eax, DWORD PTR __$EHRec$[ebp]
  00024	64 a3 00 00 00
	00		 mov	 DWORD PTR fs:0, eax
  0002a	8b f1		 mov	 esi, ecx
  0002c	89 75 d4	 mov	 DWORD PTR _this$[ebp], esi
  0002f	89 75 d0	 mov	 DWORD PTR _this$GSCopy$[ebp], esi
; File E:\Metin2_server\SolWayneSF v6\ClientVS22\source\eterBase\Singleton.h

; 15   : 		ms_singleton = (T*) ((int) this + offset);

  00032	89 35 00 00 00
	00		 mov	 DWORD PTR ?ms_singleton@?$CSingleton@VCPythonEventManager@@@@0PAVCPythonEventManager@@A, esi ; CSingleton<CPythonEventManager>::ms_singleton
; File E:\Metin2_server\SolWayneSF v6\ClientVS22\source\UserInterface\PythonEventManager.cpp

; 1152 : {

  00038	c7 45 fc 00 00
	00 00		 mov	 DWORD PTR __$EHRec$[ebp+8], 0
  0003f	8d 7e 04	 lea	 edi, DWORD PTR [esi+4]
  00042	c7 06 00 00 00
	00		 mov	 DWORD PTR [esi], OFFSET ??_7CPythonEventManager@@6B@
; File C:\Program Files\Microsoft Visual Studio\2022\Community\VC\Tools\MSVC\14.34.31933\include\xmemory

; 77   :         return ::operator new(_Bytes);

  00048	6a 2c		 push	 44			; 0000002cH
; File E:\Metin2_server\SolWayneSF v6\ClientVS22\source\UserInterface\PythonEventManager.cpp

; 1152 : {

  0004a	89 7d d4	 mov	 DWORD PTR _this$[ebp], edi
; File C:\Program Files\Microsoft Visual Studio\2022\Community\VC\Tools\MSVC\14.34.31933\include\xtree

; 437  :     _Tree_val() noexcept : _Myhead(), _Mysize(0) {}

  0004d	c7 07 00 00 00
	00		 mov	 DWORD PTR [edi], 0
  00053	c7 47 04 00 00
	00 00		 mov	 DWORD PTR [edi+4], 0
; File C:\Program Files\Microsoft Visual Studio\2022\Community\VC\Tools\MSVC\14.34.31933\include\xmemory

; 77   :         return ::operator new(_Bytes);

  0005a	e8 00 00 00 00	 call	 ??2@YAPAXI@Z		; operator new
; File C:\Program Files\Microsoft Visual Studio\2022\Community\VC\Tools\MSVC\14.34.31933\include\xtree

; 347  :         _Construct_in_place(_Pnode->_Left, _Pnode);

  0005f	89 00		 mov	 DWORD PTR [eax], eax

; 348  :         _Construct_in_place(_Pnode->_Parent, _Pnode);

  00061	89 40 04	 mov	 DWORD PTR [eax+4], eax

; 349  :         _Construct_in_place(_Pnode->_Right, _Pnode);

  00064	89 40 08	 mov	 DWORD PTR [eax+8], eax

; 350  :         _Pnode->_Color = _Black;

  00067	66 c7 40 0c 01
	01		 mov	 WORD PTR [eax+12], 257	; 00000101H

; 1941 :         _Scary->_Myhead = _Node::_Buyheadnode(_Getal());

  0006d	89 07		 mov	 DWORD PTR [edi], eax
; File C:\Program Files\Microsoft Visual Studio\2022\Community\VC\Tools\MSVC\14.34.31933\include\vector

; 390  :     _CONSTEXPR20 _Vector_val() noexcept : _Myfirst(), _Mylast(), _Myend() {}

  0006f	c7 46 0c 00 00
	00 00		 mov	 DWORD PTR [esi+12], 0
  00076	c7 46 10 00 00
	00 00		 mov	 DWORD PTR [esi+16], 0
  0007d	c7 46 14 00 00
	00 00		 mov	 DWORD PTR [esi+20], 0
; File E:\Metin2_server\SolWayneSF v6\ClientVS22\source\eterLib\Pool.h

; 12   : 		{

  00084	c7 46 1c 00 00
	00 00		 mov	 DWORD PTR [esi+28], OFFSET ??_7?$CDynamicPool@USEventSet@CPythonEventManager@@@@6B@
; File C:\Program Files\Microsoft Visual Studio\2022\Community\VC\Tools\MSVC\14.34.31933\include\vector

; 390  :     _CONSTEXPR20 _Vector_val() noexcept : _Myfirst(), _Mylast(), _Myend() {}

  0008b	c7 46 20 00 00
	00 00		 mov	 DWORD PTR [esi+32], 0
  00092	c7 46 24 00 00
	00 00		 mov	 DWORD PTR [esi+36], 0
  00099	c7 46 28 00 00
	00 00		 mov	 DWORD PTR [esi+40], 0
  000a0	c7 46 2c 00 00
	00 00		 mov	 DWORD PTR [esi+44], 0
  000a7	c7 46 30 00 00
	00 00		 mov	 DWORD PTR [esi+48], 0
  000ae	c7 46 34 00 00
	00 00		 mov	 DWORD PTR [esi+52], 0
; File E:\Metin2_server\SolWayneSF v6\ClientVS22\source\eterLib\Pool.h

; 14   : 			m_uInitCapacity=0;

  000b5	c7 46 38 00 00
	00 00		 mov	 DWORD PTR [esi+56], 0

; 15   : 			m_uUsedCapacity=0;

  000bc	c7 46 3c 00 00
	00 00		 mov	 DWORD PTR [esi+60], 0

; 12   : 		{

  000c3	c7 46 40 00 00
	00 00		 mov	 DWORD PTR [esi+64], OFFSET ??_7?$CDynamicPool@VCGraphicTextInstance@@@@6B@
; File C:\Program Files\Microsoft Visual Studio\2022\Community\VC\Tools\MSVC\14.34.31933\include\vector

; 390  :     _CONSTEXPR20 _Vector_val() noexcept : _Myfirst(), _Mylast(), _Myend() {}

  000ca	c7 46 44 00 00
	00 00		 mov	 DWORD PTR [esi+68], 0
  000d1	c7 46 48 00 00
	00 00		 mov	 DWORD PTR [esi+72], 0
  000d8	c7 46 4c 00 00
	00 00		 mov	 DWORD PTR [esi+76], 0
  000df	c7 46 50 00 00
	00 00		 mov	 DWORD PTR [esi+80], 0
  000e6	c7 46 54 00 00
	00 00		 mov	 DWORD PTR [esi+84], 0
  000ed	c7 46 58 00 00
	00 00		 mov	 DWORD PTR [esi+88], 0
; File E:\Metin2_server\SolWayneSF v6\ClientVS22\source\eterLib\Pool.h

; 14   : 			m_uInitCapacity=0;

  000f4	c7 46 5c 00 00
	00 00		 mov	 DWORD PTR [esi+92], 0

; 15   : 			m_uUsedCapacity=0;

  000fb	c7 46 60 00 00
	00 00		 mov	 DWORD PTR [esi+96], 0
; File E:\Metin2_server\SolWayneSF v6\ClientVS22\source\UserInterface\PythonEventManager.cpp

; 1152 : {

  00102	c6 45 fc 04	 mov	 BYTE PTR __$EHRec$[ebp+8], 4
  00106	0f 57 c0	 xorps	 xmm0, xmm0

; 1151 : 	: m_poInterface(0), m_strLeftTimeString("  : %d")

  00109	c7 46 64 00 00
	00 00		 mov	 DWORD PTR [esi+100], 0
; File C:\Program Files\Microsoft Visual Studio\2022\Community\VC\Tools\MSVC\14.34.31933\include\xstring

; 2339 :         _CONSTEXPR20 _Bxty() noexcept : _Buf() {} // user-provided, for fancy pointers

  00110	0f 11 46 68	 movups	 XMMWORD PTR [esi+104], xmm0

; 2348 :     size_type _Mysize = 0; // current length of string

  00114	c7 46 78 00 00
	00 00		 mov	 DWORD PTR [esi+120], 0
; File C:\Program Files\Microsoft Visual Studio\2022\Community\VC\Tools\MSVC\14.34.31933\include\xmemory

; 77   :         return ::operator new(_Bytes);

  0011b	6a 20		 push	 32			; 00000020H
; File C:\Program Files\Microsoft Visual Studio\2022\Community\VC\Tools\MSVC\14.34.31933\include\xstring

; 2767 :         _My_data._Myres               = _BUF_SIZE - 1;

  0011d	c7 46 7c 0f 00
	00 00		 mov	 DWORD PTR [esi+124], 15	; 0000000fH
; File C:\Program Files\Microsoft Visual Studio\2022\Community\VC\Tools\MSVC\14.34.31933\include\xmemory

; 77   :         return ::operator new(_Bytes);

  00124	e8 00 00 00 00	 call	 ??2@YAPAXI@Z		; operator new
; File C:\Program Files\Microsoft Visual Studio\2022\Community\VC\Tools\MSVC\14.34.31933\include\xstring

; 2770 :         _Construct_in_place(_My_data._Bx._Ptr, _New_ptr);

  00129	89 46 68	 mov	 DWORD PTR [esi+104], eax
; File C:\Program Files\Microsoft Visual Studio\2022\Community\VC\Tools\MSVC\14.34.31933\include\xmemory

; 77   :         return ::operator new(_Bytes);

  0012c	83 c4 08	 add	 esp, 8
; File C:\Program Files\Microsoft Visual Studio\2022\Community\VC\Tools\MSVC\14.34.31933\include\xstring

; 2778 :         _My_data._Mysize = _Count;

  0012f	c7 46 78 10 00
	00 00		 mov	 DWORD PTR [esi+120], 16	; 00000010H

; 2779 :         _My_data._Myres  = _New_capacity;

  00136	c7 46 7c 1f 00
	00 00		 mov	 DWORD PTR [esi+124], 31	; 0000001fH

; 64   :         _CSTD memcpy(_First1, _First2, _Count * sizeof(_Elem));

  0013d	0f 10 05 00 00
	00 00		 movups	 xmm0, XMMWORD PTR ??_C@_0BB@GNKEGEMJ@?$LD?$LC?$MA?$LK?5?$LN?C?$LA?$KD?5?3?5?$CFd?C?J@
  00144	0f 11 00	 movups	 XMMWORD PTR [eax], xmm0

; 2785 :             _Traits::assign(_Unfancy(_New_ptr)[_Count], _Elem());

  00147	c6 40 10 00	 mov	 BYTE PTR [eax+16], 0

; 117  :         _CSTD memmove(_First1, _First2, _Count * sizeof(_Elem));

  0014b	a1 00 00 00 00	 mov	 eax, DWORD PTR ??_C@_06MJINCFFA@LETTER@
  00150	0f 57 c0	 xorps	 xmm0, xmm0

; 2339 :         _CONSTEXPR20 _Bxty() noexcept : _Buf() {} // user-provided, for fancy pointers

  00153	0f 11 45 d8	 movups	 XMMWORD PTR $T43[ebp], xmm0

; 117  :         _CSTD memmove(_First1, _First2, _Count * sizeof(_Elem));

  00157	89 45 d8	 mov	 DWORD PTR $T43[ebp], eax
  0015a	66 a1 04 00 00
	00		 mov	 ax, WORD PTR ??_C@_06MJINCFFA@LETTER@+4

; 2748 :             _My_data._Mysize = _Count;

  00160	c7 45 e8 06 00
	00 00		 mov	 DWORD PTR $T43[ebp+16], 6

; 2749 :             _My_data._Myres  = _BUF_SIZE - 1;

  00167	c7 45 ec 0f 00
	00 00		 mov	 DWORD PTR $T43[ebp+20], 15 ; 0000000fH

; 117  :         _CSTD memmove(_First1, _First2, _Count * sizeof(_Elem));

  0016e	66 89 45 dc	 mov	 WORD PTR $T43[ebp+4], ax
; File E:\Metin2_server\SolWayneSF v6\ClientVS22\source\UserInterface\PythonEventManager.cpp

; 1153 : 	EventTypeMap["LETTER"]=EVENT_TYPE_LETTER;

  00172	8d 45 d8	 lea	 eax, DWORD PTR $T43[ebp]
  00175	c6 45 fc 06	 mov	 BYTE PTR __$EHRec$[ebp+8], 6
  00179	50		 push	 eax
  0017a	8b cf		 mov	 ecx, edi
  0017c	e8 00 00 00 00	 call	 ??A?$map@V?$basic_string@DU?$char_traits@D@std@@V?$allocator@D@2@@std@@HU?$less@V?$basic_string@DU?$char_traits@D@std@@V?$allocator@D@2@@std@@@2@V?$allocator@U?$pair@$$CBV?$basic_string@DU?$char_traits@D@std@@V?$allocator@D@2@@std@@H@std@@@2@@std@@QAEAAH$$QAV?$basic_string@DU?$char_traits@D@std@@V?$allocator@D@2@@1@@Z ; std::map<std::basic_string<char,std::char_traits<char>,std::allocator<char> >,int,std::less<std::basic_string<char,std::char_traits<char>,std::allocator<char> > >,std::allocator<std::pair<std::basic_string<char,std::char_traits<char>,std::allocator<char> > const ,int> > >::operator[]
  00181	c6 45 fc 05	 mov	 BYTE PTR __$EHRec$[ebp+8], 5
  00185	c7 00 00 00 00
	00		 mov	 DWORD PTR [eax], 0
; File C:\Program Files\Microsoft Visual Studio\2022\Community\VC\Tools\MSVC\14.34.31933\include\xstring

; 5008 :         if (_My_data._Large_string_engaged()) {

  0018b	8b 4d ec	 mov	 ecx, DWORD PTR $T43[ebp+20]
  0018e	83 f9 10	 cmp	 ecx, 16			; 00000010H
  00191	72 2c		 jb	 SHORT $LN448@CPythonEve
; File C:\Program Files\Microsoft Visual Studio\2022\Community\VC\Tools\MSVC\14.34.31933\include\xmemory

; 830  :         _Deallocate<_New_alignof<_Ty>>(_Ptr, sizeof(_Ty) * _Count);

  00193	8b 55 d8	 mov	 edx, DWORD PTR $T43[ebp]
; File C:\Program Files\Microsoft Visual Studio\2022\Community\VC\Tools\MSVC\14.34.31933\include\xstring

; 5013 :             _Al.deallocate(_Ptr, _My_data._Myres + 1);

  00196	41		 inc	 ecx
; File C:\Program Files\Microsoft Visual Studio\2022\Community\VC\Tools\MSVC\14.34.31933\include\xmemory

; 830  :         _Deallocate<_New_alignof<_Ty>>(_Ptr, sizeof(_Ty) * _Count);

  00197	8b c2		 mov	 eax, edx

; 251  :         if (_Bytes >= _Big_allocation_threshold) { // boost the alignment of big allocations to help autovectorization

  00199	81 f9 00 10 00
	00		 cmp	 ecx, 4096		; 00001000H
  0019f	72 14		 jb	 SHORT $LN460@CPythonEve

; 150  :     const uintptr_t _Ptr_container   = _Ptr_user[-1];

  001a1	8b 50 fc	 mov	 edx, DWORD PTR [eax-4]
  001a4	83 c1 23	 add	 ecx, 35			; 00000023H
  001a7	2b c2		 sub	 eax, edx

; 164  :     _STL_VERIFY(_Back_shift >= _Min_back_shift && _Back_shift <= _Non_user_size, "invalid argument");

  001a9	83 c0 fc	 add	 eax, -4			; fffffffcH
  001ac	83 f8 1f	 cmp	 eax, 31			; 0000001fH
  001af	0f 87 4a 0c 00
	00		 ja	 $LN1850@CPythonEve
$LN460@CPythonEve:

; 255  :         ::operator delete(_Ptr, _Bytes);

  001b5	51		 push	 ecx
  001b6	52		 push	 edx
  001b7	e8 00 00 00 00	 call	 ??3@YAXPAXI@Z		; operator delete
  001bc	83 c4 08	 add	 esp, 8
$LN448@CPythonEve:
; File C:\Program Files\Microsoft Visual Studio\2022\Community\VC\Tools\MSVC\14.34.31933\include\xstring

; 117  :         _CSTD memmove(_First1, _First2, _Count * sizeof(_Elem));

  001bf	a1 00 00 00 00	 mov	 eax, DWORD PTR ??_C@_05DPNLPLKI@COLOR@
  001c4	0f 57 c0	 xorps	 xmm0, xmm0

; 2339 :         _CONSTEXPR20 _Bxty() noexcept : _Buf() {} // user-provided, for fancy pointers

  001c7	0f 11 45 d8	 movups	 XMMWORD PTR $T42[ebp], xmm0

; 117  :         _CSTD memmove(_First1, _First2, _Count * sizeof(_Elem));

  001cb	89 45 d8	 mov	 DWORD PTR $T42[ebp], eax
  001ce	a0 04 00 00 00	 mov	 al, BYTE PTR ??_C@_05DPNLPLKI@COLOR@+4

; 2748 :             _My_data._Mysize = _Count;

  001d3	c7 45 e8 05 00
	00 00		 mov	 DWORD PTR $T42[ebp+16], 5

; 2749 :             _My_data._Myres  = _BUF_SIZE - 1;

  001da	c7 45 ec 0f 00
	00 00		 mov	 DWORD PTR $T42[ebp+20], 15 ; 0000000fH

; 117  :         _CSTD memmove(_First1, _First2, _Count * sizeof(_Elem));

  001e1	88 45 dc	 mov	 BYTE PTR $T42[ebp+4], al
; File E:\Metin2_server\SolWayneSF v6\ClientVS22\source\UserInterface\PythonEventManager.cpp

; 1154 : 	EventTypeMap["COLOR"]=EVENT_TYPE_COLOR;

  001e4	8d 45 d8	 lea	 eax, DWORD PTR $T42[ebp]
  001e7	c6 45 fc 07	 mov	 BYTE PTR __$EHRec$[ebp+8], 7
  001eb	50		 push	 eax
  001ec	8b cf		 mov	 ecx, edi
  001ee	e8 00 00 00 00	 call	 ??A?$map@V?$basic_string@DU?$char_traits@D@std@@V?$allocator@D@2@@std@@HU?$less@V?$basic_string@DU?$char_traits@D@std@@V?$allocator@D@2@@std@@@2@V?$allocator@U?$pair@$$CBV?$basic_string@DU?$char_traits@D@std@@V?$allocator@D@2@@std@@H@std@@@2@@std@@QAEAAH$$QAV?$basic_string@DU?$char_traits@D@std@@V?$allocator@D@2@@1@@Z ; std::map<std::basic_string<char,std::char_traits<char>,std::allocator<char> >,int,std::less<std::basic_string<char,std::char_traits<char>,std::allocator<char> > >,std::allocator<std::pair<std::basic_string<char,std::char_traits<char>,std::allocator<char> > const ,int> > >::operator[]
  001f3	c6 45 fc 05	 mov	 BYTE PTR __$EHRec$[ebp+8], 5
  001f7	c7 00 01 00 00
	00		 mov	 DWORD PTR [eax], 1
; File C:\Program Files\Microsoft Visual Studio\2022\Community\VC\Tools\MSVC\14.34.31933\include\xstring

; 5008 :         if (_My_data._Large_string_engaged()) {

  001fd	8b 4d ec	 mov	 ecx, DWORD PTR $T42[ebp+20]
  00200	83 f9 10	 cmp	 ecx, 16			; 00000010H
  00203	72 2c		 jb	 SHORT $LN730@CPythonEve
; File C:\Program Files\Microsoft Visual Studio\2022\Community\VC\Tools\MSVC\14.34.31933\include\xmemory

; 830  :         _Deallocate<_New_alignof<_Ty>>(_Ptr, sizeof(_Ty) * _Count);

  00205	8b 55 d8	 mov	 edx, DWORD PTR $T42[ebp]
; File C:\Program Files\Microsoft Visual Studio\2022\Community\VC\Tools\MSVC\14.34.31933\include\xstring

; 5013 :             _Al.deallocate(_Ptr, _My_data._Myres + 1);

  00208	41		 inc	 ecx
; File C:\Program Files\Microsoft Visual Studio\2022\Community\VC\Tools\MSVC\14.34.31933\include\xmemory

; 830  :         _Deallocate<_New_alignof<_Ty>>(_Ptr, sizeof(_Ty) * _Count);

  00209	8b c2		 mov	 eax, edx

; 251  :         if (_Bytes >= _Big_allocation_threshold) { // boost the alignment of big allocations to help autovectorization

  0020b	81 f9 00 10 00
	00		 cmp	 ecx, 4096		; 00001000H
  00211	72 14		 jb	 SHORT $LN742@CPythonEve

; 150  :     const uintptr_t _Ptr_container   = _Ptr_user[-1];

  00213	8b 50 fc	 mov	 edx, DWORD PTR [eax-4]
  00216	83 c1 23	 add	 ecx, 35			; 00000023H
  00219	2b c2		 sub	 eax, edx

; 164  :     _STL_VERIFY(_Back_shift >= _Min_back_shift && _Back_shift <= _Non_user_size, "invalid argument");

  0021b	83 c0 fc	 add	 eax, -4			; fffffffcH
  0021e	83 f8 1f	 cmp	 eax, 31			; 0000001fH
  00221	0f 87 dd 0b 00
	00		 ja	 $LN1851@CPythonEve
$LN742@CPythonEve:

; 255  :         ::operator delete(_Ptr, _Bytes);

  00227	51		 push	 ecx
  00228	52		 push	 edx
  00229	e8 00 00 00 00	 call	 ??3@YAXPAXI@Z		; operator delete
  0022e	83 c4 08	 add	 esp, 8
$LN730@CPythonEve:
; File C:\Program Files\Microsoft Visual Studio\2022\Community\VC\Tools\MSVC\14.34.31933\include\xstring

; 117  :         _CSTD memmove(_First1, _First2, _Count * sizeof(_Elem));

  00231	a1 00 00 00 00	 mov	 eax, DWORD PTR ??_C@_05IBAECHHA@DELAY@
  00236	0f 57 c0	 xorps	 xmm0, xmm0

; 2339 :         _CONSTEXPR20 _Bxty() noexcept : _Buf() {} // user-provided, for fancy pointers

  00239	0f 11 45 d8	 movups	 XMMWORD PTR $T41[ebp], xmm0

; 117  :         _CSTD memmove(_First1, _First2, _Count * sizeof(_Elem));

  0023d	89 45 d8	 mov	 DWORD PTR $T41[ebp], eax
  00240	a0 04 00 00 00	 mov	 al, BYTE PTR ??_C@_05IBAECHHA@DELAY@+4

; 2748 :             _My_data._Mysize = _Count;

  00245	c7 45 e8 05 00
	00 00		 mov	 DWORD PTR $T41[ebp+16], 5

; 2749 :             _My_data._Myres  = _BUF_SIZE - 1;

  0024c	c7 45 ec 0f 00
	00 00		 mov	 DWORD PTR $T41[ebp+20], 15 ; 0000000fH

; 117  :         _CSTD memmove(_First1, _First2, _Count * sizeof(_Elem));

  00253	88 45 dc	 mov	 BYTE PTR $T41[ebp+4], al
; File E:\Metin2_server\SolWayneSF v6\ClientVS22\source\UserInterface\PythonEventManager.cpp

; 1155 : 	EventTypeMap["DELAY"]=EVENT_TYPE_DELAY;

  00256	8d 45 d8	 lea	 eax, DWORD PTR $T41[ebp]
  00259	c6 45 fc 08	 mov	 BYTE PTR __$EHRec$[ebp+8], 8
  0025d	50		 push	 eax
  0025e	8b cf		 mov	 ecx, edi
  00260	e8 00 00 00 00	 call	 ??A?$map@V?$basic_string@DU?$char_traits@D@std@@V?$allocator@D@2@@std@@HU?$less@V?$basic_string@DU?$char_traits@D@std@@V?$allocator@D@2@@std@@@2@V?$allocator@U?$pair@$$CBV?$basic_string@DU?$char_traits@D@std@@V?$allocator@D@2@@std@@H@std@@@2@@std@@QAEAAH$$QAV?$basic_string@DU?$char_traits@D@std@@V?$allocator@D@2@@1@@Z ; std::map<std::basic_string<char,std::char_traits<char>,std::allocator<char> >,int,std::less<std::basic_string<char,std::char_traits<char>,std::allocator<char> > >,std::allocator<std::pair<std::basic_string<char,std::char_traits<char>,std::allocator<char> > const ,int> > >::operator[]
  00265	c6 45 fc 05	 mov	 BYTE PTR __$EHRec$[ebp+8], 5
  00269	c7 00 02 00 00
	00		 mov	 DWORD PTR [eax], 2
; File C:\Program Files\Microsoft Visual Studio\2022\Community\VC\Tools\MSVC\14.34.31933\include\xstring

; 5008 :         if (_My_data._Large_string_engaged()) {

  0026f	8b 4d ec	 mov	 ecx, DWORD PTR $T41[ebp+20]
  00272	83 f9 10	 cmp	 ecx, 16			; 00000010H
  00275	72 2c		 jb	 SHORT $LN821@CPythonEve
; File C:\Program Files\Microsoft Visual Studio\2022\Community\VC\Tools\MSVC\14.34.31933\include\xmemory

; 830  :         _Deallocate<_New_alignof<_Ty>>(_Ptr, sizeof(_Ty) * _Count);

  00277	8b 55 d8	 mov	 edx, DWORD PTR $T41[ebp]
; File C:\Program Files\Microsoft Visual Studio\2022\Community\VC\Tools\MSVC\14.34.31933\include\xstring

; 5013 :             _Al.deallocate(_Ptr, _My_data._Myres + 1);

  0027a	41		 inc	 ecx
; File C:\Program Files\Microsoft Visual Studio\2022\Community\VC\Tools\MSVC\14.34.31933\include\xmemory

; 830  :         _Deallocate<_New_alignof<_Ty>>(_Ptr, sizeof(_Ty) * _Count);

  0027b	8b c2		 mov	 eax, edx

; 251  :         if (_Bytes >= _Big_allocation_threshold) { // boost the alignment of big allocations to help autovectorization

  0027d	81 f9 00 10 00
	00		 cmp	 ecx, 4096		; 00001000H
  00283	72 14		 jb	 SHORT $LN833@CPythonEve

; 150  :     const uintptr_t _Ptr_container   = _Ptr_user[-1];

  00285	8b 50 fc	 mov	 edx, DWORD PTR [eax-4]
  00288	83 c1 23	 add	 ecx, 35			; 00000023H
  0028b	2b c2		 sub	 eax, edx

; 164  :     _STL_VERIFY(_Back_shift >= _Min_back_shift && _Back_shift <= _Non_user_size, "invalid argument");

  0028d	83 c0 fc	 add	 eax, -4			; fffffffcH
  00290	83 f8 1f	 cmp	 eax, 31			; 0000001fH
  00293	0f 87 70 0b 00
	00		 ja	 $LN1852@CPythonEve
$LN833@CPythonEve:

; 255  :         ::operator delete(_Ptr, _Bytes);

  00299	51		 push	 ecx
  0029a	52		 push	 edx
  0029b	e8 00 00 00 00	 call	 ??3@YAXPAXI@Z		; operator delete
  002a0	83 c4 08	 add	 esp, 8
$LN821@CPythonEve:
; File C:\Program Files\Microsoft Visual Studio\2022\Community\VC\Tools\MSVC\14.34.31933\include\xstring

; 117  :         _CSTD memmove(_First1, _First2, _Count * sizeof(_Elem));

  002a3	a1 00 00 00 00	 mov	 eax, DWORD PTR ??_C@_05EMNIMLKD@ENTER@
  002a8	0f 57 c0	 xorps	 xmm0, xmm0

; 2339 :         _CONSTEXPR20 _Bxty() noexcept : _Buf() {} // user-provided, for fancy pointers

  002ab	0f 11 45 d8	 movups	 XMMWORD PTR $T40[ebp], xmm0

; 117  :         _CSTD memmove(_First1, _First2, _Count * sizeof(_Elem));

  002af	89 45 d8	 mov	 DWORD PTR $T40[ebp], eax
  002b2	a0 04 00 00 00	 mov	 al, BYTE PTR ??_C@_05EMNIMLKD@ENTER@+4

; 2748 :             _My_data._Mysize = _Count;

  002b7	c7 45 e8 05 00
	00 00		 mov	 DWORD PTR $T40[ebp+16], 5

; 2749 :             _My_data._Myres  = _BUF_SIZE - 1;

  002be	c7 45 ec 0f 00
	00 00		 mov	 DWORD PTR $T40[ebp+20], 15 ; 0000000fH

; 117  :         _CSTD memmove(_First1, _First2, _Count * sizeof(_Elem));

  002c5	88 45 dc	 mov	 BYTE PTR $T40[ebp+4], al
; File E:\Metin2_server\SolWayneSF v6\ClientVS22\source\UserInterface\PythonEventManager.cpp

; 1156 : 	EventTypeMap["ENTER"]=EVENT_TYPE_ENTER;

  002c8	8d 45 d8	 lea	 eax, DWORD PTR $T40[ebp]
  002cb	c6 45 fc 09	 mov	 BYTE PTR __$EHRec$[ebp+8], 9
  002cf	50		 push	 eax
  002d0	8b cf		 mov	 ecx, edi
  002d2	e8 00 00 00 00	 call	 ??A?$map@V?$basic_string@DU?$char_traits@D@std@@V?$allocator@D@2@@std@@HU?$less@V?$basic_string@DU?$char_traits@D@std@@V?$allocator@D@2@@std@@@2@V?$allocator@U?$pair@$$CBV?$basic_string@DU?$char_traits@D@std@@V?$allocator@D@2@@std@@H@std@@@2@@std@@QAEAAH$$QAV?$basic_string@DU?$char_traits@D@std@@V?$allocator@D@2@@1@@Z ; std::map<std::basic_string<char,std::char_traits<char>,std::allocator<char> >,int,std::less<std::basic_string<char,std::char_traits<char>,std::allocator<char> > >,std::allocator<std::pair<std::basic_string<char,std::char_traits<char>,std::allocator<char> > const ,int> > >::operator[]
  002d7	c6 45 fc 05	 mov	 BYTE PTR __$EHRec$[ebp+8], 5
  002db	c7 00 03 00 00
	00		 mov	 DWORD PTR [eax], 3
; File C:\Program Files\Microsoft Visual Studio\2022\Community\VC\Tools\MSVC\14.34.31933\include\xstring

; 5008 :         if (_My_data._Large_string_engaged()) {

  002e1	8b 4d ec	 mov	 ecx, DWORD PTR $T40[ebp+20]
  002e4	83 f9 10	 cmp	 ecx, 16			; 00000010H
  002e7	72 2c		 jb	 SHORT $LN912@CPythonEve
; File C:\Program Files\Microsoft Visual Studio\2022\Community\VC\Tools\MSVC\14.34.31933\include\xmemory

; 830  :         _Deallocate<_New_alignof<_Ty>>(_Ptr, sizeof(_Ty) * _Count);

  002e9	8b 55 d8	 mov	 edx, DWORD PTR $T40[ebp]
; File C:\Program Files\Microsoft Visual Studio\2022\Community\VC\Tools\MSVC\14.34.31933\include\xstring

; 5013 :             _Al.deallocate(_Ptr, _My_data._Myres + 1);

  002ec	41		 inc	 ecx
; File C:\Program Files\Microsoft Visual Studio\2022\Community\VC\Tools\MSVC\14.34.31933\include\xmemory

; 830  :         _Deallocate<_New_alignof<_Ty>>(_Ptr, sizeof(_Ty) * _Count);

  002ed	8b c2		 mov	 eax, edx

; 251  :         if (_Bytes >= _Big_allocation_threshold) { // boost the alignment of big allocations to help autovectorization

  002ef	81 f9 00 10 00
	00		 cmp	 ecx, 4096		; 00001000H
  002f5	72 14		 jb	 SHORT $LN924@CPythonEve

; 150  :     const uintptr_t _Ptr_container   = _Ptr_user[-1];

  002f7	8b 50 fc	 mov	 edx, DWORD PTR [eax-4]
  002fa	83 c1 23	 add	 ecx, 35			; 00000023H
  002fd	2b c2		 sub	 eax, edx

; 164  :     _STL_VERIFY(_Back_shift >= _Min_back_shift && _Back_shift <= _Non_user_size, "invalid argument");

  002ff	83 c0 fc	 add	 eax, -4			; fffffffcH
  00302	83 f8 1f	 cmp	 eax, 31			; 0000001fH
  00305	0f 87 03 0b 00
	00		 ja	 $LN1853@CPythonEve
$LN924@CPythonEve:

; 255  :         ::operator delete(_Ptr, _Bytes);

  0030b	51		 push	 ecx
  0030c	52		 push	 edx
  0030d	e8 00 00 00 00	 call	 ??3@YAXPAXI@Z		; operator delete
  00312	83 c4 08	 add	 esp, 8
$LN912@CPythonEve:
  00315	0f 57 c0	 xorps	 xmm0, xmm0
; File C:\Program Files\Microsoft Visual Studio\2022\Community\VC\Tools\MSVC\14.34.31933\include\xstring

; 2748 :             _My_data._Mysize = _Count;

  00318	c7 45 e8 04 00
	00 00		 mov	 DWORD PTR $T39[ebp+16], 4

; 2339 :         _CONSTEXPR20 _Bxty() noexcept : _Buf() {} // user-provided, for fancy pointers

  0031f	0f 11 45 d8	 movups	 XMMWORD PTR $T39[ebp], xmm0

; 2749 :             _My_data._Myres  = _BUF_SIZE - 1;

  00323	c7 45 ec 0f 00
	00 00		 mov	 DWORD PTR $T39[ebp+20], 15 ; 0000000fH

; 117  :         _CSTD memmove(_First1, _First2, _Count * sizeof(_Elem));

  0032a	c7 45 d8 57 41
	49 54		 mov	 DWORD PTR $T39[ebp], 1414086999 ; 54494157H
; File E:\Metin2_server\SolWayneSF v6\ClientVS22\source\UserInterface\PythonEventManager.cpp

; 1157 : 	EventTypeMap["WAIT"]=EVENT_TYPE_WAIT;

  00331	8d 45 d8	 lea	 eax, DWORD PTR $T39[ebp]
  00334	c6 45 fc 0a	 mov	 BYTE PTR __$EHRec$[ebp+8], 10 ; 0000000aH
  00338	50		 push	 eax
  00339	8b cf		 mov	 ecx, edi
  0033b	e8 00 00 00 00	 call	 ??A?$map@V?$basic_string@DU?$char_traits@D@std@@V?$allocator@D@2@@std@@HU?$less@V?$basic_string@DU?$char_traits@D@std@@V?$allocator@D@2@@std@@@2@V?$allocator@U?$pair@$$CBV?$basic_string@DU?$char_traits@D@std@@V?$allocator@D@2@@std@@H@std@@@2@@std@@QAEAAH$$QAV?$basic_string@DU?$char_traits@D@std@@V?$allocator@D@2@@1@@Z ; std::map<std::basic_string<char,std::char_traits<char>,std::allocator<char> >,int,std::less<std::basic_string<char,std::char_traits<char>,std::allocator<char> > >,std::allocator<std::pair<std::basic_string<char,std::char_traits<char>,std::allocator<char> > const ,int> > >::operator[]
  00340	c6 45 fc 05	 mov	 BYTE PTR __$EHRec$[ebp+8], 5
  00344	c7 00 04 00 00
	00		 mov	 DWORD PTR [eax], 4
; File C:\Program Files\Microsoft Visual Studio\2022\Community\VC\Tools\MSVC\14.34.31933\include\xstring

; 5008 :         if (_My_data._Large_string_engaged()) {

  0034a	8b 4d ec	 mov	 ecx, DWORD PTR $T39[ebp+20]
  0034d	83 f9 10	 cmp	 ecx, 16			; 00000010H
  00350	72 2c		 jb	 SHORT $LN1003@CPythonEve
; File C:\Program Files\Microsoft Visual Studio\2022\Community\VC\Tools\MSVC\14.34.31933\include\xmemory

; 830  :         _Deallocate<_New_alignof<_Ty>>(_Ptr, sizeof(_Ty) * _Count);

  00352	8b 55 d8	 mov	 edx, DWORD PTR $T39[ebp]
; File C:\Program Files\Microsoft Visual Studio\2022\Community\VC\Tools\MSVC\14.34.31933\include\xstring

; 5013 :             _Al.deallocate(_Ptr, _My_data._Myres + 1);

  00355	41		 inc	 ecx
; File C:\Program Files\Microsoft Visual Studio\2022\Community\VC\Tools\MSVC\14.34.31933\include\xmemory

; 830  :         _Deallocate<_New_alignof<_Ty>>(_Ptr, sizeof(_Ty) * _Count);

  00356	8b c2		 mov	 eax, edx

; 251  :         if (_Bytes >= _Big_allocation_threshold) { // boost the alignment of big allocations to help autovectorization

  00358	81 f9 00 10 00
	00		 cmp	 ecx, 4096		; 00001000H
  0035e	72 14		 jb	 SHORT $LN1015@CPythonEve

; 150  :     const uintptr_t _Ptr_container   = _Ptr_user[-1];

  00360	8b 50 fc	 mov	 edx, DWORD PTR [eax-4]
  00363	83 c1 23	 add	 ecx, 35			; 00000023H
  00366	2b c2		 sub	 eax, edx

; 164  :     _STL_VERIFY(_Back_shift >= _Min_back_shift && _Back_shift <= _Non_user_size, "invalid argument");

  00368	83 c0 fc	 add	 eax, -4			; fffffffcH
  0036b	83 f8 1f	 cmp	 eax, 31			; 0000001fH
  0036e	0f 87 9f 0a 00
	00		 ja	 $LN1854@CPythonEve
$LN1015@CPythonEve:

; 255  :         ::operator delete(_Ptr, _Bytes);

  00374	51		 push	 ecx
  00375	52		 push	 edx
  00376	e8 00 00 00 00	 call	 ??3@YAXPAXI@Z		; operator delete
  0037b	83 c4 08	 add	 esp, 8
$LN1003@CPythonEve:
; File C:\Program Files\Microsoft Visual Studio\2022\Community\VC\Tools\MSVC\14.34.31933\include\xstring

; 117  :         _CSTD memmove(_First1, _First2, _Count * sizeof(_Elem));

  0037e	a1 00 00 00 00	 mov	 eax, DWORD PTR ??_C@_05PONODPI@CLEAR@
  00383	0f 57 c0	 xorps	 xmm0, xmm0

; 2339 :         _CONSTEXPR20 _Bxty() noexcept : _Buf() {} // user-provided, for fancy pointers

  00386	0f 11 45 d8	 movups	 XMMWORD PTR $T38[ebp], xmm0

; 117  :         _CSTD memmove(_First1, _First2, _Count * sizeof(_Elem));

  0038a	89 45 d8	 mov	 DWORD PTR $T38[ebp], eax
  0038d	a0 04 00 00 00	 mov	 al, BYTE PTR ??_C@_05PONODPI@CLEAR@+4

; 2748 :             _My_data._Mysize = _Count;

  00392	c7 45 e8 05 00
	00 00		 mov	 DWORD PTR $T38[ebp+16], 5

; 2749 :             _My_data._Myres  = _BUF_SIZE - 1;

  00399	c7 45 ec 0f 00
	00 00		 mov	 DWORD PTR $T38[ebp+20], 15 ; 0000000fH

; 117  :         _CSTD memmove(_First1, _First2, _Count * sizeof(_Elem));

  003a0	88 45 dc	 mov	 BYTE PTR $T38[ebp+4], al
; File E:\Metin2_server\SolWayneSF v6\ClientVS22\source\UserInterface\PythonEventManager.cpp

; 1158 : 	EventTypeMap["CLEAR"]=EVENT_TYPE_CLEAR;

  003a3	8d 45 d8	 lea	 eax, DWORD PTR $T38[ebp]
  003a6	c6 45 fc 0b	 mov	 BYTE PTR __$EHRec$[ebp+8], 11 ; 0000000bH
  003aa	50		 push	 eax
  003ab	8b cf		 mov	 ecx, edi
  003ad	e8 00 00 00 00	 call	 ??A?$map@V?$basic_string@DU?$char_traits@D@std@@V?$allocator@D@2@@std@@HU?$less@V?$basic_string@DU?$char_traits@D@std@@V?$allocator@D@2@@std@@@2@V?$allocator@U?$pair@$$CBV?$basic_string@DU?$char_traits@D@std@@V?$allocator@D@2@@std@@H@std@@@2@@std@@QAEAAH$$QAV?$basic_string@DU?$char_traits@D@std@@V?$allocator@D@2@@1@@Z ; std::map<std::basic_string<char,std::char_traits<char>,std::allocator<char> >,int,std::less<std::basic_string<char,std::char_traits<char>,std::allocator<char> > >,std::allocator<std::pair<std::basic_string<char,std::char_traits<char>,std::allocator<char> > const ,int> > >::operator[]
  003b2	c6 45 fc 05	 mov	 BYTE PTR __$EHRec$[ebp+8], 5
  003b6	c7 00 05 00 00
	00		 mov	 DWORD PTR [eax], 5
; File C:\Program Files\Microsoft Visual Studio\2022\Community\VC\Tools\MSVC\14.34.31933\include\xstring

; 5008 :         if (_My_data._Large_string_engaged()) {

  003bc	8b 4d ec	 mov	 ecx, DWORD PTR $T38[ebp+20]
  003bf	83 f9 10	 cmp	 ecx, 16			; 00000010H
  003c2	72 2c		 jb	 SHORT $LN1094@CPythonEve
; File C:\Program Files\Microsoft Visual Studio\2022\Community\VC\Tools\MSVC\14.34.31933\include\xmemory

; 830  :         _Deallocate<_New_alignof<_Ty>>(_Ptr, sizeof(_Ty) * _Count);

  003c4	8b 55 d8	 mov	 edx, DWORD PTR $T38[ebp]
; File C:\Program Files\Microsoft Visual Studio\2022\Community\VC\Tools\MSVC\14.34.31933\include\xstring

; 5013 :             _Al.deallocate(_Ptr, _My_data._Myres + 1);

  003c7	41		 inc	 ecx
; File C:\Program Files\Microsoft Visual Studio\2022\Community\VC\Tools\MSVC\14.34.31933\include\xmemory

; 830  :         _Deallocate<_New_alignof<_Ty>>(_Ptr, sizeof(_Ty) * _Count);

  003c8	8b c2		 mov	 eax, edx

; 251  :         if (_Bytes >= _Big_allocation_threshold) { // boost the alignment of big allocations to help autovectorization

  003ca	81 f9 00 10 00
	00		 cmp	 ecx, 4096		; 00001000H
  003d0	72 14		 jb	 SHORT $LN1106@CPythonEve

; 150  :     const uintptr_t _Ptr_container   = _Ptr_user[-1];

  003d2	8b 50 fc	 mov	 edx, DWORD PTR [eax-4]
  003d5	83 c1 23	 add	 ecx, 35			; 00000023H
  003d8	2b c2		 sub	 eax, edx

; 164  :     _STL_VERIFY(_Back_shift >= _Min_back_shift && _Back_shift <= _Non_user_size, "invalid argument");

  003da	83 c0 fc	 add	 eax, -4			; fffffffcH
  003dd	83 f8 1f	 cmp	 eax, 31			; 0000001fH
  003e0	0f 87 32 0a 00
	00		 ja	 $LN1855@CPythonEve
$LN1106@CPythonEve:

; 255  :         ::operator delete(_Ptr, _Bytes);

  003e6	51		 push	 ecx
  003e7	52		 push	 edx
  003e8	e8 00 00 00 00	 call	 ??3@YAXPAXI@Z		; operator delete
  003ed	83 c4 08	 add	 esp, 8
$LN1094@CPythonEve:
; File C:\Program Files\Microsoft Visual Studio\2022\Community\VC\Tools\MSVC\14.34.31933\include\xstring

; 2674 :         _Construct<_Construct_strategy::_From_ptr>(_Ptr, _Convert_size<size_type>(_Traits::length(_Ptr)));

  003f0	6a 08		 push	 8
  003f2	0f 57 c0	 xorps	 xmm0, xmm0

; 2348 :     size_type _Mysize = 0; // current length of string

  003f5	c7 45 e8 00 00
	00 00		 mov	 DWORD PTR $T37[ebp+16], 0

; 2674 :         _Construct<_Construct_strategy::_From_ptr>(_Ptr, _Convert_size<size_type>(_Traits::length(_Ptr)));

  003fc	68 00 00 00 00	 push	 OFFSET ??_C@_08MDIDLFIL@QUESTION@
  00401	8d 4d d8	 lea	 ecx, DWORD PTR $T37[ebp]

; 2349 :     size_type _Myres  = 0; // current storage reserved for string

  00404	c7 45 ec 00 00
	00 00		 mov	 DWORD PTR $T37[ebp+20], 0

; 2339 :         _CONSTEXPR20 _Bxty() noexcept : _Buf() {} // user-provided, for fancy pointers

  0040b	0f 11 45 d8	 movups	 XMMWORD PTR $T37[ebp], xmm0

; 2674 :         _Construct<_Construct_strategy::_From_ptr>(_Ptr, _Convert_size<size_type>(_Traits::length(_Ptr)));

  0040f	e8 00 00 00 00	 call	 ??$_Construct@$00PBD@?$basic_string@DU?$char_traits@D@std@@V?$allocator@D@2@@std@@AAEXQBDI@Z ; std::basic_string<char,std::char_traits<char>,std::allocator<char> >::_Construct<1,char const *>
; File E:\Metin2_server\SolWayneSF v6\ClientVS22\source\UserInterface\PythonEventManager.cpp

; 1159 : 	EventTypeMap["QUESTION"]=EVENT_TYPE_QUESTION;

  00414	8d 45 d8	 lea	 eax, DWORD PTR $T37[ebp]
  00417	c6 45 fc 0c	 mov	 BYTE PTR __$EHRec$[ebp+8], 12 ; 0000000cH
  0041b	50		 push	 eax
  0041c	8b cf		 mov	 ecx, edi
  0041e	e8 00 00 00 00	 call	 ??A?$map@V?$basic_string@DU?$char_traits@D@std@@V?$allocator@D@2@@std@@HU?$less@V?$basic_string@DU?$char_traits@D@std@@V?$allocator@D@2@@std@@@2@V?$allocator@U?$pair@$$CBV?$basic_string@DU?$char_traits@D@std@@V?$allocator@D@2@@std@@H@std@@@2@@std@@QAEAAH$$QAV?$basic_string@DU?$char_traits@D@std@@V?$allocator@D@2@@1@@Z ; std::map<std::basic_string<char,std::char_traits<char>,std::allocator<char> >,int,std::less<std::basic_string<char,std::char_traits<char>,std::allocator<char> > >,std::allocator<std::pair<std::basic_string<char,std::char_traits<char>,std::allocator<char> > const ,int> > >::operator[]
  00423	c6 45 fc 05	 mov	 BYTE PTR __$EHRec$[ebp+8], 5
  00427	c7 00 06 00 00
	00		 mov	 DWORD PTR [eax], 6
; File C:\Program Files\Microsoft Visual Studio\2022\Community\VC\Tools\MSVC\14.34.31933\include\xstring

; 5008 :         if (_My_data._Large_string_engaged()) {

  0042d	8b 4d ec	 mov	 ecx, DWORD PTR $T37[ebp+20]
  00430	83 f9 10	 cmp	 ecx, 16			; 00000010H
  00433	72 2c		 jb	 SHORT $LN1135@CPythonEve
; File C:\Program Files\Microsoft Visual Studio\2022\Community\VC\Tools\MSVC\14.34.31933\include\xmemory

; 830  :         _Deallocate<_New_alignof<_Ty>>(_Ptr, sizeof(_Ty) * _Count);

  00435	8b 55 d8	 mov	 edx, DWORD PTR $T37[ebp]
; File C:\Program Files\Microsoft Visual Studio\2022\Community\VC\Tools\MSVC\14.34.31933\include\xstring

; 5013 :             _Al.deallocate(_Ptr, _My_data._Myres + 1);

  00438	41		 inc	 ecx
; File C:\Program Files\Microsoft Visual Studio\2022\Community\VC\Tools\MSVC\14.34.31933\include\xmemory

; 830  :         _Deallocate<_New_alignof<_Ty>>(_Ptr, sizeof(_Ty) * _Count);

  00439	8b c2		 mov	 eax, edx

; 251  :         if (_Bytes >= _Big_allocation_threshold) { // boost the alignment of big allocations to help autovectorization

  0043b	81 f9 00 10 00
	00		 cmp	 ecx, 4096		; 00001000H
  00441	72 14		 jb	 SHORT $LN1147@CPythonEve

; 150  :     const uintptr_t _Ptr_container   = _Ptr_user[-1];

  00443	8b 50 fc	 mov	 edx, DWORD PTR [eax-4]
  00446	83 c1 23	 add	 ecx, 35			; 00000023H
  00449	2b c2		 sub	 eax, edx

; 164  :     _STL_VERIFY(_Back_shift >= _Min_back_shift && _Back_shift <= _Non_user_size, "invalid argument");

  0044b	83 c0 fc	 add	 eax, -4			; fffffffcH
  0044e	83 f8 1f	 cmp	 eax, 31			; 0000001fH
  00451	0f 87 c6 09 00
	00		 ja	 $LN1856@CPythonEve
$LN1147@CPythonEve:

; 255  :         ::operator delete(_Ptr, _Bytes);

  00457	51		 push	 ecx
  00458	52		 push	 edx
  00459	e8 00 00 00 00	 call	 ??3@YAXPAXI@Z		; operator delete
  0045e	83 c4 08	 add	 esp, 8
$LN1135@CPythonEve:
; File C:\Program Files\Microsoft Visual Studio\2022\Community\VC\Tools\MSVC\14.34.31933\include\xstring

; 2674 :         _Construct<_Construct_strategy::_From_ptr>(_Ptr, _Convert_size<size_type>(_Traits::length(_Ptr)));

  00461	6a 04		 push	 4
  00463	0f 57 c0	 xorps	 xmm0, xmm0

; 2348 :     size_type _Mysize = 0; // current length of string

  00466	c7 45 e8 00 00
	00 00		 mov	 DWORD PTR $T36[ebp+16], 0

; 2674 :         _Construct<_Construct_strategy::_From_ptr>(_Ptr, _Convert_size<size_type>(_Traits::length(_Ptr)));

  0046d	68 00 00 00 00	 push	 OFFSET ??_C@_04MOKMKBJN@NEXT@
  00472	8d 4d d8	 lea	 ecx, DWORD PTR $T36[ebp]

; 2349 :     size_type _Myres  = 0; // current storage reserved for string

  00475	c7 45 ec 00 00
	00 00		 mov	 DWORD PTR $T36[ebp+20], 0

; 2339 :         _CONSTEXPR20 _Bxty() noexcept : _Buf() {} // user-provided, for fancy pointers

  0047c	0f 11 45 d8	 movups	 XMMWORD PTR $T36[ebp], xmm0

; 2674 :         _Construct<_Construct_strategy::_From_ptr>(_Ptr, _Convert_size<size_type>(_Traits::length(_Ptr)));

  00480	e8 00 00 00 00	 call	 ??$_Construct@$00PBD@?$basic_string@DU?$char_traits@D@std@@V?$allocator@D@2@@std@@AAEXQBDI@Z ; std::basic_string<char,std::char_traits<char>,std::allocator<char> >::_Construct<1,char const *>
; File E:\Metin2_server\SolWayneSF v6\ClientVS22\source\UserInterface\PythonEventManager.cpp

; 1160 : 	EventTypeMap["NEXT"]=EVENT_TYPE_NEXT;

  00485	8d 45 d8	 lea	 eax, DWORD PTR $T36[ebp]
  00488	c6 45 fc 0d	 mov	 BYTE PTR __$EHRec$[ebp+8], 13 ; 0000000dH
  0048c	50		 push	 eax
  0048d	8b cf		 mov	 ecx, edi
  0048f	e8 00 00 00 00	 call	 ??A?$map@V?$basic_string@DU?$char_traits@D@std@@V?$allocator@D@2@@std@@HU?$less@V?$basic_string@DU?$char_traits@D@std@@V?$allocator@D@2@@std@@@2@V?$allocator@U?$pair@$$CBV?$basic_string@DU?$char_traits@D@std@@V?$allocator@D@2@@std@@H@std@@@2@@std@@QAEAAH$$QAV?$basic_string@DU?$char_traits@D@std@@V?$allocator@D@2@@1@@Z ; std::map<std::basic_string<char,std::char_traits<char>,std::allocator<char> >,int,std::less<std::basic_string<char,std::char_traits<char>,std::allocator<char> > >,std::allocator<std::pair<std::basic_string<char,std::char_traits<char>,std::allocator<char> > const ,int> > >::operator[]
  00494	c6 45 fc 05	 mov	 BYTE PTR __$EHRec$[ebp+8], 5
  00498	c7 00 07 00 00
	00		 mov	 DWORD PTR [eax], 7
; File C:\Program Files\Microsoft Visual Studio\2022\Community\VC\Tools\MSVC\14.34.31933\include\xstring

; 5008 :         if (_My_data._Large_string_engaged()) {

  0049e	8b 4d ec	 mov	 ecx, DWORD PTR $T36[ebp+20]
  004a1	83 f9 10	 cmp	 ecx, 16			; 00000010H
  004a4	72 2c		 jb	 SHORT $LN1176@CPythonEve
; File C:\Program Files\Microsoft Visual Studio\2022\Community\VC\Tools\MSVC\14.34.31933\include\xmemory

; 830  :         _Deallocate<_New_alignof<_Ty>>(_Ptr, sizeof(_Ty) * _Count);

  004a6	8b 55 d8	 mov	 edx, DWORD PTR $T36[ebp]
; File C:\Program Files\Microsoft Visual Studio\2022\Community\VC\Tools\MSVC\14.34.31933\include\xstring

; 5013 :             _Al.deallocate(_Ptr, _My_data._Myres + 1);

  004a9	41		 inc	 ecx
; File C:\Program Files\Microsoft Visual Studio\2022\Community\VC\Tools\MSVC\14.34.31933\include\xmemory

; 830  :         _Deallocate<_New_alignof<_Ty>>(_Ptr, sizeof(_Ty) * _Count);

  004aa	8b c2		 mov	 eax, edx

; 251  :         if (_Bytes >= _Big_allocation_threshold) { // boost the alignment of big allocations to help autovectorization

  004ac	81 f9 00 10 00
	00		 cmp	 ecx, 4096		; 00001000H
  004b2	72 14		 jb	 SHORT $LN1188@CPythonEve

; 150  :     const uintptr_t _Ptr_container   = _Ptr_user[-1];

  004b4	8b 50 fc	 mov	 edx, DWORD PTR [eax-4]
  004b7	83 c1 23	 add	 ecx, 35			; 00000023H
  004ba	2b c2		 sub	 eax, edx

; 164  :     _STL_VERIFY(_Back_shift >= _Min_back_shift && _Back_shift <= _Non_user_size, "invalid argument");

  004bc	83 c0 fc	 add	 eax, -4			; fffffffcH
  004bf	83 f8 1f	 cmp	 eax, 31			; 0000001fH
  004c2	0f 87 5a 09 00
	00		 ja	 $LN1857@CPythonEve
$LN1188@CPythonEve:

; 255  :         ::operator delete(_Ptr, _Bytes);

  004c8	51		 push	 ecx
  004c9	52		 push	 edx
  004ca	e8 00 00 00 00	 call	 ??3@YAXPAXI@Z		; operator delete
  004cf	83 c4 08	 add	 esp, 8
$LN1176@CPythonEve:
; File C:\Program Files\Microsoft Visual Studio\2022\Community\VC\Tools\MSVC\14.34.31933\include\xstring

; 2674 :         _Construct<_Construct_strategy::_From_ptr>(_Ptr, _Convert_size<size_type>(_Traits::length(_Ptr)));

  004d2	6a 04		 push	 4
  004d4	0f 57 c0	 xorps	 xmm0, xmm0

; 2348 :     size_type _Mysize = 0; // current length of string

  004d7	c7 45 e8 00 00
	00 00		 mov	 DWORD PTR $T35[ebp+16], 0

; 2674 :         _Construct<_Construct_strategy::_From_ptr>(_Ptr, _Convert_size<size_type>(_Traits::length(_Ptr)));

  004de	68 00 00 00 00	 push	 OFFSET ??_C@_04KANDKFIK@DONE@
  004e3	8d 4d d8	 lea	 ecx, DWORD PTR $T35[ebp]

; 2349 :     size_type _Myres  = 0; // current storage reserved for string

  004e6	c7 45 ec 00 00
	00 00		 mov	 DWORD PTR $T35[ebp+20], 0

; 2339 :         _CONSTEXPR20 _Bxty() noexcept : _Buf() {} // user-provided, for fancy pointers

  004ed	0f 11 45 d8	 movups	 XMMWORD PTR $T35[ebp], xmm0

; 2674 :         _Construct<_Construct_strategy::_From_ptr>(_Ptr, _Convert_size<size_type>(_Traits::length(_Ptr)));

  004f1	e8 00 00 00 00	 call	 ??$_Construct@$00PBD@?$basic_string@DU?$char_traits@D@std@@V?$allocator@D@2@@std@@AAEXQBDI@Z ; std::basic_string<char,std::char_traits<char>,std::allocator<char> >::_Construct<1,char const *>
; File E:\Metin2_server\SolWayneSF v6\ClientVS22\source\UserInterface\PythonEventManager.cpp

; 1161 : 	EventTypeMap["DONE"]=EVENT_TYPE_DONE;

  004f6	8d 45 d8	 lea	 eax, DWORD PTR $T35[ebp]
  004f9	c6 45 fc 0e	 mov	 BYTE PTR __$EHRec$[ebp+8], 14 ; 0000000eH
  004fd	50		 push	 eax
  004fe	8b cf		 mov	 ecx, edi
  00500	e8 00 00 00 00	 call	 ??A?$map@V?$basic_string@DU?$char_traits@D@std@@V?$allocator@D@2@@std@@HU?$less@V?$basic_string@DU?$char_traits@D@std@@V?$allocator@D@2@@std@@@2@V?$allocator@U?$pair@$$CBV?$basic_string@DU?$char_traits@D@std@@V?$allocator@D@2@@std@@H@std@@@2@@std@@QAEAAH$$QAV?$basic_string@DU?$char_traits@D@std@@V?$allocator@D@2@@1@@Z ; std::map<std::basic_string<char,std::char_traits<char>,std::allocator<char> >,int,std::less<std::basic_string<char,std::char_traits<char>,std::allocator<char> > >,std::allocator<std::pair<std::basic_string<char,std::char_traits<char>,std::allocator<char> > const ,int> > >::operator[]
  00505	c6 45 fc 05	 mov	 BYTE PTR __$EHRec$[ebp+8], 5
  00509	c7 00 08 00 00
	00		 mov	 DWORD PTR [eax], 8
; File C:\Program Files\Microsoft Visual Studio\2022\Community\VC\Tools\MSVC\14.34.31933\include\xstring

; 5008 :         if (_My_data._Large_string_engaged()) {

  0050f	8b 4d ec	 mov	 ecx, DWORD PTR $T35[ebp+20]
  00512	83 f9 10	 cmp	 ecx, 16			; 00000010H
  00515	72 2c		 jb	 SHORT $LN1217@CPythonEve
; File C:\Program Files\Microsoft Visual Studio\2022\Community\VC\Tools\MSVC\14.34.31933\include\xmemory

; 830  :         _Deallocate<_New_alignof<_Ty>>(_Ptr, sizeof(_Ty) * _Count);

  00517	8b 55 d8	 mov	 edx, DWORD PTR $T35[ebp]
; File C:\Program Files\Microsoft Visual Studio\2022\Community\VC\Tools\MSVC\14.34.31933\include\xstring

; 5013 :             _Al.deallocate(_Ptr, _My_data._Myres + 1);

  0051a	41		 inc	 ecx
; File C:\Program Files\Microsoft Visual Studio\2022\Community\VC\Tools\MSVC\14.34.31933\include\xmemory

; 830  :         _Deallocate<_New_alignof<_Ty>>(_Ptr, sizeof(_Ty) * _Count);

  0051b	8b c2		 mov	 eax, edx

; 251  :         if (_Bytes >= _Big_allocation_threshold) { // boost the alignment of big allocations to help autovectorization

  0051d	81 f9 00 10 00
	00		 cmp	 ecx, 4096		; 00001000H
  00523	72 14		 jb	 SHORT $LN1229@CPythonEve

; 150  :     const uintptr_t _Ptr_container   = _Ptr_user[-1];

  00525	8b 50 fc	 mov	 edx, DWORD PTR [eax-4]
  00528	83 c1 23	 add	 ecx, 35			; 00000023H
  0052b	2b c2		 sub	 eax, edx

; 164  :     _STL_VERIFY(_Back_shift >= _Min_back_shift && _Back_shift <= _Non_user_size, "invalid argument");

  0052d	83 c0 fc	 add	 eax, -4			; fffffffcH
  00530	83 f8 1f	 cmp	 eax, 31			; 0000001fH
  00533	0f 87 ee 08 00
	00		 ja	 $LN1858@CPythonEve
$LN1229@CPythonEve:

; 255  :         ::operator delete(_Ptr, _Bytes);

  00539	51		 push	 ecx
  0053a	52		 push	 edx
  0053b	e8 00 00 00 00	 call	 ??3@YAXPAXI@Z		; operator delete
  00540	83 c4 08	 add	 esp, 8
$LN1217@CPythonEve:
; File C:\Program Files\Microsoft Visual Studio\2022\Community\VC\Tools\MSVC\14.34.31933\include\xstring

; 2674 :         _Construct<_Construct_strategy::_From_ptr>(_Ptr, _Convert_size<size_type>(_Traits::length(_Ptr)));

  00543	6a 09		 push	 9
  00545	0f 57 c0	 xorps	 xmm0, xmm0

