; Listing generated by Microsoft (R) Optimizing Compiler Version 19.34.31937.0 

	TITLE	e:\metin2_server\solwaynesf v6\clientvs22\vs_files\userinterface\distribute\pythonguild.obj
	.686P
	.XMM
	include listing.inc
	.model	flat

INCLUDELIB OLDNAMES

PUBLIC	??_C@_06HCBIANPB@Noname@			; `string'
PUBLIC	??_C@_03MKDAGEFG@iss@				; `string'
PUBLIC	??_C@_01OGPIMHDM@?$DP@				; `string'
PUBLIC	??_C@_07IGDHICNG@isiiiii@			; `string'
PUBLIC	??_C@_0O@IGOIDFGB@IsGuildEnable@		; `string'
PUBLIC	??_C@_0BA@BGLAIPMB@GuildIDToMarkID@		; `string'
PUBLIC	??_C@_0BN@OMLCOGDL@GetMarkImageFilenameByMarkID@ ; `string'
PUBLIC	??_C@_0BF@BKGLMLAL@GetMarkIndexByMarkID@	; `string'
PUBLIC	??_C@_0N@EIPGMIIH@HasGuildLand@			; `string'
PUBLIC	??_C@_0N@CECGOPDG@GetGuildName@			; `string'
PUBLIC	??_C@_0BD@CMPDBKGA@GetGuildMasterName@		; `string'
PUBLIC	??_C@_0BC@DLHGICPJ@GetEnemyGuildName@		; `string'
PUBLIC	??_C@_0O@BKHCBCOI@GetGuildMoney@		; `string'
PUBLIC	??_C@_0BK@OMNAMAPH@GetGuildBoardCommentCount@	; `string'
PUBLIC	??_C@_0BJ@DAPPLJDP@GetGuildBoardCommentData@	; `string'
PUBLIC	??_C@_0O@DJIGEAII@GetGuildLevel@		; `string'
PUBLIC	??_C@_0BD@OLJDCPCG@GetGuildExperience@		; `string'
PUBLIC	??_C@_0BE@MKPPOKLM@GetGuildMemberCount@		; `string'
PUBLIC	??_C@_0BL@KCOANOCD@GetGuildMemberLevelSummary@	; `string'
PUBLIC	??_C@_0BL@FPOPEMBA@GetGuildMemberLevelAverage@	; `string'
PUBLIC	??_C@_0BK@FHGMGKIK@GetGuildExperienceSummary@	; `string'
PUBLIC	??_C@_0BD@OGJHNFOJ@GetGuildSkillPoint@		; `string'
PUBLIC	??_C@_0BE@EIFJKAMD@GetDragonPowerPoint@		; `string'
PUBLIC	??_C@_0BD@FOAHDPNJ@GetGuildSkillLevel@		; `string'
PUBLIC	??_C@_0O@CNCBAIPN@GetSkillLevel@		; `string'
PUBLIC	??_C@_0BE@GLCFFECD@GetSkillMaxLevelNew@		; `string'
PUBLIC	??_C@_0O@KBJMFDGJ@SetSkillIndex@		; `string'
PUBLIC	??_C@_0O@NOICOABO@GetSkillIndex@		; `string'
PUBLIC	??_C@_0N@FGDKEBNC@GetGradeData@			; `string'
PUBLIC	??_C@_0N@GLBBAEII@GetGradeName@			; `string'
PUBLIC	??_C@_0P@PGIPCIFK@GetMemberCount@		; `string'
PUBLIC	??_C@_0O@LFMDGJCL@GetMemberData@		; `string'
PUBLIC	??_C@_0BB@LKNIPIHL@MemberIndexToPID@		; `string'
PUBLIC	??_C@_08JHGFNMOF@IsMember@			; `string'
PUBLIC	??_C@_0P@DNENDIKL@IsMemberByName@		; `string'
PUBLIC	??_C@_0BH@HJLEBIMC@MainPlayerHasAuthority@	; `string'
PUBLIC	??_C@_05GMIMCKGP@guild@				; `string'
PUBLIC	??_C@_0BA@CDIOGLAE@AUTH_ADD_MEMBER@		; `string'
PUBLIC	??_C@_0BD@EFPDFGGE@AUTH_REMOVE_MEMBER@		; `string'
PUBLIC	??_C@_0M@EBNBJFNG@AUTH_NOTICE@			; `string'
PUBLIC	??_C@_0L@LKLBOFFH@AUTH_SKILL@			; `string'
PUBLIC	??_C@_0BL@EBPMCBIK@ENEMY_GUILD_SLOT_MAX_COUNT@	; `string'
PUBLIC	??_R2CPythonGuild@@8				; CPythonGuild::`RTTI Base Class Array'
PUBLIC	??_R2?$CSingleton@VCPythonGuild@@@@8		; CSingleton<CPythonGuild>::`RTTI Base Class Array'
PUBLIC	??_R1A@?0A@EA@CPythonGuild@@8			; CPythonGuild::`RTTI Base Class Descriptor at (0,-1,0,64)'
PUBLIC	??_R1A@?0A@EA@?$CSingleton@VCPythonGuild@@@@8	; CSingleton<CPythonGuild>::`RTTI Base Class Descriptor at (0,-1,0,64)'
PUBLIC	??_R3?$CSingleton@VCPythonGuild@@@@8		; CSingleton<CPythonGuild>::`RTTI Class Hierarchy Descriptor'
PUBLIC	??_R0?AV?$CSingleton@VCPythonGuild@@@@@8	; CSingleton<CPythonGuild> `RTTI Type Descriptor'
PUBLIC	??_R3CPythonGuild@@8				; CPythonGuild::`RTTI Class Hierarchy Descriptor'
PUBLIC	??_R0?AVCPythonGuild@@@8			; CPythonGuild `RTTI Type Descriptor'
PUBLIC	??_R4?$CSingleton@VCPythonGuild@@@@6B@		; CSingleton<CPythonGuild>::`RTTI Complete Object Locator'
PUBLIC	??_R4CPythonGuild@@6B@				; CPythonGuild::`RTTI Complete Object Locator'
PUBLIC	??_7?$CSingleton@VCPythonGuild@@@@6B@		; CSingleton<CPythonGuild>::`vftable'
PUBLIC	?ms_singleton@?$CSingleton@VCPythonGuild@@@@0PAVCPythonGuild@@A ; CSingleton<CPythonGuild>::ms_singleton
PUBLIC	??_7CPythonGuild@@6B@				; CPythonGuild::`vftable'
;	COMDAT ?ms_singleton@?$CSingleton@VCPythonGuild@@@@0PAVCPythonGuild@@A
_BSS	SEGMENT
?ms_singleton@?$CSingleton@VCPythonGuild@@@@0PAVCPythonGuild@@A DD 01H DUP (?) ; CSingleton<CPythonGuild>::ms_singleton
_BSS	ENDS
;	COMDAT ??_7CPythonGuild@@6B@
CONST	SEGMENT
??_7CPythonGuild@@6B@ DD FLAT:??_R4CPythonGuild@@6B@	; CPythonGuild::`vftable'
	DD	FLAT:??_ECPythonGuild@@UAEPAXI@Z
CONST	ENDS
;	COMDAT ?s_methods@?1??initguild@@YAXXZ@4PAUPyMethodDef@@A
_DATA	SEGMENT
?s_methods@?1??initguild@@YAXXZ@4PAUPyMethodDef@@A DD FLAT:??_C@_0O@IGOIDFGB@IsGuildEnable@ ; `initguild'::`2'::s_methods
	DD	FLAT:?guildIsGuildEnable@@YAPAU_object@@PAU1@0@Z
	DD	01H
	ORG $+4
	DD	FLAT:??_C@_0BA@BGLAIPMB@GuildIDToMarkID@
	DD	FLAT:?guildGuildIDToMarkID@@YAPAU_object@@PAU1@0@Z
	DD	01H
	ORG $+4
	DD	FLAT:??_C@_0BN@OMLCOGDL@GetMarkImageFilenameByMarkID@
	DD	FLAT:?guildGetMarkImageFilenameByMarkID@@YAPAU_object@@PAU1@0@Z
	DD	01H
	ORG $+4
	DD	FLAT:??_C@_0BF@BKGLMLAL@GetMarkIndexByMarkID@
	DD	FLAT:?guildGetMarkIndexByMarkID@@YAPAU_object@@PAU1@0@Z
	DD	01H
	ORG $+4
	DD	FLAT:??_C@_0L@EAKBLDCO@GetGuildID@
	DD	FLAT:?guildGetGuildID@@YAPAU_object@@PAU1@0@Z
	DD	01H
	ORG $+4
	DD	FLAT:??_C@_0N@EIPGMIIH@HasGuildLand@
	DD	FLAT:?guildHasGuildLand@@YAPAU_object@@PAU1@0@Z
	DD	01H
	ORG $+4
	DD	FLAT:??_C@_0N@CECGOPDG@GetGuildName@
	DD	FLAT:?guildGetGuildName@@YAPAU_object@@PAU1@0@Z
	DD	01H
	ORG $+4
	DD	FLAT:??_C@_0BD@CMPDBKGA@GetGuildMasterName@
	DD	FLAT:?guildGetGuildMasterName@@YAPAU_object@@PAU1@0@Z
	DD	01H
	ORG $+4
	DD	FLAT:??_C@_0BC@DLHGICPJ@GetEnemyGuildName@
	DD	FLAT:?guildGetEnemyGuildName@@YAPAU_object@@PAU1@0@Z
	DD	01H
	ORG $+4
	DD	FLAT:??_C@_0O@BKHCBCOI@GetGuildMoney@
	DD	FLAT:?guildGetGuildMoney@@YAPAU_object@@PAU1@0@Z
	DD	01H
	ORG $+4
	DD	FLAT:??_C@_0BK@OMNAMAPH@GetGuildBoardCommentCount@
	DD	FLAT:?guildGetGuildBoardCommentCount@@YAPAU_object@@PAU1@0@Z
	DD	01H
	ORG $+4
	DD	FLAT:??_C@_0BJ@DAPPLJDP@GetGuildBoardCommentData@
	DD	FLAT:?guildGetGuildBoardCommentData@@YAPAU_object@@PAU1@0@Z
	DD	01H
	ORG $+4
	DD	FLAT:??_C@_0O@DJIGEAII@GetGuildLevel@
	DD	FLAT:?guildGetGuildLevel@@YAPAU_object@@PAU1@0@Z
	DD	01H
	ORG $+4
	DD	FLAT:??_C@_0BD@OLJDCPCG@GetGuildExperience@
	DD	FLAT:?guildGetGuildExperience@@YAPAU_object@@PAU1@0@Z
	DD	01H
	ORG $+4
	DD	FLAT:??_C@_0BE@MKPPOKLM@GetGuildMemberCount@
	DD	FLAT:?guildGetGuildMemberCount@@YAPAU_object@@PAU1@0@Z
	DD	01H
	ORG $+4
	DD	FLAT:??_C@_0BL@KCOANOCD@GetGuildMemberLevelSummary@
	DD	FLAT:?guildGetGuildMemberLevelSummary@@YAPAU_object@@PAU1@0@Z
	DD	01H
	ORG $+4
	DD	FLAT:??_C@_0BL@FPOPEMBA@GetGuildMemberLevelAverage@
	DD	FLAT:?guildGetGuildMemberLevelAverage@@YAPAU_object@@PAU1@0@Z
	DD	01H
	ORG $+4
	DD	FLAT:??_C@_0BK@FHGMGKIK@GetGuildExperienceSummary@
	DD	FLAT:?guildGetGuildExperienceSummary@@YAPAU_object@@PAU1@0@Z
	DD	01H
	ORG $+4
	DD	FLAT:??_C@_0BD@OGJHNFOJ@GetGuildSkillPoint@
	DD	FLAT:?guildGetGuildSkillPoint@@YAPAU_object@@PAU1@0@Z
	DD	01H
	ORG $+4
	DD	FLAT:??_C@_0BE@EIFJKAMD@GetDragonPowerPoint@
	DD	FLAT:?guildGetDragonPowerPoint@@YAPAU_object@@PAU1@0@Z
	DD	01H
	ORG $+4
	DD	FLAT:??_C@_0BD@FOAHDPNJ@GetGuildSkillLevel@
	DD	FLAT:?guildGetGuildSkillLevel@@YAPAU_object@@PAU1@0@Z
	DD	01H
	ORG $+4
	DD	FLAT:??_C@_0O@CNCBAIPN@GetSkillLevel@
	DD	FLAT:?guildGetSkillLevel@@YAPAU_object@@PAU1@0@Z
	DD	01H
	ORG $+4
	DD	FLAT:??_C@_0BE@GLCFFECD@GetSkillMaxLevelNew@
	DD	FLAT:?guildGetSkillMaxLevelNew@@YAPAU_object@@PAU1@0@Z
	DD	01H
	ORG $+4
	DD	FLAT:??_C@_0O@KBJMFDGJ@SetSkillIndex@
	DD	FLAT:?guildSetSkillIndex@@YAPAU_object@@PAU1@0@Z
	DD	01H
	ORG $+4
	DD	FLAT:??_C@_0O@NOICOABO@GetSkillIndex@
	DD	FLAT:?guildGetSkillIndex@@YAPAU_object@@PAU1@0@Z
	DD	01H
	ORG $+4
	DD	FLAT:??_C@_0N@FGDKEBNC@GetGradeData@
	DD	FLAT:?guildGetGradeData@@YAPAU_object@@PAU1@0@Z
	DD	01H
	ORG $+4
	DD	FLAT:??_C@_0N@GLBBAEII@GetGradeName@
	DD	FLAT:?guildGetGradeName@@YAPAU_object@@PAU1@0@Z
	DD	01H
	ORG $+4
	DD	FLAT:??_C@_0P@PGIPCIFK@GetMemberCount@
	DD	FLAT:?guildGetMemberCount@@YAPAU_object@@PAU1@0@Z
	DD	01H
	ORG $+4
	DD	FLAT:??_C@_0O@LFMDGJCL@GetMemberData@
	DD	FLAT:?guildGetMemberData@@YAPAU_object@@PAU1@0@Z
	DD	01H
	ORG $+4
	DD	FLAT:??_C@_0BB@LKNIPIHL@MemberIndexToPID@
	DD	FLAT:?guildMemberIndexToPID@@YAPAU_object@@PAU1@0@Z
	DD	01H
	ORG $+4
	DD	FLAT:??_C@_08JHGFNMOF@IsMember@
	DD	FLAT:?guildIsMember@@YAPAU_object@@PAU1@0@Z
	DD	01H
	ORG $+4
	DD	FLAT:??_C@_0P@DNENDIKL@IsMemberByName@
	DD	FLAT:?guildIsMemberByName@@YAPAU_object@@PAU1@0@Z
	DD	01H
	ORG $+4
	DD	FLAT:??_C@_0BH@HJLEBIMC@MainPlayerHasAuthority@
	DD	FLAT:?guildMainPlayerHasAuthority@@YAPAU_object@@PAU1@0@Z
	DD	01H
	ORG $+4
	DD	FLAT:??_C@_07BDCAJABG@Destroy@
	DD	FLAT:?guildDestroy@@YAPAU_object@@PAU1@0@Z
	DD	01H
	ORG $+4
	DD	00H
	DD	00H
	DD	00H
	ORG $+4
_DATA	ENDS
;	COMDAT ??_7?$CSingleton@VCPythonGuild@@@@6B@
CONST	SEGMENT
??_7?$CSingleton@VCPythonGuild@@@@6B@ DD FLAT:??_R4?$CSingleton@VCPythonGuild@@@@6B@ ; CSingleton<CPythonGuild>::`vftable'
	DD	FLAT:??_E?$CSingleton@VCPythonGuild@@@@UAEPAXI@Z
CONST	ENDS
;	COMDAT ??_R4CPythonGuild@@6B@
rdata$r	SEGMENT
??_R4CPythonGuild@@6B@ DD 00H				; CPythonGuild::`RTTI Complete Object Locator'
	DD	00H
	DD	00H
	DD	FLAT:??_R0?AVCPythonGuild@@@8
	DD	FLAT:??_R3CPythonGuild@@8
rdata$r	ENDS
;	COMDAT ??_R4?$CSingleton@VCPythonGuild@@@@6B@
rdata$r	SEGMENT
??_R4?$CSingleton@VCPythonGuild@@@@6B@ DD 00H		; CSingleton<CPythonGuild>::`RTTI Complete Object Locator'
	DD	00H
	DD	00H
	DD	FLAT:??_R0?AV?$CSingleton@VCPythonGuild@@@@@8
	DD	FLAT:??_R3?$CSingleton@VCPythonGuild@@@@8
rdata$r	ENDS
;	COMDAT ??_R0?AVCPythonGuild@@@8
data$rs	SEGMENT
??_R0?AVCPythonGuild@@@8 DD FLAT:??_7type_info@@6B@	; CPythonGuild `RTTI Type Descriptor'
	DD	00H
	DB	'.?AVCPythonGuild@@', 00H
data$rs	ENDS
;	COMDAT ??_R3CPythonGuild@@8
rdata$r	SEGMENT
??_R3CPythonGuild@@8 DD 00H				; CPythonGuild::`RTTI Class Hierarchy Descriptor'
	DD	00H
	DD	02H
	DD	FLAT:??_R2CPythonGuild@@8
rdata$r	ENDS
;	COMDAT ??_R0?AV?$CSingleton@VCPythonGuild@@@@@8
data$rs	SEGMENT
??_R0?AV?$CSingleton@VCPythonGuild@@@@@8 DD FLAT:??_7type_info@@6B@ ; CSingleton<CPythonGuild> `RTTI Type Descriptor'
	DD	00H
	DB	'.?AV?$CSingleton@VCPythonGuild@@@@', 00H
data$rs	ENDS
;	COMDAT ??_R3?$CSingleton@VCPythonGuild@@@@8
rdata$r	SEGMENT
??_R3?$CSingleton@VCPythonGuild@@@@8 DD 00H		; CSingleton<CPythonGuild>::`RTTI Class Hierarchy Descriptor'
	DD	00H
	DD	01H
	DD	FLAT:??_R2?$CSingleton@VCPythonGuild@@@@8
rdata$r	ENDS
;	COMDAT ??_R1A@?0A@EA@?$CSingleton@VCPythonGuild@@@@8
rdata$r	SEGMENT
??_R1A@?0A@EA@?$CSingleton@VCPythonGuild@@@@8 DD FLAT:??_R0?AV?$CSingleton@VCPythonGuild@@@@@8 ; CSingleton<CPythonGuild>::`RTTI Base Class Descriptor at (0,-1,0,64)'
	DD	00H
	DD	00H
	DD	0ffffffffH
	DD	00H
	DD	040H
	DD	FLAT:??_R3?$CSingleton@VCPythonGuild@@@@8
rdata$r	ENDS
;	COMDAT ??_R1A@?0A@EA@CPythonGuild@@8
rdata$r	SEGMENT
??_R1A@?0A@EA@CPythonGuild@@8 DD FLAT:??_R0?AVCPythonGuild@@@8 ; CPythonGuild::`RTTI Base Class Descriptor at (0,-1,0,64)'
	DD	01H
	DD	00H
	DD	0ffffffffH
	DD	00H
	DD	040H
	DD	FLAT:??_R3CPythonGuild@@8
rdata$r	ENDS
;	COMDAT ??_R2?$CSingleton@VCPythonGuild@@@@8
rdata$r	SEGMENT
??_R2?$CSingleton@VCPythonGuild@@@@8 DD FLAT:??_R1A@?0A@EA@?$CSingleton@VCPythonGuild@@@@8 ; CSingleton<CPythonGuild>::`RTTI Base Class Array'
rdata$r	ENDS
;	COMDAT ??_R2CPythonGuild@@8
rdata$r	SEGMENT
??_R2CPythonGuild@@8 DD FLAT:??_R1A@?0A@EA@CPythonGuild@@8 ; CPythonGuild::`RTTI Base Class Array'
	DD	FLAT:??_R1A@?0A@EA@?$CSingleton@VCPythonGuild@@@@8
rdata$r	ENDS
;	COMDAT ??_C@_0BL@EBPMCBIK@ENEMY_GUILD_SLOT_MAX_COUNT@
CONST	SEGMENT
??_C@_0BL@EBPMCBIK@ENEMY_GUILD_SLOT_MAX_COUNT@ DB 'ENEMY_GUILD_SLOT_MAX_C'
	DB	'OUNT', 00H					; `string'
CONST	ENDS
;	COMDAT ??_C@_0L@LKLBOFFH@AUTH_SKILL@
CONST	SEGMENT
??_C@_0L@LKLBOFFH@AUTH_SKILL@ DB 'AUTH_SKILL', 00H	; `string'
CONST	ENDS
;	COMDAT ??_C@_0M@EBNBJFNG@AUTH_NOTICE@
CONST	SEGMENT
??_C@_0M@EBNBJFNG@AUTH_NOTICE@ DB 'AUTH_NOTICE', 00H	; `string'
CONST	ENDS
;	COMDAT ??_C@_0BD@EFPDFGGE@AUTH_REMOVE_MEMBER@
CONST	SEGMENT
??_C@_0BD@EFPDFGGE@AUTH_REMOVE_MEMBER@ DB 'AUTH_REMOVE_MEMBER', 00H ; `string'
CONST	ENDS
;	COMDAT ??_C@_0BA@CDIOGLAE@AUTH_ADD_MEMBER@
CONST	SEGMENT
??_C@_0BA@CDIOGLAE@AUTH_ADD_MEMBER@ DB 'AUTH_ADD_MEMBER', 00H ; `string'
CONST	ENDS
;	COMDAT ??_C@_05GMIMCKGP@guild@
CONST	SEGMENT
??_C@_05GMIMCKGP@guild@ DB 'guild', 00H			; `string'
CONST	ENDS
;	COMDAT ??_C@_0BH@HJLEBIMC@MainPlayerHasAuthority@
CONST	SEGMENT
??_C@_0BH@HJLEBIMC@MainPlayerHasAuthority@ DB 'MainPlayerHasAuthority', 00H ; `string'
CONST	ENDS
;	COMDAT ??_C@_0P@DNENDIKL@IsMemberByName@
CONST	SEGMENT
??_C@_0P@DNENDIKL@IsMemberByName@ DB 'IsMemberByName', 00H ; `string'
CONST	ENDS
;	COMDAT ??_C@_08JHGFNMOF@IsMember@
CONST	SEGMENT
??_C@_08JHGFNMOF@IsMember@ DB 'IsMember', 00H		; `string'
CONST	ENDS
;	COMDAT ??_C@_0BB@LKNIPIHL@MemberIndexToPID@
CONST	SEGMENT
??_C@_0BB@LKNIPIHL@MemberIndexToPID@ DB 'MemberIndexToPID', 00H ; `string'
CONST	ENDS
;	COMDAT ??_C@_0O@LFMDGJCL@GetMemberData@
CONST	SEGMENT
??_C@_0O@LFMDGJCL@GetMemberData@ DB 'GetMemberData', 00H ; `string'
CONST	ENDS
;	COMDAT ??_C@_0P@PGIPCIFK@GetMemberCount@
CONST	SEGMENT
??_C@_0P@PGIPCIFK@GetMemberCount@ DB 'GetMemberCount', 00H ; `string'
CONST	ENDS
;	COMDAT ??_C@_0N@GLBBAEII@GetGradeName@
CONST	SEGMENT
??_C@_0N@GLBBAEII@GetGradeName@ DB 'GetGradeName', 00H	; `string'
CONST	ENDS
;	COMDAT ??_C@_0N@FGDKEBNC@GetGradeData@
CONST	SEGMENT
??_C@_0N@FGDKEBNC@GetGradeData@ DB 'GetGradeData', 00H	; `string'
CONST	ENDS
;	COMDAT ??_C@_0O@NOICOABO@GetSkillIndex@
CONST	SEGMENT
??_C@_0O@NOICOABO@GetSkillIndex@ DB 'GetSkillIndex', 00H ; `string'
CONST	ENDS
;	COMDAT ??_C@_0O@KBJMFDGJ@SetSkillIndex@
CONST	SEGMENT
??_C@_0O@KBJMFDGJ@SetSkillIndex@ DB 'SetSkillIndex', 00H ; `string'
CONST	ENDS
;	COMDAT ??_C@_0BE@GLCFFECD@GetSkillMaxLevelNew@
CONST	SEGMENT
??_C@_0BE@GLCFFECD@GetSkillMaxLevelNew@ DB 'GetSkillMaxLevelNew', 00H ; `string'
CONST	ENDS
;	COMDAT ??_C@_0O@CNCBAIPN@GetSkillLevel@
CONST	SEGMENT
??_C@_0O@CNCBAIPN@GetSkillLevel@ DB 'GetSkillLevel', 00H ; `string'
CONST	ENDS
;	COMDAT ??_C@_0BD@FOAHDPNJ@GetGuildSkillLevel@
CONST	SEGMENT
??_C@_0BD@FOAHDPNJ@GetGuildSkillLevel@ DB 'GetGuildSkillLevel', 00H ; `string'
CONST	ENDS
;	COMDAT ??_C@_0BE@EIFJKAMD@GetDragonPowerPoint@
CONST	SEGMENT
??_C@_0BE@EIFJKAMD@GetDragonPowerPoint@ DB 'GetDragonPowerPoint', 00H ; `string'
CONST	ENDS
;	COMDAT ??_C@_0BD@OGJHNFOJ@GetGuildSkillPoint@
CONST	SEGMENT
??_C@_0BD@OGJHNFOJ@GetGuildSkillPoint@ DB 'GetGuildSkillPoint', 00H ; `string'
CONST	ENDS
;	COMDAT ??_C@_0BK@FHGMGKIK@GetGuildExperienceSummary@
CONST	SEGMENT
??_C@_0BK@FHGMGKIK@GetGuildExperienceSummary@ DB 'GetGuildExperienceSumma'
	DB	'ry', 00H					; `string'
CONST	ENDS
;	COMDAT ??_C@_0BL@FPOPEMBA@GetGuildMemberLevelAverage@
CONST	SEGMENT
??_C@_0BL@FPOPEMBA@GetGuildMemberLevelAverage@ DB 'GetGuildMemberLevelAve'
	DB	'rage', 00H					; `string'
CONST	ENDS
;	COMDAT ??_C@_0BL@KCOANOCD@GetGuildMemberLevelSummary@
CONST	SEGMENT
??_C@_0BL@KCOANOCD@GetGuildMemberLevelSummary@ DB 'GetGuildMemberLevelSum'
	DB	'mary', 00H					; `string'
CONST	ENDS
;	COMDAT ??_C@_0BE@MKPPOKLM@GetGuildMemberCount@
CONST	SEGMENT
??_C@_0BE@MKPPOKLM@GetGuildMemberCount@ DB 'GetGuildMemberCount', 00H ; `string'
CONST	ENDS
;	COMDAT ??_C@_0BD@OLJDCPCG@GetGuildExperience@
CONST	SEGMENT
??_C@_0BD@OLJDCPCG@GetGuildExperience@ DB 'GetGuildExperience', 00H ; `string'
CONST	ENDS
;	COMDAT ??_C@_0O@DJIGEAII@GetGuildLevel@
CONST	SEGMENT
??_C@_0O@DJIGEAII@GetGuildLevel@ DB 'GetGuildLevel', 00H ; `string'
CONST	ENDS
;	COMDAT ??_C@_0BJ@DAPPLJDP@GetGuildBoardCommentData@
CONST	SEGMENT
??_C@_0BJ@DAPPLJDP@GetGuildBoardCommentData@ DB 'GetGuildBoardCommentData'
	DB	00H						; `string'
CONST	ENDS
;	COMDAT ??_C@_0BK@OMNAMAPH@GetGuildBoardCommentCount@
CONST	SEGMENT
??_C@_0BK@OMNAMAPH@GetGuildBoardCommentCount@ DB 'GetGuildBoardCommentCou'
	DB	'nt', 00H					; `string'
CONST	ENDS
;	COMDAT ??_C@_0O@BKHCBCOI@GetGuildMoney@
CONST	SEGMENT
??_C@_0O@BKHCBCOI@GetGuildMoney@ DB 'GetGuildMoney', 00H ; `string'
CONST	ENDS
;	COMDAT ??_C@_0BC@DLHGICPJ@GetEnemyGuildName@
CONST	SEGMENT
??_C@_0BC@DLHGICPJ@GetEnemyGuildName@ DB 'GetEnemyGuildName', 00H ; `string'
CONST	ENDS
;	COMDAT ??_C@_0BD@CMPDBKGA@GetGuildMasterName@
CONST	SEGMENT
??_C@_0BD@CMPDBKGA@GetGuildMasterName@ DB 'GetGuildMasterName', 00H ; `string'
CONST	ENDS
;	COMDAT ??_C@_0N@CECGOPDG@GetGuildName@
CONST	SEGMENT
??_C@_0N@CECGOPDG@GetGuildName@ DB 'GetGuildName', 00H	; `string'
CONST	ENDS
;	COMDAT ??_C@_0N@EIPGMIIH@HasGuildLand@
CONST	SEGMENT
??_C@_0N@EIPGMIIH@HasGuildLand@ DB 'HasGuildLand', 00H	; `string'
CONST	ENDS
;	COMDAT ??_C@_0BF@BKGLMLAL@GetMarkIndexByMarkID@
CONST	SEGMENT
??_C@_0BF@BKGLMLAL@GetMarkIndexByMarkID@ DB 'GetMarkIndexByMarkID', 00H ; `string'
CONST	ENDS
;	COMDAT ??_C@_0BN@OMLCOGDL@GetMarkImageFilenameByMarkID@
CONST	SEGMENT
??_C@_0BN@OMLCOGDL@GetMarkImageFilenameByMarkID@ DB 'GetMarkImageFilename'
	DB	'ByMarkID', 00H				; `string'
CONST	ENDS
;	COMDAT ??_C@_0BA@BGLAIPMB@GuildIDToMarkID@
CONST	SEGMENT
??_C@_0BA@BGLAIPMB@GuildIDToMarkID@ DB 'GuildIDToMarkID', 00H ; `string'
CONST	ENDS
;	COMDAT ??_C@_0O@IGOIDFGB@IsGuildEnable@
CONST	SEGMENT
??_C@_0O@IGOIDFGB@IsGuildEnable@ DB 'IsGuildEnable', 00H ; `string'
CONST	ENDS
;	COMDAT ??_C@_07IGDHICNG@isiiiii@
CONST	SEGMENT
??_C@_07IGDHICNG@isiiiii@ DB 'isiiiii', 00H		; `string'
CONST	ENDS
;	COMDAT ??_C@_01OGPIMHDM@?$DP@
CONST	SEGMENT
??_C@_01OGPIMHDM@?$DP@ DB '?', 00H			; `string'
CONST	ENDS
;	COMDAT ??_C@_03MKDAGEFG@iss@
CONST	SEGMENT
??_C@_03MKDAGEFG@iss@ DB 'iss', 00H			; `string'
CONST	ENDS
;	COMDAT ??_C@_06HCBIANPB@Noname@
CONST	SEGMENT
??_C@_06HCBIANPB@Noname@ DB 'Noname', 00H		; `string'
PUBLIC	??$move@AAV?$tuple@ABE@std@@@std@@YA$$QAV?$tuple@ABE@0@AAV10@@Z ; std::move<std::tuple<unsigned char const &> &>
PUBLIC	??$construct_at@USGuildMemberData@CPythonGuild@@U12@$0A@@std@@YAPAUSGuildMemberData@CPythonGuild@@QAU12@$$QAU12@@Z ; std::construct_at<CPythonGuild::SGuildMemberData,CPythonGuild::SGuildMemberData,0>
PUBLIC	??$construct_at@USGuildBoardCommentData@CPythonGuild@@U12@$0A@@std@@YAPAUSGuildBoardCommentData@CPythonGuild@@QAU12@$$QAU12@@Z ; std::construct_at<CPythonGuild::SGuildBoardCommentData,CPythonGuild::SGuildBoardCommentData,0>
PUBLIC	??$construct_at@U?$pair@$$CBKK@std@@U?$pair@HH@2@$0A@@std@@YAPAU?$pair@$$CBKK@0@QAU10@$$QAU?$pair@HH@0@@Z ; std::construct_at<std::pair<unsigned long const ,unsigned long>,std::pair<int,int>,0>
PUBLIC	??$construct_at@U?$pair@$$CBKV?$basic_string@DU?$char_traits@D@std@@V?$allocator@D@2@@std@@@std@@U?$pair@KV?$basic_string@DU?$char_traits@D@std@@V?$allocator@D@2@@std@@@2@$0A@@std@@YAPAU?$pair@$$CBKV?$basic_string@DU?$char_traits@D@std@@V?$allocator@D@2@@std@@@0@QAU10@$$QAU?$pair@KV?$basic_string@DU?$char_traits@D@std@@V?$allocator@D@2@@std@@@0@@Z ; std::construct_at<std::pair<unsigned long const ,std::basic_string<char,std::char_traits<char>,std::allocator<char> > >,std::pair<unsigned long,std::basic_string<char,std::char_traits<char>,std::allocator<char> > >,0>
PUBLIC	??$?0HH$0A@@?$pair@$$CBKK@std@@QAE@$$QAU?$pair@HH@1@@Z ; std::pair<unsigned long const ,unsigned long>::pair<unsigned long const ,unsigned long><int,int,0>
PUBLIC	??$?0KV?$basic_string@DU?$char_traits@D@std@@V?$allocator@D@2@@std@@$0A@@?$pair@$$CBKV?$basic_string@DU?$char_traits@D@std@@V?$allocator@D@2@@std@@@std@@QAE@$$QAU?$pair@KV?$basic_string@DU?$char_traits@D@std@@V?$allocator@D@2@@std@@@1@@Z ; std::pair<unsigned long const ,std::basic_string<char,std::char_traits<char>,std::allocator<char> > >::pair<unsigned long const ,std::basic_string<char,std::char_traits<char>,std::allocator<char> > ><unsigned long,std::basic_string<char,std::char_traits<char>,std::allocator<char> >,0>
PUBLIC	??0SGuildBoardCommentData@CPythonGuild@@QAE@$$QAU01@@Z ; CPythonGuild::SGuildBoardCommentData::SGuildBoardCommentData
PUBLIC	??$?0V?$tuple@ABK@std@@V?$tuple@$$V@1@$0A@$$Z$S@?$pair@$$CBKV?$basic_string@DU?$char_traits@D@std@@V?$allocator@D@2@@std@@@std@@QAE@AAV?$tuple@ABK@1@AAV?$tuple@$$V@1@U?$integer_sequence@I$0A@@1@U?$integer_sequence@I$S@1@@Z ; std::pair<unsigned long const ,std::basic_string<char,std::char_traits<char>,std::allocator<char> > >::pair<unsigned long const ,std::basic_string<char,std::char_traits<char>,std::allocator<char> > ><std::tuple<unsigned long const &>,std::tuple<>,0>
PUBLIC	??$_Tuple_get@$0A@ABE@std@@YA$$QA_P$$QAV?$tuple@ABE@0@@Z ; std::_Tuple_get<0,unsigned char const &>
PUBLIC	??$?0V?$tuple@ABE@std@@V?$tuple@$$V@1@$0A@$$Z$S@?$pair@$$CBEUSGuildGradeData@CPythonGuild@@@std@@QAE@AAV?$tuple@ABE@1@AAV?$tuple@$$V@1@U?$integer_sequence@I$0A@@1@U?$integer_sequence@I$S@1@@Z ; std::pair<unsigned char const ,CPythonGuild::SGuildGradeData>::pair<unsigned char const ,CPythonGuild::SGuildGradeData><std::tuple<unsigned char const &>,std::tuple<>,0>
PUBLIC	??$?0ABE@?$_Tuple_val@ABE@std@@QAE@ABE@Z	; std::_Tuple_val<unsigned char const &>::_Tuple_val<unsigned char const &><unsigned char const &>
PUBLIC	??$construct@USGuildMemberData@CPythonGuild@@U12@@?$_Default_allocator_traits@V?$allocator@USGuildMemberData@CPythonGuild@@@std@@@std@@SAXAAV?$allocator@USGuildMemberData@CPythonGuild@@@1@QAUSGuildMemberData@CPythonGuild@@$$QAU34@@Z ; std::_Default_allocator_traits<std::allocator<CPythonGuild::SGuildMemberData> >::construct<CPythonGuild::SGuildMemberData,CPythonGuild::SGuildMemberData>
PUBLIC	??$construct@USGuildBoardCommentData@CPythonGuild@@U12@@?$_Default_allocator_traits@V?$allocator@USGuildBoardCommentData@CPythonGuild@@@std@@@std@@SAXAAV?$allocator@USGuildBoardCommentData@CPythonGuild@@@1@QAUSGuildBoardCommentData@CPythonGuild@@$$QAU34@@Z ; std::_Default_allocator_traits<std::allocator<CPythonGuild::SGuildBoardCommentData> >::construct<CPythonGuild::SGuildBoardCommentData,CPythonGuild::SGuildBoardCommentData>
PUBLIC	??$forward@USGuildBoardCommentData@CPythonGuild@@@std@@YA$$QAUSGuildBoardCommentData@CPythonGuild@@AAU12@@Z ; std::forward<CPythonGuild::SGuildBoardCommentData>
PUBLIC	??$construct@U?$pair@$$CBKK@std@@U?$pair@HH@2@@?$_Default_allocator_traits@V?$allocator@U?$_Tree_node@U?$pair@$$CBKK@std@@PAX@std@@@std@@@std@@SAXAAV?$allocator@U?$_Tree_node@U?$pair@$$CBKK@std@@PAX@std@@@1@QAU?$pair@$$CBKK@1@$$QAU?$pair@HH@1@@Z ; std::_Default_allocator_traits<std::allocator<std::_Tree_node<std::pair<unsigned long const ,unsigned long>,void *> > >::construct<std::pair<unsigned long const ,unsigned long>,std::pair<int,int> >
PUBLIC	??$swap@USGuildMemberData@CPythonGuild@@$0A@@std@@YAXAAUSGuildMemberData@CPythonGuild@@0@Z ; std::swap<CPythonGuild::SGuildMemberData,0>
PUBLIC	??$_Med3_unchecked@PAUSGuildMemberData@CPythonGuild@@UCPythonGuild_SLessMemberGrade@@@std@@YAXPAUSGuildMemberData@CPythonGuild@@00UCPythonGuild_SLessMemberGrade@@@Z ; std::_Med3_unchecked<CPythonGuild::SGuildMemberData *,CPythonGuild_SLessMemberGrade>
PUBLIC	??$_Pop_heap_hole_unchecked@PAUSGuildMemberData@CPythonGuild@@U12@UCPythonGuild_SLessMemberGrade@@@std@@YAXPAUSGuildMemberData@CPythonGuild@@00$$QAU12@UCPythonGuild_SLessMemberGrade@@@Z ; std::_Pop_heap_hole_unchecked<CPythonGuild::SGuildMemberData *,CPythonGuild::SGuildMemberData,CPythonGuild_SLessMemberGrade>
PUBLIC	??$_Push_heap_by_index@PAUSGuildMemberData@CPythonGuild@@U12@UCPythonGuild_SLessMemberGrade@@@std@@YAXPAUSGuildMemberData@CPythonGuild@@HH$$QAU12@UCPythonGuild_SLessMemberGrade@@@Z ; std::_Push_heap_by_index<CPythonGuild::SGuildMemberData *,CPythonGuild::SGuildMemberData,CPythonGuild_SLessMemberGrade>
PUBLIC	??$forward@USGuildMemberData@CPythonGuild@@@std@@YA$$QAUSGuildMemberData@CPythonGuild@@AAU12@@Z ; std::forward<CPythonGuild::SGuildMemberData>
PUBLIC	??$construct@U?$pair@$$CBKV?$basic_string@DU?$char_traits@D@std@@V?$allocator@D@2@@std@@@std@@U?$pair@KV?$basic_string@DU?$char_traits@D@std@@V?$allocator@D@2@@std@@@2@@?$_Default_allocator_traits@V?$allocator@U?$_Tree_node@U?$pair@$$CBKV?$basic_string@DU?$char_traits@D@std@@V?$allocator@D@2@@std@@@std@@PAX@std@@@std@@@std@@SAXAAV?$allocator@U?$_Tree_node@U?$pair@$$CBKV?$basic_string@DU?$char_traits@D@std@@V?$allocator@D@2@@std@@@std@@PAX@std@@@1@QAU?$pair@$$CBKV?$basic_string@DU?$char_traits@D@std@@V?$allocator@D@2@@std@@@1@$$QAU?$pair@KV?$basic_string@DU?$char_traits@D@std@@V?$allocator@D@2@@std@@@1@@Z ; std::_Default_allocator_traits<std::allocator<std::_Tree_node<std::pair<unsigned long const ,std::basic_string<char,std::char_traits<char>,std::allocator<char> > >,void *> > >::construct<std::pair<unsigned long const ,std::basic_string<char,std::char_traits<char>,std::allocator<char> > >,std::pair<unsigned long,std::basic_string<char,std::char_traits<char>,std::allocator<char> > > >
PUBLIC	??$construct_at@PAU?$_Tree_node@U?$pair@$$CBKV?$basic_string@DU?$char_traits@D@std@@V?$allocator@D@2@@std@@@std@@PAX@std@@AAPAU12@$0A@@std@@YAPAPAU?$_Tree_node@U?$pair@$$CBKV?$basic_string@DU?$char_traits@D@std@@V?$allocator@D@2@@std@@@std@@PAX@0@QAPAU10@AAPAU10@@Z ; std::construct_at<std::_Tree_node<std::pair<unsigned long const ,std::basic_string<char,std::char_traits<char>,std::allocator<char> > >,void *> *,std::_Tree_node<std::pair<unsigned long const ,std::basic_string<char,std::char_traits<char>,std::allocator<char> > >,void *> * &,0>
PUBLIC	??$forward@AAPAU?$_Tree_node@U?$pair@$$CBKV?$basic_string@DU?$char_traits@D@std@@V?$allocator@D@2@@std@@@std@@PAX@std@@@std@@YAAAPAU?$_Tree_node@U?$pair@$$CBKV?$basic_string@DU?$char_traits@D@std@@V?$allocator@D@2@@std@@@std@@PAX@0@AAPAU10@@Z ; std::forward<std::_Tree_node<std::pair<unsigned long const ,std::basic_string<char,std::char_traits<char>,std::allocator<char> > >,void *> * &>
PUBLIC	??$?0ABK$$Z$$V@?$pair@$$CBKV?$basic_string@DU?$char_traits@D@std@@V?$allocator@D@2@@std@@@std@@QAE@Upiecewise_construct_t@1@V?$tuple@ABK@1@V?$tuple@$$V@1@@Z ; std::pair<unsigned long const ,std::basic_string<char,std::char_traits<char>,std::allocator<char> > >::pair<unsigned long const ,std::basic_string<char,std::char_traits<char>,std::allocator<char> > ><unsigned long const &>
PUBLIC	??$_Voidify_iter@PAU?$pair@$$CBKV?$basic_string@DU?$char_traits@D@std@@V?$allocator@D@2@@std@@@std@@@std@@YAPAXPAU?$pair@$$CBKV?$basic_string@DU?$char_traits@D@std@@V?$allocator@D@2@@std@@@0@@Z ; std::_Voidify_iter<std::pair<unsigned long const ,std::basic_string<char,std::char_traits<char>,std::allocator<char> > > *>
PUBLIC	??$construct_at@U?$pair@$$CBKV?$basic_string@DU?$char_traits@D@std@@V?$allocator@D@2@@std@@@std@@ABUpiecewise_construct_t@2@V?$tuple@ABK@2@V?$tuple@$$V@2@$0A@@std@@YAPAU?$pair@$$CBKV?$basic_string@DU?$char_traits@D@std@@V?$allocator@D@2@@std@@@0@QAU10@ABUpiecewise_construct_t@0@$$QAV?$tuple@ABK@0@$$QAV?$tuple@$$V@0@@Z ; std::construct_at<std::pair<unsigned long const ,std::basic_string<char,std::char_traits<char>,std::allocator<char> > >,std::piecewise_construct_t const &,std::tuple<unsigned long const &>,std::tuple<>,0>
PUBLIC	??$construct_at@PAU?$_Tree_node@U?$pair@$$CBEUSGuildGradeData@CPythonGuild@@@std@@PAX@std@@AAPAU12@$0A@@std@@YAPAPAU?$_Tree_node@U?$pair@$$CBEUSGuildGradeData@CPythonGuild@@@std@@PAX@0@QAPAU10@AAPAU10@@Z ; std::construct_at<std::_Tree_node<std::pair<unsigned char const ,CPythonGuild::SGuildGradeData>,void *> *,std::_Tree_node<std::pair<unsigned char const ,CPythonGuild::SGuildGradeData>,void *> * &,0>
PUBLIC	??$forward@AAPAU?$_Tree_node@U?$pair@$$CBEUSGuildGradeData@CPythonGuild@@@std@@PAX@std@@@std@@YAAAPAU?$_Tree_node@U?$pair@$$CBEUSGuildGradeData@CPythonGuild@@@std@@PAX@0@AAPAU10@@Z ; std::forward<std::_Tree_node<std::pair<unsigned char const ,CPythonGuild::SGuildGradeData>,void *> * &>
PUBLIC	??$?0ABE$$Z$$V@?$pair@$$CBEUSGuildGradeData@CPythonGuild@@@std@@QAE@Upiecewise_construct_t@1@V?$tuple@ABE@1@V?$tuple@$$V@1@@Z ; std::pair<unsigned char const ,CPythonGuild::SGuildGradeData>::pair<unsigned char const ,CPythonGuild::SGuildGradeData><unsigned char const &>
PUBLIC	??$_Voidify_iter@PAU?$pair@$$CBEUSGuildGradeData@CPythonGuild@@@std@@@std@@YAPAXPAU?$pair@$$CBEUSGuildGradeData@CPythonGuild@@@0@@Z ; std::_Voidify_iter<std::pair<unsigned char const ,CPythonGuild::SGuildGradeData> *>
PUBLIC	??$construct_at@U?$pair@$$CBEUSGuildGradeData@CPythonGuild@@@std@@ABUpiecewise_construct_t@2@V?$tuple@ABE@2@V?$tuple@$$V@2@$0A@@std@@YAPAU?$pair@$$CBEUSGuildGradeData@CPythonGuild@@@0@QAU10@ABUpiecewise_construct_t@0@$$QAV?$tuple@ABE@0@$$QAV?$tuple@$$V@0@@Z ; std::construct_at<std::pair<unsigned char const ,CPythonGuild::SGuildGradeData>,std::piecewise_construct_t const &,std::tuple<unsigned char const &>,std::tuple<>,0>
PUBLIC	??$?0U_Exact_args_t@std@@ABE$$V$0A@@?$tuple@ABE@std@@QAE@U_Exact_args_t@1@ABE@Z ; std::tuple<unsigned char const &>::tuple<unsigned char const &><std::_Exact_args_t,unsigned char const &,0>
PUBLIC	??$_Emplace_back@USGuildMemberData@CPythonGuild@@@?$_Uninitialized_backout_al@V?$allocator@USGuildMemberData@CPythonGuild@@@std@@@std@@QAEX$$QAUSGuildMemberData@CPythonGuild@@@Z ; std::_Uninitialized_backout_al<std::allocator<CPythonGuild::SGuildMemberData> >::_Emplace_back<CPythonGuild::SGuildMemberData>
PUBLIC	??$_Voidify_iter@PAUSGuildMemberData@CPythonGuild@@@std@@YAPAXPAUSGuildMemberData@CPythonGuild@@@Z ; std::_Voidify_iter<CPythonGuild::SGuildMemberData *>
PUBLIC	??$construct_at@USGuildMemberData@CPythonGuild@@ABU12@$0A@@std@@YAPAUSGuildMemberData@CPythonGuild@@QAU12@ABU12@@Z ; std::construct_at<CPythonGuild::SGuildMemberData,CPythonGuild::SGuildMemberData const &,0>
PUBLIC	??$_Emplace_back@USGuildBoardCommentData@CPythonGuild@@@?$_Uninitialized_backout_al@V?$allocator@USGuildBoardCommentData@CPythonGuild@@@std@@@std@@QAEX$$QAUSGuildBoardCommentData@CPythonGuild@@@Z ; std::_Uninitialized_backout_al<std::allocator<CPythonGuild::SGuildBoardCommentData> >::_Emplace_back<CPythonGuild::SGuildBoardCommentData>
PUBLIC	??$move@AAUSGuildBoardCommentData@CPythonGuild@@@std@@YA$$QAUSGuildBoardCommentData@CPythonGuild@@AAU12@@Z ; std::move<CPythonGuild::SGuildBoardCommentData &>
PUBLIC	??$_Voidify_iter@PAUSGuildBoardCommentData@CPythonGuild@@@std@@YAPAXPAUSGuildBoardCommentData@CPythonGuild@@@Z ; std::_Voidify_iter<CPythonGuild::SGuildBoardCommentData *>
PUBLIC	??$construct_at@USGuildBoardCommentData@CPythonGuild@@ABU12@$0A@@std@@YAPAUSGuildBoardCommentData@CPythonGuild@@QAU12@ABU12@@Z ; std::construct_at<CPythonGuild::SGuildBoardCommentData,CPythonGuild::SGuildBoardCommentData const &,0>
PUBLIC	??$?0U?$pair@HH@std@@@?$_Tree_temp_node@V?$allocator@U?$_Tree_node@U?$pair@$$CBKK@std@@PAX@std@@@std@@@std@@QAE@AAV?$allocator@U?$_Tree_node@U?$pair@$$CBKK@std@@PAX@std@@@1@PAU?$_Tree_node@U?$pair@$$CBKK@std@@PAX@1@$$QAU?$pair@HH@1@@Z ; std::_Tree_temp_node<std::allocator<std::_Tree_node<std::pair<unsigned long const ,unsigned long>,void *> > >::_Tree_temp_node<std::allocator<std::_Tree_node<std::pair<unsigned long const ,unsigned long>,void *> > ><std::pair<int,int> >
PUBLIC	??$?0AAPAUSGuildMemberData@CPythonGuild@@AAPAU01@$0A@@?$pair@PAUSGuildMemberData@CPythonGuild@@PAU12@@std@@QAE@AAPAUSGuildMemberData@CPythonGuild@@0@Z ; std::pair<CPythonGuild::SGuildMemberData *,CPythonGuild::SGuildMemberData *>::pair<CPythonGuild::SGuildMemberData *,CPythonGuild::SGuildMemberData *><CPythonGuild::SGuildMemberData * &,CPythonGuild::SGuildMemberData * &,0>
PUBLIC	??$iter_swap@PAUSGuildMemberData@CPythonGuild@@PAU12@@std@@YAXPAUSGuildMemberData@CPythonGuild@@0@Z ; std::iter_swap<CPythonGuild::SGuildMemberData *,CPythonGuild::SGuildMemberData *>
PUBLIC	??$_Next_iter@PAUSGuildMemberData@CPythonGuild@@@std@@YAPAUSGuildMemberData@CPythonGuild@@PAU12@@Z ; std::_Next_iter<CPythonGuild::SGuildMemberData *>
PUBLIC	??$_Guess_median_unchecked@PAUSGuildMemberData@CPythonGuild@@UCPythonGuild_SLessMemberGrade@@@std@@YAXPAUSGuildMemberData@CPythonGuild@@00UCPythonGuild_SLessMemberGrade@@@Z ; std::_Guess_median_unchecked<CPythonGuild::SGuildMemberData *,CPythonGuild_SLessMemberGrade>
PUBLIC	??$_Prev_iter@PAUSGuildMemberData@CPythonGuild@@@std@@YAPAUSGuildMemberData@CPythonGuild@@PAU12@@Z ; std::_Prev_iter<CPythonGuild::SGuildMemberData *>
PUBLIC	??$_Pop_heap_unchecked@PAUSGuildMemberData@CPythonGuild@@UCPythonGuild_SLessMemberGrade@@@std@@YAXPAUSGuildMemberData@CPythonGuild@@0UCPythonGuild_SLessMemberGrade@@@Z ; std::_Pop_heap_unchecked<CPythonGuild::SGuildMemberData *,CPythonGuild_SLessMemberGrade>
PUBLIC	??$_Pop_heap_hole_by_index@PAUSGuildMemberData@CPythonGuild@@U12@UCPythonGuild_SLessMemberGrade@@@std@@YAXPAUSGuildMemberData@CPythonGuild@@HH$$QAU12@UCPythonGuild_SLessMemberGrade@@@Z ; std::_Pop_heap_hole_by_index<CPythonGuild::SGuildMemberData *,CPythonGuild::SGuildMemberData,CPythonGuild_SLessMemberGrade>
PUBLIC	??$_Move_backward_unchecked@PAUSGuildMemberData@CPythonGuild@@PAU12@@std@@YAPAUSGuildMemberData@CPythonGuild@@PAU12@00@Z ; std::_Move_backward_unchecked<CPythonGuild::SGuildMemberData *,CPythonGuild::SGuildMemberData *>
PUBLIC	??$forward@V?$_Tree_iterator@V?$_Tree_val@U?$_Tree_simple_types@U?$pair@$$CBKV?$basic_string@DU?$char_traits@D@std@@V?$allocator@D@2@@std@@@std@@@std@@@std@@@std@@@std@@YA$$QAV?$_Tree_iterator@V?$_Tree_val@U?$_Tree_simple_types@U?$pair@$$CBKV?$basic_string@DU?$char_traits@D@std@@V?$allocator@D@2@@std@@@std@@@std@@@std@@@0@AAV10@@Z ; std::forward<std::_Tree_iterator<std::_Tree_val<std::_Tree_simple_types<std::pair<unsigned long const ,std::basic_string<char,std::char_traits<char>,std::allocator<char> > > > > > >
PUBLIC	??$?0AAPAU?$_Tree_node@U?$pair@$$CBKV?$basic_string@DU?$char_traits@D@std@@V?$allocator@D@2@@std@@@std@@PAX@std@@_N$0A@@?$pair@PAU?$_Tree_node@U?$pair@$$CBKV?$basic_string@DU?$char_traits@D@std@@V?$allocator@D@2@@std@@@std@@PAX@std@@_N@std@@QAE@AAPAU?$_Tree_node@U?$pair@$$CBKV?$basic_string@DU?$char_traits@D@std@@V?$allocator@D@2@@std@@@std@@PAX@1@$$QA_N@Z ; std::pair<std::_Tree_node<std::pair<unsigned long const ,std::basic_string<char,std::char_traits<char>,std::allocator<char> > >,void *> *,bool>::pair<std::_Tree_node<std::pair<unsigned long const ,std::basic_string<char,std::char_traits<char>,std::allocator<char> > >,void *> *,bool><std::_Tree_node<std::pair<unsigned long const ,std::basic_string<char,std::char_traits<char>,std::allocator<char> > >,void *> * &,bool,0>
PUBLIC	??$?0U?$pair@KV?$basic_string@DU?$char_traits@D@std@@V?$allocator@D@2@@std@@@std@@@?$_Tree_temp_node@V?$allocator@U?$_Tree_node@U?$pair@$$CBKV?$basic_string@DU?$char_traits@D@std@@V?$allocator@D@2@@std@@@std@@PAX@std@@@std@@@std@@QAE@AAV?$allocator@U?$_Tree_node@U?$pair@$$CBKV?$basic_string@DU?$char_traits@D@std@@V?$allocator@D@2@@std@@@std@@PAX@std@@@1@PAU?$_Tree_node@U?$pair@$$CBKV?$basic_string@DU?$char_traits@D@std@@V?$allocator@D@2@@std@@@std@@PAX@1@$$QAU?$pair@KV?$basic_string@DU?$char_traits@D@std@@V?$allocator@D@2@@std@@@1@@Z ; std::_Tree_temp_node<std::allocator<std::_Tree_node<std::pair<unsigned long const ,std::basic_string<char,std::char_traits<char>,std::allocator<char> > >,void *> > >::_Tree_temp_node<std::allocator<std::_Tree_node<std::pair<unsigned long const ,std::basic_string<char,std::char_traits<char>,std::allocator<char> > >,void *> > ><std::pair<unsigned long,std::basic_string<char,std::char_traits<char>,std::allocator<char> > > >
PUBLIC	?_Extract@?$_In_place_key_extract_map@KU?$pair@KV?$basic_string@DU?$char_traits@D@std@@V?$allocator@D@2@@std@@@std@@@std@@SAABKABU?$pair@KV?$basic_string@DU?$char_traits@D@std@@V?$allocator@D@2@@std@@@2@@Z ; std::_In_place_key_extract_map<unsigned long,std::pair<unsigned long,std::basic_string<char,std::char_traits<char>,std::allocator<char> > > >::_Extract
PUBLIC	??0?$_Uninitialized_backout_al@V?$allocator@USGuildBoardCommentData@CPythonGuild@@@std@@@std@@QAE@PAUSGuildBoardCommentData@CPythonGuild@@AAV?$allocator@USGuildBoardCommentData@CPythonGuild@@@1@@Z ; std::_Uninitialized_backout_al<std::allocator<CPythonGuild::SGuildBoardCommentData> >::_Uninitialized_backout_al<std::allocator<CPythonGuild::SGuildBoardCommentData> >
PUBLIC	??1?$_Uninitialized_backout_al@V?$allocator@USGuildBoardCommentData@CPythonGuild@@@std@@@std@@QAE@XZ ; std::_Uninitialized_backout_al<std::allocator<CPythonGuild::SGuildBoardCommentData> >::~_Uninitialized_backout_al<std::allocator<CPythonGuild::SGuildBoardCommentData> >
PUBLIC	?_Release@?$_Uninitialized_backout_al@V?$allocator@USGuildBoardCommentData@CPythonGuild@@@std@@@std@@QAEPAUSGuildBoardCommentData@CPythonGuild@@XZ ; std::_Uninitialized_backout_al<std::allocator<CPythonGuild::SGuildBoardCommentData> >::_Release
PUBLIC	??0?$_Uninitialized_backout_al@V?$allocator@USGuildMemberData@CPythonGuild@@@std@@@std@@QAE@PAUSGuildMemberData@CPythonGuild@@AAV?$allocator@USGuildMemberData@CPythonGuild@@@1@@Z ; std::_Uninitialized_backout_al<std::allocator<CPythonGuild::SGuildMemberData> >::_Uninitialized_backout_al<std::allocator<CPythonGuild::SGuildMemberData> >
PUBLIC	??1?$_Uninitialized_backout_al@V?$allocator@USGuildMemberData@CPythonGuild@@@std@@@std@@QAE@XZ ; std::_Uninitialized_backout_al<std::allocator<CPythonGuild::SGuildMemberData> >::~_Uninitialized_backout_al<std::allocator<CPythonGuild::SGuildMemberData> >
PUBLIC	?_Release@?$_Uninitialized_backout_al@V?$allocator@USGuildMemberData@CPythonGuild@@@std@@@std@@QAEPAUSGuildMemberData@CPythonGuild@@XZ ; std::_Uninitialized_backout_al<std::allocator<CPythonGuild::SGuildMemberData> >::_Release
PUBLIC	??_G?$pair@$$CBEUSGuildGradeData@CPythonGuild@@@std@@QAEPAXI@Z ; std::pair<unsigned char const ,CPythonGuild::SGuildGradeData>::`scalar deleting destructor'
PUBLIC	??_G?$pair@$$CBKV?$basic_string@DU?$char_traits@D@std@@V?$allocator@D@2@@std@@@std@@QAEPAXI@Z ; std::pair<unsigned long const ,std::basic_string<char,std::char_traits<char>,std::allocator<char> > >::`scalar deleting destructor'
PUBLIC	??0?$tuple@ABE@std@@QAE@$$QAV01@@Z		; std::tuple<unsigned char const &>::tuple<unsigned char const &>
PUBLIC	??0SGuildMemberData@CPythonGuild@@QAE@ABU01@@Z	; CPythonGuild::SGuildMemberData::SGuildMemberData
PUBLIC	??0SGuildBoardCommentData@CPythonGuild@@QAE@ABU01@@Z ; CPythonGuild::SGuildBoardCommentData::SGuildBoardCommentData
PUBLIC	??_GSGuildBoardCommentData@CPythonGuild@@QAEPAXI@Z ; CPythonGuild::SGuildBoardCommentData::`scalar deleting destructor'
PUBLIC	??0SGuildMemberData@CPythonGuild@@QAE@$$QAU01@@Z ; CPythonGuild::SGuildMemberData::SGuildMemberData
PUBLIC	??$_Get_size_of_n@$0DE@@std@@YAII@Z		; std::_Get_size_of_n<52>
PUBLIC	??$_Refancy@PAUSGuildMemberData@CPythonGuild@@$0A@@std@@YAPAUSGuildMemberData@CPythonGuild@@PAU12@@Z ; std::_Refancy<CPythonGuild::SGuildMemberData *,0>
PUBLIC	??1SGuildGradeData@CPythonGuild@@QAE@XZ		; CPythonGuild::SGuildGradeData::~SGuildGradeData
PUBLIC	??1?$pair@$$CBEUSGuildGradeData@CPythonGuild@@@std@@QAE@XZ ; std::pair<unsigned char const ,CPythonGuild::SGuildGradeData>::~pair<unsigned char const ,CPythonGuild::SGuildGradeData>
PUBLIC	??$destroy_at@U?$pair@$$CBEUSGuildGradeData@CPythonGuild@@@std@@@std@@YAXQAU?$pair@$$CBEUSGuildGradeData@CPythonGuild@@@0@@Z ; std::destroy_at<std::pair<unsigned char const ,CPythonGuild::SGuildGradeData> >
PUBLIC	??1?$pair@$$CBKV?$basic_string@DU?$char_traits@D@std@@V?$allocator@D@2@@std@@@std@@QAE@XZ ; std::pair<unsigned long const ,std::basic_string<char,std::char_traits<char>,std::allocator<char> > >::~pair<unsigned long const ,std::basic_string<char,std::char_traits<char>,std::allocator<char> > >
PUBLIC	??$destroy_at@U?$pair@$$CBKV?$basic_string@DU?$char_traits@D@std@@V?$allocator@D@2@@std@@@std@@@std@@YAXQAU?$pair@$$CBKV?$basic_string@DU?$char_traits@D@std@@V?$allocator@D@2@@std@@@0@@Z ; std::destroy_at<std::pair<unsigned long const ,std::basic_string<char,std::char_traits<char>,std::allocator<char> > > >
PUBLIC	??$_Voidify_iter@PAPAU?$_Tree_node@U?$pair@$$CBKV?$basic_string@DU?$char_traits@D@std@@V?$allocator@D@2@@std@@@std@@PAX@std@@@std@@YAPAXPAPAU?$_Tree_node@U?$pair@$$CBKV?$basic_string@DU?$char_traits@D@std@@V?$allocator@D@2@@std@@@std@@PAX@0@@Z ; std::_Voidify_iter<std::_Tree_node<std::pair<unsigned long const ,std::basic_string<char,std::char_traits<char>,std::allocator<char> > >,void *> * *>
PUBLIC	??$construct_at@PAU?$_Tree_node@U?$pair@$$CBKV?$basic_string@DU?$char_traits@D@std@@V?$allocator@D@2@@std@@@std@@PAX@std@@ABQAU12@$0A@@std@@YAPAPAU?$_Tree_node@U?$pair@$$CBKV?$basic_string@DU?$char_traits@D@std@@V?$allocator@D@2@@std@@@std@@PAX@0@QAPAU10@ABQAU10@@Z ; std::construct_at<std::_Tree_node<std::pair<unsigned long const ,std::basic_string<char,std::char_traits<char>,std::allocator<char> > >,void *> *,std::_Tree_node<std::pair<unsigned long const ,std::basic_string<char,std::char_traits<char>,std::allocator<char> > >,void *> * const &,0>
PUBLIC	??$addressof@PAU?$_Tree_node@U?$pair@$$CBKV?$basic_string@DU?$char_traits@D@std@@V?$allocator@D@2@@std@@@std@@PAX@std@@@std@@YAPAPAU?$_Tree_node@U?$pair@$$CBKV?$basic_string@DU?$char_traits@D@std@@V?$allocator@D@2@@std@@@std@@PAX@0@AAPAU10@@Z ; std::addressof<std::_Tree_node<std::pair<unsigned long const ,std::basic_string<char,std::char_traits<char>,std::allocator<char> > >,void *> *>
PUBLIC	??$_Voidify_iter@PAPAU?$_Tree_node@U?$pair@$$CBEUSGuildGradeData@CPythonGuild@@@std@@PAX@std@@@std@@YAPAXPAPAU?$_Tree_node@U?$pair@$$CBEUSGuildGradeData@CPythonGuild@@@std@@PAX@0@@Z ; std::_Voidify_iter<std::_Tree_node<std::pair<unsigned char const ,CPythonGuild::SGuildGradeData>,void *> * *>
PUBLIC	??$construct_at@PAU?$_Tree_node@U?$pair@$$CBEUSGuildGradeData@CPythonGuild@@@std@@PAX@std@@ABQAU12@$0A@@std@@YAPAPAU?$_Tree_node@U?$pair@$$CBEUSGuildGradeData@CPythonGuild@@@std@@PAX@0@QAPAU10@ABQAU10@@Z ; std::construct_at<std::_Tree_node<std::pair<unsigned char const ,CPythonGuild::SGuildGradeData>,void *> *,std::_Tree_node<std::pair<unsigned char const ,CPythonGuild::SGuildGradeData>,void *> * const &,0>
PUBLIC	??$addressof@PAU?$_Tree_node@U?$pair@$$CBEUSGuildGradeData@CPythonGuild@@@std@@PAX@std@@@std@@YAPAPAU?$_Tree_node@U?$pair@$$CBEUSGuildGradeData@CPythonGuild@@@std@@PAX@0@AAPAU10@@Z ; std::addressof<std::_Tree_node<std::pair<unsigned char const ,CPythonGuild::SGuildGradeData>,void *> *>
PUBLIC	??$forward@PAU?$_Tree_node@U?$pair@$$CBKV?$basic_string@DU?$char_traits@D@std@@V?$allocator@D@2@@std@@@std@@PAX@std@@@std@@YA$$QAPAU?$_Tree_node@U?$pair@$$CBKV?$basic_string@DU?$char_traits@D@std@@V?$allocator@D@2@@std@@@std@@PAX@0@AAPAU10@@Z ; std::forward<std::_Tree_node<std::pair<unsigned long const ,std::basic_string<char,std::char_traits<char>,std::allocator<char> > >,void *> *>
PUBLIC	??$forward@ABQAU?$_Tree_node@U?$pair@$$CBKV?$basic_string@DU?$char_traits@D@std@@V?$allocator@D@2@@std@@@std@@PAX@std@@@std@@YAABQAU?$_Tree_node@U?$pair@$$CBKV?$basic_string@DU?$char_traits@D@std@@V?$allocator@D@2@@std@@@std@@PAX@0@ABQAU10@@Z ; std::forward<std::_Tree_node<std::pair<unsigned long const ,std::basic_string<char,std::char_traits<char>,std::allocator<char> > >,void *> * const &>
PUBLIC	??$_Construct_in_place@PAU?$_Tree_node@U?$pair@$$CBKV?$basic_string@DU?$char_traits@D@std@@V?$allocator@D@2@@std@@@std@@PAX@std@@AAPAU12@@std@@YAXAAPAU?$_Tree_node@U?$pair@$$CBKV?$basic_string@DU?$char_traits@D@std@@V?$allocator@D@2@@std@@@std@@PAX@0@0@Z ; std::_Construct_in_place<std::_Tree_node<std::pair<unsigned long const ,std::basic_string<char,std::char_traits<char>,std::allocator<char> > >,void *> *,std::_Tree_node<std::pair<unsigned long const ,std::basic_string<char,std::char_traits<char>,std::allocator<char> > >,void *> * &>
PUBLIC	??$construct@U?$pair@$$CBKV?$basic_string@DU?$char_traits@D@std@@V?$allocator@D@2@@std@@@std@@ABUpiecewise_construct_t@2@V?$tuple@ABK@2@V?$tuple@$$V@2@@?$_Default_allocator_traits@V?$allocator@U?$_Tree_node@U?$pair@$$CBKV?$basic_string@DU?$char_traits@D@std@@V?$allocator@D@2@@std@@@std@@PAX@std@@@std@@@std@@SAXAAV?$allocator@U?$_Tree_node@U?$pair@$$CBKV?$basic_string@DU?$char_traits@D@std@@V?$allocator@D@2@@std@@@std@@PAX@std@@@1@QAU?$pair@$$CBKV?$basic_string@DU?$char_traits@D@std@@V?$allocator@D@2@@std@@@1@ABUpiecewise_construct_t@1@$$QAV?$tuple@ABK@1@$$QAV?$tuple@$$V@1@@Z ; std::_Default_allocator_traits<std::allocator<std::_Tree_node<std::pair<unsigned long const ,std::basic_string<char,std::char_traits<char>,std::allocator<char> > >,void *> > >::construct<std::pair<unsigned long const ,std::basic_string<char,std::char_traits<char>,std::allocator<char> > >,std::piecewise_construct_t const &,std::tuple<unsigned long const &>,std::tuple<> >
PUBLIC	??$_Kfn@$$CBKV?$basic_string@DU?$char_traits@D@std@@V?$allocator@D@2@@std@@@?$_Tmap_traits@KV?$basic_string@DU?$char_traits@D@std@@V?$allocator@D@2@@std@@U?$less@K@2@V?$allocator@U?$pair@$$CBKV?$basic_string@DU?$char_traits@D@std@@V?$allocator@D@2@@std@@@std@@@2@$0A@@std@@SAABKABU?$pair@$$CBKV?$basic_string@DU?$char_traits@D@std@@V?$allocator@D@2@@std@@@1@@Z ; std::_Tmap_traits<unsigned long,std::basic_string<char,std::char_traits<char>,std::allocator<char> >,std::less<unsigned long>,std::allocator<std::pair<unsigned long const ,std::basic_string<char,std::char_traits<char>,std::allocator<char> > > >,0>::_Kfn<unsigned long const ,std::basic_string<char,std::char_traits<char>,std::allocator<char> > >
PUBLIC	??$forward@PAU?$_Tree_node@U?$pair@$$CBEUSGuildGradeData@CPythonGuild@@@std@@PAX@std@@@std@@YA$$QAPAU?$_Tree_node@U?$pair@$$CBEUSGuildGradeData@CPythonGuild@@@std@@PAX@0@AAPAU10@@Z ; std::forward<std::_Tree_node<std::pair<unsigned char const ,CPythonGuild::SGuildGradeData>,void *> *>
PUBLIC	??$forward@ABQAU?$_Tree_node@U?$pair@$$CBEUSGuildGradeData@CPythonGuild@@@std@@PAX@std@@@std@@YAABQAU?$_Tree_node@U?$pair@$$CBEUSGuildGradeData@CPythonGuild@@@std@@PAX@0@ABQAU10@@Z ; std::forward<std::_Tree_node<std::pair<unsigned char const ,CPythonGuild::SGuildGradeData>,void *> * const &>
PUBLIC	??$_Construct_in_place@PAU?$_Tree_node@U?$pair@$$CBEUSGuildGradeData@CPythonGuild@@@std@@PAX@std@@AAPAU12@@std@@YAXAAPAU?$_Tree_node@U?$pair@$$CBEUSGuildGradeData@CPythonGuild@@@std@@PAX@0@0@Z ; std::_Construct_in_place<std::_Tree_node<std::pair<unsigned char const ,CPythonGuild::SGuildGradeData>,void *> *,std::_Tree_node<std::pair<unsigned char const ,CPythonGuild::SGuildGradeData>,void *> * &>
PUBLIC	??$construct@U?$pair@$$CBEUSGuildGradeData@CPythonGuild@@@std@@ABUpiecewise_construct_t@2@V?$tuple@ABE@2@V?$tuple@$$V@2@@?$_Default_allocator_traits@V?$allocator@U?$_Tree_node@U?$pair@$$CBEUSGuildGradeData@CPythonGuild@@@std@@PAX@std@@@std@@@std@@SAXAAV?$allocator@U?$_Tree_node@U?$pair@$$CBEUSGuildGradeData@CPythonGuild@@@std@@PAX@std@@@1@QAU?$pair@$$CBEUSGuildGradeData@CPythonGuild@@@1@ABUpiecewise_construct_t@1@$$QAV?$tuple@ABE@1@$$QAV?$tuple@$$V@1@@Z ; std::_Default_allocator_traits<std::allocator<std::_Tree_node<std::pair<unsigned char const ,CPythonGuild::SGuildGradeData>,void *> > >::construct<std::pair<unsigned char const ,CPythonGuild::SGuildGradeData>,std::piecewise_construct_t const &,std::tuple<unsigned char const &>,std::tuple<> >
PUBLIC	??$forward@V?$tuple@ABE@std@@@std@@YA$$QAV?$tuple@ABE@0@AAV10@@Z ; std::forward<std::tuple<unsigned char const &> >
PUBLIC	??$?0ABE$0A@@?$tuple@ABE@std@@QAE@ABE@Z		; std::tuple<unsigned char const &>::tuple<unsigned char const &><unsigned char const &,0>
PUBLIC	??$_Kfn@$$CBEUSGuildGradeData@CPythonGuild@@@?$_Tmap_traits@EUSGuildGradeData@CPythonGuild@@U?$less@E@std@@V?$allocator@U?$pair@$$CBEUSGuildGradeData@CPythonGuild@@@std@@@4@$0A@@std@@SAABEABU?$pair@$$CBEUSGuildGradeData@CPythonGuild@@@1@@Z ; std::_Tmap_traits<unsigned char,CPythonGuild::SGuildGradeData,std::less<unsigned char>,std::allocator<std::pair<unsigned char const ,CPythonGuild::SGuildGradeData> >,0>::_Kfn<unsigned char const ,CPythonGuild::SGuildGradeData>
PUBLIC	??$_Uninitialized_move@PAUSGuildMemberData@CPythonGuild@@V?$allocator@USGuildMemberData@CPythonGuild@@@std@@@std@@YAPAUSGuildMemberData@CPythonGuild@@QAU12@0PAU12@AAV?$allocator@USGuildMemberData@CPythonGuild@@@0@@Z ; std::_Uninitialized_move<CPythonGuild::SGuildMemberData *,std::allocator<CPythonGuild::SGuildMemberData> >
PUBLIC	??$_Get_unwrapped@ABQAUSGuildMemberData@CPythonGuild@@@std@@YA?A_TABQAUSGuildMemberData@CPythonGuild@@@Z ; std::_Get_unwrapped<CPythonGuild::SGuildMemberData * const &>
PUBLIC	??$construct@USGuildMemberData@CPythonGuild@@ABU12@@?$_Default_allocator_traits@V?$allocator@USGuildMemberData@CPythonGuild@@@std@@@std@@SAXAAV?$allocator@USGuildMemberData@CPythonGuild@@@1@QAUSGuildMemberData@CPythonGuild@@ABU34@@Z ; std::_Default_allocator_traits<std::allocator<CPythonGuild::SGuildMemberData> >::construct<CPythonGuild::SGuildMemberData,CPythonGuild::SGuildMemberData const &>
PUBLIC	??$_Uninitialized_move@PAUSGuildBoardCommentData@CPythonGuild@@V?$allocator@USGuildBoardCommentData@CPythonGuild@@@std@@@std@@YAPAUSGuildBoardCommentData@CPythonGuild@@QAU12@0PAU12@AAV?$allocator@USGuildBoardCommentData@CPythonGuild@@@0@@Z ; std::_Uninitialized_move<CPythonGuild::SGuildBoardCommentData *,std::allocator<CPythonGuild::SGuildBoardCommentData> >
PUBLIC	??$_Get_unwrapped@ABQAUSGuildBoardCommentData@CPythonGuild@@@std@@YA?A_TABQAUSGuildBoardCommentData@CPythonGuild@@@Z ; std::_Get_unwrapped<CPythonGuild::SGuildBoardCommentData * const &>
PUBLIC	??$construct@USGuildBoardCommentData@CPythonGuild@@ABU12@@?$_Default_allocator_traits@V?$allocator@USGuildBoardCommentData@CPythonGuild@@@std@@@std@@SAXAAV?$allocator@USGuildBoardCommentData@CPythonGuild@@@1@QAUSGuildBoardCommentData@CPythonGuild@@ABU34@@Z ; std::_Default_allocator_traits<std::allocator<CPythonGuild::SGuildBoardCommentData> >::construct<CPythonGuild::SGuildBoardCommentData,CPythonGuild::SGuildBoardCommentData const &>
PUBLIC	??$destroy_at@USGuildBoardCommentData@CPythonGuild@@@std@@YAXQAUSGuildBoardCommentData@CPythonGuild@@@Z ; std::destroy_at<CPythonGuild::SGuildBoardCommentData>
PUBLIC	??$_Emplace@U?$pair@HH@std@@@?$_Tree@V?$_Tmap_traits@KKU?$less@K@std@@V?$allocator@U?$pair@$$CBKK@std@@@2@$0A@@std@@@std@@IAE?AU?$pair@PAU?$_Tree_node@U?$pair@$$CBKK@std@@PAX@std@@_N@1@$$QAU?$pair@HH@1@@Z ; std::_Tree<std::_Tmap_traits<unsigned long,unsigned long,std::less<unsigned long>,std::allocator<std::pair<unsigned long const ,unsigned long> >,0> >::_Emplace<std::pair<int,int> >
PUBLIC	??$_Partition_by_median_guess_unchecked@PAUSGuildMemberData@CPythonGuild@@UCPythonGuild_SLessMemberGrade@@@std@@YA?AU?$pair@PAUSGuildMemberData@CPythonGuild@@PAU12@@0@PAUSGuildMemberData@CPythonGuild@@0UCPythonGuild_SLessMemberGrade@@@Z ; std::_Partition_by_median_guess_unchecked<CPythonGuild::SGuildMemberData *,CPythonGuild_SLessMemberGrade>
PUBLIC	??$_Sort_heap_unchecked@PAUSGuildMemberData@CPythonGuild@@UCPythonGuild_SLessMemberGrade@@@std@@YAXPAUSGuildMemberData@CPythonGuild@@0UCPythonGuild_SLessMemberGrade@@@Z ; std::_Sort_heap_unchecked<CPythonGuild::SGuildMemberData *,CPythonGuild_SLessMemberGrade>
PUBLIC	??$_Make_heap_unchecked@PAUSGuildMemberData@CPythonGuild@@UCPythonGuild_SLessMemberGrade@@@std@@YAXPAUSGuildMemberData@CPythonGuild@@0UCPythonGuild_SLessMemberGrade@@@Z ; std::_Make_heap_unchecked<CPythonGuild::SGuildMemberData *,CPythonGuild_SLessMemberGrade>
PUBLIC	??$_Insertion_sort_unchecked@PAUSGuildMemberData@CPythonGuild@@UCPythonGuild_SLessMemberGrade@@@std@@YAPAUSGuildMemberData@CPythonGuild@@QAU12@0UCPythonGuild_SLessMemberGrade@@@Z ; std::_Insertion_sort_unchecked<CPythonGuild::SGuildMemberData *,CPythonGuild_SLessMemberGrade>
PUBLIC	??$?0V?$_Tree_iterator@V?$_Tree_val@U?$_Tree_simple_types@U?$pair@$$CBKV?$basic_string@DU?$char_traits@D@std@@V?$allocator@D@2@@std@@@std@@@std@@@std@@@std@@AB_N$0A@@?$pair@V?$_Tree_iterator@V?$_Tree_val@U?$_Tree_simple_types@U?$pair@$$CBKV?$basic_string@DU?$char_traits@D@std@@V?$allocator@D@2@@std@@@std@@@std@@@std@@@std@@_N@std@@QAE@$$QAV?$_Tree_iterator@V?$_Tree_val@U?$_Tree_simple_types@U?$pair@$$CBKV?$basic_string@DU?$char_traits@D@std@@V?$allocator@D@2@@std@@@std@@@std@@@std@@@1@AB_N@Z ; std::pair<std::_Tree_iterator<std::_Tree_val<std::_Tree_simple_types<std::pair<unsigned long const ,std::basic_string<char,std::char_traits<char>,std::allocator<char> > > > > >,bool>::pair<std::_Tree_iterator<std::_Tree_val<std::_Tree_simple_types<std::pair<unsigned long const ,std::basic_string<char,std::char_traits<char>,std::allocator<char> > > > > >,bool><std::_Tree_iterator<std::_Tree_val<std::_Tree_simple_types<std::pair<unsigned long const ,std::basic_string<char,std::char_traits<char>,std::allocator<char> > > > > >,bool const &,0>
PUBLIC	??$_Emplace@U?$pair@KV?$basic_string@DU?$char_traits@D@std@@V?$allocator@D@2@@std@@@std@@@?$_Tree@V?$_Tmap_traits@KV?$basic_string@DU?$char_traits@D@std@@V?$allocator@D@2@@std@@U?$less@K@2@V?$allocator@U?$pair@$$CBKV?$basic_string@DU?$char_traits@D@std@@V?$allocator@D@2@@std@@@std@@@2@$0A@@std@@@std@@IAE?AU?$pair@PAU?$_Tree_node@U?$pair@$$CBKV?$basic_string@DU?$char_traits@D@std@@V?$allocator@D@2@@std@@@std@@PAX@std@@_N@1@$$QAU?$pair@KV?$basic_string@DU?$char_traits@D@std@@V?$allocator@D@2@@std@@@1@@Z ; std::_Tree<std::_Tmap_traits<unsigned long,std::basic_string<char,std::char_traits<char>,std::allocator<char> >,std::less<unsigned long>,std::allocator<std::pair<unsigned long const ,std::basic_string<char,std::char_traits<char>,std::allocator<char> > > >,0> >::_Emplace<std::pair<unsigned long,std::basic_string<char,std::char_traits<char>,std::allocator<char> > > >
PUBLIC	??$forward@AAPAUSGuildMemberData@CPythonGuild@@@std@@YAAAPAUSGuildMemberData@CPythonGuild@@AAPAU12@@Z ; std::forward<CPythonGuild::SGuildMemberData * &>
PUBLIC	?_Get_first@?$_Compressed_pair@V?$allocator@USGuildMemberData@CPythonGuild@@@std@@V?$_Vector_val@U?$_Simple_types@USGuildMemberData@CPythonGuild@@@std@@@2@$00@std@@QBEABV?$allocator@USGuildMemberData@CPythonGuild@@@2@XZ ; std::_Compressed_pair<std::allocator<CPythonGuild::SGuildMemberData>,std::_Vector_val<std::_Simple_types<CPythonGuild::SGuildMemberData> >,1>::_Get_first
PUBLIC	?_Get_first@?$_Compressed_pair@V?$allocator@USGuildBoardCommentData@CPythonGuild@@@std@@V?$_Vector_val@U?$_Simple_types@USGuildBoardCommentData@CPythonGuild@@@std@@@2@$00@std@@QBEABV?$allocator@USGuildBoardCommentData@CPythonGuild@@@2@XZ ; std::_Compressed_pair<std::allocator<CPythonGuild::SGuildBoardCommentData>,std::_Vector_val<std::_Simple_types<CPythonGuild::SGuildBoardCommentData> >,1>::_Get_first
PUBLIC	?_Get_first@?$_Compressed_pair@U?$less@K@std@@V?$_Compressed_pair@V?$allocator@U?$_Tree_node@U?$pair@$$CBKV?$basic_string@DU?$char_traits@D@std@@V?$allocator@D@2@@std@@@std@@PAX@std@@@std@@V?$_Tree_val@U?$_Tree_simple_types@U?$pair@$$CBKV?$basic_string@DU?$char_traits@D@std@@V?$allocator@D@2@@std@@@std@@@std@@@2@$00@2@$00@std@@QBEABU?$less@K@2@XZ ; std::_Compressed_pair<std::less<unsigned long>,std::_Compressed_pair<std::allocator<std::_Tree_node<std::pair<unsigned long const ,std::basic_string<char,std::char_traits<char>,std::allocator<char> > >,void *> >,std::_Tree_val<std::_Tree_simple_types<std::pair<unsigned long const ,std::basic_string<char,std::char_traits<char>,std::allocator<char> > > > >,1>,1>::_Get_first
PUBLIC	?_Get_first@?$_Compressed_pair@U?$less@E@std@@V?$_Compressed_pair@V?$allocator@U?$_Tree_node@U?$pair@$$CBEUSGuildGradeData@CPythonGuild@@@std@@PAX@std@@@std@@V?$_Tree_val@U?$_Tree_simple_types@U?$pair@$$CBEUSGuildGradeData@CPythonGuild@@@std@@@std@@@2@$00@2@$00@std@@QBEABU?$less@E@2@XZ ; std::_Compressed_pair<std::less<unsigned char>,std::_Compressed_pair<std::allocator<std::_Tree_node<std::pair<unsigned char const ,CPythonGuild::SGuildGradeData>,void *> >,std::_Tree_val<std::_Tree_simple_types<std::pair<unsigned char const ,CPythonGuild::SGuildGradeData> > >,1>,1>::_Get_first
PUBLIC	?max_size@?$_Default_allocator_traits@V?$allocator@USGuildMemberData@CPythonGuild@@@std@@@std@@SAIABV?$allocator@USGuildMemberData@CPythonGuild@@@2@@Z ; std::_Default_allocator_traits<std::allocator<CPythonGuild::SGuildMemberData> >::max_size
PUBLIC	?capacity@?$vector@USGuildMemberData@CPythonGuild@@V?$allocator@USGuildMemberData@CPythonGuild@@@std@@@std@@QBEIXZ ; std::vector<CPythonGuild::SGuildMemberData,std::allocator<CPythonGuild::SGuildMemberData> >::capacity
PUBLIC	?_Getal@?$vector@USGuildMemberData@CPythonGuild@@V?$allocator@USGuildMemberData@CPythonGuild@@@std@@@std@@ABEABV?$allocator@USGuildMemberData@CPythonGuild@@@2@XZ ; std::vector<CPythonGuild::SGuildMemberData,std::allocator<CPythonGuild::SGuildMemberData> >::_Getal
PUBLIC	?max_size@?$_Default_allocator_traits@V?$allocator@USGuildBoardCommentData@CPythonGuild@@@std@@@std@@SAIABV?$allocator@USGuildBoardCommentData@CPythonGuild@@@2@@Z ; std::_Default_allocator_traits<std::allocator<CPythonGuild::SGuildBoardCommentData> >::max_size
PUBLIC	?capacity@?$vector@USGuildBoardCommentData@CPythonGuild@@V?$allocator@USGuildBoardCommentData@CPythonGuild@@@std@@@std@@QBEIXZ ; std::vector<CPythonGuild::SGuildBoardCommentData,std::allocator<CPythonGuild::SGuildBoardCommentData> >::capacity
PUBLIC	?_Getal@?$vector@USGuildBoardCommentData@CPythonGuild@@V?$allocator@USGuildBoardCommentData@CPythonGuild@@@std@@@std@@ABEABV?$allocator@USGuildBoardCommentData@CPythonGuild@@@2@XZ ; std::vector<CPythonGuild::SGuildBoardCommentData,std::allocator<CPythonGuild::SGuildBoardCommentData> >::_Getal
PUBLIC	??0?$_Alloc_construct_ptr@V?$allocator@U?$_Tree_node@U?$pair@$$CBEUSGuildGradeData@CPythonGuild@@@std@@PAX@std@@@std@@@std@@QAE@AAV?$allocator@U?$_Tree_node@U?$pair@$$CBEUSGuildGradeData@CPythonGuild@@@std@@PAX@std@@@1@@Z ; std::_Alloc_construct_ptr<std::allocator<std::_Tree_node<std::pair<unsigned char const ,CPythonGuild::SGuildGradeData>,void *> > >::_Alloc_construct_ptr<std::allocator<std::_Tree_node<std::pair<unsigned char const ,CPythonGuild::SGuildGradeData>,void *> > >
PUBLIC	?_Allocate@?$_Alloc_construct_ptr@V?$allocator@U?$_Tree_node@U?$pair@$$CBEUSGuildGradeData@CPythonGuild@@@std@@PAX@std@@@std@@@std@@QAEXXZ ; std::_Alloc_construct_ptr<std::allocator<std::_Tree_node<std::pair<unsigned char const ,CPythonGuild::SGuildGradeData>,void *> > >::_Allocate
PUBLIC	??0?$_Alloc_construct_ptr@V?$allocator@U?$_Tree_node@U?$pair@$$CBKV?$basic_string@DU?$char_traits@D@std@@V?$allocator@D@2@@std@@@std@@PAX@std@@@std@@@std@@QAE@AAV?$allocator@U?$_Tree_node@U?$pair@$$CBKV?$basic_string@DU?$char_traits@D@std@@V?$allocator@D@2@@std@@@std@@PAX@std@@@1@@Z ; std::_Alloc_construct_ptr<std::allocator<std::_Tree_node<std::pair<unsigned long const ,std::basic_string<char,std::char_traits<char>,std::allocator<char> > >,void *> > >::_Alloc_construct_ptr<std::allocator<std::_Tree_node<std::pair<unsigned long const ,std::basic_string<char,std::char_traits<char>,std::allocator<char> > >,void *> > >
PUBLIC	?_Allocate@?$_Alloc_construct_ptr@V?$allocator@U?$_Tree_node@U?$pair@$$CBKV?$basic_string@DU?$char_traits@D@std@@V?$allocator@D@2@@std@@@std@@PAX@std@@@std@@@std@@QAEXXZ ; std::_Alloc_construct_ptr<std::allocator<std::_Tree_node<std::pair<unsigned long const ,std::basic_string<char,std::char_traits<char>,std::allocator<char> > >,void *> > >::_Allocate
PUBLIC	??0?$allocator@U?$_Tree_node@U?$pair@$$CBKV?$basic_string@DU?$char_traits@D@std@@V?$allocator@D@2@@std@@@std@@PAX@std@@@std@@QAE@XZ ; std::allocator<std::_Tree_node<std::pair<unsigned long const ,std::basic_string<char,std::char_traits<char>,std::allocator<char> > >,void *> >::allocator<std::_Tree_node<std::pair<unsigned long const ,std::basic_string<char,std::char_traits<char>,std::allocator<char> > >,void *> >
PUBLIC	?deallocate@?$_Default_allocator_traits@V?$allocator@U?$_Tree_node@U?$pair@$$CBKV?$basic_string@DU?$char_traits@D@std@@V?$allocator@D@2@@std@@@std@@PAX@std@@@std@@@std@@SAXAAV?$allocator@U?$_Tree_node@U?$pair@$$CBKV?$basic_string@DU?$char_traits@D@std@@V?$allocator@D@2@@std@@@std@@PAX@std@@@2@QAU?$_Tree_node@U?$pair@$$CBKV?$basic_string@DU?$char_traits@D@std@@V?$allocator@D@2@@std@@@std@@PAX@2@I@Z ; std::_Default_allocator_traits<std::allocator<std::_Tree_node<std::pair<unsigned long const ,std::basic_string<char,std::char_traits<char>,std::allocator<char> > >,void *> > >::deallocate
PUBLIC	?_Getcomp@?$_Tree@V?$_Tmap_traits@KV?$basic_string@DU?$char_traits@D@std@@V?$allocator@D@2@@std@@U?$less@K@2@V?$allocator@U?$pair@$$CBKV?$basic_string@DU?$char_traits@D@std@@V?$allocator@D@2@@std@@@std@@@2@$0A@@std@@@std@@IBEABU?$less@K@2@XZ ; std::_Tree<std::_Tmap_traits<unsigned long,std::basic_string<char,std::char_traits<char>,std::allocator<char> >,std::less<unsigned long>,std::allocator<std::pair<unsigned long const ,std::basic_string<char,std::char_traits<char>,std::allocator<char> > > >,0> >::_Getcomp
PUBLIC	??0?$_Tree_val@U?$_Tree_simple_types@U?$pair@$$CBKV?$basic_string@DU?$char_traits@D@std@@V?$allocator@D@2@@std@@@std@@@std@@@std@@QAE@XZ ; std::_Tree_val<std::_Tree_simple_types<std::pair<unsigned long const ,std::basic_string<char,std::char_traits<char>,std::allocator<char> > > > >::_Tree_val<std::_Tree_simple_types<std::pair<unsigned long const ,std::basic_string<char,std::char_traits<char>,std::allocator<char> > > > >
PUBLIC	??0?$allocator@U?$_Tree_node@U?$pair@$$CBEUSGuildGradeData@CPythonGuild@@@std@@PAX@std@@@std@@QAE@XZ ; std::allocator<std::_Tree_node<std::pair<unsigned char const ,CPythonGuild::SGuildGradeData>,void *> >::allocator<std::_Tree_node<std::pair<unsigned char const ,CPythonGuild::SGuildGradeData>,void *> >
PUBLIC	?deallocate@?$_Default_allocator_traits@V?$allocator@U?$_Tree_node@U?$pair@$$CBEUSGuildGradeData@CPythonGuild@@@std@@PAX@std@@@std@@@std@@SAXAAV?$allocator@U?$_Tree_node@U?$pair@$$CBEUSGuildGradeData@CPythonGuild@@@std@@PAX@std@@@2@QAU?$_Tree_node@U?$pair@$$CBEUSGuildGradeData@CPythonGuild@@@std@@PAX@2@I@Z ; std::_Default_allocator_traits<std::allocator<std::_Tree_node<std::pair<unsigned char const ,CPythonGuild::SGuildGradeData>,void *> > >::deallocate
PUBLIC	?_Getcomp@?$_Tree@V?$_Tmap_traits@EUSGuildGradeData@CPythonGuild@@U?$less@E@std@@V?$allocator@U?$pair@$$CBEUSGuildGradeData@CPythonGuild@@@std@@@4@$0A@@std@@@std@@IBEABU?$less@E@2@XZ ; std::_Tree<std::_Tmap_traits<unsigned char,CPythonGuild::SGuildGradeData,std::less<unsigned char>,std::allocator<std::pair<unsigned char const ,CPythonGuild::SGuildGradeData> >,0> >::_Getcomp
PUBLIC	??0?$_Tree_val@U?$_Tree_simple_types@U?$pair@$$CBEUSGuildGradeData@CPythonGuild@@@std@@@std@@@std@@QAE@XZ ; std::_Tree_val<std::_Tree_simple_types<std::pair<unsigned char const ,CPythonGuild::SGuildGradeData> > >::_Tree_val<std::_Tree_simple_types<std::pair<unsigned char const ,CPythonGuild::SGuildGradeData> > >
PUBLIC	?allocate@?$allocator@USGuildMemberData@CPythonGuild@@@std@@QAEPAUSGuildMemberData@CPythonGuild@@I@Z ; std::allocator<CPythonGuild::SGuildMemberData>::allocate
PUBLIC	?max_size@?$vector@USGuildMemberData@CPythonGuild@@V?$allocator@USGuildMemberData@CPythonGuild@@@std@@@std@@QBEIXZ ; std::vector<CPythonGuild::SGuildMemberData,std::allocator<CPythonGuild::SGuildMemberData> >::max_size
PUBLIC	?_Calculate_growth@?$vector@USGuildMemberData@CPythonGuild@@V?$allocator@USGuildMemberData@CPythonGuild@@@std@@@std@@ABEII@Z ; std::vector<CPythonGuild::SGuildMemberData,std::allocator<CPythonGuild::SGuildMemberData> >::_Calculate_growth
PUBLIC	?_Change_array@?$vector@USGuildMemberData@CPythonGuild@@V?$allocator@USGuildMemberData@CPythonGuild@@@std@@@std@@AAEXQAUSGuildMemberData@CPythonGuild@@II@Z ; std::vector<CPythonGuild::SGuildMemberData,std::allocator<CPythonGuild::SGuildMemberData> >::_Change_array
PUBLIC	?_Xlength@?$vector@USGuildMemberData@CPythonGuild@@V?$allocator@USGuildMemberData@CPythonGuild@@@std@@@std@@CAXXZ ; std::vector<CPythonGuild::SGuildMemberData,std::allocator<CPythonGuild::SGuildMemberData> >::_Xlength
PUBLIC	?allocate@?$allocator@USGuildBoardCommentData@CPythonGuild@@@std@@QAEPAUSGuildBoardCommentData@CPythonGuild@@I@Z ; std::allocator<CPythonGuild::SGuildBoardCommentData>::allocate
PUBLIC	?max_size@?$vector@USGuildBoardCommentData@CPythonGuild@@V?$allocator@USGuildBoardCommentData@CPythonGuild@@@std@@@std@@QBEIXZ ; std::vector<CPythonGuild::SGuildBoardCommentData,std::allocator<CPythonGuild::SGuildBoardCommentData> >::max_size
PUBLIC	?_Calculate_growth@?$vector@USGuildBoardCommentData@CPythonGuild@@V?$allocator@USGuildBoardCommentData@CPythonGuild@@@std@@@std@@ABEII@Z ; std::vector<CPythonGuild::SGuildBoardCommentData,std::allocator<CPythonGuild::SGuildBoardCommentData> >::_Calculate_growth
PUBLIC	?_Change_array@?$vector@USGuildBoardCommentData@CPythonGuild@@V?$allocator@USGuildBoardCommentData@CPythonGuild@@@std@@@std@@AAEXQAUSGuildBoardCommentData@CPythonGuild@@II@Z ; std::vector<CPythonGuild::SGuildBoardCommentData,std::allocator<CPythonGuild::SGuildBoardCommentData> >::_Change_array
PUBLIC	?_Xlength@?$vector@USGuildBoardCommentData@CPythonGuild@@V?$allocator@USGuildBoardCommentData@CPythonGuild@@@std@@@std@@CAXXZ ; std::vector<CPythonGuild::SGuildBoardCommentData,std::allocator<CPythonGuild::SGuildBoardCommentData> >::_Xlength
PUBLIC	?_Orphan_range@?$vector@USGuildBoardCommentData@CPythonGuild@@V?$allocator@USGuildBoardCommentData@CPythonGuild@@@std@@@std@@ABEXPAUSGuildBoardCommentData@CPythonGuild@@0@Z ; std::vector<CPythonGuild::SGuildBoardCommentData,std::allocator<CPythonGuild::SGuildBoardCommentData> >::_Orphan_range
PUBLIC	?_Seek_to@?$_Vector_const_iterator@V?$_Vector_val@U?$_Simple_types@USGuildMemberData@CPythonGuild@@@std@@@std@@@std@@QAEXPBUSGuildMemberData@CPythonGuild@@@Z ; std::_Vector_const_iterator<std::_Vector_val<std::_Simple_types<CPythonGuild::SGuildMemberData> > >::_Seek_to
PUBLIC	??0?$_Tree_temp_node_alloc@V?$allocator@U?$_Tree_node@U?$pair@$$CBEUSGuildGradeData@CPythonGuild@@@std@@PAX@std@@@std@@@std@@QAE@AAV?$allocator@U?$_Tree_node@U?$pair@$$CBEUSGuildGradeData@CPythonGuild@@@std@@PAX@std@@@1@@Z ; std::_Tree_temp_node_alloc<std::allocator<std::_Tree_node<std::pair<unsigned char const ,CPythonGuild::SGuildGradeData>,void *> > >::_Tree_temp_node_alloc<std::allocator<std::_Tree_node<std::pair<unsigned char const ,CPythonGuild::SGuildGradeData>,void *> > >
PUBLIC	??0?$_Tree_temp_node_alloc@V?$allocator@U?$_Tree_node@U?$pair@$$CBKV?$basic_string@DU?$char_traits@D@std@@V?$allocator@D@2@@std@@@std@@PAX@std@@@std@@@std@@QAE@AAV?$allocator@U?$_Tree_node@U?$pair@$$CBKV?$basic_string@DU?$char_traits@D@std@@V?$allocator@D@2@@std@@@std@@PAX@std@@@1@@Z ; std::_Tree_temp_node_alloc<std::allocator<std::_Tree_node<std::pair<unsigned long const ,std::basic_string<char,std::char_traits<char>,std::allocator<char> > >,void *> > >::_Tree_temp_node_alloc<std::allocator<std::_Tree_node<std::pair<unsigned long const ,std::basic_string<char,std::char_traits<char>,std::allocator<char> > >,void *> > >
PUBLIC	??_GSGuildMemberData@CPythonGuild@@QAEPAXI@Z	; CPythonGuild::SGuildMemberData::`scalar deleting destructor'
PUBLIC	??$addressof@$$CBV?$_Tree_val@U?$_Tree_simple_types@U?$pair@$$CBKV?$basic_string@DU?$char_traits@D@std@@V?$allocator@D@2@@std@@@std@@@std@@@std@@@std@@YAPBV?$_Tree_val@U?$_Tree_simple_types@U?$pair@$$CBKV?$basic_string@DU?$char_traits@D@std@@V?$allocator@D@2@@std@@@std@@@std@@@0@ABV10@@Z ; std::addressof<std::_Tree_val<std::_Tree_simple_types<std::pair<unsigned long const ,std::basic_string<char,std::char_traits<char>,std::allocator<char> > > > > const >
PUBLIC	??$_Get_size_of_n@$0DA@@std@@YAII@Z		; std::_Get_size_of_n<48>
PUBLIC	??$addressof@$$CBV?$_Tree_val@U?$_Tree_simple_types@U?$pair@$$CBEUSGuildGradeData@CPythonGuild@@@std@@@std@@@std@@@std@@YAPBV?$_Tree_val@U?$_Tree_simple_types@U?$pair@$$CBEUSGuildGradeData@CPythonGuild@@@std@@@std@@@0@ABV10@@Z ; std::addressof<std::_Tree_val<std::_Tree_simple_types<std::pair<unsigned char const ,CPythonGuild::SGuildGradeData> > > const >
PUBLIC	??$exchange@PAU?$_Tree_node@U?$pair@$$CBEUSGuildGradeData@CPythonGuild@@@std@@PAX@std@@$$T@std@@YAPAU?$_Tree_node@U?$pair@$$CBEUSGuildGradeData@CPythonGuild@@@std@@PAX@0@AAPAU10@$$QA$$T@Z ; std::exchange<std::_Tree_node<std::pair<unsigned char const ,CPythonGuild::SGuildGradeData>,void *> *,std::nullptr_t>
PUBLIC	??$destroy@U?$pair@$$CBEUSGuildGradeData@CPythonGuild@@@std@@@?$_Default_allocator_traits@V?$allocator@U?$_Tree_node@U?$pair@$$CBEUSGuildGradeData@CPythonGuild@@@std@@PAX@std@@@std@@@std@@SAXAAV?$allocator@U?$_Tree_node@U?$pair@$$CBEUSGuildGradeData@CPythonGuild@@@std@@PAX@std@@@1@QAU?$pair@$$CBEUSGuildGradeData@CPythonGuild@@@1@@Z ; std::_Default_allocator_traits<std::allocator<std::_Tree_node<std::pair<unsigned char const ,CPythonGuild::SGuildGradeData>,void *> > >::destroy<std::pair<unsigned char const ,CPythonGuild::SGuildGradeData> >
PUBLIC	??$_Destroy_in_place@PAU?$_Tree_node@U?$pair@$$CBEUSGuildGradeData@CPythonGuild@@@std@@PAX@std@@@std@@YAXAAPAU?$_Tree_node@U?$pair@$$CBEUSGuildGradeData@CPythonGuild@@@std@@PAX@0@@Z ; std::_Destroy_in_place<std::_Tree_node<std::pair<unsigned char const ,CPythonGuild::SGuildGradeData>,void *> *>
PUBLIC	??$exchange@PAU?$_Tree_node@U?$pair@$$CBKV?$basic_string@DU?$char_traits@D@std@@V?$allocator@D@2@@std@@@std@@PAX@std@@$$T@std@@YAPAU?$_Tree_node@U?$pair@$$CBKV?$basic_string@DU?$char_traits@D@std@@V?$allocator@D@2@@std@@@std@@PAX@0@AAPAU10@$$QA$$T@Z ; std::exchange<std::_Tree_node<std::pair<unsigned long const ,std::basic_string<char,std::char_traits<char>,std::allocator<char> > >,void *> *,std::nullptr_t>
PUBLIC	??$destroy@U?$pair@$$CBKV?$basic_string@DU?$char_traits@D@std@@V?$allocator@D@2@@std@@@std@@@?$_Default_allocator_traits@V?$allocator@U?$_Tree_node@U?$pair@$$CBKV?$basic_string@DU?$char_traits@D@std@@V?$allocator@D@2@@std@@@std@@PAX@std@@@std@@@std@@SAXAAV?$allocator@U?$_Tree_node@U?$pair@$$CBKV?$basic_string@DU?$char_traits@D@std@@V?$allocator@D@2@@std@@@std@@PAX@std@@@1@QAU?$pair@$$CBKV?$basic_string@DU?$char_traits@D@std@@V?$allocator@D@2@@std@@@1@@Z ; std::_Default_allocator_traits<std::allocator<std::_Tree_node<std::pair<unsigned long const ,std::basic_string<char,std::char_traits<char>,std::allocator<char> > >,void *> > >::destroy<std::pair<unsigned long const ,std::basic_string<char,std::char_traits<char>,std::allocator<char> > > >
PUBLIC	??$addressof@U?$pair@$$CBKV?$basic_string@DU?$char_traits@D@std@@V?$allocator@D@2@@std@@@std@@@std@@YAPAU?$pair@$$CBKV?$basic_string@DU?$char_traits@D@std@@V?$allocator@D@2@@std@@@0@AAU10@@Z ; std::addressof<std::pair<unsigned long const ,std::basic_string<char,std::char_traits<char>,std::allocator<char> > > >
PUBLIC	??$_Destroy_in_place@PAU?$_Tree_node@U?$pair@$$CBKV?$basic_string@DU?$char_traits@D@std@@V?$allocator@D@2@@std@@@std@@PAX@std@@@std@@YAXAAPAU?$_Tree_node@U?$pair@$$CBKV?$basic_string@DU?$char_traits@D@std@@V?$allocator@D@2@@std@@@std@@PAX@0@@Z ; std::_Destroy_in_place<std::_Tree_node<std::pair<unsigned long const ,std::basic_string<char,std::char_traits<char>,std::allocator<char> > >,void *> *>
PUBLIC	??$_Construct_in_place@PAU?$_Tree_node@U?$pair@$$CBKV?$basic_string@DU?$char_traits@D@std@@V?$allocator@D@2@@std@@@std@@PAX@std@@ABQAU12@@std@@YAXAAPAU?$_Tree_node@U?$pair@$$CBKV?$basic_string@DU?$char_traits@D@std@@V?$allocator@D@2@@std@@@std@@PAX@0@ABQAU10@@Z ; std::_Construct_in_place<std::_Tree_node<std::pair<unsigned long const ,std::basic_string<char,std::char_traits<char>,std::allocator<char> > >,void *> *,std::_Tree_node<std::pair<unsigned long const ,std::basic_string<char,std::char_traits<char>,std::allocator<char> > >,void *> * const &>
PUBLIC	??$_Construct_in_place@PAU?$_Tree_node@U?$pair@$$CBEUSGuildGradeData@CPythonGuild@@@std@@PAX@std@@ABQAU12@@std@@YAXAAPAU?$_Tree_node@U?$pair@$$CBEUSGuildGradeData@CPythonGuild@@@std@@PAX@0@ABQAU10@@Z ; std::_Construct_in_place<std::_Tree_node<std::pair<unsigned char const ,CPythonGuild::SGuildGradeData>,void *> *,std::_Tree_node<std::pair<unsigned char const ,CPythonGuild::SGuildGradeData>,void *> * const &>
PUBLIC	??$forward@ABU?$less@E@std@@@std@@YAABU?$less@E@0@ABU10@@Z ; std::forward<std::less<unsigned char> const &>
PUBLIC	??$_Freenode0@V?$allocator@U?$_Tree_node@U?$pair@$$CBKV?$basic_string@DU?$char_traits@D@std@@V?$allocator@D@2@@std@@@std@@PAX@std@@@std@@@?$_Tree_node@U?$pair@$$CBKV?$basic_string@DU?$char_traits@D@std@@V?$allocator@D@2@@std@@@std@@PAX@std@@SAXAAV?$allocator@U?$_Tree_node@U?$pair@$$CBKV?$basic_string@DU?$char_traits@D@std@@V?$allocator@D@2@@std@@@std@@PAX@std@@@1@PAU01@@Z ; std::_Tree_node<std::pair<unsigned long const ,std::basic_string<char,std::char_traits<char>,std::allocator<char> > >,void *>::_Freenode0<std::allocator<std::_Tree_node<std::pair<unsigned long const ,std::basic_string<char,std::char_traits<char>,std::allocator<char> > >,void *> > >
PUBLIC	??$_Freenode@V?$allocator@U?$_Tree_node@U?$pair@$$CBKV?$basic_string@DU?$char_traits@D@std@@V?$allocator@D@2@@std@@@std@@PAX@std@@@std@@@?$_Tree_node@U?$pair@$$CBKV?$basic_string@DU?$char_traits@D@std@@V?$allocator@D@2@@std@@@std@@PAX@std@@SAXAAV?$allocator@U?$_Tree_node@U?$pair@$$CBKV?$basic_string@DU?$char_traits@D@std@@V?$allocator@D@2@@std@@@std@@PAX@std@@@1@PAU01@@Z ; std::_Tree_node<std::pair<unsigned long const ,std::basic_string<char,std::char_traits<char>,std::allocator<char> > >,void *>::_Freenode<std::allocator<std::_Tree_node<std::pair<unsigned long const ,std::basic_string<char,std::char_traits<char>,std::allocator<char> > >,void *> > >
PUBLIC	??$exchange@PAU?$_Tree_node@U?$pair@$$CBKV?$basic_string@DU?$char_traits@D@std@@V?$allocator@D@2@@std@@@std@@PAX@std@@AAPAU12@@std@@YAPAU?$_Tree_node@U?$pair@$$CBKV?$basic_string@DU?$char_traits@D@std@@V?$allocator@D@2@@std@@@std@@PAX@0@AAPAU10@0@Z ; std::exchange<std::_Tree_node<std::pair<unsigned long const ,std::basic_string<char,std::char_traits<char>,std::allocator<char> > >,void *> *,std::_Tree_node<std::pair<unsigned long const ,std::basic_string<char,std::char_traits<char>,std::allocator<char> > >,void *> * &>
PUBLIC	??$?0PAU?$_Tree_node@U?$pair@$$CBKV?$basic_string@DU?$char_traits@D@std@@V?$allocator@D@2@@std@@@std@@PAX@std@@_N$0A@@?$pair@PAU?$_Tree_node@U?$pair@$$CBKV?$basic_string@DU?$char_traits@D@std@@V?$allocator@D@2@@std@@@std@@PAX@std@@_N@std@@QAE@$$QAPAU?$_Tree_node@U?$pair@$$CBKV?$basic_string@DU?$char_traits@D@std@@V?$allocator@D@2@@std@@@std@@PAX@1@$$QA_N@Z ; std::pair<std::_Tree_node<std::pair<unsigned long const ,std::basic_string<char,std::char_traits<char>,std::allocator<char> > >,void *> *,bool>::pair<std::_Tree_node<std::pair<unsigned long const ,std::basic_string<char,std::char_traits<char>,std::allocator<char> > >,void *> *,bool><std::_Tree_node<std::pair<unsigned long const ,std::basic_string<char,std::char_traits<char>,std::allocator<char> > >,void *> *,bool,0>
PUBLIC	??$?0ABQAU?$_Tree_node@U?$pair@$$CBKV?$basic_string@DU?$char_traits@D@std@@V?$allocator@D@2@@std@@@std@@PAX@std@@_N$0A@@?$pair@PAU?$_Tree_node@U?$pair@$$CBKV?$basic_string@DU?$char_traits@D@std@@V?$allocator@D@2@@std@@@std@@PAX@std@@_N@std@@QAE@ABQAU?$_Tree_node@U?$pair@$$CBKV?$basic_string@DU?$char_traits@D@std@@V?$allocator@D@2@@std@@@std@@PAX@1@$$QA_N@Z ; std::pair<std::_Tree_node<std::pair<unsigned long const ,std::basic_string<char,std::char_traits<char>,std::allocator<char> > >,void *> *,bool>::pair<std::_Tree_node<std::pair<unsigned long const ,std::basic_string<char,std::char_traits<char>,std::allocator<char> > >,void *> *,bool><std::_Tree_node<std::pair<unsigned long const ,std::basic_string<char,std::char_traits<char>,std::allocator<char> > >,void *> * const &,bool,0>
PUBLIC	??$?0ABUpiecewise_construct_t@std@@V?$tuple@ABK@1@V?$tuple@$$V@1@@?$_Tree_temp_node@V?$allocator@U?$_Tree_node@U?$pair@$$CBKV?$basic_string@DU?$char_traits@D@std@@V?$allocator@D@2@@std@@@std@@PAX@std@@@std@@@std@@QAE@AAV?$allocator@U?$_Tree_node@U?$pair@$$CBKV?$basic_string@DU?$char_traits@D@std@@V?$allocator@D@2@@std@@@std@@PAX@std@@@1@PAU?$_Tree_node@U?$pair@$$CBKV?$basic_string@DU?$char_traits@D@std@@V?$allocator@D@2@@std@@@std@@PAX@1@ABUpiecewise_construct_t@1@$$QAV?$tuple@ABK@1@$$QAV?$tuple@$$V@1@@Z ; std::_Tree_temp_node<std::allocator<std::_Tree_node<std::pair<unsigned long const ,std::basic_string<char,std::char_traits<char>,std::allocator<char> > >,void *> > >::_Tree_temp_node<std::allocator<std::_Tree_node<std::pair<unsigned long const ,std::basic_string<char,std::char_traits<char>,std::allocator<char> > >,void *> > ><std::piecewise_construct_t const &,std::tuple<unsigned long const &>,std::tuple<> >
PUBLIC	??$_Lower_bound_duplicate@K@?$_Tree@V?$_Tmap_traits@KV?$basic_string@DU?$char_traits@D@std@@V?$allocator@D@2@@std@@U?$less@K@2@V?$allocator@U?$pair@$$CBKV?$basic_string@DU?$char_traits@D@std@@V?$allocator@D@2@@std@@@std@@@2@$0A@@std@@@std@@IBE_NQAU?$_Tree_node@U?$pair@$$CBKV?$basic_string@DU?$char_traits@D@std@@V?$allocator@D@2@@std@@@std@@PAX@1@ABK@Z ; std::_Tree<std::_Tmap_traits<unsigned long,std::basic_string<char,std::char_traits<char>,std::allocator<char> >,std::less<unsigned long>,std::allocator<std::pair<unsigned long const ,std::basic_string<char,std::char_traits<char>,std::allocator<char> > > >,0> >::_Lower_bound_duplicate<unsigned long>
PUBLIC	??$_Find_lower_bound@K@?$_Tree@V?$_Tmap_traits@KV?$basic_string@DU?$char_traits@D@std@@V?$allocator@D@2@@std@@U?$less@K@2@V?$allocator@U?$pair@$$CBKV?$basic_string@DU?$char_traits@D@std@@V?$allocator@D@2@@std@@@std@@@2@$0A@@std@@@std@@IBE?AU?$_Tree_find_result@PAU?$_Tree_node@U?$pair@$$CBKV?$basic_string@DU?$char_traits@D@std@@V?$allocator@D@2@@std@@@std@@PAX@std@@@1@ABK@Z ; std::_Tree<std::_Tmap_traits<unsigned long,std::basic_string<char,std::char_traits<char>,std::allocator<char> >,std::less<unsigned long>,std::allocator<std::pair<unsigned long const ,std::basic_string<char,std::char_traits<char>,std::allocator<char> > > >,0> >::_Find_lower_bound<unsigned long>
PUBLIC	??$_Freenode0@V?$allocator@U?$_Tree_node@U?$pair@$$CBEUSGuildGradeData@CPythonGuild@@@std@@PAX@std@@@std@@@?$_Tree_node@U?$pair@$$CBEUSGuildGradeData@CPythonGuild@@@std@@PAX@std@@SAXAAV?$allocator@U?$_Tree_node@U?$pair@$$CBEUSGuildGradeData@CPythonGuild@@@std@@PAX@std@@@1@PAU01@@Z ; std::_Tree_node<std::pair<unsigned char const ,CPythonGuild::SGuildGradeData>,void *>::_Freenode0<std::allocator<std::_Tree_node<std::pair<unsigned char const ,CPythonGuild::SGuildGradeData>,void *> > >
PUBLIC	??$_Freenode@V?$allocator@U?$_Tree_node@U?$pair@$$CBEUSGuildGradeData@CPythonGuild@@@std@@PAX@std@@@std@@@?$_Tree_node@U?$pair@$$CBEUSGuildGradeData@CPythonGuild@@@std@@PAX@std@@SAXAAV?$allocator@U?$_Tree_node@U?$pair@$$CBEUSGuildGradeData@CPythonGuild@@@std@@PAX@std@@@1@PAU01@@Z ; std::_Tree_node<std::pair<unsigned char const ,CPythonGuild::SGuildGradeData>,void *>::_Freenode<std::allocator<std::_Tree_node<std::pair<unsigned char const ,CPythonGuild::SGuildGradeData>,void *> > >
PUBLIC	??$exchange@PAU?$_Tree_node@U?$pair@$$CBEUSGuildGradeData@CPythonGuild@@@std@@PAX@std@@AAPAU12@@std@@YAPAU?$_Tree_node@U?$pair@$$CBEUSGuildGradeData@CPythonGuild@@@std@@PAX@0@AAPAU10@0@Z ; std::exchange<std::_Tree_node<std::pair<unsigned char const ,CPythonGuild::SGuildGradeData>,void *> *,std::_Tree_node<std::pair<unsigned char const ,CPythonGuild::SGuildGradeData>,void *> * &>
PUBLIC	??$?0PAU?$_Tree_node@U?$pair@$$CBEUSGuildGradeData@CPythonGuild@@@std@@PAX@std@@_N$0A@@?$pair@PAU?$_Tree_node@U?$pair@$$CBEUSGuildGradeData@CPythonGuild@@@std@@PAX@std@@_N@std@@QAE@$$QAPAU?$_Tree_node@U?$pair@$$CBEUSGuildGradeData@CPythonGuild@@@std@@PAX@1@$$QA_N@Z ; std::pair<std::_Tree_node<std::pair<unsigned char const ,CPythonGuild::SGuildGradeData>,void *> *,bool>::pair<std::_Tree_node<std::pair<unsigned char const ,CPythonGuild::SGuildGradeData>,void *> *,bool><std::_Tree_node<std::pair<unsigned char const ,CPythonGuild::SGuildGradeData>,void *> *,bool,0>
PUBLIC	??$?0ABQAU?$_Tree_node@U?$pair@$$CBEUSGuildGradeData@CPythonGuild@@@std@@PAX@std@@_N$0A@@?$pair@PAU?$_Tree_node@U?$pair@$$CBEUSGuildGradeData@CPythonGuild@@@std@@PAX@std@@_N@std@@QAE@ABQAU?$_Tree_node@U?$pair@$$CBEUSGuildGradeData@CPythonGuild@@@std@@PAX@1@$$QA_N@Z ; std::pair<std::_Tree_node<std::pair<unsigned char const ,CPythonGuild::SGuildGradeData>,void *> *,bool>::pair<std::_Tree_node<std::pair<unsigned char const ,CPythonGuild::SGuildGradeData>,void *> *,bool><std::_Tree_node<std::pair<unsigned char const ,CPythonGuild::SGuildGradeData>,void *> * const &,bool,0>
PUBLIC	??$?0ABUpiecewise_construct_t@std@@V?$tuple@ABE@1@V?$tuple@$$V@1@@?$_Tree_temp_node@V?$allocator@U?$_Tree_node@U?$pair@$$CBEUSGuildGradeData@CPythonGuild@@@std@@PAX@std@@@std@@@std@@QAE@AAV?$allocator@U?$_Tree_node@U?$pair@$$CBEUSGuildGradeData@CPythonGuild@@@std@@PAX@std@@@1@PAU?$_Tree_node@U?$pair@$$CBEUSGuildGradeData@CPythonGuild@@@std@@PAX@1@ABUpiecewise_construct_t@1@$$QAV?$tuple@ABE@1@$$QAV?$tuple@$$V@1@@Z ; std::_Tree_temp_node<std::allocator<std::_Tree_node<std::pair<unsigned char const ,CPythonGuild::SGuildGradeData>,void *> > >::_Tree_temp_node<std::allocator<std::_Tree_node<std::pair<unsigned char const ,CPythonGuild::SGuildGradeData>,void *> > ><std::piecewise_construct_t const &,std::tuple<unsigned char const &>,std::tuple<> >
PUBLIC	??$forward_as_tuple@ABE@std@@YA?AV?$tuple@ABE@0@ABE@Z ; std::forward_as_tuple<unsigned char const &>
PUBLIC	??$_Lower_bound_duplicate@E@?$_Tree@V?$_Tmap_traits@EUSGuildGradeData@CPythonGuild@@U?$less@E@std@@V?$allocator@U?$pair@$$CBEUSGuildGradeData@CPythonGuild@@@std@@@4@$0A@@std@@@std@@IBE_NQAU?$_Tree_node@U?$pair@$$CBEUSGuildGradeData@CPythonGuild@@@std@@PAX@1@ABE@Z ; std::_Tree<std::_Tmap_traits<unsigned char,CPythonGuild::SGuildGradeData,std::less<unsigned char>,std::allocator<std::pair<unsigned char const ,CPythonGuild::SGuildGradeData> >,0> >::_Lower_bound_duplicate<unsigned char>
PUBLIC	??$_Find_lower_bound@E@?$_Tree@V?$_Tmap_traits@EUSGuildGradeData@CPythonGuild@@U?$less@E@std@@V?$allocator@U?$pair@$$CBEUSGuildGradeData@CPythonGuild@@@std@@@4@$0A@@std@@@std@@IBE?AU?$_Tree_find_result@PAU?$_Tree_node@U?$pair@$$CBEUSGuildGradeData@CPythonGuild@@@std@@PAX@std@@@1@ABE@Z ; std::_Tree<std::_Tmap_traits<unsigned char,CPythonGuild::SGuildGradeData,std::less<unsigned char>,std::allocator<std::pair<unsigned char const ,CPythonGuild::SGuildGradeData> >,0> >::_Find_lower_bound<unsigned char>
PUBLIC	??$_Emplace_reallocate@ABUSGuildMemberData@CPythonGuild@@@?$vector@USGuildMemberData@CPythonGuild@@V?$allocator@USGuildMemberData@CPythonGuild@@@std@@@std@@AAEPAUSGuildMemberData@CPythonGuild@@QAU23@ABU23@@Z ; std::vector<CPythonGuild::SGuildMemberData,std::allocator<CPythonGuild::SGuildMemberData> >::_Emplace_reallocate<CPythonGuild::SGuildMemberData const &>
PUBLIC	??$_Emplace_back_with_unused_capacity@ABUSGuildMemberData@CPythonGuild@@@?$vector@USGuildMemberData@CPythonGuild@@V?$allocator@USGuildMemberData@CPythonGuild@@@std@@@std@@AAEAAUSGuildMemberData@CPythonGuild@@ABU23@@Z ; std::vector<CPythonGuild::SGuildMemberData,std::allocator<CPythonGuild::SGuildMemberData> >::_Emplace_back_with_unused_capacity<CPythonGuild::SGuildMemberData const &>
PUBLIC	??$forward@ABUSGuildMemberData@CPythonGuild@@@std@@YAABUSGuildMemberData@CPythonGuild@@ABU12@@Z ; std::forward<CPythonGuild::SGuildMemberData const &>
PUBLIC	??1SGuildMemberData@CPythonGuild@@QAE@XZ	; CPythonGuild::SGuildMemberData::~SGuildMemberData
PUBLIC	??$destroy_at@USGuildMemberData@CPythonGuild@@@std@@YAXQAUSGuildMemberData@CPythonGuild@@@Z ; std::destroy_at<CPythonGuild::SGuildMemberData>
PUBLIC	??$move@AAUSGuildMemberData@CPythonGuild@@@std@@YA$$QAUSGuildMemberData@CPythonGuild@@AAU12@@Z ; std::move<CPythonGuild::SGuildMemberData &>
PUBLIC	??$_Emplace_reallocate@ABUSGuildBoardCommentData@CPythonGuild@@@?$vector@USGuildBoardCommentData@CPythonGuild@@V?$allocator@USGuildBoardCommentData@CPythonGuild@@@std@@@std@@AAEPAUSGuildBoardCommentData@CPythonGuild@@QAU23@ABU23@@Z ; std::vector<CPythonGuild::SGuildBoardCommentData,std::allocator<CPythonGuild::SGuildBoardCommentData> >::_Emplace_reallocate<CPythonGuild::SGuildBoardCommentData const &>
PUBLIC	??$_Emplace_back_with_unused_capacity@ABUSGuildBoardCommentData@CPythonGuild@@@?$vector@USGuildBoardCommentData@CPythonGuild@@V?$allocator@USGuildBoardCommentData@CPythonGuild@@@std@@@std@@AAEAAUSGuildBoardCommentData@CPythonGuild@@ABU23@@Z ; std::vector<CPythonGuild::SGuildBoardCommentData,std::allocator<CPythonGuild::SGuildBoardCommentData> >::_Emplace_back_with_unused_capacity<CPythonGuild::SGuildBoardCommentData const &>
PUBLIC	??$forward@ABUSGuildBoardCommentData@CPythonGuild@@@std@@YAABUSGuildBoardCommentData@CPythonGuild@@ABU12@@Z ; std::forward<CPythonGuild::SGuildBoardCommentData const &>
PUBLIC	??$destroy@USGuildBoardCommentData@CPythonGuild@@@?$_Default_allocator_traits@V?$allocator@USGuildBoardCommentData@CPythonGuild@@@std@@@std@@SAXAAV?$allocator@USGuildBoardCommentData@CPythonGuild@@@1@QAUSGuildBoardCommentData@CPythonGuild@@@Z ; std::_Default_allocator_traits<std::allocator<CPythonGuild::SGuildBoardCommentData> >::destroy<CPythonGuild::SGuildBoardCommentData>
PUBLIC	??$_Unfancy@USGuildBoardCommentData@CPythonGuild@@@std@@YAPAUSGuildBoardCommentData@CPythonGuild@@PAU12@@Z ; std::_Unfancy<CPythonGuild::SGuildBoardCommentData>
PUBLIC	??$emplace@U?$pair@HH@std@@@?$_Tree@V?$_Tmap_traits@KKU?$less@K@std@@V?$allocator@U?$pair@$$CBKK@std@@@2@$0A@@std@@@std@@QAE?AU?$pair@V?$_Tree_iterator@V?$_Tree_val@U?$_Tree_simple_types@U?$pair@$$CBKK@std@@@std@@@std@@@std@@_N@1@$$QAU?$pair@HH@1@@Z ; std::_Tree<std::_Tmap_traits<unsigned long,unsigned long,std::less<unsigned long>,std::allocator<std::pair<unsigned long const ,unsigned long> >,0> >::emplace<std::pair<int,int> >
PUBLIC	??$forward@U?$pair@HH@std@@@std@@YA$$QAU?$pair@HH@0@AAU10@@Z ; std::forward<std::pair<int,int> >
PUBLIC	??$?0AAHAAH$0A@@?$pair@HH@std@@QAE@AAH0@Z	; std::pair<int,int>::pair<int,int><int &,int &,0>
PUBLIC	??$_Sort_unchecked@PAUSGuildMemberData@CPythonGuild@@UCPythonGuild_SLessMemberGrade@@@std@@YAXPAUSGuildMemberData@CPythonGuild@@0HUCPythonGuild_SLessMemberGrade@@@Z ; std::_Sort_unchecked<CPythonGuild::SGuildMemberData *,CPythonGuild_SLessMemberGrade>
PUBLIC	??$_Pass_fn@UCPythonGuild_SLessMemberGrade@@$0A@@std@@YA?AUCPythonGuild_SLessMemberGrade@@U1@@Z ; std::_Pass_fn<CPythonGuild_SLessMemberGrade,0>
PUBLIC	??$emplace@U?$pair@KV?$basic_string@DU?$char_traits@D@std@@V?$allocator@D@2@@std@@@std@@@?$_Tree@V?$_Tmap_traits@KV?$basic_string@DU?$char_traits@D@std@@V?$allocator@D@2@@std@@U?$less@K@2@V?$allocator@U?$pair@$$CBKV?$basic_string@DU?$char_traits@D@std@@V?$allocator@D@2@@std@@@std@@@2@$0A@@std@@@std@@QAE?AU?$pair@V?$_Tree_iterator@V?$_Tree_val@U?$_Tree_simple_types@U?$pair@$$CBKV?$basic_string@DU?$char_traits@D@std@@V?$allocator@D@2@@std@@@std@@@std@@@std@@@std@@_N@1@$$QAU?$pair@KV?$basic_string@DU?$char_traits@D@std@@V?$allocator@D@2@@std@@@1@@Z ; std::_Tree<std::_Tmap_traits<unsigned long,std::basic_string<char,std::char_traits<char>,std::allocator<char> >,std::less<unsigned long>,std::allocator<std::pair<unsigned long const ,std::basic_string<char,std::char_traits<char>,std::allocator<char> > > >,0> >::emplace<std::pair<unsigned long,std::basic_string<char,std::char_traits<char>,std::allocator<char> > > >
PUBLIC	??$?0AAKV?$basic_string@DU?$char_traits@D@std@@V?$allocator@D@2@@std@@$0A@@?$pair@KV?$basic_string@DU?$char_traits@D@std@@V?$allocator@D@2@@std@@@std@@QAE@AAK$$QAV?$basic_string@DU?$char_traits@D@std@@V?$allocator@D@2@@1@@Z ; std::pair<unsigned long,std::basic_string<char,std::char_traits<char>,std::allocator<char> > >::pair<unsigned long,std::basic_string<char,std::char_traits<char>,std::allocator<char> > ><unsigned long &,std::basic_string<char,std::char_traits<char>,std::allocator<char> >,0>
PUBLIC	??$_Seek_wrapped@V?$_Vector_iterator@V?$_Vector_val@U?$_Simple_types@USGuildMemberData@CPythonGuild@@@std@@@std@@@std@@AAPAUSGuildMemberData@CPythonGuild@@@std@@YAXAAV?$_Vector_iterator@V?$_Vector_val@U?$_Simple_types@USGuildMemberData@CPythonGuild@@@std@@@std@@@0@AAPAUSGuildMemberData@CPythonGuild@@@Z ; std::_Seek_wrapped<std::_Vector_iterator<std::_Vector_val<std::_Simple_types<CPythonGuild::SGuildMemberData> > >,CPythonGuild::SGuildMemberData * &>
PUBLIC	??$_Adl_verify_range@V?$_Vector_iterator@V?$_Vector_val@U?$_Simple_types@USGuildMemberData@CPythonGuild@@@std@@@std@@@std@@V12@@std@@YAXABV?$_Vector_iterator@V?$_Vector_val@U?$_Simple_types@USGuildMemberData@CPythonGuild@@@std@@@std@@@0@0@Z ; std::_Adl_verify_range<std::_Vector_iterator<std::_Vector_val<std::_Simple_types<CPythonGuild::SGuildMemberData> > >,std::_Vector_iterator<std::_Vector_val<std::_Simple_types<CPythonGuild::SGuildMemberData> > > >
PUBLIC	??$?0$$V@?$_Compressed_pair@V?$allocator@U?$_Tree_node@U?$pair@$$CBKV?$basic_string@DU?$char_traits@D@std@@V?$allocator@D@2@@std@@@std@@PAX@std@@@std@@V?$_Tree_val@U?$_Tree_simple_types@U?$pair@$$CBKV?$basic_string@DU?$char_traits@D@std@@V?$allocator@D@2@@std@@@std@@@std@@@2@$00@std@@QAE@U_Zero_then_variadic_args_t@1@@Z ; std::_Compressed_pair<std::allocator<std::_Tree_node<std::pair<unsigned long const ,std::basic_string<char,std::char_traits<char>,std::allocator<char> > >,void *> >,std::_Tree_val<std::_Tree_simple_types<std::pair<unsigned long const ,std::basic_string<char,std::char_traits<char>,std::allocator<char> > > > >,1>::_Compressed_pair<std::allocator<std::_Tree_node<std::pair<unsigned long const ,std::basic_string<char,std::char_traits<char>,std::allocator<char> > >,void *> >,std::_Tree_val<std::_Tree_simple_types<std::pair<unsigned long const ,std::basic_string<char,std::char_traits<char>,std::allocator<char> > > > >,1><>
PUBLIC	??$?0$$V@?$_Compressed_pair@V?$allocator@U?$_Tree_node@U?$pair@$$CBEUSGuildGradeData@CPythonGuild@@@std@@PAX@std@@@std@@V?$_Tree_val@U?$_Tree_simple_types@U?$pair@$$CBEUSGuildGradeData@CPythonGuild@@@std@@@std@@@2@$00@std@@QAE@U_Zero_then_variadic_args_t@1@@Z ; std::_Compressed_pair<std::allocator<std::_Tree_node<std::pair<unsigned char const ,CPythonGuild::SGuildGradeData>,void *> >,std::_Tree_val<std::_Tree_simple_types<std::pair<unsigned char const ,CPythonGuild::SGuildGradeData> > >,1>::_Compressed_pair<std::allocator<std::_Tree_node<std::pair<unsigned char const ,CPythonGuild::SGuildGradeData>,void *> >,std::_Tree_val<std::_Tree_simple_types<std::pair<unsigned char const ,CPythonGuild::SGuildGradeData> > >,1><>
PUBLIC	?_Get_first@?$_Compressed_pair@V?$allocator@U?$_Tree_node@U?$pair@$$CBKV?$basic_string@DU?$char_traits@D@std@@V?$allocator@D@2@@std@@@std@@PAX@std@@@std@@V?$_Tree_val@U?$_Tree_simple_types@U?$pair@$$CBKV?$basic_string@DU?$char_traits@D@std@@V?$allocator@D@2@@std@@@std@@@std@@@2@$00@std@@QBEABV?$allocator@U?$_Tree_node@U?$pair@$$CBKV?$basic_string@DU?$char_traits@D@std@@V?$allocator@D@2@@std@@@std@@PAX@std@@@2@XZ ; std::_Compressed_pair<std::allocator<std::_Tree_node<std::pair<unsigned long const ,std::basic_string<char,std::char_traits<char>,std::allocator<char> > >,void *> >,std::_Tree_val<std::_Tree_simple_types<std::pair<unsigned long const ,std::basic_string<char,std::char_traits<char>,std::allocator<char> > > > >,1>::_Get_first
PUBLIC	?_Get_first@?$_Compressed_pair@V?$allocator@U?$_Tree_node@U?$pair@$$CBEUSGuildGradeData@CPythonGuild@@@std@@PAX@std@@@std@@V?$_Tree_val@U?$_Tree_simple_types@U?$pair@$$CBEUSGuildGradeData@CPythonGuild@@@std@@@std@@@2@$00@std@@QBEABV?$allocator@U?$_Tree_node@U?$pair@$$CBEUSGuildGradeData@CPythonGuild@@@std@@PAX@std@@@2@XZ ; std::_Compressed_pair<std::allocator<std::_Tree_node<std::pair<unsigned char const ,CPythonGuild::SGuildGradeData>,void *> >,std::_Tree_val<std::_Tree_simple_types<std::pair<unsigned char const ,CPythonGuild::SGuildGradeData> > >,1>::_Get_first
PUBLIC	?deallocate@?$allocator@U?$_Tree_node@U?$pair@$$CBKV?$basic_string@DU?$char_traits@D@std@@V?$allocator@D@2@@std@@@std@@PAX@std@@@std@@QAEXQAU?$_Tree_node@U?$pair@$$CBKV?$basic_string@DU?$char_traits@D@std@@V?$allocator@D@2@@std@@@std@@PAX@2@I@Z ; std::allocator<std::_Tree_node<std::pair<unsigned long const ,std::basic_string<char,std::char_traits<char>,std::allocator<char> > >,void *> >::deallocate
PUBLIC	?max_size@?$_Default_allocator_traits@V?$allocator@U?$_Tree_node@U?$pair@$$CBKV?$basic_string@DU?$char_traits@D@std@@V?$allocator@D@2@@std@@@std@@PAX@std@@@std@@@std@@SAIABV?$allocator@U?$_Tree_node@U?$pair@$$CBKV?$basic_string@DU?$char_traits@D@std@@V?$allocator@D@2@@std@@@std@@PAX@std@@@2@@Z ; std::_Default_allocator_traits<std::allocator<std::_Tree_node<std::pair<unsigned long const ,std::basic_string<char,std::char_traits<char>,std::allocator<char> > >,void *> > >::max_size
PUBLIC	?_Getal@?$_Tree@V?$_Tmap_traits@KV?$basic_string@DU?$char_traits@D@std@@V?$allocator@D@2@@std@@U?$less@K@2@V?$allocator@U?$pair@$$CBKV?$basic_string@DU?$char_traits@D@std@@V?$allocator@D@2@@std@@@std@@@2@$0A@@std@@@std@@IBEABV?$allocator@U?$_Tree_node@U?$pair@$$CBKV?$basic_string@DU?$char_traits@D@std@@V?$allocator@D@2@@std@@@std@@PAX@std@@@2@XZ ; std::_Tree<std::_Tmap_traits<unsigned long,std::basic_string<char,std::char_traits<char>,std::allocator<char> >,std::less<unsigned long>,std::allocator<std::pair<unsigned long const ,std::basic_string<char,std::char_traits<char>,std::allocator<char> > > >,0> >::_Getal
PUBLIC	?deallocate@?$allocator@U?$_Tree_node@U?$pair@$$CBEUSGuildGradeData@CPythonGuild@@@std@@PAX@std@@@std@@QAEXQAU?$_Tree_node@U?$pair@$$CBEUSGuildGradeData@CPythonGuild@@@std@@PAX@2@I@Z ; std::allocator<std::_Tree_node<std::pair<unsigned char const ,CPythonGuild::SGuildGradeData>,void *> >::deallocate
PUBLIC	?max_size@?$_Default_allocator_traits@V?$allocator@U?$_Tree_node@U?$pair@$$CBEUSGuildGradeData@CPythonGuild@@@std@@PAX@std@@@std@@@std@@SAIABV?$allocator@U?$_Tree_node@U?$pair@$$CBEUSGuildGradeData@CPythonGuild@@@std@@PAX@std@@@2@@Z ; std::_Default_allocator_traits<std::allocator<std::_Tree_node<std::pair<unsigned char const ,CPythonGuild::SGuildGradeData>,void *> > >::max_size
PUBLIC	?_Getal@?$_Tree@V?$_Tmap_traits@EUSGuildGradeData@CPythonGuild@@U?$less@E@std@@V?$allocator@U?$pair@$$CBEUSGuildGradeData@CPythonGuild@@@std@@@4@$0A@@std@@@std@@IBEABV?$allocator@U?$_Tree_node@U?$pair@$$CBEUSGuildGradeData@CPythonGuild@@@std@@PAX@std@@@2@XZ ; std::_Tree<std::_Tmap_traits<unsigned char,CPythonGuild::SGuildGradeData,std::less<unsigned char>,std::allocator<std::pair<unsigned char const ,CPythonGuild::SGuildGradeData> >,0> >::_Getal
PUBLIC	?max_size@?$_Tree@V?$_Tmap_traits@KV?$basic_string@DU?$char_traits@D@std@@V?$allocator@D@2@@std@@U?$less@K@2@V?$allocator@U?$pair@$$CBKV?$basic_string@DU?$char_traits@D@std@@V?$allocator@D@2@@std@@@std@@@2@$0A@@std@@@std@@QBEIXZ ; std::_Tree<std::_Tmap_traits<unsigned long,std::basic_string<char,std::char_traits<char>,std::allocator<char> >,std::less<unsigned long>,std::allocator<std::pair<unsigned long const ,std::basic_string<char,std::char_traits<char>,std::allocator<char> > > >,0> >::max_size
PUBLIC	?_Lrotate@?$_Tree_val@U?$_Tree_simple_types@U?$pair@$$CBKV?$basic_string@DU?$char_traits@D@std@@V?$allocator@D@2@@std@@@std@@@std@@@std@@QAEXPAU?$_Tree_node@U?$pair@$$CBKV?$basic_string@DU?$char_traits@D@std@@V?$allocator@D@2@@std@@@std@@PAX@2@@Z ; std::_Tree_val<std::_Tree_simple_types<std::pair<unsigned long const ,std::basic_string<char,std::char_traits<char>,std::allocator<char> > > > >::_Lrotate
PUBLIC	?_Rrotate@?$_Tree_val@U?$_Tree_simple_types@U?$pair@$$CBKV?$basic_string@DU?$char_traits@D@std@@V?$allocator@D@2@@std@@@std@@@std@@@std@@QAEXPAU?$_Tree_node@U?$pair@$$CBKV?$basic_string@DU?$char_traits@D@std@@V?$allocator@D@2@@std@@@std@@PAX@2@@Z ; std::_Tree_val<std::_Tree_simple_types<std::pair<unsigned long const ,std::basic_string<char,std::char_traits<char>,std::allocator<char> > > > >::_Rrotate
PUBLIC	?max_size@?$_Tree@V?$_Tmap_traits@EUSGuildGradeData@CPythonGuild@@U?$less@E@std@@V?$allocator@U?$pair@$$CBEUSGuildGradeData@CPythonGuild@@@std@@@4@$0A@@std@@@std@@QBEIXZ ; std::_Tree<std::_Tmap_traits<unsigned char,CPythonGuild::SGuildGradeData,std::less<unsigned char>,std::allocator<std::pair<unsigned char const ,CPythonGuild::SGuildGradeData> >,0> >::max_size
PUBLIC	?_Lrotate@?$_Tree_val@U?$_Tree_simple_types@U?$pair@$$CBEUSGuildGradeData@CPythonGuild@@@std@@@std@@@std@@QAEXPAU?$_Tree_node@U?$pair@$$CBEUSGuildGradeData@CPythonGuild@@@std@@PAX@2@@Z ; std::_Tree_val<std::_Tree_simple_types<std::pair<unsigned char const ,CPythonGuild::SGuildGradeData> > >::_Lrotate
PUBLIC	?_Rrotate@?$_Tree_val@U?$_Tree_simple_types@U?$pair@$$CBEUSGuildGradeData@CPythonGuild@@@std@@@std@@@std@@QAEXPAU?$_Tree_node@U?$pair@$$CBEUSGuildGradeData@CPythonGuild@@@std@@PAX@2@@Z ; std::_Tree_val<std::_Tree_simple_types<std::pair<unsigned char const ,CPythonGuild::SGuildGradeData> > >::_Rrotate
PUBLIC	??1?$_Alloc_construct_ptr@V?$allocator@U?$_Tree_node@U?$pair@$$CBEUSGuildGradeData@CPythonGuild@@@std@@PAX@std@@@std@@@std@@QAE@XZ ; std::_Alloc_construct_ptr<std::allocator<std::_Tree_node<std::pair<unsigned char const ,CPythonGuild::SGuildGradeData>,void *> > >::~_Alloc_construct_ptr<std::allocator<std::_Tree_node<std::pair<unsigned char const ,CPythonGuild::SGuildGradeData>,void *> > >
PUBLIC	??1?$_Alloc_construct_ptr@V?$allocator@U?$_Tree_node@U?$pair@$$CBKV?$basic_string@DU?$char_traits@D@std@@V?$allocator@D@2@@std@@@std@@PAX@std@@@std@@@std@@QAE@XZ ; std::_Alloc_construct_ptr<std::allocator<std::_Tree_node<std::pair<unsigned long const ,std::basic_string<char,std::char_traits<char>,std::allocator<char> > >,void *> > >::~_Alloc_construct_ptr<std::allocator<std::_Tree_node<std::pair<unsigned long const ,std::basic_string<char,std::char_traits<char>,std::allocator<char> > >,void *> > >
PUBLIC	??1?$_Tree_temp_node_alloc@V?$allocator@U?$_Tree_node@U?$pair@$$CBEUSGuildGradeData@CPythonGuild@@@std@@PAX@std@@@std@@@std@@QAE@XZ ; std::_Tree_temp_node_alloc<std::allocator<std::_Tree_node<std::pair<unsigned char const ,CPythonGuild::SGuildGradeData>,void *> > >::~_Tree_temp_node_alloc<std::allocator<std::_Tree_node<std::pair<unsigned char const ,CPythonGuild::SGuildGradeData>,void *> > >
PUBLIC	??1?$_Tree_temp_node_alloc@V?$allocator@U?$_Tree_node@U?$pair@$$CBKV?$basic_string@DU?$char_traits@D@std@@V?$allocator@D@2@@std@@@std@@PAX@std@@@std@@@std@@QAE@XZ ; std::_Tree_temp_node_alloc<std::allocator<std::_Tree_node<std::pair<unsigned long const ,std::basic_string<char,std::char_traits<char>,std::allocator<char> > >,void *> > >::~_Tree_temp_node_alloc<std::allocator<std::_Tree_node<std::pair<unsigned long const ,std::basic_string<char,std::char_traits<char>,std::allocator<char> > >,void *> > >
PUBLIC	?allocate@?$allocator@U?$_Tree_node@U?$pair@$$CBKV?$basic_string@DU?$char_traits@D@std@@V?$allocator@D@2@@std@@@std@@PAX@std@@@std@@QAEPAU?$_Tree_node@U?$pair@$$CBKV?$basic_string@DU?$char_traits@D@std@@V?$allocator@D@2@@std@@@std@@PAX@2@I@Z ; std::allocator<std::_Tree_node<std::pair<unsigned long const ,std::basic_string<char,std::char_traits<char>,std::allocator<char> > >,void *> >::allocate
PUBLIC	?_Check_grow_by_1@?$_Tree@V?$_Tmap_traits@KV?$basic_string@DU?$char_traits@D@std@@V?$allocator@D@2@@std@@U?$less@K@2@V?$allocator@U?$pair@$$CBKV?$basic_string@DU?$char_traits@D@std@@V?$allocator@D@2@@std@@@std@@@2@$0A@@std@@@std@@IAEXXZ ; std::_Tree<std::_Tmap_traits<unsigned long,std::basic_string<char,std::char_traits<char>,std::allocator<char> >,std::less<unsigned long>,std::allocator<std::pair<unsigned long const ,std::basic_string<char,std::char_traits<char>,std::allocator<char> > > >,0> >::_Check_grow_by_1
PUBLIC	?_Get_scary@?$_Tree@V?$_Tmap_traits@KV?$basic_string@DU?$char_traits@D@std@@V?$allocator@D@2@@std@@U?$less@K@2@V?$allocator@U?$pair@$$CBKV?$basic_string@DU?$char_traits@D@std@@V?$allocator@D@2@@std@@@std@@@2@$0A@@std@@@std@@IBEPBV?$_Tree_val@U?$_Tree_simple_types@U?$pair@$$CBKV?$basic_string@DU?$char_traits@D@std@@V?$allocator@D@2@@std@@@std@@@std@@@2@XZ ; std::_Tree<std::_Tmap_traits<unsigned long,std::basic_string<char,std::char_traits<char>,std::allocator<char> >,std::less<unsigned long>,std::allocator<std::pair<unsigned long const ,std::basic_string<char,std::char_traits<char>,std::allocator<char> > > >,0> >::_Get_scary
PUBLIC	?_Insert_node@?$_Tree_val@U?$_Tree_simple_types@U?$pair@$$CBKV?$basic_string@DU?$char_traits@D@std@@V?$allocator@D@2@@std@@@std@@@std@@@std@@QAEPAU?$_Tree_node@U?$pair@$$CBKV?$basic_string@DU?$char_traits@D@std@@V?$allocator@D@2@@std@@@std@@PAX@2@U?$_Tree_id@PAU?$_Tree_node@U?$pair@$$CBKV?$basic_string@DU?$char_traits@D@std@@V?$allocator@D@2@@std@@@std@@PAX@std@@@2@QAU32@@Z ; std::_Tree_val<std::_Tree_simple_types<std::pair<unsigned long const ,std::basic_string<char,std::char_traits<char>,std::allocator<char> > > > >::_Insert_node
PUBLIC	?allocate@?$allocator@U?$_Tree_node@U?$pair@$$CBEUSGuildGradeData@CPythonGuild@@@std@@PAX@std@@@std@@QAEPAU?$_Tree_node@U?$pair@$$CBEUSGuildGradeData@CPythonGuild@@@std@@PAX@2@I@Z ; std::allocator<std::_Tree_node<std::pair<unsigned char const ,CPythonGuild::SGuildGradeData>,void *> >::allocate
PUBLIC	?_Check_grow_by_1@?$_Tree@V?$_Tmap_traits@EUSGuildGradeData@CPythonGuild@@U?$less@E@std@@V?$allocator@U?$pair@$$CBEUSGuildGradeData@CPythonGuild@@@std@@@4@$0A@@std@@@std@@IAEXXZ ; std::_Tree<std::_Tmap_traits<unsigned char,CPythonGuild::SGuildGradeData,std::less<unsigned char>,std::allocator<std::pair<unsigned char const ,CPythonGuild::SGuildGradeData> >,0> >::_Check_grow_by_1
PUBLIC	?_Get_scary@?$_Tree@V?$_Tmap_traits@EUSGuildGradeData@CPythonGuild@@U?$less@E@std@@V?$allocator@U?$pair@$$CBEUSGuildGradeData@CPythonGuild@@@std@@@4@$0A@@std@@@std@@IBEPBV?$_Tree_val@U?$_Tree_simple_types@U?$pair@$$CBEUSGuildGradeData@CPythonGuild@@@std@@@std@@@2@XZ ; std::_Tree<std::_Tmap_traits<unsigned char,CPythonGuild::SGuildGradeData,std::less<unsigned char>,std::allocator<std::pair<unsigned char const ,CPythonGuild::SGuildGradeData> >,0> >::_Get_scary
PUBLIC	?_Insert_node@?$_Tree_val@U?$_Tree_simple_types@U?$pair@$$CBEUSGuildGradeData@CPythonGuild@@@std@@@std@@@std@@QAEPAU?$_Tree_node@U?$pair@$$CBEUSGuildGradeData@CPythonGuild@@@std@@PAX@2@U?$_Tree_id@PAU?$_Tree_node@U?$pair@$$CBEUSGuildGradeData@CPythonGuild@@@std@@PAX@std@@@2@QAU32@@Z ; std::_Tree_val<std::_Tree_simple_types<std::pair<unsigned char const ,CPythonGuild::SGuildGradeData> > >::_Insert_node
PUBLIC	??0?$allocator@USGuildMemberData@CPythonGuild@@@std@@QAE@XZ ; std::allocator<CPythonGuild::SGuildMemberData>::allocator<CPythonGuild::SGuildMemberData>
PUBLIC	??0?$_Vector_val@U?$_Simple_types@USGuildMemberData@CPythonGuild@@@std@@@std@@QAE@XZ ; std::_Vector_val<std::_Simple_types<CPythonGuild::SGuildMemberData> >::_Vector_val<std::_Simple_types<CPythonGuild::SGuildMemberData> >
PUBLIC	??0?$allocator@USGuildBoardCommentData@CPythonGuild@@@std@@QAE@XZ ; std::allocator<CPythonGuild::SGuildBoardCommentData>::allocator<CPythonGuild::SGuildBoardCommentData>
PUBLIC	??0?$_Vector_val@U?$_Simple_types@USGuildBoardCommentData@CPythonGuild@@@std@@@std@@QAE@XZ ; std::_Vector_val<std::_Simple_types<CPythonGuild::SGuildBoardCommentData> >::_Vector_val<std::_Simple_types<CPythonGuild::SGuildBoardCommentData> >
PUBLIC	?_Release@?$_Alloc_construct_ptr@V?$allocator@U?$_Tree_node@U?$pair@$$CBEUSGuildGradeData@CPythonGuild@@@std@@PAX@std@@@std@@@std@@QAEPAU?$_Tree_node@U?$pair@$$CBEUSGuildGradeData@CPythonGuild@@@std@@PAX@2@XZ ; std::_Alloc_construct_ptr<std::allocator<std::_Tree_node<std::pair<unsigned char const ,CPythonGuild::SGuildGradeData>,void *> > >::_Release
PUBLIC	??1?$_Tree_temp_node@V?$allocator@U?$_Tree_node@U?$pair@$$CBEUSGuildGradeData@CPythonGuild@@@std@@PAX@std@@@std@@@std@@QAE@XZ ; std::_Tree_temp_node<std::allocator<std::_Tree_node<std::pair<unsigned char const ,CPythonGuild::SGuildGradeData>,void *> > >::~_Tree_temp_node<std::allocator<std::_Tree_node<std::pair<unsigned char const ,CPythonGuild::SGuildGradeData>,void *> > >
PUBLIC	?_Release@?$_Alloc_construct_ptr@V?$allocator@U?$_Tree_node@U?$pair@$$CBKV?$basic_string@DU?$char_traits@D@std@@V?$allocator@D@2@@std@@@std@@PAX@std@@@std@@@std@@QAEPAU?$_Tree_node@U?$pair@$$CBKV?$basic_string@DU?$char_traits@D@std@@V?$allocator@D@2@@std@@@std@@PAX@2@XZ ; std::_Alloc_construct_ptr<std::allocator<std::_Tree_node<std::pair<unsigned long const ,std::basic_string<char,std::char_traits<char>,std::allocator<char> > >,void *> > >::_Release
PUBLIC	??1?$_Tree_temp_node@V?$allocator@U?$_Tree_node@U?$pair@$$CBKV?$basic_string@DU?$char_traits@D@std@@V?$allocator@D@2@@std@@@std@@PAX@std@@@std@@@std@@QAE@XZ ; std::_Tree_temp_node<std::allocator<std::_Tree_node<std::pair<unsigned long const ,std::basic_string<char,std::char_traits<char>,std::allocator<char> > >,void *> > >::~_Tree_temp_node<std::allocator<std::_Tree_node<std::pair<unsigned long const ,std::basic_string<char,std::char_traits<char>,std::allocator<char> > >,void *> > >
PUBLIC	??$_Buyheadnode@V?$allocator@U?$_Tree_node@U?$pair@$$CBKV?$basic_string@DU?$char_traits@D@std@@V?$allocator@D@2@@std@@@std@@PAX@std@@@std@@@?$_Tree_node@U?$pair@$$CBKV?$basic_string@DU?$char_traits@D@std@@V?$allocator@D@2@@std@@@std@@PAX@std@@SAPAU01@AAV?$allocator@U?$_Tree_node@U?$pair@$$CBKV?$basic_string@DU?$char_traits@D@std@@V?$allocator@D@2@@std@@@std@@PAX@std@@@1@@Z ; std::_Tree_node<std::pair<unsigned long const ,std::basic_string<char,std::char_traits<char>,std::allocator<char> > >,void *>::_Buyheadnode<std::allocator<std::_Tree_node<std::pair<unsigned long const ,std::basic_string<char,std::char_traits<char>,std::allocator<char> > >,void *> > >
PUBLIC	??$_Buyheadnode@V?$allocator@U?$_Tree_node@U?$pair@$$CBEUSGuildGradeData@CPythonGuild@@@std@@PAX@std@@@std@@@?$_Tree_node@U?$pair@$$CBEUSGuildGradeData@CPythonGuild@@@std@@PAX@std@@SAPAU01@AAV?$allocator@U?$_Tree_node@U?$pair@$$CBEUSGuildGradeData@CPythonGuild@@@std@@PAX@std@@@1@@Z ; std::_Tree_node<std::pair<unsigned char const ,CPythonGuild::SGuildGradeData>,void *>::_Buyheadnode<std::allocator<std::_Tree_node<std::pair<unsigned char const ,CPythonGuild::SGuildGradeData>,void *> > >
PUBLIC	??$?0ABU?$less@K@std@@U_Zero_then_variadic_args_t@1@@?$_Compressed_pair@U?$less@K@std@@V?$_Compressed_pair@V?$allocator@U?$_Tree_node@U?$pair@$$CBKV?$basic_string@DU?$char_traits@D@std@@V?$allocator@D@2@@std@@@std@@PAX@std@@@std@@V?$_Tree_val@U?$_Tree_simple_types@U?$pair@$$CBKV?$basic_string@DU?$char_traits@D@std@@V?$allocator@D@2@@std@@@std@@@std@@@2@$00@2@$00@std@@QAE@U_One_then_variadic_args_t@1@ABU?$less@K@1@$$QAU_Zero_then_variadic_args_t@1@@Z ; std::_Compressed_pair<std::less<unsigned long>,std::_Compressed_pair<std::allocator<std::_Tree_node<std::pair<unsigned long const ,std::basic_string<char,std::char_traits<char>,std::allocator<char> > >,void *> >,std::_Tree_val<std::_Tree_simple_types<std::pair<unsigned long const ,std::basic_string<char,std::char_traits<char>,std::allocator<char> > > > >,1>,1>::_Compressed_pair<std::less<unsigned long>,std::_Compressed_pair<std::allocator<std::_Tree_node<std::pair<unsigned long const ,std::basic_string<char,std::char_traits<char>,std::allocator<char> > >,void *> >,std::_Tree_val<std::_Tree_simple_types<std::pair<unsigned long const ,std::basic_string<char,std::char_traits<char>,std::allocator<char> > > > >,1>,1><std::less<unsigned long> const &,std::_Zero_then_variadic_args_t>
PUBLIC	??$addressof@V?$_Tree_val@U?$_Tree_simple_types@U?$pair@$$CBKV?$basic_string@DU?$char_traits@D@std@@V?$allocator@D@2@@std@@@std@@@std@@@std@@@std@@YAPAV?$_Tree_val@U?$_Tree_simple_types@U?$pair@$$CBKV?$basic_string@DU?$char_traits@D@std@@V?$allocator@D@2@@std@@@std@@@std@@@0@AAV10@@Z ; std::addressof<std::_Tree_val<std::_Tree_simple_types<std::pair<unsigned long const ,std::basic_string<char,std::char_traits<char>,std::allocator<char> > > > > >
PUBLIC	??$?0ABU?$less@E@std@@U_Zero_then_variadic_args_t@1@@?$_Compressed_pair@U?$less@E@std@@V?$_Compressed_pair@V?$allocator@U?$_Tree_node@U?$pair@$$CBEUSGuildGradeData@CPythonGuild@@@std@@PAX@std@@@std@@V?$_Tree_val@U?$_Tree_simple_types@U?$pair@$$CBEUSGuildGradeData@CPythonGuild@@@std@@@std@@@2@$00@2@$00@std@@QAE@U_One_then_variadic_args_t@1@ABU?$less@E@1@$$QAU_Zero_then_variadic_args_t@1@@Z ; std::_Compressed_pair<std::less<unsigned char>,std::_Compressed_pair<std::allocator<std::_Tree_node<std::pair<unsigned char const ,CPythonGuild::SGuildGradeData>,void *> >,std::_Tree_val<std::_Tree_simple_types<std::pair<unsigned char const ,CPythonGuild::SGuildGradeData> > >,1>,1>::_Compressed_pair<std::less<unsigned char>,std::_Compressed_pair<std::allocator<std::_Tree_node<std::pair<unsigned char const ,CPythonGuild::SGuildGradeData>,void *> >,std::_Tree_val<std::_Tree_simple_types<std::pair<unsigned char const ,CPythonGuild::SGuildGradeData> > >,1>,1><std::less<unsigned char> const &,std::_Zero_then_variadic_args_t>
PUBLIC	??$addressof@V?$_Tree_val@U?$_Tree_simple_types@U?$pair@$$CBEUSGuildGradeData@CPythonGuild@@@std@@@std@@@std@@@std@@YAPAV?$_Tree_val@U?$_Tree_simple_types@U?$pair@$$CBEUSGuildGradeData@CPythonGuild@@@std@@@std@@@0@AAV10@@Z ; std::addressof<std::_Tree_val<std::_Tree_simple_types<std::pair<unsigned char const ,CPythonGuild::SGuildGradeData> > > >
PUBLIC	??$addressof@U?$pair@$$CBEUSGuildGradeData@CPythonGuild@@@std@@@std@@YAPAU?$pair@$$CBEUSGuildGradeData@CPythonGuild@@@0@AAU10@@Z ; std::addressof<std::pair<unsigned char const ,CPythonGuild::SGuildGradeData> >
PUBLIC	??$_Erase_head@V?$allocator@U?$_Tree_node@U?$pair@$$CBKV?$basic_string@DU?$char_traits@D@std@@V?$allocator@D@2@@std@@@std@@PAX@std@@@std@@@?$_Tree_val@U?$_Tree_simple_types@U?$pair@$$CBKV?$basic_string@DU?$char_traits@D@std@@V?$allocator@D@2@@std@@@std@@@std@@@std@@QAEXAAV?$allocator@U?$_Tree_node@U?$pair@$$CBKV?$basic_string@DU?$char_traits@D@std@@V?$allocator@D@2@@std@@@std@@PAX@std@@@1@@Z ; std::_Tree_val<std::_Tree_simple_types<std::pair<unsigned long const ,std::basic_string<char,std::char_traits<char>,std::allocator<char> > > > >::_Erase_head<std::allocator<std::_Tree_node<std::pair<unsigned long const ,std::basic_string<char,std::char_traits<char>,std::allocator<char> > >,void *> > >
PUBLIC	??$_Erase_tree@V?$allocator@U?$_Tree_node@U?$pair@$$CBKV?$basic_string@DU?$char_traits@D@std@@V?$allocator@D@2@@std@@@std@@PAX@std@@@std@@@?$_Tree_val@U?$_Tree_simple_types@U?$pair@$$CBKV?$basic_string@DU?$char_traits@D@std@@V?$allocator@D@2@@std@@@std@@@std@@@std@@QAEXAAV?$allocator@U?$_Tree_node@U?$pair@$$CBKV?$basic_string@DU?$char_traits@D@std@@V?$allocator@D@2@@std@@@std@@PAX@std@@@1@PAU?$_Tree_node@U?$pair@$$CBKV?$basic_string@DU?$char_traits@D@std@@V?$allocator@D@2@@std@@@std@@PAX@1@@Z ; std::_Tree_val<std::_Tree_simple_types<std::pair<unsigned long const ,std::basic_string<char,std::char_traits<char>,std::allocator<char> > > > >::_Erase_tree<std::allocator<std::_Tree_node<std::pair<unsigned long const ,std::basic_string<char,std::char_traits<char>,std::allocator<char> > >,void *> > >
PUBLIC	??$_Find@K@?$_Tree@V?$_Tmap_traits@KV?$basic_string@DU?$char_traits@D@std@@V?$allocator@D@2@@std@@U?$less@K@2@V?$allocator@U?$pair@$$CBKV?$basic_string@DU?$char_traits@D@std@@V?$allocator@D@2@@std@@@std@@@2@$0A@@std@@@std@@ABEPAU?$_Tree_node@U?$pair@$$CBKV?$basic_string@DU?$char_traits@D@std@@V?$allocator@D@2@@std@@@std@@PAX@1@ABK@Z ; std::_Tree<std::_Tmap_traits<unsigned long,std::basic_string<char,std::char_traits<char>,std::allocator<char> >,std::less<unsigned long>,std::allocator<std::pair<unsigned long const ,std::basic_string<char,std::char_traits<char>,std::allocator<char> > > >,0> >::_Find<unsigned long>
PUBLIC	??$_Try_emplace@ABK$$V@?$map@KV?$basic_string@DU?$char_traits@D@std@@V?$allocator@D@2@@std@@U?$less@K@2@V?$allocator@U?$pair@$$CBKV?$basic_string@DU?$char_traits@D@std@@V?$allocator@D@2@@std@@@std@@@2@@std@@AAE?AU?$pair@PAU?$_Tree_node@U?$pair@$$CBKV?$basic_string@DU?$char_traits@D@std@@V?$allocator@D@2@@std@@@std@@PAX@std@@_N@1@ABK@Z ; std::map<unsigned long,std::basic_string<char,std::char_traits<char>,std::allocator<char> >,std::less<unsigned long>,std::allocator<std::pair<unsigned long const ,std::basic_string<char,std::char_traits<char>,std::allocator<char> > > > >::_Try_emplace<unsigned long const &>
PUBLIC	??$_Erase_head@V?$allocator@U?$_Tree_node@U?$pair@$$CBEUSGuildGradeData@CPythonGuild@@@std@@PAX@std@@@std@@@?$_Tree_val@U?$_Tree_simple_types@U?$pair@$$CBEUSGuildGradeData@CPythonGuild@@@std@@@std@@@std@@QAEXAAV?$allocator@U?$_Tree_node@U?$pair@$$CBEUSGuildGradeData@CPythonGuild@@@std@@PAX@std@@@1@@Z ; std::_Tree_val<std::_Tree_simple_types<std::pair<unsigned char const ,CPythonGuild::SGuildGradeData> > >::_Erase_head<std::allocator<std::_Tree_node<std::pair<unsigned char const ,CPythonGuild::SGuildGradeData>,void *> > >
PUBLIC	??$_Erase_tree@V?$allocator@U?$_Tree_node@U?$pair@$$CBEUSGuildGradeData@CPythonGuild@@@std@@PAX@std@@@std@@@?$_Tree_val@U?$_Tree_simple_types@U?$pair@$$CBEUSGuildGradeData@CPythonGuild@@@std@@@std@@@std@@QAEXAAV?$allocator@U?$_Tree_node@U?$pair@$$CBEUSGuildGradeData@CPythonGuild@@@std@@PAX@std@@@1@PAU?$_Tree_node@U?$pair@$$CBEUSGuildGradeData@CPythonGuild@@@std@@PAX@1@@Z ; std::_Tree_val<std::_Tree_simple_types<std::pair<unsigned char const ,CPythonGuild::SGuildGradeData> > >::_Erase_tree<std::allocator<std::_Tree_node<std::pair<unsigned char const ,CPythonGuild::SGuildGradeData>,void *> > >
PUBLIC	??$_Find@E@?$_Tree@V?$_Tmap_traits@EUSGuildGradeData@CPythonGuild@@U?$less@E@std@@V?$allocator@U?$pair@$$CBEUSGuildGradeData@CPythonGuild@@@std@@@4@$0A@@std@@@std@@ABEPAU?$_Tree_node@U?$pair@$$CBEUSGuildGradeData@CPythonGuild@@@std@@PAX@1@ABE@Z ; std::_Tree<std::_Tmap_traits<unsigned char,CPythonGuild::SGuildGradeData,std::less<unsigned char>,std::allocator<std::pair<unsigned char const ,CPythonGuild::SGuildGradeData> >,0> >::_Find<unsigned char>
PUBLIC	??$_Try_emplace@ABE$$V@?$map@EUSGuildGradeData@CPythonGuild@@U?$less@E@std@@V?$allocator@U?$pair@$$CBEUSGuildGradeData@CPythonGuild@@@std@@@4@@std@@AAE?AU?$pair@PAU?$_Tree_node@U?$pair@$$CBEUSGuildGradeData@CPythonGuild@@@std@@PAX@std@@_N@1@ABE@Z ; std::map<unsigned char,CPythonGuild::SGuildGradeData,std::less<unsigned char>,std::allocator<std::pair<unsigned char const ,CPythonGuild::SGuildGradeData> > >::_Try_emplace<unsigned char const &>
PUBLIC	??$?0$$V@?$_Compressed_pair@V?$allocator@USGuildMemberData@CPythonGuild@@@std@@V?$_Vector_val@U?$_Simple_types@USGuildMemberData@CPythonGuild@@@std@@@2@$00@std@@QAE@U_Zero_then_variadic_args_t@1@@Z ; std::_Compressed_pair<std::allocator<CPythonGuild::SGuildMemberData>,std::_Vector_val<std::_Simple_types<CPythonGuild::SGuildMemberData> >,1>::_Compressed_pair<std::allocator<CPythonGuild::SGuildMemberData>,std::_Vector_val<std::_Simple_types<CPythonGuild::SGuildMemberData> >,1><>
PUBLIC	??$_Emplace_one_at_back@ABUSGuildMemberData@CPythonGuild@@@?$vector@USGuildMemberData@CPythonGuild@@V?$allocator@USGuildMemberData@CPythonGuild@@@std@@@std@@AAEAAUSGuildMemberData@CPythonGuild@@ABU23@@Z ; std::vector<CPythonGuild::SGuildMemberData,std::allocator<CPythonGuild::SGuildMemberData> >::_Emplace_one_at_back<CPythonGuild::SGuildMemberData const &>
PUBLIC	??$destroy@USGuildMemberData@CPythonGuild@@@?$_Default_allocator_traits@V?$allocator@USGuildMemberData@CPythonGuild@@@std@@@std@@SAXAAV?$allocator@USGuildMemberData@CPythonGuild@@@1@QAUSGuildMemberData@CPythonGuild@@@Z ; std::_Default_allocator_traits<std::allocator<CPythonGuild::SGuildMemberData> >::destroy<CPythonGuild::SGuildMemberData>
PUBLIC	??$_Unfancy@USGuildMemberData@CPythonGuild@@@std@@YAPAUSGuildMemberData@CPythonGuild@@PAU12@@Z ; std::_Unfancy<CPythonGuild::SGuildMemberData>
PUBLIC	??4SGuildMemberData@CPythonGuild@@QAEAAU01@$$QAU01@@Z ; CPythonGuild::SGuildMemberData::operator=
PUBLIC	??$_Move_unchecked@PAUSGuildMemberData@CPythonGuild@@PAU12@@std@@YAPAUSGuildMemberData@CPythonGuild@@PAU12@00@Z ; std::_Move_unchecked<CPythonGuild::SGuildMemberData *,CPythonGuild::SGuildMemberData *>
PUBLIC	??$_Destroy_range@V?$allocator@USGuildMemberData@CPythonGuild@@@std@@@std@@YAXPAUSGuildMemberData@CPythonGuild@@QAU12@AAV?$allocator@USGuildMemberData@CPythonGuild@@@0@@Z ; std::_Destroy_range<std::allocator<CPythonGuild::SGuildMemberData> >
PUBLIC	??$addressof@V?$_Vector_val@U?$_Simple_types@USGuildMemberData@CPythonGuild@@@std@@@std@@@std@@YAPAV?$_Vector_val@U?$_Simple_types@USGuildMemberData@CPythonGuild@@@std@@@0@AAV10@@Z ; std::addressof<std::_Vector_val<std::_Simple_types<CPythonGuild::SGuildMemberData> > >
PUBLIC	??$?0$$V@?$_Compressed_pair@V?$allocator@USGuildBoardCommentData@CPythonGuild@@@std@@V?$_Vector_val@U?$_Simple_types@USGuildBoardCommentData@CPythonGuild@@@std@@@2@$00@std@@QAE@U_Zero_then_variadic_args_t@1@@Z ; std::_Compressed_pair<std::allocator<CPythonGuild::SGuildBoardCommentData>,std::_Vector_val<std::_Simple_types<CPythonGuild::SGuildBoardCommentData> >,1>::_Compressed_pair<std::allocator<CPythonGuild::SGuildBoardCommentData>,std::_Vector_val<std::_Simple_types<CPythonGuild::SGuildBoardCommentData> >,1><>
PUBLIC	??$_Emplace_one_at_back@ABUSGuildBoardCommentData@CPythonGuild@@@?$vector@USGuildBoardCommentData@CPythonGuild@@V?$allocator@USGuildBoardCommentData@CPythonGuild@@@std@@@std@@AAEAAUSGuildBoardCommentData@CPythonGuild@@ABU23@@Z ; std::vector<CPythonGuild::SGuildBoardCommentData,std::allocator<CPythonGuild::SGuildBoardCommentData> >::_Emplace_one_at_back<CPythonGuild::SGuildBoardCommentData const &>
PUBLIC	??$_Destroy_range@V?$allocator@USGuildBoardCommentData@CPythonGuild@@@std@@@std@@YAXPAUSGuildBoardCommentData@CPythonGuild@@QAU12@AAV?$allocator@USGuildBoardCommentData@CPythonGuild@@@0@@Z ; std::_Destroy_range<std::allocator<CPythonGuild::SGuildBoardCommentData> >
PUBLIC	??$insert@U?$pair@HH@std@@$0A@@?$map@KKU?$less@K@std@@V?$allocator@U?$pair@$$CBKK@std@@@2@@std@@QAE?AU?$pair@V?$_Tree_iterator@V?$_Tree_val@U?$_Tree_simple_types@U?$pair@$$CBKK@std@@@std@@@std@@@std@@_N@1@$$QAU?$pair@HH@1@@Z ; std::map<unsigned long,unsigned long,std::less<unsigned long>,std::allocator<std::pair<unsigned long const ,unsigned long> > >::insert<std::pair<int,int>,0>
PUBLIC	??$make_pair@AAHAAH@std@@YA?AU?$pair@HH@0@AAH0@Z ; std::make_pair<int &,int &>
PUBLIC	??$sort@V?$_Vector_iterator@V?$_Vector_val@U?$_Simple_types@USGuildMemberData@CPythonGuild@@@std@@@std@@@std@@UCPythonGuild_SLessMemberGrade@@@std@@YAXV?$_Vector_iterator@V?$_Vector_val@U?$_Simple_types@USGuildMemberData@CPythonGuild@@@std@@@std@@@0@0UCPythonGuild_SLessMemberGrade@@@Z ; std::sort<std::_Vector_iterator<std::_Vector_val<std::_Simple_types<CPythonGuild::SGuildMemberData> > >,CPythonGuild_SLessMemberGrade>
PUBLIC	??$find_if@V?$_Vector_iterator@V?$_Vector_val@U?$_Simple_types@USGuildMemberData@CPythonGuild@@@std@@@std@@@std@@UCPythonGuild_FFindGuildMemberByName@@@std@@YA?AV?$_Vector_iterator@V?$_Vector_val@U?$_Simple_types@USGuildMemberData@CPythonGuild@@@std@@@std@@@0@V10@V10@UCPythonGuild_FFindGuildMemberByName@@@Z ; std::find_if<std::_Vector_iterator<std::_Vector_val<std::_Simple_types<CPythonGuild::SGuildMemberData> > >,CPythonGuild_FFindGuildMemberByName>
PUBLIC	??$insert@U?$pair@KV?$basic_string@DU?$char_traits@D@std@@V?$allocator@D@2@@std@@@std@@$0A@@?$map@KV?$basic_string@DU?$char_traits@D@std@@V?$allocator@D@2@@std@@U?$less@K@2@V?$allocator@U?$pair@$$CBKV?$basic_string@DU?$char_traits@D@std@@V?$allocator@D@2@@std@@@std@@@2@@std@@QAE?AU?$pair@V?$_Tree_iterator@V?$_Tree_val@U?$_Tree_simple_types@U?$pair@$$CBKV?$basic_string@DU?$char_traits@D@std@@V?$allocator@D@2@@std@@@std@@@std@@@std@@@std@@_N@1@$$QAU?$pair@KV?$basic_string@DU?$char_traits@D@std@@V?$allocator@D@2@@std@@@1@@Z ; std::map<unsigned long,std::basic_string<char,std::char_traits<char>,std::allocator<char> >,std::less<unsigned long>,std::allocator<std::pair<unsigned long const ,std::basic_string<char,std::char_traits<char>,std::allocator<char> > > > >::insert<std::pair<unsigned long,std::basic_string<char,std::char_traits<char>,std::allocator<char> > >,0>
PUBLIC	??$make_pair@AAKV?$basic_string@DU?$char_traits@D@std@@V?$allocator@D@2@@std@@@std@@YA?AU?$pair@KV?$basic_string@DU?$char_traits@D@std@@V?$allocator@D@2@@std@@@0@AAK$$QAV?$basic_string@DU?$char_traits@D@std@@V?$allocator@D@2@@0@@Z ; std::make_pair<unsigned long &,std::basic_string<char,std::char_traits<char>,std::allocator<char> > >
PUBLIC	?_Unwrapped@?$_Vector_iterator@V?$_Vector_val@U?$_Simple_types@USGuildMemberData@CPythonGuild@@@std@@@std@@@std@@QBEPAUSGuildMemberData@CPythonGuild@@XZ ; std::_Vector_iterator<std::_Vector_val<std::_Simple_types<CPythonGuild::SGuildMemberData> > >::_Unwrapped
PUBLIC	??$_Get_unwrapped@ABV?$_Vector_iterator@V?$_Vector_val@U?$_Simple_types@USGuildMemberData@CPythonGuild@@@std@@@std@@@std@@@std@@YA?A_TABV?$_Vector_iterator@V?$_Vector_val@U?$_Simple_types@USGuildMemberData@CPythonGuild@@@std@@@std@@@0@@Z ; std::_Get_unwrapped<std::_Vector_iterator<std::_Vector_val<std::_Simple_types<CPythonGuild::SGuildMemberData> > > const &>
PUBLIC	??$_Get_unwrapped@AAV?$_Vector_iterator@V?$_Vector_val@U?$_Simple_types@USGuildMemberData@CPythonGuild@@@std@@@std@@@std@@@std@@YA?A_TAAV?$_Vector_iterator@V?$_Vector_val@U?$_Simple_types@USGuildMemberData@CPythonGuild@@@std@@@std@@@0@@Z ; std::_Get_unwrapped<std::_Vector_iterator<std::_Vector_val<std::_Simple_types<CPythonGuild::SGuildMemberData> > > &>
PUBLIC	??$find_if@V?$_Vector_iterator@V?$_Vector_val@U?$_Simple_types@USGuildMemberData@CPythonGuild@@@std@@@std@@@std@@UCPythonGuild_FFindGuildMemberByPID@@@std@@YA?AV?$_Vector_iterator@V?$_Vector_val@U?$_Simple_types@USGuildMemberData@CPythonGuild@@@std@@@std@@@0@V10@V10@UCPythonGuild_FFindGuildMemberByPID@@@Z ; std::find_if<std::_Vector_iterator<std::_Vector_val<std::_Simple_types<CPythonGuild::SGuildMemberData> > >,CPythonGuild_FFindGuildMemberByPID>
PUBLIC	?_Alloc_sentinel_and_proxy@?$_Tree@V?$_Tmap_traits@KV?$basic_string@DU?$char_traits@D@std@@V?$allocator@D@2@@std@@U?$less@K@2@V?$allocator@U?$pair@$$CBKV?$basic_string@DU?$char_traits@D@std@@V?$allocator@D@2@@std@@@std@@@2@$0A@@std@@@std@@IAEXXZ ; std::_Tree<std::_Tmap_traits<unsigned long,std::basic_string<char,std::char_traits<char>,std::allocator<char> >,std::less<unsigned long>,std::allocator<std::pair<unsigned long const ,std::basic_string<char,std::char_traits<char>,std::allocator<char> > > >,0> >::_Alloc_sentinel_and_proxy
PUBLIC	?_Get_first@?$_Compressed_pair@V?$allocator@U?$_Tree_node@U?$pair@$$CBKV?$basic_string@DU?$char_traits@D@std@@V?$allocator@D@2@@std@@@std@@PAX@std@@@std@@V?$_Tree_val@U?$_Tree_simple_types@U?$pair@$$CBKV?$basic_string@DU?$char_traits@D@std@@V?$allocator@D@2@@std@@@std@@@std@@@2@$00@std@@QAEAAV?$allocator@U?$_Tree_node@U?$pair@$$CBKV?$basic_string@DU?$char_traits@D@std@@V?$allocator@D@2@@std@@@std@@PAX@std@@@2@XZ ; std::_Compressed_pair<std::allocator<std::_Tree_node<std::pair<unsigned long const ,std::basic_string<char,std::char_traits<char>,std::allocator<char> > >,void *> >,std::_Tree_val<std::_Tree_simple_types<std::pair<unsigned long const ,std::basic_string<char,std::char_traits<char>,std::allocator<char> > > > >,1>::_Get_first
PUBLIC	?_Alloc_sentinel_and_proxy@?$_Tree@V?$_Tmap_traits@EUSGuildGradeData@CPythonGuild@@U?$less@E@std@@V?$allocator@U?$pair@$$CBEUSGuildGradeData@CPythonGuild@@@std@@@4@$0A@@std@@@std@@IAEXXZ ; std::_Tree<std::_Tmap_traits<unsigned char,CPythonGuild::SGuildGradeData,std::less<unsigned char>,std::allocator<std::pair<unsigned char const ,CPythonGuild::SGuildGradeData> >,0> >::_Alloc_sentinel_and_proxy
PUBLIC	?_Get_first@?$_Compressed_pair@V?$allocator@U?$_Tree_node@U?$pair@$$CBEUSGuildGradeData@CPythonGuild@@@std@@PAX@std@@@std@@V?$_Tree_val@U?$_Tree_simple_types@U?$pair@$$CBEUSGuildGradeData@CPythonGuild@@@std@@@std@@@2@$00@std@@QAEAAV?$allocator@U?$_Tree_node@U?$pair@$$CBEUSGuildGradeData@CPythonGuild@@@std@@PAX@std@@@2@XZ ; std::_Compressed_pair<std::allocator<std::_Tree_node<std::pair<unsigned char const ,CPythonGuild::SGuildGradeData>,void *> >,std::_Tree_val<std::_Tree_simple_types<std::pair<unsigned char const ,CPythonGuild::SGuildGradeData> > >,1>::_Get_first
PUBLIC	?deallocate@?$allocator@USGuildMemberData@CPythonGuild@@@std@@QAEXQAUSGuildMemberData@CPythonGuild@@I@Z ; std::allocator<CPythonGuild::SGuildMemberData>::deallocate
PUBLIC	?_Get_first@?$_Compressed_pair@V?$allocator@USGuildMemberData@CPythonGuild@@@std@@V?$_Vector_val@U?$_Simple_types@USGuildMemberData@CPythonGuild@@@std@@@2@$00@std@@QAEAAV?$allocator@USGuildMemberData@CPythonGuild@@@2@XZ ; std::_Compressed_pair<std::allocator<CPythonGuild::SGuildMemberData>,std::_Vector_val<std::_Simple_types<CPythonGuild::SGuildMemberData> >,1>::_Get_first
PUBLIC	?deallocate@?$allocator@USGuildBoardCommentData@CPythonGuild@@@std@@QAEXQAUSGuildBoardCommentData@CPythonGuild@@I@Z ; std::allocator<CPythonGuild::SGuildBoardCommentData>::deallocate
PUBLIC	?_Get_first@?$_Compressed_pair@V?$allocator@USGuildBoardCommentData@CPythonGuild@@@std@@V?$_Vector_val@U?$_Simple_types@USGuildBoardCommentData@CPythonGuild@@@std@@@2@$00@std@@QAEAAV?$allocator@USGuildBoardCommentData@CPythonGuild@@@2@XZ ; std::_Compressed_pair<std::allocator<CPythonGuild::SGuildBoardCommentData>,std::_Vector_val<std::_Simple_types<CPythonGuild::SGuildBoardCommentData> >,1>::_Get_first
PUBLIC	??D?$_Tree_const_iterator@V?$_Tree_val@U?$_Tree_simple_types@U?$pair@$$CBEUSGuildGradeData@CPythonGuild@@@std@@@std@@@std@@@std@@QBEABU?$pair@$$CBEUSGuildGradeData@CPythonGuild@@@1@XZ ; std::_Tree_const_iterator<std::_Tree_val<std::_Tree_simple_types<std::pair<unsigned char const ,CPythonGuild::SGuildGradeData> > > >::operator*
PUBLIC	??0?$_Tree@V?$_Tmap_traits@KV?$basic_string@DU?$char_traits@D@std@@V?$allocator@D@2@@std@@U?$less@K@2@V?$allocator@U?$pair@$$CBKV?$basic_string@DU?$char_traits@D@std@@V?$allocator@D@2@@std@@@std@@@2@$0A@@std@@@std@@QAE@ABU?$less@K@1@@Z ; std::_Tree<std::_Tmap_traits<unsigned long,std::basic_string<char,std::char_traits<char>,std::allocator<char> >,std::less<unsigned long>,std::allocator<std::pair<unsigned long const ,std::basic_string<char,std::char_traits<char>,std::allocator<char> > > >,0> >::_Tree<std::_Tmap_traits<unsigned long,std::basic_string<char,std::char_traits<char>,std::allocator<char> >,std::less<unsigned long>,std::allocator<std::pair<unsigned long const ,std::basic_string<char,std::char_traits<char>,std::allocator<char> > > >,0> >
PUBLIC	?_Getal@?$_Tree@V?$_Tmap_traits@KV?$basic_string@DU?$char_traits@D@std@@V?$allocator@D@2@@std@@U?$less@K@2@V?$allocator@U?$pair@$$CBKV?$basic_string@DU?$char_traits@D@std@@V?$allocator@D@2@@std@@@std@@@2@$0A@@std@@@std@@IAEAAV?$allocator@U?$_Tree_node@U?$pair@$$CBKV?$basic_string@DU?$char_traits@D@std@@V?$allocator@D@2@@std@@@std@@PAX@std@@@2@XZ ; std::_Tree<std::_Tmap_traits<unsigned long,std::basic_string<char,std::char_traits<char>,std::allocator<char> >,std::less<unsigned long>,std::allocator<std::pair<unsigned long const ,std::basic_string<char,std::char_traits<char>,std::allocator<char> > > >,0> >::_Getal
PUBLIC	?_Get_scary@?$_Tree@V?$_Tmap_traits@KV?$basic_string@DU?$char_traits@D@std@@V?$allocator@D@2@@std@@U?$less@K@2@V?$allocator@U?$pair@$$CBKV?$basic_string@DU?$char_traits@D@std@@V?$allocator@D@2@@std@@@std@@@2@$0A@@std@@@std@@IAEPAV?$_Tree_val@U?$_Tree_simple_types@U?$pair@$$CBKV?$basic_string@DU?$char_traits@D@std@@V?$allocator@D@2@@std@@@std@@@std@@@2@XZ ; std::_Tree<std::_Tmap_traits<unsigned long,std::basic_string<char,std::char_traits<char>,std::allocator<char> >,std::less<unsigned long>,std::allocator<std::pair<unsigned long const ,std::basic_string<char,std::char_traits<char>,std::allocator<char> > > >,0> >::_Get_scary
PUBLIC	?_Orphan_ptr@?$_Tree_val@U?$_Tree_simple_types@U?$pair@$$CBKV?$basic_string@DU?$char_traits@D@std@@V?$allocator@D@2@@std@@@std@@@std@@@std@@QAEXQAU?$_Tree_node@U?$pair@$$CBKV?$basic_string@DU?$char_traits@D@std@@V?$allocator@D@2@@std@@@std@@PAX@2@@Z ; std::_Tree_val<std::_Tree_simple_types<std::pair<unsigned long const ,std::basic_string<char,std::char_traits<char>,std::allocator<char> > > > >::_Orphan_ptr
PUBLIC	??0?$_Tree@V?$_Tmap_traits@EUSGuildGradeData@CPythonGuild@@U?$less@E@std@@V?$allocator@U?$pair@$$CBEUSGuildGradeData@CPythonGuild@@@std@@@4@$0A@@std@@@std@@QAE@ABU?$less@E@1@@Z ; std::_Tree<std::_Tmap_traits<unsigned char,CPythonGuild::SGuildGradeData,std::less<unsigned char>,std::allocator<std::pair<unsigned char const ,CPythonGuild::SGuildGradeData> >,0> >::_Tree<std::_Tmap_traits<unsigned char,CPythonGuild::SGuildGradeData,std::less<unsigned char>,std::allocator<std::pair<unsigned char const ,CPythonGuild::SGuildGradeData> >,0> >
PUBLIC	?_Getal@?$_Tree@V?$_Tmap_traits@EUSGuildGradeData@CPythonGuild@@U?$less@E@std@@V?$allocator@U?$pair@$$CBEUSGuildGradeData@CPythonGuild@@@std@@@4@$0A@@std@@@std@@IAEAAV?$allocator@U?$_Tree_node@U?$pair@$$CBEUSGuildGradeData@CPythonGuild@@@std@@PAX@std@@@2@XZ ; std::_Tree<std::_Tmap_traits<unsigned char,CPythonGuild::SGuildGradeData,std::less<unsigned char>,std::allocator<std::pair<unsigned char const ,CPythonGuild::SGuildGradeData> >,0> >::_Getal
PUBLIC	?_Get_scary@?$_Tree@V?$_Tmap_traits@EUSGuildGradeData@CPythonGuild@@U?$less@E@std@@V?$allocator@U?$pair@$$CBEUSGuildGradeData@CPythonGuild@@@std@@@4@$0A@@std@@@std@@IAEPAV?$_Tree_val@U?$_Tree_simple_types@U?$pair@$$CBEUSGuildGradeData@CPythonGuild@@@std@@@std@@@2@XZ ; std::_Tree<std::_Tmap_traits<unsigned char,CPythonGuild::SGuildGradeData,std::less<unsigned char>,std::allocator<std::pair<unsigned char const ,CPythonGuild::SGuildGradeData> >,0> >::_Get_scary
PUBLIC	?_Orphan_ptr@?$_Tree_val@U?$_Tree_simple_types@U?$pair@$$CBEUSGuildGradeData@CPythonGuild@@@std@@@std@@@std@@QAEXQAU?$_Tree_node@U?$pair@$$CBEUSGuildGradeData@CPythonGuild@@@std@@PAX@2@@Z ; std::_Tree_val<std::_Tree_simple_types<std::pair<unsigned char const ,CPythonGuild::SGuildGradeData> > >::_Orphan_ptr
PUBLIC	?_Tidy@?$vector@USGuildMemberData@CPythonGuild@@V?$allocator@USGuildMemberData@CPythonGuild@@@std@@@std@@AAEXXZ ; std::vector<CPythonGuild::SGuildMemberData,std::allocator<CPythonGuild::SGuildMemberData> >::_Tidy
PUBLIC	?_Orphan_range@?$vector@USGuildMemberData@CPythonGuild@@V?$allocator@USGuildMemberData@CPythonGuild@@@std@@@std@@ABEXPAUSGuildMemberData@CPythonGuild@@0@Z ; std::vector<CPythonGuild::SGuildMemberData,std::allocator<CPythonGuild::SGuildMemberData> >::_Orphan_range
PUBLIC	?_Getal@?$vector@USGuildMemberData@CPythonGuild@@V?$allocator@USGuildMemberData@CPythonGuild@@@std@@@std@@AAEAAV?$allocator@USGuildMemberData@CPythonGuild@@@2@XZ ; std::vector<CPythonGuild::SGuildMemberData,std::allocator<CPythonGuild::SGuildMemberData> >::_Getal
PUBLIC	?_Tidy@?$vector@USGuildBoardCommentData@CPythonGuild@@V?$allocator@USGuildBoardCommentData@CPythonGuild@@@std@@@std@@AAEXXZ ; std::vector<CPythonGuild::SGuildBoardCommentData,std::allocator<CPythonGuild::SGuildBoardCommentData> >::_Tidy
PUBLIC	?_Getal@?$vector@USGuildBoardCommentData@CPythonGuild@@V?$allocator@USGuildBoardCommentData@CPythonGuild@@@std@@@std@@AAEAAV?$allocator@USGuildBoardCommentData@CPythonGuild@@@2@XZ ; std::vector<CPythonGuild::SGuildBoardCommentData,std::allocator<CPythonGuild::SGuildBoardCommentData> >::_Getal
PUBLIC	??0?$_Tree_unchecked_const_iterator@V?$_Tree_val@U?$_Tree_simple_types@U?$pair@$$CBEUSGuildGradeData@CPythonGuild@@@std@@@std@@@std@@U_Iterator_base0@2@@std@@QAE@PAU?$_Tree_node@U?$pair@$$CBEUSGuildGradeData@CPythonGuild@@@std@@PAX@1@PBV?$_Tree_val@U?$_Tree_simple_types@U?$pair@$$CBEUSGuildGradeData@CPythonGuild@@@std@@@std@@@1@@Z ; std::_Tree_unchecked_const_iterator<std::_Tree_val<std::_Tree_simple_types<std::pair<unsigned char const ,CPythonGuild::SGuildGradeData> > >,std::_Iterator_base0>::_Tree_unchecked_const_iterator<std::_Tree_val<std::_Tree_simple_types<std::pair<unsigned char const ,CPythonGuild::SGuildGradeData> > >,std::_Iterator_base0>
PUBLIC	??D?$_Tree_iterator@V?$_Tree_val@U?$_Tree_simple_types@U?$pair@$$CBEUSGuildGradeData@CPythonGuild@@@std@@@std@@@std@@@std@@QBEAAU?$pair@$$CBEUSGuildGradeData@CPythonGuild@@@1@XZ ; std::_Tree_iterator<std::_Tree_val<std::_Tree_simple_types<std::pair<unsigned char const ,CPythonGuild::SGuildGradeData> > > >::operator*
PUBLIC	??0?$_Vector_const_iterator@V?$_Vector_val@U?$_Simple_types@USGuildMemberData@CPythonGuild@@@std@@@std@@@std@@QAE@PAUSGuildMemberData@CPythonGuild@@PBU_Container_base0@1@@Z ; std::_Vector_const_iterator<std::_Vector_val<std::_Simple_types<CPythonGuild::SGuildMemberData> > >::_Vector_const_iterator<std::_Vector_val<std::_Simple_types<CPythonGuild::SGuildMemberData> > >
PUBLIC	??D?$_Vector_const_iterator@V?$_Vector_val@U?$_Simple_types@USGuildMemberData@CPythonGuild@@@std@@@std@@@std@@QBEABUSGuildMemberData@CPythonGuild@@XZ ; std::_Vector_const_iterator<std::_Vector_val<std::_Simple_types<CPythonGuild::SGuildMemberData> > >::operator*
PUBLIC	??E?$_Vector_const_iterator@V?$_Vector_val@U?$_Simple_types@USGuildMemberData@CPythonGuild@@@std@@@std@@@std@@QAEAAV01@XZ ; std::_Vector_const_iterator<std::_Vector_val<std::_Simple_types<CPythonGuild::SGuildMemberData> > >::operator++
PUBLIC	?_Compat@?$_Vector_const_iterator@V?$_Vector_val@U?$_Simple_types@USGuildMemberData@CPythonGuild@@@std@@@std@@@std@@QBEXABV12@@Z ; std::_Vector_const_iterator<std::_Vector_val<std::_Simple_types<CPythonGuild::SGuildMemberData> > >::_Compat
PUBLIC	??0?$_Tree_unchecked_const_iterator@V?$_Tree_val@U?$_Tree_simple_types@U?$pair@$$CBKV?$basic_string@DU?$char_traits@D@std@@V?$allocator@D@2@@std@@@std@@@std@@@std@@U_Iterator_base0@2@@std@@QAE@PAU?$_Tree_node@U?$pair@$$CBKV?$basic_string@DU?$char_traits@D@std@@V?$allocator@D@2@@std@@@std@@PAX@1@PBV?$_Tree_val@U?$_Tree_simple_types@U?$pair@$$CBKV?$basic_string@DU?$char_traits@D@std@@V?$allocator@D@2@@std@@@std@@@std@@@1@@Z ; std::_Tree_unchecked_const_iterator<std::_Tree_val<std::_Tree_simple_types<std::pair<unsigned long const ,std::basic_string<char,std::char_traits<char>,std::allocator<char> > > > >,std::_Iterator_base0>::_Tree_unchecked_const_iterator<std::_Tree_val<std::_Tree_simple_types<std::pair<unsigned long const ,std::basic_string<char,std::char_traits<char>,std::allocator<char> > > > >,std::_Iterator_base0>
PUBLIC	?pointer_to@?$pointer_traits@PAU?$pair@$$CBEUSGuildGradeData@CPythonGuild@@@std@@@std@@SAPAU?$pair@$$CBEUSGuildGradeData@CPythonGuild@@@2@AAU32@@Z ; std::pointer_traits<std::pair<unsigned char const ,CPythonGuild::SGuildGradeData> *>::pointer_to
PUBLIC	??0?$_Tree_const_iterator@V?$_Tree_val@U?$_Tree_simple_types@U?$pair@$$CBKV?$basic_string@DU?$char_traits@D@std@@V?$allocator@D@2@@std@@@std@@@std@@@std@@@std@@QAE@PAU?$_Tree_node@U?$pair@$$CBKV?$basic_string@DU?$char_traits@D@std@@V?$allocator@D@2@@std@@@std@@PAX@1@PBV?$_Tree_val@U?$_Tree_simple_types@U?$pair@$$CBKV?$basic_string@DU?$char_traits@D@std@@V?$allocator@D@2@@std@@@std@@@std@@@1@@Z ; std::_Tree_const_iterator<std::_Tree_val<std::_Tree_simple_types<std::pair<unsigned long const ,std::basic_string<char,std::char_traits<char>,std::allocator<char> > > > > >::_Tree_const_iterator<std::_Tree_val<std::_Tree_simple_types<std::pair<unsigned long const ,std::basic_string<char,std::char_traits<char>,std::allocator<char> > > > > >
PUBLIC	??0?$_Tree_const_iterator@V?$_Tree_val@U?$_Tree_simple_types@U?$pair@$$CBEUSGuildGradeData@CPythonGuild@@@std@@@std@@@std@@@std@@QAE@PAU?$_Tree_node@U?$pair@$$CBEUSGuildGradeData@CPythonGuild@@@std@@PAX@1@PBV?$_Tree_val@U?$_Tree_simple_types@U?$pair@$$CBEUSGuildGradeData@CPythonGuild@@@std@@@std@@@1@@Z ; std::_Tree_const_iterator<std::_Tree_val<std::_Tree_simple_types<std::pair<unsigned char const ,CPythonGuild::SGuildGradeData> > > >::_Tree_const_iterator<std::_Tree_val<std::_Tree_simple_types<std::pair<unsigned char const ,CPythonGuild::SGuildGradeData> > > >
PUBLIC	??0?$_Tree_iterator@V?$_Tree_val@U?$_Tree_simple_types@U?$pair@$$CBKV?$basic_string@DU?$char_traits@D@std@@V?$allocator@D@2@@std@@@std@@@std@@@std@@@std@@QAE@PAU?$_Tree_node@U?$pair@$$CBKV?$basic_string@DU?$char_traits@D@std@@V?$allocator@D@2@@std@@@std@@PAX@1@PBV?$_Tree_val@U?$_Tree_simple_types@U?$pair@$$CBKV?$basic_string@DU?$char_traits@D@std@@V?$allocator@D@2@@std@@@std@@@std@@@1@@Z ; std::_Tree_iterator<std::_Tree_val<std::_Tree_simple_types<std::pair<unsigned long const ,std::basic_string<char,std::char_traits<char>,std::allocator<char> > > > > >::_Tree_iterator<std::_Tree_val<std::_Tree_simple_types<std::pair<unsigned long const ,std::basic_string<char,std::char_traits<char>,std::allocator<char> > > > > >
PUBLIC	??_G?$CSingleton@VCPythonGuild@@@@UAEPAXI@Z	; CSingleton<CPythonGuild>::`scalar deleting destructor'
PUBLIC	??0?$_Tree_iterator@V?$_Tree_val@U?$_Tree_simple_types@U?$pair@$$CBEUSGuildGradeData@CPythonGuild@@@std@@@std@@@std@@@std@@QAE@PAU?$_Tree_node@U?$pair@$$CBEUSGuildGradeData@CPythonGuild@@@std@@PAX@1@PBV?$_Tree_val@U?$_Tree_simple_types@U?$pair@$$CBEUSGuildGradeData@CPythonGuild@@@std@@@std@@@1@@Z ; std::_Tree_iterator<std::_Tree_val<std::_Tree_simple_types<std::pair<unsigned char const ,CPythonGuild::SGuildGradeData> > > >::_Tree_iterator<std::_Tree_val<std::_Tree_simple_types<std::pair<unsigned char const ,CPythonGuild::SGuildGradeData> > > >
PUBLIC	??1?$_Tree@V?$_Tmap_traits@KV?$basic_string@DU?$char_traits@D@std@@V?$allocator@D@2@@std@@U?$less@K@2@V?$allocator@U?$pair@$$CBKV?$basic_string@DU?$char_traits@D@std@@V?$allocator@D@2@@std@@@std@@@2@$0A@@std@@@std@@QAE@XZ ; std::_Tree<std::_Tmap_traits<unsigned long,std::basic_string<char,std::char_traits<char>,std::allocator<char> >,std::less<unsigned long>,std::allocator<std::pair<unsigned long const ,std::basic_string<char,std::char_traits<char>,std::allocator<char> > > >,0> >::~_Tree<std::_Tmap_traits<unsigned long,std::basic_string<char,std::char_traits<char>,std::allocator<char> >,std::less<unsigned long>,std::allocator<std::pair<unsigned long const ,std::basic_string<char,std::char_traits<char>,std::allocator<char> > > >,0> >
PUBLIC	?end@?$_Tree@V?$_Tmap_traits@KV?$basic_string@DU?$char_traits@D@std@@V?$allocator@D@2@@std@@U?$less@K@2@V?$allocator@U?$pair@$$CBKV?$basic_string@DU?$char_traits@D@std@@V?$allocator@D@2@@std@@@std@@@2@$0A@@std@@@std@@QAE?AV?$_Tree_iterator@V?$_Tree_val@U?$_Tree_simple_types@U?$pair@$$CBKV?$basic_string@DU?$char_traits@D@std@@V?$allocator@D@2@@std@@@std@@@std@@@std@@@2@XZ ; std::_Tree<std::_Tmap_traits<unsigned long,std::basic_string<char,std::char_traits<char>,std::allocator<char> >,std::less<unsigned long>,std::allocator<std::pair<unsigned long const ,std::basic_string<char,std::char_traits<char>,std::allocator<char> > > >,0> >::end
PUBLIC	?clear@?$_Tree@V?$_Tmap_traits@KV?$basic_string@DU?$char_traits@D@std@@V?$allocator@D@2@@std@@U?$less@K@2@V?$allocator@U?$pair@$$CBKV?$basic_string@DU?$char_traits@D@std@@V?$allocator@D@2@@std@@@std@@@2@$0A@@std@@@std@@QAEXXZ ; std::_Tree<std::_Tmap_traits<unsigned long,std::basic_string<char,std::char_traits<char>,std::allocator<char> >,std::less<unsigned long>,std::allocator<std::pair<unsigned long const ,std::basic_string<char,std::char_traits<char>,std::allocator<char> > > >,0> >::clear
PUBLIC	?find@?$_Tree@V?$_Tmap_traits@KV?$basic_string@DU?$char_traits@D@std@@V?$allocator@D@2@@std@@U?$less@K@2@V?$allocator@U?$pair@$$CBKV?$basic_string@DU?$char_traits@D@std@@V?$allocator@D@2@@std@@@std@@@2@$0A@@std@@@std@@QAE?AV?$_Tree_iterator@V?$_Tree_val@U?$_Tree_simple_types@U?$pair@$$CBKV?$basic_string@DU?$char_traits@D@std@@V?$allocator@D@2@@std@@@std@@@std@@@std@@@2@ABK@Z ; std::_Tree<std::_Tmap_traits<unsigned long,std::basic_string<char,std::char_traits<char>,std::allocator<char> >,std::less<unsigned long>,std::allocator<std::pair<unsigned long const ,std::basic_string<char,std::char_traits<char>,std::allocator<char> > > >,0> >::find
PUBLIC	??0?$map@KV?$basic_string@DU?$char_traits@D@std@@V?$allocator@D@2@@std@@U?$less@K@2@V?$allocator@U?$pair@$$CBKV?$basic_string@DU?$char_traits@D@std@@V?$allocator@D@2@@std@@@std@@@2@@std@@QAE@XZ ; std::map<unsigned long,std::basic_string<char,std::char_traits<char>,std::allocator<char> >,std::less<unsigned long>,std::allocator<std::pair<unsigned long const ,std::basic_string<char,std::char_traits<char>,std::allocator<char> > > > >::map<unsigned long,std::basic_string<char,std::char_traits<char>,std::allocator<char> >,std::less<unsigned long>,std::allocator<std::pair<unsigned long const ,std::basic_string<char,std::char_traits<char>,std::allocator<char> > > > >
PUBLIC	??A?$map@KV?$basic_string@DU?$char_traits@D@std@@V?$allocator@D@2@@std@@U?$less@K@2@V?$allocator@U?$pair@$$CBKV?$basic_string@DU?$char_traits@D@std@@V?$allocator@D@2@@std@@@std@@@2@@std@@QAEAAV?$basic_string@DU?$char_traits@D@std@@V?$allocator@D@2@@1@ABK@Z ; std::map<unsigned long,std::basic_string<char,std::char_traits<char>,std::allocator<char> >,std::less<unsigned long>,std::allocator<std::pair<unsigned long const ,std::basic_string<char,std::char_traits<char>,std::allocator<char> > > > >::operator[]
PUBLIC	??0?$CSingleton@VCPythonGuild@@@@QAE@XZ		; CSingleton<CPythonGuild>::CSingleton<CPythonGuild>
PUBLIC	??1?$CSingleton@VCPythonGuild@@@@UAE@XZ		; CSingleton<CPythonGuild>::~CSingleton<CPythonGuild>
PUBLIC	?Instance@?$CSingleton@VCPythonGuild@@@@SAAAVCPythonGuild@@XZ ; CSingleton<CPythonGuild>::Instance
PUBLIC	??1?$_Tree@V?$_Tmap_traits@EUSGuildGradeData@CPythonGuild@@U?$less@E@std@@V?$allocator@U?$pair@$$CBEUSGuildGradeData@CPythonGuild@@@std@@@4@$0A@@std@@@std@@QAE@XZ ; std::_Tree<std::_Tmap_traits<unsigned char,CPythonGuild::SGuildGradeData,std::less<unsigned char>,std::allocator<std::pair<unsigned char const ,CPythonGuild::SGuildGradeData> >,0> >::~_Tree<std::_Tmap_traits<unsigned char,CPythonGuild::SGuildGradeData,std::less<unsigned char>,std::allocator<std::pair<unsigned char const ,CPythonGuild::SGuildGradeData> >,0> >
PUBLIC	?end@?$_Tree@V?$_Tmap_traits@EUSGuildGradeData@CPythonGuild@@U?$less@E@std@@V?$allocator@U?$pair@$$CBEUSGuildGradeData@CPythonGuild@@@std@@@4@$0A@@std@@@std@@QAE?AV?$_Tree_iterator@V?$_Tree_val@U?$_Tree_simple_types@U?$pair@$$CBEUSGuildGradeData@CPythonGuild@@@std@@@std@@@std@@@2@XZ ; std::_Tree<std::_Tmap_traits<unsigned char,CPythonGuild::SGuildGradeData,std::less<unsigned char>,std::allocator<std::pair<unsigned char const ,CPythonGuild::SGuildGradeData> >,0> >::end
PUBLIC	?clear@?$_Tree@V?$_Tmap_traits@EUSGuildGradeData@CPythonGuild@@U?$less@E@std@@V?$allocator@U?$pair@$$CBEUSGuildGradeData@CPythonGuild@@@std@@@4@$0A@@std@@@std@@QAEXXZ ; std::_Tree<std::_Tmap_traits<unsigned char,CPythonGuild::SGuildGradeData,std::less<unsigned char>,std::allocator<std::pair<unsigned char const ,CPythonGuild::SGuildGradeData> >,0> >::clear
PUBLIC	?find@?$_Tree@V?$_Tmap_traits@EUSGuildGradeData@CPythonGuild@@U?$less@E@std@@V?$allocator@U?$pair@$$CBEUSGuildGradeData@CPythonGuild@@@std@@@4@$0A@@std@@@std@@QAE?AV?$_Tree_iterator@V?$_Tree_val@U?$_Tree_simple_types@U?$pair@$$CBEUSGuildGradeData@CPythonGuild@@@std@@@std@@@std@@@2@ABE@Z ; std::_Tree<std::_Tmap_traits<unsigned char,CPythonGuild::SGuildGradeData,std::less<unsigned char>,std::allocator<std::pair<unsigned char const ,CPythonGuild::SGuildGradeData> >,0> >::find
PUBLIC	??0?$map@EUSGuildGradeData@CPythonGuild@@U?$less@E@std@@V?$allocator@U?$pair@$$CBEUSGuildGradeData@CPythonGuild@@@std@@@4@@std@@QAE@XZ ; std::map<unsigned char,CPythonGuild::SGuildGradeData,std::less<unsigned char>,std::allocator<std::pair<unsigned char const ,CPythonGuild::SGuildGradeData> > >::map<unsigned char,CPythonGuild::SGuildGradeData,std::less<unsigned char>,std::allocator<std::pair<unsigned char const ,CPythonGuild::SGuildGradeData> > >
PUBLIC	??A?$map@EUSGuildGradeData@CPythonGuild@@U?$less@E@std@@V?$allocator@U?$pair@$$CBEUSGuildGradeData@CPythonGuild@@@std@@@4@@std@@QAEAAUSGuildGradeData@CPythonGuild@@ABE@Z ; std::map<unsigned char,CPythonGuild::SGuildGradeData,std::less<unsigned char>,std::allocator<std::pair<unsigned char const ,CPythonGuild::SGuildGradeData> > >::operator[]
PUBLIC	??0?$vector@USGuildMemberData@CPythonGuild@@V?$allocator@USGuildMemberData@CPythonGuild@@@std@@@std@@QAE@XZ ; std::vector<CPythonGuild::SGuildMemberData,std::allocator<CPythonGuild::SGuildMemberData> >::vector<CPythonGuild::SGuildMemberData,std::allocator<CPythonGuild::SGuildMemberData> >
PUBLIC	??1?$vector@USGuildMemberData@CPythonGuild@@V?$allocator@USGuildMemberData@CPythonGuild@@@std@@@std@@QAE@XZ ; std::vector<CPythonGuild::SGuildMemberData,std::allocator<CPythonGuild::SGuildMemberData> >::~vector<CPythonGuild::SGuildMemberData,std::allocator<CPythonGuild::SGuildMemberData> >
PUBLIC	?push_back@?$vector@USGuildMemberData@CPythonGuild@@V?$allocator@USGuildMemberData@CPythonGuild@@@std@@@std@@QAEXABUSGuildMemberData@CPythonGuild@@@Z ; std::vector<CPythonGuild::SGuildMemberData,std::allocator<CPythonGuild::SGuildMemberData> >::push_back
PUBLIC	?erase@?$vector@USGuildMemberData@CPythonGuild@@V?$allocator@USGuildMemberData@CPythonGuild@@@std@@@std@@QAE?AV?$_Vector_iterator@V?$_Vector_val@U?$_Simple_types@USGuildMemberData@CPythonGuild@@@std@@@std@@@2@V?$_Vector_const_iterator@V?$_Vector_val@U?$_Simple_types@USGuildMemberData@CPythonGuild@@@std@@@std@@@2@@Z ; std::vector<CPythonGuild::SGuildMemberData,std::allocator<CPythonGuild::SGuildMemberData> >::erase
PUBLIC	?clear@?$vector@USGuildMemberData@CPythonGuild@@V?$allocator@USGuildMemberData@CPythonGuild@@@std@@@std@@QAEXXZ ; std::vector<CPythonGuild::SGuildMemberData,std::allocator<CPythonGuild::SGuildMemberData> >::clear
PUBLIC	?begin@?$vector@USGuildMemberData@CPythonGuild@@V?$allocator@USGuildMemberData@CPythonGuild@@@std@@@std@@QAE?AV?$_Vector_iterator@V?$_Vector_val@U?$_Simple_types@USGuildMemberData@CPythonGuild@@@std@@@std@@@2@XZ ; std::vector<CPythonGuild::SGuildMemberData,std::allocator<CPythonGuild::SGuildMemberData> >::begin
PUBLIC	??0?$_Vector_iterator@V?$_Vector_val@U?$_Simple_types@USGuildMemberData@CPythonGuild@@@std@@@std@@@std@@QAE@PAUSGuildMemberData@CPythonGuild@@PBU_Container_base0@1@@Z ; std::_Vector_iterator<std::_Vector_val<std::_Simple_types<CPythonGuild::SGuildMemberData> > >::_Vector_iterator<std::_Vector_val<std::_Simple_types<CPythonGuild::SGuildMemberData> > >
PUBLIC	?end@?$vector@USGuildMemberData@CPythonGuild@@V?$allocator@USGuildMemberData@CPythonGuild@@@std@@@std@@QAE?AV?$_Vector_iterator@V?$_Vector_val@U?$_Simple_types@USGuildMemberData@CPythonGuild@@@std@@@std@@@2@XZ ; std::vector<CPythonGuild::SGuildMemberData,std::allocator<CPythonGuild::SGuildMemberData> >::end
PUBLIC	?empty@?$vector@USGuildMemberData@CPythonGuild@@V?$allocator@USGuildMemberData@CPythonGuild@@@std@@@std@@QBE_NXZ ; std::vector<CPythonGuild::SGuildMemberData,std::allocator<CPythonGuild::SGuildMemberData> >::empty
PUBLIC	?size@?$vector@USGuildMemberData@CPythonGuild@@V?$allocator@USGuildMemberData@CPythonGuild@@@std@@@std@@QBEIXZ ; std::vector<CPythonGuild::SGuildMemberData,std::allocator<CPythonGuild::SGuildMemberData> >::size
PUBLIC	??A?$vector@USGuildMemberData@CPythonGuild@@V?$allocator@USGuildMemberData@CPythonGuild@@@std@@@std@@QAEAAUSGuildMemberData@CPythonGuild@@I@Z ; std::vector<CPythonGuild::SGuildMemberData,std::allocator<CPythonGuild::SGuildMemberData> >::operator[]
PUBLIC	??0?$vector@USGuildBoardCommentData@CPythonGuild@@V?$allocator@USGuildBoardCommentData@CPythonGuild@@@std@@@std@@QAE@XZ ; std::vector<CPythonGuild::SGuildBoardCommentData,std::allocator<CPythonGuild::SGuildBoardCommentData> >::vector<CPythonGuild::SGuildBoardCommentData,std::allocator<CPythonGuild::SGuildBoardCommentData> >
PUBLIC	??1?$vector@USGuildBoardCommentData@CPythonGuild@@V?$allocator@USGuildBoardCommentData@CPythonGuild@@@std@@@std@@QAE@XZ ; std::vector<CPythonGuild::SGuildBoardCommentData,std::allocator<CPythonGuild::SGuildBoardCommentData> >::~vector<CPythonGuild::SGuildBoardCommentData,std::allocator<CPythonGuild::SGuildBoardCommentData> >
PUBLIC	?push_back@?$vector@USGuildBoardCommentData@CPythonGuild@@V?$allocator@USGuildBoardCommentData@CPythonGuild@@@std@@@std@@QAEXABUSGuildBoardCommentData@CPythonGuild@@@Z ; std::vector<CPythonGuild::SGuildBoardCommentData,std::allocator<CPythonGuild::SGuildBoardCommentData> >::push_back
PUBLIC	?clear@?$vector@USGuildBoardCommentData@CPythonGuild@@V?$allocator@USGuildBoardCommentData@CPythonGuild@@@std@@@std@@QAEXXZ ; std::vector<CPythonGuild::SGuildBoardCommentData,std::allocator<CPythonGuild::SGuildBoardCommentData> >::clear
PUBLIC	?size@?$vector@USGuildBoardCommentData@CPythonGuild@@V?$allocator@USGuildBoardCommentData@CPythonGuild@@@std@@@std@@QBEIXZ ; std::vector<CPythonGuild::SGuildBoardCommentData,std::allocator<CPythonGuild::SGuildBoardCommentData> >::size
PUBLIC	??A?$vector@USGuildBoardCommentData@CPythonGuild@@V?$allocator@USGuildBoardCommentData@CPythonGuild@@@std@@@std@@QBEABUSGuildBoardCommentData@CPythonGuild@@I@Z ; std::vector<CPythonGuild::SGuildBoardCommentData,std::allocator<CPythonGuild::SGuildBoardCommentData> >::operator[]
PUBLIC	??8?$_Tree_const_iterator@V?$_Tree_val@U?$_Tree_simple_types@U?$pair@$$CBEUSGuildGradeData@CPythonGuild@@@std@@@std@@@std@@@std@@QBE_NABV01@@Z ; std::_Tree_const_iterator<std::_Tree_val<std::_Tree_simple_types<std::pair<unsigned char const ,CPythonGuild::SGuildGradeData> > > >::operator==
PUBLIC	??C?$_Tree_iterator@V?$_Tree_val@U?$_Tree_simple_types@U?$pair@$$CBEUSGuildGradeData@CPythonGuild@@@std@@@std@@@std@@@std@@QBEPAU?$pair@$$CBEUSGuildGradeData@CPythonGuild@@@1@XZ ; std::_Tree_iterator<std::_Tree_val<std::_Tree_simple_types<std::pair<unsigned char const ,CPythonGuild::SGuildGradeData> > > >::operator->
PUBLIC	??0?$_Vector_const_iterator@V?$_Vector_val@U?$_Simple_types@USGuildMemberData@CPythonGuild@@@std@@@std@@@std@@QAE@XZ ; std::_Vector_const_iterator<std::_Vector_val<std::_Simple_types<CPythonGuild::SGuildMemberData> > >::_Vector_const_iterator<std::_Vector_val<std::_Simple_types<CPythonGuild::SGuildMemberData> > >
PUBLIC	??8?$_Vector_const_iterator@V?$_Vector_val@U?$_Simple_types@USGuildMemberData@CPythonGuild@@@std@@@std@@@std@@QBE_NABV01@@Z ; std::_Vector_const_iterator<std::_Vector_val<std::_Simple_types<CPythonGuild::SGuildMemberData> > >::operator==
PUBLIC	??D?$_Vector_iterator@V?$_Vector_val@U?$_Simple_types@USGuildMemberData@CPythonGuild@@@std@@@std@@@std@@QBEAAUSGuildMemberData@CPythonGuild@@XZ ; std::_Vector_iterator<std::_Vector_val<std::_Simple_types<CPythonGuild::SGuildMemberData> > >::operator*
PUBLIC	??E?$_Vector_iterator@V?$_Vector_val@U?$_Simple_types@USGuildMemberData@CPythonGuild@@@std@@@std@@@std@@QAEAAV01@XZ ; std::_Vector_iterator<std::_Vector_val<std::_Simple_types<CPythonGuild::SGuildMemberData> > >::operator++
PUBLIC	??8?$_Tree_const_iterator@V?$_Tree_val@U?$_Tree_simple_types@U?$pair@$$CBKV?$basic_string@DU?$char_traits@D@std@@V?$allocator@D@2@@std@@@std@@@std@@@std@@@std@@QBE_NABV01@@Z ; std::_Tree_const_iterator<std::_Tree_val<std::_Tree_simple_types<std::pair<unsigned long const ,std::basic_string<char,std::char_traits<char>,std::allocator<char> > > > > >::operator==
PUBLIC	?initguild@@YAXXZ				; initguild
PUBLIC	?guildGetMarkIndexByMarkID@@YAPAU_object@@PAU1@0@Z ; guildGetMarkIndexByMarkID
PUBLIC	?guildGetMarkImageFilenameByMarkID@@YAPAU_object@@PAU1@0@Z ; guildGetMarkImageFilenameByMarkID
PUBLIC	?guildGuildIDToMarkID@@YAPAU_object@@PAU1@0@Z	; guildGuildIDToMarkID
PUBLIC	?guildDestroy@@YAPAU_object@@PAU1@0@Z		; guildDestroy
PUBLIC	?guildMainPlayerHasAuthority@@YAPAU_object@@PAU1@0@Z ; guildMainPlayerHasAuthority
PUBLIC	?guildIsMemberByName@@YAPAU_object@@PAU1@0@Z	; guildIsMemberByName
PUBLIC	?guildIsMember@@YAPAU_object@@PAU1@0@Z		; guildIsMember
PUBLIC	?guildMemberIndexToPID@@YAPAU_object@@PAU1@0@Z	; guildMemberIndexToPID
PUBLIC	?guildGetMemberData@@YAPAU_object@@PAU1@0@Z	; guildGetMemberData
PUBLIC	?guildGetMemberCount@@YAPAU_object@@PAU1@0@Z	; guildGetMemberCount
PUBLIC	?guildGetGradeName@@YAPAU_object@@PAU1@0@Z	; guildGetGradeName
PUBLIC	?guildGetGradeData@@YAPAU_object@@PAU1@0@Z	; guildGetGradeData
PUBLIC	?guildGetSkillIndex@@YAPAU_object@@PAU1@0@Z	; guildGetSkillIndex
PUBLIC	?guildSetSkillIndex@@YAPAU_object@@PAU1@0@Z	; guildSetSkillIndex
PUBLIC	?guildGetSkillMaxLevelNew@@YAPAU_object@@PAU1@0@Z ; guildGetSkillMaxLevelNew
PUBLIC	?guildGetSkillLevel@@YAPAU_object@@PAU1@0@Z	; guildGetSkillLevel
PUBLIC	?guildGetGuildSkillLevel@@YAPAU_object@@PAU1@0@Z ; guildGetGuildSkillLevel
PUBLIC	?guildGetDragonPowerPoint@@YAPAU_object@@PAU1@0@Z ; guildGetDragonPowerPoint
PUBLIC	?guildGetGuildSkillPoint@@YAPAU_object@@PAU1@0@Z ; guildGetGuildSkillPoint
PUBLIC	?guildGetGuildExperienceSummary@@YAPAU_object@@PAU1@0@Z ; guildGetGuildExperienceSummary
PUBLIC	?guildGetGuildMemberLevelAverage@@YAPAU_object@@PAU1@0@Z ; guildGetGuildMemberLevelAverage
PUBLIC	?guildGetGuildMemberLevelSummary@@YAPAU_object@@PAU1@0@Z ; guildGetGuildMemberLevelSummary
PUBLIC	?guildGetGuildMemberCount@@YAPAU_object@@PAU1@0@Z ; guildGetGuildMemberCount
PUBLIC	?guildGetGuildExperience@@YAPAU_object@@PAU1@0@Z ; guildGetGuildExperience
PUBLIC	?guildGetGuildLevel@@YAPAU_object@@PAU1@0@Z	; guildGetGuildLevel
PUBLIC	?guildGetGuildBoardCommentData@@YAPAU_object@@PAU1@0@Z ; guildGetGuildBoardCommentData
PUBLIC	?guildGetGuildBoardCommentCount@@YAPAU_object@@PAU1@0@Z ; guildGetGuildBoardCommentCount
PUBLIC	?guildGetGuildMoney@@YAPAU_object@@PAU1@0@Z	; guildGetGuildMoney
PUBLIC	?guildGetEnemyGuildName@@YAPAU_object@@PAU1@0@Z	; guildGetEnemyGuildName
PUBLIC	?guildGetGuildMasterName@@YAPAU_object@@PAU1@0@Z ; guildGetGuildMasterName
PUBLIC	?guildGetGuildName@@YAPAU_object@@PAU1@0@Z	; guildGetGuildName
PUBLIC	?guildHasGuildLand@@YAPAU_object@@PAU1@0@Z	; guildHasGuildLand
PUBLIC	?guildGetGuildID@@YAPAU_object@@PAU1@0@Z	; guildGetGuildID
PUBLIC	?guildIsGuildEnable@@YAPAU_object@@PAU1@0@Z	; guildIsGuildEnable
PUBLIC	??1?$map@KV?$basic_string@DU?$char_traits@D@std@@V?$allocator@D@2@@std@@U?$less@K@2@V?$allocator@U?$pair@$$CBKV?$basic_string@DU?$char_traits@D@std@@V?$allocator@D@2@@std@@@std@@@2@@std@@QAE@XZ ; std::map<unsigned long,std::basic_string<char,std::char_traits<char>,std::allocator<char> >,std::less<unsigned long>,std::allocator<std::pair<unsigned long const ,std::basic_string<char,std::char_traits<char>,std::allocator<char> > > > >::~map<unsigned long,std::basic_string<char,std::char_traits<char>,std::allocator<char> >,std::less<unsigned long>,std::allocator<std::pair<unsigned long const ,std::basic_string<char,std::char_traits<char>,std::allocator<char> > > > >
PUBLIC	??1?$map@EUSGuildGradeData@CPythonGuild@@U?$less@E@std@@V?$allocator@U?$pair@$$CBEUSGuildGradeData@CPythonGuild@@@std@@@4@@std@@QAE@XZ ; std::map<unsigned char,CPythonGuild::SGuildGradeData,std::less<unsigned char>,std::allocator<std::pair<unsigned char const ,CPythonGuild::SGuildGradeData> > >::~map<unsigned char,CPythonGuild::SGuildGradeData,std::less<unsigned char>,std::allocator<std::pair<unsigned char const ,CPythonGuild::SGuildGradeData> > >
PUBLIC	??_GCPythonGuild@@UAEPAXI@Z			; CPythonGuild::`scalar deleting destructor'
PUBLIC	?Destroy@CPythonGuild@@QAEXXZ			; CPythonGuild::Destroy
PUBLIC	?__Initialize@CPythonGuild@@IAEXXZ		; CPythonGuild::__Initialize
PUBLIC	?__IsGradeData@CPythonGuild@@IAEHE@Z		; CPythonGuild::__IsGradeData
PUBLIC	?__SortMember@CPythonGuild@@IAEXXZ		; CPythonGuild::__SortMember
PUBLIC	??RCPythonGuild_SLessMemberGrade@@QAE_NAAUSGuildMemberData@CPythonGuild@@0@Z ; CPythonGuild_SLessMemberGrade::operator()
PUBLIC	?__CalculateLevelAverage@CPythonGuild@@IAEXXZ	; CPythonGuild::__CalculateLevelAverage
PUBLIC	?IsDoingGuildWar@CPythonGuild@@QAEHXZ		; CPythonGuild::IsDoingGuildWar
PUBLIC	?GetEnemyGuildID@CPythonGuild@@QAEKK@Z		; CPythonGuild::GetEnemyGuildID
PUBLIC	?EndGuildWar@CPythonGuild@@QAEXK@Z		; CPythonGuild::EndGuildWar
PUBLIC	?StartGuildWar@CPythonGuild@@QAEXK@Z		; CPythonGuild::StartGuildWar
PUBLIC	?HasGuildLand@CPythonGuild@@QAEHXZ		; CPythonGuild::HasGuildLand
PUBLIC	?GetGuildID@CPythonGuild@@QAEKXZ		; CPythonGuild::GetGuildID
PUBLIC	?GetGuildName@CPythonGuild@@QAE_NKPAV?$basic_string@DU?$char_traits@D@std@@V?$allocator@D@2@@std@@@Z ; CPythonGuild::GetGuildName
PUBLIC	?GetGuildSkillDataRef@CPythonGuild@@QAEAAUSGuildSkillData@1@XZ ; CPythonGuild::GetGuildSkillDataRef
PUBLIC	?GetGuildExperienceSummary@CPythonGuild@@QAEKXZ	; CPythonGuild::GetGuildExperienceSummary
PUBLIC	?GetGuildMemberLevelAverage@CPythonGuild@@QAEKXZ ; CPythonGuild::GetGuildMemberLevelAverage
PUBLIC	?GetGuildMemberLevelSummary@CPythonGuild@@QAEKXZ ; CPythonGuild::GetGuildMemberLevelSummary
PUBLIC	??1CPythonGuild_FFindGuildMemberByName@@QAE@XZ	; CPythonGuild_FFindGuildMemberByName::~CPythonGuild_FFindGuildMemberByName
PUBLIC	?GetMemberDataPtrByName@CPythonGuild@@QAEHPBDPAPAUSGuildMemberData@1@@Z ; CPythonGuild::GetMemberDataPtrByName
PUBLIC	?GetMemberDataPtrByPID@CPythonGuild@@QAEHKPAPAUSGuildMemberData@1@@Z ; CPythonGuild::GetMemberDataPtrByPID
PUBLIC	?GetMemberDataPtr@CPythonGuild@@QAEHKPAPAUSGuildMemberData@1@@Z ; CPythonGuild::GetMemberDataPtr
PUBLIC	?GetMemberCount@CPythonGuild@@QAEKXZ		; CPythonGuild::GetMemberCount
PUBLIC	?GetGuildBoardCommentVector@CPythonGuild@@QAEABV?$vector@USGuildBoardCommentData@CPythonGuild@@V?$allocator@USGuildBoardCommentData@CPythonGuild@@@std@@@std@@XZ ; CPythonGuild::GetGuildBoardCommentVector
PUBLIC	?GetGradeDataPtr@CPythonGuild@@QAEHKPAPAUSGuildGradeData@1@@Z ; CPythonGuild::GetGradeDataPtr
PUBLIC	?GetGuildInfoRef@CPythonGuild@@QAEAAUSGulidInfo@1@XZ ; CPythonGuild::GetGuildInfoRef
PUBLIC	?IsGuildEnable@CPythonGuild@@QAEHXZ		; CPythonGuild::IsGuildEnable
PUBLIC	?IsMainPlayer@CPythonGuild@@QAEHK@Z		; CPythonGuild::IsMainPlayer
PUBLIC	?RegisterGuildName@CPythonGuild@@QAEXKPBD@Z	; CPythonGuild::RegisterGuildName
PUBLIC	??0?$_Vector_iterator@V?$_Vector_val@U?$_Simple_types@USGuildMemberData@CPythonGuild@@@std@@@std@@@std@@QAE@XZ ; std::_Vector_iterator<std::_Vector_val<std::_Simple_types<CPythonGuild::SGuildMemberData> > >::_Vector_iterator<std::_Vector_val<std::_Simple_types<CPythonGuild::SGuildMemberData> > >
PUBLIC	?RemoveMember@CPythonGuild@@QAEXK@Z		; CPythonGuild::RemoveMember
PUBLIC	?ChangeGuildMemberGeneralFlag@CPythonGuild@@QAEXKE@Z ; CPythonGuild::ChangeGuildMemberGeneralFlag
PUBLIC	?ChangeGuildMemberGrade@CPythonGuild@@QAEXKE@Z	; CPythonGuild::ChangeGuildMemberGrade
PUBLIC	??RCPythonGuild_FFindGuildMemberByName@@QAEHAAUSGuildMemberData@CPythonGuild@@@Z ; CPythonGuild_FFindGuildMemberByName::operator()
PUBLIC	??0CPythonGuild_FFindGuildMemberByName@@QAE@PBD@Z ; CPythonGuild_FFindGuildMemberByName::CPythonGuild_FFindGuildMemberByName
PUBLIC	??RCPythonGuild_FFindGuildMemberByPID@@QAEHAAUSGuildMemberData@CPythonGuild@@@Z ; CPythonGuild_FFindGuildMemberByPID::operator()
PUBLIC	??0CPythonGuild_FFindGuildMemberByPID@@QAE@K@Z	; CPythonGuild_FFindGuildMemberByPID::CPythonGuild_FFindGuildMemberByPID
PUBLIC	?RegisterMember@CPythonGuild@@QAEXAAUSGuildMemberData@1@@Z ; CPythonGuild::RegisterMember
PUBLIC	??1SGuildBoardCommentData@CPythonGuild@@QAE@XZ	; CPythonGuild::SGuildBoardCommentData::~SGuildBoardCommentData
PUBLIC	??0SGuildBoardCommentData@CPythonGuild@@QAE@XZ	; CPythonGuild::SGuildBoardCommentData::SGuildBoardCommentData
PUBLIC	?RegisterComment@CPythonGuild@@QAEXKPBD0@Z	; CPythonGuild::RegisterComment
PUBLIC	?ClearComment@CPythonGuild@@QAEXXZ		; CPythonGuild::ClearComment
PUBLIC	?SetGradeAuthority@CPythonGuild@@QAEXEE@Z	; CPythonGuild::SetGradeAuthority
PUBLIC	?SetGradeName@CPythonGuild@@QAEXEPBD@Z		; CPythonGuild::SetGradeName
PUBLIC	??4SGuildGradeData@CPythonGuild@@QAEAAU01@ABU01@@Z ; CPythonGuild::SGuildGradeData::operator=
PUBLIC	?SetGradeData@CPythonGuild@@QAEXEAAUSGuildGradeData@1@@Z ; CPythonGuild::SetGradeData
PUBLIC	?SetGuildEXP@CPythonGuild@@QAEXEK@Z		; CPythonGuild::SetGuildEXP
PUBLIC	?SetGuildMoney@CPythonGuild@@QAEXK@Z		; CPythonGuild::SetGuildMoney
PUBLIC	?EnableGuild@CPythonGuild@@QAEXXZ		; CPythonGuild::EnableGuild
PUBLIC	??0SGuildGradeData@CPythonGuild@@QAE@XZ		; CPythonGuild::SGuildGradeData::SGuildGradeData
PUBLIC	??0CPythonGuild@@QAE@XZ				; CPythonGuild::CPythonGuild
PUBLIC	??1CPythonGuild@@UAE@XZ				; CPythonGuild::~CPythonGuild
PUBLIC	?g_GuildSkillSlotToIndexMap@@3V?$map@KKU?$less@K@std@@V?$allocator@U?$pair@$$CBKK@std@@@2@@std@@A ; g_GuildSkillSlotToIndexMap
EXTRN	??_ECPythonGuild@@UAEPAXI@Z:PROC		; CPythonGuild::`vector deleting destructor'
EXTRN	??_E?$CSingleton@VCPythonGuild@@@@UAEPAXI@Z:PROC ; CSingleton<CPythonGuild>::`vector deleting destructor'
	ALIGN	8

?g_GuildSkillSlotToIndexMap@@3V?$map@KKU?$less@K@std@@V?$allocator@U?$pair@$$CBKK@std@@@2@@std@@A DQ 01H DUP (?) ; g_GuildSkillSlotToIndexMap
_BSS	ENDS
;	COMDAT xdata$x
xdata$x	SEGMENT
__ehfuncinfo$??0CPythonGuild@@QAE@XZ DD 019930522H
	DD	04H
	DD	FLAT:__unwindtable$??0CPythonGuild@@QAE@XZ
	DD	2 DUP(00H)
	DD	2 DUP(00H)
	DD	00H
	DD	01H
__unwindtable$??0CPythonGuild@@QAE@XZ DD 0ffffffffH
	DD	FLAT:__unwindfunclet$??0CPythonGuild@@QAE@XZ$0
	DD	00H
	DD	FLAT:__unwindfunclet$??0CPythonGuild@@QAE@XZ$1
	DD	01H
	DD	FLAT:__unwindfunclet$??0CPythonGuild@@QAE@XZ$2
	DD	02H
	DD	FLAT:__unwindfunclet$??0CPythonGuild@@QAE@XZ$3
xdata$x	ENDS
;	COMDAT xdata$x
xdata$x	SEGMENT
__ehfuncinfo$?RegisterComment@CPythonGuild@@QAEXKPBD0@Z DD 019930522H
	DD	03H
	DD	FLAT:__unwindtable$?RegisterComment@CPythonGuild@@QAEXKPBD0@Z
	DD	2 DUP(00H)
	DD	2 DUP(00H)
	DD	00H
	DD	01H
__unwindtable$?RegisterComment@CPythonGuild@@QAEXKPBD0@Z DD 0ffffffffH
	DD	FLAT:__unwindfunclet$?RegisterComment@CPythonGuild@@QAEXKPBD0@Z$0
	DD	00H
	DD	00H
	DD	00H
	DD	FLAT:__unwindfunclet$?RegisterComment@CPythonGuild@@QAEXKPBD0@Z$10
xdata$x	ENDS
;	COMDAT xdata$x
xdata$x	SEGMENT
__ehfuncinfo$?RegisterGuildName@CPythonGuild@@QAEXKPBD@Z DD 019930522H
	DD	02H
	DD	FLAT:__unwindtable$?RegisterGuildName@CPythonGuild@@QAEXKPBD@Z
	DD	2 DUP(00H)
	DD	2 DUP(00H)
	DD	00H
	DD	01H
__unwindtable$?RegisterGuildName@CPythonGuild@@QAEXKPBD@Z DD 0ffffffffH
	DD	FLAT:__unwindfunclet$?RegisterGuildName@CPythonGuild@@QAEXKPBD@Z$0
	DD	00H
	DD	FLAT:__unwindfunclet$?RegisterGuildName@CPythonGuild@@QAEXKPBD@Z$1
xdata$x	ENDS
;	COMDAT xdata$x
xdata$x	SEGMENT
__ehfuncinfo$?guildGetGuildName@@YAPAU_object@@PAU1@0@Z DD 019930522H
	DD	01H
	DD	FLAT:__unwindtable$?guildGetGuildName@@YAPAU_object@@PAU1@0@Z
	DD	2 DUP(00H)
	DD	2 DUP(00H)
	DD	00H
	DD	01H
__unwindtable$?guildGetGuildName@@YAPAU_object@@PAU1@0@Z DD 0ffffffffH
	DD	FLAT:__unwindfunclet$?guildGetGuildName@@YAPAU_object@@PAU1@0@Z$0
xdata$x	ENDS
;	COMDAT xdata$x
xdata$x	SEGMENT
__ehfuncinfo$?guildGetEnemyGuildName@@YAPAU_object@@PAU1@0@Z DD 019930522H
	DD	01H
	DD	FLAT:__unwindtable$?guildGetEnemyGuildName@@YAPAU_object@@PAU1@0@Z
	DD	2 DUP(00H)
	DD	2 DUP(00H)
	DD	00H
	DD	01H
__unwindtable$?guildGetEnemyGuildName@@YAPAU_object@@PAU1@0@Z DD 0ffffffffH
	DD	FLAT:__unwindfunclet$?guildGetEnemyGuildName@@YAPAU_object@@PAU1@0@Z$0
xdata$x	ENDS
;	COMDAT xdata$x
xdata$x	SEGMENT
__ehfuncinfo$?guildGetMarkImageFilenameByMarkID@@YAPAU_object@@PAU1@0@Z DD 019930522H
	DD	01H
	DD	FLAT:__unwindtable$?guildGetMarkImageFilenameByMarkID@@YAPAU_object@@PAU1@0@Z
	DD	2 DUP(00H)
	DD	2 DUP(00H)
	DD	00H
	DD	01H
__unwindtable$?guildGetMarkImageFilenameByMarkID@@YAPAU_object@@PAU1@0@Z DD 0ffffffffH
	DD	FLAT:__unwindfunclet$?guildGetMarkImageFilenameByMarkID@@YAPAU_object@@PAU1@0@Z$0
xdata$x	ENDS
;	COMDAT xdata$x
xdata$x	SEGMENT
__ehfuncinfo$?push_back@?$vector@USGuildBoardCommentData@CPythonGuild@@V?$allocator@USGuildBoardCommentData@CPythonGuild@@@std@@@std@@QAEXABUSGuildBoardCommentData@CPythonGuild@@@Z DD 019930522H
	DD	02H
	DD	FLAT:__unwindtable$?push_back@?$vector@USGuildBoardCommentData@CPythonGuild@@V?$allocator@USGuildBoardCommentData@CPythonGuild@@@std@@@std@@QAEXABUSGuildBoardCommentData@CPythonGuild@@@Z
	DD	2 DUP(00H)
	DD	2 DUP(00H)
	DD	00H
	DD	01H
__unwindtable$?push_back@?$vector@USGuildBoardCommentData@CPythonGuild@@V?$allocator@USGuildBoardCommentData@CPythonGuild@@@std@@@std@@QAEXABUSGuildBoardCommentData@CPythonGuild@@@Z DD 0ffffffffH
	DD	00H
	DD	0ffffffffH
	DD	FLAT:__unwindfunclet$?push_back@?$vector@USGuildBoardCommentData@CPythonGuild@@V?$allocator@USGuildBoardCommentData@CPythonGuild@@@std@@@std@@QAEXABUSGuildBoardCommentData@CPythonGuild@@@Z$2
xdata$x	ENDS
;	COMDAT xdata$x
xdata$x	SEGMENT
__ehfuncinfo$??A?$map@EUSGuildGradeData@CPythonGuild@@U?$less@E@std@@V?$allocator@U?$pair@$$CBEUSGuildGradeData@CPythonGuild@@@std@@@4@@std@@QAEAAUSGuildGradeData@CPythonGuild@@ABE@Z DD 019930522H
	DD	01H
	DD	FLAT:__unwindtable$??A?$map@EUSGuildGradeData@CPythonGuild@@U?$less@E@std@@V?$allocator@U?$pair@$$CBEUSGuildGradeData@CPythonGuild@@@std@@@4@@std@@QAEAAUSGuildGradeData@CPythonGuild@@ABE@Z
	DD	2 DUP(00H)
	DD	2 DUP(00H)
	DD	00H
	DD	01H
__unwindtable$??A?$map@EUSGuildGradeData@CPythonGuild@@U?$less@E@std@@V?$allocator@U?$pair@$$CBEUSGuildGradeData@CPythonGuild@@@std@@@4@@std@@QAEAAUSGuildGradeData@CPythonGuild@@ABE@Z DD 0ffffffffH
	DD	FLAT:__unwindfunclet$??A?$map@EUSGuildGradeData@CPythonGuild@@U?$less@E@std@@V?$allocator@U?$pair@$$CBEUSGuildGradeData@CPythonGuild@@@std@@@4@@std@@QAEAAUSGuildGradeData@CPythonGuild@@ABE@Z$2
xdata$x	ENDS
;	COMDAT xdata$x
xdata$x	SEGMENT
__ehfuncinfo$??A?$map@KV?$basic_string@DU?$char_traits@D@std@@V?$allocator@D@2@@std@@U?$less@K@2@V?$allocator@U?$pair@$$CBKV?$basic_string@DU?$char_traits@D@std@@V?$allocator@D@2@@std@@@std@@@2@@std@@QAEAAV?$basic_string@DU?$char_traits@D@std@@V?$allocator@D@2@@1@ABK@Z DD 019930522H
	DD	01H
	DD	FLAT:__unwindtable$??A?$map@KV?$basic_string@DU?$char_traits@D@std@@V?$allocator@D@2@@std@@U?$less@K@2@V?$allocator@U?$pair@$$CBKV?$basic_string@DU?$char_traits@D@std@@V?$allocator@D@2@@std@@@std@@@2@@std@@QAEAAV?$basic_string@DU?$char_traits@D@std@@V?$allocator@D@2@@1@ABK@Z
	DD	2 DUP(00H)
	DD	2 DUP(00H)
	DD	00H
	DD	01H
__unwindtable$??A?$map@KV?$basic_string@DU?$char_traits@D@std@@V?$allocator@D@2@@std@@U?$less@K@2@V?$allocator@U?$pair@$$CBKV?$basic_string@DU?$char_traits@D@std@@V?$allocator@D@2@@std@@@std@@@2@@std@@QAEAAV?$basic_string@DU?$char_traits@D@std@@V?$allocator@D@2@@1@ABK@Z DD 0ffffffffH
	DD	FLAT:__unwindfunclet$??A?$map@KV?$basic_string@DU?$char_traits@D@std@@V?$allocator@D@2@@std@@U?$less@K@2@V?$allocator@U?$pair@$$CBKV?$basic_string@DU?$char_traits@D@std@@V?$allocator@D@2@@std@@@std@@@2@@std@@QAEAAV?$basic_string@DU?$char_traits@D@std@@V?$allocator@D@2@@1@ABK@Z$2
xdata$x	ENDS
;	COMDAT xdata$x
xdata$x	SEGMENT
__ehfuncinfo$??$_Emplace_one_at_back@ABUSGuildBoardCommentData@CPythonGuild@@@?$vector@USGuildBoardCommentData@CPythonGuild@@V?$allocator@USGuildBoardCommentData@CPythonGuild@@@std@@@std@@AAEAAUSGuildBoardCommentData@CPythonGuild@@ABU23@@Z DD 019930522H
	DD	02H
	DD	FLAT:__unwindtable$??$_Emplace_one_at_back@ABUSGuildBoardCommentData@CPythonGuild@@@?$vector@USGuildBoardCommentData@CPythonGuild@@V?$allocator@USGuildBoardCommentData@CPythonGuild@@@std@@@std@@AAEAAUSGuildBoardCommentData@CPythonGuild@@ABU23@@Z
	DD	2 DUP(00H)
	DD	2 DUP(00H)
	DD	00H
	DD	01H
__unwindtable$??$_Emplace_one_at_back@ABUSGuildBoardCommentData@CPythonGuild@@@?$vector@USGuildBoardCommentData@CPythonGuild@@V?$allocator@USGuildBoardCommentData@CPythonGuild@@@std@@@std@@AAEAAUSGuildBoardCommentData@CPythonGuild@@ABU23@@Z DD 0ffffffffH
	DD	00H
	DD	0ffffffffH
	DD	FLAT:__unwindfunclet$??$_Emplace_one_at_back@ABUSGuildBoardCommentData@CPythonGuild@@@?$vector@USGuildBoardCommentData@CPythonGuild@@V?$allocator@USGuildBoardCommentData@CPythonGuild@@@std@@@std@@AAEAAUSGuildBoardCommentData@CPythonGuild@@ABU23@@Z$2
xdata$x	ENDS
;	COMDAT xdata$x
xdata$x	SEGMENT
__ehfuncinfo$??$_Try_emplace@ABE$$V@?$map@EUSGuildGradeData@CPythonGuild@@U?$less@E@std@@V?$allocator@U?$pair@$$CBEUSGuildGradeData@CPythonGuild@@@std@@@4@@std@@AAE?AU?$pair@PAU?$_Tree_node@U?$pair@$$CBEUSGuildGradeData@CPythonGuild@@@std@@PAX@std@@_N@1@ABE@Z DD 019930522H
	DD	01H
	DD	FLAT:__unwindtable$??$_Try_emplace@ABE$$V@?$map@EUSGuildGradeData@CPythonGuild@@U?$less@E@std@@V?$allocator@U?$pair@$$CBEUSGuildGradeData@CPythonGuild@@@std@@@4@@std@@AAE?AU?$pair@PAU?$_Tree_node@U?$pair@$$CBEUSGuildGradeData@CPythonGuild@@@std@@PAX@std@@_N@1@ABE@Z
	DD	2 DUP(00H)
	DD	2 DUP(00H)
	DD	00H
	DD	01H
__unwindtable$??$_Try_emplace@ABE$$V@?$map@EUSGuildGradeData@CPythonGuild@@U?$less@E@std@@V?$allocator@U?$pair@$$CBEUSGuildGradeData@CPythonGuild@@@std@@@4@@std@@AAE?AU?$pair@PAU?$_Tree_node@U?$pair@$$CBEUSGuildGradeData@CPythonGuild@@@std@@PAX@std@@_N@1@ABE@Z DD 0ffffffffH
	DD	FLAT:__unwindfunclet$??$_Try_emplace@ABE$$V@?$map@EUSGuildGradeData@CPythonGuild@@U?$less@E@std@@V?$allocator@U?$pair@$$CBEUSGuildGradeData@CPythonGuild@@@std@@@4@@std@@AAE?AU?$pair@PAU?$_Tree_node@U?$pair@$$CBEUSGuildGradeData@CPythonGuild@@@std@@PAX@std@@_N@1@ABE@Z$2
xdata$x	ENDS
;	COMDAT xdata$x
xdata$x	SEGMENT
__ehfuncinfo$??$_Try_emplace@ABK$$V@?$map@KV?$basic_string@DU?$char_traits@D@std@@V?$allocator@D@2@@std@@U?$less@K@2@V?$allocator@U?$pair@$$CBKV?$basic_string@DU?$char_traits@D@std@@V?$allocator@D@2@@std@@@std@@@2@@std@@AAE?AU?$pair@PAU?$_Tree_node@U?$pair@$$CBKV?$basic_string@DU?$char_traits@D@std@@V?$allocator@D@2@@std@@@std@@PAX@std@@_N@1@ABK@Z DD 019930522H
	DD	01H
	DD	FLAT:__unwindtable$??$_Try_emplace@ABK$$V@?$map@KV?$basic_string@DU?$char_traits@D@std@@V?$allocator@D@2@@std@@U?$less@K@2@V?$allocator@U?$pair@$$CBKV?$basic_string@DU?$char_traits@D@std@@V?$allocator@D@2@@std@@@std@@@2@@std@@AAE?AU?$pair@PAU?$_Tree_node@U?$pair@$$CBKV?$basic_string@DU?$char_traits@D@std@@V?$allocator@D@2@@std@@@std@@PAX@std@@_N@1@ABK@Z
	DD	2 DUP(00H)
	DD	2 DUP(00H)
	DD	00H
	DD	01H
__unwindtable$??$_Try_emplace@ABK$$V@?$map@KV?$basic_string@DU?$char_traits@D@std@@V?$allocator@D@2@@std@@U?$less@K@2@V?$allocator@U?$pair@$$CBKV?$basic_string@DU?$char_traits@D@std@@V?$allocator@D@2@@std@@@std@@@2@@std@@AAE?AU?$pair@PAU?$_Tree_node@U?$pair@$$CBKV?$basic_string@DU?$char_traits@D@std@@V?$allocator@D@2@@std@@@std@@PAX@std@@_N@1@ABK@Z DD 0ffffffffH
	DD	FLAT:__unwindfunclet$??$_Try_emplace@ABK$$V@?$map@KV?$basic_string@DU?$char_traits@D@std@@V?$allocator@D@2@@std@@U?$less@K@2@V?$allocator@U?$pair@$$CBKV?$basic_string@DU?$char_traits@D@std@@V?$allocator@D@2@@std@@@std@@@2@@std@@AAE?AU?$pair@PAU?$_Tree_node@U?$pair@$$CBKV?$basic_string@DU?$char_traits@D@std@@V?$allocator@D@2@@std@@@std@@PAX@std@@_N@1@ABK@Z$2
xdata$x	ENDS
;	COMDAT xdata$x
xdata$x	SEGMENT
__ehfuncinfo$??$emplace@U?$pair@KV?$basic_string@DU?$char_traits@D@std@@V?$allocator@D@2@@std@@@std@@@?$_Tree@V?$_Tmap_traits@KV?$basic_string@DU?$char_traits@D@std@@V?$allocator@D@2@@std@@U?$less@K@2@V?$allocator@U?$pair@$$CBKV?$basic_string@DU?$char_traits@D@std@@V?$allocator@D@2@@std@@@std@@@2@$0A@@std@@@std@@QAE?AU?$pair@V?$_Tree_iterator@V?$_Tree_val@U?$_Tree_simple_types@U?$pair@$$CBKV?$basic_string@DU?$char_traits@D@std@@V?$allocator@D@2@@std@@@std@@@std@@@std@@@std@@_N@1@$$QAU?$pair@KV?$basic_string@DU?$char_traits@D@std@@V?$allocator@D@2@@std@@@1@@Z DD 019930522H
	DD	01H
	DD	FLAT:__unwindtable$??$emplace@U?$pair@KV?$basic_string@DU?$char_traits@D@std@@V?$allocator@D@2@@std@@@std@@@?$_Tree@V?$_Tmap_traits@KV?$basic_string@DU?$char_traits@D@std@@V?$allocator@D@2@@std@@U?$less@K@2@V?$allocator@U?$pair@$$CBKV?$basic_string@DU?$char_traits@D@std@@V?$allocator@D@2@@std@@@std@@@2@$0A@@std@@@std@@QAE?AU?$pair@V?$_Tree_iterator@V?$_Tree_val@U?$_Tree_simple_types@U?$pair@$$CBKV?$basic_string@DU?$char_traits@D@std@@V?$allocator@D@2@@std@@@std@@@std@@@std@@@std@@_N@1@$$QAU?$pair@KV?$basic_string@DU?$char_traits@D@std@@V?$allocator@D@2@@std@@@1@@Z
	DD	2 DUP(00H)
	DD	2 DUP(00H)
	DD	00H
	DD	01H
__unwindtable$??$emplace@U?$pair@KV?$basic_string@DU?$char_traits@D@std@@V?$allocator@D@2@@std@@@std@@@?$_Tree@V?$_Tmap_traits@KV?$basic_string@DU?$char_traits@D@std@@V?$allocator@D@2@@std@@U?$less@K@2@V?$allocator@U?$pair@$$CBKV?$basic_string@DU?$char_traits@D@std@@V?$allocator@D@2@@std@@@std@@@2@$0A@@std@@@std@@QAE?AU?$pair@V?$_Tree_iterator@V?$_Tree_val@U?$_Tree_simple_types@U?$pair@$$CBKV?$basic_string@DU?$char_traits@D@std@@V?$allocator@D@2@@std@@@std@@@std@@@std@@@std@@_N@1@$$QAU?$pair@KV?$basic_string@DU?$char_traits@D@std@@V?$allocator@D@2@@std@@@1@@Z DD 0ffffffffH
	DD	FLAT:__unwindfunclet$??$emplace@U?$pair@KV?$basic_string@DU?$char_traits@D@std@@V?$allocator@D@2@@std@@@std@@@?$_Tree@V?$_Tmap_traits@KV?$basic_string@DU?$char_traits@D@std@@V?$allocator@D@2@@std@@U?$less@K@2@V?$allocator@U?$pair@$$CBKV?$basic_string@DU?$char_traits@D@std@@V?$allocator@D@2@@std@@@std@@@2@$0A@@std@@@std@@QAE?AU?$pair@V?$_Tree_iterator@V?$_Tree_val@U?$_Tree_simple_types@U?$pair@$$CBKV?$basic_string@DU?$char_traits@D@std@@V?$allocator@D@2@@std@@@std@@@std@@@std@@@std@@_N@1@$$QAU?$pair@KV?$basic_string@DU?$char_traits@D@std@@V?$allocator@D@2@@std@@@1@@Z$2
xdata$x	ENDS
;	COMDAT xdata$x
xdata$x	SEGMENT
__ehfuncinfo$??$emplace@U?$pair@HH@std@@@?$_Tree@V?$_Tmap_traits@KKU?$less@K@std@@V?$allocator@U?$pair@$$CBKK@std@@@2@$0A@@std@@@std@@QAE?AU?$pair@V?$_Tree_iterator@V?$_Tree_val@U?$_Tree_simple_types@U?$pair@$$CBKK@std@@@std@@@std@@@std@@_N@1@$$QAU?$pair@HH@1@@Z DD 019930522H
	DD	02H
	DD	FLAT:__unwindtable$??$emplace@U?$pair@HH@std@@@?$_Tree@V?$_Tmap_traits@KKU?$less@K@std@@V?$allocator@U?$pair@$$CBKK@std@@@2@$0A@@std@@@std@@QAE?AU?$pair@V?$_Tree_iterator@V?$_Tree_val@U?$_Tree_simple_types@U?$pair@$$CBKK@std@@@std@@@std@@@std@@_N@1@$$QAU?$pair@HH@1@@Z
	DD	2 DUP(00H)
	DD	2 DUP(00H)
	DD	00H
	DD	01H
__unwindtable$??$emplace@U?$pair@HH@std@@@?$_Tree@V?$_Tmap_traits@KKU?$less@K@std@@V?$allocator@U?$pair@$$CBKK@std@@@2@$0A@@std@@@std@@QAE?AU?$pair@V?$_Tree_iterator@V?$_Tree_val@U?$_Tree_simple_types@U?$pair@$$CBKK@std@@@std@@@std@@@std@@_N@1@$$QAU?$pair@HH@1@@Z DD 0ffffffffH
	DD	FLAT:__unwindfunclet$??$emplace@U?$pair@HH@std@@@?$_Tree@V?$_Tmap_traits@KKU?$less@K@std@@V?$allocator@U?$pair@$$CBKK@std@@@2@$0A@@std@@@std@@QAE?AU?$pair@V?$_Tree_iterator@V?$_Tree_val@U?$_Tree_simple_types@U?$pair@$$CBKK@std@@@std@@@std@@@std@@_N@1@$$QAU?$pair@HH@1@@Z$2
	DD	0ffffffffH
	DD	FLAT:__unwindfunclet$??$emplace@U?$pair@HH@std@@@?$_Tree@V?$_Tmap_traits@KKU?$less@K@std@@V?$allocator@U?$pair@$$CBKK@std@@@2@$0A@@std@@@std@@QAE?AU?$pair@V?$_Tree_iterator@V?$_Tree_val@U?$_Tree_simple_types@U?$pair@$$CBKK@std@@@std@@@std@@@std@@_N@1@$$QAU?$pair@HH@1@@Z$0
xdata$x	ENDS
;	COMDAT xdata$x
xdata$x	SEGMENT
__ehfuncinfo$??$_Emplace_back_with_unused_capacity@ABUSGuildBoardCommentData@CPythonGuild@@@?$vector@USGuildBoardCommentData@CPythonGuild@@V?$allocator@USGuildBoardCommentData@CPythonGuild@@@std@@@std@@AAEAAUSGuildBoardCommentData@CPythonGuild@@ABU23@@Z DD 019930522H
	DD	02H
	DD	FLAT:__unwindtable$??$_Emplace_back_with_unused_capacity@ABUSGuildBoardCommentData@CPythonGuild@@@?$vector@USGuildBoardCommentData@CPythonGuild@@V?$allocator@USGuildBoardCommentData@CPythonGuild@@@std@@@std@@AAEAAUSGuildBoardCommentData@CPythonGuild@@ABU23@@Z
	DD	2 DUP(00H)
	DD	2 DUP(00H)
	DD	00H
	DD	01H
__unwindtable$??$_Emplace_back_with_unused_capacity@ABUSGuildBoardCommentData@CPythonGuild@@@?$vector@USGuildBoardCommentData@CPythonGuild@@V?$allocator@USGuildBoardCommentData@CPythonGuild@@@std@@@std@@AAEAAUSGuildBoardCommentData@CPythonGuild@@ABU23@@Z DD 0ffffffffH
	DD	00H
	DD	0ffffffffH
	DD	FLAT:__unwindfunclet$??$_Emplace_back_with_unused_capacity@ABUSGuildBoardCommentData@CPythonGuild@@@?$vector@USGuildBoardCommentData@CPythonGuild@@V?$allocator@USGuildBoardCommentData@CPythonGuild@@@std@@@std@@AAEAAUSGuildBoardCommentData@CPythonGuild@@ABU23@@Z$2
xdata$x	ENDS
;	COMDAT xdata$x
xdata$x	SEGMENT
__ehfuncinfo$??$_Emplace_reallocate@ABUSGuildBoardCommentData@CPythonGuild@@@?$vector@USGuildBoardCommentData@CPythonGuild@@V?$allocator@USGuildBoardCommentData@CPythonGuild@@@std@@@std@@AAEPAUSGuildBoardCommentData@CPythonGuild@@QAU23@ABU23@@Z DD 019930522H
	DD	04H
	DD	FLAT:__unwindtable$??$_Emplace_reallocate@ABUSGuildBoardCommentData@CPythonGuild@@@?$vector@USGuildBoardCommentData@CPythonGuild@@V?$allocator@USGuildBoardCommentData@CPythonGuild@@@std@@@std@@AAEPAUSGuildBoardCommentData@CPythonGuild@@QAU23@ABU23@@Z
	DD	01H
	DD	FLAT:__tryblocktable$??$_Emplace_reallocate@ABUSGuildBoardCommentData@CPythonGuild@@@?$vector@USGuildBoardCommentData@CPythonGuild@@V?$allocator@USGuildBoardCommentData@CPythonGuild@@@std@@@std@@AAEPAUSGuildBoardCommentData@CPythonGuild@@QAU23@ABU23@@Z
	DD	2 DUP(00H)
	DD	00H
	DD	01H
__unwindtable$??$_Emplace_reallocate@ABUSGuildBoardCommentData@CPythonGuild@@@?$vector@USGuildBoardCommentData@CPythonGuild@@V?$allocator@USGuildBoardCommentData@CPythonGuild@@@std@@@std@@AAEPAUSGuildBoardCommentData@CPythonGuild@@QAU23@ABU23@@Z DD 0ffffffffH
	DD	00H
	DD	00H
	DD	00H
	DD	00H
	DD	FLAT:__unwindfunclet$??$_Emplace_reallocate@ABUSGuildBoardCommentData@CPythonGuild@@@?$vector@USGuildBoardCommentData@CPythonGuild@@V?$allocator@USGuildBoardCommentData@CPythonGuild@@@std@@@std@@AAEPAUSGuildBoardCommentData@CPythonGuild@@QAU23@ABU23@@Z$4
	DD	0ffffffffH
	DD	00H
__tryblocktable$??$_Emplace_reallocate@ABUSGuildBoardCommentData@CPythonGuild@@@?$vector@USGuildBoardCommentData@CPythonGuild@@V?$allocator@USGuildBoardCommentData@CPythonGuild@@@std@@@std@@AAEPAUSGuildBoardCommentData@CPythonGuild@@QAU23@ABU23@@Z DD 00H
	DD	02H
	DD	03H
	DD	01H
	DD	FLAT:__catchsym$??$_Emplace_reallocate@ABUSGuildBoardCommentData@CPythonGuild@@@?$vector@USGuildBoardCommentData@CPythonGuild@@V?$allocator@USGuildBoardCommentData@CPythonGuild@@@std@@@std@@AAEPAUSGuildBoardCommentData@CPythonGuild@@QAU23@ABU23@@Z$6
__catchsym$??$_Emplace_reallocate@ABUSGuildBoardCommentData@CPythonGuild@@@?$vector@USGuildBoardCommentData@CPythonGuild@@V?$allocator@USGuildBoardCommentData@CPythonGuild@@@std@@@std@@AAEPAUSGuildBoardCommentData@CPythonGuild@@QAU23@ABU23@@Z$6 DD 040H
	DD	00H
	DD	00H
	DD	FLAT:__catch$??$_Emplace_reallocate@ABUSGuildBoardCommentData@CPythonGuild@@@?$vector@USGuildBoardCommentData@CPythonGuild@@V?$allocator@USGuildBoardCommentData@CPythonGuild@@@std@@@std@@AAEPAUSGuildBoardCommentData@CPythonGuild@@QAU23@ABU23@@Z$0
xdata$x	ENDS
;	COMDAT xdata$x
xdata$x	SEGMENT
__ehfuncinfo$??$_Emplace_reallocate@ABUSGuildMemberData@CPythonGuild@@@?$vector@USGuildMemberData@CPythonGuild@@V?$allocator@USGuildMemberData@CPythonGuild@@@std@@@std@@AAEPAUSGuildMemberData@CPythonGuild@@QAU23@ABU23@@Z DD 019930522H
	DD	02H
	DD	FLAT:__unwindtable$??$_Emplace_reallocate@ABUSGuildMemberData@CPythonGuild@@@?$vector@USGuildMemberData@CPythonGuild@@V?$allocator@USGuildMemberData@CPythonGuild@@@std@@@std@@AAEPAUSGuildMemberData@CPythonGuild@@QAU23@ABU23@@Z
	DD	01H
	DD	FLAT:__tryblocktable$??$_Emplace_reallocate@ABUSGuildMemberData@CPythonGuild@@@?$vector@USGuildMemberData@CPythonGuild@@V?$allocator@USGuildMemberData@CPythonGuild@@@std@@@std@@AAEPAUSGuildMemberData@CPythonGuild@@QAU23@ABU23@@Z
	DD	2 DUP(00H)
	DD	00H
	DD	01H
__unwindtable$??$_Emplace_reallocate@ABUSGuildMemberData@CPythonGuild@@@?$vector@USGuildMemberData@CPythonGuild@@V?$allocator@USGuildMemberData@CPythonGuild@@@std@@@std@@AAEPAUSGuildMemberData@CPythonGuild@@QAU23@ABU23@@Z DD 0ffffffffH
	DD	00H
	DD	0ffffffffH
	DD	00H
__tryblocktable$??$_Emplace_reallocate@ABUSGuildMemberData@CPythonGuild@@@?$vector@USGuildMemberData@CPythonGuild@@V?$allocator@USGuildMemberData@CPythonGuild@@@std@@@std@@AAEPAUSGuildMemberData@CPythonGuild@@QAU23@ABU23@@Z DD 00H
	DD	00H
	DD	01H
	DD	01H
	DD	FLAT:__catchsym$??$_Emplace_reallocate@ABUSGuildMemberData@CPythonGuild@@@?$vector@USGuildMemberData@CPythonGuild@@V?$allocator@USGuildMemberData@CPythonGuild@@@std@@@std@@AAEPAUSGuildMemberData@CPythonGuild@@QAU23@ABU23@@Z$4
__catchsym$??$_Emplace_reallocate@ABUSGuildMemberData@CPythonGuild@@@?$vector@USGuildMemberData@CPythonGuild@@V?$allocator@USGuildMemberData@CPythonGuild@@@std@@@std@@AAEPAUSGuildMemberData@CPythonGuild@@QAU23@ABU23@@Z$4 DD 040H
	DD	00H
	DD	00H
	DD	FLAT:__catch$??$_Emplace_reallocate@ABUSGuildMemberData@CPythonGuild@@@?$vector@USGuildMemberData@CPythonGuild@@V?$allocator@USGuildMemberData@CPythonGuild@@@std@@@std@@AAEPAUSGuildMemberData@CPythonGuild@@QAU23@ABU23@@Z$0
xdata$x	ENDS
;	COMDAT xdata$x
xdata$x	SEGMENT
__ehfuncinfo$??$?0ABUpiecewise_construct_t@std@@V?$tuple@ABE@1@V?$tuple@$$V@1@@?$_Tree_temp_node@V?$allocator@U?$_Tree_node@U?$pair@$$CBEUSGuildGradeData@CPythonGuild@@@std@@PAX@std@@@std@@@std@@QAE@AAV?$allocator@U?$_Tree_node@U?$pair@$$CBEUSGuildGradeData@CPythonGuild@@@std@@PAX@std@@@1@PAU?$_Tree_node@U?$pair@$$CBEUSGuildGradeData@CPythonGuild@@@std@@PAX@1@ABUpiecewise_construct_t@1@$$QAV?$tuple@ABE@1@$$QAV?$tuple@$$V@1@@Z DD 019930522H
	DD	01H
	DD	FLAT:__unwindtable$??$?0ABUpiecewise_construct_t@std@@V?$tuple@ABE@1@V?$tuple@$$V@1@@?$_Tree_temp_node@V?$allocator@U?$_Tree_node@U?$pair@$$CBEUSGuildGradeData@CPythonGuild@@@std@@PAX@std@@@std@@@std@@QAE@AAV?$allocator@U?$_Tree_node@U?$pair@$$CBEUSGuildGradeData@CPythonGuild@@@std@@PAX@std@@@1@PAU?$_Tree_node@U?$pair@$$CBEUSGuildGradeData@CPythonGuild@@@std@@PAX@1@ABUpiecewise_construct_t@1@$$QAV?$tuple@ABE@1@$$QAV?$tuple@$$V@1@@Z
	DD	2 DUP(00H)
	DD	2 DUP(00H)
	DD	00H
	DD	01H
__unwindtable$??$?0ABUpiecewise_construct_t@std@@V?$tuple@ABE@1@V?$tuple@$$V@1@@?$_Tree_temp_node@V?$allocator@U?$_Tree_node@U?$pair@$$CBEUSGuildGradeData@CPythonGuild@@@std@@PAX@std@@@std@@@std@@QAE@AAV?$allocator@U?$_Tree_node@U?$pair@$$CBEUSGuildGradeData@CPythonGuild@@@std@@PAX@std@@@1@PAU?$_Tree_node@U?$pair@$$CBEUSGuildGradeData@CPythonGuild@@@std@@PAX@1@ABUpiecewise_construct_t@1@$$QAV?$tuple@ABE@1@$$QAV?$tuple@$$V@1@@Z DD 0ffffffffH
	DD	FLAT:__unwindfunclet$??$?0ABUpiecewise_construct_t@std@@V?$tuple@ABE@1@V?$tuple@$$V@1@@?$_Tree_temp_node@V?$allocator@U?$_Tree_node@U?$pair@$$CBEUSGuildGradeData@CPythonGuild@@@std@@PAX@std@@@std@@@std@@QAE@AAV?$allocator@U?$_Tree_node@U?$pair@$$CBEUSGuildGradeData@CPythonGuild@@@std@@PAX@std@@@1@PAU?$_Tree_node@U?$pair@$$CBEUSGuildGradeData@CPythonGuild@@@std@@PAX@1@ABUpiecewise_construct_t@1@$$QAV?$tuple@ABE@1@$$QAV?$tuple@$$V@1@@Z$1
xdata$x	ENDS
;	COMDAT xdata$x
xdata$x	SEGMENT
__ehfuncinfo$??$?0ABUpiecewise_construct_t@std@@V?$tuple@ABK@1@V?$tuple@$$V@1@@?$_Tree_temp_node@V?$allocator@U?$_Tree_node@U?$pair@$$CBKV?$basic_string@DU?$char_traits@D@std@@V?$allocator@D@2@@std@@@std@@PAX@std@@@std@@@std@@QAE@AAV?$allocator@U?$_Tree_node@U?$pair@$$CBKV?$basic_string@DU?$char_traits@D@std@@V?$allocator@D@2@@std@@@std@@PAX@std@@@1@PAU?$_Tree_node@U?$pair@$$CBKV?$basic_string@DU?$char_traits@D@std@@V?$allocator@D@2@@std@@@std@@PAX@1@ABUpiecewise_construct_t@1@$$QAV?$tuple@ABK@1@$$QAV?$tuple@$$V@1@@Z DD 019930522H
	DD	01H
	DD	FLAT:__unwindtable$??$?0ABUpiecewise_construct_t@std@@V?$tuple@ABK@1@V?$tuple@$$V@1@@?$_Tree_temp_node@V?$allocator@U?$_Tree_node@U?$pair@$$CBKV?$basic_string@DU?$char_traits@D@std@@V?$allocator@D@2@@std@@@std@@PAX@std@@@std@@@std@@QAE@AAV?$allocator@U?$_Tree_node@U?$pair@$$CBKV?$basic_string@DU?$char_traits@D@std@@V?$allocator@D@2@@std@@@std@@PAX@std@@@1@PAU?$_Tree_node@U?$pair@$$CBKV?$basic_string@DU?$char_traits@D@std@@V?$allocator@D@2@@std@@@std@@PAX@1@ABUpiecewise_construct_t@1@$$QAV?$tuple@ABK@1@$$QAV?$tuple@$$V@1@@Z
	DD	2 DUP(00H)
	DD	2 DUP(00H)
	DD	00H
	DD	01H
__unwindtable$??$?0ABUpiecewise_construct_t@std@@V?$tuple@ABK@1@V?$tuple@$$V@1@@?$_Tree_temp_node@V?$allocator@U?$_Tree_node@U?$pair@$$CBKV?$basic_string@DU?$char_traits@D@std@@V?$allocator@D@2@@std@@@std@@PAX@std@@@std@@@std@@QAE@AAV?$allocator@U?$_Tree_node@U?$pair@$$CBKV?$basic_string@DU?$char_traits@D@std@@V?$allocator@D@2@@std@@@std@@PAX@std@@@1@PAU?$_Tree_node@U?$pair@$$CBKV?$basic_string@DU?$char_traits@D@std@@V?$allocator@D@2@@std@@@std@@PAX@1@ABUpiecewise_construct_t@1@$$QAV?$tuple@ABK@1@$$QAV?$tuple@$$V@1@@Z DD 0ffffffffH
	DD	FLAT:__unwindfunclet$??$?0ABUpiecewise_construct_t@std@@V?$tuple@ABK@1@V?$tuple@$$V@1@@?$_Tree_temp_node@V?$allocator@U?$_Tree_node@U?$pair@$$CBKV?$basic_string@DU?$char_traits@D@std@@V?$allocator@D@2@@std@@@std@@PAX@std@@@std@@@std@@QAE@AAV?$allocator@U?$_Tree_node@U?$pair@$$CBKV?$basic_string@DU?$char_traits@D@std@@V?$allocator@D@2@@std@@@std@@PAX@std@@@1@PAU?$_Tree_node@U?$pair@$$CBKV?$basic_string@DU?$char_traits@D@std@@V?$allocator@D@2@@std@@@std@@PAX@1@ABUpiecewise_construct_t@1@$$QAV?$tuple@ABK@1@$$QAV?$tuple@$$V@1@@Z$1
xdata$x	ENDS
;	COMDAT xdata$x
xdata$x	SEGMENT
__ehfuncinfo$??0?$_Tree_temp_node_alloc@V?$allocator@U?$_Tree_node@U?$pair@$$CBKV?$basic_string@DU?$char_traits@D@std@@V?$allocator@D@2@@std@@@std@@PAX@std@@@std@@@std@@QAE@AAV?$allocator@U?$_Tree_node@U?$pair@$$CBKV?$basic_string@DU?$char_traits@D@std@@V?$allocator@D@2@@std@@@std@@PAX@std@@@1@@Z DD 019930522H
	DD	01H
	DD	FLAT:__unwindtable$??0?$_Tree_temp_node_alloc@V?$allocator@U?$_Tree_node@U?$pair@$$CBKV?$basic_string@DU?$char_traits@D@std@@V?$allocator@D@2@@std@@@std@@PAX@std@@@std@@@std@@QAE@AAV?$allocator@U?$_Tree_node@U?$pair@$$CBKV?$basic_string@DU?$char_traits@D@std@@V?$allocator@D@2@@std@@@std@@PAX@std@@@1@@Z
	DD	2 DUP(00H)
	DD	2 DUP(00H)
	DD	00H
	DD	01H
__unwindtable$??0?$_Tree_temp_node_alloc@V?$allocator@U?$_Tree_node@U?$pair@$$CBKV?$basic_string@DU?$char_traits@D@std@@V?$allocator@D@2@@std@@@std@@PAX@std@@@std@@@std@@QAE@AAV?$allocator@U?$_Tree_node@U?$pair@$$CBKV?$basic_string@DU?$char_traits@D@std@@V?$allocator@D@2@@std@@@std@@PAX@std@@@1@@Z DD 0ffffffffH
	DD	FLAT:__unwindfunclet$??0?$_Tree_temp_node_alloc@V?$allocator@U?$_Tree_node@U?$pair@$$CBKV?$basic_string@DU?$char_traits@D@std@@V?$allocator@D@2@@std@@@std@@PAX@std@@@std@@@std@@QAE@AAV?$allocator@U?$_Tree_node@U?$pair@$$CBKV?$basic_string@DU?$char_traits@D@std@@V?$allocator@D@2@@std@@@std@@PAX@std@@@1@@Z$0
xdata$x	ENDS
;	COMDAT xdata$x
xdata$x	SEGMENT
__ehfuncinfo$??0?$_Tree_temp_node_alloc@V?$allocator@U?$_Tree_node@U?$pair@$$CBEUSGuildGradeData@CPythonGuild@@@std@@PAX@std@@@std@@@std@@QAE@AAV?$allocator@U?$_Tree_node@U?$pair@$$CBEUSGuildGradeData@CPythonGuild@@@std@@PAX@std@@@1@@Z DD 019930522H
	DD	01H
	DD	FLAT:__unwindtable$??0?$_Tree_temp_node_alloc@V?$allocator@U?$_Tree_node@U?$pair@$$CBEUSGuildGradeData@CPythonGuild@@@std@@PAX@std@@@std@@@std@@QAE@AAV?$allocator@U?$_Tree_node@U?$pair@$$CBEUSGuildGradeData@CPythonGuild@@@std@@PAX@std@@@1@@Z
	DD	2 DUP(00H)
	DD	2 DUP(00H)
	DD	00H
	DD	01H
__unwindtable$??0?$_Tree_temp_node_alloc@V?$allocator@U?$_Tree_node@U?$pair@$$CBEUSGuildGradeData@CPythonGuild@@@std@@PAX@std@@@std@@@std@@QAE@AAV?$allocator@U?$_Tree_node@U?$pair@$$CBEUSGuildGradeData@CPythonGuild@@@std@@PAX@std@@@1@@Z DD 0ffffffffH
	DD	FLAT:__unwindfunclet$??0?$_Tree_temp_node_alloc@V?$allocator@U?$_Tree_node@U?$pair@$$CBEUSGuildGradeData@CPythonGuild@@@std@@PAX@std@@@std@@@std@@QAE@AAV?$allocator@U?$_Tree_node@U?$pair@$$CBEUSGuildGradeData@CPythonGuild@@@std@@PAX@std@@@1@@Z$0
xdata$x	ENDS
;	COMDAT xdata$x
xdata$x	SEGMENT
__ehfuncinfo$??$_Emplace@U?$pair@KV?$basic_string@DU?$char_traits@D@std@@V?$allocator@D@2@@std@@@std@@@?$_Tree@V?$_Tmap_traits@KV?$basic_string@DU?$char_traits@D@std@@V?$allocator@D@2@@std@@U?$less@K@2@V?$allocator@U?$pair@$$CBKV?$basic_string@DU?$char_traits@D@std@@V?$allocator@D@2@@std@@@std@@@2@$0A@@std@@@std@@IAE?AU?$pair@PAU?$_Tree_node@U?$pair@$$CBKV?$basic_string@DU?$char_traits@D@std@@V?$allocator@D@2@@std@@@std@@PAX@std@@_N@1@$$QAU?$pair@KV?$basic_string@DU?$char_traits@D@std@@V?$allocator@D@2@@std@@@1@@Z DD 019930522H
	DD	01H
	DD	FLAT:__unwindtable$??$_Emplace@U?$pair@KV?$basic_string@DU?$char_traits@D@std@@V?$allocator@D@2@@std@@@std@@@?$_Tree@V?$_Tmap_traits@KV?$basic_string@DU?$char_traits@D@std@@V?$allocator@D@2@@std@@U?$less@K@2@V?$allocator@U?$pair@$$CBKV?$basic_string@DU?$char_traits@D@std@@V?$allocator@D@2@@std@@@std@@@2@$0A@@std@@@std@@IAE?AU?$pair@PAU?$_Tree_node@U?$pair@$$CBKV?$basic_string@DU?$char_traits@D@std@@V?$allocator@D@2@@std@@@std@@PAX@std@@_N@1@$$QAU?$pair@KV?$basic_string@DU?$char_traits@D@std@@V?$allocator@D@2@@std@@@1@@Z
	DD	2 DUP(00H)
	DD	2 DUP(00H)
	DD	00H
	DD	01H
__unwindtable$??$_Emplace@U?$pair@KV?$basic_string@DU?$char_traits@D@std@@V?$allocator@D@2@@std@@@std@@@?$_Tree@V?$_Tmap_traits@KV?$basic_string@DU?$char_traits@D@std@@V?$allocator@D@2@@std@@U?$less@K@2@V?$allocator@U?$pair@$$CBKV?$basic_string@DU?$char_traits@D@std@@V?$allocator@D@2@@std@@@std@@@2@$0A@@std@@@std@@IAE?AU?$pair@PAU?$_Tree_node@U?$pair@$$CBKV?$basic_string@DU?$char_traits@D@std@@V?$allocator@D@2@@std@@@std@@PAX@std@@_N@1@$$QAU?$pair@KV?$basic_string@DU?$char_traits@D@std@@V?$allocator@D@2@@std@@@1@@Z DD 0ffffffffH
	DD	FLAT:__unwindfunclet$??$_Emplace@U?$pair@KV?$basic_string@DU?$char_traits@D@std@@V?$allocator@D@2@@std@@@std@@@?$_Tree@V?$_Tmap_traits@KV?$basic_string@DU?$char_traits@D@std@@V?$allocator@D@2@@std@@U?$less@K@2@V?$allocator@U?$pair@$$CBKV?$basic_string@DU?$char_traits@D@std@@V?$allocator@D@2@@std@@@std@@@2@$0A@@std@@@std@@IAE?AU?$pair@PAU?$_Tree_node@U?$pair@$$CBKV?$basic_string@DU?$char_traits@D@std@@V?$allocator@D@2@@std@@@std@@PAX@std@@_N@1@$$QAU?$pair@KV?$basic_string@DU?$char_traits@D@std@@V?$allocator@D@2@@std@@@1@@Z$2
xdata$x	ENDS
;	COMDAT xdata$x
xdata$x	SEGMENT
__ehfuncinfo$??$_Emplace@U?$pair@HH@std@@@?$_Tree@V?$_Tmap_traits@KKU?$less@K@std@@V?$allocator@U?$pair@$$CBKK@std@@@2@$0A@@std@@@std@@IAE?AU?$pair@PAU?$_Tree_node@U?$pair@$$CBKK@std@@PAX@std@@_N@1@$$QAU?$pair@HH@1@@Z DD 019930522H
	DD	02H
	DD	FLAT:__unwindtable$??$_Emplace@U?$pair@HH@std@@@?$_Tree@V?$_Tmap_traits@KKU?$less@K@std@@V?$allocator@U?$pair@$$CBKK@std@@@2@$0A@@std@@@std@@IAE?AU?$pair@PAU?$_Tree_node@U?$pair@$$CBKK@std@@PAX@std@@_N@1@$$QAU?$pair@HH@1@@Z
	DD	2 DUP(00H)
	DD	2 DUP(00H)
	DD	00H
	DD	01H
__unwindtable$??$_Emplace@U?$pair@HH@std@@@?$_Tree@V?$_Tmap_traits@KKU?$less@K@std@@V?$allocator@U?$pair@$$CBKK@std@@@2@$0A@@std@@@std@@IAE?AU?$pair@PAU?$_Tree_node@U?$pair@$$CBKK@std@@PAX@std@@_N@1@$$QAU?$pair@HH@1@@Z DD 0ffffffffH
	DD	FLAT:__unwindfunclet$??$_Emplace@U?$pair@HH@std@@@?$_Tree@V?$_Tmap_traits@KKU?$less@K@std@@V?$allocator@U?$pair@$$CBKK@std@@@2@$0A@@std@@@std@@IAE?AU?$pair@PAU?$_Tree_node@U?$pair@$$CBKK@std@@PAX@std@@_N@1@$$QAU?$pair@HH@1@@Z$2
	DD	0ffffffffH
	DD	FLAT:__unwindfunclet$??$_Emplace@U?$pair@HH@std@@@?$_Tree@V?$_Tmap_traits@KKU?$less@K@std@@V?$allocator@U?$pair@$$CBKK@std@@@2@$0A@@std@@@std@@IAE?AU?$pair@PAU?$_Tree_node@U?$pair@$$CBKK@std@@PAX@std@@_N@1@$$QAU?$pair@HH@1@@Z$0
xdata$x	ENDS
;	COMDAT xdata$x
xdata$x	SEGMENT
__ehfuncinfo$??$construct@USGuildBoardCommentData@CPythonGuild@@ABU12@@?$_Default_allocator_traits@V?$allocator@USGuildBoardCommentData@CPythonGuild@@@std@@@std@@SAXAAV?$allocator@USGuildBoardCommentData@CPythonGuild@@@1@QAUSGuildBoardCommentData@CPythonGuild@@ABU34@@Z DD 019930522H
	DD	02H
	DD	FLAT:__unwindtable$??$construct@USGuildBoardCommentData@CPythonGuild@@ABU12@@?$_Default_allocator_traits@V?$allocator@USGuildBoardCommentData@CPythonGuild@@@std@@@std@@SAXAAV?$allocator@USGuildBoardCommentData@CPythonGuild@@@1@QAUSGuildBoardCommentData@CPythonGuild@@ABU34@@Z
	DD	2 DUP(00H)
	DD	2 DUP(00H)
	DD	00H
	DD	01H
__unwindtable$??$construct@USGuildBoardCommentData@CPythonGuild@@ABU12@@?$_Default_allocator_traits@V?$allocator@USGuildBoardCommentData@CPythonGuild@@@std@@@std@@SAXAAV?$allocator@USGuildBoardCommentData@CPythonGuild@@@1@QAUSGuildBoardCommentData@CPythonGuild@@ABU34@@Z DD 0ffffffffH
	DD	00H
	DD	0ffffffffH
	DD	FLAT:__unwindfunclet$??$construct@USGuildBoardCommentData@CPythonGuild@@ABU12@@?$_Default_allocator_traits@V?$allocator@USGuildBoardCommentData@CPythonGuild@@@std@@@std@@SAXAAV?$allocator@USGuildBoardCommentData@CPythonGuild@@@1@QAUSGuildBoardCommentData@CPythonGuild@@ABU34@@Z$2
xdata$x	ENDS
;	COMDAT xdata$x
xdata$x	SEGMENT
__ehfuncinfo$??0SGuildBoardCommentData@CPythonGuild@@QAE@ABU01@@Z DD 019930522H
	DD	01H
	DD	FLAT:__unwindtable$??0SGuildBoardCommentData@CPythonGuild@@QAE@ABU01@@Z
	DD	2 DUP(00H)
	DD	2 DUP(00H)
	DD	00H
	DD	01H
__unwindtable$??0SGuildBoardCommentData@CPythonGuild@@QAE@ABU01@@Z DD 0ffffffffH
	DD	FLAT:__unwindfunclet$??0SGuildBoardCommentData@CPythonGuild@@QAE@ABU01@@Z$0
xdata$x	ENDS
;	COMDAT xdata$x
xdata$x	SEGMENT
__ehfuncinfo$??$?0U?$pair@KV?$basic_string@DU?$char_traits@D@std@@V?$allocator@D@2@@std@@@std@@@?$_Tree_temp_node@V?$allocator@U?$_Tree_node@U?$pair@$$CBKV?$basic_string@DU?$char_traits@D@std@@V?$allocator@D@2@@std@@@std@@PAX@std@@@std@@@std@@QAE@AAV?$allocator@U?$_Tree_node@U?$pair@$$CBKV?$basic_string@DU?$char_traits@D@std@@V?$allocator@D@2@@std@@@std@@PAX@std@@@1@PAU?$_Tree_node@U?$pair@$$CBKV?$basic_string@DU?$char_traits@D@std@@V?$allocator@D@2@@std@@@std@@PAX@1@$$QAU?$pair@KV?$basic_string@DU?$char_traits@D@std@@V?$allocator@D@2@@std@@@1@@Z DD 019930522H
	DD	01H
	DD	FLAT:__unwindtable$??$?0U?$pair@KV?$basic_string@DU?$char_traits@D@std@@V?$allocator@D@2@@std@@@std@@@?$_Tree_temp_node@V?$allocator@U?$_Tree_node@U?$pair@$$CBKV?$basic_string@DU?$char_traits@D@std@@V?$allocator@D@2@@std@@@std@@PAX@std@@@std@@@std@@QAE@AAV?$allocator@U?$_Tree_node@U?$pair@$$CBKV?$basic_string@DU?$char_traits@D@std@@V?$allocator@D@2@@std@@@std@@PAX@std@@@1@PAU?$_Tree_node@U?$pair@$$CBKV?$basic_string@DU?$char_traits@D@std@@V?$allocator@D@2@@std@@@std@@PAX@1@$$QAU?$pair@KV?$basic_string@DU?$char_traits@D@std@@V?$allocator@D@2@@std@@@1@@Z
	DD	2 DUP(00H)
	DD	2 DUP(00H)
	DD	00H
	DD	01H
__unwindtable$??$?0U?$pair@KV?$basic_string@DU?$char_traits@D@std@@V?$allocator@D@2@@std@@@std@@@?$_Tree_temp_node@V?$allocator@U?$_Tree_node@U?$pair@$$CBKV?$basic_string@DU?$char_traits@D@std@@V?$allocator@D@2@@std@@@std@@PAX@std@@@std@@@std@@QAE@AAV?$allocator@U?$_Tree_node@U?$pair@$$CBKV?$basic_string@DU?$char_traits@D@std@@V?$allocator@D@2@@std@@@std@@PAX@std@@@1@PAU?$_Tree_node@U?$pair@$$CBKV?$basic_string@DU?$char_traits@D@std@@V?$allocator@D@2@@std@@@std@@PAX@1@$$QAU?$pair@KV?$basic_string@DU?$char_traits@D@std@@V?$allocator@D@2@@std@@@1@@Z DD 0ffffffffH
	DD	FLAT:__unwindfunclet$??$?0U?$pair@KV?$basic_string@DU?$char_traits@D@std@@V?$allocator@D@2@@std@@@std@@@?$_Tree_temp_node@V?$allocator@U?$_Tree_node@U?$pair@$$CBKV?$basic_string@DU?$char_traits@D@std@@V?$allocator@D@2@@std@@@std@@PAX@std@@@std@@@std@@QAE@AAV?$allocator@U?$_Tree_node@U?$pair@$$CBKV?$basic_string@DU?$char_traits@D@std@@V?$allocator@D@2@@std@@@std@@PAX@std@@@1@PAU?$_Tree_node@U?$pair@$$CBKV?$basic_string@DU?$char_traits@D@std@@V?$allocator@D@2@@std@@@std@@PAX@1@$$QAU?$pair@KV?$basic_string@DU?$char_traits@D@std@@V?$allocator@D@2@@std@@@1@@Z$1
xdata$x	ENDS
;	COMDAT xdata$x
xdata$x	SEGMENT
__ehfuncinfo$??$?0U?$pair@HH@std@@@?$_Tree_temp_node@V?$allocator@U?$_Tree_node@U?$pair@$$CBKK@std@@PAX@std@@@std@@@std@@QAE@AAV?$allocator@U?$_Tree_node@U?$pair@$$CBKK@std@@PAX@std@@@1@PAU?$_Tree_node@U?$pair@$$CBKK@std@@PAX@1@$$QAU?$pair@HH@1@@Z DD 019930522H
	DD	01H
	DD	FLAT:__unwindtable$??$?0U?$pair@HH@std@@@?$_Tree_temp_node@V?$allocator@U?$_Tree_node@U?$pair@$$CBKK@std@@PAX@std@@@std@@@std@@QAE@AAV?$allocator@U?$_Tree_node@U?$pair@$$CBKK@std@@PAX@std@@@1@PAU?$_Tree_node@U?$pair@$$CBKK@std@@PAX@1@$$QAU?$pair@HH@1@@Z
	DD	2 DUP(00H)
	DD	2 DUP(00H)
	DD	00H
	DD	01H
__unwindtable$??$?0U?$pair@HH@std@@@?$_Tree_temp_node@V?$allocator@U?$_Tree_node@U?$pair@$$CBKK@std@@PAX@std@@@std@@@std@@QAE@AAV?$allocator@U?$_Tree_node@U?$pair@$$CBKK@std@@PAX@std@@@1@PAU?$_Tree_node@U?$pair@$$CBKK@std@@PAX@1@$$QAU?$pair@HH@1@@Z DD 0ffffffffH
	DD	FLAT:__unwindfunclet$??$?0U?$pair@HH@std@@@?$_Tree_temp_node@V?$allocator@U?$_Tree_node@U?$pair@$$CBKK@std@@PAX@std@@@std@@@std@@QAE@AAV?$allocator@U?$_Tree_node@U?$pair@$$CBKK@std@@PAX@std@@@1@PAU?$_Tree_node@U?$pair@$$CBKK@std@@PAX@1@$$QAU?$pair@HH@1@@Z$1
xdata$x	ENDS
;	COMDAT xdata$x
xdata$x	SEGMENT
__ehfuncinfo$??$construct_at@USGuildBoardCommentData@CPythonGuild@@ABU12@$0A@@std@@YAPAUSGuildBoardCommentData@CPythonGuild@@QAU12@ABU12@@Z DD 019930522H
	DD	01H
	DD	FLAT:__unwindtable$??$construct_at@USGuildBoardCommentData@CPythonGuild@@ABU12@$0A@@std@@YAPAUSGuildBoardCommentData@CPythonGuild@@QAU12@ABU12@@Z
	DD	2 DUP(00H)
	DD	2 DUP(00H)
	DD	00H
	DD	01H
__unwindtable$??$construct_at@USGuildBoardCommentData@CPythonGuild@@ABU12@$0A@@std@@YAPAUSGuildBoardCommentData@CPythonGuild@@QAU12@ABU12@@Z DD 0ffffffffH
	DD	FLAT:__unwindfunclet$??$construct_at@USGuildBoardCommentData@CPythonGuild@@ABU12@$0A@@std@@YAPAUSGuildBoardCommentData@CPythonGuild@@QAU12@ABU12@@Z$0
?g_GuildSkillSlotToIndexMap$initializer$@@3P6AXXZA DD FLAT:??__Eg_GuildSkillSlotToIndexMap@@YAXXZ ; g_GuildSkillSlotToIndexMap$initializer$
; Function compile flags: /Ogtp
; File E:\Metin2_server\SolWayneSF v6\ClientVS22\source\UserInterface\PythonGuild.cpp
; File C:\Program Files\Microsoft Visual Studio\2022\Community\VC\Tools\MSVC\14.34.31933\include\xtree
; File E:\Metin2_server\SolWayneSF v6\ClientVS22\source\UserInterface\PythonGuild.cpp
; File C:\Program Files\Microsoft Visual Studio\2022\Community\VC\Tools\MSVC\14.34.31933\include\xtree
; File C:\Program Files\Microsoft Visual Studio\2022\Community\VC\Tools\MSVC\14.34.31933\include\xmemory
; File E:\Metin2_server\SolWayneSF v6\ClientVS22\source\UserInterface\PythonGuild.cpp
; File C:\Program Files\Microsoft Visual Studio\2022\Community\VC\Tools\MSVC\14.34.31933\include\xtree
; File E:\Metin2_server\SolWayneSF v6\ClientVS22\source\UserInterface\PythonGuild.cpp
; File C:\Program Files\Microsoft Visual Studio\2022\Community\VC\Tools\MSVC\14.34.31933\include\xtree
; File C:\Program Files\Microsoft Visual Studio\2022\Community\VC\Tools\MSVC\14.34.31933\include\xmemory
; File E:\Metin2_server\SolWayneSF v6\ClientVS22\source\eterBase\Singleton.h
; File E:\Metin2_server\SolWayneSF v6\ClientVS22\source\UserInterface\PythonGuild.cpp
;	COMDAT ??1CPythonGuild@@UAE@XZ
_TEXT	SEGMENT
??1CPythonGuild@@UAE@XZ PROC				; CPythonGuild::~CPythonGuild, COMDAT
; _this$ = ecx

; 371  : {

  00000	56		 push	 esi
  00001	57		 push	 edi
  00002	8b f9		 mov	 edi, ecx

; 372  : }

  00004	8d 77 68	 lea	 esi, DWORD PTR [edi+104]
; File C:\Program Files\Microsoft Visual Studio\2022\Community\VC\Tools\MSVC\14.34.31933\include\xtree

; 754  :         _Erase_tree(_Al, _Myhead->_Parent);

  00007	8b ce		 mov	 ecx, esi
; File E:\Metin2_server\SolWayneSF v6\ClientVS22\source\UserInterface\PythonGuild.cpp

; 371  : {

  00009	c7 07 00 00 00
	00		 mov	 DWORD PTR [edi], OFFSET ??_7CPythonGuild@@6B@
; File C:\Program Files\Microsoft Visual Studio\2022\Community\VC\Tools\MSVC\14.34.31933\include\xtree

; 754  :         _Erase_tree(_Al, _Myhead->_Parent);

  0000f	8b 06		 mov	 eax, DWORD PTR [esi]
  00011	ff 70 04	 push	 DWORD PTR [eax+4]
  00014	56		 push	 esi
  00015	e8 00 00 00 00	 call	 ??$_Erase_tree@V?$allocator@U?$_Tree_node@U?$pair@$$CBKV?$basic_string@DU?$char_traits@D@std@@V?$allocator@D@2@@std@@@std@@PAX@std@@@std@@@?$_Tree_val@U?$_Tree_simple_types@U?$pair@$$CBKV?$basic_string@DU?$char_traits@D@std@@V?$allocator@D@2@@std@@@std@@@std@@@std@@QAEXAAV?$allocator@U?$_Tree_node@U?$pair@$$CBKV?$basic_string@DU?$char_traits@D@std@@V?$allocator@D@2@@std@@@std@@PAX@std@@@1@PAU?$_Tree_node@U?$pair@$$CBKV?$basic_string@DU?$char_traits@D@std@@V?$allocator@D@2@@std@@@std@@PAX@1@@Z ; std::_Tree_val<std::_Tree_simple_types<std::pair<unsigned long const ,std::basic_string<char,std::char_traits<char>,std::allocator<char> > > > >::_Erase_tree<std::allocator<std::_Tree_node<std::pair<unsigned long const ,std::basic_string<char,std::char_traits<char>,std::allocator<char> > >,void *> > >
; File C:\Program Files\Microsoft Visual Studio\2022\Community\VC\Tools\MSVC\14.34.31933\include\xmemory

; 255  :         ::operator delete(_Ptr, _Bytes);

  0001a	6a 2c		 push	 44			; 0000002cH
  0001c	ff 36		 push	 DWORD PTR [esi]
  0001e	e8 00 00 00 00	 call	 ??3@YAXPAXI@Z		; operator delete
  00023	83 c4 08	 add	 esp, 8
; File E:\Metin2_server\SolWayneSF v6\ClientVS22\source\UserInterface\PythonGuild.cpp

; 372  : }

  00026	8d 4f 48	 lea	 ecx, DWORD PTR [edi+72]
  00029	e8 00 00 00 00	 call	 ??1?$vector@USGuildBoardCommentData@CPythonGuild@@V?$allocator@USGuildBoardCommentData@CPythonGuild@@@std@@@std@@QAE@XZ ; std::vector<CPythonGuild::SGuildBoardCommentData,std::allocator<CPythonGuild::SGuildBoardCommentData> >::~vector<CPythonGuild::SGuildBoardCommentData,std::allocator<CPythonGuild::SGuildBoardCommentData> >
  0002e	8d 4f 3c	 lea	 ecx, DWORD PTR [edi+60]
  00031	e8 00 00 00 00	 call	 ??1?$vector@USGuildMemberData@CPythonGuild@@V?$allocator@USGuildMemberData@CPythonGuild@@@std@@@std@@QAE@XZ ; std::vector<CPythonGuild::SGuildMemberData,std::allocator<CPythonGuild::SGuildMemberData> >::~vector<CPythonGuild::SGuildMemberData,std::allocator<CPythonGuild::SGuildMemberData> >
; File C:\Program Files\Microsoft Visual Studio\2022\Community\VC\Tools\MSVC\14.34.31933\include\xtree

; 754  :         _Erase_tree(_Al, _Myhead->_Parent);

  00036	8b 47 34	 mov	 eax, DWORD PTR [edi+52]
; File E:\Metin2_server\SolWayneSF v6\ClientVS22\source\UserInterface\PythonGuild.cpp

; 372  : }

  00039	8d 77 34	 lea	 esi, DWORD PTR [edi+52]
; File C:\Program Files\Microsoft Visual Studio\2022\Community\VC\Tools\MSVC\14.34.31933\include\xtree

; 754  :         _Erase_tree(_Al, _Myhead->_Parent);

  0003c	8b ce		 mov	 ecx, esi
  0003e	ff 70 04	 push	 DWORD PTR [eax+4]
  00041	56		 push	 esi
  00042	e8 00 00 00 00	 call	 ??$_Erase_tree@V?$allocator@U?$_Tree_node@U?$pair@$$CBEUSGuildGradeData@CPythonGuild@@@std@@PAX@std@@@std@@@?$_Tree_val@U?$_Tree_simple_types@U?$pair@$$CBEUSGuildGradeData@CPythonGuild@@@std@@@std@@@std@@QAEXAAV?$allocator@U?$_Tree_node@U?$pair@$$CBEUSGuildGradeData@CPythonGuild@@@std@@PAX@std@@@1@PAU?$_Tree_node@U?$pair@$$CBEUSGuildGradeData@CPythonGuild@@@std@@PAX@1@@Z ; std::_Tree_val<std::_Tree_simple_types<std::pair<unsigned char const ,CPythonGuild::SGuildGradeData> > >::_Erase_tree<std::allocator<std::_Tree_node<std::pair<unsigned char const ,CPythonGuild::SGuildGradeData>,void *> > >
; File C:\Program Files\Microsoft Visual Studio\2022\Community\VC\Tools\MSVC\14.34.31933\include\xmemory

; 255  :         ::operator delete(_Ptr, _Bytes);

  00047	6a 30		 push	 48			; 00000030H
  00049	ff 36		 push	 DWORD PTR [esi]
  0004b	e8 00 00 00 00	 call	 ??3@YAXPAXI@Z		; operator delete
  00050	83 c4 08	 add	 esp, 8
; File E:\Metin2_server\SolWayneSF v6\ClientVS22\source\eterBase\Singleton.h

; 19   : 	{ 

  00053	c7 07 00 00 00
	00		 mov	 DWORD PTR [edi], OFFSET ??_7?$CSingleton@VCPythonGuild@@@@6B@

; 20   : 		assert(ms_singleton);
; 21   : 		ms_singleton = 0; 

  00059	c7 05 00 00 00
	00 00 00 00 00	 mov	 DWORD PTR ?ms_singleton@?$CSingleton@VCPythonGuild@@@@0PAVCPythonGuild@@A, 0 ; CSingleton<CPythonGuild>::ms_singleton
  00063	5f		 pop	 edi
  00064	5e		 pop	 esi
; File E:\Metin2_server\SolWayneSF v6\ClientVS22\source\UserInterface\PythonGuild.cpp

; 372  : }

  00065	c3		 ret	 0
??1CPythonGuild@@UAE@XZ ENDP				; CPythonGuild::~CPythonGuild
_TEXT	ENDS
; Function compile flags: /Ogtp
; File E:\Metin2_server\SolWayneSF v6\ClientVS22\source\UserInterface\PythonGuild.cpp
; File E:\Metin2_server\SolWayneSF v6\ClientVS22\source\eterBase\Singleton.h
; File E:\Metin2_server\SolWayneSF v6\ClientVS22\source\UserInterface\PythonGuild.cpp
; File C:\Program Files\Microsoft Visual Studio\2022\Community\VC\Tools\MSVC\14.34.31933\include\xmemory
; File E:\Metin2_server\SolWayneSF v6\ClientVS22\source\UserInterface\PythonGuild.cpp
; File C:\Program Files\Microsoft Visual Studio\2022\Community\VC\Tools\MSVC\14.34.31933\include\xtree
; File C:\Program Files\Microsoft Visual Studio\2022\Community\VC\Tools\MSVC\14.34.31933\include\xmemory
; File C:\Program Files\Microsoft Visual Studio\2022\Community\VC\Tools\MSVC\14.34.31933\include\xtree
; File C:\Program Files\Microsoft Visual Studio\2022\Community\VC\Tools\MSVC\14.34.31933\include\vector
; File E:\Metin2_server\SolWayneSF v6\ClientVS22\source\UserInterface\PythonGuild.cpp
; File C:\Program Files\Microsoft Visual Studio\2022\Community\VC\Tools\MSVC\14.34.31933\include\xmemory
; File E:\Metin2_server\SolWayneSF v6\ClientVS22\source\UserInterface\PythonGuild.cpp
; File C:\Program Files\Microsoft Visual Studio\2022\Community\VC\Tools\MSVC\14.34.31933\include\xtree
; File C:\Program Files\Microsoft Visual Studio\2022\Community\VC\Tools\MSVC\14.34.31933\include\xmemory
; File E:\Metin2_server\SolWayneSF v6\ClientVS22\source\UserInterface\PythonGuild.cpp
; File C:\Program Files\Microsoft Visual Studio\2022\Community\VC\Tools\MSVC\14.34.31933\include\xtree
; File E:\Metin2_server\SolWayneSF v6\ClientVS22\source\UserInterface\PythonGuild.cpp
;	COMDAT ??0CPythonGuild@@QAE@XZ
_TEXT	SEGMENT
_this$ = -20						; size = 4
_this$ = -20						; size = 4
_this$ = -16						; size = 4
__$EHRec$ = -12						; size = 12
??0CPythonGuild@@QAE@XZ PROC				; CPythonGuild::CPythonGuild, COMDAT
; _this$ = ecx

; 367  : {

  00000	55		 push	 ebp
  00001	8b ec		 mov	 ebp, esp
  00003	6a ff		 push	 -1
  00005	68 00 00 00 00	 push	 __ehhandler$??0CPythonGuild@@QAE@XZ
  0000a	64 a1 00 00 00
	00		 mov	 eax, DWORD PTR fs:0
  00010	50		 push	 eax
  00011	83 ec 08	 sub	 esp, 8
  00014	56		 push	 esi
  00015	57		 push	 edi
  00016	a1 00 00 00 00	 mov	 eax, DWORD PTR ___security_cookie
  0001b	33 c5		 xor	 eax, ebp
  0001d	50		 push	 eax
  0001e	8d 45 f4	 lea	 eax, DWORD PTR __$EHRec$[ebp]
  00021	64 a3 00 00 00
	00		 mov	 DWORD PTR fs:0, eax
  00027	8b f9		 mov	 edi, ecx
  00029	89 7d f0	 mov	 DWORD PTR _this$[ebp], edi
; File E:\Metin2_server\SolWayneSF v6\ClientVS22\source\eterBase\Singleton.h

; 15   : 		ms_singleton = (T*) ((int) this + offset);

  0002c	89 3d 00 00 00
	00		 mov	 DWORD PTR ?ms_singleton@?$CSingleton@VCPythonGuild@@@@0PAVCPythonGuild@@A, edi ; CSingleton<CPythonGuild>::ms_singleton
; File E:\Metin2_server\SolWayneSF v6\ClientVS22\source\UserInterface\PythonGuild.cpp

; 367  : {

  00032	c7 45 fc 00 00
	00 00		 mov	 DWORD PTR __$EHRec$[ebp+8], 0
  00039	8d 77 34	 lea	 esi, DWORD PTR [edi+52]
  0003c	c7 07 00 00 00
	00		 mov	 DWORD PTR [edi], OFFSET ??_7CPythonGuild@@6B@
; File C:\Program Files\Microsoft Visual Studio\2022\Community\VC\Tools\MSVC\14.34.31933\include\xmemory

; 77   :         return ::operator new(_Bytes);

  00042	6a 30		 push	 48			; 00000030H
; File E:\Metin2_server\SolWayneSF v6\ClientVS22\source\UserInterface\PythonGuild.cpp

; 367  : {

  00044	89 75 ec	 mov	 DWORD PTR _this$[ebp], esi
; File C:\Program Files\Microsoft Visual Studio\2022\Community\VC\Tools\MSVC\14.34.31933\include\xtree

; 437  :     _Tree_val() noexcept : _Myhead(), _Mysize(0) {}

  00047	c7 06 00 00 00
	00		 mov	 DWORD PTR [esi], 0
  0004d	c7 46 04 00 00
	00 00		 mov	 DWORD PTR [esi+4], 0
; File C:\Program Files\Microsoft Visual Studio\2022\Community\VC\Tools\MSVC\14.34.31933\include\xmemory

; 77   :         return ::operator new(_Bytes);

  00054	e8 00 00 00 00	 call	 ??2@YAPAXI@Z		; operator new
; File C:\Program Files\Microsoft Visual Studio\2022\Community\VC\Tools\MSVC\14.34.31933\include\xtree

; 347  :         _Construct_in_place(_Pnode->_Left, _Pnode);

  00059	89 00		 mov	 DWORD PTR [eax], eax

; 348  :         _Construct_in_place(_Pnode->_Parent, _Pnode);

  0005b	89 40 04	 mov	 DWORD PTR [eax+4], eax

; 349  :         _Construct_in_place(_Pnode->_Right, _Pnode);

  0005e	89 40 08	 mov	 DWORD PTR [eax+8], eax

; 350  :         _Pnode->_Color = _Black;

  00061	66 c7 40 0c 01
	01		 mov	 WORD PTR [eax+12], 257	; 00000101H

; 1941 :         _Scary->_Myhead = _Node::_Buyheadnode(_Getal());

  00067	89 06		 mov	 DWORD PTR [esi], eax
; File C:\Program Files\Microsoft Visual Studio\2022\Community\VC\Tools\MSVC\14.34.31933\include\vector

; 390  :     _CONSTEXPR20 _Vector_val() noexcept : _Myfirst(), _Mylast(), _Myend() {}

  00069	c7 47 3c 00 00
	00 00		 mov	 DWORD PTR [edi+60], 0
  00070	c7 47 40 00 00
	00 00		 mov	 DWORD PTR [edi+64], 0
  00077	c7 47 44 00 00
	00 00		 mov	 DWORD PTR [edi+68], 0
  0007e	c7 47 48 00 00
	00 00		 mov	 DWORD PTR [edi+72], 0
  00085	c7 47 4c 00 00
	00 00		 mov	 DWORD PTR [edi+76], 0
  0008c	c7 47 50 00 00
	00 00		 mov	 DWORD PTR [edi+80], 0
; File E:\Metin2_server\SolWayneSF v6\ClientVS22\source\UserInterface\PythonGuild.cpp

; 367  : {

  00093	8d 77 68	 lea	 esi, DWORD PTR [edi+104]
  00096	c6 45 fc 03	 mov	 BYTE PTR __$EHRec$[ebp+8], 3
; File C:\Program Files\Microsoft Visual Studio\2022\Community\VC\Tools\MSVC\14.34.31933\include\xmemory

; 77   :         return ::operator new(_Bytes);

  0009a	6a 2c		 push	 44			; 0000002cH
; File E:\Metin2_server\SolWayneSF v6\ClientVS22\source\UserInterface\PythonGuild.cpp

; 367  : {

  0009c	89 75 ec	 mov	 DWORD PTR _this$[ebp], esi
; File C:\Program Files\Microsoft Visual Studio\2022\Community\VC\Tools\MSVC\14.34.31933\include\xtree

; 437  :     _Tree_val() noexcept : _Myhead(), _Mysize(0) {}

  0009f	c7 06 00 00 00
	00		 mov	 DWORD PTR [esi], 0
  000a5	c7 46 04 00 00
	00 00		 mov	 DWORD PTR [esi+4], 0
; File C:\Program Files\Microsoft Visual Studio\2022\Community\VC\Tools\MSVC\14.34.31933\include\xmemory

; 77   :         return ::operator new(_Bytes);

  000ac	e8 00 00 00 00	 call	 ??2@YAPAXI@Z		; operator new
  000b1	83 c4 08	 add	 esp, 8
; File E:\Metin2_server\SolWayneSF v6\ClientVS22\source\UserInterface\PythonGuild.cpp

; 368  : 	__Initialize();

  000b4	8b cf		 mov	 ecx, edi
; File C:\Program Files\Microsoft Visual Studio\2022\Community\VC\Tools\MSVC\14.34.31933\include\xtree

; 347  :         _Construct_in_place(_Pnode->_Left, _Pnode);

  000b6	89 00		 mov	 DWORD PTR [eax], eax

; 348  :         _Construct_in_place(_Pnode->_Parent, _Pnode);

  000b8	89 40 04	 mov	 DWORD PTR [eax+4], eax

; 349  :         _Construct_in_place(_Pnode->_Right, _Pnode);

  000bb	89 40 08	 mov	 DWORD PTR [eax+8], eax

; 350  :         _Pnode->_Color = _Black;

  000be	66 c7 40 0c 01
	01		 mov	 WORD PTR [eax+12], 257	; 00000101H

; 1941 :         _Scary->_Myhead = _Node::_Buyheadnode(_Getal());

  000c4	89 06		 mov	 DWORD PTR [esi], eax
; File E:\Metin2_server\SolWayneSF v6\ClientVS22\source\UserInterface\PythonGuild.cpp

; 368  : 	__Initialize();

  000c6	e8 00 00 00 00	 call	 ?__Initialize@CPythonGuild@@IAEXXZ ; CPythonGuild::__Initialize

; 369  : }

  000cb	8b c7		 mov	 eax, edi
  000cd	8b 4d f4	 mov	 ecx, DWORD PTR __$EHRec$[ebp]
  000d0	64 89 0d 00 00
	00 00		 mov	 DWORD PTR fs:0, ecx
  000d7	59		 pop	 ecx
  000d8	5f		 pop	 edi
  000d9	5e		 pop	 esi
  000da	8b e5		 mov	 esp, ebp
  000dc	5d		 pop	 ebp
  000dd	c3		 ret	 0
_TEXT	ENDS
;	COMDAT text$x
text$x	SEGMENT
__unwindfunclet$??0CPythonGuild@@QAE@XZ$0:
  00000	8b 4d f0	 mov	 ecx, DWORD PTR _this$[ebp]
  00003	e9 00 00 00 00	 jmp	 ??1?$CSingleton@VCPythonGuild@@@@UAE@XZ ; CSingleton<CPythonGuild>::~CSingleton<CPythonGuild>
__unwindfunclet$??0CPythonGuild@@QAE@XZ$1:
  00008	8b 4d f0	 mov	 ecx, DWORD PTR _this$[ebp]
  0000b	83 c1 34	 add	 ecx, 52			; 00000034H
  0000e	e9 00 00 00 00	 jmp	 ??1?$map@EUSGuildGradeData@CPythonGuild@@U?$less@E@std@@V?$allocator@U?$pair@$$CBEUSGuildGradeData@CPythonGuild@@@std@@@4@@std@@QAE@XZ
__unwindfunclet$??0CPythonGuild@@QAE@XZ$2:
  00013	8b 4d f0	 mov	 ecx, DWORD PTR _this$[ebp]
  00016	83 c1 3c	 add	 ecx, 60			; 0000003cH
  00019	e9 00 00 00 00	 jmp	 ??1?$vector@USGuildMemberData@CPythonGuild@@V?$allocator@USGuildMemberData@CPythonGuild@@@std@@@std@@QAE@XZ ; std::vector<CPythonGuild::SGuildMemberData,std::allocator<CPythonGuild::SGuildMemberData> >::~vector<CPythonGuild::SGuildMemberData,std::allocator<CPythonGuild::SGuildMemberData> >
__unwindfunclet$??0CPythonGuild@@QAE@XZ$3:
  0001e	8b 4d f0	 mov	 ecx, DWORD PTR _this$[ebp]
  00021	83 c1 48	 add	 ecx, 72			; 00000048H
  00024	e9 00 00 00 00	 jmp	 ??1?$vector@USGuildBoardCommentData@CPythonGuild@@V?$allocator@USGuildBoardCommentData@CPythonGuild@@@std@@@std@@QAE@XZ ; std::vector<CPythonGuild::SGuildBoardCommentData,std::allocator<CPythonGuild::SGuildBoardCommentData> >::~vector<CPythonGuild::SGuildBoardCommentData,std::allocator<CPythonGuild::SGuildBoardCommentData> >
  00029	cc		 int	 3
  0002a	cc		 int	 3
  0002b	cc		 int	 3
  0002c	cc		 int	 3
  0002d	cc		 int	 3
__ehhandler$??0CPythonGuild@@QAE@XZ:
  0002e	90		 npad	 1
  0002f	90		 npad	 1
  00030	8b 54 24 08	 mov	 edx, DWORD PTR [esp+8]
  00034	8d 42 0c	 lea	 eax, DWORD PTR [edx+12]
  00037	8b 4a ec	 mov	 ecx, DWORD PTR [edx-20]
  0003a	33 c8		 xor	 ecx, eax
  0003c	e8 00 00 00 00	 call	 @__security_check_cookie@4
  00041	b8 00 00 00 00	 mov	 eax, OFFSET __ehfuncinfo$??0CPythonGuild@@QAE@XZ
  00046	e9 00 00 00 00	 jmp	 ___CxxFrameHandler3
text$x	ENDS
??0CPythonGuild@@QAE@XZ ENDP				; CPythonGuild::CPythonGuild
; Function compile flags: /Ogtp
; File E:\Metin2_server\SolWayneSF v6\ClientVS22\source\UserInterface\PythonGuild.h
; File C:\Program Files\Microsoft Visual Studio\2022\Community\VC\Tools\MSVC\14.34.31933\include\xstring
; File E:\Metin2_server\SolWayneSF v6\ClientVS22\source\UserInterface\PythonGuild.h
;	COMDAT ??0SGuildGradeData@CPythonGuild@@QAE@XZ
_TEXT	SEGMENT
??0SGuildGradeData@CPythonGuild@@QAE@XZ PROC		; CPythonGuild::SGuildGradeData::SGuildGradeData, COMDAT
; _this$ = ecx

; 29   : 			SGuildGradeData(){}

  00000	0f 57 c0	 xorps	 xmm0, xmm0
  00003	8b c1		 mov	 eax, ecx
; File C:\Program Files\Microsoft Visual Studio\2022\Community\VC\Tools\MSVC\14.34.31933\include\xstring

; 2339 :         _CONSTEXPR20 _Bxty() noexcept : _Buf() {} // user-provided, for fancy pointers

  00005	0f 11 41 04	 movups	 XMMWORD PTR [ecx+4], xmm0

; 4995 :         _My_data._Mysize = 0;

  00009	c7 41 14 00 00
	00 00		 mov	 DWORD PTR [ecx+20], 0

; 4996 :         _My_data._Myres  = _BUF_SIZE - 1;

  00010	c7 41 18 0f 00
	00 00		 mov	 DWORD PTR [ecx+24], 15	; 0000000fH

; 4997 :         _My_data._Activate_SSO_buffer();
; 4998 : 
; 4999 :         // the _Traits::assign is last so the codegen doesn't think the char write can alias this
; 5000 :         _Traits::assign(_My_data._Bx._Buf[0], _Elem());

  00017	c6 41 04 00	 mov	 BYTE PTR [ecx+4], 0
; File E:\Metin2_server\SolWayneSF v6\ClientVS22\source\UserInterface\PythonGuild.h

; 29   : 			SGuildGradeData(){}

  0001b	c3		 ret	 0
??0SGuildGradeData@CPythonGuild@@QAE@XZ ENDP		; CPythonGuild::SGuildGradeData::SGuildGradeData
_TEXT	ENDS
; Function compile flags: /Ogtp
; File E:\Metin2_server\SolWayneSF v6\ClientVS22\source\UserInterface\PythonGuild.cpp
; File C:\Program Files\Microsoft Visual Studio\2022\Community\VC\Tools\MSVC\14.34.31933\include\xmemory
; File E:\Metin2_server\SolWayneSF v6\ClientVS22\source\UserInterface\PythonGuild.cpp
; File C:\Program Files\Microsoft Visual Studio\2022\Community\VC\Tools\MSVC\14.34.31933\include\xtree
; File E:\Metin2_server\SolWayneSF v6\ClientVS22\source\UserInterface\PythonGuild.cpp
;	COMDAT ??__Eg_GuildSkillSlotToIndexMap@@YAXXZ
text$di	SEGMENT
??__Eg_GuildSkillSlotToIndexMap@@YAXXZ PROC		; `dynamic initializer for 'g_GuildSkillSlotToIndexMap'', COMDAT
; File C:\Program Files\Microsoft Visual Studio\2022\Community\VC\Tools\MSVC\14.34.31933\include\xmemory

; 77   :         return ::operator new(_Bytes);

  00000	6a 18		 push	 24			; 00000018H
  00002	e8 00 00 00 00	 call	 ??2@YAPAXI@Z		; operator new
; File E:\Metin2_server\SolWayneSF v6\ClientVS22\source\UserInterface\PythonGuild.cpp

; 6    : std::map<DWORD, DWORD> g_GuildSkillSlotToIndexMap;

  00007	68 00 00 00 00	 push	 OFFSET ??__Fg_GuildSkillSlotToIndexMap@@YAXXZ ; `dynamic atexit destructor for 'g_GuildSkillSlotToIndexMap''
; File C:\Program Files\Microsoft Visual Studio\2022\Community\VC\Tools\MSVC\14.34.31933\include\xtree

; 347  :         _Construct_in_place(_Pnode->_Left, _Pnode);

  0000c	89 00		 mov	 DWORD PTR [eax], eax

; 348  :         _Construct_in_place(_Pnode->_Parent, _Pnode);

  0000e	89 40 04	 mov	 DWORD PTR [eax+4], eax

; 349  :         _Construct_in_place(_Pnode->_Right, _Pnode);

  00011	89 40 08	 mov	 DWORD PTR [eax+8], eax

; 350  :         _Pnode->_Color = _Black;

  00014	66 c7 40 0c 01
	01		 mov	 WORD PTR [eax+12], 257	; 00000101H

; 1941 :         _Scary->_Myhead = _Node::_Buyheadnode(_Getal());

  0001a	a3 00 00 00 00	 mov	 DWORD PTR ?g_GuildSkillSlotToIndexMap@@3V?$map@KKU?$less@K@std@@V?$allocator@U?$pair@$$CBKK@std@@@2@@std@@A, eax
; File E:\Metin2_server\SolWayneSF v6\ClientVS22\source\UserInterface\PythonGuild.cpp

; 6    : std::map<DWORD, DWORD> g_GuildSkillSlotToIndexMap;

  0001f	e8 00 00 00 00	 call	 _atexit
  00024	83 c4 08	 add	 esp, 8
  00027	c3		 ret	 0
??__Eg_GuildSkillSlotToIndexMap@@YAXXZ ENDP		; `dynamic initializer for 'g_GuildSkillSlotToIndexMap''
text$di	ENDS
; Function compile flags: /Ogtp
; File C:\Program Files\Microsoft Visual Studio\2022\Community\VC\Tools\MSVC\14.34.31933\include\xtree
; File C:\Program Files\Microsoft Visual Studio\2022\Community\VC\Tools\MSVC\14.34.31933\include\utility
; File C:\Program Files\Microsoft Visual Studio\2022\Community\VC\Tools\MSVC\14.34.31933\include\xmemory
; File C:\Program Files\Microsoft Visual Studio\2022\Community\VC\Tools\MSVC\14.34.31933\include\xtree
; File C:\Program Files\Microsoft Visual Studio\2022\Community\VC\Tools\MSVC\14.34.31933\include\xmemory
;	COMDAT ??__Fg_GuildSkillSlotToIndexMap@@YAXXZ
text$yd	SEGMENT
??__Fg_GuildSkillSlotToIndexMap@@YAXXZ PROC		; `dynamic atexit destructor for 'g_GuildSkillSlotToIndexMap'', COMDAT
; File C:\Program Files\Microsoft Visual Studio\2022\Community\VC\Tools\MSVC\14.34.31933\include\xtree

; 754  :         _Erase_tree(_Al, _Myhead->_Parent);

  00000	a1 00 00 00 00	 mov	 eax, DWORD PTR ?g_GuildSkillSlotToIndexMap@@3V?$map@KKU?$less@K@std@@V?$allocator@U?$pair@$$CBKK@std@@@2@@std@@A
  00005	56		 push	 esi
  00006	8b 70 04	 mov	 esi, DWORD PTR [eax+4]

; 745  :         while (!_Rootnode->_Isnil) { // free subtrees, then node

  00009	80 7e 0d 00	 cmp	 BYTE PTR [esi+13], 0
  0000d	75 2d		 jne	 SHORT $LN12@dynamic
  0000f	90		 npad	 1
$LL11@dynamic:

; 746  :             _Erase_tree(_Al, _Rootnode->_Right);

  00010	ff 76 08	 push	 DWORD PTR [esi+8]
  00013	b9 00 00 00 00	 mov	 ecx, OFFSET ?g_GuildSkillSlotToIndexMap@@3V?$map@KKU?$less@K@std@@V?$allocator@U?$pair@$$CBKK@std@@@2@@std@@A ; g_GuildSkillSlotToIndexMap
  00018	68 00 00 00 00	 push	 OFFSET ?g_GuildSkillSlotToIndexMap@@3V?$map@KKU?$less@K@std@@V?$allocator@U?$pair@$$CBKK@std@@@2@@std@@A ; g_GuildSkillSlotToIndexMap
  0001d	e8 00 00 00 00	 call	 ??$_Erase_tree@V?$allocator@U?$_Tree_node@U?$pair@$$CBKK@std@@PAX@std@@@std@@@?$_Tree_val@U?$_Tree_simple_types@U?$pair@$$CBKK@std@@@std@@@std@@QAEXAAV?$allocator@U?$_Tree_node@U?$pair@$$CBKK@std@@PAX@std@@@1@PAU?$_Tree_node@U?$pair@$$CBKK@std@@PAX@1@@Z ; std::_Tree_val<std::_Tree_simple_types<std::pair<unsigned long const ,unsigned long> > >::_Erase_tree<std::allocator<std::_Tree_node<std::pair<unsigned long const ,unsigned long>,void *> > >
; File C:\Program Files\Microsoft Visual Studio\2022\Community\VC\Tools\MSVC\14.34.31933\include\utility

; 653  :     _Ty _Old_val = static_cast<_Ty&&>(_Val);

  00022	8b c6		 mov	 eax, esi

; 654  :     _Val         = static_cast<_Other&&>(_New_val);

  00024	8b 36		 mov	 esi, DWORD PTR [esi]
; File C:\Program Files\Microsoft Visual Studio\2022\Community\VC\Tools\MSVC\14.34.31933\include\xmemory

; 255  :         ::operator delete(_Ptr, _Bytes);

  00026	6a 18		 push	 24			; 00000018H
  00028	50		 push	 eax
  00029	e8 00 00 00 00	 call	 ??3@YAXPAXI@Z		; operator delete
  0002e	83 c4 08	 add	 esp, 8
; File C:\Program Files\Microsoft Visual Studio\2022\Community\VC\Tools\MSVC\14.34.31933\include\xtree

; 745  :         while (!_Rootnode->_Isnil) { // free subtrees, then node

  00031	80 7e 0d 00	 cmp	 BYTE PTR [esi+13], 0
  00035	74 d9		 je	 SHORT $LL11@dynamic
  00037	a1 00 00 00 00	 mov	 eax, DWORD PTR ?g_GuildSkillSlotToIndexMap@@3V?$map@KKU?$less@K@std@@V?$allocator@U?$pair@$$CBKK@std@@@2@@std@@A
$LN12@dynamic:
; File C:\Program Files\Microsoft Visual Studio\2022\Community\VC\Tools\MSVC\14.34.31933\include\xmemory

; 255  :         ::operator delete(_Ptr, _Bytes);

  0003c	6a 18		 push	 24			; 00000018H
  0003e	50		 push	 eax
  0003f	e8 00 00 00 00	 call	 ??3@YAXPAXI@Z		; operator delete
  00044	83 c4 08	 add	 esp, 8
  00047	5e		 pop	 esi
  00048	c3		 ret	 0
??__Fg_GuildSkillSlotToIndexMap@@YAXXZ ENDP		; `dynamic atexit destructor for 'g_GuildSkillSlotToIndexMap''
text$yd	ENDS
; Function compile flags: /Ogtp
; File E:\Metin2_server\SolWayneSF v6\ClientVS22\source\UserInterface\PythonGuild.cpp
;	COMDAT ?EnableGuild@CPythonGuild@@QAEXXZ
_TEXT	SEGMENT
?EnableGuild@CPythonGuild@@QAEXXZ PROC			; CPythonGuild::EnableGuild, COMDAT
; _this$ = ecx

; 10   : 	m_bGuildEnable = TRUE;

  00000	c7 81 94 00 00
	00 01 00 00 00	 mov	 DWORD PTR [ecx+148], 1

; 11   : }

  0000a	c3		 ret	 0
?EnableGuild@CPythonGuild@@QAEXXZ ENDP			; CPythonGuild::EnableGuild
_TEXT	ENDS
; Function compile flags: /Ogtp
; File E:\Metin2_server\SolWayneSF v6\ClientVS22\source\UserInterface\PythonGuild.cpp
;	COMDAT ?SetGuildMoney@CPythonGuild@@QAEXK@Z
_TEXT	SEGMENT
_dwMoney$ = 8						; size = 4
?SetGuildMoney@CPythonGuild@@QAEXK@Z PROC		; CPythonGuild::SetGuildMoney, COMDAT
; _this$ = ecx

; 14   : {

  00000	55		 push	 ebp
  00001	8b ec		 mov	 ebp, esp

; 15   : 	m_GuildInfo.dwGuildMoney = dwMoney;

  00003	8b 45 08	 mov	 eax, DWORD PTR _dwMoney$[ebp]
  00006	89 41 2c	 mov	 DWORD PTR [ecx+44], eax

; 16   : }

  00009	5d		 pop	 ebp
  0000a	c2 04 00	 ret	 4
?SetGuildMoney@CPythonGuild@@QAEXK@Z ENDP		; CPythonGuild::SetGuildMoney
_TEXT	ENDS
; Function compile flags: /Ogtp
; File E:\Metin2_server\SolWayneSF v6\ClientVS22\source\UserInterface\PythonGuild.cpp
;	COMDAT ?SetGuildEXP@CPythonGuild@@QAEXEK@Z
_TEXT	SEGMENT
_byLevel$ = 8						; size = 1
_dwEXP$ = 12						; size = 4
?SetGuildEXP@CPythonGuild@@QAEXEK@Z PROC		; CPythonGuild::SetGuildEXP, COMDAT
; _this$ = ecx

; 19   : {

  00000	55		 push	 ebp
  00001	8b ec		 mov	 ebp, esp

; 20   : 	m_GuildInfo.dwGuildLevel = byLevel;

  00003	0f b6 45 08	 movzx	 eax, BYTE PTR _byLevel$[ebp]
  00007	89 41 1c	 mov	 DWORD PTR [ecx+28], eax

; 21   : 	m_GuildInfo.dwCurrentExperience = dwEXP;

  0000a	8b 45 0c	 mov	 eax, DWORD PTR _dwEXP$[ebp]
  0000d	89 41 20	 mov	 DWORD PTR [ecx+32], eax

; 22   : }

  00010	5d		 pop	 ebp
  00011	c2 08 00	 ret	 8
?SetGuildEXP@CPythonGuild@@QAEXEK@Z ENDP		; CPythonGuild::SetGuildEXP
_TEXT	ENDS
; Function compile flags: /Ogtp
; File E:\Metin2_server\SolWayneSF v6\ClientVS22\source\UserInterface\PythonGuild.cpp
; File C:\Program Files\Microsoft Visual Studio\2022\Community\VC\Tools\MSVC\14.34.31933\include\xstring
; File E:\Metin2_server\SolWayneSF v6\ClientVS22\source\UserInterface\PythonGuild.cpp
;	COMDAT ?SetGradeData@CPythonGuild@@QAEXEAAUSGuildGradeData@1@@Z
_TEXT	SEGMENT
_byGradeNumber$ = 8					; size = 1
_rGuildGradeData$ = 12					; size = 4
?SetGradeData@CPythonGuild@@QAEXEAAUSGuildGradeData@1@@Z PROC ; CPythonGuild::SetGradeData, COMDAT
; _this$ = ecx

; 25   : {

  00000	55		 push	 ebp
  00001	8b ec		 mov	 ebp, esp

; 26   : 	m_GradeDataMap[byGradeNumber] = rGuildGradeData;

  00003	8d 45 08	 lea	 eax, DWORD PTR _byGradeNumber$[ebp]
  00006	83 c1 34	 add	 ecx, 52			; 00000034H
  00009	50		 push	 eax
  0000a	e8 00 00 00 00	 call	 ??A?$map@EUSGuildGradeData@CPythonGuild@@U?$less@E@std@@V?$allocator@U?$pair@$$CBEUSGuildGradeData@CPythonGuild@@@std@@@4@@std@@QAEAAUSGuildGradeData@CPythonGuild@@ABE@Z ; std::map<unsigned char,CPythonGuild::SGuildGradeData,std::less<unsigned char>,std::allocator<std::pair<unsigned char const ,CPythonGuild::SGuildGradeData> > >::operator[]
  0000f	8b 55 0c	 mov	 edx, DWORD PTR _rGuildGradeData$[ebp]
  00012	8a 0a		 mov	 cl, BYTE PTR [edx]
  00014	83 c2 04	 add	 edx, 4
  00017	88 08		 mov	 BYTE PTR [eax], cl
  00019	8d 48 04	 lea	 ecx, DWORD PTR [eax+4]
; File C:\Program Files\Microsoft Visual Studio\2022\Community\VC\Tools\MSVC\14.34.31933\include\xstring

; 3303 :         if (this == _STD addressof(_Right)) {

  0001c	3b ca		 cmp	 ecx, edx
  0001e	74 12		 je	 SHORT $LN144@SetGradeDa

; 2301 :         return _BUF_SIZE <= _Myres;

  00020	83 7a 14 10	 cmp	 DWORD PTR [edx+20], 16	; 00000010H

; 3343 :         assign(_Right._Mypair._Myval2._Myptr(), _Right._Mypair._Myval2._Mysize);

  00024	8b 42 10	 mov	 eax, DWORD PTR [edx+16]

; 2293 :         if (_Large_string_engaged()) {

  00027	72 02		 jb	 SHORT $LN148@SetGradeDa

; 2294 :             _Result = _Unfancy(_Bx._Ptr);

  00029	8b 12		 mov	 edx, DWORD PTR [edx]
$LN148@SetGradeDa:

; 3343 :         assign(_Right._Mypair._Myval2._Myptr(), _Right._Mypair._Myval2._Mysize);

  0002b	50		 push	 eax
  0002c	52		 push	 edx
  0002d	e8 00 00 00 00	 call	 ?assign@?$basic_string@DU?$char_traits@D@std@@V?$allocator@D@2@@std@@QAEAAV12@QBDI@Z ; std::basic_string<char,std::char_traits<char>,std::allocator<char> >::assign
$LN144@SetGradeDa:
; File E:\Metin2_server\SolWayneSF v6\ClientVS22\source\UserInterface\PythonGuild.cpp

; 27   : }

  00032	5d		 pop	 ebp
  00033	c2 08 00	 ret	 8
?SetGradeData@CPythonGuild@@QAEXEAAUSGuildGradeData@1@@Z ENDP ; CPythonGuild::SetGradeData
_TEXT	ENDS
; Function compile flags: /Ogtp
; File C:\Program Files\Microsoft Visual Studio\2022\Community\VC\Tools\MSVC\14.34.31933\include\xstring
;	COMDAT ??4SGuildGradeData@CPythonGuild@@QAEAAU01@ABU01@@Z
_TEXT	SEGMENT
___that$ = 8						; size = 4
??4SGuildGradeData@CPythonGuild@@QAEAAU01@ABU01@@Z PROC	; CPythonGuild::SGuildGradeData::operator=, COMDAT
; _this$ = ecx
  00000	55		 push	 ebp
  00001	8b ec		 mov	 ebp, esp

; 3303 :         if (this == _STD addressof(_Right)) {

  00003	8b 55 08	 mov	 edx, DWORD PTR ___that$[ebp]
  00006	56		 push	 esi
  00007	8b f1		 mov	 esi, ecx
  00009	8a 02		 mov	 al, BYTE PTR [edx]
  0000b	83 c2 04	 add	 edx, 4
  0000e	8d 4e 04	 lea	 ecx, DWORD PTR [esi+4]
  00011	88 06		 mov	 BYTE PTR [esi], al
  00013	3b ca		 cmp	 ecx, edx
  00015	74 12		 je	 SHORT $LN11@operator

; 2301 :         return _BUF_SIZE <= _Myres;

  00017	83 7a 14 10	 cmp	 DWORD PTR [edx+20], 16	; 00000010H

; 3343 :         assign(_Right._Mypair._Myval2._Myptr(), _Right._Mypair._Myval2._Mysize);

  0001b	8b 42 10	 mov	 eax, DWORD PTR [edx+16]

; 2293 :         if (_Large_string_engaged()) {

  0001e	72 02		 jb	 SHORT $LN7@operator

; 2294 :             _Result = _Unfancy(_Bx._Ptr);

  00020	8b 12		 mov	 edx, DWORD PTR [edx]
$LN7@operator:

; 3343 :         assign(_Right._Mypair._Myval2._Myptr(), _Right._Mypair._Myval2._Mysize);

  00022	50		 push	 eax
  00023	52		 push	 edx
  00024	e8 00 00 00 00	 call	 ?assign@?$basic_string@DU?$char_traits@D@std@@V?$allocator@D@2@@std@@QAEAAV12@QBDI@Z ; std::basic_string<char,std::char_traits<char>,std::allocator<char> >::assign
$LN11@operator:
  00029	8b c6		 mov	 eax, esi
  0002b	5e		 pop	 esi
  0002c	5d		 pop	 ebp
  0002d	c2 04 00	 ret	 4
??4SGuildGradeData@CPythonGuild@@QAEAAU01@ABU01@@Z ENDP	; CPythonGuild::SGuildGradeData::operator=
_TEXT	ENDS
; Function compile flags: /Ogtp
; File E:\Metin2_server\SolWayneSF v6\ClientVS22\source\UserInterface\PythonGuild.cpp
; File C:\Program Files\Microsoft Visual Studio\2022\Community\VC\Tools\MSVC\14.34.31933\include\xtree
; File C:\Program Files\Microsoft Visual Studio\2022\Community\VC\Tools\MSVC\14.34.31933\include\xstddef
; File C:\Program Files\Microsoft Visual Studio\2022\Community\VC\Tools\MSVC\14.34.31933\include\xtree
; File C:\Program Files\Microsoft Visual Studio\2022\Community\VC\Tools\MSVC\14.34.31933\include\xstring
; File E:\Metin2_server\SolWayneSF v6\ClientVS22\source\UserInterface\PythonGuild.cpp
; File C:\Program Files\Microsoft Visual Studio\2022\Community\VC\Tools\MSVC\14.34.31933\include\xstring
; File E:\Metin2_server\SolWayneSF v6\ClientVS22\source\UserInterface\PythonGuild.cpp
;	COMDAT ?SetGradeName@CPythonGuild@@QAEXEPBD@Z
_TEXT	SEGMENT
__Loc$1 = -12						; size = 12
_byGradeNumber$ = 8					; size = 1
_c_szName$ = 12						; size = 4
?SetGradeName@CPythonGuild@@QAEXEPBD@Z PROC		; CPythonGuild::SetGradeName, COMDAT
; _this$ = ecx

; 30   : {

  00000	55		 push	 ebp
  00001	8b ec		 mov	 ebp, esp
  00003	83 ec 0c	 sub	 esp, 12			; 0000000cH
  00006	53		 push	 ebx

; 31   : 	if (!__IsGradeData(byGradeNumber))

  00007	8b 5d 08	 mov	 ebx, DWORD PTR _byGradeNumber$[ebp]
  0000a	56		 push	 esi
  0000b	53		 push	 ebx
  0000c	8b f1		 mov	 esi, ecx
  0000e	e8 00 00 00 00	 call	 ?__IsGradeData@CPythonGuild@@IAEHE@Z ; CPythonGuild::__IsGradeData
  00013	85 c0		 test	 eax, eax
  00015	74 3e		 je	 SHORT $LN1@SetGradeNa
; File C:\Program Files\Microsoft Visual Studio\2022\Community\VC\Tools\MSVC\14.34.31933\include\xtree

; 1367 :         const _Tree_find_result<_Nodeptr> _Loc = _Find_lower_bound(_Keyval);

  00017	8d 45 08	 lea	 eax, DWORD PTR _byGradeNumber$[ebp]
  0001a	50		 push	 eax
  0001b	8d 45 f4	 lea	 eax, DWORD PTR __Loc$1[ebp]
  0001e	50		 push	 eax
  0001f	8d 4e 34	 lea	 ecx, DWORD PTR [esi+52]
  00022	e8 00 00 00 00	 call	 ??$_Find_lower_bound@E@?$_Tree@V?$_Tmap_traits@EUSGuildGradeData@CPythonGuild@@U?$less@E@std@@V?$allocator@U?$pair@$$CBEUSGuildGradeData@CPythonGuild@@@std@@@4@$0A@@std@@@std@@IBE?AU?$_Tree_find_result@PAU?$_Tree_node@U?$pair@$$CBEUSGuildGradeData@CPythonGuild@@@std@@PAX@std@@@1@ABE@Z ; std::_Tree<std::_Tmap_traits<unsigned char,CPythonGuild::SGuildGradeData,std::less<unsigned char>,std::allocator<std::pair<unsigned char const ,CPythonGuild::SGuildGradeData> >,0> >::_Find_lower_bound<unsigned char>

; 1605 :         return !_Bound->_Isnil && !_DEBUG_LT_PRED(_Getcomp(), _Keyval, _Traits::_Kfn(_Bound->_Myval));

  00027	8b 55 fc	 mov	 edx, DWORD PTR __Loc$1[ebp+8]
  0002a	80 7a 0d 00	 cmp	 BYTE PTR [edx+13], 0
  0002e	75 05		 jne	 SHORT $LN7@SetGradeNa
; File C:\Program Files\Microsoft Visual Studio\2022\Community\VC\Tools\MSVC\14.34.31933\include\xstddef

; 143  :         return _Left < _Right;

  00030	3a 5a 10	 cmp	 bl, BYTE PTR [edx+16]
; File C:\Program Files\Microsoft Visual Studio\2022\Community\VC\Tools\MSVC\14.34.31933\include\xtree

; 1605 :         return !_Bound->_Isnil && !_DEBUG_LT_PRED(_Getcomp(), _Keyval, _Traits::_Kfn(_Bound->_Myval));

  00033	73 03		 jae	 SHORT $LN6@SetGradeNa
$LN7@SetGradeNa:

; 1372 :         return _Get_scary()->_Myhead;

  00035	8b 56 34	 mov	 edx, DWORD PTR [esi+52]
$LN6@SetGradeNa:
; File C:\Program Files\Microsoft Visual Studio\2022\Community\VC\Tools\MSVC\14.34.31933\include\xstring

; 415  :             return __builtin_strlen(_First);

  00038	8b 75 0c	 mov	 esi, DWORD PTR _c_szName$[ebp]
  0003b	8b ce		 mov	 ecx, esi
  0003d	57		 push	 edi
  0003e	8d 79 01	 lea	 edi, DWORD PTR [ecx+1]
$LL34@SetGradeNa:
  00041	8a 01		 mov	 al, BYTE PTR [ecx]
  00043	41		 inc	 ecx
  00044	84 c0		 test	 al, al
  00046	75 f9		 jne	 SHORT $LL34@SetGradeNa
  00048	2b cf		 sub	 ecx, edi

; 3546 :         return assign(_Ptr, _Convert_size<size_type>(_Traits::length(_Ptr)));

  0004a	51		 push	 ecx
  0004b	56		 push	 esi
; File E:\Metin2_server\SolWayneSF v6\ClientVS22\source\UserInterface\PythonGuild.cpp

; 35   : 	rGradeData.strName = c_szName;

  0004c	8d 4a 18	 lea	 ecx, DWORD PTR [edx+24]
; File C:\Program Files\Microsoft Visual Studio\2022\Community\VC\Tools\MSVC\14.34.31933\include\xstring

; 3546 :         return assign(_Ptr, _Convert_size<size_type>(_Traits::length(_Ptr)));

  0004f	e8 00 00 00 00	 call	 ?assign@?$basic_string@DU?$char_traits@D@std@@V?$allocator@D@2@@std@@QAEAAV12@QBDI@Z ; std::basic_string<char,std::char_traits<char>,std::allocator<char> >::assign
  00054	5f		 pop	 edi
$LN1@SetGradeNa:
  00055	5e		 pop	 esi
; File E:\Metin2_server\SolWayneSF v6\ClientVS22\source\UserInterface\PythonGuild.cpp

; 36   : }

  00056	5b		 pop	 ebx
  00057	8b e5		 mov	 esp, ebp
  00059	5d		 pop	 ebp
  0005a	c2 08 00	 ret	 8
?SetGradeName@CPythonGuild@@QAEXEPBD@Z ENDP		; CPythonGuild::SetGradeName
_TEXT	ENDS
; Function compile flags: /Ogtp
; File E:\Metin2_server\SolWayneSF v6\ClientVS22\source\UserInterface\PythonGuild.cpp
; File C:\Program Files\Microsoft Visual Studio\2022\Community\VC\Tools\MSVC\14.34.31933\include\xtree
; File C:\Program Files\Microsoft Visual Studio\2022\Community\VC\Tools\MSVC\14.34.31933\include\xstddef
; File C:\Program Files\Microsoft Visual Studio\2022\Community\VC\Tools\MSVC\14.34.31933\include\xtree
; File E:\Metin2_server\SolWayneSF v6\ClientVS22\source\UserInterface\PythonGuild.cpp
;	COMDAT ?SetGradeAuthority@CPythonGuild@@QAEXEE@Z
_TEXT	SEGMENT
__Loc$1 = -12						; size = 12
_byGradeNumber$ = 8					; size = 1
_byAuthority$ = 12					; size = 1
?SetGradeAuthority@CPythonGuild@@QAEXEE@Z PROC		; CPythonGuild::SetGradeAuthority, COMDAT
; _this$ = ecx

; 39   : {

  00000	55		 push	 ebp
  00001	8b ec		 mov	 ebp, esp
  00003	83 ec 0c	 sub	 esp, 12			; 0000000cH
  00006	53		 push	 ebx

; 40   : 	if (!__IsGradeData(byGradeNumber))

  00007	8b 5d 08	 mov	 ebx, DWORD PTR _byGradeNumber$[ebp]
  0000a	56		 push	 esi
  0000b	53		 push	 ebx
  0000c	8b f1		 mov	 esi, ecx
  0000e	e8 00 00 00 00	 call	 ?__IsGradeData@CPythonGuild@@IAEHE@Z ; CPythonGuild::__IsGradeData
  00013	85 c0		 test	 eax, eax
  00015	74 27		 je	 SHORT $LN1@SetGradeAu
; File C:\Program Files\Microsoft Visual Studio\2022\Community\VC\Tools\MSVC\14.34.31933\include\xtree

; 1367 :         const _Tree_find_result<_Nodeptr> _Loc = _Find_lower_bound(_Keyval);

  00017	8d 45 08	 lea	 eax, DWORD PTR _byGradeNumber$[ebp]
  0001a	50		 push	 eax
  0001b	8d 45 f4	 lea	 eax, DWORD PTR __Loc$1[ebp]
  0001e	50		 push	 eax
  0001f	8d 4e 34	 lea	 ecx, DWORD PTR [esi+52]
  00022	e8 00 00 00 00	 call	 ??$_Find_lower_bound@E@?$_Tree@V?$_Tmap_traits@EUSGuildGradeData@CPythonGuild@@U?$less@E@std@@V?$allocator@U?$pair@$$CBEUSGuildGradeData@CPythonGuild@@@std@@@4@$0A@@std@@@std@@IBE?AU?$_Tree_find_result@PAU?$_Tree_node@U?$pair@$$CBEUSGuildGradeData@CPythonGuild@@@std@@PAX@std@@@1@ABE@Z ; std::_Tree<std::_Tmap_traits<unsigned char,CPythonGuild::SGuildGradeData,std::less<unsigned char>,std::allocator<std::pair<unsigned char const ,CPythonGuild::SGuildGradeData> >,0> >::_Find_lower_bound<unsigned char>

; 1605 :         return !_Bound->_Isnil && !_DEBUG_LT_PRED(_Getcomp(), _Keyval, _Traits::_Kfn(_Bound->_Myval));

  00027	8b 4d fc	 mov	 ecx, DWORD PTR __Loc$1[ebp+8]
  0002a	80 79 0d 00	 cmp	 BYTE PTR [ecx+13], 0
  0002e	75 05		 jne	 SHORT $LN7@SetGradeAu
; File C:\Program Files\Microsoft Visual Studio\2022\Community\VC\Tools\MSVC\14.34.31933\include\xstddef

; 143  :         return _Left < _Right;

  00030	3a 59 10	 cmp	 bl, BYTE PTR [ecx+16]
; File C:\Program Files\Microsoft Visual Studio\2022\Community\VC\Tools\MSVC\14.34.31933\include\xtree

; 1605 :         return !_Bound->_Isnil && !_DEBUG_LT_PRED(_Getcomp(), _Keyval, _Traits::_Kfn(_Bound->_Myval));

  00033	73 03		 jae	 SHORT $LN6@SetGradeAu
$LN7@SetGradeAu:

; 1372 :         return _Get_scary()->_Myhead;

  00035	8b 4e 34	 mov	 ecx, DWORD PTR [esi+52]
$LN6@SetGradeAu:
; File E:\Metin2_server\SolWayneSF v6\ClientVS22\source\UserInterface\PythonGuild.cpp

; 44   : 	rGradeData.byAuthorityFlag = byAuthority;

  00038	8a 45 0c	 mov	 al, BYTE PTR _byAuthority$[ebp]
  0003b	88 41 14	 mov	 BYTE PTR [ecx+20], al
$LN1@SetGradeAu:

; 45   : }

  0003e	5e		 pop	 esi
  0003f	5b		 pop	 ebx
  00040	8b e5		 mov	 esp, ebp
  00042	5d		 pop	 ebp
  00043	c2 08 00	 ret	 8
?SetGradeAuthority@CPythonGuild@@QAEXEE@Z ENDP		; CPythonGuild::SetGradeAuthority
_TEXT	ENDS
; Function compile flags: /Ogtp
; File E:\Metin2_server\SolWayneSF v6\ClientVS22\source\UserInterface\PythonGuild.cpp
; File C:\Program Files\Microsoft Visual Studio\2022\Community\VC\Tools\MSVC\14.34.31933\include\vector
; File C:\Program Files\Microsoft Visual Studio\2022\Community\VC\Tools\MSVC\14.34.31933\include\xmemory
; File C:\Program Files\Microsoft Visual Studio\2022\Community\VC\Tools\MSVC\14.34.31933\include\vector
; File E:\Metin2_server\SolWayneSF v6\ClientVS22\source\UserInterface\PythonGuild.cpp
;	COMDAT ?ClearComment@CPythonGuild@@QAEXXZ
_TEXT	SEGMENT
?ClearComment@CPythonGuild@@QAEXXZ PROC			; CPythonGuild::ClearComment, COMDAT
; _this$ = ecx

; 48   : {

  00000	53		 push	 ebx
  00001	8b d9		 mov	 ebx, ecx
  00003	56		 push	 esi
  00004	57		 push	 edi
; File C:\Program Files\Microsoft Visual Studio\2022\Community\VC\Tools\MSVC\14.34.31933\include\vector

; 1829 :         if (_Myfirst == _Mylast) { // already empty, nothing to do

  00005	8b 73 48	 mov	 esi, DWORD PTR [ebx+72]
  00008	8b 7b 4c	 mov	 edi, DWORD PTR [ebx+76]
  0000b	3b f7		 cmp	 esi, edi
  0000d	74 15		 je	 SHORT $LN3@ClearComme
  0000f	90		 npad	 1
$LL9@ClearComme:
  00010	8b ce		 mov	 ecx, esi
  00012	e8 00 00 00 00	 call	 ??1SGuildBoardCommentData@CPythonGuild@@QAE@XZ
; File C:\Program Files\Microsoft Visual Studio\2022\Community\VC\Tools\MSVC\14.34.31933\include\xmemory

; 947  :         for (; _First != _Last; ++_First) {

  00017	83 c6 34	 add	 esi, 52			; 00000034H
  0001a	3b f7		 cmp	 esi, edi
  0001c	75 f2		 jne	 SHORT $LL9@ClearComme
; File C:\Program Files\Microsoft Visual Studio\2022\Community\VC\Tools\MSVC\14.34.31933\include\vector

; 1839 :         _Mylast = _Myfirst;

  0001e	8b 43 48	 mov	 eax, DWORD PTR [ebx+72]
  00021	89 43 4c	 mov	 DWORD PTR [ebx+76], eax
$LN3@ClearComme:
  00024	5f		 pop	 edi
; File E:\Metin2_server\SolWayneSF v6\ClientVS22\source\UserInterface\PythonGuild.cpp

; 50   : }

  00025	5e		 pop	 esi
  00026	5b		 pop	 ebx
  00027	c3		 ret	 0
?ClearComment@CPythonGuild@@QAEXXZ ENDP			; CPythonGuild::ClearComment
_TEXT	ENDS
; Function compile flags: /Ogtp
; File E:\Metin2_server\SolWayneSF v6\ClientVS22\source\UserInterface\PythonGuild.cpp
; File C:\Program Files\Microsoft Visual Studio\2022\Community\VC\Tools\MSVC\14.34.31933\include\xstring
; File E:\Metin2_server\SolWayneSF v6\ClientVS22\source\UserInterface\PythonGuild.cpp
; File C:\Program Files\Microsoft Visual Studio\2022\Community\VC\Tools\MSVC\14.34.31933\include\xstring
; File E:\Metin2_server\SolWayneSF v6\ClientVS22\source\UserInterface\PythonGuild.cpp
; File C:\Program Files\Microsoft Visual Studio\2022\Community\VC\Tools\MSVC\14.34.31933\include\xstring
; File C:\Program Files\Microsoft Visual Studio\2022\Community\VC\Tools\MSVC\14.34.31933\include\vector
; File E:\Metin2_server\SolWayneSF v6\ClientVS22\source\UserInterface\PythonGuild.cpp
; File C:\Program Files\Microsoft Visual Studio\2022\Community\VC\Tools\MSVC\14.34.31933\include\vector
; File C:\Program Files\Microsoft Visual Studio\2022\Community\VC\Tools\MSVC\14.34.31933\include\xmemory
; File C:\Program Files\Microsoft Visual Studio\2022\Community\VC\Tools\MSVC\14.34.31933\include\vector
; File E:\Metin2_server\SolWayneSF v6\ClientVS22\source\UserInterface\PythonGuild.cpp
;	COMDAT ?RegisterComment@CPythonGuild@@QAEXKPBD0@Z
_TEXT	SEGMENT
$T2 = -80						; size = 4
tv66 = -80						; size = 4
_c_szComment$GSCopy$1$ = -76				; size = 4
_c_szName$GSCopy$1$ = -72				; size = 4
_CommentData$ = -68					; size = 52
__$ArrayPad$ = -16					; size = 4
__$EHRec$ = -12						; size = 12
_dwCommentID$ = 8					; size = 4
_c_szName$ = 12						; size = 4
_c_szComment$ = 16					; size = 4
?RegisterComment@CPythonGuild@@QAEXKPBD0@Z PROC		; CPythonGuild::RegisterComment, COMDAT
; _this$ = ecx

; 53   : {

  00000	55		 push	 ebp
  00001	8b ec		 mov	 ebp, esp
  00003	6a ff		 push	 -1
  00005	68 00 00 00 00	 push	 __ehhandler$?RegisterComment@CPythonGuild@@QAEXKPBD0@Z
  0000a	64 a1 00 00 00
	00		 mov	 eax, DWORD PTR fs:0
  00010	50		 push	 eax
  00011	83 ec 44	 sub	 esp, 68			; 00000044H
  00014	a1 00 00 00 00	 mov	 eax, DWORD PTR ___security_cookie
  00019	33 c5		 xor	 eax, ebp
  0001b	89 45 f0	 mov	 DWORD PTR __$ArrayPad$[ebp], eax
  0001e	56		 push	 esi
  0001f	57		 push	 edi
  00020	50		 push	 eax
  00021	8d 45 f4	 lea	 eax, DWORD PTR __$EHRec$[ebp]
  00024	64 a3 00 00 00
	00		 mov	 DWORD PTR fs:0, eax
  0002a	8b f9		 mov	 edi, ecx
  0002c	8b 45 10	 mov	 eax, DWORD PTR _c_szComment$[ebp]

; 54   : 	if (0 == strlen(c_szComment))

  0002f	8b d0		 mov	 edx, eax
  00031	8b 4d 0c	 mov	 ecx, DWORD PTR _c_szName$[ebp]
  00034	89 4d b8	 mov	 DWORD PTR _c_szName$GSCopy$1$[ebp], ecx
  00037	89 45 b4	 mov	 DWORD PTR _c_szComment$GSCopy$1$[ebp], eax
  0003a	8d 72 01	 lea	 esi, DWORD PTR [edx+1]
  0003d	0f 1f 00	 npad	 3
$LL67@RegisterCo:
  00040	8a 02		 mov	 al, BYTE PTR [edx]
  00042	42		 inc	 edx
  00043	84 c0		 test	 al, al
  00045	75 f9		 jne	 SHORT $LL67@RegisterCo
  00047	2b d6		 sub	 edx, esi
  00049	0f 84 bb 00 00
	00		 je	 $LN1@RegisterCo
  0004f	0f 57 c0	 xorps	 xmm0, xmm0
; File C:\Program Files\Microsoft Visual Studio\2022\Community\VC\Tools\MSVC\14.34.31933\include\xstring

; 4995 :         _My_data._Mysize = 0;

  00052	c7 45 d0 00 00
	00 00		 mov	 DWORD PTR _CommentData$[ebp+20], 0

; 2339 :         _CONSTEXPR20 _Bxty() noexcept : _Buf() {} // user-provided, for fancy pointers

  00059	0f 11 45 c0	 movups	 XMMWORD PTR _CommentData$[ebp+4], xmm0

; 4996 :         _My_data._Myres  = _BUF_SIZE - 1;

  0005d	c7 45 d4 0f 00
	00 00		 mov	 DWORD PTR _CommentData$[ebp+24], 15 ; 0000000fH

; 2339 :         _CONSTEXPR20 _Bxty() noexcept : _Buf() {} // user-provided, for fancy pointers

  00064	0f 11 45 d8	 movups	 XMMWORD PTR _CommentData$[ebp+28], xmm0

; 5000 :         _Traits::assign(_My_data._Bx._Buf[0], _Elem());

  00068	88 45 c0	 mov	 BYTE PTR _CommentData$[ebp+4], al

; 4995 :         _My_data._Mysize = 0;

  0006b	c7 45 e8 00 00
	00 00		 mov	 DWORD PTR _CommentData$[ebp+44], 0

; 4996 :         _My_data._Myres  = _BUF_SIZE - 1;

  00072	c7 45 ec 0f 00
	00 00		 mov	 DWORD PTR _CommentData$[ebp+48], 15 ; 0000000fH

; 4997 :         _My_data._Activate_SSO_buffer();
; 4998 : 
; 4999 :         // the _Traits::assign is last so the codegen doesn't think the char write can alias this
; 5000 :         _Traits::assign(_My_data._Bx._Buf[0], _Elem());

  00079	88 45 d8	 mov	 BYTE PTR _CommentData$[ebp+28], al
; File E:\Metin2_server\SolWayneSF v6\ClientVS22\source\UserInterface\PythonGuild.cpp

; 58   : 	CommentData.dwCommentID = dwCommentID;

  0007c	8b 45 08	 mov	 eax, DWORD PTR _dwCommentID$[ebp]
; File C:\Program Files\Microsoft Visual Studio\2022\Community\VC\Tools\MSVC\14.34.31933\include\xstring

; 415  :             return __builtin_strlen(_First);

  0007f	8d 51 01	 lea	 edx, DWORD PTR [ecx+1]
; File E:\Metin2_server\SolWayneSF v6\ClientVS22\source\UserInterface\PythonGuild.cpp

; 57   : 	TGuildBoardCommentData CommentData;

  00082	c7 45 fc 00 00
	00 00		 mov	 DWORD PTR __$EHRec$[ebp+8], 0

; 58   : 	CommentData.dwCommentID = dwCommentID;

  00089	89 45 bc	 mov	 DWORD PTR _CommentData$[ebp], eax
  0008c	0f 1f 40 00	 npad	 4
$LL68@RegisterCo:
; File C:\Program Files\Microsoft Visual Studio\2022\Community\VC\Tools\MSVC\14.34.31933\include\xstring

; 415  :             return __builtin_strlen(_First);

  00090	8a 01		 mov	 al, BYTE PTR [ecx]
  00092	41		 inc	 ecx
  00093	84 c0		 test	 al, al
  00095	75 f9		 jne	 SHORT $LL68@RegisterCo
  00097	2b ca		 sub	 ecx, edx

; 3546 :         return assign(_Ptr, _Convert_size<size_type>(_Traits::length(_Ptr)));

  00099	51		 push	 ecx
  0009a	ff 75 b8	 push	 DWORD PTR _c_szName$GSCopy$1$[ebp]
  0009d	8d 4d c0	 lea	 ecx, DWORD PTR _CommentData$[ebp+4]
  000a0	e8 00 00 00 00	 call	 ?assign@?$basic_string@DU?$char_traits@D@std@@V?$allocator@D@2@@std@@QAEAAV12@QBDI@Z ; std::basic_string<char,std::char_traits<char>,std::allocator<char> >::assign

; 415  :             return __builtin_strlen(_First);

  000a5	8b 75 b4	 mov	 esi, DWORD PTR _c_szComment$GSCopy$1$[ebp]
  000a8	8b ce		 mov	 ecx, esi
  000aa	8d 51 01	 lea	 edx, DWORD PTR [ecx+1]
  000ad	0f 1f 00	 npad	 3
$LL69@RegisterCo:
  000b0	8a 01		 mov	 al, BYTE PTR [ecx]
  000b2	41		 inc	 ecx
  000b3	84 c0		 test	 al, al
  000b5	75 f9		 jne	 SHORT $LL69@RegisterCo
  000b7	2b ca		 sub	 ecx, edx

; 3546 :         return assign(_Ptr, _Convert_size<size_type>(_Traits::length(_Ptr)));

  000b9	51		 push	 ecx
  000ba	56		 push	 esi
  000bb	8d 4d d8	 lea	 ecx, DWORD PTR _CommentData$[ebp+28]
  000be	e8 00 00 00 00	 call	 ?assign@?$basic_string@DU?$char_traits@D@std@@V?$allocator@D@2@@std@@QAEAAV12@QBDI@Z ; std::basic_string<char,std::char_traits<char>,std::allocator<char> >::assign
; File C:\Program Files\Microsoft Visual Studio\2022\Community\VC\Tools\MSVC\14.34.31933\include\vector

; 844  :         if (_Mylast != _My_data._Myend) {

  000c3	8b 77 4c	 mov	 esi, DWORD PTR [edi+76]
; File E:\Metin2_server\SolWayneSF v6\ClientVS22\source\UserInterface\PythonGuild.cpp

; 62   : 	m_GuildBoardCommentVector.push_back(CommentData);

  000c6	8d 4f 48	 lea	 ecx, DWORD PTR [edi+72]
; File C:\Program Files\Microsoft Visual Studio\2022\Community\VC\Tools\MSVC\14.34.31933\include\vector

; 844  :         if (_Mylast != _My_data._Myend) {

  000c9	3b 77 50	 cmp	 esi, DWORD PTR [edi+80]
  000cc	74 2a		 je	 SHORT $LN49@RegisterCo
  000ce	8b 45 bc	 mov	 eax, DWORD PTR _CommentData$[ebp]
  000d1	8d 4e 04	 lea	 ecx, DWORD PTR [esi+4]
  000d4	89 06		 mov	 DWORD PTR [esi], eax
  000d6	8d 45 c0	 lea	 eax, DWORD PTR _CommentData$[ebp+4]
  000d9	50		 push	 eax
; File C:\Program Files\Microsoft Visual Studio\2022\Community\VC\Tools\MSVC\14.34.31933\include\xmemory

; 680  :             ::new (_Voidify_iter(_Ptr)) _Objty(_STD forward<_Types>(_Args)...);

  000da	89 75 b0	 mov	 DWORD PTR $T2[ebp], esi
  000dd	e8 00 00 00 00	 call	 ??0?$basic_string@DU?$char_traits@D@std@@V?$allocator@D@2@@std@@QAE@ABV01@@Z ; std::basic_string<char,std::char_traits<char>,std::allocator<char> >::basic_string<char,std::char_traits<char>,std::allocator<char> >
  000e2	8d 45 d8	 lea	 eax, DWORD PTR _CommentData$[ebp+28]
  000e5	c6 45 fc 02	 mov	 BYTE PTR __$EHRec$[ebp+8], 2
  000e9	50		 push	 eax
  000ea	8d 4e 1c	 lea	 ecx, DWORD PTR [esi+28]
  000ed	e8 00 00 00 00	 call	 ??0?$basic_string@DU?$char_traits@D@std@@V?$allocator@D@2@@std@@QAE@ABV01@@Z ; std::basic_string<char,std::char_traits<char>,std::allocator<char> >::basic_string<char,std::char_traits<char>,std::allocator<char> >
; File C:\Program Files\Microsoft Visual Studio\2022\Community\VC\Tools\MSVC\14.34.31933\include\vector

; 869  :         ++_Mylast;

  000f2	83 47 4c 34	 add	 DWORD PTR [edi+76], 52	; 00000034H

; 845  :             return _Emplace_back_with_unused_capacity(_STD forward<_Valty>(_Val)...);

  000f6	eb 0a		 jmp	 SHORT $LN48@RegisterCo
$LN49@RegisterCo:

; 846  :         }
; 847  : 
; 848  :         return *_Emplace_reallocate(_Mylast, _STD forward<_Valty>(_Val)...);

  000f8	8d 45 bc	 lea	 eax, DWORD PTR _CommentData$[ebp]
  000fb	50		 push	 eax
  000fc	56		 push	 esi
  000fd	e8 00 00 00 00	 call	 ??$_Emplace_reallocate@ABUSGuildBoardCommentData@CPythonGuild@@@?$vector@USGuildBoardCommentData@CPythonGuild@@V?$allocator@USGuildBoardCommentData@CPythonGuild@@@std@@@std@@AAEPAUSGuildBoardCommentData@CPythonGuild@@QAU23@ABU23@@Z ; std::vector<CPythonGuild::SGuildBoardCommentData,std::allocator<CPythonGuild::SGuildBoardCommentData> >::_Emplace_reallocate<CPythonGuild::SGuildBoardCommentData const &>
$LN48@RegisterCo:
; File E:\Metin2_server\SolWayneSF v6\ClientVS22\source\UserInterface\PythonGuild.cpp

; 63   : }

  00102	8d 4d bc	 lea	 ecx, DWORD PTR _CommentData$[ebp]
  00105	e8 00 00 00 00	 call	 ??1SGuildBoardCommentData@CPythonGuild@@QAE@XZ
$LN1@RegisterCo:
  0010a	8b 4d f4	 mov	 ecx, DWORD PTR __$EHRec$[ebp]
  0010d	64 89 0d 00 00
	00 00		 mov	 DWORD PTR fs:0, ecx
  00114	59		 pop	 ecx
  00115	5f		 pop	 edi
  00116	5e		 pop	 esi
  00117	8b 4d f0	 mov	 ecx, DWORD PTR __$ArrayPad$[ebp]
  0011a	33 cd		 xor	 ecx, ebp
  0011c	e8 00 00 00 00	 call	 @__security_check_cookie@4
  00121	8b e5		 mov	 esp, ebp
  00123	5d		 pop	 ebp
  00124	c2 0c 00	 ret	 12			; 0000000cH
_TEXT	ENDS
;	COMDAT text$x
text$x	SEGMENT
__unwindfunclet$?RegisterComment@CPythonGuild@@QAEXKPBD0@Z$0:
  00000	8d 4d bc	 lea	 ecx, DWORD PTR _CommentData$[ebp]
  00003	e9 00 00 00 00	 jmp	 ??1SGuildBoardCommentData@CPythonGuild@@QAE@XZ
__unwindfunclet$?RegisterComment@CPythonGuild@@QAEXKPBD0@Z$10:
  00008	8b 4d b0	 mov	 ecx, DWORD PTR $T2[ebp]
  0000b	83 c1 04	 add	 ecx, 4
  0000e	e9 00 00 00 00	 jmp	 ??1?$basic_string@DU?$char_traits@D@std@@V?$allocator@D@2@@std@@QAE@XZ ; std::basic_string<char,std::char_traits<char>,std::allocator<char> >::~basic_string<char,std::char_traits<char>,std::allocator<char> >
  00013	cc		 int	 3
  00014	cc		 int	 3
  00015	cc		 int	 3
  00016	cc		 int	 3
  00017	cc		 int	 3
__ehhandler$?RegisterComment@CPythonGuild@@QAEXKPBD0@Z:
  00018	90		 npad	 1
  00019	90		 npad	 1
  0001a	8b 54 24 08	 mov	 edx, DWORD PTR [esp+8]
  0001e	8d 42 0c	 lea	 eax, DWORD PTR [edx+12]
  00021	8b 4a b0	 mov	 ecx, DWORD PTR [edx-80]
  00024	33 c8		 xor	 ecx, eax
  00026	e8 00 00 00 00	 call	 @__security_check_cookie@4
  0002b	8b 4a fc	 mov	 ecx, DWORD PTR [edx-4]
  0002e	33 c8		 xor	 ecx, eax
  00030	e8 00 00 00 00	 call	 @__security_check_cookie@4
  00035	b8 00 00 00 00	 mov	 eax, OFFSET __ehfuncinfo$?RegisterComment@CPythonGuild@@QAEXKPBD0@Z
  0003a	e9 00 00 00 00	 jmp	 ___CxxFrameHandler3
text$x	ENDS
?RegisterComment@CPythonGuild@@QAEXKPBD0@Z ENDP		; CPythonGuild::RegisterComment
; Function compile flags: /Ogtp
; File C:\Program Files\Microsoft Visual Studio\2022\Community\VC\Tools\MSVC\14.34.31933\include\xstring
;	COMDAT ??0SGuildBoardCommentData@CPythonGuild@@QAE@XZ
_TEXT	SEGMENT
??0SGuildBoardCommentData@CPythonGuild@@QAE@XZ PROC	; CPythonGuild::SGuildBoardCommentData::SGuildBoardCommentData, COMDAT
; _this$ = ecx
  00000	0f 57 c0	 xorps	 xmm0, xmm0
  00003	8b c1		 mov	 eax, ecx

; 2339 :         _CONSTEXPR20 _Bxty() noexcept : _Buf() {} // user-provided, for fancy pointers

  00005	0f 11 41 04	 movups	 XMMWORD PTR [ecx+4], xmm0

; 4995 :         _My_data._Mysize = 0;

  00009	c7 41 14 00 00
	00 00		 mov	 DWORD PTR [ecx+20], 0

; 4996 :         _My_data._Myres  = _BUF_SIZE - 1;

  00010	c7 41 18 0f 00
	00 00		 mov	 DWORD PTR [ecx+24], 15	; 0000000fH

; 4997 :         _My_data._Activate_SSO_buffer();
; 4998 : 
; 4999 :         // the _Traits::assign is last so the codegen doesn't think the char write can alias this
; 5000 :         _Traits::assign(_My_data._Bx._Buf[0], _Elem());

  00017	c6 41 04 00	 mov	 BYTE PTR [ecx+4], 0

; 2339 :         _CONSTEXPR20 _Bxty() noexcept : _Buf() {} // user-provided, for fancy pointers

  0001b	0f 11 41 1c	 movups	 XMMWORD PTR [ecx+28], xmm0

; 4995 :         _My_data._Mysize = 0;

  0001f	c7 41 2c 00 00
	00 00		 mov	 DWORD PTR [ecx+44], 0

; 4996 :         _My_data._Myres  = _BUF_SIZE - 1;

  00026	c7 41 30 0f 00
	00 00		 mov	 DWORD PTR [ecx+48], 15	; 0000000fH

; 4997 :         _My_data._Activate_SSO_buffer();
; 4998 : 
; 4999 :         // the _Traits::assign is last so the codegen doesn't think the char write can alias this
; 5000 :         _Traits::assign(_My_data._Bx._Buf[0], _Elem());

  0002d	c6 41 1c 00	 mov	 BYTE PTR [ecx+28], 0
  00031	c3		 ret	 0
