; Listing generated by Microsoft (R) Optimizing Compiler Version 19.34.31937.0 

	TITLE	e:\metin2_server\solwaynesf v6\clientvs22\vs_files\userinterface\distribute\pythonnonplayermodule.obj
	.686P
	.XMM
	include listing.inc
	.model	flat

INCLUDELIB OLDNAMES

PUBLIC	??_C@_0BC@BCIFCAAC@GetEventTypeByVID@		; `string'
PUBLIC	??_C@_0N@HBLLMFED@GetEventType@			; `string'
PUBLIC	??_C@_0O@EGDCEMAL@GetGradeByVID@		; `string'
PUBLIC	??_C@_0O@DBPCDLCL@GetLevelByVID@		; `string'
PUBLIC	??_C@_0BA@MNILMPOO@GetRaceNumByVID@		; `string'
PUBLIC	??_C@_0P@OLKHIBCH@GetMonsterName@		; `string'
PUBLIC	??_C@_0BD@NEKNIEPD@GetMonsterRaceFlag@		; `string'
PUBLIC	??_C@_0BA@MOJMEPAO@GetMonsterMaxHP@		; `string'
PUBLIC	??_C@_0BB@DOHKGACK@GetMonsterDamage@		; `string'
PUBLIC	??_C@_0BA@FDPJOBBE@GetMonsterLevel@		; `string'
PUBLIC	??_C@_0BJ@ENENIC@GetMonsterDamageMultiply@	; `string'
PUBLIC	??_C@_0O@KPPFPOPA@GetMonsterExp@		; `string'
PUBLIC	??_C@_0N@DLKGIDAA@GetMonsterDX@			; `string'
PUBLIC	??_C@_0N@IOHKHJPJ@GetMonsterST@			; `string'
PUBLIC	??_C@_0BB@POBDFDBJ@GetMobRegenCycle@		; `string'
PUBLIC	??_C@_0P@EMGNNIFC@IsMonsterStone@		; `string'
PUBLIC	??_C@_0O@OJCBHFMK@GetMobGoldMin@		; `string'
PUBLIC	??_C@_0BD@HIOIILAA@GetMobRegenPercent@		; `string'
PUBLIC	??_C@_09FHDGPOML@GetResist@			; `string'
PUBLIC	??_C@_0O@PLKKJBKF@GetMobGoldMax@		; `string'
PUBLIC	??_C@_09OHMOODOI@nonplayer@			; `string'
PUBLIC	??_C@_0BC@GDKPGOBC@LoadNonPlayerData@		; `string'
PUBLIC	??_C@_0BG@EEKDAAJA@ON_CLICK_EVENT_BATTLE@	; `string'
PUBLIC	??_C@_0BE@FCOIJPJO@ON_CLICK_EVENT_NONE@		; `string'
PUBLIC	??_C@_0BE@FGAJOGO@ON_CLICK_EVENT_TALK@		; `string'
PUBLIC	??_C@_0BE@GBDIHIDH@ON_CLICK_EVENT_SHOP@		; `string'
PUBLIC	??_C@_04CFGPKCMP@PAWN@				; `string'
PUBLIC	??_C@_0BH@MKCNCKMM@ON_CLICK_EVENT_VEHICLE@	; `string'
PUBLIC	??_C@_06OCLDHEIK@KNIGHT@			; `string'
PUBLIC	??_C@_06JBMEMDKE@S_PAWN@			; `string'
PUBLIC	??_C@_04CHPFNFNO@BOSS@				; `string'
PUBLIC	??_C@_08FOAPCDID@S_KNIGHT@			; `string'
PUBLIC	??_C@_0BB@PPCGHBJB@MOB_RESIST_SWORD@		; `string'
PUBLIC	??_C@_04DFNOAPAF@KING@				; `string'
PUBLIC	??_C@_0BC@COPJHPOI@MOB_RESIST_DAGGER@		; `string'
PUBLIC	??_C@_0BD@LGACFJBE@MOB_RESIST_TWOHAND@		; `string'
PUBLIC	??_C@_0P@CBDKDIML@MOB_RESIST_FAN@		; `string'
PUBLIC	??_C@_0BA@CJDNMEPA@MOB_RESIST_BELL@		; `string'
PUBLIC	??_C@_0BA@FBBBOILL@MOB_RESIST_FIRE@		; `string'
PUBLIC	??_C@_0P@DPMGCLIO@MOB_RESIST_BOW@		; `string'
PUBLIC	??_C@_0BB@LDNMICOB@MOB_RESIST_MAGIC@		; `string'
PUBLIC	??_C@_0BB@FACANPG@MOB_RESIST_ELECT@		; `string'
PUBLIC	??_C@_0BC@MMJAAGH@MOB_RESIST_POISON@		; `string'
PUBLIC	??_C@_0BA@LGDNNM@MOB_RESIST_WIND@		; `string'
PUBLIC	??_C@_0BD@IEDJEENP@MOB_RESIST_MAX_NUM@		; `string'
;	COMDAT ?s_methods@?1??initNonPlayer@@YAXXZ@4PAUPyMethodDef@@A
_DATA	SEGMENT
?s_methods@?1??initNonPlayer@@YAXXZ@4PAUPyMethodDef@@A DD FLAT:??_C@_0N@HBLLMFED@GetEventType@ ; `initNonPlayer'::`2'::s_methods
	DD	FLAT:?nonplayerGetEventType@@YAPAU_object@@PAU1@0@Z
	DD	01H
	ORG $+4
	DD	FLAT:??_C@_0BC@BCIFCAAC@GetEventTypeByVID@
	DD	FLAT:?nonplayerGetEventTypeByVID@@YAPAU_object@@PAU1@0@Z
	DD	01H
	ORG $+4
	DD	FLAT:??_C@_0O@DBPCDLCL@GetLevelByVID@
	DD	FLAT:?nonplayerGetLevelByVID@@YAPAU_object@@PAU1@0@Z
	DD	01H
	ORG $+4
	DD	FLAT:??_C@_0O@EGDCEMAL@GetGradeByVID@
	DD	FLAT:?nonplayerGetGradeByVID@@YAPAU_object@@PAU1@0@Z
	DD	01H
	ORG $+4
	DD	FLAT:??_C@_0P@OLKHIBCH@GetMonsterName@
	DD	FLAT:?nonplayerGetMonsterName@@YAPAU_object@@PAU1@0@Z
	DD	01H
	ORG $+4
	DD	FLAT:??_C@_0BA@MNILMPOO@GetRaceNumByVID@
	DD	FLAT:?nonplayerGetRaceNumByVID@@YAPAU_object@@PAU1@0@Z
	DD	01H
	ORG $+4
	DD	FLAT:??_C@_0BA@MOJMEPAO@GetMonsterMaxHP@
	DD	FLAT:?nonplayerGetMonsterMaxHP@@YAPAU_object@@PAU1@0@Z
	DD	01H
	ORG $+4
	DD	FLAT:??_C@_0BD@NEKNIEPD@GetMonsterRaceFlag@
	DD	FLAT:?nonplayerGetMonsterRaceFlag@@YAPAU_object@@PAU1@0@Z
	DD	01H
	ORG $+4
	DD	FLAT:??_C@_0BA@FDPJOBBE@GetMonsterLevel@
	DD	FLAT:?nonplayerGetMonsterLevel@@YAPAU_object@@PAU1@0@Z
	DD	01H
	ORG $+4
	DD	FLAT:??_C@_0BB@DOHKGACK@GetMonsterDamage@
	DD	FLAT:?nonplayerGetMonsterDamage@@YAPAU_object@@PAU1@0@Z
	DD	01H
	ORG $+4
	DD	FLAT:??_C@_0O@KPPFPOPA@GetMonsterExp@
	DD	FLAT:?nonplayerGetMonsterExp@@YAPAU_object@@PAU1@0@Z
	DD	01H
	ORG $+4
	DD	FLAT:??_C@_0BJ@ENENIC@GetMonsterDamageMultiply@
	DD	FLAT:?nonplayerGetMonsterDamageMultiply@@YAPAU_object@@PAU1@0@Z
	DD	01H
	ORG $+4
	DD	FLAT:??_C@_0N@IOHKHJPJ@GetMonsterST@
	DD	FLAT:?nonplayerGetMonsterST@@YAPAU_object@@PAU1@0@Z
	DD	01H
	ORG $+4
	DD	FLAT:??_C@_0N@DLKGIDAA@GetMonsterDX@
	DD	FLAT:?nonplayerGetMonsterDX@@YAPAU_object@@PAU1@0@Z
	DD	01H
	ORG $+4
	DD	FLAT:??_C@_0P@EMGNNIFC@IsMonsterStone@
	DD	FLAT:?nonplayerIsMonsterStone@@YAPAU_object@@PAU1@0@Z
	DD	01H
	ORG $+4
	DD	FLAT:??_C@_0BB@POBDFDBJ@GetMobRegenCycle@
	DD	FLAT:?nonplayerGetMobRegenCycle@@YAPAU_object@@PAU1@0@Z
	DD	01H
	ORG $+4
	DD	FLAT:??_C@_0BD@HIOIILAA@GetMobRegenPercent@
	DD	FLAT:?nonplayerGetMobRegenPercent@@YAPAU_object@@PAU1@0@Z
	DD	01H
	ORG $+4
	DD	FLAT:??_C@_0O@OJCBHFMK@GetMobGoldMin@
	DD	FLAT:?nonplayerGetMobGoldMin@@YAPAU_object@@PAU1@0@Z
	DD	01H
	ORG $+4
	DD	FLAT:??_C@_0O@PLKKJBKF@GetMobGoldMax@
	DD	FLAT:?nonplayerGetMobGoldMax@@YAPAU_object@@PAU1@0@Z
	DD	01H
	ORG $+4
	DD	FLAT:??_C@_09FHDGPOML@GetResist@
	DD	FLAT:?nonplayerGetMobResist@@YAPAU_object@@PAU1@0@Z
	DD	01H
	ORG $+4
	DD	FLAT:??_C@_0BC@GDKPGOBC@LoadNonPlayerData@
	DD	FLAT:?nonplayerLoadNonPlayerData@@YAPAU_object@@PAU1@0@Z
	DD	01H
	ORG $+4
	DD	00H
	DD	00H
	DD	00H
	ORG $+4
_DATA	ENDS
;	COMDAT ??_C@_0BD@IEDJEENP@MOB_RESIST_MAX_NUM@
CONST	SEGMENT
??_C@_0BD@IEDJEENP@MOB_RESIST_MAX_NUM@ DB 'MOB_RESIST_MAX_NUM', 00H ; `string'
CONST	ENDS
;	COMDAT ??_C@_0BA@LGDNNM@MOB_RESIST_WIND@
CONST	SEGMENT
??_C@_0BA@LGDNNM@MOB_RESIST_WIND@ DB 'MOB_RESIST_WIND', 00H ; `string'
CONST	ENDS
;	COMDAT ??_C@_0BC@MMJAAGH@MOB_RESIST_POISON@
CONST	SEGMENT
??_C@_0BC@MMJAAGH@MOB_RESIST_POISON@ DB 'MOB_RESIST_POISON', 00H ; `string'
CONST	ENDS
;	COMDAT ??_C@_0BB@FACANPG@MOB_RESIST_ELECT@
CONST	SEGMENT
??_C@_0BB@FACANPG@MOB_RESIST_ELECT@ DB 'MOB_RESIST_ELECT', 00H ; `string'
CONST	ENDS
;	COMDAT ??_C@_0BB@LDNMICOB@MOB_RESIST_MAGIC@
CONST	SEGMENT
??_C@_0BB@LDNMICOB@MOB_RESIST_MAGIC@ DB 'MOB_RESIST_MAGIC', 00H ; `string'
CONST	ENDS
;	COMDAT ??_C@_0P@DPMGCLIO@MOB_RESIST_BOW@
CONST	SEGMENT
??_C@_0P@DPMGCLIO@MOB_RESIST_BOW@ DB 'MOB_RESIST_BOW', 00H ; `string'
CONST	ENDS
;	COMDAT ??_C@_0BA@FBBBOILL@MOB_RESIST_FIRE@
CONST	SEGMENT
??_C@_0BA@FBBBOILL@MOB_RESIST_FIRE@ DB 'MOB_RESIST_FIRE', 00H ; `string'
CONST	ENDS
;	COMDAT ??_C@_0BA@CJDNMEPA@MOB_RESIST_BELL@
CONST	SEGMENT
??_C@_0BA@CJDNMEPA@MOB_RESIST_BELL@ DB 'MOB_RESIST_BELL', 00H ; `string'
CONST	ENDS
;	COMDAT ??_C@_0P@CBDKDIML@MOB_RESIST_FAN@
CONST	SEGMENT
??_C@_0P@CBDKDIML@MOB_RESIST_FAN@ DB 'MOB_RESIST_FAN', 00H ; `string'
CONST	ENDS
;	COMDAT ??_C@_0BD@LGACFJBE@MOB_RESIST_TWOHAND@
CONST	SEGMENT
??_C@_0BD@LGACFJBE@MOB_RESIST_TWOHAND@ DB 'MOB_RESIST_TWOHAND', 00H ; `string'
CONST	ENDS
;	COMDAT ??_C@_0BC@COPJHPOI@MOB_RESIST_DAGGER@
CONST	SEGMENT
??_C@_0BC@COPJHPOI@MOB_RESIST_DAGGER@ DB 'MOB_RESIST_DAGGER', 00H ; `string'
CONST	ENDS
;	COMDAT ??_C@_04DFNOAPAF@KING@
CONST	SEGMENT
??_C@_04DFNOAPAF@KING@ DB 'KING', 00H			; `string'
CONST	ENDS
;	COMDAT ??_C@_0BB@PPCGHBJB@MOB_RESIST_SWORD@
CONST	SEGMENT
??_C@_0BB@PPCGHBJB@MOB_RESIST_SWORD@ DB 'MOB_RESIST_SWORD', 00H ; `string'
CONST	ENDS
;	COMDAT ??_C@_08FOAPCDID@S_KNIGHT@
CONST	SEGMENT
??_C@_08FOAPCDID@S_KNIGHT@ DB 'S_KNIGHT', 00H		; `string'
CONST	ENDS
;	COMDAT ??_C@_04CHPFNFNO@BOSS@
CONST	SEGMENT
??_C@_04CHPFNFNO@BOSS@ DB 'BOSS', 00H			; `string'
CONST	ENDS
;	COMDAT ??_C@_06JBMEMDKE@S_PAWN@
CONST	SEGMENT
??_C@_06JBMEMDKE@S_PAWN@ DB 'S_PAWN', 00H		; `string'
CONST	ENDS
;	COMDAT ??_C@_06OCLDHEIK@KNIGHT@
CONST	SEGMENT
??_C@_06OCLDHEIK@KNIGHT@ DB 'KNIGHT', 00H		; `string'
CONST	ENDS
;	COMDAT ??_C@_0BH@MKCNCKMM@ON_CLICK_EVENT_VEHICLE@
CONST	SEGMENT
??_C@_0BH@MKCNCKMM@ON_CLICK_EVENT_VEHICLE@ DB 'ON_CLICK_EVENT_VEHICLE', 00H ; `string'
CONST	ENDS
;	COMDAT ??_C@_04CFGPKCMP@PAWN@
CONST	SEGMENT
??_C@_04CFGPKCMP@PAWN@ DB 'PAWN', 00H			; `string'
CONST	ENDS
;	COMDAT ??_C@_0BE@GBDIHIDH@ON_CLICK_EVENT_SHOP@
CONST	SEGMENT
??_C@_0BE@GBDIHIDH@ON_CLICK_EVENT_SHOP@ DB 'ON_CLICK_EVENT_SHOP', 00H ; `string'
CONST	ENDS
;	COMDAT ??_C@_0BE@FGAJOGO@ON_CLICK_EVENT_TALK@
CONST	SEGMENT
??_C@_0BE@FGAJOGO@ON_CLICK_EVENT_TALK@ DB 'ON_CLICK_EVENT_TALK', 00H ; `string'
CONST	ENDS
;	COMDAT ??_C@_0BE@FCOIJPJO@ON_CLICK_EVENT_NONE@
CONST	SEGMENT
??_C@_0BE@FCOIJPJO@ON_CLICK_EVENT_NONE@ DB 'ON_CLICK_EVENT_NONE', 00H ; `string'
CONST	ENDS
;	COMDAT ??_C@_0BG@EEKDAAJA@ON_CLICK_EVENT_BATTLE@
CONST	SEGMENT
??_C@_0BG@EEKDAAJA@ON_CLICK_EVENT_BATTLE@ DB 'ON_CLICK_EVENT_BATTLE', 00H ; `string'
CONST	ENDS
;	COMDAT ??_C@_0BC@GDKPGOBC@LoadNonPlayerData@
CONST	SEGMENT
??_C@_0BC@GDKPGOBC@LoadNonPlayerData@ DB 'LoadNonPlayerData', 00H ; `string'
CONST	ENDS
;	COMDAT ??_C@_09OHMOODOI@nonplayer@
CONST	SEGMENT
??_C@_09OHMOODOI@nonplayer@ DB 'nonplayer', 00H		; `string'
CONST	ENDS
;	COMDAT ??_C@_0O@PLKKJBKF@GetMobGoldMax@
CONST	SEGMENT
??_C@_0O@PLKKJBKF@GetMobGoldMax@ DB 'GetMobGoldMax', 00H ; `string'
CONST	ENDS
;	COMDAT ??_C@_09FHDGPOML@GetResist@
CONST	SEGMENT
??_C@_09FHDGPOML@GetResist@ DB 'GetResist', 00H		; `string'
CONST	ENDS
;	COMDAT ??_C@_0BD@HIOIILAA@GetMobRegenPercent@
CONST	SEGMENT
??_C@_0BD@HIOIILAA@GetMobRegenPercent@ DB 'GetMobRegenPercent', 00H ; `string'
CONST	ENDS
;	COMDAT ??_C@_0O@OJCBHFMK@GetMobGoldMin@
CONST	SEGMENT
??_C@_0O@OJCBHFMK@GetMobGoldMin@ DB 'GetMobGoldMin', 00H ; `string'
CONST	ENDS
;	COMDAT ??_C@_0P@EMGNNIFC@IsMonsterStone@
CONST	SEGMENT
??_C@_0P@EMGNNIFC@IsMonsterStone@ DB 'IsMonsterStone', 00H ; `string'
CONST	ENDS
;	COMDAT ??_C@_0BB@POBDFDBJ@GetMobRegenCycle@
CONST	SEGMENT
??_C@_0BB@POBDFDBJ@GetMobRegenCycle@ DB 'GetMobRegenCycle', 00H ; `string'
CONST	ENDS
;	COMDAT ??_C@_0N@IOHKHJPJ@GetMonsterST@
CONST	SEGMENT
??_C@_0N@IOHKHJPJ@GetMonsterST@ DB 'GetMonsterST', 00H	; `string'
CONST	ENDS
;	COMDAT ??_C@_0N@DLKGIDAA@GetMonsterDX@
CONST	SEGMENT
??_C@_0N@DLKGIDAA@GetMonsterDX@ DB 'GetMonsterDX', 00H	; `string'
CONST	ENDS
;	COMDAT ??_C@_0O@KPPFPOPA@GetMonsterExp@
CONST	SEGMENT
??_C@_0O@KPPFPOPA@GetMonsterExp@ DB 'GetMonsterExp', 00H ; `string'
CONST	ENDS
;	COMDAT ??_C@_0BJ@ENENIC@GetMonsterDamageMultiply@
CONST	SEGMENT
??_C@_0BJ@ENENIC@GetMonsterDamageMultiply@ DB 'GetMonsterDamageMultiply', 00H ; `string'
CONST	ENDS
;	COMDAT ??_C@_0BA@FDPJOBBE@GetMonsterLevel@
CONST	SEGMENT
??_C@_0BA@FDPJOBBE@GetMonsterLevel@ DB 'GetMonsterLevel', 00H ; `string'
CONST	ENDS
;	COMDAT ??_C@_0BB@DOHKGACK@GetMonsterDamage@
CONST	SEGMENT
??_C@_0BB@DOHKGACK@GetMonsterDamage@ DB 'GetMonsterDamage', 00H ; `string'
CONST	ENDS
;	COMDAT ??_C@_0BA@MOJMEPAO@GetMonsterMaxHP@
CONST	SEGMENT
??_C@_0BA@MOJMEPAO@GetMonsterMaxHP@ DB 'GetMonsterMaxHP', 00H ; `string'
CONST	ENDS
;	COMDAT ??_C@_0BD@NEKNIEPD@GetMonsterRaceFlag@
CONST	SEGMENT
??_C@_0BD@NEKNIEPD@GetMonsterRaceFlag@ DB 'GetMonsterRaceFlag', 00H ; `string'
CONST	ENDS
;	COMDAT ??_C@_0P@OLKHIBCH@GetMonsterName@
CONST	SEGMENT
??_C@_0P@OLKHIBCH@GetMonsterName@ DB 'GetMonsterName', 00H ; `string'
CONST	ENDS
;	COMDAT ??_C@_0BA@MNILMPOO@GetRaceNumByVID@
CONST	SEGMENT
??_C@_0BA@MNILMPOO@GetRaceNumByVID@ DB 'GetRaceNumByVID', 00H ; `string'
CONST	ENDS
;	COMDAT ??_C@_0O@DBPCDLCL@GetLevelByVID@
CONST	SEGMENT
??_C@_0O@DBPCDLCL@GetLevelByVID@ DB 'GetLevelByVID', 00H ; `string'
CONST	ENDS
;	COMDAT ??_C@_0O@EGDCEMAL@GetGradeByVID@
CONST	SEGMENT
??_C@_0O@EGDCEMAL@GetGradeByVID@ DB 'GetGradeByVID', 00H ; `string'
CONST	ENDS
;	COMDAT ??_C@_0N@HBLLMFED@GetEventType@
CONST	SEGMENT
??_C@_0N@HBLLMFED@GetEventType@ DB 'GetEventType', 00H	; `string'
CONST	ENDS
;	COMDAT ??_C@_0BC@BCIFCAAC@GetEventTypeByVID@
CONST	SEGMENT
??_C@_0BC@BCIFCAAC@GetEventTypeByVID@ DB 'GetEventTypeByVID', 00H ; `string'
PUBLIC	?initNonPlayer@@YAXXZ				; initNonPlayer
PUBLIC	?nonplayerIsMonsterStone@@YAPAU_object@@PAU1@0@Z ; nonplayerIsMonsterStone
PUBLIC	?nonplayerGetMonsterDX@@YAPAU_object@@PAU1@0@Z	; nonplayerGetMonsterDX
PUBLIC	?nonplayerGetMonsterST@@YAPAU_object@@PAU1@0@Z	; nonplayerGetMonsterST
PUBLIC	?nonplayerGetMonsterDamageMultiply@@YAPAU_object@@PAU1@0@Z ; nonplayerGetMonsterDamageMultiply
PUBLIC	?nonplayerGetMonsterExp@@YAPAU_object@@PAU1@0@Z	; nonplayerGetMonsterExp
PUBLIC	?nonplayerGetMonsterDamage@@YAPAU_object@@PAU1@0@Z ; nonplayerGetMonsterDamage
PUBLIC	?nonplayerGetMonsterLevel@@YAPAU_object@@PAU1@0@Z ; nonplayerGetMonsterLevel
PUBLIC	?nonplayerGetMobResist@@YAPAU_object@@PAU1@0@Z	; nonplayerGetMobResist
PUBLIC	?nonplayerGetMobGoldMax@@YAPAU_object@@PAU1@0@Z	; nonplayerGetMobGoldMax
PUBLIC	?nonplayerGetMobGoldMin@@YAPAU_object@@PAU1@0@Z	; nonplayerGetMobGoldMin
PUBLIC	?nonplayerGetMobRegenPercent@@YAPAU_object@@PAU1@0@Z ; nonplayerGetMobRegenPercent
PUBLIC	?nonplayerGetMobRegenCycle@@YAPAU_object@@PAU1@0@Z ; nonplayerGetMobRegenCycle
PUBLIC	?nonplayerGetMonsterRaceFlag@@YAPAU_object@@PAU1@0@Z ; nonplayerGetMonsterRaceFlag
PUBLIC	?nonplayerGetRaceNumByVID@@YAPAU_object@@PAU1@0@Z ; nonplayerGetRaceNumByVID
PUBLIC	?nonplayerGetMonsterMaxHP@@YAPAU_object@@PAU1@0@Z ; nonplayerGetMonsterMaxHP
PUBLIC	?nonplayerLoadNonPlayerData@@YAPAU_object@@PAU1@0@Z ; nonplayerLoadNonPlayerData
PUBLIC	?nonplayerGetMonsterName@@YAPAU_object@@PAU1@0@Z ; nonplayerGetMonsterName
PUBLIC	?nonplayerGetGradeByVID@@YAPAU_object@@PAU1@0@Z	; nonplayerGetGradeByVID
PUBLIC	?nonplayerGetLevelByVID@@YAPAU_object@@PAU1@0@Z	; nonplayerGetLevelByVID
PUBLIC	?nonplayerGetEventTypeByVID@@YAPAU_object@@PAU1@0@Z ; nonplayerGetEventTypeByVID
PUBLIC	?nonplayerGetEventType@@YAPAU_object@@PAU1@0@Z	; nonplayerGetEventType
; Function compile flags: /Ogtp
; File E:\Metin2_server\SolWayneSF v6\ClientVS22\source\UserInterface\PythonNonPlayerModule.cpp
;	COMDAT ?nonplayerGetEventType@@YAPAU_object@@PAU1@0@Z
_TEXT	SEGMENT
_iVirtualNumber$ = -4					; size = 4
_poSelf$ = 8						; size = 4
_poArgs$ = 12						; size = 4
?nonplayerGetEventType@@YAPAU_object@@PAU1@0@Z PROC	; nonplayerGetEventType, COMDAT

; 8    : {

  00000	55		 push	 ebp
  00001	8b ec		 mov	 ebp, esp
  00003	51		 push	 ecx

; 9    : 	int iVirtualNumber;
; 10   : 	if (!PyTuple_GetInteger(poArgs, 0, &iVirtualNumber))

  00004	8d 45 fc	 lea	 eax, DWORD PTR _iVirtualNumber$[ebp]
  00007	50		 push	 eax
  00008	6a 00		 push	 0
  0000a	ff 75 0c	 push	 DWORD PTR _poArgs$[ebp]
  0000d	e8 00 00 00 00	 call	 ?PyTuple_GetInteger@@YA_NPAU_object@@HPAH@Z ; PyTuple_GetInteger
  00012	83 c4 0c	 add	 esp, 12			; 0000000cH
  00015	84 c0		 test	 al, al
  00017	75 0e		 jne	 SHORT $LN2@nonplayerG

; 11   : 		return Py_BuildException();

  00019	6a 00		 push	 0
  0001b	e8 00 00 00 00	 call	 ?Py_BuildException@@YAPAU_object@@PBDZZ ; Py_BuildException
  00020	83 c4 04	 add	 esp, 4

; 16   : }

  00023	8b e5		 mov	 esp, ebp
  00025	5d		 pop	 ebp
  00026	c3		 ret	 0
$LN2@nonplayerG:

; 12   : 
; 13   : 	BYTE iType = CPythonNonPlayer::Instance().GetEventType(iVirtualNumber);

  00027	ff 75 fc	 push	 DWORD PTR _iVirtualNumber$[ebp]
  0002a	8b 0d 00 00 00
	00		 mov	 ecx, DWORD PTR ?ms_singleton@?$CSingleton@VCPythonNonPlayer@@@@0PAVCPythonNonPlayer@@A ; CSingleton<CPythonNonPlayer>::ms_singleton
  00030	e8 00 00 00 00	 call	 ?GetEventType@CPythonNonPlayer@@QAEEK@Z ; CPythonNonPlayer::GetEventType

; 14   : 
; 15   : 	return Py_BuildValue("i", iType);

  00035	0f b6 c0	 movzx	 eax, al
  00038	50		 push	 eax
  00039	68 00 00 00 00	 push	 OFFSET ??_C@_01KBJDNOO@i@
  0003e	ff 15 00 00 00
	00		 call	 DWORD PTR __imp__Py_BuildValue
  00044	83 c4 08	 add	 esp, 8

; 16   : }

  00047	8b e5		 mov	 esp, ebp
  00049	5d		 pop	 ebp
  0004a	c3		 ret	 0
?nonplayerGetEventType@@YAPAU_object@@PAU1@0@Z ENDP	; nonplayerGetEventType
_TEXT	ENDS
; Function compile flags: /Ogtp
; File E:\Metin2_server\SolWayneSF v6\ClientVS22\source\UserInterface\PythonNonPlayerModule.cpp
;	COMDAT ?nonplayerGetEventTypeByVID@@YAPAU_object@@PAU1@0@Z
_TEXT	SEGMENT
_iVirtualID$ = -4					; size = 4
_poSelf$ = 8						; size = 4
_poArgs$ = 12						; size = 4
?nonplayerGetEventTypeByVID@@YAPAU_object@@PAU1@0@Z PROC ; nonplayerGetEventTypeByVID, COMDAT

; 19   : {

  00000	55		 push	 ebp
  00001	8b ec		 mov	 ebp, esp
  00003	51		 push	 ecx

; 20   : 	int iVirtualID;
; 21   : 	if (!PyTuple_GetInteger(poArgs, 0, &iVirtualID))

  00004	8d 45 fc	 lea	 eax, DWORD PTR _iVirtualID$[ebp]
  00007	50		 push	 eax
  00008	6a 00		 push	 0
  0000a	ff 75 0c	 push	 DWORD PTR _poArgs$[ebp]
  0000d	e8 00 00 00 00	 call	 ?PyTuple_GetInteger@@YA_NPAU_object@@HPAH@Z ; PyTuple_GetInteger
  00012	83 c4 0c	 add	 esp, 12			; 0000000cH
  00015	84 c0		 test	 al, al
  00017	75 0e		 jne	 SHORT $LN2@nonplayerG

; 22   : 		return Py_BuildException();

  00019	6a 00		 push	 0
  0001b	e8 00 00 00 00	 call	 ?Py_BuildException@@YAPAU_object@@PBDZZ ; Py_BuildException
  00020	83 c4 04	 add	 esp, 4

; 27   : }

  00023	8b e5		 mov	 esp, ebp
  00025	5d		 pop	 ebp
  00026	c3		 ret	 0
$LN2@nonplayerG:

; 23   : 
; 24   : 	BYTE iType = CPythonNonPlayer::Instance().GetEventTypeByVID(iVirtualID);

  00027	ff 75 fc	 push	 DWORD PTR _iVirtualID$[ebp]
  0002a	8b 0d 00 00 00
	00		 mov	 ecx, DWORD PTR ?ms_singleton@?$CSingleton@VCPythonNonPlayer@@@@0PAVCPythonNonPlayer@@A ; CSingleton<CPythonNonPlayer>::ms_singleton
  00030	e8 00 00 00 00	 call	 ?GetEventTypeByVID@CPythonNonPlayer@@QAEEK@Z ; CPythonNonPlayer::GetEventTypeByVID

; 25   : 
; 26   : 	return Py_BuildValue("i", iType);

  00035	0f b6 c0	 movzx	 eax, al
  00038	50		 push	 eax
  00039	68 00 00 00 00	 push	 OFFSET ??_C@_01KBJDNOO@i@
  0003e	ff 15 00 00 00
	00		 call	 DWORD PTR __imp__Py_BuildValue
  00044	83 c4 08	 add	 esp, 8

; 27   : }

  00047	8b e5		 mov	 esp, ebp
  00049	5d		 pop	 ebp
  0004a	c3		 ret	 0
?nonplayerGetEventTypeByVID@@YAPAU_object@@PAU1@0@Z ENDP ; nonplayerGetEventTypeByVID
_TEXT	ENDS
; Function compile flags: /Ogtp
; File E:\Metin2_server\SolWayneSF v6\ClientVS22\source\UserInterface\PythonNonPlayerModule.cpp
; File C:\Program Files\Microsoft Visual Studio\2022\Community\VC\Tools\MSVC\14.34.31933\include\cmath
; File E:\Metin2_server\SolWayneSF v6\ClientVS22\source\UserInterface\PythonNonPlayerModule.cpp
; File C:\Program Files\Microsoft Visual Studio\2022\Community\VC\Tools\MSVC\14.34.31933\include\cmath
; File E:\Metin2_server\SolWayneSF v6\ClientVS22\source\UserInterface\PythonNonPlayerModule.cpp
;	COMDAT ?nonplayerGetLevelByVID@@YAPAU_object@@PAU1@0@Z
_TEXT	SEGMENT
tv180 = -8						; size = 4
_fAverageLevel$ = -8					; size = 4
_iVirtualID$ = -4					; size = 4
_poSelf$ = 8						; size = 4
_poArgs$ = 12						; size = 4
?nonplayerGetLevelByVID@@YAPAU_object@@PAU1@0@Z PROC	; nonplayerGetLevelByVID, COMDAT

; 30   : {

  00000	55		 push	 ebp
  00001	8b ec		 mov	 ebp, esp
  00003	83 ec 08	 sub	 esp, 8

; 31   : 	int iVirtualID;
; 32   : 	if (!PyTuple_GetInteger(poArgs, 0, &iVirtualID))

  00006	8d 45 fc	 lea	 eax, DWORD PTR _iVirtualID$[ebp]
  00009	50		 push	 eax
  0000a	6a 00		 push	 0
  0000c	ff 75 0c	 push	 DWORD PTR _poArgs$[ebp]
  0000f	e8 00 00 00 00	 call	 ?PyTuple_GetInteger@@YA_NPAU_object@@HPAH@Z ; PyTuple_GetInteger
  00014	83 c4 0c	 add	 esp, 12			; 0000000cH
  00017	84 c0		 test	 al, al
  00019	75 0e		 jne	 SHORT $LN2@nonplayerG

; 33   : 		return Py_BuildException();

  0001b	6a 00		 push	 0
  0001d	e8 00 00 00 00	 call	 ?Py_BuildException@@YAPAU_object@@PBDZZ ; Py_BuildException
  00022	83 c4 04	 add	 esp, 4

; 48   : }

  00025	8b e5		 mov	 esp, ebp
  00027	5d		 pop	 ebp
  00028	c3		 ret	 0
$LN2@nonplayerG:

; 34   : 
; 35   : 	CInstanceBase * pInstance = CPythonCharacterManager::Instance().GetInstancePtr(iVirtualID);

  00029	8b 0d 00 00 00
	00		 mov	 ecx, DWORD PTR ?ms_singleton@?$CSingleton@VCPythonCharacterManager@@@@0PAVCPythonCharacterManager@@A ; CSingleton<CPythonCharacterManager>::ms_singleton
  0002f	ff 75 fc	 push	 DWORD PTR _iVirtualID$[ebp]
  00032	83 c1 04	 add	 ecx, 4
  00035	8b 01		 mov	 eax, DWORD PTR [ecx]
  00037	ff 50 08	 call	 DWORD PTR [eax+8]

; 36   : 
; 37   : 	if (!pInstance)

  0003a	85 c0		 test	 eax, eax
  0003c	75 14		 jne	 SHORT $LN3@nonplayerG
$LN8@nonplayerG:

; 48   : }

  0003e	6a ff		 push	 -1
  00040	68 00 00 00 00	 push	 OFFSET ??_C@_01KBJDNOO@i@
  00045	ff 15 00 00 00
	00		 call	 DWORD PTR __imp__Py_BuildValue
  0004b	83 c4 08	 add	 esp, 8
  0004e	8b e5		 mov	 esp, ebp
  00050	5d		 pop	 ebp
  00051	c3		 ret	 0
$LN3@nonplayerG:

; 38   : 		return Py_BuildValue("i", -1);
; 39   : 
; 40   : 	const CPythonNonPlayer::TMobTable * pMobTable = CPythonNonPlayer::Instance().GetTable(pInstance->GetVirtualNumber());

  00052	8b c8		 mov	 ecx, eax
  00054	e8 00 00 00 00	 call	 ?GetVirtualNumber@CInstanceBase@@QAEKXZ ; CInstanceBase::GetVirtualNumber
  00059	8b 0d 00 00 00
	00		 mov	 ecx, DWORD PTR ?ms_singleton@?$CSingleton@VCPythonNonPlayer@@@@0PAVCPythonNonPlayer@@A ; CSingleton<CPythonNonPlayer>::ms_singleton
  0005f	50		 push	 eax
  00060	e8 00 00 00 00	 call	 ?GetTable@CPythonNonPlayer@@QAEPBUSMobTable@1@K@Z ; CPythonNonPlayer::GetTable

; 41   : 
; 42   : 	if (!pMobTable)

  00065	85 c0		 test	 eax, eax
  00067	74 d5		 je	 SHORT $LN8@nonplayerG
; File C:\Program Files\Microsoft Visual Studio\2022\Community\VC\Tools\MSVC\14.34.31933\include\cmath

; 126  :     return __floorf(_Xx);

  00069	0f b6 40 39	 movzx	 eax, BYTE PTR [eax+57]
  0006d	83 ec 08	 sub	 esp, 8
  00070	66 0f 6e c0	 movd	 xmm0, eax
; File E:\Metin2_server\SolWayneSF v6\ClientVS22\source\UserInterface\PythonNonPlayerModule.cpp

; 45   : 	float fAverageLevel = pMobTable->bLevel;//(float(pMobTable->abLevelRange[0]) + float(pMobTable->abLevelRange[1])) / 2.0f;

  00074	0f 5b c0	 cvtdq2ps xmm0, xmm0

; 46   : 	fAverageLevel = floor(fAverageLevel + 0.5f);

  00077	f3 0f 58 05 00
	00 00 00	 addss	 xmm0, DWORD PTR __real@3f000000
; File C:\Program Files\Microsoft Visual Studio\2022\Community\VC\Tools\MSVC\14.34.31933\include\cmath

; 126  :     return __floorf(_Xx);

  0007f	f3 0f 11 45 f8	 movss	 DWORD PTR tv180[ebp], xmm0
  00084	d9 45 f8	 fld	 DWORD PTR tv180[ebp]
  00087	dd 1c 24	 fstp	 QWORD PTR [esp]
  0008a	e8 00 00 00 00	 call	 _floor
  0008f	d9 5d f8	 fstp	 DWORD PTR _fAverageLevel$[ebp]
; File E:\Metin2_server\SolWayneSF v6\ClientVS22\source\UserInterface\PythonNonPlayerModule.cpp

; 47   : 	return Py_BuildValue("i", int(fAverageLevel));

  00092	f3 0f 2c 45 f8	 cvttss2si eax, DWORD PTR _fAverageLevel$[ebp]
  00097	50		 push	 eax
  00098	68 00 00 00 00	 push	 OFFSET ??_C@_01KBJDNOO@i@
  0009d	ff 15 00 00 00
	00		 call	 DWORD PTR __imp__Py_BuildValue
  000a3	83 c4 10	 add	 esp, 16			; 00000010H

; 48   : }

  000a6	8b e5		 mov	 esp, ebp
  000a8	5d		 pop	 ebp
  000a9	c3		 ret	 0
?nonplayerGetLevelByVID@@YAPAU_object@@PAU1@0@Z ENDP	; nonplayerGetLevelByVID
_TEXT	ENDS
; Function compile flags: /Ogtp
; File E:\Metin2_server\SolWayneSF v6\ClientVS22\source\UserInterface\PythonNonPlayerModule.cpp
;	COMDAT ?nonplayerGetGradeByVID@@YAPAU_object@@PAU1@0@Z
_TEXT	SEGMENT
_iVirtualID$ = -4					; size = 4
_poSelf$ = 8						; size = 4
_poArgs$ = 12						; size = 4
?nonplayerGetGradeByVID@@YAPAU_object@@PAU1@0@Z PROC	; nonplayerGetGradeByVID, COMDAT

; 51   : {

  00000	55		 push	 ebp
  00001	8b ec		 mov	 ebp, esp
  00003	51		 push	 ecx

; 52   : 	int iVirtualID;
; 53   : 	if (!PyTuple_GetInteger(poArgs, 0, &iVirtualID))

  00004	8d 45 fc	 lea	 eax, DWORD PTR _iVirtualID$[ebp]
  00007	50		 push	 eax
  00008	6a 00		 push	 0
  0000a	ff 75 0c	 push	 DWORD PTR _poArgs$[ebp]
  0000d	e8 00 00 00 00	 call	 ?PyTuple_GetInteger@@YA_NPAU_object@@HPAH@Z ; PyTuple_GetInteger
  00012	83 c4 0c	 add	 esp, 12			; 0000000cH
  00015	84 c0		 test	 al, al
  00017	75 0e		 jne	 SHORT $LN2@nonplayerG

; 54   : 		return Py_BuildException();

  00019	6a 00		 push	 0
  0001b	e8 00 00 00 00	 call	 ?Py_BuildException@@YAPAU_object@@PBDZZ ; Py_BuildException
  00020	83 c4 04	 add	 esp, 4

; 67   : }

  00023	8b e5		 mov	 esp, ebp
  00025	5d		 pop	 ebp
  00026	c3		 ret	 0
$LN2@nonplayerG:

; 55   : 
; 56   : 	CInstanceBase * pInstance = CPythonCharacterManager::Instance().GetInstancePtr(iVirtualID);

  00027	8b 0d 00 00 00
	00		 mov	 ecx, DWORD PTR ?ms_singleton@?$CSingleton@VCPythonCharacterManager@@@@0PAVCPythonCharacterManager@@A ; CSingleton<CPythonCharacterManager>::ms_singleton
  0002d	ff 75 fc	 push	 DWORD PTR _iVirtualID$[ebp]
  00030	83 c1 04	 add	 ecx, 4
  00033	8b 01		 mov	 eax, DWORD PTR [ecx]
  00035	ff 50 08	 call	 DWORD PTR [eax+8]

; 57   : 
; 58   : 	if (!pInstance)

  00038	85 c0		 test	 eax, eax
  0003a	75 14		 jne	 SHORT $LN3@nonplayerG
$LN7@nonplayerG:

; 67   : }

  0003c	6a ff		 push	 -1
  0003e	68 00 00 00 00	 push	 OFFSET ??_C@_01KBJDNOO@i@
  00043	ff 15 00 00 00
	00		 call	 DWORD PTR __imp__Py_BuildValue
  00049	83 c4 08	 add	 esp, 8
  0004c	8b e5		 mov	 esp, ebp
  0004e	5d		 pop	 ebp
  0004f	c3		 ret	 0
$LN3@nonplayerG:

; 59   : 		return Py_BuildValue("i", -1);
; 60   : 
; 61   : 	const CPythonNonPlayer::TMobTable * pMobTable = CPythonNonPlayer::Instance().GetTable(pInstance->GetVirtualNumber());

  00050	8b c8		 mov	 ecx, eax
  00052	e8 00 00 00 00	 call	 ?GetVirtualNumber@CInstanceBase@@QAEKXZ ; CInstanceBase::GetVirtualNumber
  00057	8b 0d 00 00 00
	00		 mov	 ecx, DWORD PTR ?ms_singleton@?$CSingleton@VCPythonNonPlayer@@@@0PAVCPythonNonPlayer@@A ; CSingleton<CPythonNonPlayer>::ms_singleton
  0005d	50		 push	 eax
  0005e	e8 00 00 00 00	 call	 ?GetTable@CPythonNonPlayer@@QAEPBUSMobTable@1@K@Z ; CPythonNonPlayer::GetTable

; 62   : 
; 63   : 	if (!pMobTable)

  00063	85 c0		 test	 eax, eax
  00065	74 d5		 je	 SHORT $LN7@nonplayerG

; 64   : 		return Py_BuildValue("i", -1);
; 65   : 
; 66   : 	return Py_BuildValue("i", pMobTable->bRank);

  00067	0f b6 40 37	 movzx	 eax, BYTE PTR [eax+55]
  0006b	50		 push	 eax

; 67   : }

  0006c	68 00 00 00 00	 push	 OFFSET ??_C@_01KBJDNOO@i@
  00071	ff 15 00 00 00
	00		 call	 DWORD PTR __imp__Py_BuildValue
  00077	83 c4 08	 add	 esp, 8
  0007a	8b e5		 mov	 esp, ebp
  0007c	5d		 pop	 ebp
  0007d	c3		 ret	 0
?nonplayerGetGradeByVID@@YAPAU_object@@PAU1@0@Z ENDP	; nonplayerGetGradeByVID
_TEXT	ENDS
; Function compile flags: /Ogtp
; File E:\Metin2_server\SolWayneSF v6\ClientVS22\source\UserInterface\PythonNonPlayerModule.cpp
;	COMDAT ?nonplayerGetMonsterName@@YAPAU_object@@PAU1@0@Z
_TEXT	SEGMENT
_iVNum$ = -4						; size = 4
_poSelf$ = 8						; size = 4
_poArgs$ = 12						; size = 4
?nonplayerGetMonsterName@@YAPAU_object@@PAU1@0@Z PROC	; nonplayerGetMonsterName, COMDAT

; 71   : {

  00000	55		 push	 ebp
  00001	8b ec		 mov	 ebp, esp
  00003	51		 push	 ecx

; 72   : 	int iVNum;
; 73   : 	if (!PyTuple_GetInteger(poArgs, 0, &iVNum))

  00004	8d 45 fc	 lea	 eax, DWORD PTR _iVNum$[ebp]
  00007	50		 push	 eax
  00008	6a 00		 push	 0
  0000a	ff 75 0c	 push	 DWORD PTR _poArgs$[ebp]
  0000d	e8 00 00 00 00	 call	 ?PyTuple_GetInteger@@YA_NPAU_object@@HPAH@Z ; PyTuple_GetInteger
  00012	83 c4 0c	 add	 esp, 12			; 0000000cH
  00015	84 c0		 test	 al, al
  00017	75 0e		 jne	 SHORT $LN2@nonplayerG

; 74   : 		return Py_BuildException();

  00019	6a 00		 push	 0
  0001b	e8 00 00 00 00	 call	 ?Py_BuildException@@YAPAU_object@@PBDZZ ; Py_BuildException
  00020	83 c4 04	 add	 esp, 4

; 78   : }

  00023	8b e5		 mov	 esp, ebp
  00025	5d		 pop	 ebp
  00026	c3		 ret	 0
$LN2@nonplayerG:

; 75   : 
; 76   : 	CPythonNonPlayer& rkNonPlayer=CPythonNonPlayer::Instance();
; 77   : 	return Py_BuildValue("s", rkNonPlayer.GetMonsterName(iVNum));

  00027	ff 75 fc	 push	 DWORD PTR _iVNum$[ebp]
  0002a	8b 0d 00 00 00
	00		 mov	 ecx, DWORD PTR ?ms_singleton@?$CSingleton@VCPythonNonPlayer@@@@0PAVCPythonNonPlayer@@A ; CSingleton<CPythonNonPlayer>::ms_singleton
  00030	e8 00 00 00 00	 call	 ?GetMonsterName@CPythonNonPlayer@@QAEPBDK@Z ; CPythonNonPlayer::GetMonsterName
  00035	50		 push	 eax
  00036	68 00 00 00 00	 push	 OFFSET ??_C@_01LKDEMHDF@s@
  0003b	ff 15 00 00 00
	00		 call	 DWORD PTR __imp__Py_BuildValue
  00041	83 c4 08	 add	 esp, 8

; 78   : }

  00044	8b e5		 mov	 esp, ebp
  00046	5d		 pop	 ebp
  00047	c3		 ret	 0
?nonplayerGetMonsterName@@YAPAU_object@@PAU1@0@Z ENDP	; nonplayerGetMonsterName
_TEXT	ENDS
; Function compile flags: /Ogtp
; File E:\Metin2_server\SolWayneSF v6\ClientVS22\source\UserInterface\PythonNonPlayerModule.cpp
;	COMDAT ?nonplayerLoadNonPlayerData@@YAPAU_object@@PAU1@0@Z
_TEXT	SEGMENT
_szFileName$ = -4					; size = 4
_poSelf$ = 8						; size = 4
_poArgs$ = 12						; size = 4
?nonplayerLoadNonPlayerData@@YAPAU_object@@PAU1@0@Z PROC ; nonplayerLoadNonPlayerData, COMDAT

; 81   : {

  00000	55		 push	 ebp
  00001	8b ec		 mov	 ebp, esp
  00003	51		 push	 ecx

; 82   : 	char * szFileName;
; 83   : 	if(!PyTuple_GetString(poArgs, 0, &szFileName))

  00004	8d 45 fc	 lea	 eax, DWORD PTR _szFileName$[ebp]
  00007	50		 push	 eax
  00008	6a 00		 push	 0
  0000a	ff 75 0c	 push	 DWORD PTR _poArgs$[ebp]
  0000d	e8 00 00 00 00	 call	 ?PyTuple_GetString@@YA_NPAU_object@@HPAPAD@Z ; PyTuple_GetString
  00012	83 c4 0c	 add	 esp, 12			; 0000000cH
  00015	84 c0		 test	 al, al
  00017	75 0e		 jne	 SHORT $LN2@nonplayerL

; 84   : 		return Py_BuildException();

  00019	6a 00		 push	 0
  0001b	e8 00 00 00 00	 call	 ?Py_BuildException@@YAPAU_object@@PBDZZ ; Py_BuildException
  00020	83 c4 04	 add	 esp, 4

; 88   : }

  00023	8b e5		 mov	 esp, ebp
  00025	5d		 pop	 ebp
  00026	c3		 ret	 0
$LN2@nonplayerL:

; 85   : 
; 86   : 	CPythonNonPlayer::Instance().LoadNonPlayerData(szFileName);

  00027	ff 75 fc	 push	 DWORD PTR _szFileName$[ebp]
  0002a	8b 0d 00 00 00
	00		 mov	 ecx, DWORD PTR ?ms_singleton@?$CSingleton@VCPythonNonPlayer@@@@0PAVCPythonNonPlayer@@A ; CSingleton<CPythonNonPlayer>::ms_singleton
  00030	e8 00 00 00 00	 call	 ?LoadNonPlayerData@CPythonNonPlayer@@QAE_NPBD@Z ; CPythonNonPlayer::LoadNonPlayerData

; 87   : 	return Py_BuildNone();

  00035	e8 00 00 00 00	 call	 ?Py_BuildNone@@YAPAU_object@@XZ ; Py_BuildNone

; 88   : }

  0003a	8b e5		 mov	 esp, ebp
  0003c	5d		 pop	 ebp
  0003d	c3		 ret	 0
?nonplayerLoadNonPlayerData@@YAPAU_object@@PAU1@0@Z ENDP ; nonplayerLoadNonPlayerData
_TEXT	ENDS
; Function compile flags: /Ogtp
; File E:\Metin2_server\SolWayneSF v6\ClientVS22\source\UserInterface\PythonNonPlayerModule.cpp
;	COMDAT ?nonplayerGetMonsterMaxHP@@YAPAU_object@@PAU1@0@Z
_TEXT	SEGMENT
_race$ = -4						; size = 4
_poSelf$ = 8						; size = 4
_poArgs$ = 12						; size = 4
?nonplayerGetMonsterMaxHP@@YAPAU_object@@PAU1@0@Z PROC	; nonplayerGetMonsterMaxHP, COMDAT

; 92   : {

  00000	55		 push	 ebp
  00001	8b ec		 mov	 ebp, esp
  00003	51		 push	 ecx

; 93   : 	int race;
; 94   : 	if (!PyTuple_GetInteger(poArgs, 0, &race))

  00004	8d 45 fc	 lea	 eax, DWORD PTR _race$[ebp]
  00007	50		 push	 eax
  00008	6a 00		 push	 0
  0000a	ff 75 0c	 push	 DWORD PTR _poArgs$[ebp]
  0000d	e8 00 00 00 00	 call	 ?PyTuple_GetInteger@@YA_NPAU_object@@HPAH@Z ; PyTuple_GetInteger
  00012	83 c4 0c	 add	 esp, 12			; 0000000cH
  00015	84 c0		 test	 al, al
  00017	75 0e		 jne	 SHORT $LN2@nonplayerG

; 95   : 		return Py_BuildException();

  00019	6a 00		 push	 0
  0001b	e8 00 00 00 00	 call	 ?Py_BuildException@@YAPAU_object@@PBDZZ ; Py_BuildException
  00020	83 c4 04	 add	 esp, 4

; 100  : }

  00023	8b e5		 mov	 esp, ebp
  00025	5d		 pop	 ebp
  00026	c3		 ret	 0
$LN2@nonplayerG:

; 96   : 
; 97   : 	CPythonNonPlayer& rkNonPlayer=CPythonNonPlayer::Instance();
; 98   : 
; 99   : 	return Py_BuildValue("i", rkNonPlayer.GetMonsterMaxHP(race));

  00027	ff 75 fc	 push	 DWORD PTR _race$[ebp]
  0002a	8b 0d 00 00 00
	00		 mov	 ecx, DWORD PTR ?ms_singleton@?$CSingleton@VCPythonNonPlayer@@@@0PAVCPythonNonPlayer@@A ; CSingleton<CPythonNonPlayer>::ms_singleton
  00030	e8 00 00 00 00	 call	 ?GetMonsterMaxHP@CPythonNonPlayer@@QAEKK@Z ; CPythonNonPlayer::GetMonsterMaxHP
  00035	50		 push	 eax
  00036	68 00 00 00 00	 push	 OFFSET ??_C@_01KBJDNOO@i@
  0003b	ff 15 00 00 00
	00		 call	 DWORD PTR __imp__Py_BuildValue
  00041	83 c4 08	 add	 esp, 8

; 100  : }

  00044	8b e5		 mov	 esp, ebp
  00046	5d		 pop	 ebp
  00047	c3		 ret	 0
?nonplayerGetMonsterMaxHP@@YAPAU_object@@PAU1@0@Z ENDP	; nonplayerGetMonsterMaxHP
_TEXT	ENDS
; Function compile flags: /Ogtp
; File E:\Metin2_server\SolWayneSF v6\ClientVS22\source\UserInterface\PythonNonPlayerModule.cpp
;	COMDAT ?nonplayerGetRaceNumByVID@@YAPAU_object@@PAU1@0@Z
_TEXT	SEGMENT
_iVirtualID$ = -4					; size = 4
_poSelf$ = 8						; size = 4
_poArgs$ = 12						; size = 4
?nonplayerGetRaceNumByVID@@YAPAU_object@@PAU1@0@Z PROC	; nonplayerGetRaceNumByVID, COMDAT

; 103  : {

  00000	55		 push	 ebp
  00001	8b ec		 mov	 ebp, esp
  00003	51		 push	 ecx

; 104  : 	int iVirtualID;
; 105  : 	if (!PyTuple_GetInteger(poArgs, 0, &iVirtualID))

  00004	8d 45 fc	 lea	 eax, DWORD PTR _iVirtualID$[ebp]
  00007	50		 push	 eax
  00008	6a 00		 push	 0
  0000a	ff 75 0c	 push	 DWORD PTR _poArgs$[ebp]
  0000d	e8 00 00 00 00	 call	 ?PyTuple_GetInteger@@YA_NPAU_object@@HPAH@Z ; PyTuple_GetInteger
  00012	83 c4 0c	 add	 esp, 12			; 0000000cH
  00015	84 c0		 test	 al, al
  00017	75 0e		 jne	 SHORT $LN2@nonplayerG

; 106  : 		return Py_BuildException();

  00019	6a 00		 push	 0
  0001b	e8 00 00 00 00	 call	 ?Py_BuildException@@YAPAU_object@@PBDZZ ; Py_BuildException
  00020	83 c4 04	 add	 esp, 4

; 119  : }

  00023	8b e5		 mov	 esp, ebp
  00025	5d		 pop	 ebp
  00026	c3		 ret	 0
$LN2@nonplayerG:

; 107  : 
; 108  : 	CInstanceBase * pInstance = CPythonCharacterManager::Instance().GetInstancePtr(iVirtualID);

  00027	8b 0d 00 00 00
	00		 mov	 ecx, DWORD PTR ?ms_singleton@?$CSingleton@VCPythonCharacterManager@@@@0PAVCPythonCharacterManager@@A ; CSingleton<CPythonCharacterManager>::ms_singleton
  0002d	ff 75 fc	 push	 DWORD PTR _iVirtualID$[ebp]
  00030	83 c1 04	 add	 ecx, 4
  00033	8b 01		 mov	 eax, DWORD PTR [ecx]
  00035	ff 50 08	 call	 DWORD PTR [eax+8]

; 109  : 
; 110  : 	if (!pInstance)

  00038	85 c0		 test	 eax, eax
  0003a	75 14		 jne	 SHORT $LN3@nonplayerG
$LN7@nonplayerG:

; 119  : }

  0003c	6a ff		 push	 -1
  0003e	68 00 00 00 00	 push	 OFFSET ??_C@_01KBJDNOO@i@
  00043	ff 15 00 00 00
	00		 call	 DWORD PTR __imp__Py_BuildValue
  00049	83 c4 08	 add	 esp, 8
  0004c	8b e5		 mov	 esp, ebp
  0004e	5d		 pop	 ebp
  0004f	c3		 ret	 0
$LN3@nonplayerG:

; 111  : 		return Py_BuildValue("i", -1);
; 112  : 
; 113  : 	const CPythonNonPlayer::TMobTable * pMobTable = CPythonNonPlayer::Instance().GetTable(pInstance->GetVirtualNumber());

  00050	8b c8		 mov	 ecx, eax
  00052	e8 00 00 00 00	 call	 ?GetVirtualNumber@CInstanceBase@@QAEKXZ ; CInstanceBase::GetVirtualNumber
  00057	8b 0d 00 00 00
	00		 mov	 ecx, DWORD PTR ?ms_singleton@?$CSingleton@VCPythonNonPlayer@@@@0PAVCPythonNonPlayer@@A ; CSingleton<CPythonNonPlayer>::ms_singleton
  0005d	50		 push	 eax
  0005e	e8 00 00 00 00	 call	 ?GetTable@CPythonNonPlayer@@QAEPBUSMobTable@1@K@Z ; CPythonNonPlayer::GetTable

; 114  : 
; 115  : 	if (!pMobTable)

  00063	85 c0		 test	 eax, eax
  00065	74 d5		 je	 SHORT $LN7@nonplayerG

; 116  : 		return Py_BuildValue("i", -1);
; 117  : 
; 118  : 	return Py_BuildValue("i", pMobTable->dwVnum);

  00067	ff 30		 push	 DWORD PTR [eax]

; 119  : }

  00069	68 00 00 00 00	 push	 OFFSET ??_C@_01KBJDNOO@i@
  0006e	ff 15 00 00 00
	00		 call	 DWORD PTR __imp__Py_BuildValue
  00074	83 c4 08	 add	 esp, 8
  00077	8b e5		 mov	 esp, ebp
  00079	5d		 pop	 ebp
  0007a	c3		 ret	 0
?nonplayerGetRaceNumByVID@@YAPAU_object@@PAU1@0@Z ENDP	; nonplayerGetRaceNumByVID
_TEXT	ENDS
; Function compile flags: /Ogtp
; File E:\Metin2_server\SolWayneSF v6\ClientVS22\source\UserInterface\PythonNonPlayerModule.cpp
;	COMDAT ?nonplayerGetMonsterRaceFlag@@YAPAU_object@@PAU1@0@Z
_TEXT	SEGMENT
_race$ = -4						; size = 4
_poSelf$ = 8						; size = 4
_poArgs$ = 12						; size = 4
?nonplayerGetMonsterRaceFlag@@YAPAU_object@@PAU1@0@Z PROC ; nonplayerGetMonsterRaceFlag, COMDAT

; 122  : {

  00000	55		 push	 ebp
  00001	8b ec		 mov	 ebp, esp
  00003	51		 push	 ecx

; 123  : 	int race;
; 124  : 	if (!PyTuple_GetInteger(poArgs, 0, &race))

  00004	8d 45 fc	 lea	 eax, DWORD PTR _race$[ebp]
  00007	50		 push	 eax
  00008	6a 00		 push	 0
  0000a	ff 75 0c	 push	 DWORD PTR _poArgs$[ebp]
  0000d	e8 00 00 00 00	 call	 ?PyTuple_GetInteger@@YA_NPAU_object@@HPAH@Z ; PyTuple_GetInteger
  00012	83 c4 0c	 add	 esp, 12			; 0000000cH
  00015	84 c0		 test	 al, al
  00017	75 0e		 jne	 SHORT $LN2@nonplayerG

; 125  : 		return Py_BuildException();

  00019	6a 00		 push	 0
  0001b	e8 00 00 00 00	 call	 ?Py_BuildException@@YAPAU_object@@PBDZZ ; Py_BuildException
  00020	83 c4 04	 add	 esp, 4

; 130  : }

  00023	8b e5		 mov	 esp, ebp
  00025	5d		 pop	 ebp
  00026	c3		 ret	 0
$LN2@nonplayerG:

; 126  : 
; 127  : 	CPythonNonPlayer& rkNonPlayer=CPythonNonPlayer::Instance();
; 128  : 
; 129  : 	return Py_BuildValue("i", rkNonPlayer.GetMonsterRaceFlag(race));

  00027	ff 75 fc	 push	 DWORD PTR _race$[ebp]
  0002a	8b 0d 00 00 00
	00		 mov	 ecx, DWORD PTR ?ms_singleton@?$CSingleton@VCPythonNonPlayer@@@@0PAVCPythonNonPlayer@@A ; CSingleton<CPythonNonPlayer>::ms_singleton
  00030	e8 00 00 00 00	 call	 ?GetMonsterRaceFlag@CPythonNonPlayer@@QAEKK@Z ; CPythonNonPlayer::GetMonsterRaceFlag
  00035	50		 push	 eax
  00036	68 00 00 00 00	 push	 OFFSET ??_C@_01KBJDNOO@i@
  0003b	ff 15 00 00 00
	00		 call	 DWORD PTR __imp__Py_BuildValue
  00041	83 c4 08	 add	 esp, 8

; 130  : }

  00044	8b e5		 mov	 esp, ebp
  00046	5d		 pop	 ebp
  00047	c3		 ret	 0
?nonplayerGetMonsterRaceFlag@@YAPAU_object@@PAU1@0@Z ENDP ; nonplayerGetMonsterRaceFlag
_TEXT	ENDS
; Function compile flags: /Ogtp
; File E:\Metin2_server\SolWayneSF v6\ClientVS22\source\UserInterface\PythonNonPlayerModule.cpp
;	COMDAT ?nonplayerGetMobRegenCycle@@YAPAU_object@@PAU1@0@Z
_TEXT	SEGMENT
_race$ = -4						; size = 4
_poSelf$ = 8						; size = 4
_poArgs$ = 12						; size = 4
?nonplayerGetMobRegenCycle@@YAPAU_object@@PAU1@0@Z PROC	; nonplayerGetMobRegenCycle, COMDAT

; 133  : {

  00000	55		 push	 ebp
  00001	8b ec		 mov	 ebp, esp
  00003	51		 push	 ecx

; 134  : 	int race;
; 135  : 	if (!PyTuple_GetInteger(poArgs, 0, &race))

  00004	8d 45 fc	 lea	 eax, DWORD PTR _race$[ebp]
  00007	50		 push	 eax
  00008	6a 00		 push	 0
  0000a	ff 75 0c	 push	 DWORD PTR _poArgs$[ebp]
  0000d	e8 00 00 00 00	 call	 ?PyTuple_GetInteger@@YA_NPAU_object@@HPAH@Z ; PyTuple_GetInteger
  00012	83 c4 0c	 add	 esp, 12			; 0000000cH
  00015	84 c0		 test	 al, al
  00017	75 0e		 jne	 SHORT $LN2@nonplayerG

; 136  : 		return Py_BuildException();

  00019	6a 00		 push	 0
  0001b	e8 00 00 00 00	 call	 ?Py_BuildException@@YAPAU_object@@PBDZZ ; Py_BuildException
  00020	83 c4 04	 add	 esp, 4

; 141  : }

  00023	8b e5		 mov	 esp, ebp
  00025	5d		 pop	 ebp
  00026	c3		 ret	 0
$LN2@nonplayerG:

; 137  : 
; 138  : 	CPythonNonPlayer& rkNonPlayer = CPythonNonPlayer::Instance();
; 139  : 
; 140  : 	return Py_BuildValue("i", rkNonPlayer.GetMobRegenCycle(race));

  00027	ff 75 fc	 push	 DWORD PTR _race$[ebp]
  0002a	8b 0d 00 00 00
	00		 mov	 ecx, DWORD PTR ?ms_singleton@?$CSingleton@VCPythonNonPlayer@@@@0PAVCPythonNonPlayer@@A ; CSingleton<CPythonNonPlayer>::ms_singleton
  00030	e8 00 00 00 00	 call	 ?GetMobRegenCycle@CPythonNonPlayer@@QAEEK@Z ; CPythonNonPlayer::GetMobRegenCycle
  00035	0f b6 c0	 movzx	 eax, al
  00038	50		 push	 eax
  00039	68 00 00 00 00	 push	 OFFSET ??_C@_01KBJDNOO@i@
  0003e	ff 15 00 00 00
	00		 call	 DWORD PTR __imp__Py_BuildValue
  00044	83 c4 08	 add	 esp, 8

; 141  : }

  00047	8b e5		 mov	 esp, ebp
  00049	5d		 pop	 ebp
  0004a	c3		 ret	 0
?nonplayerGetMobRegenCycle@@YAPAU_object@@PAU1@0@Z ENDP	; nonplayerGetMobRegenCycle
_TEXT	ENDS
; Function compile flags: /Ogtp
; File E:\Metin2_server\SolWayneSF v6\ClientVS22\source\UserInterface\PythonNonPlayerModule.cpp
;	COMDAT ?nonplayerGetMobRegenPercent@@YAPAU_object@@PAU1@0@Z
_TEXT	SEGMENT
_race$ = -4						; size = 4
_poSelf$ = 8						; size = 4
_poArgs$ = 12						; size = 4
?nonplayerGetMobRegenPercent@@YAPAU_object@@PAU1@0@Z PROC ; nonplayerGetMobRegenPercent, COMDAT

; 144  : {

  00000	55		 push	 ebp
  00001	8b ec		 mov	 ebp, esp
  00003	51		 push	 ecx

; 145  : 	int race;
; 146  : 	if (!PyTuple_GetInteger(poArgs, 0, &race))

  00004	8d 45 fc	 lea	 eax, DWORD PTR _race$[ebp]
  00007	50		 push	 eax
  00008	6a 00		 push	 0
  0000a	ff 75 0c	 push	 DWORD PTR _poArgs$[ebp]
  0000d	e8 00 00 00 00	 call	 ?PyTuple_GetInteger@@YA_NPAU_object@@HPAH@Z ; PyTuple_GetInteger
  00012	83 c4 0c	 add	 esp, 12			; 0000000cH
  00015	84 c0		 test	 al, al
  00017	75 0e		 jne	 SHORT $LN2@nonplayerG

; 147  : 		return Py_BuildException();

  00019	6a 00		 push	 0
  0001b	e8 00 00 00 00	 call	 ?Py_BuildException@@YAPAU_object@@PBDZZ ; Py_BuildException
  00020	83 c4 04	 add	 esp, 4

; 152  : }

  00023	8b e5		 mov	 esp, ebp
  00025	5d		 pop	 ebp
  00026	c3		 ret	 0
$LN2@nonplayerG:

; 148  : 
; 149  : 	CPythonNonPlayer& rkNonPlayer = CPythonNonPlayer::Instance();
; 150  : 
; 151  : 	return Py_BuildValue("i", rkNonPlayer.GetMobRegenPercent(race));

  00027	ff 75 fc	 push	 DWORD PTR _race$[ebp]
  0002a	8b 0d 00 00 00
	00		 mov	 ecx, DWORD PTR ?ms_singleton@?$CSingleton@VCPythonNonPlayer@@@@0PAVCPythonNonPlayer@@A ; CSingleton<CPythonNonPlayer>::ms_singleton
  00030	e8 00 00 00 00	 call	 ?GetMobRegenPercent@CPythonNonPlayer@@QAEEK@Z ; CPythonNonPlayer::GetMobRegenPercent
  00035	0f b6 c0	 movzx	 eax, al
  00038	50		 push	 eax
  00039	68 00 00 00 00	 push	 OFFSET ??_C@_01KBJDNOO@i@
  0003e	ff 15 00 00 00
	00		 call	 DWORD PTR __imp__Py_BuildValue
  00044	83 c4 08	 add	 esp, 8

; 152  : }

  00047	8b e5		 mov	 esp, ebp
  00049	5d		 pop	 ebp
  0004a	c3		 ret	 0
?nonplayerGetMobRegenPercent@@YAPAU_object@@PAU1@0@Z ENDP ; nonplayerGetMobRegenPercent
_TEXT	ENDS
; Function compile flags: /Ogtp
; File E:\Metin2_server\SolWayneSF v6\ClientVS22\source\UserInterface\PythonNonPlayerModule.cpp
;	COMDAT ?nonplayerGetMobGoldMin@@YAPAU_object@@PAU1@0@Z
_TEXT	SEGMENT
_race$ = -4						; size = 4
_poSelf$ = 8						; size = 4
_poArgs$ = 12						; size = 4
?nonplayerGetMobGoldMin@@YAPAU_object@@PAU1@0@Z PROC	; nonplayerGetMobGoldMin, COMDAT

; 155  : {

  00000	55		 push	 ebp
  00001	8b ec		 mov	 ebp, esp
  00003	51		 push	 ecx

; 156  : 	int race;
; 157  : 	if (!PyTuple_GetInteger(poArgs, 0, &race))

  00004	8d 45 fc	 lea	 eax, DWORD PTR _race$[ebp]
  00007	50		 push	 eax
  00008	6a 00		 push	 0
  0000a	ff 75 0c	 push	 DWORD PTR _poArgs$[ebp]
  0000d	e8 00 00 00 00	 call	 ?PyTuple_GetInteger@@YA_NPAU_object@@HPAH@Z ; PyTuple_GetInteger
  00012	83 c4 0c	 add	 esp, 12			; 0000000cH
  00015	84 c0		 test	 al, al
  00017	75 0e		 jne	 SHORT $LN2@nonplayerG

; 158  : 		return Py_BuildException();

  00019	6a 00		 push	 0
  0001b	e8 00 00 00 00	 call	 ?Py_BuildException@@YAPAU_object@@PBDZZ ; Py_BuildException
  00020	83 c4 04	 add	 esp, 4

; 163  : }

  00023	8b e5		 mov	 esp, ebp
  00025	5d		 pop	 ebp
  00026	c3		 ret	 0
$LN2@nonplayerG:

; 159  : 
; 160  : 	CPythonNonPlayer& rkNonPlayer = CPythonNonPlayer::Instance();
; 161  : 
; 162  : 	return Py_BuildValue("i", rkNonPlayer.GetMobGoldMin(race));

  00027	ff 75 fc	 push	 DWORD PTR _race$[ebp]
  0002a	8b 0d 00 00 00
	00		 mov	 ecx, DWORD PTR ?ms_singleton@?$CSingleton@VCPythonNonPlayer@@@@0PAVCPythonNonPlayer@@A ; CSingleton<CPythonNonPlayer>::ms_singleton
  00030	e8 00 00 00 00	 call	 ?GetMobGoldMin@CPythonNonPlayer@@QAEKK@Z ; CPythonNonPlayer::GetMobGoldMin
  00035	50		 push	 eax
  00036	68 00 00 00 00	 push	 OFFSET ??_C@_01KBJDNOO@i@
  0003b	ff 15 00 00 00
	00		 call	 DWORD PTR __imp__Py_BuildValue
  00041	83 c4 08	 add	 esp, 8

; 163  : }

  00044	8b e5		 mov	 esp, ebp
  00046	5d		 pop	 ebp
  00047	c3		 ret	 0
?nonplayerGetMobGoldMin@@YAPAU_object@@PAU1@0@Z ENDP	; nonplayerGetMobGoldMin
_TEXT	ENDS
; Function compile flags: /Ogtp
; File E:\Metin2_server\SolWayneSF v6\ClientVS22\source\UserInterface\PythonNonPlayerModule.cpp
;	COMDAT ?nonplayerGetMobGoldMax@@YAPAU_object@@PAU1@0@Z
_TEXT	SEGMENT
_race$ = -4						; size = 4
_poSelf$ = 8						; size = 4
_poArgs$ = 12						; size = 4
?nonplayerGetMobGoldMax@@YAPAU_object@@PAU1@0@Z PROC	; nonplayerGetMobGoldMax, COMDAT

; 166  : {

  00000	55		 push	 ebp
  00001	8b ec		 mov	 ebp, esp
  00003	51		 push	 ecx

; 167  : 	int race;
; 168  : 	if (!PyTuple_GetInteger(poArgs, 0, &race))

  00004	8d 45 fc	 lea	 eax, DWORD PTR _race$[ebp]
  00007	50		 push	 eax
  00008	6a 00		 push	 0
  0000a	ff 75 0c	 push	 DWORD PTR _poArgs$[ebp]
  0000d	e8 00 00 00 00	 call	 ?PyTuple_GetInteger@@YA_NPAU_object@@HPAH@Z ; PyTuple_GetInteger
  00012	83 c4 0c	 add	 esp, 12			; 0000000cH
  00015	84 c0		 test	 al, al
  00017	75 0e		 jne	 SHORT $LN2@nonplayerG

; 169  : 		return Py_BuildException();

  00019	6a 00		 push	 0
  0001b	e8 00 00 00 00	 call	 ?Py_BuildException@@YAPAU_object@@PBDZZ ; Py_BuildException
  00020	83 c4 04	 add	 esp, 4

; 174  : }

  00023	8b e5		 mov	 esp, ebp
  00025	5d		 pop	 ebp
  00026	c3		 ret	 0
$LN2@nonplayerG:

; 170  : 
; 171  : 	CPythonNonPlayer& rkNonPlayer = CPythonNonPlayer::Instance();
; 172  : 
; 173  : 	return Py_BuildValue("i", rkNonPlayer.GetMobGoldMax(race));

  00027	ff 75 fc	 push	 DWORD PTR _race$[ebp]
  0002a	8b 0d 00 00 00
	00		 mov	 ecx, DWORD PTR ?ms_singleton@?$CSingleton@VCPythonNonPlayer@@@@0PAVCPythonNonPlayer@@A ; CSingleton<CPythonNonPlayer>::ms_singleton
  00030	e8 00 00 00 00	 call	 ?GetMobGoldMax@CPythonNonPlayer@@QAEKK@Z ; CPythonNonPlayer::GetMobGoldMax
  00035	50		 push	 eax
  00036	68 00 00 00 00	 push	 OFFSET ??_C@_01KBJDNOO@i@
  0003b	ff 15 00 00 00
	00		 call	 DWORD PTR __imp__Py_BuildValue
  00041	83 c4 08	 add	 esp, 8

; 174  : }

  00044	8b e5		 mov	 esp, ebp
  00046	5d		 pop	 ebp
  00047	c3		 ret	 0
?nonplayerGetMobGoldMax@@YAPAU_object@@PAU1@0@Z ENDP	; nonplayerGetMobGoldMax
_TEXT	ENDS
; Function compile flags: /Ogtp
; File E:\Metin2_server\SolWayneSF v6\ClientVS22\source\UserInterface\PythonNonPlayerModule.cpp
;	COMDAT ?nonplayerGetMobResist@@YAPAU_object@@PAU1@0@Z
_TEXT	SEGMENT
_race$ = -8						; size = 4
_resistNum$ = -4					; size = 1
_poSelf$ = 8						; size = 4
_poArgs$ = 12						; size = 4
?nonplayerGetMobResist@@YAPAU_object@@PAU1@0@Z PROC	; nonplayerGetMobResist, COMDAT

; 177  : {

  00000	55		 push	 ebp
  00001	8b ec		 mov	 ebp, esp
  00003	83 ec 08	 sub	 esp, 8

; 178  : 	int race;
; 179  : 	if (!PyTuple_GetInteger(poArgs, 0, &race))

  00006	8d 45 f8	 lea	 eax, DWORD PTR _race$[ebp]
  00009	50		 push	 eax
  0000a	6a 00		 push	 0
  0000c	ff 75 0c	 push	 DWORD PTR _poArgs$[ebp]
  0000f	e8 00 00 00 00	 call	 ?PyTuple_GetInteger@@YA_NPAU_object@@HPAH@Z ; PyTuple_GetInteger
  00014	83 c4 0c	 add	 esp, 12			; 0000000cH
  00017	84 c0		 test	 al, al
  00019	75 0e		 jne	 SHORT $LN2@nonplayerG
$LN5@nonplayerG:

; 189  : }

  0001b	6a 00		 push	 0
  0001d	e8 00 00 00 00	 call	 ?Py_BuildException@@YAPAU_object@@PBDZZ ; Py_BuildException
  00022	83 c4 04	 add	 esp, 4
  00025	8b e5		 mov	 esp, ebp
  00027	5d		 pop	 ebp
  00028	c3		 ret	 0
$LN2@nonplayerG:

; 180  : 		return Py_BuildException();
; 181  : 
; 182  : 	BYTE resistNum;
; 183  : 	if (!PyTuple_GetInteger(poArgs, 1, &resistNum))

  00029	8d 45 fc	 lea	 eax, DWORD PTR _resistNum$[ebp]
  0002c	50		 push	 eax
  0002d	6a 01		 push	 1
  0002f	ff 75 0c	 push	 DWORD PTR _poArgs$[ebp]
  00032	e8 00 00 00 00	 call	 ?PyTuple_GetInteger@@YA_NPAU_object@@HPAE@Z ; PyTuple_GetInteger
  00037	83 c4 0c	 add	 esp, 12			; 0000000cH
  0003a	84 c0		 test	 al, al
  0003c	74 dd		 je	 SHORT $LN5@nonplayerG

; 184  : 		return Py_BuildException();
; 185  : 
; 186  : 	CPythonNonPlayer& rkNonPlayer = CPythonNonPlayer::Instance();
; 187  : 
; 188  : 	return Py_BuildValue("i", rkNonPlayer.GetMobResist(race, resistNum));

  0003e	ff 75 fc	 push	 DWORD PTR _resistNum$[ebp]
  00041	8b 0d 00 00 00
	00		 mov	 ecx, DWORD PTR ?ms_singleton@?$CSingleton@VCPythonNonPlayer@@@@0PAVCPythonNonPlayer@@A ; CSingleton<CPythonNonPlayer>::ms_singleton
  00047	ff 75 f8	 push	 DWORD PTR _race$[ebp]
  0004a	e8 00 00 00 00	 call	 ?GetMobResist@CPythonNonPlayer@@QAEKKE@Z ; CPythonNonPlayer::GetMobResist
  0004f	50		 push	 eax
  00050	68 00 00 00 00	 push	 OFFSET ??_C@_01KBJDNOO@i@
  00055	ff 15 00 00 00
	00		 call	 DWORD PTR __imp__Py_BuildValue
  0005b	83 c4 08	 add	 esp, 8

; 189  : }

  0005e	8b e5		 mov	 esp, ebp
  00060	5d		 pop	 ebp
  00061	c3		 ret	 0
?nonplayerGetMobResist@@YAPAU_object@@PAU1@0@Z ENDP	; nonplayerGetMobResist
_TEXT	ENDS
; Function compile flags: /Ogtp
; File E:\Metin2_server\SolWayneSF v6\ClientVS22\source\UserInterface\PythonNonPlayerModule.cpp
;	COMDAT ?nonplayerGetMonsterLevel@@YAPAU_object@@PAU1@0@Z
_TEXT	SEGMENT
_race$ = -4						; size = 4
_poSelf$ = 8						; size = 4
_poArgs$ = 12						; size = 4
?nonplayerGetMonsterLevel@@YAPAU_object@@PAU1@0@Z PROC	; nonplayerGetMonsterLevel, COMDAT

; 192  : {

  00000	55		 push	 ebp
  00001	8b ec		 mov	 ebp, esp
  00003	51		 push	 ecx

; 193  : 	int race;
; 194  : 	if (!PyTuple_GetInteger(poArgs, 0, &race))

  00004	8d 45 fc	 lea	 eax, DWORD PTR _race$[ebp]
  00007	50		 push	 eax
  00008	6a 00		 push	 0
  0000a	ff 75 0c	 push	 DWORD PTR _poArgs$[ebp]
  0000d	e8 00 00 00 00	 call	 ?PyTuple_GetInteger@@YA_NPAU_object@@HPAH@Z ; PyTuple_GetInteger
  00012	83 c4 0c	 add	 esp, 12			; 0000000cH
  00015	84 c0		 test	 al, al
  00017	75 0e		 jne	 SHORT $LN2@nonplayerG

; 195  : 		return Py_BuildException();

  00019	6a 00		 push	 0
  0001b	e8 00 00 00 00	 call	 ?Py_BuildException@@YAPAU_object@@PBDZZ ; Py_BuildException
  00020	83 c4 04	 add	 esp, 4

; 200  : }

  00023	8b e5		 mov	 esp, ebp
  00025	5d		 pop	 ebp
  00026	c3		 ret	 0
$LN2@nonplayerG:

; 196  : 
; 197  : 	CPythonNonPlayer& rkNonPlayer=CPythonNonPlayer::Instance();
; 198  : 
; 199  : 	return Py_BuildValue("i", rkNonPlayer.GetMonsterLevel(race));

  00027	ff 75 fc	 push	 DWORD PTR _race$[ebp]
  0002a	8b 0d 00 00 00
	00		 mov	 ecx, DWORD PTR ?ms_singleton@?$CSingleton@VCPythonNonPlayer@@@@0PAVCPythonNonPlayer@@A ; CSingleton<CPythonNonPlayer>::ms_singleton
  00030	e8 00 00 00 00	 call	 ?GetMonsterLevel@CPythonNonPlayer@@QAEKK@Z ; CPythonNonPlayer::GetMonsterLevel
  00035	50		 push	 eax
  00036	68 00 00 00 00	 push	 OFFSET ??_C@_01KBJDNOO@i@
  0003b	ff 15 00 00 00
	00		 call	 DWORD PTR __imp__Py_BuildValue
  00041	83 c4 08	 add	 esp, 8

; 200  : }

  00044	8b e5		 mov	 esp, ebp
  00046	5d		 pop	 ebp
  00047	c3		 ret	 0
?nonplayerGetMonsterLevel@@YAPAU_object@@PAU1@0@Z ENDP	; nonplayerGetMonsterLevel
_TEXT	ENDS
; Function compile flags: /Ogtp
; File E:\Metin2_server\SolWayneSF v6\ClientVS22\source\UserInterface\PythonNonPlayerModule.cpp
;	COMDAT ?nonplayerGetMonsterDamage@@YAPAU_object@@PAU1@0@Z
_TEXT	SEGMENT
_race$ = -4						; size = 4
_poSelf$ = 8						; size = 4
_poArgs$ = 12						; size = 4
?nonplayerGetMonsterDamage@@YAPAU_object@@PAU1@0@Z PROC	; nonplayerGetMonsterDamage, COMDAT

; 203  : {

  00000	55		 push	 ebp
  00001	8b ec		 mov	 ebp, esp
  00003	51		 push	 ecx

; 204  : 	int race;
; 205  : 	if (!PyTuple_GetInteger(poArgs, 0, &race))

  00004	8d 45 fc	 lea	 eax, DWORD PTR _race$[ebp]
  00007	50		 push	 eax
  00008	6a 00		 push	 0
  0000a	ff 75 0c	 push	 DWORD PTR _poArgs$[ebp]
  0000d	e8 00 00 00 00	 call	 ?PyTuple_GetInteger@@YA_NPAU_object@@HPAH@Z ; PyTuple_GetInteger
  00012	83 c4 0c	 add	 esp, 12			; 0000000cH
  00015	84 c0		 test	 al, al
  00017	75 0e		 jne	 SHORT $LN2@nonplayerG

; 206  : 		return Py_BuildException();

  00019	6a 00		 push	 0
  0001b	e8 00 00 00 00	 call	 ?Py_BuildException@@YAPAU_object@@PBDZZ ; Py_BuildException
  00020	83 c4 04	 add	 esp, 4

; 214  : }

  00023	8b e5		 mov	 esp, ebp
  00025	5d		 pop	 ebp
  00026	c3		 ret	 0
$LN2@nonplayerG:

; 207  : 
; 208  : 	CPythonNonPlayer& rkNonPlayer=CPythonNonPlayer::Instance();
; 209  : 
; 210  : 	DWORD dmg1 = rkNonPlayer.GetMonsterDamage1(race);

  00027	8b 0d 00 00 00
	00		 mov	 ecx, DWORD PTR ?ms_singleton@?$CSingleton@VCPythonNonPlayer@@@@0PAVCPythonNonPlayer@@A ; CSingleton<CPythonNonPlayer>::ms_singleton
  0002d	57		 push	 edi
  0002e	ff 75 fc	 push	 DWORD PTR _race$[ebp]
  00031	e8 00 00 00 00	 call	 ?GetMonsterDamage1@CPythonNonPlayer@@QAEKK@Z ; CPythonNonPlayer::GetMonsterDamage1

; 211  : 	DWORD dmg2 = rkNonPlayer.GetMonsterDamage2(race);

  00036	ff 75 fc	 push	 DWORD PTR _race$[ebp]
  00039	8b 0d 00 00 00
	00		 mov	 ecx, DWORD PTR ?ms_singleton@?$CSingleton@VCPythonNonPlayer@@@@0PAVCPythonNonPlayer@@A ; CSingleton<CPythonNonPlayer>::ms_singleton
  0003f	8b f8		 mov	 edi, eax
  00041	e8 00 00 00 00	 call	 ?GetMonsterDamage2@CPythonNonPlayer@@QAEKK@Z ; CPythonNonPlayer::GetMonsterDamage2

; 212  : 
; 213  : 	return Py_BuildValue("ii", dmg1,dmg2);

  00046	50		 push	 eax
  00047	57		 push	 edi
  00048	68 00 00 00 00	 push	 OFFSET ??_C@_02PDIHAGKM@ii@
  0004d	ff 15 00 00 00
	00		 call	 DWORD PTR __imp__Py_BuildValue
  00053	83 c4 0c	 add	 esp, 12			; 0000000cH
  00056	5f		 pop	 edi

; 214  : }

  00057	8b e5		 mov	 esp, ebp
  00059	5d		 pop	 ebp
  0005a	c3		 ret	 0
?nonplayerGetMonsterDamage@@YAPAU_object@@PAU1@0@Z ENDP	; nonplayerGetMonsterDamage
_TEXT	ENDS
; Function compile flags: /Ogtp
; File E:\Metin2_server\SolWayneSF v6\ClientVS22\source\UserInterface\PythonNonPlayerModule.cpp
;	COMDAT ?nonplayerGetMonsterExp@@YAPAU_object@@PAU1@0@Z
_TEXT	SEGMENT
_race$ = -4						; size = 4
_poSelf$ = 8						; size = 4
_poArgs$ = 12						; size = 4
?nonplayerGetMonsterExp@@YAPAU_object@@PAU1@0@Z PROC	; nonplayerGetMonsterExp, COMDAT

; 217  : {

  00000	55		 push	 ebp
  00001	8b ec		 mov	 ebp, esp
  00003	51		 push	 ecx

; 218  : 	int race;
; 219  : 	if (!PyTuple_GetInteger(poArgs, 0, &race))

  00004	8d 45 fc	 lea	 eax, DWORD PTR _race$[ebp]
  00007	50		 push	 eax
  00008	6a 00		 push	 0
  0000a	ff 75 0c	 push	 DWORD PTR _poArgs$[ebp]
  0000d	e8 00 00 00 00	 call	 ?PyTuple_GetInteger@@YA_NPAU_object@@HPAH@Z ; PyTuple_GetInteger
  00012	83 c4 0c	 add	 esp, 12			; 0000000cH
  00015	84 c0		 test	 al, al
  00017	75 0e		 jne	 SHORT $LN2@nonplayerG

; 220  : 		return Py_BuildException();

  00019	6a 00		 push	 0
  0001b	e8 00 00 00 00	 call	 ?Py_BuildException@@YAPAU_object@@PBDZZ ; Py_BuildException
  00020	83 c4 04	 add	 esp, 4

; 225  : }

  00023	8b e5		 mov	 esp, ebp
  00025	5d		 pop	 ebp
  00026	c3		 ret	 0
$LN2@nonplayerG:

; 221  : 
; 222  : 	CPythonNonPlayer& rkNonPlayer=CPythonNonPlayer::Instance();
; 223  : 
; 224  : 	return Py_BuildValue("i", rkNonPlayer.GetMonsterExp(race));

  00027	ff 75 fc	 push	 DWORD PTR _race$[ebp]
  0002a	8b 0d 00 00 00
	00		 mov	 ecx, DWORD PTR ?ms_singleton@?$CSingleton@VCPythonNonPlayer@@@@0PAVCPythonNonPlayer@@A ; CSingleton<CPythonNonPlayer>::ms_singleton
  00030	e8 00 00 00 00	 call	 ?GetMonsterExp@CPythonNonPlayer@@QAEKK@Z ; CPythonNonPlayer::GetMonsterExp
  00035	50		 push	 eax
  00036	68 00 00 00 00	 push	 OFFSET ??_C@_01KBJDNOO@i@
  0003b	ff 15 00 00 00
	00		 call	 DWORD PTR __imp__Py_BuildValue
  00041	83 c4 08	 add	 esp, 8

; 225  : }

  00044	8b e5		 mov	 esp, ebp
  00046	5d		 pop	 ebp
  00047	c3		 ret	 0
?nonplayerGetMonsterExp@@YAPAU_object@@PAU1@0@Z ENDP	; nonplayerGetMonsterExp
_TEXT	ENDS
; Function compile flags: /Ogtp
; File E:\Metin2_server\SolWayneSF v6\ClientVS22\source\UserInterface\PythonNonPlayerModule.cpp
;	COMDAT ?nonplayerGetMonsterDamageMultiply@@YAPAU_object@@PAU1@0@Z
_TEXT	SEGMENT
_race$ = -4						; size = 4
_poSelf$ = 8						; size = 4
_poArgs$ = 12						; size = 4
?nonplayerGetMonsterDamageMultiply@@YAPAU_object@@PAU1@0@Z PROC ; nonplayerGetMonsterDamageMultiply, COMDAT

; 228  : {

  00000	55		 push	 ebp
  00001	8b ec		 mov	 ebp, esp
  00003	51		 push	 ecx

; 229  : 	int race;
; 230  : 	if (!PyTuple_GetInteger(poArgs, 0, &race))

  00004	8d 45 fc	 lea	 eax, DWORD PTR _race$[ebp]
  00007	50		 push	 eax
  00008	6a 00		 push	 0
  0000a	ff 75 0c	 push	 DWORD PTR _poArgs$[ebp]
  0000d	e8 00 00 00 00	 call	 ?PyTuple_GetInteger@@YA_NPAU_object@@HPAH@Z ; PyTuple_GetInteger
  00012	83 c4 0c	 add	 esp, 12			; 0000000cH
  00015	84 c0		 test	 al, al
  00017	75 0e		 jne	 SHORT $LN2@nonplayerG

; 231  : 		return Py_BuildException();

  00019	6a 00		 push	 0
  0001b	e8 00 00 00 00	 call	 ?Py_BuildException@@YAPAU_object@@PBDZZ ; Py_BuildException
  00020	83 c4 04	 add	 esp, 4

; 236  : }

  00023	8b e5		 mov	 esp, ebp
  00025	5d		 pop	 ebp
  00026	c3		 ret	 0
$LN2@nonplayerG:

; 232  : 
; 233  : 	CPythonNonPlayer& rkNonPlayer=CPythonNonPlayer::Instance();
; 234  : 
; 235  : 	return Py_BuildValue("f", rkNonPlayer.GetMonsterDamageMultiply(race));

  00027	ff 75 fc	 push	 DWORD PTR _race$[ebp]
  0002a	8b 0d 00 00 00
	00		 mov	 ecx, DWORD PTR ?ms_singleton@?$CSingleton@VCPythonNonPlayer@@@@0PAVCPythonNonPlayer@@A ; CSingleton<CPythonNonPlayer>::ms_singleton
  00030	e8 00 00 00 00	 call	 ?GetMonsterDamageMultiply@CPythonNonPlayer@@QAEMK@Z ; CPythonNonPlayer::GetMonsterDamageMultiply
  00035	f3 0f 5a c0	 cvtss2sd xmm0, xmm0
  00039	83 ec 08	 sub	 esp, 8
  0003c	f2 0f 11 04 24	 movsd	 QWORD PTR [esp], xmm0
  00041	68 00 00 00 00	 push	 OFFSET ??_C@_01INIBCBCB@f@
  00046	ff 15 00 00 00
	00		 call	 DWORD PTR __imp__Py_BuildValue
  0004c	83 c4 0c	 add	 esp, 12			; 0000000cH

; 236  : }

  0004f	8b e5		 mov	 esp, ebp
  00051	5d		 pop	 ebp
  00052	c3		 ret	 0
?nonplayerGetMonsterDamageMultiply@@YAPAU_object@@PAU1@0@Z ENDP ; nonplayerGetMonsterDamageMultiply
_TEXT	ENDS
; Function compile flags: /Ogtp
; File E:\Metin2_server\SolWayneSF v6\ClientVS22\source\UserInterface\PythonNonPlayerModule.cpp
;	COMDAT ?nonplayerGetMonsterST@@YAPAU_object@@PAU1@0@Z
_TEXT	SEGMENT
_race$ = -4						; size = 4
_poSelf$ = 8						; size = 4
_poArgs$ = 12						; size = 4
?nonplayerGetMonsterST@@YAPAU_object@@PAU1@0@Z PROC	; nonplayerGetMonsterST, COMDAT

; 239  : {

  00000	55		 push	 ebp
  00001	8b ec		 mov	 ebp, esp
  00003	51		 push	 ecx

; 240  : 	int race;
; 241  : 	if (!PyTuple_GetInteger(poArgs, 0, &race))

  00004	8d 45 fc	 lea	 eax, DWORD PTR _race$[ebp]
  00007	50		 push	 eax
  00008	6a 00		 push	 0
  0000a	ff 75 0c	 push	 DWORD PTR _poArgs$[ebp]
  0000d	e8 00 00 00 00	 call	 ?PyTuple_GetInteger@@YA_NPAU_object@@HPAH@Z ; PyTuple_GetInteger
  00012	83 c4 0c	 add	 esp, 12			; 0000000cH
  00015	84 c0		 test	 al, al
  00017	75 0e		 jne	 SHORT $LN2@nonplayerG

; 242  : 		return Py_BuildException();

  00019	6a 00		 push	 0
  0001b	e8 00 00 00 00	 call	 ?Py_BuildException@@YAPAU_object@@PBDZZ ; Py_BuildException
  00020	83 c4 04	 add	 esp, 4

; 247  : }

  00023	8b e5		 mov	 esp, ebp
  00025	5d		 pop	 ebp
  00026	c3		 ret	 0
$LN2@nonplayerG:

; 243  : 
; 244  : 	CPythonNonPlayer& rkNonPlayer=CPythonNonPlayer::Instance();
; 245  : 
; 246  : 	return Py_BuildValue("i", rkNonPlayer.GetMonsterST(race));

  00027	ff 75 fc	 push	 DWORD PTR _race$[ebp]
  0002a	8b 0d 00 00 00
	00		 mov	 ecx, DWORD PTR ?ms_singleton@?$CSingleton@VCPythonNonPlayer@@@@0PAVCPythonNonPlayer@@A ; CSingleton<CPythonNonPlayer>::ms_singleton
  00030	e8 00 00 00 00	 call	 ?GetMonsterST@CPythonNonPlayer@@QAEKK@Z ; CPythonNonPlayer::GetMonsterST
  00035	50		 push	 eax
  00036	68 00 00 00 00	 push	 OFFSET ??_C@_01KBJDNOO@i@
  0003b	ff 15 00 00 00
	00		 call	 DWORD PTR __imp__Py_BuildValue
  00041	83 c4 08	 add	 esp, 8

; 247  : }

  00044	8b e5		 mov	 esp, ebp
  00046	5d		 pop	 ebp
  00047	c3		 ret	 0
?nonplayerGetMonsterST@@YAPAU_object@@PAU1@0@Z ENDP	; nonplayerGetMonsterST
_TEXT	ENDS
; Function compile flags: /Ogtp
; File E:\Metin2_server\SolWayneSF v6\ClientVS22\source\UserInterface\PythonNonPlayerModule.cpp
;	COMDAT ?nonplayerGetMonsterDX@@YAPAU_object@@PAU1@0@Z
_TEXT	SEGMENT
_race$ = -4						; size = 4
_poSelf$ = 8						; size = 4
_poArgs$ = 12						; size = 4
?nonplayerGetMonsterDX@@YAPAU_object@@PAU1@0@Z PROC	; nonplayerGetMonsterDX, COMDAT

; 250  : {

  00000	55		 push	 ebp
  00001	8b ec		 mov	 ebp, esp
  00003	51		 push	 ecx

; 251  : 	int race;
; 252  : 	if (!PyTuple_GetInteger(poArgs, 0, &race))

  00004	8d 45 fc	 lea	 eax, DWORD PTR _race$[ebp]
  00007	50		 push	 eax
  00008	6a 00		 push	 0
  0000a	ff 75 0c	 push	 DWORD PTR _poArgs$[ebp]
  0000d	e8 00 00 00 00	 call	 ?PyTuple_GetInteger@@YA_NPAU_object@@HPAH@Z ; PyTuple_GetInteger
  00012	83 c4 0c	 add	 esp, 12			; 0000000cH
  00015	84 c0		 test	 al, al
  00017	75 0e		 jne	 SHORT $LN2@nonplayerG

; 253  : 		return Py_BuildException();

  00019	6a 00		 push	 0
  0001b	e8 00 00 00 00	 call	 ?Py_BuildException@@YAPAU_object@@PBDZZ ; Py_BuildException
  00020	83 c4 04	 add	 esp, 4

; 258  : }

  00023	8b e5		 mov	 esp, ebp
  00025	5d		 pop	 ebp
  00026	c3		 ret	 0
$LN2@nonplayerG:

; 254  : 
; 255  : 	CPythonNonPlayer& rkNonPlayer=CPythonNonPlayer::Instance();
; 256  : 
; 257  : 	return Py_BuildValue("i", rkNonPlayer.GetMonsterDX(race));

  00027	ff 75 fc	 push	 DWORD PTR _race$[ebp]
  0002a	8b 0d 00 00 00
	00		 mov	 ecx, DWORD PTR ?ms_singleton@?$CSingleton@VCPythonNonPlayer@@@@0PAVCPythonNonPlayer@@A ; CSingleton<CPythonNonPlayer>::ms_singleton
  00030	e8 00 00 00 00	 call	 ?GetMonsterDX@CPythonNonPlayer@@QAEKK@Z ; CPythonNonPlayer::GetMonsterDX
  00035	50		 push	 eax
  00036	68 00 00 00 00	 push	 OFFSET ??_C@_01KBJDNOO@i@
  0003b	ff 15 00 00 00
	00		 call	 DWORD PTR __imp__Py_BuildValue
  00041	83 c4 08	 add	 esp, 8

; 258  : }

  00044	8b e5		 mov	 esp, ebp
  00046	5d		 pop	 ebp
  00047	c3		 ret	 0
?nonplayerGetMonsterDX@@YAPAU_object@@PAU1@0@Z ENDP	; nonplayerGetMonsterDX
_TEXT	ENDS
; Function compile flags: /Ogtp
; File E:\Metin2_server\SolWayneSF v6\ClientVS22\source\UserInterface\PythonNonPlayerModule.cpp
;	COMDAT ?nonplayerIsMonsterStone@@YAPAU_object@@PAU1@0@Z
_TEXT	SEGMENT
_race$ = -4						; size = 4
_poSelf$ = 8						; size = 4
_poArgs$ = 12						; size = 4
?nonplayerIsMonsterStone@@YAPAU_object@@PAU1@0@Z PROC	; nonplayerIsMonsterStone, COMDAT

; 261  : {

  00000	55		 push	 ebp
  00001	8b ec		 mov	 ebp, esp
  00003	51		 push	 ecx

; 262  : 	int race;
; 263  : 	if (!PyTuple_GetInteger(poArgs, 0, &race))

  00004	8d 45 fc	 lea	 eax, DWORD PTR _race$[ebp]
  00007	50		 push	 eax
  00008	6a 00		 push	 0
  0000a	ff 75 0c	 push	 DWORD PTR _poArgs$[ebp]
  0000d	e8 00 00 00 00	 call	 ?PyTuple_GetInteger@@YA_NPAU_object@@HPAH@Z ; PyTuple_GetInteger
  00012	83 c4 0c	 add	 esp, 12			; 0000000cH
  00015	84 c0		 test	 al, al
  00017	75 0e		 jne	 SHORT $LN2@nonplayerI

; 264  : 		return Py_BuildException();

  00019	6a 00		 push	 0
  0001b	e8 00 00 00 00	 call	 ?Py_BuildException@@YAPAU_object@@PBDZZ ; Py_BuildException
  00020	83 c4 04	 add	 esp, 4

; 269  : }

  00023	8b e5		 mov	 esp, ebp
  00025	5d		 pop	 ebp
  00026	c3		 ret	 0
$LN2@nonplayerI:

; 265  : 
; 266  : 	CPythonNonPlayer& rkNonPlayer = CPythonNonPlayer::Instance();
; 267  : 
; 268  : 	return Py_BuildValue("i", rkNonPlayer.IsMonsterStone(race) ? 1 : 0);

  00027	ff 75 fc	 push	 DWORD PTR _race$[ebp]
  0002a	8b 0d 00 00 00
	00		 mov	 ecx, DWORD PTR ?ms_singleton@?$CSingleton@VCPythonNonPlayer@@@@0PAVCPythonNonPlayer@@A ; CSingleton<CPythonNonPlayer>::ms_singleton
  00030	e8 00 00 00 00	 call	 ?IsMonsterStone@CPythonNonPlayer@@QAE_NK@Z ; CPythonNonPlayer::IsMonsterStone
  00035	0f b6 c0	 movzx	 eax, al
  00038	50		 push	 eax
  00039	68 00 00 00 00	 push	 OFFSET ??_C@_01KBJDNOO@i@
  0003e	ff 15 00 00 00
	00		 call	 DWORD PTR __imp__Py_BuildValue
  00044	83 c4 08	 add	 esp, 8

; 269  : }

  00047	8b e5		 mov	 esp, ebp
  00049	5d		 pop	 ebp
  0004a	c3		 ret	 0
?nonplayerIsMonsterStone@@YAPAU_object@@PAU1@0@Z ENDP	; nonplayerIsMonsterStone
_TEXT	ENDS
; Function compile flags: /Ogtp
; File E:\Metin2_server\SolWayneSF v6\ClientVS22\source\UserInterface\PythonNonPlayerModule.cpp
;	COMDAT ?initNonPlayer@@YAXXZ
_TEXT	SEGMENT
?initNonPlayer@@YAXXZ PROC				; initNonPlayer, COMDAT

; 273  : {

  00000	56		 push	 esi
  00001	57		 push	 edi

; 274  : 	static PyMethodDef s_methods[] =
; 275  : 	{
; 276  : 		{ "GetEventType",				nonplayerGetEventType,				METH_VARARGS },
; 277  : 		{ "GetEventTypeByVID",			nonplayerGetEventTypeByVID,			METH_VARARGS },
; 278  : 		{ "GetLevelByVID",				nonplayerGetLevelByVID,				METH_VARARGS },
; 279  : 		{ "GetGradeByVID",				nonplayerGetGradeByVID,				METH_VARARGS },
; 280  : 		{ "GetMonsterName",				nonplayerGetMonsterName,			METH_VARARGS },
; 281  : #ifdef ENABLE_SEND_TARGET_INFO
; 282  : 		// TARGET_INFO
; 283  : 		{ "GetRaceNumByVID",			nonplayerGetRaceNumByVID,			METH_VARARGS },
; 284  : 		{ "GetMonsterMaxHP",			nonplayerGetMonsterMaxHP,			METH_VARARGS },
; 285  : 		{ "GetMonsterRaceFlag",			nonplayerGetMonsterRaceFlag,		METH_VARARGS },
; 286  : 		{ "GetMonsterLevel",			nonplayerGetMonsterLevel,			METH_VARARGS },
; 287  : 		{ "GetMonsterDamage",			nonplayerGetMonsterDamage,			METH_VARARGS },
; 288  : 		{ "GetMonsterExp",				nonplayerGetMonsterExp,				METH_VARARGS },
; 289  : 		{ "GetMonsterDamageMultiply",	nonplayerGetMonsterDamageMultiply,	METH_VARARGS },
; 290  : 		{ "GetMonsterST",				nonplayerGetMonsterST,				METH_VARARGS },
; 291  : 		{ "GetMonsterDX",				nonplayerGetMonsterDX,				METH_VARARGS },
; 292  : 		{ "IsMonsterStone",				nonplayerIsMonsterStone,			METH_VARARGS },
; 293  : 		{ "GetMobRegenCycle",			nonplayerGetMobRegenCycle,			METH_VARARGS },
; 294  : 		{ "GetMobRegenPercent",			nonplayerGetMobRegenPercent,		METH_VARARGS },
; 295  : 		{ "GetMobGoldMin",				nonplayerGetMobGoldMin,				METH_VARARGS },
; 296  : 		{ "GetMobGoldMax",				nonplayerGetMobGoldMax,				METH_VARARGS },
; 297  : 		{ "GetResist",					nonplayerGetMobResist,				METH_VARARGS },	
; 298  : #endif
; 299  : 		{ "LoadNonPlayerData",			nonplayerLoadNonPlayerData,			METH_VARARGS },
; 300  : 
; 301  : 		{ NULL,							NULL,								NULL		 },
; 302  : 	};
; 303  : 
; 304  : 	PyObject * poModule = Py_InitModule("nonplayer", s_methods);

  00002	68 f5 03 00 00	 push	 1013			; 000003f5H
  00007	6a 00		 push	 0
  00009	6a 00		 push	 0
  0000b	68 00 00 00 00	 push	 OFFSET ?s_methods@?1??initNonPlayer@@YAXXZ@4PAUPyMethodDef@@A
  00010	68 00 00 00 00	 push	 OFFSET ??_C@_09OHMOODOI@nonplayer@
  00015	ff 15 00 00 00
	00		 call	 DWORD PTR __imp__Py_InitModule4

; 305  : 
; 306  : 	PyModule_AddIntConstant(poModule, "ON_CLICK_EVENT_NONE",		CPythonNonPlayer::ON_CLICK_EVENT_NONE);

  0001b	8b 35 00 00 00
	00		 mov	 esi, DWORD PTR __imp__PyModule_AddIntConstant
  00021	8b f8		 mov	 edi, eax
  00023	6a 00		 push	 0
  00025	68 00 00 00 00	 push	 OFFSET ??_C@_0BE@FCOIJPJO@ON_CLICK_EVENT_NONE@
  0002a	57		 push	 edi
  0002b	ff d6		 call	 esi

; 307  : 	PyModule_AddIntConstant(poModule, "ON_CLICK_EVENT_BATTLE",		CPythonNonPlayer::ON_CLICK_EVENT_BATTLE);

  0002d	6a 01		 push	 1
  0002f	68 00 00 00 00	 push	 OFFSET ??_C@_0BG@EEKDAAJA@ON_CLICK_EVENT_BATTLE@
  00034	57		 push	 edi
  00035	ff d6		 call	 esi

; 308  : 	PyModule_AddIntConstant(poModule, "ON_CLICK_EVENT_SHOP",		CPythonNonPlayer::ON_CLICK_EVENT_SHOP);

  00037	6a 02		 push	 2
  00039	68 00 00 00 00	 push	 OFFSET ??_C@_0BE@GBDIHIDH@ON_CLICK_EVENT_SHOP@
  0003e	57		 push	 edi
  0003f	ff d6		 call	 esi

; 309  : 	PyModule_AddIntConstant(poModule, "ON_CLICK_EVENT_TALK",		CPythonNonPlayer::ON_CLICK_EVENT_TALK);

  00041	6a 03		 push	 3
  00043	68 00 00 00 00	 push	 OFFSET ??_C@_0BE@FGAJOGO@ON_CLICK_EVENT_TALK@
  00048	57		 push	 edi
  00049	ff d6		 call	 esi
  0004b	83 c4 44	 add	 esp, 68			; 00000044H

; 310  : 	PyModule_AddIntConstant(poModule, "ON_CLICK_EVENT_VEHICLE",		CPythonNonPlayer::ON_CLICK_EVENT_VEHICLE);

  0004e	6a 04		 push	 4
  00050	68 00 00 00 00	 push	 OFFSET ??_C@_0BH@MKCNCKMM@ON_CLICK_EVENT_VEHICLE@
  00055	57		 push	 edi
  00056	ff d6		 call	 esi

; 311  : 
; 312  : 	PyModule_AddIntConstant(poModule, "PAWN", 0);

  00058	6a 00		 push	 0
  0005a	68 00 00 00 00	 push	 OFFSET ??_C@_04CFGPKCMP@PAWN@
  0005f	57		 push	 edi
  00060	ff d6		 call	 esi

; 313  : 	PyModule_AddIntConstant(poModule, "S_PAWN", 1);

  00062	6a 01		 push	 1
  00064	68 00 00 00 00	 push	 OFFSET ??_C@_06JBMEMDKE@S_PAWN@
  00069	57		 push	 edi
  0006a	ff d6		 call	 esi

; 314  : 	PyModule_AddIntConstant(poModule, "KNIGHT", 2);

  0006c	6a 02		 push	 2
  0006e	68 00 00 00 00	 push	 OFFSET ??_C@_06OCLDHEIK@KNIGHT@
  00073	57		 push	 edi
  00074	ff d6		 call	 esi

; 315  : 	PyModule_AddIntConstant(poModule, "S_KNIGHT", 3);

  00076	6a 03		 push	 3
  00078	68 00 00 00 00	 push	 OFFSET ??_C@_08FOAPCDID@S_KNIGHT@
  0007d	57		 push	 edi
  0007e	ff d6		 call	 esi

; 316  : 	PyModule_AddIntConstant(poModule, "BOSS", 4);

  00080	6a 04		 push	 4
  00082	68 00 00 00 00	 push	 OFFSET ??_C@_04CHPFNFNO@BOSS@
  00087	57		 push	 edi
  00088	ff d6		 call	 esi
  0008a	83 c4 48	 add	 esp, 72			; 00000048H

; 317  : 	PyModule_AddIntConstant(poModule, "KING", 5);

  0008d	6a 05		 push	 5
  0008f	68 00 00 00 00	 push	 OFFSET ??_C@_04DFNOAPAF@KING@
  00094	57		 push	 edi
  00095	ff d6		 call	 esi

; 318  : #ifdef ENABLE_SEND_TARGET_INFO
; 319  : 	PyModule_AddIntConstant(poModule, "MOB_RESIST_SWORD", CPythonNonPlayer::MOB_RESIST_SWORD);

  00097	6a 00		 push	 0
  00099	68 00 00 00 00	 push	 OFFSET ??_C@_0BB@PPCGHBJB@MOB_RESIST_SWORD@
  0009e	57		 push	 edi
  0009f	ff d6		 call	 esi

; 320  : 	PyModule_AddIntConstant(poModule, "MOB_RESIST_TWOHAND", CPythonNonPlayer::MOB_RESIST_TWOHAND);

  000a1	6a 01		 push	 1
  000a3	68 00 00 00 00	 push	 OFFSET ??_C@_0BD@LGACFJBE@MOB_RESIST_TWOHAND@
  000a8	57		 push	 edi
  000a9	ff d6		 call	 esi

; 321  : 	PyModule_AddIntConstant(poModule, "MOB_RESIST_DAGGER", CPythonNonPlayer::MOB_RESIST_DAGGER);

  000ab	6a 02		 push	 2
  000ad	68 00 00 00 00	 push	 OFFSET ??_C@_0BC@COPJHPOI@MOB_RESIST_DAGGER@
  000b2	57		 push	 edi
  000b3	ff d6		 call	 esi

; 322  : 	PyModule_AddIntConstant(poModule, "MOB_RESIST_BELL", CPythonNonPlayer::MOB_RESIST_BELL);

  000b5	6a 03		 push	 3
  000b7	68 00 00 00 00	 push	 OFFSET ??_C@_0BA@CJDNMEPA@MOB_RESIST_BELL@
  000bc	57		 push	 edi
  000bd	ff d6		 call	 esi

; 323  : 	PyModule_AddIntConstant(poModule, "MOB_RESIST_FAN", CPythonNonPlayer::MOB_RESIST_FAN);

  000bf	6a 04		 push	 4
  000c1	68 00 00 00 00	 push	 OFFSET ??_C@_0P@CBDKDIML@MOB_RESIST_FAN@
  000c6	57		 push	 edi
  000c7	ff d6		 call	 esi
  000c9	83 c4 48	 add	 esp, 72			; 00000048H

; 324  : 	PyModule_AddIntConstant(poModule, "MOB_RESIST_BOW", CPythonNonPlayer::MOB_RESIST_BOW);

  000cc	6a 05		 push	 5
  000ce	68 00 00 00 00	 push	 OFFSET ??_C@_0P@DPMGCLIO@MOB_RESIST_BOW@
  000d3	57		 push	 edi
  000d4	ff d6		 call	 esi

; 325  : 	PyModule_AddIntConstant(poModule, "MOB_RESIST_FIRE", CPythonNonPlayer::MOB_RESIST_FIRE);

  000d6	6a 06		 push	 6
  000d8	68 00 00 00 00	 push	 OFFSET ??_C@_0BA@FBBBOILL@MOB_RESIST_FIRE@
  000dd	57		 push	 edi
  000de	ff d6		 call	 esi

; 326  : 	PyModule_AddIntConstant(poModule, "MOB_RESIST_ELECT", CPythonNonPlayer::MOB_RESIST_ELECT);

  000e0	6a 07		 push	 7
  000e2	68 00 00 00 00	 push	 OFFSET ??_C@_0BB@FACANPG@MOB_RESIST_ELECT@
  000e7	57		 push	 edi
  000e8	ff d6		 call	 esi

; 327  : 	PyModule_AddIntConstant(poModule, "MOB_RESIST_MAGIC", CPythonNonPlayer::MOB_RESIST_MAGIC);

  000ea	6a 08		 push	 8
  000ec	68 00 00 00 00	 push	 OFFSET ??_C@_0BB@LDNMICOB@MOB_RESIST_MAGIC@
  000f1	57		 push	 edi
  000f2	ff d6		 call	 esi

; 328  : 	PyModule_AddIntConstant(poModule, "MOB_RESIST_WIND", CPythonNonPlayer::MOB_RESIST_WIND);

  000f4	6a 09		 push	 9
  000f6	68 00 00 00 00	 push	 OFFSET ??_C@_0BA@LGDNNM@MOB_RESIST_WIND@
  000fb	57		 push	 edi
  000fc	ff d6		 call	 esi

; 329  : 	PyModule_AddIntConstant(poModule, "MOB_RESIST_POISON", CPythonNonPlayer::MOB_RESIST_POISON);

  000fe	6a 0a		 push	 10			; 0000000aH
  00100	68 00 00 00 00	 push	 OFFSET ??_C@_0BC@MMJAAGH@MOB_RESIST_POISON@
  00105	57		 push	 edi
  00106	ff d6		 call	 esi
  00108	83 c4 48	 add	 esp, 72			; 00000048H

; 330  : #ifdef ENABLE_WOLFMAN_CHARACTER
; 331  : 	PyModule_AddIntConstant(poModule, "MOB_RESIST_BLEEDING", CPythonNonPlayer::MOB_RESIST_BLEEDING);
; 332  : #endif
; 333  : 	PyModule_AddIntConstant(poModule, "MOB_RESIST_MAX_NUM", CPythonNonPlayer::MOB_RESISTS_MAX_NUM);

  0010b	6a 0b		 push	 11			; 0000000bH
  0010d	68 00 00 00 00	 push	 OFFSET ??_C@_0BD@IEDJEENP@MOB_RESIST_MAX_NUM@
  00112	57		 push	 edi
  00113	ff d6		 call	 esi
  00115	83 c4 0c	 add	 esp, 12			; 0000000cH
  00118	5f		 pop	 edi
  00119	5e		 pop	 esi

; 334  : #endif
; 335  : }

  0011a	c3		 ret	 0
?initNonPlayer@@YAXXZ ENDP				; initNonPlayer
_TEXT	ENDS
END
