; Listing generated by Microsoft (R) Optimizing Compiler Version 19.34.31937.0 

	TITLE	e:\metin2_server\solwaynesf v6\clientvs22\vs_files\userinterface\distribute\pythonnetworkstreamcommand.obj
	.686P
	.XMM
	include listing.inc
	.model	flat

INCLUDELIB OLDNAMES

PUBLIC	??_C@_01BJJEKLCA@?$CC@				; `string'
PUBLIC	??_C@_02KEGNLNML@?0?5@				; `string'
PUBLIC	??_C@_0BJ@GKNJMEFC@BINARY_ServerCommand_Run@	; `string'
PUBLIC	??_C@_0O@NGPLKLCI@ConsoleEnable@		; `string'
PUBLIC	??_C@_0N@JEPOMHGB@BettingMoney@			; `string'
PUBLIC	??_C@_04KNNLNNGO@quit@				; `string'
PUBLIC	??_C@_04FDOIBAFG@gift@				; `string'
PUBLIC	??_C@_0FD@MGEFFJHF@CPythonNetworkStream?3?3ServerCom@ ; `string'
PUBLIC	??_C@_04OIHHNFHN@cube@				; `string'
PUBLIC	??_C@_09MBHMFCFC@Gift_Show@			; `string'
PUBLIC	??_C@_0BB@OJMMNJOG@BINARY_Cube_Open@		; `string'
PUBLIC	??_C@_04PMOCAHAA@open@				; `string'
PUBLIC	??_C@_0BC@PIJLHOMJ@BINARY_Cube_Close@		; `string'
PUBLIC	??_C@_05LBOHBHFK@close@				; `string'
PUBLIC	??_C@_05HEIOBLPG@?$CIiii?$CJ@			; `string'
PUBLIC	??_C@_04NIDJFNBE@info@				; `string'
PUBLIC	??_C@_07IPNMCAN@success@			; `string'
PUBLIC	??_C@_0BH@DMGJNFKF@BINARY_Cube_UpdateInfo@	; `string'
PUBLIC	??_C@_04CCHLMOGN@fail@				; `string'
PUBLIC	??_C@_0BE@HLNHNAAA@BINARY_Cube_Succeed@		; `string'
PUBLIC	??_C@_06ODLEBDJP@r_list@			; `string'
PUBLIC	??_C@_0BD@IKENMBNJ@BINARY_Cube_Failed@		; `string'
PUBLIC	??_C@_0BH@JONCIELM@BINARY_Cube_ResultList@	; `string'
PUBLIC	??_C@_0FD@MDMGNNOD@CPythonNetworkStream?3?3ServerCom@ ; `string'
PUBLIC	??_C@_0BJ@DLFAEHHE@BINARY_Cube_MaterialInfo@	; `string'
PUBLIC	??_C@_06JEMOOCHA@m_info@			; `string'
PUBLIC	??_C@_0CL@MFEDAABM@BINARY_BettingGuildWar_UpdateOb@ ; `string'
PUBLIC	??_C@_0O@HADNNBFL@ObserverCount@		; `string'
PUBLIC	??_C@_0CH@OENJEHPK@BINARY_BettingGuildWar_SetObser@ ; `string'
PUBLIC	??_C@_0N@EBGNMPMN@ObserverMode@			; `string'
PUBLIC	??_C@_0M@EEGHHMDP@StoneDetect@			; `string'
PUBLIC	??_C@_0BB@MALBLMJA@ObserverTeamInfo@		; `string'
PUBLIC	??_C@_0EJ@MCLCAHNB@CPythonNetworkStream?3?3ServerCom@ ; `string'
PUBLIC	??_C@_0DD@COMEEBAO@StoneDetect?5?$FLVID?3?$CFd?$FN?5?$FLDistance?3@ ; `string'
PUBLIC	??_C@_0DB@KDMGCNFI@d?3?1ymir?5work?1effect?1etc?1compass@ ; `string'
PUBLIC	??_C@_0DB@CJFLAJFC@d?3?1ymir?5work?1effect?1etc?1firecra@ ; `string'
PUBLIC	??_C@_0DB@EEGLDHND@d?3?1ymir?5work?1effect?1etc?1compass@ ; `string'
PUBLIC	??_C@_0DC@MDCBLGBM@d?3?1ymir?5work?1effect?1etc?1compass@ ; `string'
PUBLIC	??_C@_0BE@FMEJBOHN@StartStaminaConsume@		; `string'
PUBLIC	??_C@_0EH@NKAADCPI@CPythonNetworkStream?3?3ServerCom@ ; `string'
PUBLIC	??_C@_03ODCMFNNH@sms@				; `string'
PUBLIC	??_C@_0BD@IEDOLMCO@StopStaminaConsume@		; `string'
PUBLIC	??_C@_0M@HBFEJGNO@mobile_auth@			; `string'
PUBLIC	??_C@_05FKDGKNNO@nosms@				; `string'
PUBLIC	??_C@_0P@EGMHBKG@messenger_auth@		; `string'
PUBLIC	??_C@_0BC@PFMPDKEI@OnMobileAuthority@		; `string'
PUBLIC	??_C@_05LLEFIEMM@combo@				; `string'
PUBLIC	??_C@_0BN@HFJFNDOJ@OnMessengerAddFriendQuestion@ ; `string'
PUBLIC	??_C@_0M@KBLDJFEH@OnBlockMode@			; `string'
PUBLIC	??_C@_0N@OCOPIGOC@setblockmode@			; `string'
PUBLIC	??_C@_04MDLEAKAL@kiss@				; `string'
PUBLIC	??_C@_0M@KHOIJDFJ@french_kiss@			; `string'
PUBLIC	??_C@_04PAJFJFCF@clap@				; `string'
PUBLIC	??_C@_04JAHFACKH@slap@				; `string'
PUBLIC	??_C@_06NLEFOMIN@cheer2@			; `string'
PUBLIC	??_C@_06PAGILPEO@cheer1@			; `string'
PUBLIC	??_C@_06HCDPFIPD@dance2@			; `string'
PUBLIC	??_C@_06FJBCALDA@dance1@			; `string'
PUBLIC	??_C@_06GLCEGJLC@dance3@			; `string'
PUBLIC	??_C@_0L@MMJCNAM@dig_motion@			; `string'
PUBLIC	??_C@_06DNHOMODE@dance5@			; `string'
PUBLIC	??_C@_06CEGFPPHF@dance4@			; `string'
PUBLIC	??_C@_0P@KFFKPMLJ@congratulation@		; `string'
PUBLIC	??_C@_06BGFDJNPH@dance6@			; `string'
PUBLIC	??_C@_05KEOOPKLE@angry@				; `string'
PUBLIC	??_C@_07JCIHIBLI@forgive@			; `string'
PUBLIC	??_C@_03OPLFCACF@sad@				; `string'
PUBLIC	??_C@_0L@BIJBGJBO@attractive@			; `string'
PUBLIC	??_C@_07MJDIFIMC@cheerup@			; `string'
PUBLIC	??_C@_03BPAIHHLG@shy@				; `string'
PUBLIC	??_C@_03DHFGHJCG@joy@				; `string'
PUBLIC	??_C@_06CMFIENOK@banter@			; `string'
PUBLIC	??_C@_0BP@HJIPKFJO@Unknown?5Server?5Command?5?$CFs?5?$HM?5?$CFs@ ; `string'
PUBLIC	??_C@_0BI@CFPLBAOH@invalid?5string?5position@	; `string'
EXTRN	?PyCallClassMemberFunc@@YA_NPAU_object@@PBD0PA_N@Z:PROC ; PyCallClassMemberFunc
EXTRN	__strcmpi:PROC
EXTRN	_isspace:PROC
;	COMDAT ?s_isFirst@?NE@??ServerCommand@CPythonNetworkStream@@QAEXPAD@Z@4_NA
_DATA	SEGMENT
?s_isFirst@?NE@??ServerCommand@CPythonNetworkStream@@QAEXPAD@Z@4_NA DB 01H ; `CPythonNetworkStream::ServerCommand'::`212'::s_isFirst
_DATA	ENDS
;	COMDAT ??_C@_0BI@CFPLBAOH@invalid?5string?5position@
CONST	SEGMENT
??_C@_0BI@CFPLBAOH@invalid?5string?5position@ DB 'invalid string position'
	DB	00H						; `string'
CONST	ENDS
;	COMDAT ??_C@_0BP@HJIPKFJO@Unknown?5Server?5Command?5?$CFs?5?$HM?5?$CFs@
CONST	SEGMENT
??_C@_0BP@HJIPKFJO@Unknown?5Server?5Command?5?$CFs?5?$HM?5?$CFs@ DB 'Unkn'
	DB	'own Server Command %s | %s', 00H		; `string'
CONST	ENDS
;	COMDAT ??_C@_06CMFIENOK@banter@
CONST	SEGMENT
??_C@_06CMFIENOK@banter@ DB 'banter', 00H		; `string'
CONST	ENDS
;	COMDAT ??_C@_03DHFGHJCG@joy@
CONST	SEGMENT
??_C@_03DHFGHJCG@joy@ DB 'joy', 00H			; `string'
CONST	ENDS
;	COMDAT ??_C@_03BPAIHHLG@shy@
CONST	SEGMENT
??_C@_03BPAIHHLG@shy@ DB 'shy', 00H			; `string'
CONST	ENDS
;	COMDAT ??_C@_07MJDIFIMC@cheerup@
CONST	SEGMENT
??_C@_07MJDIFIMC@cheerup@ DB 'cheerup', 00H		; `string'
CONST	ENDS
;	COMDAT ??_C@_0L@BIJBGJBO@attractive@
CONST	SEGMENT
??_C@_0L@BIJBGJBO@attractive@ DB 'attractive', 00H	; `string'
CONST	ENDS
;	COMDAT ??_C@_03OPLFCACF@sad@
CONST	SEGMENT
??_C@_03OPLFCACF@sad@ DB 'sad', 00H			; `string'
CONST	ENDS
;	COMDAT ??_C@_07JCIHIBLI@forgive@
CONST	SEGMENT
??_C@_07JCIHIBLI@forgive@ DB 'forgive', 00H		; `string'
CONST	ENDS
;	COMDAT ??_C@_05KEOOPKLE@angry@
CONST	SEGMENT
??_C@_05KEOOPKLE@angry@ DB 'angry', 00H			; `string'
CONST	ENDS
;	COMDAT ??_C@_06BGFDJNPH@dance6@
CONST	SEGMENT
??_C@_06BGFDJNPH@dance6@ DB 'dance6', 00H		; `string'
CONST	ENDS
;	COMDAT ??_C@_0P@KFFKPMLJ@congratulation@
CONST	SEGMENT
??_C@_0P@KFFKPMLJ@congratulation@ DB 'congratulation', 00H ; `string'
CONST	ENDS
;	COMDAT ??_C@_06CEGFPPHF@dance4@
CONST	SEGMENT
??_C@_06CEGFPPHF@dance4@ DB 'dance4', 00H		; `string'
CONST	ENDS
;	COMDAT ??_C@_06DNHOMODE@dance5@
CONST	SEGMENT
??_C@_06DNHOMODE@dance5@ DB 'dance5', 00H		; `string'
CONST	ENDS
;	COMDAT ??_C@_0L@MMJCNAM@dig_motion@
CONST	SEGMENT
??_C@_0L@MMJCNAM@dig_motion@ DB 'dig_motion', 00H	; `string'
CONST	ENDS
;	COMDAT ??_C@_06GLCEGJLC@dance3@
CONST	SEGMENT
??_C@_06GLCEGJLC@dance3@ DB 'dance3', 00H		; `string'
CONST	ENDS
;	COMDAT ??_C@_06FJBCALDA@dance1@
CONST	SEGMENT
??_C@_06FJBCALDA@dance1@ DB 'dance1', 00H		; `string'
CONST	ENDS
;	COMDAT ??_C@_06HCDPFIPD@dance2@
CONST	SEGMENT
??_C@_06HCDPFIPD@dance2@ DB 'dance2', 00H		; `string'
CONST	ENDS
;	COMDAT ??_C@_06PAGILPEO@cheer1@
CONST	SEGMENT
??_C@_06PAGILPEO@cheer1@ DB 'cheer1', 00H		; `string'
CONST	ENDS
;	COMDAT ??_C@_06NLEFOMIN@cheer2@
CONST	SEGMENT
??_C@_06NLEFOMIN@cheer2@ DB 'cheer2', 00H		; `string'
CONST	ENDS
;	COMDAT ??_C@_04JAHFACKH@slap@
CONST	SEGMENT
??_C@_04JAHFACKH@slap@ DB 'slap', 00H			; `string'
CONST	ENDS
;	COMDAT ??_C@_04PAJFJFCF@clap@
CONST	SEGMENT
??_C@_04PAJFJFCF@clap@ DB 'clap', 00H			; `string'
CONST	ENDS
;	COMDAT ??_C@_0M@KHOIJDFJ@french_kiss@
CONST	SEGMENT
??_C@_0M@KHOIJDFJ@french_kiss@ DB 'french_kiss', 00H	; `string'
CONST	ENDS
;	COMDAT ??_C@_04MDLEAKAL@kiss@
CONST	SEGMENT
??_C@_04MDLEAKAL@kiss@ DB 'kiss', 00H			; `string'
CONST	ENDS
;	COMDAT ??_C@_0N@OCOPIGOC@setblockmode@
CONST	SEGMENT
??_C@_0N@OCOPIGOC@setblockmode@ DB 'setblockmode', 00H	; `string'
CONST	ENDS
;	COMDAT ??_C@_0M@KBLDJFEH@OnBlockMode@
CONST	SEGMENT
??_C@_0M@KBLDJFEH@OnBlockMode@ DB 'OnBlockMode', 00H	; `string'
CONST	ENDS
;	COMDAT ??_C@_0BN@HFJFNDOJ@OnMessengerAddFriendQuestion@
CONST	SEGMENT
??_C@_0BN@HFJFNDOJ@OnMessengerAddFriendQuestion@ DB 'OnMessengerAddFriend'
	DB	'Question', 00H				; `string'
CONST	ENDS
;	COMDAT ??_C@_05LLEFIEMM@combo@
CONST	SEGMENT
??_C@_05LLEFIEMM@combo@ DB 'combo', 00H			; `string'
CONST	ENDS
;	COMDAT ??_C@_0BC@PFMPDKEI@OnMobileAuthority@
CONST	SEGMENT
??_C@_0BC@PFMPDKEI@OnMobileAuthority@ DB 'OnMobileAuthority', 00H ; `string'
CONST	ENDS
;	COMDAT ??_C@_0P@EGMHBKG@messenger_auth@
CONST	SEGMENT
??_C@_0P@EGMHBKG@messenger_auth@ DB 'messenger_auth', 00H ; `string'
CONST	ENDS
;	COMDAT ??_C@_05FKDGKNNO@nosms@
CONST	SEGMENT
??_C@_05FKDGKNNO@nosms@ DB 'nosms', 00H			; `string'
CONST	ENDS
;	COMDAT ??_C@_0M@HBFEJGNO@mobile_auth@
CONST	SEGMENT
??_C@_0M@HBFEJGNO@mobile_auth@ DB 'mobile_auth', 00H	; `string'
CONST	ENDS
;	COMDAT ??_C@_0BD@IEDOLMCO@StopStaminaConsume@
CONST	SEGMENT
??_C@_0BD@IEDOLMCO@StopStaminaConsume@ DB 'StopStaminaConsume', 00H ; `string'
CONST	ENDS
;	COMDAT ??_C@_03ODCMFNNH@sms@
CONST	SEGMENT
??_C@_03ODCMFNNH@sms@ DB 'sms', 00H			; `string'
CONST	ENDS
;	COMDAT ??_C@_0EH@NKAADCPI@CPythonNetworkStream?3?3ServerCom@
CONST	SEGMENT
??_C@_0EH@NKAADCPI@CPythonNetworkStream?3?3ServerCom@ DB 'CPythonNetworkS'
	DB	'tream::ServerCommand(c_szCommand=%s) - Strange Distance', 00H ; `string'
CONST	ENDS
;	COMDAT ??_C@_0BE@FMEJBOHN@StartStaminaConsume@
CONST	SEGMENT
??_C@_0BE@FMEJBOHN@StartStaminaConsume@ DB 'StartStaminaConsume', 00H ; `string'
CONST	ENDS
;	COMDAT ??_C@_0DC@MDCBLGBM@d?3?1ymir?5work?1effect?1etc?1compass@
CONST	SEGMENT
??_C@_0DC@MDCBLGBM@d?3?1ymir?5work?1effect?1etc?1compass@ DB 'd:/ymir wor'
	DB	'k/effect/etc/compass/appear_middle.mse', 00H ; `string'
CONST	ENDS
;	COMDAT ??_C@_0DB@EEGLDHND@d?3?1ymir?5work?1effect?1etc?1compass@
CONST	SEGMENT
??_C@_0DB@EEGLDHND@d?3?1ymir?5work?1effect?1etc?1compass@ DB 'd:/ymir wor'
	DB	'k/effect/etc/compass/appear_large.mse', 00H	; `string'
CONST	ENDS
;	COMDAT ??_C@_0DB@CJFLAJFC@d?3?1ymir?5work?1effect?1etc?1firecra@
CONST	SEGMENT
??_C@_0DB@CJFLAJFC@d?3?1ymir?5work?1effect?1etc?1firecra@ DB 'd:/ymir wor'
	DB	'k/effect/etc/firecracker/find_out.mse', 00H	; `string'
CONST	ENDS
;	COMDAT ??_C@_0DB@KDMGCNFI@d?3?1ymir?5work?1effect?1etc?1compass@
CONST	SEGMENT
??_C@_0DB@KDMGCNFI@d?3?1ymir?5work?1effect?1etc?1compass@ DB 'd:/ymir wor'
	DB	'k/effect/etc/compass/appear_small.mse', 00H	; `string'
CONST	ENDS
;	COMDAT ??_C@_0DD@COMEEBAO@StoneDetect?5?$FLVID?3?$CFd?$FN?5?$FLDistance?3@
CONST	SEGMENT
??_C@_0DD@COMEEBAO@StoneDetect?5?$FLVID?3?$CFd?$FN?5?$FLDistance?3@ DB 'S'
	DB	'toneDetect [VID:%d] [Distance:%d] [Angle:%d->%f]', 0aH, 00H ; `string'
CONST	ENDS
;	COMDAT ??_C@_0EJ@MCLCAHNB@CPythonNetworkStream?3?3ServerCom@
CONST	SEGMENT
??_C@_0EJ@MCLCAHNB@CPythonNetworkStream?3?3ServerCom@ DB 'CPythonNetworkS'
	DB	'tream::ServerCommand(c_szCommand=%s) - Not Exist Instance', 00H ; `string'
CONST	ENDS
;	COMDAT ??_C@_0BB@MALBLMJA@ObserverTeamInfo@
CONST	SEGMENT
??_C@_0BB@MALBLMJA@ObserverTeamInfo@ DB 'ObserverTeamInfo', 00H ; `string'
CONST	ENDS
;	COMDAT ??_C@_0M@EEGHHMDP@StoneDetect@
CONST	SEGMENT
??_C@_0M@EEGHHMDP@StoneDetect@ DB 'StoneDetect', 00H	; `string'
CONST	ENDS
;	COMDAT ??_C@_0N@EBGNMPMN@ObserverMode@
CONST	SEGMENT
??_C@_0N@EBGNMPMN@ObserverMode@ DB 'ObserverMode', 00H	; `string'
CONST	ENDS
;	COMDAT ??_C@_0CH@OENJEHPK@BINARY_BettingGuildWar_SetObser@
CONST	SEGMENT
??_C@_0CH@OENJEHPK@BINARY_BettingGuildWar_SetObser@ DB 'BINARY_BettingGui'
	DB	'ldWar_SetObserverMode', 00H			; `string'
CONST	ENDS
;	COMDAT ??_C@_0O@HADNNBFL@ObserverCount@
CONST	SEGMENT
??_C@_0O@HADNNBFL@ObserverCount@ DB 'ObserverCount', 00H ; `string'
CONST	ENDS
;	COMDAT ??_C@_0CL@MFEDAABM@BINARY_BettingGuildWar_UpdateOb@
CONST	SEGMENT
??_C@_0CL@MFEDAABM@BINARY_BettingGuildWar_UpdateOb@ DB 'BINARY_BettingGui'
	DB	'ldWar_UpdateObserverCount', 00H		; `string'
CONST	ENDS
;	COMDAT ??_C@_06JEMOOCHA@m_info@
CONST	SEGMENT
??_C@_06JEMOOCHA@m_info@ DB 'm_info', 00H		; `string'
CONST	ENDS
;	COMDAT ??_C@_0BJ@DLFAEHHE@BINARY_Cube_MaterialInfo@
CONST	SEGMENT
??_C@_0BJ@DLFAEHHE@BINARY_Cube_MaterialInfo@ DB 'BINARY_Cube_MaterialInfo'
	DB	00H						; `string'
CONST	ENDS
;	COMDAT ??_C@_0FD@MDMGNNOD@CPythonNetworkStream?3?3ServerCom@
CONST	SEGMENT
??_C@_0FD@MDMGNNOD@CPythonNetworkStream?3?3ServerCom@ DB 'CPythonNetworkS'
	DB	'tream::ServerCommand(c_szCommand=%s) - Strange Parameter Coun'
	DB	't : %d', 00H				; `string'
CONST	ENDS
;	COMDAT ??_C@_0BH@JONCIELM@BINARY_Cube_ResultList@
CONST	SEGMENT
??_C@_0BH@JONCIELM@BINARY_Cube_ResultList@ DB 'BINARY_Cube_ResultList', 00H ; `string'
CONST	ENDS
;	COMDAT ??_C@_0BD@IKENMBNJ@BINARY_Cube_Failed@
CONST	SEGMENT
??_C@_0BD@IKENMBNJ@BINARY_Cube_Failed@ DB 'BINARY_Cube_Failed', 00H ; `string'
CONST	ENDS
;	COMDAT ??_C@_06ODLEBDJP@r_list@
CONST	SEGMENT
??_C@_06ODLEBDJP@r_list@ DB 'r_list', 00H		; `string'
CONST	ENDS
;	COMDAT ??_C@_0BE@HLNHNAAA@BINARY_Cube_Succeed@
CONST	SEGMENT
??_C@_0BE@HLNHNAAA@BINARY_Cube_Succeed@ DB 'BINARY_Cube_Succeed', 00H ; `string'
CONST	ENDS
;	COMDAT ??_C@_04CCHLMOGN@fail@
CONST	SEGMENT
??_C@_04CCHLMOGN@fail@ DB 'fail', 00H			; `string'
CONST	ENDS
;	COMDAT ??_C@_0BH@DMGJNFKF@BINARY_Cube_UpdateInfo@
CONST	SEGMENT
??_C@_0BH@DMGJNFKF@BINARY_Cube_UpdateInfo@ DB 'BINARY_Cube_UpdateInfo', 00H ; `string'
CONST	ENDS
;	COMDAT ??_C@_07IPNMCAN@success@
CONST	SEGMENT
??_C@_07IPNMCAN@success@ DB 'success', 00H		; `string'
CONST	ENDS
;	COMDAT ??_C@_04NIDJFNBE@info@
CONST	SEGMENT
??_C@_04NIDJFNBE@info@ DB 'info', 00H			; `string'
CONST	ENDS
;	COMDAT ??_C@_05HEIOBLPG@?$CIiii?$CJ@
CONST	SEGMENT
??_C@_05HEIOBLPG@?$CIiii?$CJ@ DB '(iii)', 00H		; `string'
CONST	ENDS
;	COMDAT ??_C@_05LBOHBHFK@close@
CONST	SEGMENT
??_C@_05LBOHBHFK@close@ DB 'close', 00H			; `string'
CONST	ENDS
;	COMDAT ??_C@_0BC@PIJLHOMJ@BINARY_Cube_Close@
CONST	SEGMENT
??_C@_0BC@PIJLHOMJ@BINARY_Cube_Close@ DB 'BINARY_Cube_Close', 00H ; `string'
CONST	ENDS
;	COMDAT ??_C@_04PMOCAHAA@open@
CONST	SEGMENT
??_C@_04PMOCAHAA@open@ DB 'open', 00H			; `string'
CONST	ENDS
;	COMDAT ??_C@_0BB@OJMMNJOG@BINARY_Cube_Open@
CONST	SEGMENT
??_C@_0BB@OJMMNJOG@BINARY_Cube_Open@ DB 'BINARY_Cube_Open', 00H ; `string'
CONST	ENDS
;	COMDAT ??_C@_09MBHMFCFC@Gift_Show@
CONST	SEGMENT
??_C@_09MBHMFCFC@Gift_Show@ DB 'Gift_Show', 00H		; `string'
CONST	ENDS
;	COMDAT ??_C@_04OIHHNFHN@cube@
CONST	SEGMENT
??_C@_04OIHHNFHN@cube@ DB 'cube', 00H			; `string'
CONST	ENDS
;	COMDAT ??_C@_0FD@MGEFFJHF@CPythonNetworkStream?3?3ServerCom@
CONST	SEGMENT
??_C@_0FD@MGEFFJHF@CPythonNetworkStream?3?3ServerCom@ DB 'CPythonNetworkS'
	DB	'tream::ServerCommand(c_szCommand=%s) - Strange Parameter Coun'
	DB	't : %s', 00H				; `string'
CONST	ENDS
;	COMDAT ??_C@_04FDOIBAFG@gift@
CONST	SEGMENT
??_C@_04FDOIBAFG@gift@ DB 'gift', 00H			; `string'
CONST	ENDS
;	COMDAT ??_C@_04KNNLNNGO@quit@
CONST	SEGMENT
??_C@_04KNNLNNGO@quit@ DB 'quit', 00H			; `string'
CONST	ENDS
;	COMDAT ??_C@_0N@JEPOMHGB@BettingMoney@
CONST	SEGMENT
??_C@_0N@JEPOMHGB@BettingMoney@ DB 'BettingMoney', 00H	; `string'
CONST	ENDS
;	COMDAT ??_C@_0O@NGPLKLCI@ConsoleEnable@
CONST	SEGMENT
??_C@_0O@NGPLKLCI@ConsoleEnable@ DB 'ConsoleEnable', 00H ; `string'
CONST	ENDS
;	COMDAT ??_C@_0BJ@GKNJMEFC@BINARY_ServerCommand_Run@
CONST	SEGMENT
??_C@_0BJ@GKNJMEFC@BINARY_ServerCommand_Run@ DB 'BINARY_ServerCommand_Run'
	DB	00H						; `string'
CONST	ENDS
;	COMDAT ??_C@_02KEGNLNML@?0?5@
CONST	SEGMENT
??_C@_02KEGNLNML@?0?5@ DB ', ', 00H			; `string'
CONST	ENDS
;	COMDAT ??_C@_01BJJEKLCA@?$CC@
CONST	SEGMENT
??_C@_01BJJEKLCA@?$CC@ DB '"', 00H			; `string'
PUBLIC	??0?$basic_string@DU?$char_traits@D@std@@V?$allocator@D@2@@std@@QAE@ABV01@IIABV?$allocator@D@1@@Z ; std::basic_string<char,std::char_traits<char>,std::allocator<char> >::basic_string<char,std::char_traits<char>,std::allocator<char> >
PUBLIC	?_Clamp_suffix_size@?$_String_val@U?$_Simple_types@D@std@@@std@@QBEIII@Z ; std::_String_val<std::_Simple_types<char> >::_Clamp_suffix_size
PUBLIC	?_Check_offset@?$_String_val@U?$_Simple_types@D@std@@@std@@QBEXI@Z ; std::_String_val<std::_Simple_types<char> >::_Check_offset
PUBLIC	?_Xran@?$_String_val@U?$_Simple_types@D@std@@@std@@SAXXZ ; std::_String_val<std::_Simple_types<char> >::_Xran
PUBLIC	??$?0ABV?$allocator@D@std@@$$V@?$_Compressed_pair@V?$allocator@D@std@@V?$_String_val@U?$_Simple_types@D@std@@@2@$00@std@@QAE@U_One_then_variadic_args_t@1@ABV?$allocator@D@1@@Z ; std::_Compressed_pair<std::allocator<char>,std::_String_val<std::_Simple_types<char> >,1>::_Compressed_pair<std::allocator<char>,std::_String_val<std::_Simple_types<char> >,1><std::allocator<char> const &>
PUBLIC	??$forward@ABV?$allocator@D@std@@@std@@YAABV?$allocator@D@0@ABV10@@Z ; std::forward<std::allocator<char> const &>
PUBLIC	??$_Traits_find_first_not_of@U?$char_traits@D@std@@$0A@@std@@YAIQBDII0I@Z ; std::_Traits_find_first_not_of<std::char_traits<char>,0>
PUBLIC	??$_Traits_find_first_not_of@U?$char_traits@D@std@@$00@std@@YAIQBDII0I@Z ; std::_Traits_find_first_not_of<std::char_traits<char>,1>
PUBLIC	?_Reallocate_exactly@?$vector@V?$basic_string@DU?$char_traits@D@std@@V?$allocator@D@2@@std@@V?$allocator@V?$basic_string@DU?$char_traits@D@std@@V?$allocator@D@2@@std@@@2@@std@@AAEXI@Z ; std::vector<std::basic_string<char,std::char_traits<char>,std::allocator<char> >,std::allocator<std::basic_string<char,std::char_traits<char>,std::allocator<char> > > >::_Reallocate_exactly
PUBLIC	?find_first_not_of@?$basic_string@DU?$char_traits@D@std@@V?$allocator@D@2@@std@@QBEIQBDI@Z ; std::basic_string<char,std::char_traits<char>,std::allocator<char> >::find_first_not_of
PUBLIC	?substr@?$basic_string@DU?$char_traits@D@std@@V?$allocator@D@2@@std@@QGBE?AV12@II@Z ; std::basic_string<char,std::char_traits<char>,std::allocator<char> >::substr
PUBLIC	?reserve@?$vector@V?$basic_string@DU?$char_traits@D@std@@V?$allocator@D@2@@std@@V?$allocator@V?$basic_string@DU?$char_traits@D@std@@V?$allocator@D@2@@std@@@2@@std@@QAEXI@Z ; std::vector<std::basic_string<char,std::char_traits<char>,std::allocator<char> >,std::allocator<std::basic_string<char,std::char_traits<char>,std::allocator<char> > > >::reserve
PUBLIC	?empty@?$vector@V?$basic_string@DU?$char_traits@D@std@@V?$allocator@D@2@@std@@V?$allocator@V?$basic_string@DU?$char_traits@D@std@@V?$allocator@D@2@@std@@@2@@std@@QBE_NXZ ; std::vector<std::basic_string<char,std::char_traits<char>,std::allocator<char> >,std::allocator<std::basic_string<char,std::char_traits<char>,std::allocator<char> > > >::empty
PUBLIC	?GetSingleton@?$TAbstractSingleton@VIAbstractCharacterManager@@@@SAAAVIAbstractCharacterManager@@XZ ; TAbstractSingleton<IAbstractCharacterManager>::GetSingleton
PUBLIC	?ServerCommand@CPythonNetworkStream@@QAEXPAD@Z	; CPythonNetworkStream::ServerCommand
PUBLIC	?SplitToken@@YA_NPBDPAV?$vector@V?$basic_string@DU?$char_traits@D@std@@V?$allocator@D@2@@std@@V?$allocator@V?$basic_string@DU?$char_traits@D@std@@V?$allocator@D@2@@std@@@2@@std@@0@Z ; SplitToken
PUBLIC	?ClientCommand@CPythonNetworkStream@@QAE_NPBD@Z	; CPythonNetworkStream::ClientCommand
;	COMDAT ?$TSS0@?NE@??ServerCommand@CPythonNetworkStream@@QAEXPAD@Z@4HA
_BSS	SEGMENT
?$TSS0@?NE@??ServerCommand@CPythonNetworkStream@@QAEXPAD@Z@4HA DD 01H DUP (?) ; `CPythonNetworkStream::ServerCommand'::`212'::$TSS0
_BSS	ENDS
;	COMDAT ?s_emotionDict@?NE@??ServerCommand@CPythonNetworkStream@@QAEXPAD@Z@4V?$map@V?$basic_string@DU?$char_traits@D@std@@V?$allocator@D@2@@std@@HU?$less@V?$basic_string@DU?$char_traits@D@std@@V?$allocator@D@2@@std@@@2@V?$allocator@U?$pair@$$CBV?$basic_string@DU?$char_traits@D@std@@V?$allocator@D@2@@std@@H@std@@@2@@std@@A
_BSS	SEGMENT
?s_emotionDict@?NE@??ServerCommand@CPythonNetworkStream@@QAEXPAD@Z@4V?$map@V?$basic_string@DU?$char_traits@D@std@@V?$allocator@D@2@@std@@HU?$less@V?$basic_string@DU?$char_traits@D@std@@V?$allocator@D@2@@std@@@2@V?$allocator@U?$pair@$$CBV?$basic_string@DU?$char_traits@D@std@@V?$allocator@D@2@@std@@H@std@@@2@@std@@A DQ 01H DUP (?) ; `CPythonNetworkStream::ServerCommand'::`212'::s_emotionDict
_BSS	ENDS
;	COMDAT xdata$x
xdata$x	SEGMENT
__ehfuncinfo$?SplitToken@@YA_NPBDPAV?$vector@V?$basic_string@DU?$char_traits@D@std@@V?$allocator@D@2@@std@@V?$allocator@V?$basic_string@DU?$char_traits@D@std@@V?$allocator@D@2@@std@@@2@@std@@0@Z DD 019930522H
	DD	03H
	DD	FLAT:__unwindtable$?SplitToken@@YA_NPBDPAV?$vector@V?$basic_string@DU?$char_traits@D@std@@V?$allocator@D@2@@std@@V?$allocator@V?$basic_string@DU?$char_traits@D@std@@V?$allocator@D@2@@std@@@2@@std@@0@Z
	DD	2 DUP(00H)
	DD	2 DUP(00H)
	DD	00H
	DD	01H
__unwindtable$?SplitToken@@YA_NPBDPAV?$vector@V?$basic_string@DU?$char_traits@D@std@@V?$allocator@D@2@@std@@V?$allocator@V?$basic_string@DU?$char_traits@D@std@@V?$allocator@D@2@@std@@@2@@std@@0@Z DD 0ffffffffH
	DD	FLAT:__unwindfunclet$?SplitToken@@YA_NPBDPAV?$vector@V?$basic_string@DU?$char_traits@D@std@@V?$allocator@D@2@@std@@V?$allocator@V?$basic_string@DU?$char_traits@D@std@@V?$allocator@D@2@@std@@@2@@std@@0@Z$0
	DD	00H
	DD	FLAT:__unwindfunclet$?SplitToken@@YA_NPBDPAV?$vector@V?$basic_string@DU?$char_traits@D@std@@V?$allocator@D@2@@std@@V?$allocator@V?$basic_string@DU?$char_traits@D@std@@V?$allocator@D@2@@std@@@2@@std@@0@Z$1
	DD	01H
	DD	FLAT:__unwindfunclet$?SplitToken@@YA_NPBDPAV?$vector@V?$basic_string@DU?$char_traits@D@std@@V?$allocator@D@2@@std@@V?$allocator@V?$basic_string@DU?$char_traits@D@std@@V?$allocator@D@2@@std@@@2@@std@@0@Z$2
xdata$x	ENDS
;	COMDAT xdata$x
xdata$x	SEGMENT
__ehfuncinfo$?ServerCommand@CPythonNetworkStream@@QAEXPAD@Z DD 019930522H
	DD	010H
	DD	FLAT:__unwindtable$?ServerCommand@CPythonNetworkStream@@QAEXPAD@Z
	DD	2 DUP(00H)
	DD	2 DUP(00H)
	DD	00H
	DD	01H
	ORG $+4
__unwindtable$?ServerCommand@CPythonNetworkStream@@QAEXPAD@Z DD 0ffffffffH
	DD	FLAT:__unwindfunclet$?ServerCommand@CPythonNetworkStream@@QAEXPAD@Z$0
	DD	00H
	DD	FLAT:__unwindfunclet$?ServerCommand@CPythonNetworkStream@@QAEXPAD@Z$1
	DD	00H
	DD	FLAT:__unwindfunclet$?ServerCommand@CPythonNetworkStream@@QAEXPAD@Z$2
	DD	00H
	DD	FLAT:__unwindfunclet$?ServerCommand@CPythonNetworkStream@@QAEXPAD@Z$3
	DD	00H
	DD	FLAT:__unwindfunclet$?ServerCommand@CPythonNetworkStream@@QAEXPAD@Z$4
	DD	00H
	DD	FLAT:__unwindfunclet$?ServerCommand@CPythonNetworkStream@@QAEXPAD@Z$5
	DD	00H
	DD	FLAT:__unwindfunclet$?ServerCommand@CPythonNetworkStream@@QAEXPAD@Z$6
	DD	00H
	DD	FLAT:__unwindfunclet$?ServerCommand@CPythonNetworkStream@@QAEXPAD@Z$7
	DD	00H
	DD	FLAT:__unwindfunclet$?ServerCommand@CPythonNetworkStream@@QAEXPAD@Z$8
	DD	00H
	DD	FLAT:__unwindfunclet$?ServerCommand@CPythonNetworkStream@@QAEXPAD@Z$9
	DD	00H
	DD	FLAT:__unwindfunclet$?ServerCommand@CPythonNetworkStream@@QAEXPAD@Z$10
	DD	00H
	DD	FLAT:__unwindfunclet$?ServerCommand@CPythonNetworkStream@@QAEXPAD@Z$11
	DD	00H
	DD	FLAT:__unwindfunclet$?ServerCommand@CPythonNetworkStream@@QAEXPAD@Z$12
	DD	00H
	DD	FLAT:__unwindfunclet$?ServerCommand@CPythonNetworkStream@@QAEXPAD@Z$13
	DD	00H
	DD	FLAT:__unwindfunclet$?ServerCommand@CPythonNetworkStream@@QAEXPAD@Z$14
	DD	00H
	DD	FLAT:__unwindfunclet$?ServerCommand@CPythonNetworkStream@@QAEXPAD@Z$15
; Function compile flags: /Ogtp
; File E:\Metin2_server\SolWayneSF v6\ClientVS22\source\UserInterface\PythonNetworkStreamCommand.cpp
;	COMDAT ?ClientCommand@CPythonNetworkStream@@QAE_NPBD@Z
_TEXT	SEGMENT
_c_szCommand$dead$ = 8					; size = 4
?ClientCommand@CPythonNetworkStream@@QAE_NPBD@Z PROC	; CPythonNetworkStream::ClientCommand, COMDAT
; _this$dead$ = ecx

; 85   : 	return false;

  00000	32 c0		 xor	 al, al

; 86   : }

  00002	c2 04 00	 ret	 4
?ClientCommand@CPythonNetworkStream@@QAE_NPBD@Z ENDP	; CPythonNetworkStream::ClientCommand
_TEXT	ENDS
; Function compile flags: /Ogtp
; File E:\Metin2_server\SolWayneSF v6\ClientVS22\source\UserInterface\PythonNetworkStreamCommand.cpp
; File C:\Program Files\Microsoft Visual Studio\2022\Community\VC\Tools\MSVC\14.34.31933\include\vector
; File C:\Program Files\Microsoft Visual Studio\2022\Community\VC\Tools\MSVC\14.34.31933\include\xstring
; File E:\Metin2_server\SolWayneSF v6\ClientVS22\source\UserInterface\PythonNetworkStreamCommand.cpp
; File C:\Program Files\Microsoft Visual Studio\2022\Community\VC\Tools\MSVC\14.34.31933\include\xstring
; File E:\Metin2_server\SolWayneSF v6\ClientVS22\source\UserInterface\PythonNetworkStreamCommand.cpp
; File C:\Program Files\Microsoft Visual Studio\2022\Community\VC\Tools\MSVC\14.34.31933\include\xstring
; File E:\Metin2_server\SolWayneSF v6\ClientVS22\source\UserInterface\PythonNetworkStreamCommand.cpp
; File C:\Program Files\Microsoft Visual Studio\2022\Community\VC\Tools\MSVC\14.34.31933\include\xstring
; File E:\Metin2_server\SolWayneSF v6\ClientVS22\source\UserInterface\PythonNetworkStreamCommand.cpp
; File C:\Program Files\Microsoft Visual Studio\2022\Community\VC\Tools\MSVC\14.34.31933\include\xstring
; File E:\Metin2_server\SolWayneSF v6\ClientVS22\source\UserInterface\PythonNetworkStreamCommand.cpp
; File C:\Program Files\Microsoft Visual Studio\2022\Community\VC\Tools\MSVC\14.34.31933\include\xstring
; File E:\Metin2_server\SolWayneSF v6\ClientVS22\source\UserInterface\PythonNetworkStreamCommand.cpp
; File C:\Program Files\Microsoft Visual Studio\2022\Community\VC\Tools\MSVC\14.34.31933\include\xstring
; File E:\Metin2_server\SolWayneSF v6\ClientVS22\source\UserInterface\PythonNetworkStreamCommand.cpp
; File C:\Program Files\Microsoft Visual Studio\2022\Community\VC\Tools\MSVC\14.34.31933\include\xstring
; File E:\Metin2_server\SolWayneSF v6\ClientVS22\source\UserInterface\PythonNetworkStreamCommand.cpp
; File C:\Program Files\Microsoft Visual Studio\2022\Community\VC\Tools\MSVC\14.34.31933\include\xstring
; File E:\Metin2_server\SolWayneSF v6\ClientVS22\source\UserInterface\PythonNetworkStreamCommand.cpp
; File C:\Program Files\Microsoft Visual Studio\2022\Community\VC\Tools\MSVC\14.34.31933\include\xstring
; File E:\Metin2_server\SolWayneSF v6\ClientVS22\source\UserInterface\PythonNetworkStreamCommand.cpp
; File C:\Program Files\Microsoft Visual Studio\2022\Community\VC\Tools\MSVC\14.34.31933\include\xstring
; File E:\Metin2_server\SolWayneSF v6\ClientVS22\source\UserInterface\PythonNetworkStreamCommand.cpp
; File C:\Program Files\Microsoft Visual Studio\2022\Community\VC\Tools\MSVC\14.34.31933\include\xstring
; File C:\Program Files\Microsoft Visual Studio\2022\Community\VC\Tools\MSVC\14.34.31933\include\vector
; File E:\Metin2_server\SolWayneSF v6\ClientVS22\source\UserInterface\PythonNetworkStreamCommand.cpp
; File C:\Program Files\Microsoft Visual Studio\2022\Community\VC\Tools\MSVC\14.34.31933\include\vector
; File C:\Program Files\Microsoft Visual Studio\2022\Community\VC\Tools\MSVC\14.34.31933\include\xstring
; File C:\Program Files\Microsoft Visual Studio\2022\Community\VC\Tools\MSVC\14.34.31933\include\vector
; File E:\Metin2_server\SolWayneSF v6\ClientVS22\source\UserInterface\PythonNetworkStreamCommand.cpp
; File C:\Program Files\Microsoft Visual Studio\2022\Community\VC\Tools\MSVC\14.34.31933\include\xstring
; File C:\Program Files\Microsoft Visual Studio\2022\Community\VC\Tools\MSVC\14.34.31933\include\xmemory
; File C:\Program Files\Microsoft Visual Studio\2022\Community\VC\Tools\MSVC\14.34.31933\include\xstring
; File C:\Program Files\Microsoft Visual Studio\2022\Community\VC\Tools\MSVC\14.34.31933\include\xmemory
; File C:\Program Files\Microsoft Visual Studio\2022\Community\VC\Tools\MSVC\14.34.31933\include\xstring
; File E:\Metin2_server\SolWayneSF v6\ClientVS22\source\UserInterface\PythonNetworkStreamCommand.cpp
; File C:\Program Files\Microsoft Visual Studio\2022\Community\VC\Tools\MSVC\14.34.31933\include\xstring
; File C:\Program Files\Microsoft Visual Studio\2022\Community\VC\Tools\MSVC\14.34.31933\include\xmemory
; File E:\Metin2_server\SolWayneSF v6\ClientVS22\source\UserInterface\PythonNetworkStreamCommand.cpp
; File C:\Program Files\Microsoft Visual Studio\2022\Community\VC\Tools\MSVC\14.34.31933\include\xstring
; File C:\Program Files\Microsoft Visual Studio\2022\Community\VC\Tools\MSVC\14.34.31933\include\xmemory
; File E:\Metin2_server\SolWayneSF v6\ClientVS22\source\UserInterface\PythonNetworkStreamCommand.cpp
;	COMDAT ?SplitToken@@YA_NPBDPAV?$vector@V?$basic_string@DU?$char_traits@D@std@@V?$allocator@D@2@@std@@V?$allocator@V?$basic_string@DU?$char_traits@D@std@@V?$allocator@D@2@@std@@@2@@std@@0@Z
_TEXT	SEGMENT
_pstTokenVector$GSCopy$1$ = -104			; size = 4
_basePos$1$ = -100					; size = 4
tv1675 = -93						; size = 1
$T2 = -93						; size = 1
_stToken$ = -92						; size = 24
$T3 = -68						; size = 24
_strLine$ = -44						; size = 24
__$ArrayPad$ = -20					; size = 4
__$EHRec$ = -12						; size = 12
_c_szDelimeter$dead$ = 8				; size = 4
?SplitToken@@YA_NPBDPAV?$vector@V?$basic_string@DU?$char_traits@D@std@@V?$allocator@D@2@@std@@V?$allocator@V?$basic_string@DU?$char_traits@D@std@@V?$allocator@D@2@@std@@@2@@std@@0@Z PROC ; SplitToken, COMDAT
; _c_szLine$ = ecx
; _pstTokenVector$ = edx

; 89   : {

  00000	53		 push	 ebx
  00001	8b dc		 mov	 ebx, esp
  00003	83 ec 08	 sub	 esp, 8
  00006	83 e4 f8	 and	 esp, -8			; fffffff8H
  00009	83 c4 04	 add	 esp, 4
  0000c	55		 push	 ebp
  0000d	8b 6b 04	 mov	 ebp, DWORD PTR [ebx+4]
  00010	89 6c 24 04	 mov	 DWORD PTR [esp+4], ebp
  00014	8b ec		 mov	 ebp, esp
  00016	6a ff		 push	 -1
  00018	68 00 00 00 00	 push	 __ehhandler$?SplitToken@@YA_NPBDPAV?$vector@V?$basic_string@DU?$char_traits@D@std@@V?$allocator@D@2@@std@@V?$allocator@V?$basic_string@DU?$char_traits@D@std@@V?$allocator@D@2@@std@@@2@@std@@0@Z
  0001d	64 a1 00 00 00
	00		 mov	 eax, DWORD PTR fs:0
  00023	50		 push	 eax
  00024	53		 push	 ebx
  00025	83 ec 58	 sub	 esp, 88			; 00000058H
  00028	a1 00 00 00 00	 mov	 eax, DWORD PTR ___security_cookie
  0002d	33 c5		 xor	 eax, ebp
  0002f	89 45 ec	 mov	 DWORD PTR __$ArrayPad$[ebp], eax
  00032	56		 push	 esi
  00033	57		 push	 edi
  00034	50		 push	 eax
  00035	8d 45 f4	 lea	 eax, DWORD PTR __$EHRec$[ebp]
  00038	64 a3 00 00 00
	00		 mov	 DWORD PTR fs:0, eax
  0003e	8b f2		 mov	 esi, edx
  00040	89 75 98	 mov	 DWORD PTR _pstTokenVector$GSCopy$1$[ebp], esi
  00043	8b f9		 mov	 edi, ecx
; File C:\Program Files\Microsoft Visual Studio\2022\Community\VC\Tools\MSVC\14.34.31933\include\vector

; 1942 :         return static_cast<size_type>(_My_data._Myend - _My_data._Myfirst);

  00045	8b 46 08	 mov	 eax, DWORD PTR [esi+8]
  00048	2b 06		 sub	 eax, DWORD PTR [esi]
  0004a	c1 f8 03	 sar	 eax, 3
  0004d	69 c0 ab aa aa
	aa		 imul	 eax, eax, -1431655765

; 1743 :         if (_Newcapacity > capacity()) { // something to do (reserve() never shrinks)

  00053	83 f8 0a	 cmp	 eax, 10			; 0000000aH
  00056	73 09		 jae	 SHORT $LN295@SplitToken

; 1744 :             if (_Newcapacity > max_size()) {
; 1745 :                 _Xlength();
; 1746 :             }
; 1747 : 
; 1748 :             _Reallocate_exactly(_Newcapacity);

  00058	6a 0a		 push	 10			; 0000000aH
  0005a	8b ce		 mov	 ecx, esi
  0005c	e8 00 00 00 00	 call	 ?_Reallocate_exactly@?$vector@V?$basic_string@DU?$char_traits@D@std@@V?$allocator@D@2@@std@@V?$allocator@V?$basic_string@DU?$char_traits@D@std@@V?$allocator@D@2@@std@@@2@@std@@AAEXI@Z ; std::vector<std::basic_string<char,std::char_traits<char>,std::allocator<char> >,std::allocator<std::basic_string<char,std::char_traits<char>,std::allocator<char> > > >::_Reallocate_exactly
$LN295@SplitToken:

; 1829 :         if (_Myfirst == _Mylast) { // already empty, nothing to do

  00061	8b 06		 mov	 eax, DWORD PTR [esi]
  00063	8b 4e 04	 mov	 ecx, DWORD PTR [esi+4]
  00066	3b c1		 cmp	 eax, ecx
  00068	74 10		 je	 SHORT $LN300@SplitToken

; 1830 :             // This is an optimization for debug mode: we can avoid taking the debug lock to invalidate iterators.
; 1831 :             // Note that when clearing an empty vector, this will preserve past-the-end iterators, which is allowed by
; 1832 :             // N4901 [tab:container.seq.req] "a.clear() [...] may invalidate the past-the-end iterator".
; 1833 :             return;
; 1834 :         }
; 1835 : 
; 1836 :         _My_data._Orphan_all();
; 1837 :         _Destroy_range(_Myfirst, _Mylast, _Getal());

  0006a	56		 push	 esi
  0006b	51		 push	 ecx
  0006c	50		 push	 eax
  0006d	e8 00 00 00 00	 call	 ??$_Destroy_range@V?$allocator@V?$basic_string@DU?$char_traits@D@std@@V?$allocator@D@2@@std@@@std@@@std@@YAXPAV?$basic_string@DU?$char_traits@D@std@@V?$allocator@D@2@@0@QAV10@AAV?$allocator@V?$basic_string@DU?$char_traits@D@std@@V?$allocator@D@2@@std@@@0@@Z ; std::_Destroy_range<std::allocator<std::basic_string<char,std::char_traits<char>,std::allocator<char> > > >

; 1838 :         _ASAN_VECTOR_MODIFY(static_cast<difference_type>(_Myfirst - _Mylast)); // negative when destroying elements
; 1839 :         _Mylast = _Myfirst;

  00072	8b 06		 mov	 eax, DWORD PTR [esi]
  00074	83 c4 0c	 add	 esp, 12			; 0000000cH
  00077	89 46 04	 mov	 DWORD PTR [esi+4], eax
$LN300@SplitToken:
  0007a	0f 57 c0	 xorps	 xmm0, xmm0
; File C:\Program Files\Microsoft Visual Studio\2022\Community\VC\Tools\MSVC\14.34.31933\include\xstring

; 4995 :         _My_data._Mysize = 0;

  0007d	c7 45 b4 00 00
	00 00		 mov	 DWORD PTR _stToken$[ebp+16], 0

; 2339 :         _CONSTEXPR20 _Bxty() noexcept : _Buf() {} // user-provided, for fancy pointers

  00084	0f 11 45 a4	 movups	 XMMWORD PTR _stToken$[ebp], xmm0

; 4996 :         _My_data._Myres  = _BUF_SIZE - 1;

  00088	c7 45 b8 0f 00
	00 00		 mov	 DWORD PTR _stToken$[ebp+20], 15 ; 0000000fH

; 4997 :         _My_data._Activate_SSO_buffer();
; 4998 : 
; 4999 :         // the _Traits::assign is last so the codegen doesn't think the char write can alias this
; 5000 :         _Traits::assign(_My_data._Bx._Buf[0], _Elem());

  0008f	c6 45 a4 00	 mov	 BYTE PTR _stToken$[ebp], 0

; 415  :             return __builtin_strlen(_First);

  00093	8b cf		 mov	 ecx, edi
; File E:\Metin2_server\SolWayneSF v6\ClientVS22\source\UserInterface\PythonNetworkStreamCommand.cpp

; 93   : 	std::string stToken;

  00095	c7 45 fc 00 00
	00 00		 mov	 DWORD PTR __$EHRec$[ebp+8], 0
; File C:\Program Files\Microsoft Visual Studio\2022\Community\VC\Tools\MSVC\14.34.31933\include\xstring

; 2339 :         _CONSTEXPR20 _Bxty() noexcept : _Buf() {} // user-provided, for fancy pointers

  0009c	0f 11 45 d4	 movups	 XMMWORD PTR _strLine$[ebp], xmm0

; 2348 :     size_type _Mysize = 0; // current length of string

  000a0	c7 45 e4 00 00
	00 00		 mov	 DWORD PTR _strLine$[ebp+16], 0

; 2349 :     size_type _Myres  = 0; // current storage reserved for string

  000a7	c7 45 e8 00 00
	00 00		 mov	 DWORD PTR _strLine$[ebp+20], 0

; 415  :             return __builtin_strlen(_First);

  000ae	8d 51 01	 lea	 edx, DWORD PTR [ecx+1]
$LL465@SplitToken:
  000b1	8a 01		 mov	 al, BYTE PTR [ecx]
  000b3	41		 inc	 ecx
  000b4	84 c0		 test	 al, al
  000b6	75 f9		 jne	 SHORT $LL465@SplitToken
  000b8	2b ca		 sub	 ecx, edx

; 2674 :         _Construct<_Construct_strategy::_From_ptr>(_Ptr, _Convert_size<size_type>(_Traits::length(_Ptr)));

  000ba	51		 push	 ecx
  000bb	57		 push	 edi
  000bc	8d 4d d4	 lea	 ecx, DWORD PTR _strLine$[ebp]
  000bf	e8 00 00 00 00	 call	 ??$_Construct@$00PBD@?$basic_string@DU?$char_traits@D@std@@V?$allocator@D@2@@std@@AAEXQBDI@Z ; std::basic_string<char,std::char_traits<char>,std::allocator<char> >::_Construct<1,char const *>
; File E:\Metin2_server\SolWayneSF v6\ClientVS22\source\UserInterface\PythonNetworkStreamCommand.cpp

; 94   : 	std::string strLine = c_szLine;

  000c4	c6 45 fc 01	 mov	 BYTE PTR __$EHRec$[ebp+8], 1

; 95   : 
; 96   : 	DWORD basePos = 0;

  000c8	33 c0		 xor	 eax, eax
  000ca	8b 75 e4	 mov	 esi, DWORD PTR _strLine$[ebp+16]
  000cd	8b 7d d4	 mov	 edi, DWORD PTR _strLine$[ebp]
$LL4@SplitToken:
; File C:\Program Files\Microsoft Visual Studio\2022\Community\VC\Tools\MSVC\14.34.31933\include\xstring

; 2301 :         return _BUF_SIZE <= _Myres;

  000d0	83 7d e8 10	 cmp	 DWORD PTR _strLine$[ebp+20], 16 ; 00000010H

; 2292 :         const value_type* _Result = _Bx._Buf;

  000d4	8d 4d d4	 lea	 ecx, DWORD PTR _strLine$[ebp]

; 4675 :         return static_cast<size_type>(_Traits_find_first_not_of<_Traits>(

  000d7	6a 01		 push	 1
  000d9	68 00 00 00 00	 push	 OFFSET ??_C@_01CLKCMJKC@?5@

; 2293 :         if (_Large_string_engaged()) {

  000de	0f 43 cf	 cmovae	 ecx, edi

; 4675 :         return static_cast<size_type>(_Traits_find_first_not_of<_Traits>(

  000e1	8b d6		 mov	 edx, esi
  000e3	50		 push	 eax

; 2301 :         return _BUF_SIZE <= _Myres;

  000e4	0f 93 45 a3	 setae	 BYTE PTR tv1675[ebp]

; 4675 :         return static_cast<size_type>(_Traits_find_first_not_of<_Traits>(

  000e8	e8 00 00 00 00	 call	 ??$_Traits_find_first_not_of@U?$char_traits@D@std@@$00@std@@YAIQBDII0I@Z ; std::_Traits_find_first_not_of<std::char_traits<char>,1>
; File E:\Metin2_server\SolWayneSF v6\ClientVS22\source\UserInterface\PythonNetworkStreamCommand.cpp

; 100  : 		int beginPos = strLine.find_first_not_of(c_szDelimeter, basePos);

  000ed	8b f8		 mov	 edi, eax
; File C:\Program Files\Microsoft Visual Studio\2022\Community\VC\Tools\MSVC\14.34.31933\include\xstring

; 4675 :         return static_cast<size_type>(_Traits_find_first_not_of<_Traits>(

  000ef	83 c4 0c	 add	 esp, 12			; 0000000cH
; File E:\Metin2_server\SolWayneSF v6\ClientVS22\source\UserInterface\PythonNetworkStreamCommand.cpp

; 101  : 		if (beginPos < 0)

  000f2	85 ff		 test	 edi, edi
  000f4	0f 88 44 01 00
	00		 js	 $LN450@SplitToken
; File C:\Program Files\Microsoft Visual Studio\2022\Community\VC\Tools\MSVC\14.34.31933\include\xstring

; 2284 :         if (_Large_string_engaged()) {

  000fa	8a 55 a3	 mov	 dl, BYTE PTR tv1675[ebp]
  000fd	8d 4d d4	 lea	 ecx, DWORD PTR _strLine$[ebp]
  00100	8b 45 d4	 mov	 eax, DWORD PTR _strLine$[ebp]
  00103	84 d2		 test	 dl, dl
; File E:\Metin2_server\SolWayneSF v6\ClientVS22\source\UserInterface\PythonNetworkStreamCommand.cpp

; 106  : 		if (strLine[beginPos] == '"')

  00105	6a 01		 push	 1
; File C:\Program Files\Microsoft Visual Studio\2022\Community\VC\Tools\MSVC\14.34.31933\include\xstring

; 2284 :         if (_Large_string_engaged()) {

  00107	0f 45 c8	 cmovne	 ecx, eax
; File E:\Metin2_server\SolWayneSF v6\ClientVS22\source\UserInterface\PythonNetworkStreamCommand.cpp

; 106  : 		if (strLine[beginPos] == '"')

  0010a	80 3c 39 22	 cmp	 BYTE PTR [ecx+edi], 34	; 00000022H
  0010e	8d 4d d4	 lea	 ecx, DWORD PTR _strLine$[ebp]
  00111	75 28		 jne	 SHORT $LN6@SplitToken

; 107  : 		{
; 108  : 			++beginPos;

  00113	47		 inc	 edi
; File C:\Program Files\Microsoft Visual Studio\2022\Community\VC\Tools\MSVC\14.34.31933\include\xstring

; 2293 :         if (_Large_string_engaged()) {

  00114	84 d2		 test	 dl, dl

; 4600 :         return static_cast<size_type>(_Traits_find_first_of<_Traits>(

  00116	68 00 00 00 00	 push	 OFFSET ??_C@_01BJJEKLCA@?$CC@

; 2293 :         if (_Large_string_engaged()) {

  0011b	0f 45 c8	 cmovne	 ecx, eax

; 4600 :         return static_cast<size_type>(_Traits_find_first_of<_Traits>(

  0011e	8b d6		 mov	 edx, esi
  00120	57		 push	 edi
  00121	e8 00 00 00 00	 call	 ??$_Traits_find_first_of@U?$char_traits@D@std@@$00@std@@YAIQBDII0I@Z ; std::_Traits_find_first_of<std::char_traits<char>,1>
; File E:\Metin2_server\SolWayneSF v6\ClientVS22\source\UserInterface\PythonNetworkStreamCommand.cpp

; 109  : 			endPos = strLine.find_first_of("\"", beginPos);

  00126	8b c8		 mov	 ecx, eax
; File C:\Program Files\Microsoft Visual Studio\2022\Community\VC\Tools\MSVC\14.34.31933\include\xstring

; 4600 :         return static_cast<size_type>(_Traits_find_first_of<_Traits>(

  00128	83 c4 0c	 add	 esp, 12			; 0000000cH
; File E:\Metin2_server\SolWayneSF v6\ClientVS22\source\UserInterface\PythonNetworkStreamCommand.cpp

; 111  : 			if (endPos < 0)

  0012b	85 c9		 test	 ecx, ecx
  0012d	0f 88 0b 01 00
	00		 js	 $LN450@SplitToken

; 112  : 				return false;
; 113  : 			
; 114  : 			basePos = endPos + 1;

  00133	8d 41 01	 lea	 eax, DWORD PTR [ecx+1]
  00136	89 45 9c	 mov	 DWORD PTR _basePos$1$[ebp], eax

; 115  : 		}

  00139	eb 1a		 jmp	 SHORT $LN7@SplitToken
$LN6@SplitToken:
; File C:\Program Files\Microsoft Visual Studio\2022\Community\VC\Tools\MSVC\14.34.31933\include\xstring

; 2293 :         if (_Large_string_engaged()) {

  0013b	84 d2		 test	 dl, dl

; 4600 :         return static_cast<size_type>(_Traits_find_first_of<_Traits>(

  0013d	8b d6		 mov	 edx, esi
  0013f	68 00 00 00 00	 push	 OFFSET ??_C@_01CLKCMJKC@?5@

; 2293 :         if (_Large_string_engaged()) {

  00144	0f 45 c8	 cmovne	 ecx, eax

; 4600 :         return static_cast<size_type>(_Traits_find_first_of<_Traits>(

  00147	57		 push	 edi
  00148	e8 00 00 00 00	 call	 ??$_Traits_find_first_of@U?$char_traits@D@std@@$00@std@@YAIQBDII0I@Z ; std::_Traits_find_first_of<std::char_traits<char>,1>
; File E:\Metin2_server\SolWayneSF v6\ClientVS22\source\UserInterface\PythonNetworkStreamCommand.cpp

; 118  : 			endPos = strLine.find_first_of(c_szDelimeter, beginPos);

  0014d	8b c8		 mov	 ecx, eax
; File C:\Program Files\Microsoft Visual Studio\2022\Community\VC\Tools\MSVC\14.34.31933\include\xstring

; 4600 :         return static_cast<size_type>(_Traits_find_first_of<_Traits>(

  0014f	83 c4 0c	 add	 esp, 12			; 0000000cH
; File E:\Metin2_server\SolWayneSF v6\ClientVS22\source\UserInterface\PythonNetworkStreamCommand.cpp

; 119  : 			basePos = endPos;

  00152	89 4d 9c	 mov	 DWORD PTR _basePos$1$[ebp], ecx
$LN7@SplitToken:
; File C:\Program Files\Microsoft Visual Studio\2022\Community\VC\Tools\MSVC\14.34.31933\include\xstring

; 2348 :     size_type _Mysize = 0; // current length of string

  00155	c7 45 cc 00 00
	00 00		 mov	 DWORD PTR $T3[ebp+16], 0
  0015c	0f 57 c0	 xorps	 xmm0, xmm0

; 2349 :     size_type _Myres  = 0; // current storage reserved for string

  0015f	c7 45 d0 00 00
	00 00		 mov	 DWORD PTR $T3[ebp+20], 0

; 2339 :         _CONSTEXPR20 _Bxty() noexcept : _Buf() {} // user-provided, for fancy pointers

  00166	0f 11 45 bc	 movups	 XMMWORD PTR $T3[ebp], xmm0

; 2349 :     size_type _Myres  = 0; // current storage reserved for string

  0016a	3b f7		 cmp	 esi, edi

; 2317 :         if (_Mysize < _Off) {

  0016c	0f 82 23 01 00
	00		 jb	 $LN451@SplitToken
; File E:\Metin2_server\SolWayneSF v6\ClientVS22\source\UserInterface\PythonNetworkStreamCommand.cpp

; 122  : 		pstTokenVector->push_back(strLine.substr(beginPos, endPos - beginPos));

  00172	2b cf		 sub	 ecx, edi
; File C:\Program Files\Microsoft Visual Studio\2022\Community\VC\Tools\MSVC\14.34.31933\include\xstring

; 2292 :         const value_type* _Result = _Bx._Buf;

  00174	8d 45 d4	 lea	 eax, DWORD PTR _strLine$[ebp]

; 2645 :         _Construct<_Construct_strategy::_From_ptr>(

  00177	2b f7		 sub	 esi, edi

; 2335 :         return (_STD min)(_Size, _Mysize - _Off);

  00179	3b f1		 cmp	 esi, ecx
  0017b	0f 42 ce	 cmovb	 ecx, esi

; 2293 :         if (_Large_string_engaged()) {

  0017e	80 7d a3 00	 cmp	 BYTE PTR tv1675[ebp], 0

; 2645 :         _Construct<_Construct_strategy::_From_ptr>(

  00182	51		 push	 ecx

; 2293 :         if (_Large_string_engaged()) {

  00183	0f 45 45 d4	 cmovne	 eax, DWORD PTR _strLine$[ebp]

; 2645 :         _Construct<_Construct_strategy::_From_ptr>(

  00187	8d 4d bc	 lea	 ecx, DWORD PTR $T3[ebp]
  0018a	03 c7		 add	 eax, edi
  0018c	50		 push	 eax
  0018d	e8 00 00 00 00	 call	 ??$_Construct@$00PBD@?$basic_string@DU?$char_traits@D@std@@V?$allocator@D@2@@std@@AAEXQBDI@Z ; std::basic_string<char,std::char_traits<char>,std::allocator<char> >::_Construct<1,char const *>
; File C:\Program Files\Microsoft Visual Studio\2022\Community\VC\Tools\MSVC\14.34.31933\include\vector

; 844  :         if (_Mylast != _My_data._Myend) {

  00192	8b 45 98	 mov	 eax, DWORD PTR _pstTokenVector$GSCopy$1$[ebp]
; File E:\Metin2_server\SolWayneSF v6\ClientVS22\source\UserInterface\PythonNetworkStreamCommand.cpp

; 122  : 		pstTokenVector->push_back(strLine.substr(beginPos, endPos - beginPos));

  00195	c6 45 fc 02	 mov	 BYTE PTR __$EHRec$[ebp+8], 2
; File C:\Program Files\Microsoft Visual Studio\2022\Community\VC\Tools\MSVC\14.34.31933\include\vector

; 844  :         if (_Mylast != _My_data._Myend) {

  00199	8b 48 04	 mov	 ecx, DWORD PTR [eax+4]
  0019c	3b 48 08	 cmp	 ecx, DWORD PTR [eax+8]
  0019f	74 20		 je	 SHORT $LN90@SplitToken
; File C:\Program Files\Microsoft Visual Studio\2022\Community\VC\Tools\MSVC\14.34.31933\include\xstring

; 3137 :         _CSTD memcpy(_My_data_mem, _Right_data_mem, _Memcpy_val_size);

  001a1	0f 10 45 bc	 movups	 xmm0, XMMWORD PTR $T3[ebp]

; 5000 :         _Traits::assign(_My_data._Bx._Buf[0], _Elem());

  001a5	c6 45 bc 00	 mov	 BYTE PTR $T3[ebp], 0

; 3137 :         _CSTD memcpy(_My_data_mem, _Right_data_mem, _Memcpy_val_size);

  001a9	0f 11 01	 movups	 XMMWORD PTR [ecx], xmm0
  001ac	f3 0f 7e 45 cc	 movq	 xmm0, QWORD PTR $T3[ebp+16]
  001b1	66 0f d6 41 10	 movq	 QWORD PTR [ecx+16], xmm0

; 4996 :         _My_data._Myres  = _BUF_SIZE - 1;

  001b6	b9 0f 00 00 00	 mov	 ecx, 15			; 0000000fH
; File C:\Program Files\Microsoft Visual Studio\2022\Community\VC\Tools\MSVC\14.34.31933\include\vector

; 869  :         ++_Mylast;

  001bb	83 40 04 18	 add	 DWORD PTR [eax+4], 24	; 00000018H

; 845  :             return _Emplace_back_with_unused_capacity(_STD forward<_Valty>(_Val)...);

  001bf	eb 0f		 jmp	 SHORT $LN89@SplitToken
$LN90@SplitToken:

; 846  :         }
; 847  : 
; 848  :         return *_Emplace_reallocate(_Mylast, _STD forward<_Valty>(_Val)...);

  001c1	8d 55 bc	 lea	 edx, DWORD PTR $T3[ebp]
  001c4	52		 push	 edx
  001c5	51		 push	 ecx
  001c6	8b c8		 mov	 ecx, eax
  001c8	e8 00 00 00 00	 call	 ??$_Emplace_reallocate@V?$basic_string@DU?$char_traits@D@std@@V?$allocator@D@2@@std@@@?$vector@V?$basic_string@DU?$char_traits@D@std@@V?$allocator@D@2@@std@@V?$allocator@V?$basic_string@DU?$char_traits@D@std@@V?$allocator@D@2@@std@@@2@@std@@AAEPAV?$basic_string@DU?$char_traits@D@std@@V?$allocator@D@2@@1@QAV21@$$QAV21@@Z ; std::vector<std::basic_string<char,std::char_traits<char>,std::allocator<char> >,std::allocator<std::basic_string<char,std::char_traits<char>,std::allocator<char> > > >::_Emplace_reallocate<std::basic_string<char,std::char_traits<char>,std::allocator<char> > >
  001cd	8b 4d d0	 mov	 ecx, DWORD PTR $T3[ebp+20]
$LN89@SplitToken:
; File E:\Metin2_server\SolWayneSF v6\ClientVS22\source\UserInterface\PythonNetworkStreamCommand.cpp

; 122  : 		pstTokenVector->push_back(strLine.substr(beginPos, endPos - beginPos));

  001d0	c6 45 fc 01	 mov	 BYTE PTR __$EHRec$[ebp+8], 1
; File C:\Program Files\Microsoft Visual Studio\2022\Community\VC\Tools\MSVC\14.34.31933\include\xstring

; 2301 :         return _BUF_SIZE <= _Myres;

  001d4	83 f9 10	 cmp	 ecx, 16			; 00000010H

; 5008 :         if (_My_data._Large_string_engaged()) {

  001d7	72 2c		 jb	 SHORT $LN172@SplitToken
; File C:\Program Files\Microsoft Visual Studio\2022\Community\VC\Tools\MSVC\14.34.31933\include\xmemory

; 830  :         _Deallocate<_New_alignof<_Ty>>(_Ptr, sizeof(_Ty) * _Count);

  001d9	8b 55 bc	 mov	 edx, DWORD PTR $T3[ebp]
; File C:\Program Files\Microsoft Visual Studio\2022\Community\VC\Tools\MSVC\14.34.31933\include\xstring

; 5013 :             _Al.deallocate(_Ptr, _My_data._Myres + 1);

  001dc	41		 inc	 ecx
; File C:\Program Files\Microsoft Visual Studio\2022\Community\VC\Tools\MSVC\14.34.31933\include\xmemory

; 830  :         _Deallocate<_New_alignof<_Ty>>(_Ptr, sizeof(_Ty) * _Count);

  001dd	8b c2		 mov	 eax, edx

; 251  :         if (_Bytes >= _Big_allocation_threshold) { // boost the alignment of big allocations to help autovectorization

  001df	81 f9 00 10 00
	00		 cmp	 ecx, 4096		; 00001000H
  001e5	72 14		 jb	 SHORT $LN184@SplitToken

; 150  :     const uintptr_t _Ptr_container   = _Ptr_user[-1];

  001e7	8b 50 fc	 mov	 edx, DWORD PTR [eax-4]
  001ea	83 c1 23	 add	 ecx, 35			; 00000023H
  001ed	2b c2		 sub	 eax, edx

; 164  :     _STL_VERIFY(_Back_shift >= _Min_back_shift && _Back_shift <= _Non_user_size, "invalid argument");

  001ef	83 c0 fc	 add	 eax, -4			; fffffffcH
  001f2	83 f8 1f	 cmp	 eax, 31			; 0000001fH
  001f5	0f 87 9f 00 00
	00		 ja	 $LN349@SplitToken
$LN184@SplitToken:

; 255  :         ::operator delete(_Ptr, _Bytes);

  001fb	51		 push	 ecx
  001fc	52		 push	 edx
  001fd	e8 00 00 00 00	 call	 ??3@YAXPAXI@Z		; operator delete
  00202	83 c4 08	 add	 esp, 8
$LN172@SplitToken:
; File C:\Program Files\Microsoft Visual Studio\2022\Community\VC\Tools\MSVC\14.34.31933\include\xstring

; 2301 :         return _BUF_SIZE <= _Myres;

  00205	83 7d e8 10	 cmp	 DWORD PTR _strLine$[ebp+20], 16 ; 00000010H

; 2292 :         const value_type* _Result = _Bx._Buf;

  00209	8d 4d d4	 lea	 ecx, DWORD PTR _strLine$[ebp]

; 2293 :         if (_Large_string_engaged()) {

  0020c	8b 7d d4	 mov	 edi, DWORD PTR _strLine$[ebp]

; 4675 :         return static_cast<size_type>(_Traits_find_first_not_of<_Traits>(

  0020f	8b 75 e4	 mov	 esi, DWORD PTR _strLine$[ebp+16]

; 2293 :         if (_Large_string_engaged()) {

  00212	0f 43 cf	 cmovae	 ecx, edi

; 4675 :         return static_cast<size_type>(_Traits_find_first_not_of<_Traits>(

  00215	6a 01		 push	 1
  00217	68 00 00 00 00	 push	 OFFSET ??_C@_01CLKCMJKC@?5@
  0021c	ff 75 9c	 push	 DWORD PTR _basePos$1$[ebp]
  0021f	8b d6		 mov	 edx, esi
  00221	e8 00 00 00 00	 call	 ??$_Traits_find_first_not_of@U?$char_traits@D@std@@$00@std@@YAIQBDII0I@Z ; std::_Traits_find_first_not_of<std::char_traits<char>,1>
  00226	83 c4 0c	 add	 esp, 12			; 0000000cH
; File E:\Metin2_server\SolWayneSF v6\ClientVS22\source\UserInterface\PythonNetworkStreamCommand.cpp

; 125  : 		if (int(strLine.find_first_not_of(c_szDelimeter, basePos)) < 0)

  00229	85 c0		 test	 eax, eax
  0022b	78 0b		 js	 SHORT $LN3@SplitToken

; 126  : 			break;
; 127  : 	} while (basePos < strLine.length());

  0022d	8b 45 9c	 mov	 eax, DWORD PTR _basePos$1$[ebp]
  00230	3b c6		 cmp	 eax, esi
  00232	0f 82 98 fe ff
	ff		 jb	 $LL4@SplitToken
$LN3@SplitToken:

; 129  : 	return true;

  00238	c6 45 a3 01	 mov	 BYTE PTR $T2[ebp], 1
  0023c	eb 07		 jmp	 SHORT $LN15@SplitToken
$LN450@SplitToken:
  0023e	8b 7d d4	 mov	 edi, DWORD PTR _strLine$[ebp]
  00241	c6 45 a3 00	 mov	 BYTE PTR $T2[ebp], 0
$LN15@SplitToken:
; File C:\Program Files\Microsoft Visual Studio\2022\Community\VC\Tools\MSVC\14.34.31933\include\xstring

; 2301 :         return _BUF_SIZE <= _Myres;

  00245	8b 45 e8	 mov	 eax, DWORD PTR _strLine$[ebp+20]
  00248	83 f8 10	 cmp	 eax, 16			; 00000010H

; 5008 :         if (_My_data._Large_string_engaged()) {

  0024b	72 27		 jb	 SHORT $LN340@SplitToken

; 5013 :             _Al.deallocate(_Ptr, _My_data._Myres + 1);

  0024d	8d 48 01	 lea	 ecx, DWORD PTR [eax+1]
; File C:\Program Files\Microsoft Visual Studio\2022\Community\VC\Tools\MSVC\14.34.31933\include\xmemory

; 830  :         _Deallocate<_New_alignof<_Ty>>(_Ptr, sizeof(_Ty) * _Count);

  00250	8b c7		 mov	 eax, edi

; 251  :         if (_Bytes >= _Big_allocation_threshold) { // boost the alignment of big allocations to help autovectorization

  00252	81 f9 00 10 00
	00		 cmp	 ecx, 4096		; 00001000H
  00258	72 10		 jb	 SHORT $LN352@SplitToken

; 150  :     const uintptr_t _Ptr_container   = _Ptr_user[-1];

  0025a	8b 78 fc	 mov	 edi, DWORD PTR [eax-4]
  0025d	83 c1 23	 add	 ecx, 35			; 00000023H
  00260	2b c7		 sub	 eax, edi

; 164  :     _STL_VERIFY(_Back_shift >= _Min_back_shift && _Back_shift <= _Non_user_size, "invalid argument");

  00262	83 c0 fc	 add	 eax, -4			; fffffffcH
  00265	83 f8 1f	 cmp	 eax, 31			; 0000001fH
  00268	77 30		 ja	 SHORT $LN349@SplitToken
$LN352@SplitToken:

; 255  :         ::operator delete(_Ptr, _Bytes);

  0026a	51		 push	 ecx
  0026b	57		 push	 edi
  0026c	e8 00 00 00 00	 call	 ??3@YAXPAXI@Z		; operator delete
  00271	83 c4 08	 add	 esp, 8
$LN340@SplitToken:
; File E:\Metin2_server\SolWayneSF v6\ClientVS22\source\UserInterface\PythonNetworkStreamCommand.cpp

; 129  : 	return true;

  00274	8a 45 a3	 mov	 al, BYTE PTR $T2[ebp]

; 130  : }

  00277	8b 4d f4	 mov	 ecx, DWORD PTR __$EHRec$[ebp]
  0027a	64 89 0d 00 00
	00 00		 mov	 DWORD PTR fs:0, ecx
  00281	59		 pop	 ecx
  00282	5f		 pop	 edi
  00283	5e		 pop	 esi
  00284	8b 4d ec	 mov	 ecx, DWORD PTR __$ArrayPad$[ebp]
  00287	33 cd		 xor	 ecx, ebp
  00289	e8 00 00 00 00	 call	 @__security_check_cookie@4
  0028e	8b e5		 mov	 esp, ebp
  00290	5d		 pop	 ebp
  00291	8b e3		 mov	 esp, ebx
  00293	5b		 pop	 ebx
  00294	c3		 ret	 0
$LN451@SplitToken:
; File C:\Program Files\Microsoft Visual Studio\2022\Community\VC\Tools\MSVC\14.34.31933\include\xstring

; 2318 :             _Xran();

  00295	e8 00 00 00 00	 call	 ?_Xran@?$_String_val@U?$_Simple_types@D@std@@@std@@SAXXZ ; std::_String_val<std::_Simple_types<char> >::_Xran
$LN349@SplitToken:
; File C:\Program Files\Microsoft Visual Studio\2022\Community\VC\Tools\MSVC\14.34.31933\include\xmemory

; 164  :     _STL_VERIFY(_Back_shift >= _Min_back_shift && _Back_shift <= _Non_user_size, "invalid argument");

  0029a	e8 00 00 00 00	 call	 __invalid_parameter_noinfo_noreturn
$LN467@SplitToken:
  0029f	cc		 int	 3
_TEXT	ENDS
;	COMDAT text$x
text$x	SEGMENT
__unwindfunclet$?SplitToken@@YA_NPBDPAV?$vector@V?$basic_string@DU?$char_traits@D@std@@V?$allocator@D@2@@std@@V?$allocator@V?$basic_string@DU?$char_traits@D@std@@V?$allocator@D@2@@std@@@2@@std@@0@Z$0:
  00000	8d 4d a4	 lea	 ecx, DWORD PTR _stToken$[ebp]
  00003	e9 00 00 00 00	 jmp	 ??1?$basic_string@DU?$char_traits@D@std@@V?$allocator@D@2@@std@@QAE@XZ ; std::basic_string<char,std::char_traits<char>,std::allocator<char> >::~basic_string<char,std::char_traits<char>,std::allocator<char> >
__unwindfunclet$?SplitToken@@YA_NPBDPAV?$vector@V?$basic_string@DU?$char_traits@D@std@@V?$allocator@D@2@@std@@V?$allocator@V?$basic_string@DU?$char_traits@D@std@@V?$allocator@D@2@@std@@@2@@std@@0@Z$1:
  00008	8d 4d d4	 lea	 ecx, DWORD PTR _strLine$[ebp]
  0000b	e9 00 00 00 00	 jmp	 ??1?$basic_string@DU?$char_traits@D@std@@V?$allocator@D@2@@std@@QAE@XZ ; std::basic_string<char,std::char_traits<char>,std::allocator<char> >::~basic_string<char,std::char_traits<char>,std::allocator<char> >
__unwindfunclet$?SplitToken@@YA_NPBDPAV?$vector@V?$basic_string@DU?$char_traits@D@std@@V?$allocator@D@2@@std@@V?$allocator@V?$basic_string@DU?$char_traits@D@std@@V?$allocator@D@2@@std@@@2@@std@@0@Z$2:
  00010	8d 4d bc	 lea	 ecx, DWORD PTR $T3[ebp]
  00013	e9 00 00 00 00	 jmp	 ??1?$basic_string@DU?$char_traits@D@std@@V?$allocator@D@2@@std@@QAE@XZ ; std::basic_string<char,std::char_traits<char>,std::allocator<char> >::~basic_string<char,std::char_traits<char>,std::allocator<char> >
  00018	cc		 int	 3
  00019	cc		 int	 3
  0001a	cc		 int	 3
  0001b	cc		 int	 3
  0001c	cc		 int	 3
__ehhandler$?SplitToken@@YA_NPBDPAV?$vector@V?$basic_string@DU?$char_traits@D@std@@V?$allocator@D@2@@std@@V?$allocator@V?$basic_string@DU?$char_traits@D@std@@V?$allocator@D@2@@std@@@2@@std@@0@Z:
  0001d	90		 npad	 1
  0001e	90		 npad	 1
  0001f	8b 54 24 08	 mov	 edx, DWORD PTR [esp+8]
  00023	8d 42 0c	 lea	 eax, DWORD PTR [edx+12]
  00026	8b 4a 98	 mov	 ecx, DWORD PTR [edx-104]
  00029	33 c8		 xor	 ecx, eax
  0002b	e8 00 00 00 00	 call	 @__security_check_cookie@4
  00030	8b 4a f8	 mov	 ecx, DWORD PTR [edx-8]
  00033	33 c8		 xor	 ecx, eax
  00035	e8 00 00 00 00	 call	 @__security_check_cookie@4
  0003a	b8 00 00 00 00	 mov	 eax, OFFSET __ehfuncinfo$?SplitToken@@YA_NPBDPAV?$vector@V?$basic_string@DU?$char_traits@D@std@@V?$allocator@D@2@@std@@V?$allocator@V?$basic_string@DU?$char_traits@D@std@@V?$allocator@D@2@@std@@@2@@std@@0@Z
  0003f	e9 00 00 00 00	 jmp	 ___CxxFrameHandler3
text$x	ENDS
?SplitToken@@YA_NPBDPAV?$vector@V?$basic_string@DU?$char_traits@D@std@@V?$allocator@D@2@@std@@V?$allocator@V?$basic_string@DU?$char_traits@D@std@@V?$allocator@D@2@@std@@@2@@std@@0@Z ENDP ; SplitToken
; Function compile flags: /Ogtp
; File E:\Metin2_server\SolWayneSF v6\ClientVS22\source\UserInterface\PythonNetworkStreamCommand.cpp
; File C:\Program Files\Microsoft Visual Studio\2022\Community\VC\Tools\MSVC\14.34.31933\include\vector
; File E:\Metin2_server\SolWayneSF v6\ClientVS22\source\UserInterface\PythonNetworkStreamCommand.cpp
; File C:\Program Files\Microsoft Visual Studio\2022\Community\VC\Tools\MSVC\14.34.31933\include\xstring
; File E:\Metin2_server\SolWayneSF v6\ClientVS22\source\UserInterface\PythonNetworkStreamCommand.cpp
; File C:\Program Files\Microsoft Visual Studio\2022\Community\VC\Tools\MSVC\14.34.31933\include\vector
; File E:\Metin2_server\SolWayneSF v6\ClientVS22\source\UserInterface\PythonNetworkStreamCommand.cpp
; File C:\Program Files\Microsoft Visual Studio\2022\Community\VC\Tools\MSVC\14.34.31933\include\vector
; File E:\Metin2_server\SolWayneSF v6\ClientVS22\source\UserInterface\PythonNetworkStreamCommand.cpp
; File C:\Program Files\Microsoft Visual Studio\2022\Community\VC\Tools\MSVC\14.34.31933\include\vector
; File E:\Metin2_server\SolWayneSF v6\ClientVS22\source\UserInterface\PythonNetworkStreamCommand.cpp
; File C:\Program Files\Microsoft Visual Studio\2022\Community\VC\Tools\MSVC\14.34.31933\include\vector
; File E:\Metin2_server\SolWayneSF v6\ClientVS22\source\UserInterface\PythonNetworkStreamCommand.cpp
; File C:\Program Files\Microsoft Visual Studio\2022\Community\VC\Tools\MSVC\14.34.31933\include\xstring
; File C:\Program Files\Microsoft Visual Studio\2022\Community\VC\Tools\MSVC\14.34.31933\include\vector
; File C:\Program Files\Microsoft Visual Studio\2022\Community\VC\Tools\MSVC\14.34.31933\include\xstring
; File E:\Metin2_server\SolWayneSF v6\ClientVS22\source\UserInterface\PythonNetworkStreamCommand.cpp
; File C:\Program Files\Microsoft Visual Studio\2022\Community\VC\Tools\MSVC\14.34.31933\include\xstring
; File C:\Program Files\Microsoft Visual Studio\2022\Community\VC\Tools\MSVC\14.34.31933\include\vector
; File C:\Program Files\Microsoft Visual Studio\2022\Community\VC\Tools\MSVC\14.34.31933\include\xstring
; File E:\Metin2_server\SolWayneSF v6\ClientVS22\source\UserInterface\PythonNetworkStreamCommand.cpp
; File C:\Program Files\Microsoft Visual Studio\2022\Community\VC\Tools\MSVC\14.34.31933\include\vector
; File C:\Program Files\Microsoft Visual Studio\2022\Community\VC\Tools\MSVC\14.34.31933\include\xstring
; File E:\Metin2_server\SolWayneSF v6\ClientVS22\source\UserInterface\PythonNetworkStreamCommand.cpp
; File C:\Program Files\Microsoft Visual Studio\2022\Community\VC\Tools\MSVC\14.34.31933\include\xstring
; File E:\Metin2_server\SolWayneSF v6\ClientVS22\source\UserInterface\PythonNetworkStreamCommand.cpp
; File C:\Program Files\Microsoft Visual Studio\2022\Community\VC\Tools\MSVC\14.34.31933\include\xstring
; File C:\Program Files\Microsoft Visual Studio\2022\Community\VC\Tools\MSVC\14.34.31933\include\vector
; File C:\Program Files\Microsoft Visual Studio\2022\Community\VC\Tools\MSVC\14.34.31933\include\xstring
; File E:\Metin2_server\SolWayneSF v6\ClientVS22\source\UserInterface\PythonNetworkStreamCommand.cpp
; File C:\Program Files\Microsoft Visual Studio\2022\Community\VC\Tools\MSVC\14.34.31933\include\vector
; File E:\Metin2_server\SolWayneSF v6\ClientVS22\source\UserInterface\PythonNetworkStreamCommand.cpp
; File C:\Program Files\Microsoft Visual Studio\2022\Community\VC\Tools\MSVC\14.34.31933\include\xstring
; File E:\Metin2_server\SolWayneSF v6\ClientVS22\source\UserInterface\PythonNetworkStreamCommand.cpp
; File C:\Program Files\Microsoft Visual Studio\2022\Community\VC\Tools\MSVC\14.34.31933\include\vector
; File E:\Metin2_server\SolWayneSF v6\ClientVS22\source\UserInterface\PythonNetworkStreamCommand.cpp
; File C:\Program Files\Microsoft Visual Studio\2022\Community\VC\Tools\MSVC\14.34.31933\include\xstring
; File E:\Metin2_server\SolWayneSF v6\ClientVS22\source\UserInterface\PythonNetworkStreamCommand.cpp
; File C:\Program Files\Microsoft Visual Studio\2022\Community\VC\Tools\MSVC\14.34.31933\include\xstring
; File E:\Metin2_server\SolWayneSF v6\ClientVS22\source\UserInterface\PythonNetworkStreamCommand.cpp
; File C:\Program Files\Microsoft Visual Studio\2022\Community\VC\Tools\MSVC\14.34.31933\include\vector
; File C:\Program Files\Microsoft Visual Studio\2022\Community\VC\Tools\MSVC\14.34.31933\include\xstring
; File E:\Metin2_server\SolWayneSF v6\ClientVS22\source\UserInterface\PythonNetworkStreamCommand.cpp
; File C:\Program Files\Microsoft Visual Studio\2022\Community\VC\Tools\MSVC\14.34.31933\include\xstring
; File C:\Program Files\Microsoft Visual Studio\2022\Community\VC\Tools\MSVC\14.34.31933\include\vector
; File C:\Program Files\Microsoft Visual Studio\2022\Community\VC\Tools\MSVC\14.34.31933\include\xstring
; File E:\Metin2_server\SolWayneSF v6\ClientVS22\source\UserInterface\PythonNetworkStreamCommand.cpp
; File C:\Program Files\Microsoft Visual Studio\2022\Community\VC\Tools\MSVC\14.34.31933\include\vector
; File E:\Metin2_server\SolWayneSF v6\ClientVS22\source\UserInterface\PythonNetworkStreamCommand.cpp
; File C:\Program Files\Microsoft Visual Studio\2022\Community\VC\Tools\MSVC\14.34.31933\include\xstring
; File E:\Metin2_server\SolWayneSF v6\ClientVS22\source\UserInterface\PythonNetworkStreamCommand.cpp
; File C:\Program Files\Microsoft Visual Studio\2022\Community\VC\Tools\MSVC\14.34.31933\include\xstring
; File E:\Metin2_server\SolWayneSF v6\ClientVS22\source\UserInterface\PythonNetworkStreamCommand.cpp
; File C:\Program Files\Microsoft Visual Studio\2022\Community\VC\Tools\MSVC\14.34.31933\include\xstring
; File E:\Metin2_server\SolWayneSF v6\ClientVS22\source\UserInterface\PythonNetworkStreamCommand.cpp
; File C:\Program Files\Microsoft Visual Studio\2022\Community\VC\Tools\MSVC\14.34.31933\include\xstring
; File E:\Metin2_server\SolWayneSF v6\ClientVS22\source\UserInterface\PythonNetworkStreamCommand.cpp
; File C:\Program Files\Microsoft Visual Studio\2022\Community\VC\Tools\MSVC\14.34.31933\include\vector
; File C:\Program Files\Microsoft Visual Studio\2022\Community\VC\Tools\MSVC\14.34.31933\include\xstring
; File C:\Program Files\Microsoft Visual Studio\2022\Community\VC\Tools\MSVC\14.34.31933\include\vector
; File C:\Program Files\Microsoft Visual Studio\2022\Community\VC\Tools\MSVC\14.34.31933\include\xstring
; File E:\Metin2_server\SolWayneSF v6\ClientVS22\source\UserInterface\PythonNetworkStreamCommand.cpp
; File C:\Program Files\Microsoft Visual Studio\2022\Community\VC\Tools\MSVC\14.34.31933\include\vector
; File E:\Metin2_server\SolWayneSF v6\ClientVS22\source\UserInterface\PythonNetworkStreamCommand.cpp
; File C:\Program Files\Microsoft Visual Studio\2022\Community\VC\Tools\MSVC\14.34.31933\include\xstring
; File E:\Metin2_server\SolWayneSF v6\ClientVS22\source\UserInterface\PythonNetworkStreamCommand.cpp
; File C:\Program Files\Microsoft Visual Studio\2022\Community\VC\Tools\MSVC\14.34.31933\include\xstring
; File E:\Metin2_server\SolWayneSF v6\ClientVS22\source\UserInterface\PythonNetworkStreamCommand.cpp
; File C:\Program Files\Microsoft Visual Studio\2022\Community\VC\Tools\MSVC\14.34.31933\include\vector
; File C:\Program Files\Microsoft Visual Studio\2022\Community\VC\Tools\MSVC\14.34.31933\include\xstring
; File C:\Program Files\Microsoft Visual Studio\2022\Community\VC\Tools\MSVC\14.34.31933\include\vector
; File C:\Program Files\Microsoft Visual Studio\2022\Community\VC\Tools\MSVC\14.34.31933\include\xstring
; File E:\Metin2_server\SolWayneSF v6\ClientVS22\source\UserInterface\PythonNetworkStreamCommand.cpp
; File C:\Program Files\Microsoft Visual Studio\2022\Community\VC\Tools\MSVC\14.34.31933\include\vector
; File E:\Metin2_server\SolWayneSF v6\ClientVS22\source\UserInterface\PythonNetworkStreamCommand.cpp
; File C:\Program Files\Microsoft Visual Studio\2022\Community\VC\Tools\MSVC\14.34.31933\include\xstring
; File E:\Metin2_server\SolWayneSF v6\ClientVS22\source\UserInterface\PythonNetworkStreamCommand.cpp
; File C:\Program Files\Microsoft Visual Studio\2022\Community\VC\Tools\MSVC\14.34.31933\include\xstring
; File E:\Metin2_server\SolWayneSF v6\ClientVS22\source\UserInterface\PythonNetworkStreamCommand.cpp
; File C:\Program Files\Microsoft Visual Studio\2022\Community\VC\Tools\MSVC\14.34.31933\include\vector
; File E:\Metin2_server\SolWayneSF v6\ClientVS22\source\UserInterface\PythonNetworkStreamCommand.cpp
; File C:\Program Files\Microsoft Visual Studio\2022\Community\VC\Tools\MSVC\14.34.31933\include\xstring
; File E:\Metin2_server\SolWayneSF v6\ClientVS22\source\UserInterface\PythonNetworkStreamCommand.cpp
; File C:\Program Files\Microsoft Visual Studio\2022\Community\VC\Tools\MSVC\14.34.31933\include\vector
; File E:\Metin2_server\SolWayneSF v6\ClientVS22\source\UserInterface\PythonNetworkStreamCommand.cpp
; File C:\Program Files\Microsoft Visual Studio\2022\Community\VC\Tools\MSVC\14.34.31933\include\xstring
; File C:\Program Files\Microsoft Visual Studio\2022\Community\VC\Tools\MSVC\14.34.31933\include\vector
; File C:\Program Files\Microsoft Visual Studio\2022\Community\VC\Tools\MSVC\14.34.31933\include\xstring
; File E:\Metin2_server\SolWayneSF v6\ClientVS22\source\UserInterface\PythonNetworkStreamCommand.cpp
; File C:\Program Files\Microsoft Visual Studio\2022\Community\VC\Tools\MSVC\14.34.31933\include\vector
; File E:\Metin2_server\SolWayneSF v6\ClientVS22\source\UserInterface\PythonNetworkStreamCommand.cpp
; File C:\Program Files\Microsoft Visual Studio\2022\Community\VC\Tools\MSVC\14.34.31933\include\vector
; File C:\Program Files\Microsoft Visual Studio\2022\Community\VC\Tools\MSVC\14.34.31933\include\xstring
; File E:\Metin2_server\SolWayneSF v6\ClientVS22\source\UserInterface\PythonNetworkStreamCommand.cpp
; File C:\Program Files\Microsoft Visual Studio\2022\Community\VC\Tools\MSVC\14.34.31933\include\vector
; File E:\Metin2_server\SolWayneSF v6\ClientVS22\source\UserInterface\PythonNetworkStreamCommand.cpp
; File C:\Program Files\Microsoft Visual Studio\2022\Community\VC\Tools\MSVC\14.34.31933\include\vector
; File E:\Metin2_server\SolWayneSF v6\ClientVS22\source\UserInterface\PythonNetworkStreamCommand.cpp
; File C:\Program Files\Microsoft Visual Studio\2022\Community\VC\Tools\MSVC\14.34.31933\include\xstring
; File C:\Program Files\Microsoft Visual Studio\2022\Community\VC\Tools\MSVC\14.34.31933\include\vector
; File C:\Program Files\Microsoft Visual Studio\2022\Community\VC\Tools\MSVC\14.34.31933\include\xstring
; File E:\Metin2_server\SolWayneSF v6\ClientVS22\source\UserInterface\PythonNetworkStreamCommand.cpp
; File C:\Program Files\Microsoft Visual Studio\2022\Community\VC\Tools\MSVC\14.34.31933\include\vector
; File E:\Metin2_server\SolWayneSF v6\ClientVS22\source\UserInterface\PythonNetworkStreamCommand.cpp
; File C:\Program Files\Microsoft Visual Studio\2022\Community\VC\Tools\MSVC\14.34.31933\include\xstring
; File E:\Metin2_server\SolWayneSF v6\ClientVS22\source\UserInterface\PythonNetworkStreamCommand.cpp
; File C:\Program Files\Microsoft Visual Studio\2022\Community\VC\Tools\MSVC\14.34.31933\include\vector
; File E:\Metin2_server\SolWayneSF v6\ClientVS22\source\UserInterface\PythonNetworkStreamCommand.cpp
; File C:\Program Files\Microsoft Visual Studio\2022\Community\VC\Tools\MSVC\14.34.31933\include\xstring
; File E:\Metin2_server\SolWayneSF v6\ClientVS22\source\UserInterface\PythonNetworkStreamCommand.cpp
; File C:\Program Files\Microsoft Visual Studio\2022\Community\VC\Tools\MSVC\14.34.31933\include\cmath
; File E:\Metin2_server\SolWayneSF v6\ClientVS22\source\UserInterface\PythonNetworkStreamCommand.cpp
; File C:\Program Files\Microsoft Visual Studio\2022\Community\VC\Tools\MSVC\14.34.31933\include\cmath
; File C:\Program Files\Microsoft Visual Studio\2022\Community\VC\Tools\MSVC\14.34.31933\include\xstring
; File C:\Program Files\Microsoft Visual Studio\2022\Community\VC\Tools\MSVC\14.34.31933\include\cmath
; File C:\Program Files\Microsoft Visual Studio\2022\Community\VC\Tools\MSVC\14.34.31933\include\xstring
; File E:\Metin2_server\SolWayneSF v6\ClientVS22\source\UserInterface\PythonNetworkStreamCommand.cpp
; File C:\Program Files\Microsoft Visual Studio\2022\Community\VC\Tools\MSVC\14.34.31933\include\vector
; File E:\Metin2_server\SolWayneSF v6\ClientVS22\extern\include\d3dx8math.inl
; File E:\Metin2_server\SolWayneSF v6\ClientVS22\source\UserInterface\PythonNetworkStreamCommand.cpp
; File E:\Metin2_server\SolWayneSF v6\ClientVS22\extern\include\d3dx8math.inl
; File E:\Metin2_server\SolWayneSF v6\ClientVS22\source\UserInterface\PythonNetworkStreamCommand.cpp
; File C:\Program Files\Microsoft Visual Studio\2022\Community\VC\Tools\MSVC\14.34.31933\include\vector
; File E:\Metin2_server\SolWayneSF v6\ClientVS22\source\UserInterface\PythonNetworkStreamCommand.cpp
; File C:\Program Files\Microsoft Visual Studio\2022\Community\VC\Tools\MSVC\14.34.31933\include\vector
; File E:\Metin2_server\SolWayneSF v6\ClientVS22\source\UserInterface\PythonNetworkStreamCommand.cpp
; File C:\Program Files\Microsoft Visual Studio\2022\Community\VC\Tools\MSVC\14.34.31933\include\xstring
; File C:\Program Files\Microsoft Visual Studio\2022\Community\VC\Tools\MSVC\14.34.31933\include\vector
; File C:\Program Files\Microsoft Visual Studio\2022\Community\VC\Tools\MSVC\14.34.31933\include\xstring
; File E:\Metin2_server\SolWayneSF v6\ClientVS22\source\UserInterface\PythonNetworkStreamCommand.cpp
; File C:\Program Files\Microsoft Visual Studio\2022\Community\VC\Tools\MSVC\14.34.31933\include\vector
; File E:\Metin2_server\SolWayneSF v6\ClientVS22\source\UserInterface\PythonNetworkStreamCommand.cpp
; File C:\Program Files\Microsoft Visual Studio\2022\Community\VC\Tools\MSVC\14.34.31933\include\xstring
; File E:\Metin2_server\SolWayneSF v6\ClientVS22\source\UserInterface\PythonNetworkStreamCommand.cpp
; File C:\Program Files\Microsoft Visual Studio\2022\Community\VC\Tools\MSVC\14.34.31933\include\xstring
; File E:\Metin2_server\SolWayneSF v6\ClientVS22\source\UserInterface\PythonNetworkStreamCommand.cpp
; File C:\Program Files\Microsoft Visual Studio\2022\Community\VC\Tools\MSVC\14.34.31933\include\vector
; File E:\Metin2_server\SolWayneSF v6\ClientVS22\source\UserInterface\PythonNetworkStreamCommand.cpp
; File C:\Program Files\Microsoft Visual Studio\2022\Community\VC\Tools\MSVC\14.34.31933\include\vector
; File E:\Metin2_server\SolWayneSF v6\ClientVS22\source\UserInterface\PythonNetworkStreamCommand.cpp
; File C:\Program Files\Microsoft Visual Studio\2022\Community\VC\Tools\MSVC\14.34.31933\include\vector
; File C:\Program Files\Microsoft Visual Studio\2022\Community\VC\Tools\MSVC\14.34.31933\include\xstring
; File C:\Program Files\Microsoft Visual Studio\2022\Community\VC\Tools\MSVC\14.34.31933\include\vector
; File C:\Program Files\Microsoft Visual Studio\2022\Community\VC\Tools\MSVC\14.34.31933\include\xstring
; File E:\Metin2_server\SolWayneSF v6\ClientVS22\source\UserInterface\PythonNetworkStreamCommand.cpp
; File C:\Program Files\Microsoft Visual Studio\2022\Community\VC\Tools\MSVC\14.34.31933\include\xstring
; File C:\Program Files\Microsoft Visual Studio\2022\Community\VC\Tools\MSVC\14.34.31933\include\vector
; File C:\Program Files\Microsoft Visual Studio\2022\Community\VC\Tools\MSVC\14.34.31933\include\xstring
; File E:\Metin2_server\SolWayneSF v6\ClientVS22\source\UserInterface\PythonNetworkStreamCommand.cpp
; File C:\Program Files\Microsoft Visual Studio\2022\Community\VC\Tools\MSVC\14.34.31933\include\xstring
; File E:\Metin2_server\SolWayneSF v6\ClientVS22\source\UserInterface\PythonNetworkStreamCommand.cpp
; File C:\Program Files\Microsoft Visual Studio\2022\Community\VC\Tools\MSVC\14.34.31933\include\xstring
; File C:\Program Files\Microsoft Visual Studio\2022\Community\VC\Tools\MSVC\14.34.31933\include\vector
; File C:\Program Files\Microsoft Visual Studio\2022\Community\VC\Tools\MSVC\14.34.31933\include\xstring
; File E:\Metin2_server\SolWayneSF v6\ClientVS22\source\UserInterface\PythonNetworkStreamCommand.cpp
; File C:\Program Files\Microsoft Visual Studio\2022\Community\VC\Tools\MSVC\14.34.31933\include\xstring
; File C:\Program Files\Microsoft Visual Studio\2022\Community\VC\Tools\MSVC\14.34.31933\include\vector
; File C:\Program Files\Microsoft Visual Studio\2022\Community\VC\Tools\MSVC\14.34.31933\include\xstring
; File E:\Metin2_server\SolWayneSF v6\ClientVS22\source\UserInterface\PythonNetworkStreamCommand.cpp
; File C:\Program Files\Microsoft Visual Studio\2022\Community\VC\Tools\MSVC\14.34.31933\include\xstring
; File C:\Program Files\Microsoft Visual Studio\2022\Community\VC\Tools\MSVC\14.34.31933\include\vector
; File C:\Program Files\Microsoft Visual Studio\2022\Community\VC\Tools\MSVC\14.34.31933\include\xstring
; File E:\Metin2_server\SolWayneSF v6\ClientVS22\source\UserInterface\PythonNetworkStreamCommand.cpp
; File C:\Program Files\Microsoft Visual Studio\2022\Community\VC\Tools\MSVC\14.34.31933\include\vector
; File E:\Metin2_server\SolWayneSF v6\ClientVS22\source\UserInterface\PythonNetworkStreamCommand.cpp
; File C:\Program Files\Microsoft Visual Studio\2022\Community\VC\Tools\MSVC\14.34.31933\include\xstring
; File E:\Metin2_server\SolWayneSF v6\ClientVS22\source\UserInterface\PythonNetworkStreamCommand.cpp
; File C:\Program Files\Microsoft Visual Studio\2022\Community\VC\Tools\MSVC\14.34.31933\include\vector
; File C:\Program Files\Microsoft Visual Studio\2022\Community\VC\Tools\MSVC\14.34.31933\include\xmemory
; File C:\Program Files\Microsoft Visual Studio\2022\Community\VC\Tools\MSVC\14.34.31933\include\xstring
; File C:\Program Files\Microsoft Visual Studio\2022\Community\VC\Tools\MSVC\14.34.31933\include\xmemory
; File C:\Program Files\Microsoft Visual Studio\2022\Community\VC\Tools\MSVC\14.34.31933\include\xstring
; File C:\Program Files\Microsoft Visual Studio\2022\Community\VC\Tools\MSVC\14.34.31933\include\xmemory
; File C:\Program Files\Microsoft Visual Studio\2022\Community\VC\Tools\MSVC\14.34.31933\include\xstring
; File C:\Program Files\Microsoft Visual Studio\2022\Community\VC\Tools\MSVC\14.34.31933\include\xmemory
; File C:\Program Files\Microsoft Visual Studio\2022\Community\VC\Tools\MSVC\14.34.31933\include\vector
; File C:\Program Files\Microsoft Visual Studio\2022\Community\VC\Tools\MSVC\14.34.31933\include\xmemory
; File E:\Metin2_server\SolWayneSF v6\ClientVS22\source\UserInterface\PythonNetworkStreamCommand.cpp
; File C:\Program Files\Microsoft Visual Studio\2022\Community\VC\Tools\MSVC\14.34.31933\include\xstring
; File C:\Program Files\Microsoft Visual Studio\2022\Community\VC\Tools\MSVC\14.34.31933\include\vector
; File C:\Program Files\Microsoft Visual Studio\2022\Community\VC\Tools\MSVC\14.34.31933\include\xstring
; File E:\Metin2_server\SolWayneSF v6\ClientVS22\source\UserInterface\PythonNetworkStreamCommand.cpp
; File C:\Program Files\Microsoft Visual Studio\2022\Community\VC\Tools\MSVC\14.34.31933\include\vector
; File E:\Metin2_server\SolWayneSF v6\ClientVS22\source\UserInterface\PythonNetworkStreamCommand.cpp
; File C:\Program Files\Microsoft Visual Studio\2022\Community\VC\Tools\MSVC\14.34.31933\include\xstring
; File E:\Metin2_server\SolWayneSF v6\ClientVS22\source\UserInterface\PythonNetworkStreamCommand.cpp
; File C:\Program Files\Microsoft Visual Studio\2022\Community\VC\Tools\MSVC\14.34.31933\include\xstring
; File C:\Program Files\Microsoft Visual Studio\2022\Community\VC\Tools\MSVC\14.34.31933\include\vector
; File C:\Program Files\Microsoft Visual Studio\2022\Community\VC\Tools\MSVC\14.34.31933\include\xstring
; File E:\Metin2_server\SolWayneSF v6\ClientVS22\source\UserInterface\PythonNetworkStreamCommand.cpp
; File C:\Program Files\Microsoft Visual Studio\2022\Community\VC\Tools\MSVC\14.34.31933\include\vector
; File E:\Metin2_server\SolWayneSF v6\ClientVS22\source\UserInterface\PythonNetworkStreamCommand.cpp
; File C:\Program Files\Microsoft Visual Studio\2022\Community\VC\Tools\MSVC\14.34.31933\include\xstring
; File E:\Metin2_server\SolWayneSF v6\ClientVS22\source\UserInterface\PythonNetworkStreamCommand.cpp
; File C:\Program Files\Microsoft Visual Studio\2022\Community\VC\Tools\MSVC\14.34.31933\include\xstring
; File C:\Program Files\Microsoft Visual Studio\2022\Community\VC\Tools\MSVC\14.34.31933\include\vector
; File C:\Program Files\Microsoft Visual Studio\2022\Community\VC\Tools\MSVC\14.34.31933\include\xstring
; File E:\Metin2_server\SolWayneSF v6\ClientVS22\source\UserInterface\PythonNetworkStreamCommand.cpp
; File C:\Program Files\Microsoft Visual Studio\2022\Community\VC\Tools\MSVC\14.34.31933\include\xstring
; File C:\Program Files\Microsoft Visual Studio\2022\Community\VC\Tools\MSVC\14.34.31933\include\vector
; File C:\Program Files\Microsoft Visual Studio\2022\Community\VC\Tools\MSVC\14.34.31933\include\xstring
; File E:\Metin2_server\SolWayneSF v6\ClientVS22\source\UserInterface\PythonNetworkStreamCommand.cpp
; File C:\Program Files\Microsoft Visual Studio\2022\Community\VC\Tools\MSVC\14.34.31933\include\xstring
; File C:\Program Files\Microsoft Visual Studio\2022\Community\VC\Tools\MSVC\14.34.31933\include\vector
; File C:\Program Files\Microsoft Visual Studio\2022\Community\VC\Tools\MSVC\14.34.31933\include\xstring
; File E:\Metin2_server\SolWayneSF v6\ClientVS22\source\UserInterface\PythonNetworkStreamCommand.cpp
; File C:\Program Files\Microsoft Visual Studio\2022\Community\VC\Tools\MSVC\14.34.31933\include\xstring
; File C:\Program Files\Microsoft Visual Studio\2022\Community\VC\Tools\MSVC\14.34.31933\include\vector
; File C:\Program Files\Microsoft Visual Studio\2022\Community\VC\Tools\MSVC\14.34.31933\include\xstring
; File E:\Metin2_server\SolWayneSF v6\ClientVS22\source\UserInterface\PythonNetworkStreamCommand.cpp
; File C:\Program Files\Microsoft Visual Studio\2022\Community\VC\Tools\MSVC\14.34.31933\include\xstring
; File C:\Program Files\Microsoft Visual Studio\2022\Community\VC\Tools\MSVC\14.34.31933\include\vector
; File C:\Program Files\Microsoft Visual Studio\2022\Community\VC\Tools\MSVC\14.34.31933\include\xstring
; File E:\Metin2_server\SolWayneSF v6\ClientVS22\source\UserInterface\PythonNetworkStreamCommand.cpp
; File C:\Program Files\Microsoft Visual Studio\2022\Community\VC\Tools\MSVC\14.34.31933\include\xstring
; File C:\Program Files\Microsoft Visual Studio\2022\Community\VC\Tools\MSVC\14.34.31933\include\vector
; File C:\Program Files\Microsoft Visual Studio\2022\Community\VC\Tools\MSVC\14.34.31933\include\xstring
; File E:\Metin2_server\SolWayneSF v6\ClientVS22\source\UserInterface\PythonNetworkStreamCommand.cpp
; File C:\Program Files\Microsoft Visual Studio\2022\Community\VC\Tools\MSVC\14.34.31933\include\xstring
; File E:\Metin2_server\SolWayneSF v6\ClientVS22\source\UserInterface\PythonNetworkStreamCommand.cpp
; File C:\Program Files\Microsoft Visual Studio\2022\Community\VC\Tools\MSVC\14.34.31933\include\xstring
; File E:\Metin2_server\SolWayneSF v6\ClientVS22\source\UserInterface\PythonNetworkStreamCommand.cpp
; File C:\Program Files\Microsoft Visual Studio\2022\Community\VC\Tools\MSVC\14.34.31933\include\xstring
; File C:\Program Files\Microsoft Visual Studio\2022\Community\VC\Tools\MSVC\14.34.31933\include\xmemory
; File C:\Program Files\Microsoft Visual Studio\2022\Community\VC\Tools\MSVC\14.34.31933\include\xstring
; File C:\Program Files\Microsoft Visual Studio\2022\Community\VC\Tools\MSVC\14.34.31933\include\xmemory
; File C:\Program Files\Microsoft Visual Studio\2022\Community\VC\Tools\MSVC\14.34.31933\include\xstring
; File E:\Metin2_server\SolWayneSF v6\ClientVS22\source\UserInterface\PythonNetworkStreamCommand.cpp
; File C:\Program Files\Microsoft Visual Studio\2022\Community\VC\Tools\MSVC\14.34.31933\include\xstring
; File C:\Program Files\Microsoft Visual Studio\2022\Community\VC\Tools\MSVC\14.34.31933\include\xmemory
; File C:\Program Files\Microsoft Visual Studio\2022\Community\VC\Tools\MSVC\14.34.31933\include\xstring
; File C:\Program Files\Microsoft Visual Studio\2022\Community\VC\Tools\MSVC\14.34.31933\include\xmemory
; File C:\Program Files\Microsoft Visual Studio\2022\Community\VC\Tools\MSVC\14.34.31933\include\xstring
; File E:\Metin2_server\SolWayneSF v6\ClientVS22\source\UserInterface\PythonNetworkStreamCommand.cpp
; File C:\Program Files\Microsoft Visual Studio\2022\Community\VC\Tools\MSVC\14.34.31933\include\xstring
; File C:\Program Files\Microsoft Visual Studio\2022\Community\VC\Tools\MSVC\14.34.31933\include\xmemory
; File C:\Program Files\Microsoft Visual Studio\2022\Community\VC\Tools\MSVC\14.34.31933\include\xstring
; File C:\Program Files\Microsoft Visual Studio\2022\Community\VC\Tools\MSVC\14.34.31933\include\xmemory
; File C:\Program Files\Microsoft Visual Studio\2022\Community\VC\Tools\MSVC\14.34.31933\include\xstring
; File E:\Metin2_server\SolWayneSF v6\ClientVS22\source\UserInterface\PythonNetworkStreamCommand.cpp
; File C:\Program Files\Microsoft Visual Studio\2022\Community\VC\Tools\MSVC\14.34.31933\include\xstring
; File C:\Program Files\Microsoft Visual Studio\2022\Community\VC\Tools\MSVC\14.34.31933\include\xmemory
; File C:\Program Files\Microsoft Visual Studio\2022\Community\VC\Tools\MSVC\14.34.31933\include\xstring
; File C:\Program Files\Microsoft Visual Studio\2022\Community\VC\Tools\MSVC\14.34.31933\include\xmemory
; File C:\Program Files\Microsoft Visual Studio\2022\Community\VC\Tools\MSVC\14.34.31933\include\xstring
; File E:\Metin2_server\SolWayneSF v6\ClientVS22\source\UserInterface\PythonNetworkStreamCommand.cpp
; File C:\Program Files\Microsoft Visual Studio\2022\Community\VC\Tools\MSVC\14.34.31933\include\xstring
; File C:\Program Files\Microsoft Visual Studio\2022\Community\VC\Tools\MSVC\14.34.31933\include\xmemory
; File C:\Program Files\Microsoft Visual Studio\2022\Community\VC\Tools\MSVC\14.34.31933\include\xstring
; File C:\Program Files\Microsoft Visual Studio\2022\Community\VC\Tools\MSVC\14.34.31933\include\xmemory
; File C:\Program Files\Microsoft Visual Studio\2022\Community\VC\Tools\MSVC\14.34.31933\include\xstring
; File E:\Metin2_server\SolWayneSF v6\ClientVS22\source\UserInterface\PythonNetworkStreamCommand.cpp
; File C:\Program Files\Microsoft Visual Studio\2022\Community\VC\Tools\MSVC\14.34.31933\include\xtree
; File E:\Metin2_server\SolWayneSF v6\ClientVS22\source\UserInterface\PythonNetworkStreamCommand.cpp
; File C:\Program Files\Microsoft Visual Studio\2022\Community\VC\Tools\MSVC\14.34.31933\include\vector
; File C:\Program Files\Microsoft Visual Studio\2022\Community\VC\Tools\MSVC\14.34.31933\include\xstring
; File E:\Metin2_server\SolWayneSF v6\ClientVS22\source\UserInterface\PythonNetworkStreamCommand.cpp
; File C:\Program Files\Microsoft Visual Studio\2022\Community\VC\Tools\MSVC\14.34.31933\include\vector
; File C:\Program Files\Microsoft Visual Studio\2022\Community\VC\Tools\MSVC\14.34.31933\include\xstring
; File E:\Metin2_server\SolWayneSF v6\ClientVS22\source\UserInterface\PythonNetworkStreamCommand.cpp
; File C:\Program Files\Microsoft Visual Studio\2022\Community\VC\Tools\MSVC\14.34.31933\include\xmemory
; File E:\Metin2_server\SolWayneSF v6\ClientVS22\source\UserInterface\PythonNetworkStreamCommand.cpp
; File C:\Program Files\Microsoft Visual Studio\2022\Community\VC\Tools\MSVC\14.34.31933\include\xmemory
; File E:\Metin2_server\SolWayneSF v6\ClientVS22\source\UserInterface\PythonNetworkStreamCommand.cpp
;	COMDAT ?ServerCommand@CPythonNetworkStream@@QAEXPAD@Z
_TEXT	SEGMENT
_this$GSCopy$1$ = -224					; size = 4
_c_szCommand$GSCopy$1$ = -220				; size = 4
_pInstance1$1$ = -216					; size = 4
_iVID1$1$ = -216					; size = 4
_pInstance1$1$ = -216					; size = 4
_iVID1$1$ = -216					; size = 4
_pInstance1$1$ = -216					; size = 4
_iVID1$1$ = -216					; size = 4
_gold$1$ = -216						; size = 4
tv6582 = -216						; size = 4
tv6579 = -216						; size = 4
tv6236 = -216						; size = 4
tv6227 = -216						; size = 4
_f$2 = -216						; size = 4
_fAngle$1$ = -212					; size = 4
tv6251 = -212						; size = 4
__Ptr$ = -212						; size = 4
__Ptr$ = -212						; size = 4
__Ptr$ = -212						; size = 4
__Ptr$ = -212						; size = 4
__Ptr$ = -212						; size = 4
_byDistance$1$ = -205					; size = 1
_isTrue$3 = -205					; size = 1
_isTrue$4 = -205					; size = 1
_dwVID$1$ = -204					; size = 4
tv6243 = -204						; size = 4
tv6215 = -204						; size = 4
__Bytes$ = -204						; size = 4
__Bytes$ = -204						; size = 4
__Bytes$ = -204						; size = 4
__Bytes$ = -204						; size = 4
__Bytes$ = -204						; size = 4
_TokenVector$ = -200					; size = 12
$T5 = -188						; size = 24
$T6 = -164						; size = 24
$T7 = -140						; size = 24
$T8 = -116						; size = 24
$T9 = -92						; size = 24
$T10 = -92						; size = 24
$T11 = -68						; size = 24
_v3Rotation$12 = -56					; size = 12
$T13 = -44						; size = 24
$T14 = -44						; size = 24
$T15 = -44						; size = 24
$T16 = -44						; size = 24
$T17 = -44						; size = 24
$T18 = -44						; size = 24
$T19 = -44						; size = 24
_$S1$20 = -44						; size = 24
_PixelPosition$21 = -32					; size = 12
__$ArrayPad$ = -20					; size = 4
__$EHRec$ = -12						; size = 12
_c_szCommand$ = 8					; size = 4
?ServerCommand@CPythonNetworkStream@@QAEXPAD@Z PROC	; CPythonNetworkStream::ServerCommand, COMDAT
; _this$ = ecx

; 133  : {

  00000	53		 push	 ebx
  00001	8b dc		 mov	 ebx, esp
  00003	83 ec 08	 sub	 esp, 8
  00006	83 e4 f8	 and	 esp, -8			; fffffff8H
  00009	83 c4 04	 add	 esp, 4
  0000c	55		 push	 ebp
  0000d	8b 6b 04	 mov	 ebp, DWORD PTR [ebx+4]
  00010	89 6c 24 04	 mov	 DWORD PTR [esp+4], ebp
  00014	8b ec		 mov	 ebp, esp
  00016	6a ff		 push	 -1
  00018	68 00 00 00 00	 push	 __ehhandler$?ServerCommand@CPythonNetworkStream@@QAEXPAD@Z
  0001d	64 a1 00 00 00
	00		 mov	 eax, DWORD PTR fs:0
  00023	50		 push	 eax
  00024	53		 push	 ebx
  00025	81 ec d0 00 00
	00		 sub	 esp, 208		; 000000d0H
  0002b	a1 00 00 00 00	 mov	 eax, DWORD PTR ___security_cookie
  00030	33 c5		 xor	 eax, ebp
  00032	89 45 ec	 mov	 DWORD PTR __$ArrayPad$[ebp], eax
  00035	56		 push	 esi
  00036	57		 push	 edi
  00037	50		 push	 eax
  00038	8d 45 f4	 lea	 eax, DWORD PTR __$EHRec$[ebp]
  0003b	64 a3 00 00 00
	00		 mov	 DWORD PTR fs:0, eax
  00041	8b f9		 mov	 edi, ecx
  00043	89 bd 20 ff ff
	ff		 mov	 DWORD PTR _this$GSCopy$1$[ebp], edi
  00049	8b 73 08	 mov	 esi, DWORD PTR _c_szCommand$[ebx]

; 134  : 	// #0000811: [M2EU]    
; 135  : 	if (strcmpi(c_szCommand, "ConsoleEnable") == 0)

  0004c	68 00 00 00 00	 push	 OFFSET ??_C@_0O@NGPLKLCI@ConsoleEnable@
  00051	56		 push	 esi
  00052	89 b5 24 ff ff
	ff		 mov	 DWORD PTR _c_szCommand$GSCopy$1$[ebp], esi
  00058	e8 00 00 00 00	 call	 __strcmpi
  0005d	83 c4 08	 add	 esp, 8
  00060	85 c0		 test	 eax, eax
  00062	0f 84 70 13 00
	00		 je	 $LN203@ServerComm

; 136  : 		return;
; 137  : 
; 138  : 	if (m_apoPhaseWnd[PHASE_WINDOW_GAME])

  00068	83 bf 90 01 00
	00 00		 cmp	 DWORD PTR [edi+400], 0
  0006f	a1 00 00 00 00	 mov	 eax, DWORD PTR __imp__Py_BuildValue
  00074	74 1d		 je	 SHORT $LN6@ServerComm

; 139  : 	{
; 140  : 		bool isTrue;
; 141  : 		if (PyCallClassMemberFunc(m_apoPhaseWnd[PHASE_WINDOW_GAME], 

  00076	56		 push	 esi
  00077	68 00 00 00 00	 push	 OFFSET ??_C@_03KJMMOONA@?$CIs?$CJ@
  0007c	ff d0		 call	 eax
  0007e	8d 8d 33 ff ff
	ff		 lea	 ecx, DWORD PTR _isTrue$4[ebp]
  00084	51		 push	 ecx
  00085	50		 push	 eax
  00086	68 00 00 00 00	 push	 OFFSET ??_C@_0BJ@GKNJMEFC@BINARY_ServerCommand_Run@
  0008b	ff b7 90 01 00
	00		 push	 DWORD PTR [edi+400]

; 142  : 			"BINARY_ServerCommand_Run", 
; 143  : 			Py_BuildValue("(s)", c_szCommand),
; 144  : 			&isTrue
; 145  : 		))
; 146  : 		{
; 147  : 			if (isTrue)
; 148  : 				return;
; 149  : 		}
; 150  : 	}

  00091	eb 24		 jmp	 SHORT $LN1369@ServerComm
$LN6@ServerComm:

; 151  : 	else if (m_poSerCommandParserWnd)

  00093	83 bf 98 01 00
	00 00		 cmp	 DWORD PTR [edi+408], 0
  0009a	74 34		 je	 SHORT $LN12@ServerComm

; 152  : 	{
; 153  : 		bool isTrue;
; 154  : 		if (PyCallClassMemberFunc(m_poSerCommandParserWnd, 

  0009c	56		 push	 esi
  0009d	68 00 00 00 00	 push	 OFFSET ??_C@_03KJMMOONA@?$CIs?$CJ@
  000a2	ff d0		 call	 eax
  000a4	8d 8d 33 ff ff
	ff		 lea	 ecx, DWORD PTR _isTrue$3[ebp]
  000aa	51		 push	 ecx
  000ab	50		 push	 eax
  000ac	68 00 00 00 00	 push	 OFFSET ??_C@_0BJ@GKNJMEFC@BINARY_ServerCommand_Run@
  000b1	ff b7 98 01 00
	00		 push	 DWORD PTR [edi+408]
$LN1369@ServerComm:
; File C:\Program Files\Microsoft Visual Studio\2022\Community\VC\Tools\MSVC\14.34.31933\include\vector

; 390  :     _CONSTEXPR20 _Vector_val() noexcept : _Myfirst(), _Mylast(), _Myend() {}

  000b7	e8 00 00 00 00	 call	 ?PyCallClassMemberFunc@@YA_NPAU_object@@PBD0PA_N@Z ; PyCallClassMemberFunc
  000bc	83 c4 18	 add	 esp, 24			; 00000018H
  000bf	84 c0		 test	 al, al
  000c1	74 0d		 je	 SHORT $LN12@ServerComm
  000c3	80 bd 33 ff ff
	ff 00		 cmp	 BYTE PTR _isTrue$3[ebp], 0
  000ca	0f 85 08 13 00
	00		 jne	 $LN203@ServerComm
$LN12@ServerComm:
  000d0	c7 85 38 ff ff
	ff 00 00 00 00	 mov	 DWORD PTR _TokenVector$[ebp], 0
  000da	c7 85 3c ff ff
	ff 00 00 00 00	 mov	 DWORD PTR _TokenVector$[ebp+4], 0
  000e4	c7 85 40 ff ff
	ff 00 00 00 00	 mov	 DWORD PTR _TokenVector$[ebp+8], 0
; File E:\Metin2_server\SolWayneSF v6\ClientVS22\source\UserInterface\PythonNetworkStreamCommand.cpp

; 166  : 	if (!SplitToken(c_szCommand, &TokenVector))

  000ee	51		 push	 ecx
  000ef	8d 95 38 ff ff
	ff		 lea	 edx, DWORD PTR _TokenVector$[ebp]
  000f5	c7 45 fc 00 00
	00 00		 mov	 DWORD PTR __$EHRec$[ebp+8], 0
  000fc	8b ce		 mov	 ecx, esi
  000fe	e8 00 00 00 00	 call	 ?SplitToken@@YA_NPBDPAV?$vector@V?$basic_string@DU?$char_traits@D@std@@V?$allocator@D@2@@std@@V?$allocator@V?$basic_string@DU?$char_traits@D@std@@V?$allocator@D@2@@std@@@2@@std@@0@Z ; SplitToken
  00103	8b bd 38 ff ff
	ff		 mov	 edi, DWORD PTR _TokenVector$[ebp]
  00109	83 c4 04	 add	 esp, 4
  0010c	84 c0		 test	 al, al
  0010e	8b 85 3c ff ff
	ff		 mov	 eax, DWORD PTR _TokenVector$[ebp+4]
  00114	0f 84 f9 09 00
	00		 je	 $LN108@ServerComm

; 167  : 		return;
; 168  : 	if (TokenVector.empty())

  0011a	3b f8		 cmp	 edi, eax
  0011c	0f 84 f1 09 00
	00		 je	 $LN108@ServerComm
; File C:\Program Files\Microsoft Visual Studio\2022\Community\VC\Tools\MSVC\14.34.31933\include\xstring

; 2292 :         const value_type* _Result = _Bx._Buf;

  00122	8b f7		 mov	 esi, edi
  00124	8b c6		 mov	 eax, esi

; 2293 :         if (_Large_string_engaged()) {

  00126	83 78 14 10	 cmp	 DWORD PTR [eax+20], 16	; 00000010H
  0012a	72 02		 jb	 SHORT $LN227@ServerComm

; 2294 :             _Result = _Unfancy(_Bx._Ptr);

  0012c	8b 37		 mov	 esi, DWORD PTR [edi]
$LN227@ServerComm:
; File E:\Metin2_server\SolWayneSF v6\ClientVS22\source\UserInterface\PythonNetworkStreamCommand.cpp

; 173  : 	if (!strcmpi(szCmd, "quit"))

  0012e	68 00 00 00 00	 push	 OFFSET ??_C@_04KNNLNNGO@quit@
  00133	56		 push	 esi
  00134	e8 00 00 00 00	 call	 __strcmpi
  00139	83 c4 08	 add	 esp, 8
  0013c	85 c0		 test	 eax, eax
  0013e	75 0c		 jne	 SHORT $LN15@ServerComm

; 174  : 	{
; 175  : 		PostQuitMessage(0);

  00140	50		 push	 eax
  00141	ff 15 00 00 00
	00		 call	 DWORD PTR __imp__PostQuitMessage@4

; 176  : 	}

  00147	e9 c1 09 00 00	 jmp	 $LN1364@ServerComm
$LN15@ServerComm:

; 177  : 	else if (!strcmpi(szCmd, "BettingMoney"))

  0014c	68 00 00 00 00	 push	 OFFSET ??_C@_0N@JEPOMHGB@BettingMoney@
  00151	56		 push	 esi
  00152	e8 00 00 00 00	 call	 __strcmpi
  00157	83 c4 08	 add	 esp, 8
  0015a	85 c0		 test	 eax, eax
  0015c	75 29		 jne	 SHORT $LN17@ServerComm
; File C:\Program Files\Microsoft Visual Studio\2022\Community\VC\Tools\MSVC\14.34.31933\include\vector

; 1932 :         return static_cast<size_type>(_My_data._Mylast - _My_data._Myfirst);

  0015e	8b 85 3c ff ff
	ff		 mov	 eax, DWORD PTR _TokenVector$[ebp+4]
  00164	2b c7		 sub	 eax, edi
; File E:\Metin2_server\SolWayneSF v6\ClientVS22\source\UserInterface\PythonNetworkStreamCommand.cpp

; 179  : 		if (2 != TokenVector.size())

  00166	83 f8 30	 cmp	 eax, 48			; 00000030H
  00169	0f 84 9e 09 00
	00		 je	 $LN1364@ServerComm
$LN1370@ServerComm:
; File C:\Program Files\Microsoft Visual Studio\2022\Community\VC\Tools\MSVC\14.34.31933\include\vector

; 2107 :         if (_Myfirst) { // destroy and deallocate old array

  0016f	ff b5 24 ff ff
	ff		 push	 DWORD PTR _c_szCommand$GSCopy$1$[ebp]
  00175	68 00 00 00 00	 push	 OFFSET ??_C@_0FD@MGEFFJHF@CPythonNetworkStream?3?3ServerCom@
  0017a	e8 00 00 00 00	 call	 ?TraceError@@YAXPBDZZ	; TraceError
  0017f	83 c4 08	 add	 esp, 8
  00182	e9 86 09 00 00	 jmp	 $LN1364@ServerComm
$LN17@ServerComm:
; File E:\Metin2_server\SolWayneSF v6\ClientVS22\source\UserInterface\PythonNetworkStreamCommand.cpp

; 189  : 	else if (!strcmpi(szCmd, "gift"))

  00187	68 00 00 00 00	 push	 OFFSET ??_C@_04FDOIBAFG@gift@
  0018c	56		 push	 esi
  0018d	e8 00 00 00 00	 call	 __strcmpi
  00192	83 c4 08	 add	 esp, 8
  00195	85 c0		 test	 eax, eax
  00197	75 2e		 jne	 SHORT $LN20@ServerComm

; 190  : 	{
; 191  : 		PyCallClassMemberFunc(m_apoPhaseWnd[PHASE_WINDOW_GAME], "Gift_Show", Py_BuildValue("()")); 	

  00199	a1 00 00 00 00	 mov	 eax, DWORD PTR __imp__Py_BuildValue
  0019e	68 00 00 00 00	 push	 OFFSET ??_C@_02HCKGKOFO@?$CI?$CJ@
  001a3	ff d0		 call	 eax
  001a5	83 c4 04	 add	 esp, 4
  001a8	50		 push	 eax
  001a9	68 00 00 00 00	 push	 OFFSET ??_C@_09MBHMFCFC@Gift_Show@
$LN1372@ServerComm:
; File C:\Program Files\Microsoft Visual Studio\2022\Community\VC\Tools\MSVC\14.34.31933\include\vector

; 2107 :         if (_Myfirst) { // destroy and deallocate old array

  001ae	8b 8d 20 ff ff
	ff		 mov	 ecx, DWORD PTR _this$GSCopy$1$[ebp]
  001b4	ff b1 90 01 00
	00		 push	 DWORD PTR [ecx+400]
  001ba	e8 00 00 00 00	 call	 ?PyCallClassMemberFunc@@YA_NPAU_object@@PBD0@Z ; PyCallClassMemberFunc
  001bf	83 c4 0c	 add	 esp, 12			; 0000000cH
  001c2	e9 46 09 00 00	 jmp	 $LN1364@ServerComm
$LN20@ServerComm:
; File E:\Metin2_server\SolWayneSF v6\ClientVS22\source\UserInterface\PythonNetworkStreamCommand.cpp

; 194  : 	else if (!strcmpi(szCmd, "cube"))

  001c7	68 00 00 00 00	 push	 OFFSET ??_C@_04OIHHNFHN@cube@
  001cc	56		 push	 esi
  001cd	e8 00 00 00 00	 call	 __strcmpi
  001d2	83 c4 08	 add	 esp, 8
  001d5	85 c0		 test	 eax, eax
  001d7	0f 85 57 03 00
	00		 jne	 $LN22@ServerComm
; File C:\Program Files\Microsoft Visual Studio\2022\Community\VC\Tools\MSVC\14.34.31933\include\vector

; 1932 :         return static_cast<size_type>(_My_data._Mylast - _My_data._Myfirst);

  001dd	8b 85 3c ff ff
	ff		 mov	 eax, DWORD PTR _TokenVector$[ebp+4]
  001e3	2b c7		 sub	 eax, edi
  001e5	89 85 34 ff ff
	ff		 mov	 DWORD PTR tv6215[ebp], eax
  001eb	c1 f8 03	 sar	 eax, 3
  001ee	69 c0 ab aa aa
	aa		 imul	 eax, eax, -1431655765
  001f4	89 85 28 ff ff
	ff		 mov	 DWORD PTR tv6227[ebp], eax
; File E:\Metin2_server\SolWayneSF v6\ClientVS22\source\UserInterface\PythonNetworkStreamCommand.cpp

; 196  : 		if (TokenVector.size() < 2)

  001fa	83 f8 02	 cmp	 eax, 2
  001fd	0f 82 6c ff ff
	ff		 jb	 $LN1370@ServerComm
; File C:\Program Files\Microsoft Visual Studio\2022\Community\VC\Tools\MSVC\14.34.31933\include\xstring

; 2301 :         return _BUF_SIZE <= _Myres;

  00203	83 7f 2c 10	 cmp	 DWORD PTR [edi+44], 16	; 00000010H
; File C:\Program Files\Microsoft Visual Studio\2022\Community\VC\Tools\MSVC\14.34.31933\include\vector

; 1952 :         return _My_data._Myfirst[_Pos];

  00207	8d 77 18	 lea	 esi, DWORD PTR [edi+24]
; File C:\Program Files\Microsoft Visual Studio\2022\Community\VC\Tools\MSVC\14.34.31933\include\xstring

; 4756 :         return _Traits_equal<_Traits>(_Mypair._Myval2._Myptr(), _Mypair._Myval2._Mysize, _Ptr, _Traits::length(_Ptr));

  0020a	8b 46 10	 mov	 eax, DWORD PTR [esi+16]

; 2292 :         const value_type* _Result = _Bx._Buf;

  0020d	8b ce		 mov	 ecx, esi

; 4756 :         return _Traits_equal<_Traits>(_Mypair._Myval2._Myptr(), _Mypair._Myval2._Mysize, _Ptr, _Traits::length(_Ptr));

  0020f	89 85 2c ff ff
	ff		 mov	 DWORD PTR tv6251[ebp], eax

; 2293 :         if (_Large_string_engaged()) {

  00215	72 02		 jb	 SHORT $LN1341@ServerComm

; 2294 :             _Result = _Unfancy(_Bx._Ptr);

  00217	8b 0e		 mov	 ecx, DWORD PTR [esi]
$LN1341@ServerComm:

; 4756 :         return _Traits_equal<_Traits>(_Mypair._Myval2._Myptr(), _Mypair._Myval2._Mysize, _Ptr, _Traits::length(_Ptr));

  00219	6a 04		 push	 4
  0021b	68 00 00 00 00	 push	 OFFSET ??_C@_04PMOCAHAA@open@
  00220	50		 push	 eax
  00221	51		 push	 ecx
  00222	e8 00 00 00 00	 call	 ??$_Traits_equal@U?$char_traits@D@std@@@std@@YA_NQBDI0I@Z ; std::_Traits_equal<std::char_traits<char> >
  00227	83 c4 10	 add	 esp, 16			; 00000010H
; File E:\Metin2_server\SolWayneSF v6\ClientVS22\source\UserInterface\PythonNetworkStreamCommand.cpp

; 202  : 		if ("open" == TokenVector[1])

  0022a	84 c0		 test	 al, al
  0022c	74 4d		 je	 SHORT $LN25@ServerComm

; 203  : 		{
; 204  : 			if (3 > TokenVector.size())

  0022e	83 bd 28 ff ff
	ff 03		 cmp	 DWORD PTR tv6227[ebp], 3
  00235	0f 82 34 ff ff
	ff		 jb	 $LN1370@ServerComm
; File C:\Program Files\Microsoft Visual Studio\2022\Community\VC\Tools\MSVC\14.34.31933\include\xstring

; 2301 :         return _BUF_SIZE <= _Myres;

  0023b	83 7f 44 10	 cmp	 DWORD PTR [edi+68], 16	; 00000010H
; File C:\Program Files\Microsoft Visual Studio\2022\Community\VC\Tools\MSVC\14.34.31933\include\vector

; 1952 :         return _My_data._Myfirst[_Pos];

  0023f	8d 47 30	 lea	 eax, DWORD PTR [edi+48]
; File C:\Program Files\Microsoft Visual Studio\2022\Community\VC\Tools\MSVC\14.34.31933\include\xstring

; 2293 :         if (_Large_string_engaged()) {

  00242	72 02		 jb	 SHORT $LN279@ServerComm

; 2294 :             _Result = _Unfancy(_Bx._Ptr);

  00244	8b 00		 mov	 eax, DWORD PTR [eax]
$LN279@ServerComm:
; File E:\Metin2_server\SolWayneSF v6\ClientVS22\source\UserInterface\PythonNetworkStreamCommand.cpp

; 210  : 			DWORD npcVNUM = (DWORD)atoi(TokenVector[2].c_str());

  00246	50		 push	 eax
  00247	e8 00 00 00 00	 call	 __atoi64
  0024c	83 c4 04	 add	 esp, 4

; 211  : 			PyCallClassMemberFunc(m_apoPhaseWnd[PHASE_WINDOW_GAME], "BINARY_Cube_Open", Py_BuildValue("(i)", npcVNUM));

  0024f	50		 push	 eax
  00250	a1 00 00 00 00	 mov	 eax, DWORD PTR __imp__Py_BuildValue
  00255	68 00 00 00 00	 push	 OFFSET ??_C@_03LIHNMIHG@?$CIi?$CJ@
  0025a	ff d0		 call	 eax
  0025c	50		 push	 eax
  0025d	68 00 00 00 00	 push	 OFFSET ??_C@_0BB@OJMMNJOG@BINARY_Cube_Open@
$LN1374@ServerComm:
; File C:\Program Files\Microsoft Visual Studio\2022\Community\VC\Tools\MSVC\14.34.31933\include\vector

; 2107 :         if (_Myfirst) { // destroy and deallocate old array

  00262	8b 8d 20 ff ff
	ff		 mov	 ecx, DWORD PTR _this$GSCopy$1$[ebp]
  00268	ff b1 90 01 00
	00		 push	 DWORD PTR [ecx+400]
  0026e	e8 00 00 00 00	 call	 ?PyCallClassMemberFunc@@YA_NPAU_object@@PBD0@Z ; PyCallClassMemberFunc
  00273	83 c4 14	 add	 esp, 20			; 00000014H
  00276	e9 92 08 00 00	 jmp	 $LN1364@ServerComm
$LN25@ServerComm:
; File C:\Program Files\Microsoft Visual Studio\2022\Community\VC\Tools\MSVC\14.34.31933\include\xstring

; 2301 :         return _BUF_SIZE <= _Myres;

  0027b	83 7e 14 10	 cmp	 DWORD PTR [esi+20], 16	; 00000010H

; 2292 :         const value_type* _Result = _Bx._Buf;

  0027f	8b c6		 mov	 eax, esi

; 2293 :         if (_Large_string_engaged()) {

  00281	72 02		 jb	 SHORT $LN1342@ServerComm

; 2294 :             _Result = _Unfancy(_Bx._Ptr);

  00283	8b 06		 mov	 eax, DWORD PTR [esi]
$LN1342@ServerComm:

; 4756 :         return _Traits_equal<_Traits>(_Mypair._Myval2._Myptr(), _Mypair._Myval2._Mysize, _Ptr, _Traits::length(_Ptr));

  00285	6a 05		 push	 5
  00287	68 00 00 00 00	 push	 OFFSET ??_C@_05LBOHBHFK@close@
  0028c	ff b5 2c ff ff
	ff		 push	 DWORD PTR tv6251[ebp]
  00292	50		 push	 eax
  00293	e8 00 00 00 00	 call	 ??$_Traits_equal@U?$char_traits@D@std@@@std@@YA_NQBDI0I@Z ; std::_Traits_equal<std::char_traits<char> >
  00298	83 c4 10	 add	 esp, 16			; 00000010H
; File E:\Metin2_server\SolWayneSF v6\ClientVS22\source\UserInterface\PythonNetworkStreamCommand.cpp

; 213  : 		else if ("close" == TokenVector[1])

  0029b	84 c0		 test	 al, al
  0029d	74 1a		 je	 SHORT $LN28@ServerComm

; 214  : 		{
; 215  : 			PyCallClassMemberFunc(m_apoPhaseWnd[PHASE_WINDOW_GAME], "BINARY_Cube_Close", Py_BuildValue("()"));

  0029f	a1 00 00 00 00	 mov	 eax, DWORD PTR __imp__Py_BuildValue
  002a4	68 00 00 00 00	 push	 OFFSET ??_C@_02HCKGKOFO@?$CI?$CJ@
  002a9	ff d0		 call	 eax
  002ab	83 c4 04	 add	 esp, 4
  002ae	50		 push	 eax
  002af	68 00 00 00 00	 push	 OFFSET ??_C@_0BC@PIJLHOMJ@BINARY_Cube_Close@

; 216  : 		}

  002b4	e9 f5 fe ff ff	 jmp	 $LN1372@ServerComm
$LN28@ServerComm:
; File C:\Program Files\Microsoft Visual Studio\2022\Community\VC\Tools\MSVC\14.34.31933\include\xstring

; 2301 :         return _BUF_SIZE <= _Myres;

  002b9	83 7e 14 10	 cmp	 DWORD PTR [esi+20], 16	; 00000010H

; 2292 :         const value_type* _Result = _Bx._Buf;

  002bd	8b c6		 mov	 eax, esi

; 2293 :         if (_Large_string_engaged()) {

  002bf	72 02		 jb	 SHORT $LN1343@ServerComm

; 2294 :             _Result = _Unfancy(_Bx._Ptr);

  002c1	8b 06		 mov	 eax, DWORD PTR [esi]
$LN1343@ServerComm:

; 4756 :         return _Traits_equal<_Traits>(_Mypair._Myval2._Myptr(), _Mypair._Myval2._Mysize, _Ptr, _Traits::length(_Ptr));

  002c3	6a 04		 push	 4
  002c5	68 00 00 00 00	 push	 OFFSET ??_C@_04NIDJFNBE@info@
  002ca	ff b5 2c ff ff
	ff		 push	 DWORD PTR tv6251[ebp]
  002d0	50		 push	 eax
  002d1	e8 00 00 00 00	 call	 ??$_Traits_equal@U?$char_traits@D@std@@@std@@YA_NQBDI0I@Z ; std::_Traits_equal<std::char_traits<char> >
  002d6	83 c4 10	 add	 esp, 16			; 00000010H
; File E:\Metin2_server\SolWayneSF v6\ClientVS22\source\UserInterface\PythonNetworkStreamCommand.cpp

; 217  : 		else if ("info" == TokenVector[1])

  002d9	84 c0		 test	 al, al
  002db	0f 84 84 00 00
	00		 je	 $LN30@ServerComm

; 218  : 		{
; 219  : 			if (5 != TokenVector.size())

  002e1	83 bd 34 ff ff
	ff 78		 cmp	 DWORD PTR tv6215[ebp], 120 ; 00000078H
  002e8	0f 85 81 fe ff
	ff		 jne	 $LN1370@ServerComm
; File C:\Program Files\Microsoft Visual Studio\2022\Community\VC\Tools\MSVC\14.34.31933\include\xstring

; 2301 :         return _BUF_SIZE <= _Myres;

  002ee	83 7f 44 10	 cmp	 DWORD PTR [edi+68], 16	; 00000010H
; File C:\Program Files\Microsoft Visual Studio\2022\Community\VC\Tools\MSVC\14.34.31933\include\vector

; 1952 :         return _My_data._Myfirst[_Pos];

  002f2	8d 47 30	 lea	 eax, DWORD PTR [edi+48]
; File C:\Program Files\Microsoft Visual Studio\2022\Community\VC\Tools\MSVC\14.34.31933\include\xstring

; 2293 :         if (_Large_string_engaged()) {

  002f5	72 02		 jb	 SHORT $LN386@ServerComm

; 2294 :             _Result = _Unfancy(_Bx._Ptr);

  002f7	8b 00		 mov	 eax, DWORD PTR [eax]
$LN386@ServerComm:
; File E:\Metin2_server\SolWayneSF v6\ClientVS22\source\UserInterface\PythonNetworkStreamCommand.cpp

; 225  : 			UINT gold = atoi(TokenVector[2].c_str());

  002f9	50		 push	 eax
  002fa	e8 00 00 00 00	 call	 __atoi64
; File C:\Program Files\Microsoft Visual Studio\2022\Community\VC\Tools\MSVC\14.34.31933\include\vector

; 1952 :         return _My_data._Myfirst[_Pos];

  002ff	8d 4f 48	 lea	 ecx, DWORD PTR [edi+72]
; File E:\Metin2_server\SolWayneSF v6\ClientVS22\source\UserInterface\PythonNetworkStreamCommand.cpp

; 225  : 			UINT gold = atoi(TokenVector[2].c_str());

  00302	89 85 28 ff ff
	ff		 mov	 DWORD PTR _gold$1$[ebp], eax
  00308	83 c4 04	 add	 esp, 4
; File C:\Program Files\Microsoft Visual Studio\2022\Community\VC\Tools\MSVC\14.34.31933\include\xstring

; 2301 :         return _BUF_SIZE <= _Myres;

  0030b	83 79 14 10	 cmp	 DWORD PTR [ecx+20], 16	; 00000010H

; 2293 :         if (_Large_string_engaged()) {

  0030f	72 02		 jb	 SHORT $LN395@ServerComm

; 2294 :             _Result = _Unfancy(_Bx._Ptr);

  00311	8b 09		 mov	 ecx, DWORD PTR [ecx]
$LN395@ServerComm:
; File E:\Metin2_server\SolWayneSF v6\ClientVS22\source\UserInterface\PythonNetworkStreamCommand.cpp

; 226  : 			UINT itemVnum = atoi(TokenVector[3].c_str());

  00313	51		 push	 ecx
  00314	e8 00 00 00 00	 call	 __atoi64
; File C:\Program Files\Microsoft Visual Studio\2022\Community\VC\Tools\MSVC\14.34.31933\include\vector

; 1952 :         return _My_data._Myfirst[_Pos];

  00319	8d 4f 60	 lea	 ecx, DWORD PTR [edi+96]
; File E:\Metin2_server\SolWayneSF v6\ClientVS22\source\UserInterface\PythonNetworkStreamCommand.cpp

; 226  : 			UINT itemVnum = atoi(TokenVector[3].c_str());

  0031c	83 c4 04	 add	 esp, 4
; File C:\Program Files\Microsoft Visual Studio\2022\Community\VC\Tools\MSVC\14.34.31933\include\xstring

; 2301 :         return _BUF_SIZE <= _Myres;

  0031f	83 79 14 10	 cmp	 DWORD PTR [ecx+20], 16	; 00000010H
; File E:\Metin2_server\SolWayneSF v6\ClientVS22\source\UserInterface\PythonNetworkStreamCommand.cpp

; 226  : 			UINT itemVnum = atoi(TokenVector[3].c_str());

  00323	8b f0		 mov	 esi, eax
; File C:\Program Files\Microsoft Visual Studio\2022\Community\VC\Tools\MSVC\14.34.31933\include\xstring

; 2293 :         if (_Large_string_engaged()) {

  00325	72 02		 jb	 SHORT $LN404@ServerComm

; 2294 :             _Result = _Unfancy(_Bx._Ptr);

  00327	8b 09		 mov	 ecx, DWORD PTR [ecx]
$LN404@ServerComm:
; File E:\Metin2_server\SolWayneSF v6\ClientVS22\source\UserInterface\PythonNetworkStreamCommand.cpp

; 227  : 			UINT count = atoi(TokenVector[4].c_str());

  00329	51		 push	 ecx
  0032a	e8 00 00 00 00	 call	 __atoi64
  0032f	83 c4 04	 add	 esp, 4

; 228  : 			PyCallClassMemberFunc(m_apoPhaseWnd[PHASE_WINDOW_GAME], "BINARY_Cube_UpdateInfo", Py_BuildValue("(iii)", gold, itemVnum, count));

  00332	50		 push	 eax
  00333	a1 00 00 00 00	 mov	 eax, DWORD PTR __imp__Py_BuildValue
  00338	56		 push	 esi
  00339	ff b5 28 ff ff
	ff		 push	 DWORD PTR _gold$1$[ebp]
  0033f	68 00 00 00 00	 push	 OFFSET ??_C@_05HEIOBLPG@?$CIiii?$CJ@
  00344	ff d0		 call	 eax
  00346	50		 push	 eax
  00347	68 00 00 00 00	 push	 OFFSET ??_C@_0BH@DMGJNFKF@BINARY_Cube_UpdateInfo@
$LN1375@ServerComm:
; File C:\Program Files\Microsoft Visual Studio\2022\Community\VC\Tools\MSVC\14.34.31933\include\vector

; 2107 :         if (_Myfirst) { // destroy and deallocate old array

  0034c	8b 8d 20 ff ff
	ff		 mov	 ecx, DWORD PTR _this$GSCopy$1$[ebp]
  00352	ff b1 90 01 00
	00		 push	 DWORD PTR [ecx+400]
  00358	e8 00 00 00 00	 call	 ?PyCallClassMemberFunc@@YA_NPAU_object@@PBD0@Z ; PyCallClassMemberFunc
  0035d	83 c4 1c	 add	 esp, 28			; 0000001cH
  00360	e9 a8 07 00 00	 jmp	 $LN1364@ServerComm
$LN30@ServerComm:
; File C:\Program Files\Microsoft Visual Studio\2022\Community\VC\Tools\MSVC\14.34.31933\include\xstring

; 2301 :         return _BUF_SIZE <= _Myres;

  00365	83 7e 14 10	 cmp	 DWORD PTR [esi+20], 16	; 00000010H

; 2292 :         const value_type* _Result = _Bx._Buf;

  00369	8b c6		 mov	 eax, esi

; 2293 :         if (_Large_string_engaged()) {

  0036b	72 02		 jb	 SHORT $LN1344@ServerComm

; 2294 :             _Result = _Unfancy(_Bx._Ptr);

  0036d	8b 06		 mov	 eax, DWORD PTR [esi]
$LN1344@ServerComm:

; 4756 :         return _Traits_equal<_Traits>(_Mypair._Myval2._Myptr(), _Mypair._Myval2._Mysize, _Ptr, _Traits::length(_Ptr));

  0036f	6a 07		 push	 7
  00371	68 00 00 00 00	 push	 OFFSET ??_C@_07IPNMCAN@success@
  00376	ff b5 2c ff ff
	ff		 push	 DWORD PTR tv6251[ebp]
  0037c	50		 push	 eax
  0037d	e8 00 00 00 00	 call	 ??$_Traits_equal@U?$char_traits@D@std@@@std@@YA_NQBDI0I@Z ; std::_Traits_equal<std::char_traits<char> >
  00382	83 c4 10	 add	 esp, 16			; 00000010H
; File E:\Metin2_server\SolWayneSF v6\ClientVS22\source\UserInterface\PythonNetworkStreamCommand.cpp

; 230  : 		else if ("success" == TokenVector[1])

  00385	84 c0		 test	 al, al
  00387	74 53		 je	 SHORT $LN33@ServerComm

; 231  : 		{
; 232  : 			if (4 != TokenVector.size())

  00389	83 bd 34 ff ff
	ff 60		 cmp	 DWORD PTR tv6215[ebp], 96 ; 00000060H
  00390	0f 85 d9 fd ff
	ff		 jne	 $LN1370@ServerComm
; File C:\Program Files\Microsoft Visual Studio\2022\Community\VC\Tools\MSVC\14.34.31933\include\xstring

; 2301 :         return _BUF_SIZE <= _Myres;

  00396	83 7f 44 10	 cmp	 DWORD PTR [edi+68], 16	; 00000010H
; File C:\Program Files\Microsoft Visual Studio\2022\Community\VC\Tools\MSVC\14.34.31933\include\vector

; 1952 :         return _My_data._Myfirst[_Pos];

  0039a	8d 47 30	 lea	 eax, DWORD PTR [edi+48]
; File C:\Program Files\Microsoft Visual Studio\2022\Community\VC\Tools\MSVC\14.34.31933\include\xstring

; 2293 :         if (_Large_string_engaged()) {

  0039d	72 02		 jb	 SHORT $LN440@ServerComm

; 2294 :             _Result = _Unfancy(_Bx._Ptr);

  0039f	8b 00		 mov	 eax, DWORD PTR [eax]
$LN440@ServerComm:
; File E:\Metin2_server\SolWayneSF v6\ClientVS22\source\UserInterface\PythonNetworkStreamCommand.cpp

; 238  : 			UINT itemVnum = atoi(TokenVector[2].c_str());

  003a1	50		 push	 eax
  003a2	e8 00 00 00 00	 call	 __atoi64
; File C:\Program Files\Microsoft Visual Studio\2022\Community\VC\Tools\MSVC\14.34.31933\include\vector

; 1952 :         return _My_data._Myfirst[_Pos];

  003a7	8d 4f 48	 lea	 ecx, DWORD PTR [edi+72]
; File E:\Metin2_server\SolWayneSF v6\ClientVS22\source\UserInterface\PythonNetworkStreamCommand.cpp

; 238  : 			UINT itemVnum = atoi(TokenVector[2].c_str());

  003aa	83 c4 04	 add	 esp, 4
; File C:\Program Files\Microsoft Visual Studio\2022\Community\VC\Tools\MSVC\14.34.31933\include\xstring

; 2301 :         return _BUF_SIZE <= _Myres;

  003ad	83 79 14 10	 cmp	 DWORD PTR [ecx+20], 16	; 00000010H
; File E:\Metin2_server\SolWayneSF v6\ClientVS22\source\UserInterface\PythonNetworkStreamCommand.cpp

; 238  : 			UINT itemVnum = atoi(TokenVector[2].c_str());

  003b1	8b f0		 mov	 esi, eax
; File C:\Program Files\Microsoft Visual Studio\2022\Community\VC\Tools\MSVC\14.34.31933\include\xstring

; 2293 :         if (_Large_string_engaged()) {

  003b3	72 02		 jb	 SHORT $LN413@ServerComm

; 2294 :             _Result = _Unfancy(_Bx._Ptr);

  003b5	8b 09		 mov	 ecx, DWORD PTR [ecx]
$LN413@ServerComm:
; File E:\Metin2_server\SolWayneSF v6\ClientVS22\source\UserInterface\PythonNetworkStreamCommand.cpp

; 239  : 			UINT count = atoi(TokenVector[3].c_str());

  003b7	51		 push	 ecx
  003b8	e8 00 00 00 00	 call	 __atoi64
  003bd	83 c4 04	 add	 esp, 4

; 240  : 			PyCallClassMemberFunc(m_apoPhaseWnd[PHASE_WINDOW_GAME], "BINARY_Cube_Succeed", Py_BuildValue("(ii)", itemVnum, count));

  003c0	50		 push	 eax
  003c1	a1 00 00 00 00	 mov	 eax, DWORD PTR __imp__Py_BuildValue
  003c6	56		 push	 esi
  003c7	68 00 00 00 00	 push	 OFFSET ??_C@_04INACLLOK@?$CIii?$CJ@
  003cc	ff d0		 call	 eax
  003ce	83 c4 0c	 add	 esp, 12			; 0000000cH
  003d1	50		 push	 eax
  003d2	68 00 00 00 00	 push	 OFFSET ??_C@_0BE@HLNHNAAA@BINARY_Cube_Succeed@

; 241  : 		}

  003d7	e9 d2 fd ff ff	 jmp	 $LN1372@ServerComm
$LN33@ServerComm:
; File C:\Program Files\Microsoft Visual Studio\2022\Community\VC\Tools\MSVC\14.34.31933\include\xstring

; 2301 :         return _BUF_SIZE <= _Myres;

  003dc	83 7e 14 10	 cmp	 DWORD PTR [esi+20], 16	; 00000010H

; 2292 :         const value_type* _Result = _Bx._Buf;

  003e0	8b c6		 mov	 eax, esi

; 2293 :         if (_Large_string_engaged()) {

  003e2	72 02		 jb	 SHORT $LN1345@ServerComm

; 2294 :             _Result = _Unfancy(_Bx._Ptr);

  003e4	8b 06		 mov	 eax, DWORD PTR [esi]
$LN1345@ServerComm:

; 4756 :         return _Traits_equal<_Traits>(_Mypair._Myval2._Myptr(), _Mypair._Myval2._Mysize, _Ptr, _Traits::length(_Ptr));

  003e6	6a 04		 push	 4
  003e8	68 00 00 00 00	 push	 OFFSET ??_C@_04CCHLMOGN@fail@
  003ed	ff b5 2c ff ff
	ff		 push	 DWORD PTR tv6251[ebp]
  003f3	50		 push	 eax
  003f4	e8 00 00 00 00	 call	 ??$_Traits_equal@U?$char_traits@D@std@@@std@@YA_NQBDI0I@Z ; std::_Traits_equal<std::char_traits<char> >
  003f9	83 c4 10	 add	 esp, 16			; 00000010H
; File E:\Metin2_server\SolWayneSF v6\ClientVS22\source\UserInterface\PythonNetworkStreamCommand.cpp

; 242  : 		else if ("fail" == TokenVector[1])

  003fc	84 c0		 test	 al, al
  003fe	74 1a		 je	 SHORT $LN36@ServerComm

; 243  : 		{
; 244  : 			PyCallClassMemberFunc(m_apoPhaseWnd[PHASE_WINDOW_GAME], "BINARY_Cube_Failed", Py_BuildValue("()"));

  00400	a1 00 00 00 00	 mov	 eax, DWORD PTR __imp__Py_BuildValue
  00405	68 00 00 00 00	 push	 OFFSET ??_C@_02HCKGKOFO@?$CI?$CJ@
  0040a	ff d0		 call	 eax
  0040c	83 c4 04	 add	 esp, 4
  0040f	50		 push	 eax
  00410	68 00 00 00 00	 push	 OFFSET ??_C@_0BD@IKENMBNJ@BINARY_Cube_Failed@

; 245  : 		}

  00415	e9 94 fd ff ff	 jmp	 $LN1372@ServerComm
$LN36@ServerComm:
; File C:\Program Files\Microsoft Visual Studio\2022\Community\VC\Tools\MSVC\14.34.31933\include\xstring

; 2301 :         return _BUF_SIZE <= _Myres;

  0041a	83 7e 14 10	 cmp	 DWORD PTR [esi+20], 16	; 00000010H

; 2292 :         const value_type* _Result = _Bx._Buf;

  0041e	8b c6		 mov	 eax, esi

; 2293 :         if (_Large_string_engaged()) {

  00420	72 02		 jb	 SHORT $LN1346@ServerComm

; 2294 :             _Result = _Unfancy(_Bx._Ptr);

  00422	8b 06		 mov	 eax, DWORD PTR [esi]
$LN1346@ServerComm:

; 4756 :         return _Traits_equal<_Traits>(_Mypair._Myval2._Myptr(), _Mypair._Myval2._Mysize, _Ptr, _Traits::length(_Ptr));

  00424	6a 06		 push	 6
  00426	68 00 00 00 00	 push	 OFFSET ??_C@_06ODLEBDJP@r_list@
  0042b	ff b5 2c ff ff
	ff		 push	 DWORD PTR tv6251[ebp]
  00431	50		 push	 eax
  00432	e8 00 00 00 00	 call	 ??$_Traits_equal@U?$char_traits@D@std@@@std@@YA_NQBDI0I@Z ; std::_Traits_equal<std::char_traits<char> >
  00437	83 c4 10	 add	 esp, 16			; 00000010H
; File E:\Metin2_server\SolWayneSF v6\ClientVS22\source\UserInterface\PythonNetworkStreamCommand.cpp

; 246  : 		else if ("r_list" == TokenVector[1])

  0043a	84 c0		 test	 al, al
  0043c	74 5e		 je	 SHORT $LN38@ServerComm

; 247  : 		{
; 248  : 			// result list (/cube r_list npcVNUM resultCount resultText)
; 249  : 			// 20383 4 72723,1/72725,1/72730.1/50001,5 <-  "/"    
; 250  : 			if (5 != TokenVector.size())

  0043e	83 bd 34 ff ff
	ff 78		 cmp	 DWORD PTR tv6215[ebp], 120 ; 00000078H
  00445	74 1a		 je	 SHORT $LN40@ServerComm

; 251  : 			{
; 252  : 				TraceError("CPythonNetworkStream::ServerCommand(c_szCommand=%s) - Strange Parameter Count : %d", c_szCommand, 5);

  00447	6a 05		 push	 5
  00449	ff b5 24 ff ff
	ff		 push	 DWORD PTR _c_szCommand$GSCopy$1$[ebp]
  0044f	68 00 00 00 00	 push	 OFFSET ??_C@_0FD@MDMGNNOD@CPythonNetworkStream?3?3ServerCom@
  00454	e8 00 00 00 00	 call	 ?TraceError@@YAXPBDZZ	; TraceError
; File C:\Program Files\Microsoft Visual Studio\2022\Community\VC\Tools\MSVC\14.34.31933\include\vector

; 2107 :         if (_Myfirst) { // destroy and deallocate old array

  00459	83 c4 0c	 add	 esp, 12			; 0000000cH
  0045c	e9 ac 06 00 00	 jmp	 $LN1364@ServerComm
$LN40@ServerComm:
; File C:\Program Files\Microsoft Visual Studio\2022\Community\VC\Tools\MSVC\14.34.31933\include\xstring

; 2301 :         return _BUF_SIZE <= _Myres;

  00461	83 7f 44 10	 cmp	 DWORD PTR [edi+68], 16	; 00000010H
; File C:\Program Files\Microsoft Visual Studio\2022\Community\VC\Tools\MSVC\14.34.31933\include\vector

; 1952 :         return _My_data._Myfirst[_Pos];

  00465	8d 47 30	 lea	 eax, DWORD PTR [edi+48]
; File C:\Program Files\Microsoft Visual Studio\2022\Community\VC\Tools\MSVC\14.34.31933\include\xstring

; 2293 :         if (_Large_string_engaged()) {

  00468	72 02		 jb	 SHORT $LN496@ServerComm

; 2294 :             _Result = _Unfancy(_Bx._Ptr);

  0046a	8b 00		 mov	 eax, DWORD PTR [eax]
$LN496@ServerComm:
; File E:\Metin2_server\SolWayneSF v6\ClientVS22\source\UserInterface\PythonNetworkStreamCommand.cpp

; 256  : 			DWORD npcVNUM = (DWORD)atoi(TokenVector[2].c_str());

  0046c	50		 push	 eax
  0046d	e8 00 00 00 00	 call	 __atoi64
; File C:\Program Files\Microsoft Visual Studio\2022\Community\VC\Tools\MSVC\14.34.31933\include\vector

; 1952 :         return _My_data._Myfirst[_Pos];

  00472	8d 4f 60	 lea	 ecx, DWORD PTR [edi+96]
; File E:\Metin2_server\SolWayneSF v6\ClientVS22\source\UserInterface\PythonNetworkStreamCommand.cpp

; 256  : 			DWORD npcVNUM = (DWORD)atoi(TokenVector[2].c_str());

  00475	83 c4 04	 add	 esp, 4
; File C:\Program Files\Microsoft Visual Studio\2022\Community\VC\Tools\MSVC\14.34.31933\include\xstring

; 2301 :         return _BUF_SIZE <= _Myres;

  00478	83 79 14 10	 cmp	 DWORD PTR [ecx+20], 16	; 00000010H

; 2293 :         if (_Large_string_engaged()) {

  0047c	72 02		 jb	 SHORT $LN503@ServerComm

; 2294 :             _Result = _Unfancy(_Bx._Ptr);

  0047e	8b 09		 mov	 ecx, DWORD PTR [ecx]
$LN503@ServerComm:
; File E:\Metin2_server\SolWayneSF v6\ClientVS22\source\UserInterface\PythonNetworkStreamCommand.cpp

; 258  : 			PyCallClassMemberFunc(m_apoPhaseWnd[PHASE_WINDOW_GAME], "BINARY_Cube_ResultList", Py_BuildValue("(is)", npcVNUM, TokenVector[4].c_str()));

  00480	51		 push	 ecx
  00481	50		 push	 eax
  00482	a1 00 00 00 00	 mov	 eax, DWORD PTR __imp__Py_BuildValue
  00487	68 00 00 00 00	 push	 OFFSET ??_C@_04JMLDJNEM@?$CIis?$CJ@
  0048c	ff d0		 call	 eax
  0048e	83 c4 0c	 add	 esp, 12			; 0000000cH
  00491	50		 push	 eax
  00492	68 00 00 00 00	 push	 OFFSET ??_C@_0BH@JONCIELM@BINARY_Cube_ResultList@

; 259  : 		}

  00497	e9 12 fd ff ff	 jmp	 $LN1372@ServerComm
$LN38@ServerComm:
; File C:\Program Files\Microsoft Visual Studio\2022\Community\VC\Tools\MSVC\14.34.31933\include\xstring

; 2301 :         return _BUF_SIZE <= _Myres;

  0049c	83 7e 14 10	 cmp	 DWORD PTR [esi+20], 16	; 00000010H

; 2293 :         if (_Large_string_engaged()) {

  004a0	72 02		 jb	 SHORT $LN477@ServerComm

; 2294 :             _Result = _Unfancy(_Bx._Ptr);

  004a2	8b 36		 mov	 esi, DWORD PTR [esi]
$LN477@ServerComm:

; 4756 :         return _Traits_equal<_Traits>(_Mypair._Myval2._Myptr(), _Mypair._Myval2._Mysize, _Ptr, _Traits::length(_Ptr));

  004a4	6a 06		 push	 6
  004a6	68 00 00 00 00	 push	 OFFSET ??_C@_06JEMOOCHA@m_info@
  004ab	ff b5 2c ff ff
	ff		 push	 DWORD PTR tv6251[ebp]
  004b1	56		 push	 esi
  004b2	e8 00 00 00 00	 call	 ??$_Traits_equal@U?$char_traits@D@std@@@std@@YA_NQBDI0I@Z ; std::_Traits_equal<std::char_traits<char> >
  004b7	83 c4 10	 add	 esp, 16			; 00000010H
; File E:\Metin2_server\SolWayneSF v6\ClientVS22\source\UserInterface\PythonNetworkStreamCommand.cpp

; 260  : 		else if ("m_info" == TokenVector[1])

  004ba	84 c0		 test	 al, al
  004bc	0f 84 4b 06 00
	00		 je	 $LN1364@ServerComm

; 261  : 		{
; 262  : 			// material list (/cube m_info requestStartIndex resultCount MaterialText)
; 263  : 			// ex) requestStartIndex: 0, resultCount : 5 -  NPC     0~4        MaterialText 
; 264  : 			//       "@"  
; 265  : 			// 0 5 125,1|126,2|127,2|123,5&555,5&555,4/120000 <-     
; 266  : 
; 267  : 			if (5 != TokenVector.size())

  004c2	83 bd 34 ff ff
	ff 78		 cmp	 DWORD PTR tv6215[ebp], 120 ; 00000078H
  004c9	74 1a		 je	 SHORT $LN42@ServerComm

; 268  : 			{
; 269  : 				TraceError("CPythonNetworkStream::ServerCommand(c_szCommand=%s) - Strange Parameter Count : %d", c_szCommand, 5);

  004cb	6a 05		 push	 5
  004cd	ff b5 24 ff ff
	ff		 push	 DWORD PTR _c_szCommand$GSCopy$1$[ebp]
  004d3	68 00 00 00 00	 push	 OFFSET ??_C@_0FD@MDMGNNOD@CPythonNetworkStream?3?3ServerCom@
  004d8	e8 00 00 00 00	 call	 ?TraceError@@YAXPBDZZ	; TraceError
; File C:\Program Files\Microsoft Visual Studio\2022\Community\VC\Tools\MSVC\14.34.31933\include\vector

; 2107 :         if (_Myfirst) { // destroy and deallocate old array

  004dd	83 c4 0c	 add	 esp, 12			; 0000000cH
  004e0	e9 28 06 00 00	 jmp	 $LN1364@ServerComm
$LN42@ServerComm:
; File C:\Program Files\Microsoft Visual Studio\2022\Community\VC\Tools\MSVC\14.34.31933\include\xstring

; 2301 :         return _BUF_SIZE <= _Myres;

  004e5	83 7f 44 10	 cmp	 DWORD PTR [edi+68], 16	; 00000010H
; File C:\Program Files\Microsoft Visual Studio\2022\Community\VC\Tools\MSVC\14.34.31933\include\vector

; 1952 :         return _My_data._Myfirst[_Pos];

  004e9	8d 47 30	 lea	 eax, DWORD PTR [edi+48]
; File C:\Program Files\Microsoft Visual Studio\2022\Community\VC\Tools\MSVC\14.34.31933\include\xstring

; 2293 :         if (_Large_string_engaged()) {

  004ec	72 02		 jb	 SHORT $LN530@ServerComm

; 2294 :             _Result = _Unfancy(_Bx._Ptr);

  004ee	8b 00		 mov	 eax, DWORD PTR [eax]
$LN530@ServerComm:
; File E:\Metin2_server\SolWayneSF v6\ClientVS22\source\UserInterface\PythonNetworkStreamCommand.cpp

; 273  : 			UINT requestStartIndex = (UINT)atoi(TokenVector[2].c_str());

  004f0	50		 push	 eax
  004f1	e8 00 00 00 00	 call	 __atoi64
; File C:\Program Files\Microsoft Visual Studio\2022\Community\VC\Tools\MSVC\14.34.31933\include\vector

; 1952 :         return _My_data._Myfirst[_Pos];

  004f6	8d 4f 48	 lea	 ecx, DWORD PTR [edi+72]
; File E:\Metin2_server\SolWayneSF v6\ClientVS22\source\UserInterface\PythonNetworkStreamCommand.cpp

; 273  : 			UINT requestStartIndex = (UINT)atoi(TokenVector[2].c_str());

  004f9	83 c4 04	 add	 esp, 4
; File C:\Program Files\Microsoft Visual Studio\2022\Community\VC\Tools\MSVC\14.34.31933\include\xstring

; 2301 :         return _BUF_SIZE <= _Myres;

  004fc	83 79 14 10	 cmp	 DWORD PTR [ecx+20], 16	; 00000010H
; File E:\Metin2_server\SolWayneSF v6\ClientVS22\source\UserInterface\PythonNetworkStreamCommand.cpp

; 273  : 			UINT requestStartIndex = (UINT)atoi(TokenVector[2].c_str());

  00500	8b f0		 mov	 esi, eax
; File C:\Program Files\Microsoft Visual Studio\2022\Community\VC\Tools\MSVC\14.34.31933\include\xstring

; 2293 :         if (_Large_string_engaged()) {

  00502	72 02		 jb	 SHORT $LN512@ServerComm

; 2294 :             _Result = _Unfancy(_Bx._Ptr);

  00504	8b 09		 mov	 ecx, DWORD PTR [ecx]
$LN512@ServerComm:
; File E:\Metin2_server\SolWayneSF v6\ClientVS22\source\UserInterface\PythonNetworkStreamCommand.cpp

; 274  : 			UINT resultCount = (UINT)atoi(TokenVector[3].c_str());

  00506	51		 push	 ecx
  00507	e8 00 00 00 00	 call	 __atoi64
; File C:\Program Files\Microsoft Visual Studio\2022\Community\VC\Tools\MSVC\14.34.31933\include\vector

; 1952 :         return _My_data._Myfirst[_Pos];

  0050c	8d 4f 60	 lea	 ecx, DWORD PTR [edi+96]
; File E:\Metin2_server\SolWayneSF v6\ClientVS22\source\UserInterface\PythonNetworkStreamCommand.cpp

; 274  : 			UINT resultCount = (UINT)atoi(TokenVector[3].c_str());

  0050f	83 c4 04	 add	 esp, 4
; File C:\Program Files\Microsoft Visual Studio\2022\Community\VC\Tools\MSVC\14.34.31933\include\xstring

; 2301 :         return _BUF_SIZE <= _Myres;

  00512	83 79 14 10	 cmp	 DWORD PTR [ecx+20], 16	; 00000010H

; 2293 :         if (_Large_string_engaged()) {

  00516	72 02		 jb	 SHORT $LN521@ServerComm

; 2294 :             _Result = _Unfancy(_Bx._Ptr);

  00518	8b 09		 mov	 ecx, DWORD PTR [ecx]
$LN521@ServerComm:
; File E:\Metin2_server\SolWayneSF v6\ClientVS22\source\UserInterface\PythonNetworkStreamCommand.cpp

; 276  : 			PyCallClassMemberFunc(m_apoPhaseWnd[PHASE_WINDOW_GAME], "BINARY_Cube_MaterialInfo", Py_BuildValue("(iis)", requestStartIndex, resultCount, TokenVector[4].c_str()));

  0051a	51		 push	 ecx
  0051b	50		 push	 eax
  0051c	a1 00 00 00 00	 mov	 eax, DWORD PTR __imp__Py_BuildValue
  00521	56		 push	 esi
  00522	68 00 00 00 00	 push	 OFFSET ??_C@_05GFDPDNFA@?$CIiis?$CJ@
  00527	ff d0		 call	 eax
  00529	50		 push	 eax
  0052a	68 00 00 00 00	 push	 OFFSET ??_C@_0BJ@DLFAEHHE@BINARY_Cube_MaterialInfo@

; 277  : 		}
; 278  : 	}

  0052f	e9 18 fe ff ff	 jmp	 $LN1375@ServerComm
$LN22@ServerComm:

; 279  : 	// CUEBE_END
; 280  : 	else if (!strcmpi(szCmd, "ObserverCount"))

  00534	68 00 00 00 00	 push	 OFFSET ??_C@_0O@HADNNBFL@ObserverCount@
  00539	56		 push	 esi
  0053a	e8 00 00 00 00	 call	 __strcmpi
  0053f	83 c4 08	 add	 esp, 8
  00542	85 c0		 test	 eax, eax
  00544	75 3d		 jne	 SHORT $LN43@ServerComm
; File C:\Program Files\Microsoft Visual Studio\2022\Community\VC\Tools\MSVC\14.34.31933\include\vector

; 1932 :         return static_cast<size_type>(_My_data._Mylast - _My_data._Myfirst);

  00546	8b 85 3c ff ff
	ff		 mov	 eax, DWORD PTR _TokenVector$[ebp+4]
  0054c	2b c7		 sub	 eax, edi
; File E:\Metin2_server\SolWayneSF v6\ClientVS22\source\UserInterface\PythonNetworkStreamCommand.cpp

; 282  : 		if (2 != TokenVector.size())

  0054e	83 f8 30	 cmp	 eax, 48			; 00000030H
  00551	0f 85 18 fc ff
	ff		 jne	 $LN1370@ServerComm
; File C:\Program Files\Microsoft Visual Studio\2022\Community\VC\Tools\MSVC\14.34.31933\include\xstring

; 2301 :         return _BUF_SIZE <= _Myres;

  00557	83 7f 2c 10	 cmp	 DWORD PTR [edi+44], 16	; 00000010H
; File C:\Program Files\Microsoft Visual Studio\2022\Community\VC\Tools\MSVC\14.34.31933\include\vector

; 1952 :         return _My_data._Myfirst[_Pos];

  0055b	8d 47 18	 lea	 eax, DWORD PTR [edi+24]
; File C:\Program Files\Microsoft Visual Studio\2022\Community\VC\Tools\MSVC\14.34.31933\include\xstring

; 2293 :         if (_Large_string_engaged()) {

  0055e	72 02		 jb	 SHORT $LN257@ServerComm

; 2294 :             _Result = _Unfancy(_Bx._Ptr);

  00560	8b 00		 mov	 eax, DWORD PTR [eax]
$LN257@ServerComm:
; File E:\Metin2_server\SolWayneSF v6\ClientVS22\source\UserInterface\PythonNetworkStreamCommand.cpp

; 288  : 		UINT uObserverCount= atoi(TokenVector[1].c_str());				

  00562	50		 push	 eax
  00563	e8 00 00 00 00	 call	 __atoi64
  00568	83 c4 04	 add	 esp, 4

; 289  : 
; 290  : 		PyCallClassMemberFunc(m_apoPhaseWnd[PHASE_WINDOW_GAME], 

  0056b	50		 push	 eax
  0056c	a1 00 00 00 00	 mov	 eax, DWORD PTR __imp__Py_BuildValue
  00571	68 00 00 00 00	 push	 OFFSET ??_C@_03LIHNMIHG@?$CIi?$CJ@
  00576	ff d0		 call	 eax
  00578	50		 push	 eax
  00579	68 00 00 00 00	 push	 OFFSET ??_C@_0CL@MFEDAABM@BINARY_BettingGuildWar_UpdateOb@

; 291  : 			"BINARY_BettingGuildWar_UpdateObserverCount", 
; 292  : 			Py_BuildValue("(i)", uObserverCount)
; 293  : 		);
; 294  : 	}

  0057e	e9 df fc ff ff	 jmp	 $LN1374@ServerComm
$LN43@ServerComm:

; 295  : 	else if (!strcmpi(szCmd, "ObserverMode"))

  00583	68 00 00 00 00	 push	 OFFSET ??_C@_0N@EBGNMPMN@ObserverMode@
  00588	56		 push	 esi
  00589	e8 00 00 00 00	 call	 __strcmpi
  0058e	83 c4 08	 add	 esp, 8
  00591	85 c0		 test	 eax, eax
  00593	75 67		 jne	 SHORT $LN46@ServerComm
; File C:\Program Files\Microsoft Visual Studio\2022\Community\VC\Tools\MSVC\14.34.31933\include\vector

; 1932 :         return static_cast<size_type>(_My_data._Mylast - _My_data._Myfirst);

  00595	8b 85 3c ff ff
	ff		 mov	 eax, DWORD PTR _TokenVector$[ebp+4]
  0059b	2b c7		 sub	 eax, edi
; File E:\Metin2_server\SolWayneSF v6\ClientVS22\source\UserInterface\PythonNetworkStreamCommand.cpp

; 297  : 		if (2 != TokenVector.size())

  0059d	83 f8 30	 cmp	 eax, 48			; 00000030H
  005a0	0f 85 c9 fb ff
	ff		 jne	 $LN1370@ServerComm
; File C:\Program Files\Microsoft Visual Studio\2022\Community\VC\Tools\MSVC\14.34.31933\include\vector

; 1952 :         return _My_data._Myfirst[_Pos];

  005a6	83 c7 18	 add	 edi, 24			; 00000018H
; File C:\Program Files\Microsoft Visual Studio\2022\Community\VC\Tools\MSVC\14.34.31933\include\xstring

; 2301 :         return _BUF_SIZE <= _Myres;

  005a9	83 7f 14 10	 cmp	 DWORD PTR [edi+20], 16	; 00000010H

; 2293 :         if (_Large_string_engaged()) {

  005ad	72 02		 jb	 SHORT $LN288@ServerComm

; 2294 :             _Result = _Unfancy(_Bx._Ptr);

  005af	8b 3f		 mov	 edi, DWORD PTR [edi]
$LN288@ServerComm:
; File E:\Metin2_server\SolWayneSF v6\ClientVS22\source\UserInterface\PythonNetworkStreamCommand.cpp

; 303  : 		UINT uMode= atoi(TokenVector[1].c_str());

  005b1	57		 push	 edi
  005b2	e8 00 00 00 00	 call	 __atoi64

; 304  : 		
; 305  : 		IAbstractPlayer& rkPlayer=IAbstractPlayer::GetSingleton();

  005b7	8b 0d 00 00 00
	00		 mov	 ecx, DWORD PTR ?ms_singleton@?$TAbstractSingleton@VIAbstractPlayer@@@@0PAVIAbstractPlayer@@A ; TAbstractSingleton<IAbstractPlayer>::ms_singleton
  005bd	83 c4 04	 add	 esp, 4
  005c0	8b f8		 mov	 edi, eax

; 306  : 		rkPlayer.SetObserverMode(uMode ? true : false);

  005c2	85 ff		 test	 edi, edi
  005c4	8b 31		 mov	 esi, DWORD PTR [ecx]
  005c6	0f 95 c2	 setne	 dl
  005c9	0f b6 d2	 movzx	 edx, dl
  005cc	52		 push	 edx
  005cd	ff 56 74	 call	 DWORD PTR [esi+116]

; 307  : 
; 308  : 		PyCallClassMemberFunc(m_apoPhaseWnd[PHASE_WINDOW_GAME], 

  005d0	a1 00 00 00 00	 mov	 eax, DWORD PTR __imp__Py_BuildValue
  005d5	57		 push	 edi
  005d6	68 00 00 00 00	 push	 OFFSET ??_C@_03LIHNMIHG@?$CIi?$CJ@
  005db	ff d0		 call	 eax
  005dd	8b 8d 20 ff ff
	ff		 mov	 ecx, DWORD PTR _this$GSCopy$1$[ebp]
  005e3	50		 push	 eax
  005e4	68 00 00 00 00	 push	 OFFSET ??_C@_0CH@OENJEHPK@BINARY_BettingGuildWar_SetObser@
  005e9	ff b1 90 01 00
	00		 push	 DWORD PTR [ecx+400]
  005ef	e8 00 00 00 00	 call	 ?PyCallClassMemberFunc@@YA_NPAU_object@@PBD0@Z ; PyCallClassMemberFunc
  005f4	83 c4 14	 add	 esp, 20			; 00000014H
; File C:\Program Files\Microsoft Visual Studio\2022\Community\VC\Tools\MSVC\14.34.31933\include\vector

; 2107 :         if (_Myfirst) { // destroy and deallocate old array

  005f7	e9 0b 05 00 00	 jmp	 $LN1354@ServerComm
$LN46@ServerComm:
; File E:\Metin2_server\SolWayneSF v6\ClientVS22\source\UserInterface\PythonNetworkStreamCommand.cpp

; 313  : 	else if (!strcmpi(szCmd, "ObserverTeamInfo"))

  005fc	68 00 00 00 00	 push	 OFFSET ??_C@_0BB@MALBLMJA@ObserverTeamInfo@
  00601	56		 push	 esi
  00602	e8 00 00 00 00	 call	 __strcmpi
  00607	83 c4 08	 add	 esp, 8
  0060a	85 c0		 test	 eax, eax
  0060c	0f 84 fb 04 00
	00		 je	 $LN1364@ServerComm

; 314  : 	{		
; 315  : 	}
; 316  : 	else if (!strcmpi(szCmd, "StoneDetect"))

  00612	68 00 00 00 00	 push	 OFFSET ??_C@_0M@EEGHHMDP@StoneDetect@
  00617	56		 push	 esi
  00618	e8 00 00 00 00	 call	 __strcmpi
  0061d	83 c4 08	 add	 esp, 8
  00620	85 c0		 test	 eax, eax
  00622	0f 85 29 02 00
	00		 jne	 $LN51@ServerComm
; File C:\Program Files\Microsoft Visual Studio\2022\Community\VC\Tools\MSVC\14.34.31933\include\vector

; 1932 :         return static_cast<size_type>(_My_data._Mylast - _My_data._Myfirst);

  00628	8b 85 3c ff ff
	ff		 mov	 eax, DWORD PTR _TokenVector$[ebp+4]
  0062e	2b c7		 sub	 eax, edi
; File E:\Metin2_server\SolWayneSF v6\ClientVS22\source\UserInterface\PythonNetworkStreamCommand.cpp

; 318  : 		if (4 != TokenVector.size())

  00630	83 f8 60	 cmp	 eax, 96			; 00000060H
  00633	0f 85 36 fb ff
	ff		 jne	 $LN1370@ServerComm
; File C:\Program Files\Microsoft Visual Studio\2022\Community\VC\Tools\MSVC\14.34.31933\include\xstring

; 2301 :         return _BUF_SIZE <= _Myres;

  00639	83 7f 2c 10	 cmp	 DWORD PTR [edi+44], 16	; 00000010H
; File C:\Program Files\Microsoft Visual Studio\2022\Community\VC\Tools\MSVC\14.34.31933\include\vector

; 1952 :         return _My_data._Myfirst[_Pos];

  0063d	8d 47 18	 lea	 eax, DWORD PTR [edi+24]
; File C:\Program Files\Microsoft Visual Studio\2022\Community\VC\Tools\MSVC\14.34.31933\include\xstring

; 2293 :         if (_Large_string_engaged()) {

  00640	72 02		 jb	 SHORT $LN344@ServerComm

; 2294 :             _Result = _Unfancy(_Bx._Ptr);

  00642	8b 00		 mov	 eax, DWORD PTR [eax]
$LN344@ServerComm:
; File E:\Metin2_server\SolWayneSF v6\ClientVS22\source\UserInterface\PythonNetworkStreamCommand.cpp

; 325  : 		DWORD dwVID = atoi(TokenVector[1].c_str());

  00644	50		 push	 eax
  00645	e8 00 00 00 00	 call	 __atoi64
; File C:\Program Files\Microsoft Visual Studio\2022\Community\VC\Tools\MSVC\14.34.31933\include\vector

; 1952 :         return _My_data._Myfirst[_Pos];

  0064a	8d 4f 30	 lea	 ecx, DWORD PTR [edi+48]
; File E:\Metin2_server\SolWayneSF v6\ClientVS22\source\UserInterface\PythonNetworkStreamCommand.cpp

; 325  : 		DWORD dwVID = atoi(TokenVector[1].c_str());

  0064d	89 85 34 ff ff
	ff		 mov	 DWORD PTR _dwVID$1$[ebp], eax
  00653	83 c4 04	 add	 esp, 4
; File C:\Program Files\Microsoft Visual Studio\2022\Community\VC\Tools\MSVC\14.34.31933\include\xstring

; 2301 :         return _BUF_SIZE <= _Myres;

  00656	83 79 14 10	 cmp	 DWORD PTR [ecx+20], 16	; 00000010H

; 2293 :         if (_Large_string_engaged()) {

  0065a	72 02		 jb	 SHORT $LN353@ServerComm

; 2294 :             _Result = _Unfancy(_Bx._Ptr);

  0065c	8b 09		 mov	 ecx, DWORD PTR [ecx]
$LN353@ServerComm:
; File E:\Metin2_server\SolWayneSF v6\ClientVS22\source\UserInterface\PythonNetworkStreamCommand.cpp

; 326  : 		BYTE byDistance = atoi(TokenVector[2].c_str());

  0065e	51		 push	 ecx
  0065f	e8 00 00 00 00	 call	 __atoi64
; File C:\Program Files\Microsoft Visual Studio\2022\Community\VC\Tools\MSVC\14.34.31933\include\vector

; 1952 :         return _My_data._Myfirst[_Pos];

  00664	8d 77 48	 lea	 esi, DWORD PTR [edi+72]
; File E:\Metin2_server\SolWayneSF v6\ClientVS22\source\UserInterface\PythonNetworkStreamCommand.cpp

; 326  : 		BYTE byDistance = atoi(TokenVector[2].c_str());

  00667	88 85 33 ff ff
	ff		 mov	 BYTE PTR _byDistance$1$[ebp], al
  0066d	83 c4 04	 add	 esp, 4
; File C:\Program Files\Microsoft Visual Studio\2022\Community\VC\Tools\MSVC\14.34.31933\include\xstring

; 2292 :         const value_type* _Result = _Bx._Buf;

  00670	8b ce		 mov	 ecx, esi

; 2301 :         return _BUF_SIZE <= _Myres;

  00672	83 7e 14 10	 cmp	 DWORD PTR [esi+20], 16	; 00000010H

; 2293 :         if (_Large_string_engaged()) {

  00676	72 02		 jb	 SHORT $LN1347@ServerComm

; 2294 :             _Result = _Unfancy(_Bx._Ptr);

  00678	8b 0e		 mov	 ecx, DWORD PTR [esi]
$LN1347@ServerComm:
; File E:\Metin2_server\SolWayneSF v6\ClientVS22\source\UserInterface\PythonNetworkStreamCommand.cpp

; 327  : 		float fAngle = atof(TokenVector[3].c_str());

  0067a	51		 push	 ecx
  0067b	e8 00 00 00 00	 call	 _atof
; File C:\Program Files\Microsoft Visual Studio\2022\Community\VC\Tools\MSVC\14.34.31933\include\cmath

; 147  :     return _CSTD fmodf(_Xx, _Yx);

  00680	f3 0f 10 0d 00
	00 00 00	 movss	 xmm1, DWORD PTR __real@43b40000
; File E:\Metin2_server\SolWayneSF v6\ClientVS22\source\UserInterface\PythonNetworkStreamCommand.cpp

; 327  : 		float fAngle = atof(TokenVector[3].c_str());

  00688	83 c4 04	 add	 esp, 4
  0068b	d9 9d 28 ff ff
	ff		 fstp	 DWORD PTR tv6582[ebp]
  00691	d9 85 28 ff ff
	ff		 fld	 DWORD PTR tv6582[ebp]

; 328  : 		fAngle = fmod(540.0f - fAngle, 360.0f);

  00697	d8 2d 00 00 00
	00		 fsubr	 DWORD PTR __real@44070000
  0069d	d9 9d 28 ff ff
	ff		 fstp	 DWORD PTR tv6579[ebp]
; File C:\Program Files\Microsoft Visual Studio\2022\Community\VC\Tools\MSVC\14.34.31933\include\cmath

; 147  :     return _CSTD fmodf(_Xx, _Yx);

  006a3	f3 0f 10 85 28
	ff ff ff	 movss	 xmm0, DWORD PTR tv6579[ebp]
  006ab	e8 00 00 00 00	 call	 _fmodf
; File C:\Program Files\Microsoft Visual Studio\2022\Community\VC\Tools\MSVC\14.34.31933\include\xstring

; 2301 :         return _BUF_SIZE <= _Myres;

  006b0	83 7e 14 10	 cmp	 DWORD PTR [esi+20], 16	; 00000010H
; File C:\Program Files\Microsoft Visual Studio\2022\Community\VC\Tools\MSVC\14.34.31933\include\cmath

; 147  :     return _CSTD fmodf(_Xx, _Yx);

  006b4	f3 0f 11 85 2c
	ff ff ff	 movss	 DWORD PTR _fAngle$1$[ebp], xmm0
; File C:\Program Files\Microsoft Visual Studio\2022\Community\VC\Tools\MSVC\14.34.31933\include\xstring

; 2293 :         if (_Large_string_engaged()) {

  006bc	72 02		 jb	 SHORT $LN379@ServerComm

; 2294 :             _Result = _Unfancy(_Bx._Ptr);

  006be	8b 36		 mov	 esi, DWORD PTR [esi]
$LN379@ServerComm:
; File E:\Metin2_server\SolWayneSF v6\ClientVS22\source\UserInterface\PythonNetworkStreamCommand.cpp

; 329  : 		Tracef("StoneDetect [VID:%d] [Distance:%d] [Angle:%d->%f]\n", dwVID, byDistance, atoi(TokenVector[3].c_str()), fAngle);

  006c0	0f b6 85 33 ff
	ff ff		 movzx	 eax, BYTE PTR _byDistance$1$[ebp]
  006c7	83 ec 08	 sub	 esp, 8
  006ca	f3 0f 5a c0	 cvtss2sd xmm0, xmm0
  006ce	89 85 28 ff ff
	ff		 mov	 DWORD PTR tv6236[ebp], eax
  006d4	f2 0f 11 04 24	 movsd	 QWORD PTR [esp], xmm0
  006d9	56		 push	 esi
  006da	e8 00 00 00 00	 call	 __atoi64
  006df	8b b5 28 ff ff
	ff		 mov	 esi, DWORD PTR tv6236[ebp]
  006e5	83 c4 04	 add	 esp, 4
  006e8	52		 push	 edx
  006e9	50		 push	 eax
  006ea	56		 push	 esi
  006eb	ff b5 34 ff ff
	ff		 push	 DWORD PTR _dwVID$1$[ebp]
  006f1	68 00 00 00 00	 push	 OFFSET ??_C@_0DD@COMEEBAO@StoneDetect?5?$FLVID?3?$CFd?$FN?5?$FLDistance?3@
  006f6	e8 00 00 00 00	 call	 ?Tracef@@YAXPBDZZ	; Tracef

; 330  : 
; 331  : 		IAbstractCharacterManager& rkChrMgr=IAbstractCharacterManager::GetSingleton();

  006fb	8b 0d 00 00 00
	00		 mov	 ecx, DWORD PTR ?ms_singleton@?$TAbstractSingleton@VIAbstractCharacterManager@@@@0PAVIAbstractCharacterManager@@A ; TAbstractSingleton<IAbstractCharacterManager>::ms_singleton
  00701	83 c4 1c	 add	 esp, 28			; 0000001cH

; 332  : 
; 333  : 		CInstanceBase * pInstance = rkChrMgr.GetInstancePtr(dwVID);

  00704	8b 01		 mov	 eax, DWORD PTR [ecx]
  00706	ff b5 34 ff ff
	ff		 push	 DWORD PTR _dwVID$1$[ebp]
  0070c	8b 40 08	 mov	 eax, DWORD PTR [eax+8]
  0070f	ff d0		 call	 eax

; 334  : 		if (!pInstance)

  00711	85 c0		 test	 eax, eax
  00713	75 18		 jne	 SHORT $LN54@ServerComm

; 335  : 		{
; 336  : 			TraceError("CPythonNetworkStream::ServerCommand(c_szCommand=%s) - Not Exist Instance", c_szCommand);

  00715	ff b5 24 ff ff
	ff		 push	 DWORD PTR _c_szCommand$GSCopy$1$[ebp]
  0071b	68 00 00 00 00	 push	 OFFSET ??_C@_0EJ@MCLCAHNB@CPythonNetworkStream?3?3ServerCom@
; File C:\Program Files\Microsoft Visual Studio\2022\Community\VC\Tools\MSVC\14.34.31933\include\vector

; 2107 :         if (_Myfirst) { // destroy and deallocate old array

  00720	e8 00 00 00 00	 call	 ?TraceError@@YAXPBDZZ	; TraceError
  00725	83 c4 08	 add	 esp, 8
  00728	e9 e0 03 00 00	 jmp	 $LN1364@ServerComm
$LN54@ServerComm:
; File E:\Metin2_server\SolWayneSF v6\ClientVS22\extern\include\d3dx8math.inl

; 182  :     z = fz;

  0072d	f3 0f 10 85 2c
	ff ff ff	 movss	 xmm0, DWORD PTR _fAngle$1$[ebp]
; File E:\Metin2_server\SolWayneSF v6\ClientVS22\source\UserInterface\PythonNetworkStreamCommand.cpp

; 342  : 		pInstance->NEW_GetPixelPosition(&PixelPosition);

  00735	8d 4d e0	 lea	 ecx, DWORD PTR _PixelPosition$21[ebp]
  00738	51		 push	 ecx
  00739	8b c8		 mov	 ecx, eax
; File E:\Metin2_server\SolWayneSF v6\ClientVS22\extern\include\d3dx8math.inl

; 180  :     x = fx;

  0073b	c7 45 c8 00 00
	00 00		 mov	 DWORD PTR _v3Rotation$12[ebp], 0

; 181  :     y = fy;

  00742	c7 45 cc 00 00
	00 00		 mov	 DWORD PTR _v3Rotation$12[ebp+4], 0

; 182  :     z = fz;

  00749	f3 0f 11 45 d0	 movss	 DWORD PTR _v3Rotation$12[ebp+8], xmm0
; File E:\Metin2_server\SolWayneSF v6\ClientVS22\source\UserInterface\PythonNetworkStreamCommand.cpp

; 342  : 		pInstance->NEW_GetPixelPosition(&PixelPosition);

  0074e	e8 00 00 00 00	 call	 ?NEW_GetPixelPosition@CInstanceBase@@QAEXPAUD3DXVECTOR3@@@Z ; CInstanceBase::NEW_GetPixelPosition

; 343  : 
; 344  : 		PixelPosition.y *= -1.0f;

  00753	f3 0f 10 45 e4	 movss	 xmm0, DWORD PTR _PixelPosition$21[ebp+4]
  00758	f3 0f 59 05 00
	00 00 00	 mulss	 xmm0, DWORD PTR __real@bf800000
  00760	f3 0f 11 45 e4	 movss	 DWORD PTR _PixelPosition$21[ebp+4], xmm0

; 345  : 
; 346  : 		switch (byDistance)

  00765	83 fe 03	 cmp	 esi, 3
  00768	0f 87 cb 00 00
	00		 ja	 $LN59@ServerComm
  0076e	ff 24 b5 00 00
	00 00		 jmp	 DWORD PTR $LN1348@ServerComm[esi*4]
$LN55@ServerComm:

; 347  : 		{
; 348  : 			case 0:
; 349  : 				CEffectManager::Instance().RegisterEffect("d:/ymir work/effect/etc/firecracker/find_out.mse");

  00775	8b 0d 00 00 00
	00		 mov	 ecx, DWORD PTR ?ms_singleton@?$CSingleton@VCEffectManager@@@@0PAVCEffectManager@@A ; CSingleton<CEffectManager>::ms_singleton
  0077b	6a 00		 push	 0
  0077d	6a 00		 push	 0
  0077f	68 00 00 00 00	 push	 OFFSET ??_C@_0DB@CJFLAJFC@d?3?1ymir?5work?1effect?1etc?1firecra@
  00784	e8 00 00 00 00	 call	 ?RegisterEffect@CEffectManager@@QAEHPBD_N1@Z ; CEffectManager::RegisterEffect

; 350  : 				CEffectManager::Instance().CreateEffect("d:/ymir work/effect/etc/firecracker/find_out.mse", PixelPosition, v3Rotation);

  00789	8b 0d 00 00 00
	00		 mov	 ecx, DWORD PTR ?ms_singleton@?$CSingleton@VCEffectManager@@@@0PAVCEffectManager@@A ; CSingleton<CEffectManager>::ms_singleton
  0078f	8d 45 c8	 lea	 eax, DWORD PTR _v3Rotation$12[ebp]
  00792	50		 push	 eax
  00793	8d 45 e0	 lea	 eax, DWORD PTR _PixelPosition$21[ebp]
  00796	50		 push	 eax
  00797	68 00 00 00 00	 push	 OFFSET ??_C@_0DB@CJFLAJFC@d?3?1ymir?5work?1effect?1etc?1firecra@
  0079c	e8 00 00 00 00	 call	 ?CreateEffect@CEffectManager@@QAEHPBDABUD3DXVECTOR3@@1@Z ; CEffectManager::CreateEffect

; 351  : 				break;

  007a1	e9 67 03 00 00	 jmp	 $LN1364@ServerComm
$LN56@ServerComm:

; 352  : 			case 1:
; 353  : 				CEffectManager::Instance().RegisterEffect("d:/ymir work/effect/etc/compass/appear_small.mse");

  007a6	8b 0d 00 00 00
	00		 mov	 ecx, DWORD PTR ?ms_singleton@?$CSingleton@VCEffectManager@@@@0PAVCEffectManager@@A ; CSingleton<CEffectManager>::ms_singleton
  007ac	6a 00		 push	 0
  007ae	6a 00		 push	 0
  007b0	68 00 00 00 00	 push	 OFFSET ??_C@_0DB@KDMGCNFI@d?3?1ymir?5work?1effect?1etc?1compass@
  007b5	e8 00 00 00 00	 call	 ?RegisterEffect@CEffectManager@@QAEHPBD_N1@Z ; CEffectManager::RegisterEffect

; 354  : 				CEffectManager::Instance().CreateEffect("d:/ymir work/effect/etc/compass/appear_small.mse", PixelPosition, v3Rotation);

  007ba	8b 0d 00 00 00
	00		 mov	 ecx, DWORD PTR ?ms_singleton@?$CSingleton@VCEffectManager@@@@0PAVCEffectManager@@A ; CSingleton<CEffectManager>::ms_singleton
  007c0	8d 45 c8	 lea	 eax, DWORD PTR _v3Rotation$12[ebp]
  007c3	50		 push	 eax
  007c4	8d 45 e0	 lea	 eax, DWORD PTR _PixelPosition$21[ebp]
  007c7	50		 push	 eax
  007c8	68 00 00 00 00	 push	 OFFSET ??_C@_0DB@KDMGCNFI@d?3?1ymir?5work?1effect?1etc?1compass@
  007cd	e8 00 00 00 00	 call	 ?CreateEffect@CEffectManager@@QAEHPBDABUD3DXVECTOR3@@1@Z ; CEffectManager::CreateEffect

; 355  : 				break;

  007d2	e9 36 03 00 00	 jmp	 $LN1364@ServerComm
$LN57@ServerComm:

; 356  : 			case 2:
; 357  : 				CEffectManager::Instance().RegisterEffect("d:/ymir work/effect/etc/compass/appear_middle.mse");

  007d7	8b 0d 00 00 00
	00		 mov	 ecx, DWORD PTR ?ms_singleton@?$CSingleton@VCEffectManager@@@@0PAVCEffectManager@@A ; CSingleton<CEffectManager>::ms_singleton
  007dd	6a 00		 push	 0
  007df	6a 00		 push	 0
  007e1	68 00 00 00 00	 push	 OFFSET ??_C@_0DC@MDCBLGBM@d?3?1ymir?5work?1effect?1etc?1compass@
  007e6	e8 00 00 00 00	 call	 ?RegisterEffect@CEffectManager@@QAEHPBD_N1@Z ; CEffectManager::RegisterEffect

; 358  : 				CEffectManager::Instance().CreateEffect("d:/ymir work/effect/etc/compass/appear_middle.mse", PixelPosition, v3Rotation);

  007eb	8b 0d 00 00 00
	00		 mov	 ecx, DWORD PTR ?ms_singleton@?$CSingleton@VCEffectManager@@@@0PAVCEffectManager@@A ; CSingleton<CEffectManager>::ms_singleton
  007f1	8d 45 c8	 lea	 eax, DWORD PTR _v3Rotation$12[ebp]
  007f4	50		 push	 eax
  007f5	8d 45 e0	 lea	 eax, DWORD PTR _PixelPosition$21[ebp]
  007f8	50		 push	 eax
  007f9	68 00 00 00 00	 push	 OFFSET ??_C@_0DC@MDCBLGBM@d?3?1ymir?5work?1effect?1etc?1compass@
  007fe	e8 00 00 00 00	 call	 ?CreateEffect@CEffectManager@@QAEHPBDABUD3DXVECTOR3@@1@Z ; CEffectManager::CreateEffect

; 359  : 				break;

  00803	e9 05 03 00 00	 jmp	 $LN1364@ServerComm
$LN58@ServerComm:

; 360  : 			case 3:
; 361  : 				CEffectManager::Instance().RegisterEffect("d:/ymir work/effect/etc/compass/appear_large.mse");

  00808	8b 0d 00 00 00
	00		 mov	 ecx, DWORD PTR ?ms_singleton@?$CSingleton@VCEffectManager@@@@0PAVCEffectManager@@A ; CSingleton<CEffectManager>::ms_singleton
  0080e	6a 00		 push	 0
  00810	6a 00		 push	 0
  00812	68 00 00 00 00	 push	 OFFSET ??_C@_0DB@EEGLDHND@d?3?1ymir?5work?1effect?1etc?1compass@
  00817	e8 00 00 00 00	 call	 ?RegisterEffect@CEffectManager@@QAEHPBD_N1@Z ; CEffectManager::RegisterEffect

; 362  : 				CEffectManager::Instance().CreateEffect("d:/ymir work/effect/etc/compass/appear_large.mse", PixelPosition, v3Rotation);

  0081c	8b 0d 00 00 00
	00		 mov	 ecx, DWORD PTR ?ms_singleton@?$CSingleton@VCEffectManager@@@@0PAVCEffectManager@@A ; CSingleton<CEffectManager>::ms_singleton
  00822	8d 45 c8	 lea	 eax, DWORD PTR _v3Rotation$12[ebp]
  00825	50		 push	 eax
  00826	8d 45 e0	 lea	 eax, DWORD PTR _PixelPosition$21[ebp]
  00829	50		 push	 eax
  0082a	68 00 00 00 00	 push	 OFFSET ??_C@_0DB@EEGLDHND@d?3?1ymir?5work?1effect?1etc?1compass@
  0082f	e8 00 00 00 00	 call	 ?CreateEffect@CEffectManager@@QAEHPBDABUD3DXVECTOR3@@1@Z ; CEffectManager::CreateEffect

; 363  : 				break;

  00834	e9 d4 02 00 00	 jmp	 $LN1364@ServerComm
$LN59@ServerComm:

; 364  : 			default:
; 365  : 				TraceError("CPythonNetworkStream::ServerCommand(c_szCommand=%s) - Strange Distance", c_szCommand);

  00839	ff b5 24 ff ff
	ff		 push	 DWORD PTR _c_szCommand$GSCopy$1$[ebp]
  0083f	68 00 00 00 00	 push	 OFFSET ??_C@_0EH@NKAADCPI@CPythonNetworkStream?3?3ServerCom@
; File C:\Program Files\Microsoft Visual Studio\2022\Community\VC\Tools\MSVC\14.34.31933\include\vector

; 2107 :         if (_Myfirst) { // destroy and deallocate old array

  00844	e8 00 00 00 00	 call	 ?TraceError@@YAXPBDZZ	; TraceError
  00849	83 c4 08	 add	 esp, 8
  0084c	e9 bc 02 00 00	 jmp	 $LN1364@ServerComm
$LN51@ServerComm:
; File E:\Metin2_server\SolWayneSF v6\ClientVS22\source\UserInterface\PythonNetworkStreamCommand.cpp

; 374  : 	else if (!strcmpi(szCmd, "StartStaminaConsume"))

  00851	68 00 00 00 00	 push	 OFFSET ??_C@_0BE@FMEJBOHN@StartStaminaConsume@
  00856	56		 push	 esi
  00857	e8 00 00 00 00	 call	 __strcmpi
  0085c	83 c4 08	 add	 esp, 8
  0085f	85 c0		 test	 eax, eax
  00861	75 4d		 jne	 SHORT $LN60@ServerComm
; File C:\Program Files\Microsoft Visual Studio\2022\Community\VC\Tools\MSVC\14.34.31933\include\vector

; 1932 :         return static_cast<size_type>(_My_data._Mylast - _My_data._Myfirst);

  00863	8b 85 3c ff ff
	ff		 mov	 eax, DWORD PTR _TokenVector$[ebp+4]
  00869	2b c7		 sub	 eax, edi
; File E:\Metin2_server\SolWayneSF v6\ClientVS22\source\UserInterface\PythonNetworkStreamCommand.cpp

; 376  : 		if (3 != TokenVector.size())

  0086b	83 f8 48	 cmp	 eax, 72			; 00000048H
  0086e	0f 85 fb f8 ff
	ff		 jne	 $LN1370@ServerComm
; File C:\Program Files\Microsoft Visual Studio\2022\Community\VC\Tools\MSVC\14.34.31933\include\xstring

; 2301 :         return _BUF_SIZE <= _Myres;

  00874	83 7f 2c 10	 cmp	 DWORD PTR [edi+44], 16	; 00000010H
; File C:\Program Files\Microsoft Visual Studio\2022\Community\VC\Tools\MSVC\14.34.31933\include\vector

; 1952 :         return _My_data._Myfirst[_Pos];

  00878	8d 47 18	 lea	 eax, DWORD PTR [edi+24]
; File C:\Program Files\Microsoft Visual Studio\2022\Community\VC\Tools\MSVC\14.34.31933\include\xstring

; 2293 :         if (_Large_string_engaged()) {

  0087b	72 02		 jb	 SHORT $LN424@ServerComm

; 2294 :             _Result = _Unfancy(_Bx._Ptr);

  0087d	8b 00		 mov	 eax, DWORD PTR [eax]
$LN424@ServerComm:
; File E:\Metin2_server\SolWayneSF v6\ClientVS22\source\UserInterface\PythonNetworkStreamCommand.cpp

; 382  : 		DWORD dwConsumePerSec = atoi(TokenVector[1].c_str());

  0087f	50		 push	 eax
  00880	e8 00 00 00 00	 call	 __atoi64
; File C:\Program Files\Microsoft Visual Studio\2022\Community\VC\Tools\MSVC\14.34.31933\include\vector

; 1952 :         return _My_data._Myfirst[_Pos];

  00885	8d 4f 30	 lea	 ecx, DWORD PTR [edi+48]
; File E:\Metin2_server\SolWayneSF v6\ClientVS22\source\UserInterface\PythonNetworkStreamCommand.cpp

; 382  : 		DWORD dwConsumePerSec = atoi(TokenVector[1].c_str());

  00888	83 c4 04	 add	 esp, 4
; File C:\Program Files\Microsoft Visual Studio\2022\Community\VC\Tools\MSVC\14.34.31933\include\xstring

; 2301 :         return _BUF_SIZE <= _Myres;

  0088b	83 79 14 10	 cmp	 DWORD PTR [ecx+20], 16	; 00000010H
; File E:\Metin2_server\SolWayneSF v6\ClientVS22\source\UserInterface\PythonNetworkStreamCommand.cpp

; 382  : 		DWORD dwConsumePerSec = atoi(TokenVector[1].c_str());

  0088f	8b f0		 mov	 esi, eax
; File C:\Program Files\Microsoft Visual Studio\2022\Community\VC\Tools\MSVC\14.34.31933\include\xstring

; 2293 :         if (_Large_string_engaged()) {

  00891	72 02		 jb	 SHORT $LN433@ServerComm

; 2294 :             _Result = _Unfancy(_Bx._Ptr);

  00893	8b 09		 mov	 ecx, DWORD PTR [ecx]
$LN433@ServerComm:
; File E:\Metin2_server\SolWayneSF v6\ClientVS22\source\UserInterface\PythonNetworkStreamCommand.cpp

; 383  : 		DWORD dwCurrentStamina = atoi(TokenVector[2].c_str());

  00895	51		 push	 ecx
  00896	e8 00 00 00 00	 call	 __atoi64

; 384  : 
; 385  : 		IAbstractPlayer& rPlayer=IAbstractPlayer::GetSingleton();

  0089b	8b 0d 00 00 00
	00		 mov	 ecx, DWORD PTR ?ms_singleton@?$TAbstractSingleton@VIAbstractPlayer@@@@0PAVIAbstractPlayer@@A ; TAbstractSingleton<IAbstractPlayer>::ms_singleton
  008a1	83 c4 04	 add	 esp, 4

; 386  : 		rPlayer.StartStaminaConsume(dwConsumePerSec, dwCurrentStamina);

  008a4	8b 11		 mov	 edx, DWORD PTR [ecx]
  008a6	50		 push	 eax
  008a7	56		 push	 esi
  008a8	ff 52 1c	 call	 DWORD PTR [edx+28]

; 387  : 	}

  008ab	e9 5d 02 00 00	 jmp	 $LN1364@ServerComm
$LN60@ServerComm:

; 388  : 	
; 389  : 	else if (!strcmpi(szCmd, "StopStaminaConsume"))

  008b0	68 00 00 00 00	 push	 OFFSET ??_C@_0BD@IEDOLMCO@StopStaminaConsume@
  008b5	56		 push	 esi
  008b6	e8 00 00 00 00	 call	 __strcmpi
  008bb	83 c4 08	 add	 esp, 8
  008be	85 c0		 test	 eax, eax
  008c0	75 57		 jne	 SHORT $LN63@ServerComm
; File C:\Program Files\Microsoft Visual Studio\2022\Community\VC\Tools\MSVC\14.34.31933\include\vector

; 1932 :         return static_cast<size_type>(_My_data._Mylast - _My_data._Myfirst);

  008c2	8b 8d 3c ff ff
	ff		 mov	 ecx, DWORD PTR _TokenVector$[ebp+4]
  008c8	2b cf		 sub	 ecx, edi
; File E:\Metin2_server\SolWayneSF v6\ClientVS22\source\UserInterface\PythonNetworkStreamCommand.cpp

; 391  : 		if (2 != TokenVector.size())

  008ca	8d 41 d0	 lea	 eax, DWORD PTR [ecx-48]
  008cd	83 f8 18	 cmp	 eax, 24			; 00000018H
  008d0	72 22		 jb	 SHORT $LN65@ServerComm
; File C:\Program Files\Microsoft Visual Studio\2022\Community\VC\Tools\MSVC\14.34.31933\include\vector

; 1932 :         return static_cast<size_type>(_My_data._Mylast - _My_data._Myfirst);

  008d2	c1 f9 03	 sar	 ecx, 3
  008d5	69 c1 ab aa aa
	aa		 imul	 eax, ecx, -1431655765
; File E:\Metin2_server\SolWayneSF v6\ClientVS22\source\UserInterface\PythonNetworkStreamCommand.cpp

; 393  : 			TraceError("CPythonNetworkStream::ServerCommand(c_szCommand=%s) - Strange Parameter Count : %d", c_szCommand, TokenVector.size());

  008db	50		 push	 eax
  008dc	ff b5 24 ff ff
	ff		 push	 DWORD PTR _c_szCommand$GSCopy$1$[ebp]
  008e2	68 00 00 00 00	 push	 OFFSET ??_C@_0FD@MDMGNNOD@CPythonNetworkStream?3?3ServerCom@
  008e7	e8 00 00 00 00	 call	 ?TraceError@@YAXPBDZZ	; TraceError
; File C:\Program Files\Microsoft Visual Studio\2022\Community\VC\Tools\MSVC\14.34.31933\include\vector

; 2107 :         if (_Myfirst) { // destroy and deallocate old array

  008ec	83 c4 0c	 add	 esp, 12			; 0000000cH
  008ef	e9 19 02 00 00	 jmp	 $LN1364@ServerComm
$LN65@ServerComm:
; File C:\Program Files\Microsoft Visual Studio\2022\Community\VC\Tools\MSVC\14.34.31933\include\xstring

; 2301 :         return _BUF_SIZE <= _Myres;

  008f4	83 7f 2c 10	 cmp	 DWORD PTR [edi+44], 16	; 00000010H
; File C:\Program Files\Microsoft Visual Studio\2022\Community\VC\Tools\MSVC\14.34.31933\include\vector

; 1952 :         return _My_data._Myfirst[_Pos];

  008f8	8d 47 18	 lea	 eax, DWORD PTR [edi+24]
; File C:\Program Files\Microsoft Visual Studio\2022\Community\VC\Tools\MSVC\14.34.31933\include\xstring

; 2293 :         if (_Large_string_engaged()) {

  008fb	72 02		 jb	 SHORT $LN464@ServerComm

; 2294 :             _Result = _Unfancy(_Bx._Ptr);

  008fd	8b 00		 mov	 eax, DWORD PTR [eax]
$LN464@ServerComm:
; File E:\Metin2_server\SolWayneSF v6\ClientVS22\source\UserInterface\PythonNetworkStreamCommand.cpp

; 397  : 		DWORD dwCurrentStamina = atoi(TokenVector[1].c_str());

  008ff	50		 push	 eax
  00900	e8 00 00 00 00	 call	 __atoi64

; 398  : 
; 399  : 		IAbstractPlayer& rPlayer=IAbstractPlayer::GetSingleton();

  00905	8b 0d 00 00 00
	00		 mov	 ecx, DWORD PTR ?ms_singleton@?$TAbstractSingleton@VIAbstractPlayer@@@@0PAVIAbstractPlayer@@A ; TAbstractSingleton<IAbstractPlayer>::ms_singleton
  0090b	83 c4 04	 add	 esp, 4

; 400  : 		rPlayer.StopStaminaConsume(dwCurrentStamina);

  0090e	8b 11		 mov	 edx, DWORD PTR [ecx]
  00910	50		 push	 eax
  00911	ff 52 20	 call	 DWORD PTR [edx+32]

; 401  : 	}

  00914	e9 f4 01 00 00	 jmp	 $LN1364@ServerComm
$LN63@ServerComm:

; 402  : 	else if (!strcmpi(szCmd, "sms"))

  00919	68 00 00 00 00	 push	 OFFSET ??_C@_03ODCMFNNH@sms@
  0091e	56		 push	 esi
  0091f	e8 00 00 00 00	 call	 __strcmpi
  00924	83 c4 08	 add	 esp, 8
  00927	85 c0		 test	 eax, eax
  00929	75 12		 jne	 SHORT $LN66@ServerComm

; 403  : 	{
; 404  : 		IAbstractPlayer& rPlayer=IAbstractPlayer::GetSingleton();

  0092b	8b 0d 00 00 00
	00		 mov	 ecx, DWORD PTR ?ms_singleton@?$TAbstractSingleton@VIAbstractPlayer@@@@0PAVIAbstractPlayer@@A ; TAbstractSingleton<IAbstractPlayer>::ms_singleton

; 405  : 		rPlayer.SetMobileFlag(TRUE);

  00931	6a 01		 push	 1
  00933	8b 01		 mov	 eax, DWORD PTR [ecx]
  00935	ff 50 78	 call	 DWORD PTR [eax+120]

; 406  : 	}

  00938	e9 d0 01 00 00	 jmp	 $LN1364@ServerComm
$LN66@ServerComm:

; 407  : 	else if (!strcmpi(szCmd, "nosms"))

  0093d	68 00 00 00 00	 push	 OFFSET ??_C@_05FKDGKNNO@nosms@
  00942	56		 push	 esi
  00943	e8 00 00 00 00	 call	 __strcmpi
  00948	83 c4 08	 add	 esp, 8
  0094b	85 c0		 test	 eax, eax
  0094d	75 12		 jne	 SHORT $LN68@ServerComm

; 408  : 	{
; 409  : 		IAbstractPlayer& rPlayer=IAbstractPlayer::GetSingleton();

  0094f	8b 0d 00 00 00
	00		 mov	 ecx, DWORD PTR ?ms_singleton@?$TAbstractSingleton@VIAbstractPlayer@@@@0PAVIAbstractPlayer@@A ; TAbstractSingleton<IAbstractPlayer>::ms_singleton

; 410  : 		rPlayer.SetMobileFlag(FALSE);

  00955	6a 00		 push	 0
  00957	8b 01		 mov	 eax, DWORD PTR [ecx]
  00959	ff 50 78	 call	 DWORD PTR [eax+120]

; 411  : 	}

  0095c	e9 ac 01 00 00	 jmp	 $LN1364@ServerComm
$LN68@ServerComm:

; 412  : 	else if (!strcmpi(szCmd, "mobile_auth"))

  00961	68 00 00 00 00	 push	 OFFSET ??_C@_0M@HBFEJGNO@mobile_auth@
  00966	56		 push	 esi
  00967	e8 00 00 00 00	 call	 __strcmpi
  0096c	83 c4 08	 add	 esp, 8
  0096f	85 c0		 test	 eax, eax
  00971	75 1a		 jne	 SHORT $LN70@ServerComm

; 413  : 	{
; 414  : 		PyCallClassMemberFunc(m_apoPhaseWnd[PHASE_WINDOW_GAME], "OnMobileAuthority", Py_BuildValue("()"));

  00973	a1 00 00 00 00	 mov	 eax, DWORD PTR __imp__Py_BuildValue
  00978	68 00 00 00 00	 push	 OFFSET ??_C@_02HCKGKOFO@?$CI?$CJ@
  0097d	ff d0		 call	 eax
  0097f	83 c4 04	 add	 esp, 4
  00982	50		 push	 eax
  00983	68 00 00 00 00	 push	 OFFSET ??_C@_0BC@PFMPDKEI@OnMobileAuthority@

; 415  : 	}

  00988	e9 21 f8 ff ff	 jmp	 $LN1372@ServerComm
$LN70@ServerComm:

; 416  : 	else if (!strcmpi(szCmd, "messenger_auth"))

  0098d	68 00 00 00 00	 push	 OFFSET ??_C@_0P@EGMHBKG@messenger_auth@
  00992	56		 push	 esi
  00993	e8 00 00 00 00	 call	 __strcmpi
  00998	83 c4 08	 add	 esp, 8
  0099b	85 c0		 test	 eax, eax
  0099d	75 57		 jne	 SHORT $LN72@ServerComm
; File C:\Program Files\Microsoft Visual Studio\2022\Community\VC\Tools\MSVC\14.34.31933\include\xstring

; 2293 :         if (_Large_string_engaged()) {

  0099f	83 7f 2c 10	 cmp	 DWORD PTR [edi+44], 16	; 00000010H
; File C:\Program Files\Microsoft Visual Studio\2022\Community\VC\Tools\MSVC\14.34.31933\include\vector

; 1952 :         return _My_data._Myfirst[_Pos];

  009a3	8d 47 18	 lea	 eax, DWORD PTR [edi+24]
; File C:\Program Files\Microsoft Visual Studio\2022\Community\VC\Tools\MSVC\14.34.31933\include\xstring

; 2293 :         if (_Large_string_engaged()) {

  009a6	72 02		 jb	 SHORT $LN539@ServerComm

; 2294 :             _Result = _Unfancy(_Bx._Ptr);

  009a8	8b 00		 mov	 eax, DWORD PTR [eax]
$LN539@ServerComm:
; File E:\Metin2_server\SolWayneSF v6\ClientVS22\source\UserInterface\PythonNetworkStreamCommand.cpp

; 418  : 		const std::string & c_rstrName = TokenVector[1].c_str();

  009aa	50		 push	 eax
  009ab	8d 4d d4	 lea	 ecx, DWORD PTR _$S1$20[ebp]
  009ae	e8 00 00 00 00	 call	 ??0?$basic_string@DU?$char_traits@D@std@@V?$allocator@D@2@@std@@QAE@QBD@Z ; std::basic_string<char,std::char_traits<char>,std::allocator<char> >::basic_string<char,std::char_traits<char>,std::allocator<char> >
  009b3	c6 45 fc 01	 mov	 BYTE PTR __$EHRec$[ebp+8], 1
; File C:\Program Files\Microsoft Visual Studio\2022\Community\VC\Tools\MSVC\14.34.31933\include\xstring

; 2292 :         const value_type* _Result = _Bx._Buf;

  009b7	8d 45 d4	 lea	 eax, DWORD PTR _$S1$20[ebp]

; 2301 :         return _BUF_SIZE <= _Myres;

  009ba	83 7d e8 10	 cmp	 DWORD PTR _$S1$20[ebp+20], 16 ; 00000010H

; 2293 :         if (_Large_string_engaged()) {

  009be	0f 43 45 d4	 cmovae	 eax, DWORD PTR _$S1$20[ebp]
; File E:\Metin2_server\SolWayneSF v6\ClientVS22\source\UserInterface\PythonNetworkStreamCommand.cpp

; 419  : 		PyCallClassMemberFunc(m_apoPhaseWnd[PHASE_WINDOW_GAME], "OnMessengerAddFriendQuestion", Py_BuildValue("(s)", c_rstrName.c_str()));

  009c2	50		 push	 eax
  009c3	a1 00 00 00 00	 mov	 eax, DWORD PTR __imp__Py_BuildValue
  009c8	68 00 00 00 00	 push	 OFFSET ??_C@_03KJMMOONA@?$CIs?$CJ@
  009cd	ff d0		 call	 eax
  009cf	8b 8d 20 ff ff
	ff		 mov	 ecx, DWORD PTR _this$GSCopy$1$[ebp]
  009d5	50		 push	 eax
  009d6	68 00 00 00 00	 push	 OFFSET ??_C@_0BN@HFJFNDOJ@OnMessengerAddFriendQuestion@
  009db	ff b1 90 01 00
	00		 push	 DWORD PTR [ecx+400]
  009e1	e8 00 00 00 00	 call	 ?PyCallClassMemberFunc@@YA_NPAU_object@@PBD0@Z ; PyCallClassMemberFunc
  009e6	83 c4 14	 add	 esp, 20			; 00000014H

; 420  : 	}

  009e9	8d 4d d4	 lea	 ecx, DWORD PTR _$S1$20[ebp]
  009ec	e8 00 00 00 00	 call	 ??1?$basic_string@DU?$char_traits@D@std@@V?$allocator@D@2@@std@@QAE@XZ ; std::basic_string<char,std::char_traits<char>,std::allocator<char> >::~basic_string<char,std::char_traits<char>,std::allocator<char> >
  009f1	e9 17 01 00 00	 jmp	 $LN1364@ServerComm
$LN72@ServerComm:

; 421  : 	else if (!strcmpi(szCmd, "combo"))

  009f6	68 00 00 00 00	 push	 OFFSET ??_C@_05LLEFIEMM@combo@
  009fb	56		 push	 esi
  009fc	e8 00 00 00 00	 call	 __strcmpi
  00a01	83 c4 08	 add	 esp, 8
  00a04	85 c0		 test	 eax, eax
  00a06	75 38		 jne	 SHORT $LN74@ServerComm
; File C:\Program Files\Microsoft Visual Studio\2022\Community\VC\Tools\MSVC\14.34.31933\include\xstring

; 2301 :         return _BUF_SIZE <= _Myres;

  00a08	83 7f 2c 10	 cmp	 DWORD PTR [edi+44], 16	; 00000010H
; File C:\Program Files\Microsoft Visual Studio\2022\Community\VC\Tools\MSVC\14.34.31933\include\vector

; 1952 :         return _My_data._Myfirst[_Pos];

  00a0c	8d 47 18	 lea	 eax, DWORD PTR [edi+24]
; File C:\Program Files\Microsoft Visual Studio\2022\Community\VC\Tools\MSVC\14.34.31933\include\xstring

; 2293 :         if (_Large_string_engaged()) {

  00a0f	72 02		 jb	 SHORT $LN555@ServerComm

; 2294 :             _Result = _Unfancy(_Bx._Ptr);

  00a11	8b 00		 mov	 eax, DWORD PTR [eax]
$LN555@ServerComm:
; File E:\Metin2_server\SolWayneSF v6\ClientVS22\source\UserInterface\PythonNetworkStreamCommand.cpp

; 423  : 		int iFlag = atoi(TokenVector[1].c_str());

  00a13	50		 push	 eax
  00a14	e8 00 00 00 00	 call	 __atoi64

; 424  : 		IAbstractPlayer& rPlayer=IAbstractPlayer::GetSingleton();

  00a19	8b 0d 00 00 00
	00		 mov	 ecx, DWORD PTR ?ms_singleton@?$TAbstractSingleton@VIAbstractPlayer@@@@0PAVIAbstractPlayer@@A ; TAbstractSingleton<IAbstractPlayer>::ms_singleton
  00a1f	83 c4 04	 add	 esp, 4
  00a22	8b f0		 mov	 esi, eax

; 425  : 		rPlayer.SetComboSkillFlag(iFlag);

  00a24	8b 11		 mov	 edx, DWORD PTR [ecx]
  00a26	56		 push	 esi
  00a27	ff 52 7c	 call	 DWORD PTR [edx+124]

; 426  : 		m_bComboSkillFlag = iFlag ? true : false;

  00a2a	8b 8d 20 ff ff
	ff		 mov	 ecx, DWORD PTR _this$GSCopy$1$[ebp]
  00a30	85 f6		 test	 esi, esi
  00a32	0f 95 c0	 setne	 al
  00a35	88 81 29 79 00
	00		 mov	 BYTE PTR [ecx+31017], al

; 427  : 	}

  00a3b	e9 cd 00 00 00	 jmp	 $LN1364@ServerComm
$LN74@ServerComm:

; 428  : 	else if (!strcmpi(szCmd, "setblockmode"))

  00a40	68 00 00 00 00	 push	 OFFSET ??_C@_0N@OCOPIGOC@setblockmode@
  00a45	56		 push	 esi
  00a46	e8 00 00 00 00	 call	 __strcmpi
  00a4b	83 c4 08	 add	 esp, 8
  00a4e	85 c0		 test	 eax, eax
  00a50	75 2c		 jne	 SHORT $LN76@ServerComm
; File C:\Program Files\Microsoft Visual Studio\2022\Community\VC\Tools\MSVC\14.34.31933\include\xstring

; 2301 :         return _BUF_SIZE <= _Myres;

  00a52	83 7f 2c 10	 cmp	 DWORD PTR [edi+44], 16	; 00000010H
; File C:\Program Files\Microsoft Visual Studio\2022\Community\VC\Tools\MSVC\14.34.31933\include\vector

; 1952 :         return _My_data._Myfirst[_Pos];

  00a56	8d 47 18	 lea	 eax, DWORD PTR [edi+24]
; File C:\Program Files\Microsoft Visual Studio\2022\Community\VC\Tools\MSVC\14.34.31933\include\xstring

; 2293 :         if (_Large_string_engaged()) {

  00a59	72 02		 jb	 SHORT $LN564@ServerComm

; 2294 :             _Result = _Unfancy(_Bx._Ptr);

  00a5b	8b 00		 mov	 eax, DWORD PTR [eax]
$LN564@ServerComm:
; File E:\Metin2_server\SolWayneSF v6\ClientVS22\source\UserInterface\PythonNetworkStreamCommand.cpp

; 430  : 		int iFlag = atoi(TokenVector[1].c_str());

  00a5d	50		 push	 eax
  00a5e	e8 00 00 00 00	 call	 __atoi64
  00a63	83 c4 04	 add	 esp, 4

; 431  : 		PyCallClassMemberFunc(m_apoPhaseWnd[PHASE_WINDOW_GAME], "OnBlockMode", Py_BuildValue("(i)", iFlag));

  00a66	50		 push	 eax
  00a67	a1 00 00 00 00	 mov	 eax, DWORD PTR __imp__Py_BuildValue
  00a6c	68 00 00 00 00	 push	 OFFSET ??_C@_03LIHNMIHG@?$CIi?$CJ@
  00a71	ff d0		 call	 eax
  00a73	50		 push	 eax
  00a74	68 00 00 00 00	 push	 OFFSET ??_C@_0M@KBLDJFEH@OnBlockMode@

; 432  : 	}

  00a79	e9 e4 f7 ff ff	 jmp	 $LN1374@ServerComm
$LN76@ServerComm:

; 433  : 	// Emotion Start
; 434  : 	else if (!strcmpi(szCmd, "french_kiss"))

  00a7e	68 00 00 00 00	 push	 OFFSET ??_C@_0M@KHOIJDFJ@french_kiss@
  00a83	56		 push	 esi
  00a84	e8 00 00 00 00	 call	 __strcmpi
  00a89	83 c4 08	 add	 esp, 8
  00a8c	85 c0		 test	 eax, eax
  00a8e	0f 85 1c 01 00
	00		 jne	 $LN78@ServerComm
; File C:\Program Files\Microsoft Visual Studio\2022\Community\VC\Tools\MSVC\14.34.31933\include\xstring

; 2301 :         return _BUF_SIZE <= _Myres;

  00a94	83 7f 2c 10	 cmp	 DWORD PTR [edi+44], 16	; 00000010H
; File C:\Program Files\Microsoft Visual Studio\2022\Community\VC\Tools\MSVC\14.34.31933\include\vector

; 1952 :         return _My_data._Myfirst[_Pos];

  00a98	8d 47 18	 lea	 eax, DWORD PTR [edi+24]
; File C:\Program Files\Microsoft Visual Studio\2022\Community\VC\Tools\MSVC\14.34.31933\include\xstring

; 2293 :         if (_Large_string_engaged()) {

  00a9b	72 02		 jb	 SHORT $LN573@ServerComm

; 2294 :             _Result = _Unfancy(_Bx._Ptr);

  00a9d	8b 00		 mov	 eax, DWORD PTR [eax]
$LN573@ServerComm:
; File E:\Metin2_server\SolWayneSF v6\ClientVS22\source\UserInterface\PythonNetworkStreamCommand.cpp

; 436  : 		int iVID1 = atoi(TokenVector[1].c_str());

  00a9f	50		 push	 eax
  00aa0	e8 00 00 00 00	 call	 __atoi64
; File C:\Program Files\Microsoft Visual Studio\2022\Community\VC\Tools\MSVC\14.34.31933\include\vector

; 1952 :         return _My_data._Myfirst[_Pos];

  00aa5	83 c7 30	 add	 edi, 48			; 00000030H
; File E:\Metin2_server\SolWayneSF v6\ClientVS22\source\UserInterface\PythonNetworkStreamCommand.cpp

; 436  : 		int iVID1 = atoi(TokenVector[1].c_str());

  00aa8	89 85 28 ff ff
	ff		 mov	 DWORD PTR _iVID1$1$[ebp], eax
  00aae	83 c4 04	 add	 esp, 4
; File C:\Program Files\Microsoft Visual Studio\2022\Community\VC\Tools\MSVC\14.34.31933\include\xstring

; 2301 :         return _BUF_SIZE <= _Myres;

  00ab1	83 7f 14 10	 cmp	 DWORD PTR [edi+20], 16	; 00000010H

; 2293 :         if (_Large_string_engaged()) {

  00ab5	72 02		 jb	 SHORT $LN582@ServerComm

; 2294 :             _Result = _Unfancy(_Bx._Ptr);

  00ab7	8b 3f		 mov	 edi, DWORD PTR [edi]
$LN582@ServerComm:
; File E:\Metin2_server\SolWayneSF v6\ClientVS22\source\UserInterface\PythonNetworkStreamCommand.cpp

; 437  : 		int iVID2 = atoi(TokenVector[2].c_str());

  00ab9	57		 push	 edi
  00aba	e8 00 00 00 00	 call	 __atoi64

; 438  : 
; 439  : 		IAbstractCharacterManager & rkChrMgr = IAbstractCharacterManager::GetSingleton();

  00abf	8b 3d 00 00 00
	00		 mov	 edi, DWORD PTR ?ms_singleton@?$TAbstractSingleton@VIAbstractCharacterManager@@@@0PAVIAbstractCharacterManager@@A ; TAbstractSingleton<IAbstractCharacterManager>::ms_singleton
  00ac5	83 c4 04	 add	 esp, 4

; 440  : 		CInstanceBase * pInstance1 = rkChrMgr.GetInstancePtr(iVID1);

  00ac8	8b cf		 mov	 ecx, edi
  00aca	8b f0		 mov	 esi, eax
  00acc	8b 17		 mov	 edx, DWORD PTR [edi]
  00ace	ff b5 28 ff ff
	ff		 push	 DWORD PTR _iVID1$1$[ebp]
  00ad4	8b 52 08	 mov	 edx, DWORD PTR [edx+8]
  00ad7	ff d2		 call	 edx

; 441  : 		CInstanceBase * pInstance2 = rkChrMgr.GetInstancePtr(iVID2);

  00ad9	8b 17		 mov	 edx, DWORD PTR [edi]
  00adb	8b cf		 mov	 ecx, edi
  00add	56		 push	 esi
  00ade	89 85 28 ff ff
	ff		 mov	 DWORD PTR _pInstance1$1$[ebp], eax
  00ae4	8b 52 08	 mov	 edx, DWORD PTR [edx+8]
  00ae7	ff d2		 call	 edx

; 442  : 		if (pInstance1 && pInstance2)

  00ae9	8b 8d 28 ff ff
	ff		 mov	 ecx, DWORD PTR _pInstance1$1$[ebp]
  00aef	85 c9		 test	 ecx, ecx
  00af1	74 14		 je	 SHORT $LN1354@ServerComm
  00af3	85 c0		 test	 eax, eax
  00af5	74 10		 je	 SHORT $LN1354@ServerComm

; 443  : 			pInstance1->ActDualEmotion(*pInstance2, CRaceMotionData::NAME_FRENCH_KISS_START, CRaceMotionData::NAME_FRENCH_KISS_START);

  00af7	68 39 01 00 00	 push	 313			; 00000139H
  00afc	68 39 01 00 00	 push	 313			; 00000139H
$LN1376@ServerComm:
; File C:\Program Files\Microsoft Visual Studio\2022\Community\VC\Tools\MSVC\14.34.31933\include\vector

; 2107 :         if (_Myfirst) { // destroy and deallocate old array

  00b01	50		 push	 eax
  00b02	e8 00 00 00 00	 call	 ?ActDualEmotion@CInstanceBase@@QAEXAAV1@GG@Z ; CInstanceBase::ActDualEmotion
$LN1354@ServerComm:
  00b07	8b bd 38 ff ff
	ff		 mov	 edi, DWORD PTR _TokenVector$[ebp]
$LN1364@ServerComm:
  00b0d	8b 85 3c ff ff
	ff		 mov	 eax, DWORD PTR _TokenVector$[ebp+4]
$LN108@ServerComm:
  00b13	85 ff		 test	 edi, edi
  00b15	0f 84 bd 08 00
	00		 je	 $LN203@ServerComm

; 2108 :             _Destroy_range(_Myfirst, _Mylast, _Al);

  00b1b	8b f7		 mov	 esi, edi
  00b1d	3b f0		 cmp	 esi, eax
; File C:\Program Files\Microsoft Visual Studio\2022\Community\VC\Tools\MSVC\14.34.31933\include\xmemory

; 947  :         for (; _First != _Last; ++_First) {

  00b1f	74 51		 je	 SHORT $LN155@ServerComm
$LL156@ServerComm:
; File C:\Program Files\Microsoft Visual Studio\2022\Community\VC\Tools\MSVC\14.34.31933\include\xstring

; 2301 :         return _BUF_SIZE <= _Myres;

  00b21	8b 4e 14	 mov	 ecx, DWORD PTR [esi+20]
  00b24	83 f9 10	 cmp	 ecx, 16			; 00000010H

; 5008 :         if (_My_data._Large_string_engaged()) {

  00b27	72 31		 jb	 SHORT $LN177@ServerComm
; File C:\Program Files\Microsoft Visual Studio\2022\Community\VC\Tools\MSVC\14.34.31933\include\xmemory

; 830  :         _Deallocate<_New_alignof<_Ty>>(_Ptr, sizeof(_Ty) * _Count);

  00b29	8b 06		 mov	 eax, DWORD PTR [esi]
; File C:\Program Files\Microsoft Visual Studio\2022\Community\VC\Tools\MSVC\14.34.31933\include\xstring

; 5013 :             _Al.deallocate(_Ptr, _My_data._Myres + 1);

  00b2b	41		 inc	 ecx
; File C:\Program Files\Microsoft Visual Studio\2022\Community\VC\Tools\MSVC\14.34.31933\include\xmemory

; 251  :         if (_Bytes >= _Big_allocation_threshold) { // boost the alignment of big allocations to help autovectorization

  00b2c	81 f9 00 10 00
	00		 cmp	 ecx, 4096		; 00001000H
  00b32	72 16		 jb	 SHORT $LN189@ServerComm

; 150  :     const uintptr_t _Ptr_container   = _Ptr_user[-1];

  00b34	8b 50 fc	 mov	 edx, DWORD PTR [eax-4]
  00b37	83 c1 23	 add	 ecx, 35			; 00000023H

; 151  : 
; 152  :     // If the following asserts, it likely means that we are performing
; 153  :     // an aligned delete on memory coming from an unaligned allocation.
; 154  :     _STL_ASSERT(_Ptr_user[-2] == _Big_allocation_sentinel, "invalid argument");
; 155  : 
; 156  :     // Extra paranoia on aligned allocation/deallocation; ensure _Ptr_container is
; 157  :     // in range [_Min_back_shift, _Non_user_size]
; 158  : #ifdef _DEBUG
; 159  :     constexpr uintptr_t _Min_back_shift = 2 * sizeof(void*);
; 160  : #else // ^^^ _DEBUG ^^^ // vvv !_DEBUG vvv
; 161  :     constexpr uintptr_t _Min_back_shift = sizeof(void*);
; 162  : #endif // _DEBUG
; 163  :     const uintptr_t _Back_shift = reinterpret_cast<uintptr_t>(_Ptr) - _Ptr_container;

  00b3a	2b c2		 sub	 eax, edx

; 164  :     _STL_VERIFY(_Back_shift >= _Min_back_shift && _Back_shift <= _Non_user_size, "invalid argument");

  00b3c	83 c0 fc	 add	 eax, -4			; fffffffcH
  00b3f	83 f8 1f	 cmp	 eax, 31			; 0000001fH
  00b42	0f 87 b0 08 00
	00		 ja	 $LN212@ServerComm

; 165  :     _Ptr = reinterpret_cast<void*>(_Ptr_container);

  00b48	8b c2		 mov	 eax, edx
$LN189@ServerComm:

; 255  :         ::operator delete(_Ptr, _Bytes);

  00b4a	51		 push	 ecx
  00b4b	50		 push	 eax
  00b4c	e8 00 00 00 00	 call	 ??3@YAXPAXI@Z		; operator delete
  00b51	8b 85 3c ff ff
	ff		 mov	 eax, DWORD PTR _TokenVector$[ebp+4]
  00b57	83 c4 08	 add	 esp, 8
$LN177@ServerComm:
; File C:\Program Files\Microsoft Visual Studio\2022\Community\VC\Tools\MSVC\14.34.31933\include\xstring

; 5016 :         _My_data._Mysize = 0;

  00b5a	c7 46 10 00 00
	00 00		 mov	 DWORD PTR [esi+16], 0

; 5017 :         _My_data._Myres  = _BUF_SIZE - 1;

  00b61	c7 46 14 0f 00
	00 00		 mov	 DWORD PTR [esi+20], 15	; 0000000fH

; 5018 :         // the _Traits::assign is last so the codegen doesn't think the char write can alias this
; 5019 :         _Traits::assign(_My_data._Bx._Buf[0], _Elem());

  00b68	c6 06 00	 mov	 BYTE PTR [esi], 0
; File C:\Program Files\Microsoft Visual Studio\2022\Community\VC\Tools\MSVC\14.34.31933\include\xmemory

; 947  :         for (; _First != _Last; ++_First) {

  00b6b	83 c6 18	 add	 esi, 24			; 00000018H
  00b6e	3b f0		 cmp	 esi, eax
  00b70	75 af		 jne	 SHORT $LL156@ServerComm
$LN155@ServerComm:
; File C:\Program Files\Microsoft Visual Studio\2022\Community\VC\Tools\MSVC\14.34.31933\include\vector

; 2110 :             _Al.deallocate(_Myfirst, static_cast<size_type>(_Myend - _Myfirst));

  00b72	8b 85 40 ff ff
	ff		 mov	 eax, DWORD PTR _TokenVector$[ebp+8]
  00b78	2b c7		 sub	 eax, edi
  00b7a	c1 f8 03	 sar	 eax, 3
  00b7d	69 c0 ab aa aa
	aa		 imul	 eax, eax, -1431655765
; File C:\Program Files\Microsoft Visual Studio\2022\Community\VC\Tools\MSVC\14.34.31933\include\xmemory

; 830  :         _Deallocate<_New_alignof<_Ty>>(_Ptr, sizeof(_Ty) * _Count);

  00b83	8d 0c 40	 lea	 ecx, DWORD PTR [eax+eax*2]
  00b86	8b c7		 mov	 eax, edi
  00b88	c1 e1 03	 shl	 ecx, 3

; 251  :         if (_Bytes >= _Big_allocation_threshold) { // boost the alignment of big allocations to help autovectorization

  00b8b	81 f9 00 10 00
	00		 cmp	 ecx, 4096		; 00001000H
  00b91	0f 82 37 08 00
	00		 jb	 $LN215@ServerComm

; 150  :     const uintptr_t _Ptr_container   = _Ptr_user[-1];

  00b97	8b 78 fc	 mov	 edi, DWORD PTR [eax-4]
  00b9a	83 c1 23	 add	 ecx, 35			; 00000023H
  00b9d	2b c7		 sub	 eax, edi

; 164  :     _STL_VERIFY(_Back_shift >= _Min_back_shift && _Back_shift <= _Non_user_size, "invalid argument");

  00b9f	83 c0 fc	 add	 eax, -4			; fffffffcH
  00ba2	83 f8 1f	 cmp	 eax, 31			; 0000001fH
  00ba5	0f 87 4d 08 00
	00		 ja	 $LN212@ServerComm
  00bab	e9 1e 08 00 00	 jmp	 $LN215@ServerComm
$LN78@ServerComm:
; File E:\Metin2_server\SolWayneSF v6\ClientVS22\source\UserInterface\PythonNetworkStreamCommand.cpp

; 445  : 	else if (!strcmpi(szCmd, "kiss"))

  00bb0	68 00 00 00 00	 push	 OFFSET ??_C@_04MDLEAKAL@kiss@
  00bb5	56		 push	 esi
  00bb6	e8 00 00 00 00	 call	 __strcmpi
  00bbb	83 c4 08	 add	 esp, 8
  00bbe	85 c0		 test	 eax, eax
  00bc0	75 7a		 jne	 SHORT $LN81@ServerComm
; File C:\Program Files\Microsoft Visual Studio\2022\Community\VC\Tools\MSVC\14.34.31933\include\xstring

; 2301 :         return _BUF_SIZE <= _Myres;

  00bc2	83 7f 2c 10	 cmp	 DWORD PTR [edi+44], 16	; 00000010H
; File C:\Program Files\Microsoft Visual Studio\2022\Community\VC\Tools\MSVC\14.34.31933\include\vector

; 1952 :         return _My_data._Myfirst[_Pos];

  00bc6	8d 47 18	 lea	 eax, DWORD PTR [edi+24]
; File C:\Program Files\Microsoft Visual Studio\2022\Community\VC\Tools\MSVC\14.34.31933\include\xstring

; 2293 :         if (_Large_string_engaged()) {

  00bc9	72 02		 jb	 SHORT $LN591@ServerComm

; 2294 :             _Result = _Unfancy(_Bx._Ptr);

  00bcb	8b 00		 mov	 eax, DWORD PTR [eax]
$LN591@ServerComm:
; File E:\Metin2_server\SolWayneSF v6\ClientVS22\source\UserInterface\PythonNetworkStreamCommand.cpp

; 447  : 		int iVID1 = atoi(TokenVector[1].c_str());

  00bcd	50		 push	 eax
  00bce	e8 00 00 00 00	 call	 __atoi64
; File C:\Program Files\Microsoft Visual Studio\2022\Community\VC\Tools\MSVC\14.34.31933\include\vector

; 1952 :         return _My_data._Myfirst[_Pos];

  00bd3	83 c7 30	 add	 edi, 48			; 00000030H
; File E:\Metin2_server\SolWayneSF v6\ClientVS22\source\UserInterface\PythonNetworkStreamCommand.cpp

; 447  : 		int iVID1 = atoi(TokenVector[1].c_str());

  00bd6	89 85 28 ff ff
	ff		 mov	 DWORD PTR _iVID1$1$[ebp], eax
  00bdc	83 c4 04	 add	 esp, 4
; File C:\Program Files\Microsoft Visual Studio\2022\Community\VC\Tools\MSVC\14.34.31933\include\xstring

; 2301 :         return _BUF_SIZE <= _Myres;

  00bdf	83 7f 14 10	 cmp	 DWORD PTR [edi+20], 16	; 00000010H

; 2293 :         if (_Large_string_engaged()) {

  00be3	72 02		 jb	 SHORT $LN600@ServerComm

; 2294 :             _Result = _Unfancy(_Bx._Ptr);

  00be5	8b 3f		 mov	 edi, DWORD PTR [edi]
$LN600@ServerComm:
; File E:\Metin2_server\SolWayneSF v6\ClientVS22\source\UserInterface\PythonNetworkStreamCommand.cpp

; 448  : 		int iVID2 = atoi(TokenVector[2].c_str());

  00be7	57		 push	 edi
  00be8	e8 00 00 00 00	 call	 __atoi64

; 449  : 
; 450  : 		IAbstractCharacterManager & rkChrMgr = IAbstractCharacterManager::GetSingleton();

  00bed	8b 3d 00 00 00
	00		 mov	 edi, DWORD PTR ?ms_singleton@?$TAbstractSingleton@VIAbstractCharacterManager@@@@0PAVIAbstractCharacterManager@@A ; TAbstractSingleton<IAbstractCharacterManager>::ms_singleton
  00bf3	83 c4 04	 add	 esp, 4

; 451  : 		CInstanceBase * pInstance1 = rkChrMgr.GetInstancePtr(iVID1);

  00bf6	8b cf		 mov	 ecx, edi
  00bf8	8b f0		 mov	 esi, eax
  00bfa	8b 17		 mov	 edx, DWORD PTR [edi]
  00bfc	ff b5 28 ff ff
	ff		 push	 DWORD PTR _iVID1$1$[ebp]
  00c02	8b 52 08	 mov	 edx, DWORD PTR [edx+8]
  00c05	ff d2		 call	 edx

; 452  : 		CInstanceBase * pInstance2 = rkChrMgr.GetInstancePtr(iVID2);

  00c07	8b 17		 mov	 edx, DWORD PTR [edi]
  00c09	8b cf		 mov	 ecx, edi
  00c0b	56		 push	 esi
  00c0c	89 85 28 ff ff
	ff		 mov	 DWORD PTR _pInstance1$1$[ebp], eax
  00c12	8b 52 08	 mov	 edx, DWORD PTR [edx+8]
  00c15	ff d2		 call	 edx

; 453  : 		if (pInstance1 && pInstance2)

  00c17	8b 8d 28 ff ff
	ff		 mov	 ecx, DWORD PTR _pInstance1$1$[ebp]
  00c1d	85 c9		 test	 ecx, ecx
  00c1f	0f 84 e2 fe ff
	ff		 je	 $LN1354@ServerComm
  00c25	85 c0		 test	 eax, eax
  00c27	0f 84 da fe ff
	ff		 je	 $LN1354@ServerComm

; 454  : 			pInstance1->ActDualEmotion(*pInstance2, CRaceMotionData::NAME_KISS_START, CRaceMotionData::NAME_KISS_START);

  00c2d	68 35 01 00 00	 push	 309			; 00000135H
  00c32	68 35 01 00 00	 push	 309			; 00000135H

; 455  : 	}

  00c37	e9 c5 fe ff ff	 jmp	 $LN1376@ServerComm
$LN81@ServerComm:

; 456  : 	else if (!strcmpi(szCmd, "slap"))

  00c3c	68 00 00 00 00	 push	 OFFSET ??_C@_04JAHFACKH@slap@
  00c41	56		 push	 esi
  00c42	e8 00 00 00 00	 call	 __strcmpi
  00c47	83 c4 08	 add	 esp, 8
  00c4a	85 c0		 test	 eax, eax
  00c4c	75 7a		 jne	 SHORT $LN84@ServerComm
; File C:\Program Files\Microsoft Visual Studio\2022\Community\VC\Tools\MSVC\14.34.31933\include\xstring

; 2301 :         return _BUF_SIZE <= _Myres;

  00c4e	83 7f 2c 10	 cmp	 DWORD PTR [edi+44], 16	; 00000010H
; File C:\Program Files\Microsoft Visual Studio\2022\Community\VC\Tools\MSVC\14.34.31933\include\vector

; 1952 :         return _My_data._Myfirst[_Pos];

  00c52	8d 47 18	 lea	 eax, DWORD PTR [edi+24]
; File C:\Program Files\Microsoft Visual Studio\2022\Community\VC\Tools\MSVC\14.34.31933\include\xstring

; 2293 :         if (_Large_string_engaged()) {

  00c55	72 02		 jb	 SHORT $LN618@ServerComm

; 2294 :             _Result = _Unfancy(_Bx._Ptr);

  00c57	8b 00		 mov	 eax, DWORD PTR [eax]
$LN618@ServerComm:
; File E:\Metin2_server\SolWayneSF v6\ClientVS22\source\UserInterface\PythonNetworkStreamCommand.cpp

; 458  : 		int iVID1 = atoi(TokenVector[1].c_str());

  00c59	50		 push	 eax
  00c5a	e8 00 00 00 00	 call	 __atoi64
; File C:\Program Files\Microsoft Visual Studio\2022\Community\VC\Tools\MSVC\14.34.31933\include\vector

; 1952 :         return _My_data._Myfirst[_Pos];

  00c5f	83 c7 30	 add	 edi, 48			; 00000030H
; File E:\Metin2_server\SolWayneSF v6\ClientVS22\source\UserInterface\PythonNetworkStreamCommand.cpp

; 458  : 		int iVID1 = atoi(TokenVector[1].c_str());

  00c62	89 85 28 ff ff
	ff		 mov	 DWORD PTR _iVID1$1$[ebp], eax
  00c68	83 c4 04	 add	 esp, 4
; File C:\Program Files\Microsoft Visual Studio\2022\Community\VC\Tools\MSVC\14.34.31933\include\xstring

; 2301 :         return _BUF_SIZE <= _Myres;

  00c6b	83 7f 14 10	 cmp	 DWORD PTR [edi+20], 16	; 00000010H

; 2293 :         if (_Large_string_engaged()) {

  00c6f	72 02		 jb	 SHORT $LN611@ServerComm

; 2294 :             _Result = _Unfancy(_Bx._Ptr);

  00c71	8b 3f		 mov	 edi, DWORD PTR [edi]
$LN611@ServerComm:
; File E:\Metin2_server\SolWayneSF v6\ClientVS22\source\UserInterface\PythonNetworkStreamCommand.cpp

; 459  : 		int iVID2 = atoi(TokenVector[2].c_str());

  00c73	57		 push	 edi
  00c74	e8 00 00 00 00	 call	 __atoi64

; 460  : 
; 461  : 		IAbstractCharacterManager & rkChrMgr = IAbstractCharacterManager::GetSingleton();

  00c79	8b 3d 00 00 00
	00		 mov	 edi, DWORD PTR ?ms_singleton@?$TAbstractSingleton@VIAbstractCharacterManager@@@@0PAVIAbstractCharacterManager@@A ; TAbstractSingleton<IAbstractCharacterManager>::ms_singleton
  00c7f	83 c4 04	 add	 esp, 4

; 462  : 		CInstanceBase * pInstance1 = rkChrMgr.GetInstancePtr(iVID1);

  00c82	8b cf		 mov	 ecx, edi
  00c84	8b f0		 mov	 esi, eax
  00c86	8b 17		 mov	 edx, DWORD PTR [edi]
  00c88	ff b5 28 ff ff
	ff		 push	 DWORD PTR _iVID1$1$[ebp]
  00c8e	8b 52 08	 mov	 edx, DWORD PTR [edx+8]
  00c91	ff d2		 call	 edx

; 463  : 		CInstanceBase * pInstance2 = rkChrMgr.GetInstancePtr(iVID2);

  00c93	8b 17		 mov	 edx, DWORD PTR [edi]
  00c95	8b cf		 mov	 ecx, edi
  00c97	56		 push	 esi
  00c98	89 85 28 ff ff
	ff		 mov	 DWORD PTR _pInstance1$1$[ebp], eax
  00c9e	8b 52 08	 mov	 edx, DWORD PTR [edx+8]
  00ca1	ff d2		 call	 edx

; 464  : 		if (pInstance1 && pInstance2)

  00ca3	8b 8d 28 ff ff
	ff		 mov	 ecx, DWORD PTR _pInstance1$1$[ebp]
  00ca9	85 c9		 test	 ecx, ecx
  00cab	0f 84 56 fe ff
	ff		 je	 $LN1354@ServerComm
  00cb1	85 c0		 test	 eax, eax
  00cb3	0f 84 4e fe ff
	ff		 je	 $LN1354@ServerComm

; 465  : 			pInstance1->ActDualEmotion(*pInstance2, CRaceMotionData::NAME_SLAP_HURT_START, CRaceMotionData::NAME_SLAP_HIT_START);

  00cb9	68 3d 01 00 00	 push	 317			; 0000013dH
  00cbe	68 41 01 00 00	 push	 321			; 00000141H

; 466  : 	}

  00cc3	e9 39 fe ff ff	 jmp	 $LN1376@ServerComm
$LN84@ServerComm:

; 467  : 	else if (!strcmpi(szCmd, "clap"))

  00cc8	68 00 00 00 00	 push	 OFFSET ??_C@_04PAJFJFCF@clap@
  00ccd	56		 push	 esi
  00cce	e8 00 00 00 00	 call	 __strcmpi
  00cd3	83 c4 08	 add	 esp, 8
  00cd6	85 c0		 test	 eax, eax
  00cd8	75 3b		 jne	 SHORT $LN87@ServerComm
; File C:\Program Files\Microsoft Visual Studio\2022\Community\VC\Tools\MSVC\14.34.31933\include\xstring

; 2301 :         return _BUF_SIZE <= _Myres;

  00cda	83 7f 2c 10	 cmp	 DWORD PTR [edi+44], 16	; 00000010H
; File C:\Program Files\Microsoft Visual Studio\2022\Community\VC\Tools\MSVC\14.34.31933\include\vector

; 1952 :         return _My_data._Myfirst[_Pos];

  00cde	8d 47 18	 lea	 eax, DWORD PTR [edi+24]
; File C:\Program Files\Microsoft Visual Studio\2022\Community\VC\Tools\MSVC\14.34.31933\include\xstring

; 2293 :         if (_Large_string_engaged()) {

  00ce1	72 02		 jb	 SHORT $LN627@ServerComm

; 2294 :             _Result = _Unfancy(_Bx._Ptr);

  00ce3	8b 00		 mov	 eax, DWORD PTR [eax]
$LN627@ServerComm:
; File E:\Metin2_server\SolWayneSF v6\ClientVS22\source\UserInterface\PythonNetworkStreamCommand.cpp

; 469  : 		int iVID = atoi(TokenVector[1].c_str());

  00ce5	50		 push	 eax
  00ce6	e8 00 00 00 00	 call	 __atoi64

; 470  : 		IAbstractCharacterManager & rkChrMgr = IAbstractCharacterManager::GetSingleton();

  00ceb	8b 0d 00 00 00
	00		 mov	 ecx, DWORD PTR ?ms_singleton@?$TAbstractSingleton@VIAbstractCharacterManager@@@@0PAVIAbstractCharacterManager@@A ; TAbstractSingleton<IAbstractCharacterManager>::ms_singleton
  00cf1	83 c4 04	 add	 esp, 4

; 471  : 		CInstanceBase * pInstance = rkChrMgr.GetInstancePtr(iVID);

  00cf4	8b 11		 mov	 edx, DWORD PTR [ecx]
  00cf6	50		 push	 eax
  00cf7	8b 52 08	 mov	 edx, DWORD PTR [edx+8]
  00cfa	ff d2		 call	 edx

; 472  : 		if (pInstance)

  00cfc	85 c0		 test	 eax, eax
  00cfe	0f 84 09 fe ff
	ff		 je	 $LN1364@ServerComm

; 473  : 			pInstance->ActEmotion(CRaceMotionData::NAME_CLAP);

  00d04	68 32 01 00 00	 push	 306			; 00000132H
  00d09	8b c8		 mov	 ecx, eax
  00d0b	e8 00 00 00 00	 call	 ?ActEmotion@CInstanceBase@@QAEXK@Z ; CInstanceBase::ActEmotion

; 474  : 	}

  00d10	e9 f8 fd ff ff	 jmp	 $LN1364@ServerComm
$LN87@ServerComm:

; 475  : 	else if (!strcmpi(szCmd, "cheer1"))

  00d15	68 00 00 00 00	 push	 OFFSET ??_C@_06PAGILPEO@cheer1@
  00d1a	56		 push	 esi
  00d1b	e8 00 00 00 00	 call	 __strcmpi
  00d20	83 c4 08	 add	 esp, 8
  00d23	85 c0		 test	 eax, eax
  00d25	75 3b		 jne	 SHORT $LN90@ServerComm
; File C:\Program Files\Microsoft Visual Studio\2022\Community\VC\Tools\MSVC\14.34.31933\include\xstring

; 2301 :         return _BUF_SIZE <= _Myres;

  00d27	83 7f 2c 10	 cmp	 DWORD PTR [edi+44], 16	; 00000010H
; File C:\Program Files\Microsoft Visual Studio\2022\Community\VC\Tools\MSVC\14.34.31933\include\vector

; 1952 :         return _My_data._Myfirst[_Pos];

  00d2b	8d 47 18	 lea	 eax, DWORD PTR [edi+24]
; File C:\Program Files\Microsoft Visual Studio\2022\Community\VC\Tools\MSVC\14.34.31933\include\xstring

; 2293 :         if (_Large_string_engaged()) {

  00d2e	72 02		 jb	 SHORT $LN634@ServerComm

; 2294 :             _Result = _Unfancy(_Bx._Ptr);

  00d30	8b 00		 mov	 eax, DWORD PTR [eax]
$LN634@ServerComm:
; File E:\Metin2_server\SolWayneSF v6\ClientVS22\source\UserInterface\PythonNetworkStreamCommand.cpp

; 477  : 		int iVID = atoi(TokenVector[1].c_str());

  00d32	50		 push	 eax
  00d33	e8 00 00 00 00	 call	 __atoi64

; 478  : 		IAbstractCharacterManager & rkChrMgr = IAbstractCharacterManager::GetSingleton();

  00d38	8b 0d 00 00 00
	00		 mov	 ecx, DWORD PTR ?ms_singleton@?$TAbstractSingleton@VIAbstractCharacterManager@@@@0PAVIAbstractCharacterManager@@A ; TAbstractSingleton<IAbstractCharacterManager>::ms_singleton
  00d3e	83 c4 04	 add	 esp, 4

; 479  : 		CInstanceBase * pInstance = rkChrMgr.GetInstancePtr(iVID);

  00d41	8b 11		 mov	 edx, DWORD PTR [ecx]
  00d43	50		 push	 eax
  00d44	8b 52 08	 mov	 edx, DWORD PTR [edx+8]
  00d47	ff d2		 call	 edx

; 480  : 		if (pInstance)

  00d49	85 c0		 test	 eax, eax
  00d4b	0f 84 bc fd ff
	ff		 je	 $LN1364@ServerComm

; 481  : 			pInstance->ActEmotion(CRaceMotionData::NAME_CHEERS_1);

  00d51	68 33 01 00 00	 push	 307			; 00000133H
  00d56	8b c8		 mov	 ecx, eax
  00d58	e8 00 00 00 00	 call	 ?ActEmotion@CInstanceBase@@QAEXK@Z ; CInstanceBase::ActEmotion

; 482  : 	}

  00d5d	e9 ab fd ff ff	 jmp	 $LN1364@ServerComm
$LN90@ServerComm:

; 483  : 	else if (!strcmpi(szCmd, "cheer2"))

  00d62	68 00 00 00 00	 push	 OFFSET ??_C@_06NLEFOMIN@cheer2@
  00d67	56		 push	 esi
  00d68	e8 00 00 00 00	 call	 __strcmpi
  00d6d	83 c4 08	 add	 esp, 8
  00d70	85 c0		 test	 eax, eax
  00d72	75 3b		 jne	 SHORT $LN93@ServerComm
; File C:\Program Files\Microsoft Visual Studio\2022\Community\VC\Tools\MSVC\14.34.31933\include\xstring

; 2301 :         return _BUF_SIZE <= _Myres;

  00d74	83 7f 2c 10	 cmp	 DWORD PTR [edi+44], 16	; 00000010H
; File C:\Program Files\Microsoft Visual Studio\2022\Community\VC\Tools\MSVC\14.34.31933\include\vector

; 1952 :         return _My_data._Myfirst[_Pos];

  00d78	8d 47 18	 lea	 eax, DWORD PTR [edi+24]
; File C:\Program Files\Microsoft Visual Studio\2022\Community\VC\Tools\MSVC\14.34.31933\include\xstring

; 2293 :         if (_Large_string_engaged()) {

  00d7b	72 02		 jb	 SHORT $LN645@ServerComm

; 2294 :             _Result = _Unfancy(_Bx._Ptr);

  00d7d	8b 00		 mov	 eax, DWORD PTR [eax]
$LN645@ServerComm:
; File E:\Metin2_server\SolWayneSF v6\ClientVS22\source\UserInterface\PythonNetworkStreamCommand.cpp

; 485  : 		int iVID = atoi(TokenVector[1].c_str());

  00d7f	50		 push	 eax
  00d80	e8 00 00 00 00	 call	 __atoi64

; 486  : 		IAbstractCharacterManager & rkChrMgr = IAbstractCharacterManager::GetSingleton();

  00d85	8b 0d 00 00 00
	00		 mov	 ecx, DWORD PTR ?ms_singleton@?$TAbstractSingleton@VIAbstractCharacterManager@@@@0PAVIAbstractCharacterManager@@A ; TAbstractSingleton<IAbstractCharacterManager>::ms_singleton
  00d8b	83 c4 04	 add	 esp, 4

; 487  : 		CInstanceBase * pInstance = rkChrMgr.GetInstancePtr(iVID);

  00d8e	8b 11		 mov	 edx, DWORD PTR [ecx]
  00d90	50		 push	 eax
  00d91	8b 52 08	 mov	 edx, DWORD PTR [edx+8]
  00d94	ff d2		 call	 edx

; 488  : 		if (pInstance)

  00d96	85 c0		 test	 eax, eax
  00d98	0f 84 6f fd ff
	ff		 je	 $LN1364@ServerComm

; 489  : 			pInstance->ActEmotion(CRaceMotionData::NAME_CHEERS_2);

  00d9e	68 34 01 00 00	 push	 308			; 00000134H
  00da3	8b c8		 mov	 ecx, eax
  00da5	e8 00 00 00 00	 call	 ?ActEmotion@CInstanceBase@@QAEXK@Z ; CInstanceBase::ActEmotion

; 490  : 	}

  00daa	e9 5e fd ff ff	 jmp	 $LN1364@ServerComm
$LN93@ServerComm:

; 491  : 	else if (!strcmpi(szCmd, "dance1"))

  00daf	68 00 00 00 00	 push	 OFFSET ??_C@_06FJBCALDA@dance1@
  00db4	56		 push	 esi
  00db5	e8 00 00 00 00	 call	 __strcmpi
  00dba	83 c4 08	 add	 esp, 8
  00dbd	85 c0		 test	 eax, eax
  00dbf	75 3b		 jne	 SHORT $LN96@ServerComm
; File C:\Program Files\Microsoft Visual Studio\2022\Community\VC\Tools\MSVC\14.34.31933\include\xstring

; 2301 :         return _BUF_SIZE <= _Myres;

  00dc1	83 7f 2c 10	 cmp	 DWORD PTR [edi+44], 16	; 00000010H
; File C:\Program Files\Microsoft Visual Studio\2022\Community\VC\Tools\MSVC\14.34.31933\include\vector

; 1952 :         return _My_data._Myfirst[_Pos];

  00dc5	8d 47 18	 lea	 eax, DWORD PTR [edi+24]
; File C:\Program Files\Microsoft Visual Studio\2022\Community\VC\Tools\MSVC\14.34.31933\include\xstring

; 2293 :         if (_Large_string_engaged()) {

  00dc8	72 02		 jb	 SHORT $LN654@ServerComm

; 2294 :             _Result = _Unfancy(_Bx._Ptr);

  00dca	8b 00		 mov	 eax, DWORD PTR [eax]
$LN654@ServerComm:
; File E:\Metin2_server\SolWayneSF v6\ClientVS22\source\UserInterface\PythonNetworkStreamCommand.cpp

; 493  : 		int iVID = atoi(TokenVector[1].c_str());

  00dcc	50		 push	 eax
  00dcd	e8 00 00 00 00	 call	 __atoi64

; 494  : 		IAbstractCharacterManager & rkChrMgr = IAbstractCharacterManager::GetSingleton();

  00dd2	8b 0d 00 00 00
	00		 mov	 ecx, DWORD PTR ?ms_singleton@?$TAbstractSingleton@VIAbstractCharacterManager@@@@0PAVIAbstractCharacterManager@@A ; TAbstractSingleton<IAbstractCharacterManager>::ms_singleton
  00dd8	83 c4 04	 add	 esp, 4

; 495  : 		CInstanceBase * pInstance = rkChrMgr.GetInstancePtr(iVID);

  00ddb	8b 11		 mov	 edx, DWORD PTR [ecx]
  00ddd	50		 push	 eax
  00dde	8b 52 08	 mov	 edx, DWORD PTR [edx+8]
  00de1	ff d2		 call	 edx

; 496  : 		if (pInstance)

  00de3	85 c0		 test	 eax, eax
  00de5	0f 84 22 fd ff
	ff		 je	 $LN1364@ServerComm

; 497  : 			pInstance->ActEmotion(CRaceMotionData::NAME_DANCE_1);

  00deb	68 46 01 00 00	 push	 326			; 00000146H
  00df0	8b c8		 mov	 ecx, eax
  00df2	e8 00 00 00 00	 call	 ?ActEmotion@CInstanceBase@@QAEXK@Z ; CInstanceBase::ActEmotion

; 498  : 	}

  00df7	e9 11 fd ff ff	 jmp	 $LN1364@ServerComm
$LN96@ServerComm:

; 499  : 	else if (!strcmpi(szCmd, "dance2"))

  00dfc	68 00 00 00 00	 push	 OFFSET ??_C@_06HCDPFIPD@dance2@
  00e01	56		 push	 esi
  00e02	e8 00 00 00 00	 call	 __strcmpi
  00e07	83 c4 08	 add	 esp, 8
  00e0a	85 c0		 test	 eax, eax
  00e0c	75 3b		 jne	 SHORT $LN99@ServerComm
; File C:\Program Files\Microsoft Visual Studio\2022\Community\VC\Tools\MSVC\14.34.31933\include\xstring

; 2301 :         return _BUF_SIZE <= _Myres;

  00e0e	83 7f 2c 10	 cmp	 DWORD PTR [edi+44], 16	; 00000010H
; File C:\Program Files\Microsoft Visual Studio\2022\Community\VC\Tools\MSVC\14.34.31933\include\vector

; 1952 :         return _My_data._Myfirst[_Pos];

  00e12	8d 47 18	 lea	 eax, DWORD PTR [edi+24]
; File C:\Program Files\Microsoft Visual Studio\2022\Community\VC\Tools\MSVC\14.34.31933\include\xstring

; 2293 :         if (_Large_string_engaged()) {

  00e15	72 02		 jb	 SHORT $LN661@ServerComm

; 2294 :             _Result = _Unfancy(_Bx._Ptr);

  00e17	8b 00		 mov	 eax, DWORD PTR [eax]
$LN661@ServerComm:
; File E:\Metin2_server\SolWayneSF v6\ClientVS22\source\UserInterface\PythonNetworkStreamCommand.cpp

; 501  : 		int iVID = atoi(TokenVector[1].c_str());

  00e19	50		 push	 eax
  00e1a	e8 00 00 00 00	 call	 __atoi64

; 502  : 		IAbstractCharacterManager & rkChrMgr = IAbstractCharacterManager::GetSingleton();

  00e1f	8b 0d 00 00 00
	00		 mov	 ecx, DWORD PTR ?ms_singleton@?$TAbstractSingleton@VIAbstractCharacterManager@@@@0PAVIAbstractCharacterManager@@A ; TAbstractSingleton<IAbstractCharacterManager>::ms_singleton
  00e25	83 c4 04	 add	 esp, 4

; 503  : 		CInstanceBase * pInstance = rkChrMgr.GetInstancePtr(iVID);

  00e28	8b 11		 mov	 edx, DWORD PTR [ecx]
  00e2a	50		 push	 eax
  00e2b	8b 52 08	 mov	 edx, DWORD PTR [edx+8]
  00e2e	ff d2		 call	 edx

; 504  : 		if (pInstance)

  00e30	85 c0		 test	 eax, eax
  00e32	0f 84 d5 fc ff
	ff		 je	 $LN1364@ServerComm

; 505  : 			pInstance->ActEmotion(CRaceMotionData::NAME_DANCE_2);

  00e38	68 47 01 00 00	 push	 327			; 00000147H
  00e3d	8b c8		 mov	 ecx, eax
  00e3f	e8 00 00 00 00	 call	 ?ActEmotion@CInstanceBase@@QAEXK@Z ; CInstanceBase::ActEmotion

; 506  : 	}

  00e44	e9 c4 fc ff ff	 jmp	 $LN1364@ServerComm
$LN99@ServerComm:

; 507  : 	else if (!strcmpi(szCmd, "dig_motion"))

  00e49	68 00 00 00 00	 push	 OFFSET ??_C@_0L@MMJCNAM@dig_motion@
  00e4e	56		 push	 esi
  00e4f	e8 00 00 00 00	 call	 __strcmpi
  00e54	83 c4 08	 add	 esp, 8
  00e57	85 c0		 test	 eax, eax
  00e59	75 3b		 jne	 SHORT $LN102@ServerComm
; File C:\Program Files\Microsoft Visual Studio\2022\Community\VC\Tools\MSVC\14.34.31933\include\xstring

; 2301 :         return _BUF_SIZE <= _Myres;

  00e5b	83 7f 2c 10	 cmp	 DWORD PTR [edi+44], 16	; 00000010H
; File C:\Program Files\Microsoft Visual Studio\2022\Community\VC\Tools\MSVC\14.34.31933\include\vector

; 1952 :         return _My_data._Myfirst[_Pos];

  00e5f	8d 47 18	 lea	 eax, DWORD PTR [edi+24]
; File C:\Program Files\Microsoft Visual Studio\2022\Community\VC\Tools\MSVC\14.34.31933\include\xstring

; 2293 :         if (_Large_string_engaged()) {

  00e62	72 02		 jb	 SHORT $LN812@ServerComm

; 2294 :             _Result = _Unfancy(_Bx._Ptr);

  00e64	8b 00		 mov	 eax, DWORD PTR [eax]
$LN812@ServerComm:
; File E:\Metin2_server\SolWayneSF v6\ClientVS22\source\UserInterface\PythonNetworkStreamCommand.cpp

; 509  : 		int iVID = atoi(TokenVector[1].c_str());

  00e66	50		 push	 eax
  00e67	e8 00 00 00 00	 call	 __atoi64

; 510  : 		IAbstractCharacterManager & rkChrMgr = IAbstractCharacterManager::GetSingleton();

  00e6c	8b 0d 00 00 00
	00		 mov	 ecx, DWORD PTR ?ms_singleton@?$TAbstractSingleton@VIAbstractCharacterManager@@@@0PAVIAbstractCharacterManager@@A ; TAbstractSingleton<IAbstractCharacterManager>::ms_singleton
  00e72	83 c4 04	 add	 esp, 4

; 511  : 		CInstanceBase * pInstance = rkChrMgr.GetInstancePtr(iVID);

  00e75	8b 11		 mov	 edx, DWORD PTR [ecx]
  00e77	50		 push	 eax
  00e78	8b 52 08	 mov	 edx, DWORD PTR [edx+8]
  00e7b	ff d2		 call	 edx

; 512  : 		if (pInstance)

  00e7d	85 c0		 test	 eax, eax
  00e7f	0f 84 88 fc ff
	ff		 je	 $LN1364@ServerComm

; 513  : 			pInstance->ActEmotion(CRaceMotionData::NAME_DIG);

  00e85	68 45 01 00 00	 push	 325			; 00000145H
  00e8a	8b c8		 mov	 ecx, eax
  00e8c	e8 00 00 00 00	 call	 ?ActEmotion@CInstanceBase@@QAEXK@Z ; CInstanceBase::ActEmotion

; 514  : 	}

  00e91	e9 77 fc ff ff	 jmp	 $LN1364@ServerComm
$LN102@ServerComm:

; 518  : 		static std::map<std::string, int> s_emotionDict;

  00e96	64 a1 00 00 00
	00		 mov	 eax, DWORD PTR fs:__tls_array
  00e9c	8b 08		 mov	 ecx, DWORD PTR [eax]
  00e9e	a1 00 00 00 00	 mov	 eax, DWORD PTR ?$TSS0@?NE@??ServerCommand@CPythonNetworkStream@@QAEXPAD@Z@4HA
  00ea3	3b 81 00 00 00
	00		 cmp	 eax, DWORD PTR __Init_thread_epoch[ecx]
  00ea9	0f 8f 4e 05 00
	00		 jg	 $LN1378@ServerComm
$LN4@ServerComm:

; 519  : 
; 520  : 		static bool s_isFirst = true;
; 521  : 		if (s_isFirst)

  00eaf	80 3d 00 00 00
	00 00		 cmp	 BYTE PTR ?s_isFirst@?NE@??ServerCommand@CPythonNetworkStream@@QAEXPAD@Z@4_NA, 0
  00eb6	0f 84 8b 04 00
	00		 je	 $LN105@ServerComm
; File C:\Program Files\Microsoft Visual Studio\2022\Community\VC\Tools\MSVC\14.34.31933\include\xstring

; 117  :         _CSTD memmove(_First1, _First2, _Count * sizeof(_Elem));

  00ebc	a1 00 00 00 00	 mov	 eax, DWORD PTR ??_C@_06GLCEGJLC@dance3@
  00ec1	0f 57 c0	 xorps	 xmm0, xmm0

; 2339 :         _CONSTEXPR20 _Bxty() noexcept : _Buf() {} // user-provided, for fancy pointers

  00ec4	0f 11 45 d4	 movups	 XMMWORD PTR $T19[ebp], xmm0

; 117  :         _CSTD memmove(_First1, _First2, _Count * sizeof(_Elem));

  00ec8	89 45 d4	 mov	 DWORD PTR $T19[ebp], eax
  00ecb	66 a1 04 00 00
	00		 mov	 ax, WORD PTR ??_C@_06GLCEGJLC@dance3@+4
; File E:\Metin2_server\SolWayneSF v6\ClientVS22\source\UserInterface\PythonNetworkStreamCommand.cpp

; 523  : 			s_isFirst = false;

  00ed1	c6 05 00 00 00
	00 00		 mov	 BYTE PTR ?s_isFirst@?NE@??ServerCommand@CPythonNetworkStream@@QAEXPAD@Z@4_NA, 0
; File C:\Program Files\Microsoft Visual Studio\2022\Community\VC\Tools\MSVC\14.34.31933\include\xstring

; 2748 :             _My_data._Mysize = _Count;

  00ed8	c7 45 e4 06 00
	00 00		 mov	 DWORD PTR $T19[ebp+16], 6

; 2749 :             _My_data._Myres  = _BUF_SIZE - 1;

  00edf	c7 45 e8 0f 00
	00 00		 mov	 DWORD PTR $T19[ebp+20], 15 ; 0000000fH

; 117  :         _CSTD memmove(_First1, _First2, _Count * sizeof(_Elem));

  00ee6	66 89 45 d8	 mov	 WORD PTR $T19[ebp+4], ax
; File E:\Metin2_server\SolWayneSF v6\ClientVS22\source\UserInterface\PythonNetworkStreamCommand.cpp

; 525  : 			s_emotionDict["dance3"] = CRaceMotionData::NAME_DANCE_3;

  00eea	8d 45 d4	 lea	 eax, DWORD PTR $T19[ebp]
  00eed	c6 45 fc 03	 mov	 BYTE PTR __$EHRec$[ebp+8], 3
  00ef1	50		 push	 eax
  00ef2	b9 00 00 00 00	 mov	 ecx, OFFSET ?s_emotionDict@?NE@??ServerCommand@CPythonNetworkStream@@QAEXPAD@Z@4V?$map@V?$basic_string@DU?$char_traits@D@std@@V?$allocator@D@2@@std@@HU?$less@V?$basic_string@DU?$char_traits@D@std@@V?$allocator@D@2@@std@@@2@V?$allocator@U?$pair@$$CBV?$basic_string@DU?$char_traits@D@std@@V?$allocator@D@2@@std@@H@std@@@2@@std@@A
  00ef7	e8 00 00 00 00	 call	 ??A?$map@V?$basic_string@DU?$char_traits@D@std@@V?$allocator@D@2@@std@@HU?$less@V?$basic_string@DU?$char_traits@D@std@@V?$allocator@D@2@@std@@@2@V?$allocator@U?$pair@$$CBV?$basic_string@DU?$char_traits@D@std@@V?$allocator@D@2@@std@@H@std@@@2@@std@@QAEAAH$$QAV?$basic_string@DU?$char_traits@D@std@@V?$allocator@D@2@@1@@Z ; std::map<std::basic_string<char,std::char_traits<char>,std::allocator<char> >,int,std::less<std::basic_string<char,std::char_traits<char>,std::allocator<char> > >,std::allocator<std::pair<std::basic_string<char,std::char_traits<char>,std::allocator<char> > const ,int> > >::operator[]
  00efc	c7 00 48 01 00
	00		 mov	 DWORD PTR [eax], 328	; 00000148H
; File C:\Program Files\Microsoft Visual Studio\2022\Community\VC\Tools\MSVC\14.34.31933\include\xstring

; 5008 :         if (_My_data._Large_string_engaged()) {

  00f02	8b 45 e8	 mov	 eax, DWORD PTR $T19[ebp+20]
  00f05	83 f8 10	 cmp	 eax, 16			; 00000010H
  00f08	72 43		 jb	 SHORT $LN878@ServerComm
; File C:\Program Files\Microsoft Visual Studio\2022\Community\VC\Tools\MSVC\14.34.31933\include\xmemory

; 830  :         _Deallocate<_New_alignof<_Ty>>(_Ptr, sizeof(_Ty) * _Count);

  00f0a	8b 4d d4	 mov	 ecx, DWORD PTR $T19[ebp]
; File C:\Program Files\Microsoft Visual Studio\2022\Community\VC\Tools\MSVC\14.34.31933\include\xstring

; 5013 :             _Al.deallocate(_Ptr, _My_data._Myres + 1);

  00f0d	40		 inc	 eax
; File C:\Program Files\Microsoft Visual Studio\2022\Community\VC\Tools\MSVC\14.34.31933\include\xmemory

; 830  :         _Deallocate<_New_alignof<_Ty>>(_Ptr, sizeof(_Ty) * _Count);

  00f0e	89 85 34 ff ff
	ff		 mov	 DWORD PTR __Bytes$[ebp], eax
  00f14	89 8d 2c ff ff
	ff		 mov	 DWORD PTR __Ptr$[ebp], ecx

; 251  :         if (_Bytes >= _Big_allocation_threshold) { // boost the alignment of big allocations to help autovectorization

  00f1a	3d 00 10 00 00	 cmp	 eax, 4096		; 00001000H
  00f1f	72 22		 jb	 SHORT $LN879@ServerComm

; 252  :             _Adjust_manually_vector_aligned(_Ptr, _Bytes);

  00f21	8d 85 34 ff ff
	ff		 lea	 eax, DWORD PTR __Bytes$[ebp]
  00f27	50		 push	 eax
  00f28	8d 85 2c ff ff
	ff		 lea	 eax, DWORD PTR __Ptr$[ebp]
  00f2e	50		 push	 eax
  00f2f	e8 00 00 00 00	 call	 ?_Adjust_manually_vector_aligned@std@@YAXAAPAXAAI@Z ; std::_Adjust_manually_vector_aligned
  00f34	8b 85 34 ff ff
	ff		 mov	 eax, DWORD PTR __Bytes$[ebp]
  00f3a	83 c4 08	 add	 esp, 8
  00f3d	8b 8d 2c ff ff
	ff		 mov	 ecx, DWORD PTR __Ptr$[ebp]
$LN879@ServerComm:

; 255  :         ::operator delete(_Ptr, _Bytes);

  00f43	50		 push	 eax
  00f44	51		 push	 ecx
  00f45	e8 00 00 00 00	 call	 ??3@YAXPAXI@Z		; operator delete
  00f4a	83 c4 08	 add	 esp, 8
$LN878@ServerComm:
; File C:\Program Files\Microsoft Visual Studio\2022\Community\VC\Tools\MSVC\14.34.31933\include\xstring

; 117  :         _CSTD memmove(_First1, _First2, _Count * sizeof(_Elem));

  00f4d	a1 00 00 00 00	 mov	 eax, DWORD PTR ??_C@_06CEGFPPHF@dance4@
  00f52	0f 57 c0	 xorps	 xmm0, xmm0

; 2339 :         _CONSTEXPR20 _Bxty() noexcept : _Buf() {} // user-provided, for fancy pointers

  00f55	0f 11 45 d4	 movups	 XMMWORD PTR $T18[ebp], xmm0

; 117  :         _CSTD memmove(_First1, _First2, _Count * sizeof(_Elem));

  00f59	89 45 d4	 mov	 DWORD PTR $T18[ebp], eax
  00f5c	66 a1 04 00 00
	00		 mov	 ax, WORD PTR ??_C@_06CEGFPPHF@dance4@+4

; 2748 :             _My_data._Mysize = _Count;

  00f62	c7 45 e4 06 00
	00 00		 mov	 DWORD PTR $T18[ebp+16], 6

; 2749 :             _My_data._Myres  = _BUF_SIZE - 1;

  00f69	c7 45 e8 0f 00
	00 00		 mov	 DWORD PTR $T18[ebp+20], 15 ; 0000000fH

; 117  :         _CSTD memmove(_First1, _First2, _Count * sizeof(_Elem));

  00f70	66 89 45 d8	 mov	 WORD PTR $T18[ebp+4], ax
; File E:\Metin2_server\SolWayneSF v6\ClientVS22\source\UserInterface\PythonNetworkStreamCommand.cpp

; 526  : 			s_emotionDict["dance4"] = CRaceMotionData::NAME_DANCE_4;

  00f74	8d 45 d4	 lea	 eax, DWORD PTR $T18[ebp]
  00f77	c6 45 fc 04	 mov	 BYTE PTR __$EHRec$[ebp+8], 4
  00f7b	50		 push	 eax
  00f7c	b9 00 00 00 00	 mov	 ecx, OFFSET ?s_emotionDict@?NE@??ServerCommand@CPythonNetworkStream@@QAEXPAD@Z@4V?$map@V?$basic_string@DU?$char_traits@D@std@@V?$allocator@D@2@@std@@HU?$less@V?$basic_string@DU?$char_traits@D@std@@V?$allocator@D@2@@std@@@2@V?$allocator@U?$pair@$$CBV?$basic_string@DU?$char_traits@D@std@@V?$allocator@D@2@@std@@H@std@@@2@@std@@A
  00f81	e8 00 00 00 00	 call	 ??A?$map@V?$basic_string@DU?$char_traits@D@std@@V?$allocator@D@2@@std@@HU?$less@V?$basic_string@DU?$char_traits@D@std@@V?$allocator@D@2@@std@@@2@V?$allocator@U?$pair@$$CBV?$basic_string@DU?$char_traits@D@std@@V?$allocator@D@2@@std@@H@std@@@2@@std@@QAEAAH$$QAV?$basic_string@DU?$char_traits@D@std@@V?$allocator@D@2@@1@@Z ; std::map<std::basic_string<char,std::char_traits<char>,std::allocator<char> >,int,std::less<std::basic_string<char,std::char_traits<char>,std::allocator<char> > >,std::allocator<std::pair<std::basic_string<char,std::char_traits<char>,std::allocator<char> > const ,int> > >::operator[]
  00f86	c7 00 49 01 00
	00		 mov	 DWORD PTR [eax], 329	; 00000149H
; File C:\Program Files\Microsoft Visual Studio\2022\Community\VC\Tools\MSVC\14.34.31933\include\xstring

; 5008 :         if (_My_data._Large_string_engaged()) {

  00f8c	8b 45 e8	 mov	 eax, DWORD PTR $T18[ebp+20]
  00f8f	83 f8 10	 cmp	 eax, 16			; 00000010H
  00f92	72 43		 jb	 SHORT $LN943@ServerComm
; File C:\Program Files\Microsoft Visual Studio\2022\Community\VC\Tools\MSVC\14.34.31933\include\xmemory

; 830  :         _Deallocate<_New_alignof<_Ty>>(_Ptr, sizeof(_Ty) * _Count);

  00f94	8b 4d d4	 mov	 ecx, DWORD PTR $T18[ebp]
; File C:\Program Files\Microsoft Visual Studio\2022\Community\VC\Tools\MSVC\14.34.31933\include\xstring

; 5013 :             _Al.deallocate(_Ptr, _My_data._Myres + 1);

  00f97	40		 inc	 eax
; File C:\Program Files\Microsoft Visual Studio\2022\Community\VC\Tools\MSVC\14.34.31933\include\xmemory

; 830  :         _Deallocate<_New_alignof<_Ty>>(_Ptr, sizeof(_Ty) * _Count);

  00f98	89 85 34 ff ff
	ff		 mov	 DWORD PTR __Bytes$[ebp], eax
  00f9e	89 8d 2c ff ff
	ff		 mov	 DWORD PTR __Ptr$[ebp], ecx

; 251  :         if (_Bytes >= _Big_allocation_threshold) { // boost the alignment of big allocations to help autovectorization

  00fa4	3d 00 10 00 00	 cmp	 eax, 4096		; 00001000H
  00fa9	72 22		 jb	 SHORT $LN944@ServerComm

; 252  :             _Adjust_manually_vector_aligned(_Ptr, _Bytes);

  00fab	8d 85 34 ff ff
	ff		 lea	 eax, DWORD PTR __Bytes$[ebp]
  00fb1	50		 push	 eax
  00fb2	8d 85 2c ff ff
	ff		 lea	 eax, DWORD PTR __Ptr$[ebp]
  00fb8	50		 push	 eax
  00fb9	e8 00 00 00 00	 call	 ?_Adjust_manually_vector_aligned@std@@YAXAAPAXAAI@Z ; std::_Adjust_manually_vector_aligned
  00fbe	8b 85 34 ff ff
	ff		 mov	 eax, DWORD PTR __Bytes$[ebp]
  00fc4	83 c4 08	 add	 esp, 8
  00fc7	8b 8d 2c ff ff
	ff		 mov	 ecx, DWORD PTR __Ptr$[ebp]
$LN944@ServerComm:

; 255  :         ::operator delete(_Ptr, _Bytes);

  00fcd	50		 push	 eax
  00fce	51		 push	 ecx
  00fcf	e8 00 00 00 00	 call	 ??3@YAXPAXI@Z		; operator delete
  00fd4	83 c4 08	 add	 esp, 8
$LN943@ServerComm:
; File C:\Program Files\Microsoft Visual Studio\2022\Community\VC\Tools\MSVC\14.34.31933\include\xstring

; 117  :         _CSTD memmove(_First1, _First2, _Count * sizeof(_Elem));

  00fd7	a1 00 00 00 00	 mov	 eax, DWORD PTR ??_C@_06DNHOMODE@dance5@
  00fdc	0f 57 c0	 xorps	 xmm0, xmm0

; 2339 :         _CONSTEXPR20 _Bxty() noexcept : _Buf() {} // user-provided, for fancy pointers

  00fdf	0f 11 45 d4	 movups	 XMMWORD PTR $T17[ebp], xmm0

; 117  :         _CSTD memmove(_First1, _First2, _Count * sizeof(_Elem));

  00fe3	89 45 d4	 mov	 DWORD PTR $T17[ebp], eax
  00fe6	66 a1 04 00 00
	00		 mov	 ax, WORD PTR ??_C@_06DNHOMODE@dance5@+4

; 2748 :             _My_data._Mysize = _Count;

  00fec	c7 45 e4 06 00
	00 00		 mov	 DWORD PTR $T17[ebp+16], 6

; 2749 :             _My_data._Myres  = _BUF_SIZE - 1;

  00ff3	c7 45 e8 0f 00
	00 00		 mov	 DWORD PTR $T17[ebp+20], 15 ; 0000000fH

; 117  :         _CSTD memmove(_First1, _First2, _Count * sizeof(_Elem));

  00ffa	66 89 45 d8	 mov	 WORD PTR $T17[ebp+4], ax
; File E:\Metin2_server\SolWayneSF v6\ClientVS22\source\UserInterface\PythonNetworkStreamCommand.cpp

; 527  : 			s_emotionDict["dance5"] = CRaceMotionData::NAME_DANCE_5;

  00ffe	8d 45 d4	 lea	 eax, DWORD PTR $T17[ebp]
  01001	c6 45 fc 05	 mov	 BYTE PTR __$EHRec$[ebp+8], 5
  01005	50		 push	 eax
  01006	b9 00 00 00 00	 mov	 ecx, OFFSET ?s_emotionDict@?NE@??ServerCommand@CPythonNetworkStream@@QAEXPAD@Z@4V?$map@V?$basic_string@DU?$char_traits@D@std@@V?$allocator@D@2@@std@@HU?$less@V?$basic_string@DU?$char_traits@D@std@@V?$allocator@D@2@@std@@@2@V?$allocator@U?$pair@$$CBV?$basic_string@DU?$char_traits@D@std@@V?$allocator@D@2@@std@@H@std@@@2@@std@@A
  0100b	e8 00 00 00 00	 call	 ??A?$map@V?$basic_string@DU?$char_traits@D@std@@V?$allocator@D@2@@std@@HU?$less@V?$basic_string@DU?$char_traits@D@std@@V?$allocator@D@2@@std@@@2@V?$allocator@U?$pair@$$CBV?$basic_string@DU?$char_traits@D@std@@V?$allocator@D@2@@std@@H@std@@@2@@std@@QAEAAH$$QAV?$basic_string@DU?$char_traits@D@std@@V?$allocator@D@2@@1@@Z ; std::map<std::basic_string<char,std::char_traits<char>,std::allocator<char> >,int,std::less<std::basic_string<char,std::char_traits<char>,std::allocator<char> > >,std::allocator<std::pair<std::basic_string<char,std::char_traits<char>,std::allocator<char> > const ,int> > >::operator[]
  01010	c7 00 4a 01 00
	00		 mov	 DWORD PTR [eax], 330	; 0000014aH
; File C:\Program Files\Microsoft Visual Studio\2022\Community\VC\Tools\MSVC\14.34.31933\include\xstring

; 5008 :         if (_My_data._Large_string_engaged()) {

  01016	8b 45 e8	 mov	 eax, DWORD PTR $T17[ebp+20]
  01019	83 f8 10	 cmp	 eax, 16			; 00000010H
  0101c	72 43		 jb	 SHORT $LN1008@ServerComm
; File C:\Program Files\Microsoft Visual Studio\2022\Community\VC\Tools\MSVC\14.34.31933\include\xmemory

; 830  :         _Deallocate<_New_alignof<_Ty>>(_Ptr, sizeof(_Ty) * _Count);

  0101e	8b 4d d4	 mov	 ecx, DWORD PTR $T17[ebp]
; File C:\Program Files\Microsoft Visual Studio\2022\Community\VC\Tools\MSVC\14.34.31933\include\xstring

; 5013 :             _Al.deallocate(_Ptr, _My_data._Myres + 1);

  01021	40		 inc	 eax
; File C:\Program Files\Microsoft Visual Studio\2022\Community\VC\Tools\MSVC\14.34.31933\include\xmemory

; 830  :         _Deallocate<_New_alignof<_Ty>>(_Ptr, sizeof(_Ty) * _Count);

  01022	89 85 34 ff ff
	ff		 mov	 DWORD PTR __Bytes$[ebp], eax
  01028	89 8d 2c ff ff
	ff		 mov	 DWORD PTR __Ptr$[ebp], ecx

; 251  :         if (_Bytes >= _Big_allocation_threshold) { // boost the alignment of big allocations to help autovectorization

  0102e	3d 00 10 00 00	 cmp	 eax, 4096		; 00001000H
  01033	72 22		 jb	 SHORT $LN1009@ServerComm

; 252  :             _Adjust_manually_vector_aligned(_Ptr, _Bytes);

  01035	8d 85 34 ff ff
	ff		 lea	 eax, DWORD PTR __Bytes$[ebp]
  0103b	50		 push	 eax
  0103c	8d 85 2c ff ff
	ff		 lea	 eax, DWORD PTR __Ptr$[ebp]
  01042	50		 push	 eax
  01043	e8 00 00 00 00	 call	 ?_Adjust_manually_vector_aligned@std@@YAXAAPAXAAI@Z ; std::_Adjust_manually_vector_aligned
  01048	8b 85 34 ff ff
	ff		 mov	 eax, DWORD PTR __Bytes$[ebp]
  0104e	83 c4 08	 add	 esp, 8
  01051	8b 8d 2c ff ff
	ff		 mov	 ecx, DWORD PTR __Ptr$[ebp]
$LN1009@ServerComm:

; 255  :         ::operator delete(_Ptr, _Bytes);

  01057	50		 push	 eax
  01058	51		 push	 ecx
  01059	e8 00 00 00 00	 call	 ??3@YAXPAXI@Z		; operator delete
  0105e	83 c4 08	 add	 esp, 8
$LN1008@ServerComm:
; File C:\Program Files\Microsoft Visual Studio\2022\Community\VC\Tools\MSVC\14.34.31933\include\xstring

; 117  :         _CSTD memmove(_First1, _First2, _Count * sizeof(_Elem));

  01061	a1 00 00 00 00	 mov	 eax, DWORD PTR ??_C@_06BGFDJNPH@dance6@
  01066	0f 57 c0	 xorps	 xmm0, xmm0

; 2339 :         _CONSTEXPR20 _Bxty() noexcept : _Buf() {} // user-provided, for fancy pointers

  01069	0f 11 45 d4	 movups	 XMMWORD PTR $T16[ebp], xmm0

; 117  :         _CSTD memmove(_First1, _First2, _Count * sizeof(_Elem));

  0106d	89 45 d4	 mov	 DWORD PTR $T16[ebp], eax
  01070	66 a1 04 00 00
	00		 mov	 ax, WORD PTR ??_C@_06BGFDJNPH@dance6@+4

; 2748 :             _My_data._Mysize = _Count;

  01076	c7 45 e4 06 00
	00 00		 mov	 DWORD PTR $T16[ebp+16], 6

; 2749 :             _My_data._Myres  = _BUF_SIZE - 1;

  0107d	c7 45 e8 0f 00
	00 00		 mov	 DWORD PTR $T16[ebp+20], 15 ; 0000000fH

; 117  :         _CSTD memmove(_First1, _First2, _Count * sizeof(_Elem));

  01084	66 89 45 d8	 mov	 WORD PTR $T16[ebp+4], ax
; File E:\Metin2_server\SolWayneSF v6\ClientVS22\source\UserInterface\PythonNetworkStreamCommand.cpp

; 528  : 			s_emotionDict["dance6"] = CRaceMotionData::NAME_DANCE_6;

  01088	8d 45 d4	 lea	 eax, DWORD PTR $T16[ebp]
  0108b	c6 45 fc 06	 mov	 BYTE PTR __$EHRec$[ebp+8], 6
  0108f	50		 push	 eax
  01090	b9 00 00 00 00	 mov	 ecx, OFFSET ?s_emotionDict@?NE@??ServerCommand@CPythonNetworkStream@@QAEXPAD@Z@4V?$map@V?$basic_string@DU?$char_traits@D@std@@V?$allocator@D@2@@std@@HU?$less@V?$basic_string@DU?$char_traits@D@std@@V?$allocator@D@2@@std@@@2@V?$allocator@U?$pair@$$CBV?$basic_string@DU?$char_traits@D@std@@V?$allocator@D@2@@std@@H@std@@@2@@std@@A
  01095	e8 00 00 00 00	 call	 ??A?$map@V?$basic_string@DU?$char_traits@D@std@@V?$allocator@D@2@@std@@HU?$less@V?$basic_string@DU?$char_traits@D@std@@V?$allocator@D@2@@std@@@2@V?$allocator@U?$pair@$$CBV?$basic_string@DU?$char_traits@D@std@@V?$allocator@D@2@@std@@H@std@@@2@@std@@QAEAAH$$QAV?$basic_string@DU?$char_traits@D@std@@V?$allocator@D@2@@1@@Z ; std::map<std::basic_string<char,std::char_traits<char>,std::allocator<char> >,int,std::less<std::basic_string<char,std::char_traits<char>,std::allocator<char> > >,std::allocator<std::pair<std::basic_string<char,std::char_traits<char>,std::allocator<char> > const ,int> > >::operator[]
  0109a	c7 00 4b 01 00
	00		 mov	 DWORD PTR [eax], 331	; 0000014bH
; File C:\Program Files\Microsoft Visual Studio\2022\Community\VC\Tools\MSVC\14.34.31933\include\xstring

; 5008 :         if (_My_data._Large_string_engaged()) {

  010a0	8b 45 e8	 mov	 eax, DWORD PTR $T16[ebp+20]
  010a3	83 f8 10	 cmp	 eax, 16			; 00000010H
  010a6	72 43		 jb	 SHORT $LN1073@ServerComm
; File C:\Program Files\Microsoft Visual Studio\2022\Community\VC\Tools\MSVC\14.34.31933\include\xmemory

; 830  :         _Deallocate<_New_alignof<_Ty>>(_Ptr, sizeof(_Ty) * _Count);

  010a8	8b 4d d4	 mov	 ecx, DWORD PTR $T16[ebp]
; File C:\Program Files\Microsoft Visual Studio\2022\Community\VC\Tools\MSVC\14.34.31933\include\xstring

; 5013 :             _Al.deallocate(_Ptr, _My_data._Myres + 1);

  010ab	40		 inc	 eax
; File C:\Program Files\Microsoft Visual Studio\2022\Community\VC\Tools\MSVC\14.34.31933\include\xmemory

; 830  :         _Deallocate<_New_alignof<_Ty>>(_Ptr, sizeof(_Ty) * _Count);

  010ac	89 85 34 ff ff
	ff		 mov	 DWORD PTR __Bytes$[ebp], eax
  010b2	89 8d 2c ff ff
	ff		 mov	 DWORD PTR __Ptr$[ebp], ecx

; 251  :         if (_Bytes >= _Big_allocation_threshold) { // boost the alignment of big allocations to help autovectorization

  010b8	3d 00 10 00 00	 cmp	 eax, 4096		; 00001000H
  010bd	72 22		 jb	 SHORT $LN1074@ServerComm

; 252  :             _Adjust_manually_vector_aligned(_Ptr, _Bytes);

  010bf	8d 85 34 ff ff
	ff		 lea	 eax, DWORD PTR __Bytes$[ebp]
  010c5	50		 push	 eax
  010c6	8d 85 2c ff ff
	ff		 lea	 eax, DWORD PTR __Ptr$[ebp]
  010cc	50		 push	 eax
  010cd	e8 00 00 00 00	 call	 ?_Adjust_manually_vector_aligned@std@@YAXAAPAXAAI@Z ; std::_Adjust_manually_vector_aligned
  010d2	8b 85 34 ff ff
	ff		 mov	 eax, DWORD PTR __Bytes$[ebp]
  010d8	83 c4 08	 add	 esp, 8
  010db	8b 8d 2c ff ff
	ff		 mov	 ecx, DWORD PTR __Ptr$[ebp]
$LN1074@ServerComm:

; 255  :         ::operator delete(_Ptr, _Bytes);

  010e1	50		 push	 eax
  010e2	51		 push	 ecx
  010e3	e8 00 00 00 00	 call	 ??3@YAXPAXI@Z		; operator delete
  010e8	83 c4 08	 add	 esp, 8
$LN1073@ServerComm:
; File C:\Program Files\Microsoft Visual Studio\2022\Community\VC\Tools\MSVC\14.34.31933\include\xstring

; 117  :         _CSTD memmove(_First1, _First2, _Count * sizeof(_Elem));

  010eb	a1 08 00 00 00	 mov	 eax, DWORD PTR ??_C@_0P@KFFKPMLJ@congratulation@+8
  010f0	0f 57 c0	 xorps	 xmm0, xmm0

; 2339 :         _CONSTEXPR20 _Bxty() noexcept : _Buf() {} // user-provided, for fancy pointers

  010f3	0f 11 45 d4	 movups	 XMMWORD PTR $T15[ebp], xmm0

; 117  :         _CSTD memmove(_First1, _First2, _Count * sizeof(_Elem));

  010f7	89 45 dc	 mov	 DWORD PTR $T15[ebp+8], eax
  010fa	f3 0f 7e 05 00
	00 00 00	 movq	 xmm0, QWORD PTR ??_C@_0P@KFFKPMLJ@congratulation@
  01102	66 a1 0c 00 00
	00		 mov	 ax, WORD PTR ??_C@_0P@KFFKPMLJ@congratulation@+12

; 2748 :             _My_data._Mysize = _Count;

  01108	c7 45 e4 0e 00
	00 00		 mov	 DWORD PTR $T15[ebp+16], 14 ; 0000000eH

; 2749 :             _My_data._Myres  = _BUF_SIZE - 1;

  0110f	c7 45 e8 0f 00
	00 00		 mov	 DWORD PTR $T15[ebp+20], 15 ; 0000000fH

; 117  :         _CSTD memmove(_First1, _First2, _Count * sizeof(_Elem));

  01116	66 0f d6 45 d4	 movq	 QWORD PTR $T15[ebp], xmm0
  0111b	66 89 45 e0	 mov	 WORD PTR $T15[ebp+12], ax
; File E:\Metin2_server\SolWayneSF v6\ClientVS22\source\UserInterface\PythonNetworkStreamCommand.cpp

; 529  : 			s_emotionDict["congratulation"] = CRaceMotionData::NAME_CONGRATULATION;

  0111f	8d 45 d4	 lea	 eax, DWORD PTR $T15[ebp]
  01122	c6 45 fc 07	 mov	 BYTE PTR __$EHRec$[ebp+8], 7
  01126	50		 push	 eax
  01127	b9 00 00 00 00	 mov	 ecx, OFFSET ?s_emotionDict@?NE@??ServerCommand@CPythonNetworkStream@@QAEXPAD@Z@4V?$map@V?$basic_string@DU?$char_traits@D@std@@V?$allocator@D@2@@std@@HU?$less@V?$basic_string@DU?$char_traits@D@std@@V?$allocator@D@2@@std@@@2@V?$allocator@U?$pair@$$CBV?$basic_string@DU?$char_traits@D@std@@V?$allocator@D@2@@std@@H@std@@@2@@std@@A
  0112c	e8 00 00 00 00	 call	 ??A?$map@V?$basic_string@DU?$char_traits@D@std@@V?$allocator@D@2@@std@@HU?$less@V?$basic_string@DU?$char_traits@D@std@@V?$allocator@D@2@@std@@@2@V?$allocator@U?$pair@$$CBV?$basic_string@DU?$char_traits@D@std@@V?$allocator@D@2@@std@@H@std@@@2@@std@@QAEAAH$$QAV?$basic_string@DU?$char_traits@D@std@@V?$allocator@D@2@@1@@Z ; std::map<std::basic_string<char,std::char_traits<char>,std::allocator<char> >,int,std::less<std::basic_string<char,std::char_traits<char>,std::allocator<char> > >,std::allocator<std::pair<std::basic_string<char,std::char_traits<char>,std::allocator<char> > const ,int> > >::operator[]
  01131	c7 00 57 01 00
	00		 mov	 DWORD PTR [eax], 343	; 00000157H
; File C:\Program Files\Microsoft Visual Studio\2022\Community\VC\Tools\MSVC\14.34.31933\include\xstring

; 5008 :         if (_My_data._Large_string_engaged()) {

  01137	8b 45 e8	 mov	 eax, DWORD PTR $T15[ebp+20]
  0113a	83 f8 10	 cmp	 eax, 16			; 00000010H
  0113d	72 43		 jb	 SHORT $LN1138@ServerComm
; File C:\Program Files\Microsoft Visual Studio\2022\Community\VC\Tools\MSVC\14.34.31933\include\xmemory

; 830  :         _Deallocate<_New_alignof<_Ty>>(_Ptr, sizeof(_Ty) * _Count);

  0113f	8b 4d d4	 mov	 ecx, DWORD PTR $T15[ebp]
; File C:\Program Files\Microsoft Visual Studio\2022\Community\VC\Tools\MSVC\14.34.31933\include\xstring

; 5013 :             _Al.deallocate(_Ptr, _My_data._Myres + 1);

  01142	40		 inc	 eax
; File C:\Program Files\Microsoft Visual Studio\2022\Community\VC\Tools\MSVC\14.34.31933\include\xmemory

; 830  :         _Deallocate<_New_alignof<_Ty>>(_Ptr, sizeof(_Ty) * _Count);

  01143	89 85 34 ff ff
	ff		 mov	 DWORD PTR __Bytes$[ebp], eax
  01149	89 8d 2c ff ff
	ff		 mov	 DWORD PTR __Ptr$[ebp], ecx

; 251  :         if (_Bytes >= _Big_allocation_threshold) { // boost the alignment of big allocations to help autovectorization

  0114f	3d 00 10 00 00	 cmp	 eax, 4096		; 00001000H
  01154	72 22		 jb	 SHORT $LN1139@ServerComm

; 252  :             _Adjust_manually_vector_aligned(_Ptr, _Bytes);

  01156	8d 85 34 ff ff
	ff		 lea	 eax, DWORD PTR __Bytes$[ebp]
  0115c	50		 push	 eax
  0115d	8d 85 2c ff ff
	ff		 lea	 eax, DWORD PTR __Ptr$[ebp]
  01163	50		 push	 eax
  01164	e8 00 00 00 00	 call	 ?_Adjust_manually_vector_aligned@std@@YAXAAPAXAAI@Z ; std::_Adjust_manually_vector_aligned
  01169	8b 85 34 ff ff
	ff		 mov	 eax, DWORD PTR __Bytes$[ebp]
  0116f	83 c4 08	 add	 esp, 8
  01172	8b 8d 2c ff ff
	ff		 mov	 ecx, DWORD PTR __Ptr$[ebp]
$LN1139@ServerComm:

; 255  :         ::operator delete(_Ptr, _Bytes);

  01178	50		 push	 eax
  01179	51		 push	 ecx
  0117a	e8 00 00 00 00	 call	 ??3@YAXPAXI@Z		; operator delete
  0117f	83 c4 08	 add	 esp, 8
$LN1138@ServerComm:
; File C:\Program Files\Microsoft Visual Studio\2022\Community\VC\Tools\MSVC\14.34.31933\include\xstring

; 117  :         _CSTD memmove(_First1, _First2, _Count * sizeof(_Elem));

  01182	a1 00 00 00 00	 mov	 eax, DWORD PTR ??_C@_07JCIHIBLI@forgive@
  01187	0f 57 c0	 xorps	 xmm0, xmm0

; 2339 :         _CONSTEXPR20 _Bxty() noexcept : _Buf() {} // user-provided, for fancy pointers

  0118a	0f 11 45 d4	 movups	 XMMWORD PTR $T14[ebp], xmm0

; 117  :         _CSTD memmove(_First1, _First2, _Count * sizeof(_Elem));

  0118e	89 45 d4	 mov	 DWORD PTR $T14[ebp], eax
  01191	66 a1 04 00 00
	00		 mov	 ax, WORD PTR ??_C@_07JCIHIBLI@forgive@+4
  01197	66 89 45 d8	 mov	 WORD PTR $T14[ebp+4], ax
  0119b	a0 06 00 00 00	 mov	 al, BYTE PTR ??_C@_07JCIHIBLI@forgive@+6

; 2748 :             _My_data._Mysize = _Count;

  011a0	c7 45 e4 07 00
	00 00		 mov	 DWORD PTR $T14[ebp+16], 7

; 2749 :             _My_data._Myres  = _BUF_SIZE - 1;

  011a7	c7 45 e8 0f 00
	00 00		 mov	 DWORD PTR $T14[ebp+20], 15 ; 0000000fH

; 117  :         _CSTD memmove(_First1, _First2, _Count * sizeof(_Elem));

  011ae	88 45 da	 mov	 BYTE PTR $T14[ebp+6], al
; File E:\Metin2_server\SolWayneSF v6\ClientVS22\source\UserInterface\PythonNetworkStreamCommand.cpp

; 530  : 			s_emotionDict["forgive"] = CRaceMotionData::NAME_FORGIVE;

  011b1	8d 45 d4	 lea	 eax, DWORD PTR $T14[ebp]
  011b4	c6 45 fc 08	 mov	 BYTE PTR __$EHRec$[ebp+8], 8
  011b8	50		 push	 eax
  011b9	b9 00 00 00 00	 mov	 ecx, OFFSET ?s_emotionDict@?NE@??ServerCommand@CPythonNetworkStream@@QAEXPAD@Z@4V?$map@V?$basic_string@DU?$char_traits@D@std@@V?$allocator@D@2@@std@@HU?$less@V?$basic_string@DU?$char_traits@D@std@@V?$allocator@D@2@@std@@@2@V?$allocator@U?$pair@$$CBV?$basic_string@DU?$char_traits@D@std@@V?$allocator@D@2@@std@@H@std@@@2@@std@@A
  011be	e8 00 00 00 00	 call	 ??A?$map@V?$basic_string@DU?$char_traits@D@std@@V?$allocator@D@2@@std@@HU?$less@V?$basic_string@DU?$char_traits@D@std@@V?$allocator@D@2@@std@@@2@V?$allocator@U?$pair@$$CBV?$basic_string@DU?$char_traits@D@std@@V?$allocator@D@2@@std@@H@std@@@2@@std@@QAEAAH$$QAV?$basic_string@DU?$char_traits@D@std@@V?$allocator@D@2@@1@@Z ; std::map<std::basic_string<char,std::char_traits<char>,std::allocator<char> >,int,std::less<std::basic_string<char,std::char_traits<char>,std::allocator<char> > >,std::allocator<std::pair<std::basic_string<char,std::char_traits<char>,std::allocator<char> > const ,int> > >::operator[]
  011c3	8d 4d d4	 lea	 ecx, DWORD PTR $T14[ebp]
  011c6	c6 45 fc 00	 mov	 BYTE PTR __$EHRec$[ebp+8], 0
  011ca	c7 00 58 01 00
	00		 mov	 DWORD PTR [eax], 344	; 00000158H
  011d0	e8 00 00 00 00	 call	 ??1?$basic_string@DU?$char_traits@D@std@@V?$allocator@D@2@@std@@QAE@XZ ; std::basic_string<char,std::char_traits<char>,std::allocator<char> >::~basic_string<char,std::char_traits<char>,std::allocator<char> >

; 531  : 			s_emotionDict["angry"] = CRaceMotionData::NAME_ANGRY;

  011d5	68 00 00 00 00	 push	 OFFSET ??_C@_05KEOOPKLE@angry@
  011da	8d 4d d4	 lea	 ecx, DWORD PTR $T13[ebp]
  011dd	e8 00 00 00 00	 call	 ??0?$basic_string@DU?$char_traits@D@std@@V?$allocator@D@2@@std@@QAE@QBD@Z ; std::basic_string<char,std::char_traits<char>,std::allocator<char> >::basic_string<char,std::char_traits<char>,std::allocator<char> >
  011e2	8d 45 d4	 lea	 eax, DWORD PTR $T13[ebp]
  011e5	c6 45 fc 09	 mov	 BYTE PTR __$EHRec$[ebp+8], 9
  011e9	50		 push	 eax
  011ea	b9 00 00 00 00	 mov	 ecx, OFFSET ?s_emotionDict@?NE@??ServerCommand@CPythonNetworkStream@@QAEXPAD@Z@4V?$map@V?$basic_string@DU?$char_traits@D@std@@V?$allocator@D@2@@std@@HU?$less@V?$basic_string@DU?$char_traits@D@std@@V?$allocator@D@2@@std@@@2@V?$allocator@U?$pair@$$CBV?$basic_string@DU?$char_traits@D@std@@V?$allocator@D@2@@std@@H@std@@@2@@std@@A
  011ef	e8 00 00 00 00	 call	 ??A?$map@V?$basic_string@DU?$char_traits@D@std@@V?$allocator@D@2@@std@@HU?$less@V?$basic_string@DU?$char_traits@D@std@@V?$allocator@D@2@@std@@@2@V?$allocator@U?$pair@$$CBV?$basic_string@DU?$char_traits@D@std@@V?$allocator@D@2@@std@@H@std@@@2@@std@@QAEAAH$$QAV?$basic_string@DU?$char_traits@D@std@@V?$allocator@D@2@@1@@Z ; std::map<std::basic_string<char,std::char_traits<char>,std::allocator<char> >,int,std::less<std::basic_string<char,std::char_traits<char>,std::allocator<char> > >,std::allocator<std::pair<std::basic_string<char,std::char_traits<char>,std::allocator<char> > const ,int> > >::operator[]
  011f4	8d 4d d4	 lea	 ecx, DWORD PTR $T13[ebp]
  011f7	c6 45 fc 00	 mov	 BYTE PTR __$EHRec$[ebp+8], 0
  011fb	c7 00 59 01 00
	00		 mov	 DWORD PTR [eax], 345	; 00000159H
  01201	e8 00 00 00 00	 call	 ??1?$basic_string@DU?$char_traits@D@std@@V?$allocator@D@2@@std@@QAE@XZ ; std::basic_string<char,std::char_traits<char>,std::allocator<char> >::~basic_string<char,std::char_traits<char>,std::allocator<char> >

; 532  : 			s_emotionDict["attractive"] = CRaceMotionData::NAME_ATTRACTIVE;

  01206	68 00 00 00 00	 push	 OFFSET ??_C@_0L@BIJBGJBO@attractive@
  0120b	8d 4d bc	 lea	 ecx, DWORD PTR $T11[ebp]
  0120e	e8 00 00 00 00	 call	 ??0?$basic_string@DU?$char_traits@D@std@@V?$allocator@D@2@@std@@QAE@QBD@Z ; std::basic_string<char,std::char_traits<char>,std::allocator<char> >::basic_string<char,std::char_traits<char>,std::allocator<char> >
  01213	8d 45 bc	 lea	 eax, DWORD PTR $T11[ebp]
  01216	c6 45 fc 0a	 mov	 BYTE PTR __$EHRec$[ebp+8], 10 ; 0000000aH
  0121a	50		 push	 eax
  0121b	b9 00 00 00 00	 mov	 ecx, OFFSET ?s_emotionDict@?NE@??ServerCommand@CPythonNetworkStream@@QAEXPAD@Z@4V?$map@V?$basic_string@DU?$char_traits@D@std@@V?$allocator@D@2@@std@@HU?$less@V?$basic_string@DU?$char_traits@D@std@@V?$allocator@D@2@@std@@@2@V?$allocator@U?$pair@$$CBV?$basic_string@DU?$char_traits@D@std@@V?$allocator@D@2@@std@@H@std@@@2@@std@@A
  01220	e8 00 00 00 00	 call	 ??A?$map@V?$basic_string@DU?$char_traits@D@std@@V?$allocator@D@2@@std@@HU?$less@V?$basic_string@DU?$char_traits@D@std@@V?$allocator@D@2@@std@@@2@V?$allocator@U?$pair@$$CBV?$basic_string@DU?$char_traits@D@std@@V?$allocator@D@2@@std@@H@std@@@2@@std@@QAEAAH$$QAV?$basic_string@DU?$char_traits@D@std@@V?$allocator@D@2@@1@@Z ; std::map<std::basic_string<char,std::char_traits<char>,std::allocator<char> >,int,std::less<std::basic_string<char,std::char_traits<char>,std::allocator<char> > >,std::allocator<std::pair<std::basic_string<char,std::char_traits<char>,std::allocator<char> > const ,int> > >::operator[]
  01225	8d 4d bc	 lea	 ecx, DWORD PTR $T11[ebp]
  01228	c6 45 fc 00	 mov	 BYTE PTR __$EHRec$[ebp+8], 0
  0122c	c7 00 5a 01 00
	00		 mov	 DWORD PTR [eax], 346	; 0000015aH
  01232	e8 00 00 00 00	 call	 ??1?$basic_string@DU?$char_traits@D@std@@V?$allocator@D@2@@std@@QAE@XZ ; std::basic_string<char,std::char_traits<char>,std::allocator<char> >::~basic_string<char,std::char_traits<char>,std::allocator<char> >

; 533  : 			s_emotionDict["sad"] = CRaceMotionData::NAME_SAD;

  01237	68 00 00 00 00	 push	 OFFSET ??_C@_03OPLFCACF@sad@
  0123c	8d 4d 8c	 lea	 ecx, DWORD PTR $T8[ebp]
  0123f	e8 00 00 00 00	 call	 ??0?$basic_string@DU?$char_traits@D@std@@V?$allocator@D@2@@std@@QAE@QBD@Z ; std::basic_string<char,std::char_traits<char>,std::allocator<char> >::basic_string<char,std::char_traits<char>,std::allocator<char> >
  01244	8d 45 8c	 lea	 eax, DWORD PTR $T8[ebp]
  01247	c6 45 fc 0b	 mov	 BYTE PTR __$EHRec$[ebp+8], 11 ; 0000000bH
  0124b	50		 push	 eax
  0124c	b9 00 00 00 00	 mov	 ecx, OFFSET ?s_emotionDict@?NE@??ServerCommand@CPythonNetworkStream@@QAEXPAD@Z@4V?$map@V?$basic_string@DU?$char_traits@D@std@@V?$allocator@D@2@@std@@HU?$less@V?$basic_string@DU?$char_traits@D@std@@V?$allocator@D@2@@std@@@2@V?$allocator@U?$pair@$$CBV?$basic_string@DU?$char_traits@D@std@@V?$allocator@D@2@@std@@H@std@@@2@@std@@A
  01251	e8 00 00 00 00	 call	 ??A?$map@V?$basic_string@DU?$char_traits@D@std@@V?$allocator@D@2@@std@@HU?$less@V?$basic_string@DU?$char_traits@D@std@@V?$allocator@D@2@@std@@@2@V?$allocator@U?$pair@$$CBV?$basic_string@DU?$char_traits@D@std@@V?$allocator@D@2@@std@@H@std@@@2@@std@@QAEAAH$$QAV?$basic_string@DU?$char_traits@D@std@@V?$allocator@D@2@@1@@Z ; std::map<std::basic_string<char,std::char_traits<char>,std::allocator<char> >,int,std::less<std::basic_string<char,std::char_traits<char>,std::allocator<char> > >,std::allocator<std::pair<std::basic_string<char,std::char_traits<char>,std::allocator<char> > const ,int> > >::operator[]
  01256	8d 4d 8c	 lea	 ecx, DWORD PTR $T8[ebp]
  01259	c6 45 fc 00	 mov	 BYTE PTR __$EHRec$[ebp+8], 0
  0125d	c7 00 5b 01 00
	00		 mov	 DWORD PTR [eax], 347	; 0000015bH
  01263	e8 00 00 00 00	 call	 ??1?$basic_string@DU?$char_traits@D@std@@V?$allocator@D@2@@std@@QAE@XZ ; std::basic_string<char,std::char_traits<char>,std::allocator<char> >::~basic_string<char,std::char_traits<char>,std::allocator<char> >

; 534  : 			s_emotionDict["shy"] = CRaceMotionData::NAME_SHY;

  01268	68 00 00 00 00	 push	 OFFSET ??_C@_03BPAIHHLG@shy@
  0126d	8d 8d 74 ff ff
	ff		 lea	 ecx, DWORD PTR $T7[ebp]
  01273	e8 00 00 00 00	 call	 ??0?$basic_string@DU?$char_traits@D@std@@V?$allocator@D@2@@std@@QAE@QBD@Z ; std::basic_string<char,std::char_traits<char>,std::allocator<char> >::basic_string<char,std::char_traits<char>,std::allocator<char> >
  01278	8d 85 74 ff ff
	ff		 lea	 eax, DWORD PTR $T7[ebp]
  0127e	c6 45 fc 0c	 mov	 BYTE PTR __$EHRec$[ebp+8], 12 ; 0000000cH
  01282	50		 push	 eax
  01283	b9 00 00 00 00	 mov	 ecx, OFFSET ?s_emotionDict@?NE@??ServerCommand@CPythonNetworkStream@@QAEXPAD@Z@4V?$map@V?$basic_string@DU?$char_traits@D@std@@V?$allocator@D@2@@std@@HU?$less@V?$basic_string@DU?$char_traits@D@std@@V?$allocator@D@2@@std@@@2@V?$allocator@U?$pair@$$CBV?$basic_string@DU?$char_traits@D@std@@V?$allocator@D@2@@std@@H@std@@@2@@std@@A
  01288	e8 00 00 00 00	 call	 ??A?$map@V?$basic_string@DU?$char_traits@D@std@@V?$allocator@D@2@@std@@HU?$less@V?$basic_string@DU?$char_traits@D@std@@V?$allocator@D@2@@std@@@2@V?$allocator@U?$pair@$$CBV?$basic_string@DU?$char_traits@D@std@@V?$allocator@D@2@@std@@H@std@@@2@@std@@QAEAAH$$QAV?$basic_string@DU?$char_traits@D@std@@V?$allocator@D@2@@1@@Z ; std::map<std::basic_string<char,std::char_traits<char>,std::allocator<char> >,int,std::less<std::basic_string<char,std::char_traits<char>,std::allocator<char> > >,std::allocator<std::pair<std::basic_string<char,std::char_traits<char>,std::allocator<char> > const ,int> > >::operator[]
  0128d	8d 8d 74 ff ff
	ff		 lea	 ecx, DWORD PTR $T7[ebp]
  01293	c6 45 fc 00	 mov	 BYTE PTR __$EHRec$[ebp+8], 0
  01297	c7 00 5c 01 00
	00		 mov	 DWORD PTR [eax], 348	; 0000015cH
  0129d	e8 00 00 00 00	 call	 ??1?$basic_string@DU?$char_traits@D@std@@V?$allocator@D@2@@std@@QAE@XZ ; std::basic_string<char,std::char_traits<char>,std::allocator<char> >::~basic_string<char,std::char_traits<char>,std::allocator<char> >

; 535  : 			s_emotionDict["cheerup"] = CRaceMotionData::NAME_CHEERUP;

  012a2	68 00 00 00 00	 push	 OFFSET ??_C@_07MJDIFIMC@cheerup@
  012a7	8d 8d 5c ff ff
	ff		 lea	 ecx, DWORD PTR $T6[ebp]
  012ad	e8 00 00 00 00	 call	 ??0?$basic_string@DU?$char_traits@D@std@@V?$allocator@D@2@@std@@QAE@QBD@Z ; std::basic_string<char,std::char_traits<char>,std::allocator<char> >::basic_string<char,std::char_traits<char>,std::allocator<char> >
  012b2	8d 85 5c ff ff
	ff		 lea	 eax, DWORD PTR $T6[ebp]
  012b8	c6 45 fc 0d	 mov	 BYTE PTR __$EHRec$[ebp+8], 13 ; 0000000dH
  012bc	50		 push	 eax
  012bd	b9 00 00 00 00	 mov	 ecx, OFFSET ?s_emotionDict@?NE@??ServerCommand@CPythonNetworkStream@@QAEXPAD@Z@4V?$map@V?$basic_string@DU?$char_traits@D@std@@V?$allocator@D@2@@std@@HU?$less@V?$basic_string@DU?$char_traits@D@std@@V?$allocator@D@2@@std@@@2@V?$allocator@U?$pair@$$CBV?$basic_string@DU?$char_traits@D@std@@V?$allocator@D@2@@std@@H@std@@@2@@std@@A
  012c2	e8 00 00 00 00	 call	 ??A?$map@V?$basic_string@DU?$char_traits@D@std@@V?$allocator@D@2@@std@@HU?$less@V?$basic_string@DU?$char_traits@D@std@@V?$allocator@D@2@@std@@@2@V?$allocator@U?$pair@$$CBV?$basic_string@DU?$char_traits@D@std@@V?$allocator@D@2@@std@@H@std@@@2@@std@@QAEAAH$$QAV?$basic_string@DU?$char_traits@D@std@@V?$allocator@D@2@@1@@Z ; std::map<std::basic_string<char,std::char_traits<char>,std::allocator<char> >,int,std::less<std::basic_string<char,std::char_traits<char>,std::allocator<char> > >,std::allocator<std::pair<std::basic_string<char,std::char_traits<char>,std::allocator<char> > const ,int> > >::operator[]
  012c7	8d 8d 5c ff ff
	ff		 lea	 ecx, DWORD PTR $T6[ebp]
  012cd	c7 00 5d 01 00
	00		 mov	 DWORD PTR [eax], 349	; 0000015dH
  012d3	c6 45 fc 00	 mov	 BYTE PTR __$EHRec$[ebp+8], 0
  012d7	e8 00 00 00 00	 call	 ??1?$basic_string@DU?$char_traits@D@std@@V?$allocator@D@2@@std@@QAE@XZ ; std::basic_string<char,std::char_traits<char>,std::allocator<char> >::~basic_string<char,std::char_traits<char>,std::allocator<char> >

; 536  : 			s_emotionDict["banter"] = CRaceMotionData::NAME_BANTER;

  012dc	68 00 00 00 00	 push	 OFFSET ??_C@_06CMFIENOK@banter@
  012e1	8d 8d 44 ff ff
	ff		 lea	 ecx, DWORD PTR $T5[ebp]
  012e7	e8 00 00 00 00	 call	 ??0?$basic_string@DU?$char_traits@D@std@@V?$allocator@D@2@@std@@QAE@QBD@Z ; std::basic_string<char,std::char_traits<char>,std::allocator<char> >::basic_string<char,std::char_traits<char>,std::allocator<char> >
  012ec	8d 85 44 ff ff
	ff		 lea	 eax, DWORD PTR $T5[ebp]
  012f2	c6 45 fc 0e	 mov	 BYTE PTR __$EHRec$[ebp+8], 14 ; 0000000eH
  012f6	50		 push	 eax
  012f7	b9 00 00 00 00	 mov	 ecx, OFFSET ?s_emotionDict@?NE@??ServerCommand@CPythonNetworkStream@@QAEXPAD@Z@4V?$map@V?$basic_string@DU?$char_traits@D@std@@V?$allocator@D@2@@std@@HU?$less@V?$basic_string@DU?$char_traits@D@std@@V?$allocator@D@2@@std@@@2@V?$allocator@U?$pair@$$CBV?$basic_string@DU?$char_traits@D@std@@V?$allocator@D@2@@std@@H@std@@@2@@std@@A
  012fc	e8 00 00 00 00	 call	 ??A?$map@V?$basic_string@DU?$char_traits@D@std@@V?$allocator@D@2@@std@@HU?$less@V?$basic_string@DU?$char_traits@D@std@@V?$allocator@D@2@@std@@@2@V?$allocator@U?$pair@$$CBV?$basic_string@DU?$char_traits@D@std@@V?$allocator@D@2@@std@@H@std@@@2@@std@@QAEAAH$$QAV?$basic_string@DU?$char_traits@D@std@@V?$allocator@D@2@@1@@Z ; std::map<std::basic_string<char,std::char_traits<char>,std::allocator<char> >,int,std::less<std::basic_string<char,std::char_traits<char>,std::allocator<char> > >,std::allocator<std::pair<std::basic_string<char,std::char_traits<char>,std::allocator<char> > const ,int> > >::operator[]
  01301	8d 8d 44 ff ff
	ff		 lea	 ecx, DWORD PTR $T5[ebp]
  01307	c6 45 fc 00	 mov	 BYTE PTR __$EHRec$[ebp+8], 0
  0130b	c7 00 5e 01 00
	00		 mov	 DWORD PTR [eax], 350	; 0000015eH
  01311	e8 00 00 00 00	 call	 ??1?$basic_string@DU?$char_traits@D@std@@V?$allocator@D@2@@std@@QAE@XZ ; std::basic_string<char,std::char_traits<char>,std::allocator<char> >::~basic_string<char,std::char_traits<char>,std::allocator<char> >

; 537  : 			s_emotionDict["joy"] = CRaceMotionData::NAME_JOY;

  01316	68 00 00 00 00	 push	 OFFSET ??_C@_03DHFGHJCG@joy@
  0131b	8d 4d a4	 lea	 ecx, DWORD PTR $T10[ebp]
  0131e	e8 00 00 00 00	 call	 ??0?$basic_string@DU?$char_traits@D@std@@V?$allocator@D@2@@std@@QAE@QBD@Z ; std::basic_string<char,std::char_traits<char>,std::allocator<char> >::basic_string<char,std::char_traits<char>,std::allocator<char> >
  01323	8d 45 a4	 lea	 eax, DWORD PTR $T10[ebp]
  01326	c6 45 fc 0f	 mov	 BYTE PTR __$EHRec$[ebp+8], 15 ; 0000000fH
  0132a	50		 push	 eax
  0132b	b9 00 00 00 00	 mov	 ecx, OFFSET ?s_emotionDict@?NE@??ServerCommand@CPythonNetworkStream@@QAEXPAD@Z@4V?$map@V?$basic_string@DU?$char_traits@D@std@@V?$allocator@D@2@@std@@HU?$less@V?$basic_string@DU?$char_traits@D@std@@V?$allocator@D@2@@std@@@2@V?$allocator@U?$pair@$$CBV?$basic_string@DU?$char_traits@D@std@@V?$allocator@D@2@@std@@H@std@@@2@@std@@A
  01330	e8 00 00 00 00	 call	 ??A?$map@V?$basic_string@DU?$char_traits@D@std@@V?$allocator@D@2@@std@@HU?$less@V?$basic_string@DU?$char_traits@D@std@@V?$allocator@D@2@@std@@@2@V?$allocator@U?$pair@$$CBV?$basic_string@DU?$char_traits@D@std@@V?$allocator@D@2@@std@@H@std@@@2@@std@@QAEAAH$$QAV?$basic_string@DU?$char_traits@D@std@@V?$allocator@D@2@@1@@Z ; std::map<std::basic_string<char,std::char_traits<char>,std::allocator<char> >,int,std::less<std::basic_string<char,std::char_traits<char>,std::allocator<char> > >,std::allocator<std::pair<std::basic_string<char,std::char_traits<char>,std::allocator<char> > const ,int> > >::operator[]
  01335	8d 4d a4	 lea	 ecx, DWORD PTR $T10[ebp]
  01338	c6 45 fc 00	 mov	 BYTE PTR __$EHRec$[ebp+8], 0
  0133c	c7 00 5f 01 00
	00		 mov	 DWORD PTR [eax], 351	; 0000015fH
  01342	e8 00 00 00 00	 call	 ??1?$basic_string@DU?$char_traits@D@std@@V?$allocator@D@2@@std@@QAE@XZ ; std::basic_string<char,std::char_traits<char>,std::allocator<char> >::~basic_string<char,std::char_traits<char>,std::allocator<char> >
$LN105@ServerComm:

; 538  : 		}
; 539  : 
; 540  : 		std::map<std::string, int>::iterator f = s_emotionDict.find(szCmd);

  01347	56		 push	 esi
  01348	8d 4d a4	 lea	 ecx, DWORD PTR $T9[ebp]
  0134b	e8 00 00 00 00	 call	 ??0?$basic_string@DU?$char_traits@D@std@@V?$allocator@D@2@@std@@QAE@QBD@Z ; std::basic_string<char,std::char_traits<char>,std::allocator<char> >::basic_string<char,std::char_traits<char>,std::allocator<char> >
  01350	8d 45 a4	 lea	 eax, DWORD PTR $T9[ebp]
  01353	b9 00 00 00 00	 mov	 ecx, OFFSET ?s_emotionDict@?NE@??ServerCommand@CPythonNetworkStream@@QAEXPAD@Z@4V?$map@V?$basic_string@DU?$char_traits@D@std@@V?$allocator@D@2@@std@@HU?$less@V?$basic_string@DU?$char_traits@D@std@@V?$allocator@D@2@@std@@@2@V?$allocator@U?$pair@$$CBV?$basic_string@DU?$char_traits@D@std@@V?$allocator@D@2@@std@@H@std@@@2@@std@@A
  01358	50		 push	 eax
  01359	8d 85 28 ff ff
	ff		 lea	 eax, DWORD PTR _f$2[ebp]
  0135f	50		 push	 eax
  01360	e8 00 00 00 00	 call	 ?find@?$_Tree@V?$_Tmap_traits@V?$basic_string@DU?$char_traits@D@std@@V?$allocator@D@2@@std@@HU?$less@V?$basic_string@DU?$char_traits@D@std@@V?$allocator@D@2@@std@@@2@V?$allocator@U?$pair@$$CBV?$basic_string@DU?$char_traits@D@std@@V?$allocator@D@2@@std@@H@std@@@2@$0A@@std@@@std@@QAE?AV?$_Tree_iterator@V?$_Tree_val@U?$_Tree_simple_types@U?$pair@$$CBV?$basic_string@DU?$char_traits@D@std@@V?$allocator@D@2@@std@@H@std@@@std@@@std@@@2@ABV?$basic_string@DU?$char_traits@D@std@@V?$allocator@D@2@@2@@Z ; std::_Tree<std::_Tmap_traits<std::basic_string<char,std::char_traits<char>,std::allocator<char> >,int,std::less<std::basic_string<char,std::char_traits<char>,std::allocator<char> > >,std::allocator<std::pair<std::basic_string<char,std::char_traits<char>,std::allocator<char> > const ,int> >,0> >::find
  01365	8d 4d a4	 lea	 ecx, DWORD PTR $T9[ebp]
  01368	e8 00 00 00 00	 call	 ??1?$basic_string@DU?$char_traits@D@std@@V?$allocator@D@2@@std@@QAE@XZ ; std::basic_string<char,std::char_traits<char>,std::allocator<char> >::~basic_string<char,std::char_traits<char>,std::allocator<char> >
; File C:\Program Files\Microsoft Visual Studio\2022\Community\VC\Tools\MSVC\14.34.31933\include\xtree

; 38   :     _Tree_unchecked_const_iterator(_Nodeptr _Pnode, const _Mytree* _Plist) noexcept : _Ptr(_Pnode) {

  0136d	8b 85 28 ff ff
	ff		 mov	 eax, DWORD PTR _f$2[ebp]
  01373	3b 05 00 00 00
	00		 cmp	 eax, DWORD PTR ?s_emotionDict@?NE@??ServerCommand@CPythonNetworkStream@@QAEXPAD@Z@4V?$map@V?$basic_string@DU?$char_traits@D@std@@V?$allocator@D@2@@std@@HU?$less@V?$basic_string@DU?$char_traits@D@std@@V?$allocator@D@2@@std@@@2@V?$allocator@U?$pair@$$CBV?$basic_string@DU?$char_traits@D@std@@V?$allocator@D@2@@std@@H@std@@@2@@std@@A
; File E:\Metin2_server\SolWayneSF v6\ClientVS22\source\UserInterface\PythonNetworkStreamCommand.cpp

; 541  : 		if (f == s_emotionDict.end())

  01379	75 19		 jne	 SHORT $LN106@ServerComm

; 542  : 		{
; 543  : 			TraceError("Unknown Server Command %s | %s", c_szCommand, szCmd);

  0137b	56		 push	 esi
  0137c	ff b5 24 ff ff
	ff		 push	 DWORD PTR _c_szCommand$GSCopy$1$[ebp]
  01382	68 00 00 00 00	 push	 OFFSET ??_C@_0BP@HJIPKFJO@Unknown?5Server?5Command?5?$CFs?5?$HM?5?$CFs@
  01387	e8 00 00 00 00	 call	 ?TraceError@@YAXPBDZZ	; TraceError
; File C:\Program Files\Microsoft Visual Studio\2022\Community\VC\Tools\MSVC\14.34.31933\include\vector

; 2107 :         if (_Myfirst) { // destroy and deallocate old array

  0138c	83 c4 0c	 add	 esp, 12			; 0000000cH
  0138f	e9 79 f7 ff ff	 jmp	 $LN1364@ServerComm
$LN106@ServerComm:
; File C:\Program Files\Microsoft Visual Studio\2022\Community\VC\Tools\MSVC\14.34.31933\include\xstring

; 2301 :         return _BUF_SIZE <= _Myres;

  01394	83 7f 2c 10	 cmp	 DWORD PTR [edi+44], 16	; 00000010H
; File E:\Metin2_server\SolWayneSF v6\ClientVS22\source\UserInterface\PythonNetworkStreamCommand.cpp

; 547  : 			int emotionIndex = f->second;

  01398	8b 70 28	 mov	 esi, DWORD PTR [eax+40]
; File C:\Program Files\Microsoft Visual Studio\2022\Community\VC\Tools\MSVC\14.34.31933\include\vector

; 1952 :         return _My_data._Myfirst[_Pos];

  0139b	8d 47 18	 lea	 eax, DWORD PTR [edi+24]
; File C:\Program Files\Microsoft Visual Studio\2022\Community\VC\Tools\MSVC\14.34.31933\include\xstring

; 2293 :         if (_Large_string_engaged()) {

  0139e	72 02		 jb	 SHORT $LN1214@ServerComm

; 2294 :             _Result = _Unfancy(_Bx._Ptr);

  013a0	8b 00		 mov	 eax, DWORD PTR [eax]
$LN1214@ServerComm:
; File E:\Metin2_server\SolWayneSF v6\ClientVS22\source\UserInterface\PythonNetworkStreamCommand.cpp

; 549  : 			int iVID = atoi(TokenVector[1].c_str());

  013a2	50		 push	 eax
  013a3	e8 00 00 00 00	 call	 __atoi64

; 550  : 			IAbstractCharacterManager & rkChrMgr = IAbstractCharacterManager::GetSingleton();

  013a8	8b 0d 00 00 00
	00		 mov	 ecx, DWORD PTR ?ms_singleton@?$TAbstractSingleton@VIAbstractCharacterManager@@@@0PAVIAbstractCharacterManager@@A ; TAbstractSingleton<IAbstractCharacterManager>::ms_singleton
  013ae	83 c4 04	 add	 esp, 4

; 551  : 			CInstanceBase * pInstance = rkChrMgr.GetInstancePtr(iVID);

  013b1	8b 11		 mov	 edx, DWORD PTR [ecx]
  013b3	50		 push	 eax
  013b4	8b 52 08	 mov	 edx, DWORD PTR [edx+8]
  013b7	ff d2		 call	 edx

; 552  : 
; 553  : 			if (pInstance)

  013b9	85 c0		 test	 eax, eax
  013bb	0f 84 4c f7 ff
	ff		 je	 $LN1364@ServerComm

; 554  : 				pInstance->ActEmotion(emotionIndex);

  013c1	56		 push	 esi
  013c2	8b c8		 mov	 ecx, eax
  013c4	e8 00 00 00 00	 call	 ?ActEmotion@CInstanceBase@@QAEXK@Z ; CInstanceBase::ActEmotion
  013c9	e9 3f f7 ff ff	 jmp	 $LN1364@ServerComm
$LN215@ServerComm:
; File C:\Program Files\Microsoft Visual Studio\2022\Community\VC\Tools\MSVC\14.34.31933\include\xmemory

; 255  :         ::operator delete(_Ptr, _Bytes);

  013ce	51		 push	 ecx
  013cf	57		 push	 edi
  013d0	e8 00 00 00 00	 call	 ??3@YAXPAXI@Z		; operator delete
  013d5	83 c4 08	 add	 esp, 8
$LN203@ServerComm:
; File E:\Metin2_server\SolWayneSF v6\ClientVS22\source\UserInterface\PythonNetworkStreamCommand.cpp

; 557  : }

  013d8	8b 4d f4	 mov	 ecx, DWORD PTR __$EHRec$[ebp]
  013db	64 89 0d 00 00
	00 00		 mov	 DWORD PTR fs:0, ecx
  013e2	59		 pop	 ecx
  013e3	5f		 pop	 edi
  013e4	5e		 pop	 esi
  013e5	8b 4d ec	 mov	 ecx, DWORD PTR __$ArrayPad$[ebp]
  013e8	33 cd		 xor	 ecx, ebp
  013ea	e8 00 00 00 00	 call	 @__security_check_cookie@4
  013ef	8b e5		 mov	 esp, ebp
  013f1	5d		 pop	 ebp
  013f2	8b e3		 mov	 esp, ebx
  013f4	5b		 pop	 ebx
  013f5	c2 04 00	 ret	 4
$LN212@ServerComm:
; File C:\Program Files\Microsoft Visual Studio\2022\Community\VC\Tools\MSVC\14.34.31933\include\xmemory

; 164  :     _STL_VERIFY(_Back_shift >= _Min_back_shift && _Back_shift <= _Non_user_size, "invalid argument");

  013f8	e8 00 00 00 00	 call	 __invalid_parameter_noinfo_noreturn
$LN1378@ServerComm:
; File E:\Metin2_server\SolWayneSF v6\ClientVS22\source\UserInterface\PythonNetworkStreamCommand.cpp

; 518  : 		static std::map<std::string, int> s_emotionDict;

  013fd	68 00 00 00 00	 push	 OFFSET ?$TSS0@?NE@??ServerCommand@CPythonNetworkStream@@QAEXPAD@Z@4HA
  01402	e8 00 00 00 00	 call	 __Init_thread_header
  01407	83 c4 04	 add	 esp, 4
  0140a	83 3d 00 00 00
	00 ff		 cmp	 DWORD PTR ?$TSS0@?NE@??ServerCommand@CPythonNetworkStream@@QAEXPAD@Z@4HA, -1
  01411	0f 85 98 fa ff
	ff		 jne	 $LN4@ServerComm
  01417	b9 00 00 00 00	 mov	 ecx, OFFSET ?s_emotionDict@?NE@??ServerCommand@CPythonNetworkStream@@QAEXPAD@Z@4V?$map@V?$basic_string@DU?$char_traits@D@std@@V?$allocator@D@2@@std@@HU?$less@V?$basic_string@DU?$char_traits@D@std@@V?$allocator@D@2@@std@@@2@V?$allocator@U?$pair@$$CBV?$basic_string@DU?$char_traits@D@std@@V?$allocator@D@2@@std@@H@std@@@2@@std@@A
  0141c	c6 45 fc 02	 mov	 BYTE PTR __$EHRec$[ebp+8], 2
  01420	e8 00 00 00 00	 call	 ??0?$map@V?$basic_string@DU?$char_traits@D@std@@V?$allocator@D@2@@std@@HU?$less@V?$basic_string@DU?$char_traits@D@std@@V?$allocator@D@2@@std@@@2@V?$allocator@U?$pair@$$CBV?$basic_string@DU?$char_traits@D@std@@V?$allocator@D@2@@std@@H@std@@@2@@std@@QAE@XZ ; std::map<std::basic_string<char,std::char_traits<char>,std::allocator<char> >,int,std::less<std::basic_string<char,std::char_traits<char>,std::allocator<char> > >,std::allocator<std::pair<std::basic_string<char,std::char_traits<char>,std::allocator<char> > const ,int> > >::map<std::basic_string<char,std::char_traits<char>,std::allocator<char> >,int,std::less<std::basic_string<char,std::char_traits<char>,std::allocator<char> > >,std::allocator<std::pair<std::basic_string<char,std::char_traits<char>,std::allocator<char> > const ,int> > >
  01425	68 00 00 00 00	 push	 OFFSET ??__Fs_emotionDict@?NE@??ServerCommand@CPythonNetworkStream@@QAEXPAD@Z@YAXXZ ; `CPythonNetworkStream::ServerCommand'::`212'::`dynamic atexit destructor for 's_emotionDict''
  0142a	e8 00 00 00 00	 call	 _atexit
  0142f	83 c4 04	 add	 esp, 4
  01432	c6 45 fc 00	 mov	 BYTE PTR __$EHRec$[ebp+8], 0
  01436	68 00 00 00 00	 push	 OFFSET ?$TSS0@?NE@??ServerCommand@CPythonNetworkStream@@QAEXPAD@Z@4HA
  0143b	e8 00 00 00 00	 call	 __Init_thread_footer
  01440	83 c4 04	 add	 esp, 4
  01443	e9 67 fa ff ff	 jmp	 $LN4@ServerComm
$LN1366@ServerComm:
$LN1348@ServerComm:

; 557  : }

  01448	00 00 00 00	 DD	 $LN55@ServerComm
  0144c	00 00 00 00	 DD	 $LN56@ServerComm
  01450	00 00 00 00	 DD	 $LN57@ServerComm
  01454	00 00 00 00	 DD	 $LN58@ServerComm
_TEXT	ENDS
;	COMDAT text$x
text$x	SEGMENT
__unwindfunclet$?ServerCommand@CPythonNetworkStream@@QAEXPAD@Z$0:
  00000	8d 8d 38 ff ff
	ff		 lea	 ecx, DWORD PTR _TokenVector$[ebp]
  00006	e9 00 00 00 00	 jmp	 ??1?$vector@V?$basic_string@DU?$char_traits@D@std@@V?$allocator@D@2@@std@@V?$allocator@V?$basic_string@DU?$char_traits@D@std@@V?$allocator@D@2@@std@@@2@@std@@QAE@XZ ; std::vector<std::basic_string<char,std::char_traits<char>,std::allocator<char> >,std::allocator<std::basic_string<char,std::char_traits<char>,std::allocator<char> > > >::~vector<std::basic_string<char,std::char_traits<char>,std::allocator<char> >,std::allocator<std::basic_string<char,std::char_traits<char>,std::allocator<char> > > >
__unwindfunclet$?ServerCommand@CPythonNetworkStream@@QAEXPAD@Z$1:
  0000b	8d 4d d4	 lea	 ecx, DWORD PTR _$S1$20[ebp]
  0000e	e9 00 00 00 00	 jmp	 ??1?$basic_string@DU?$char_traits@D@std@@V?$allocator@D@2@@std@@QAE@XZ ; std::basic_string<char,std::char_traits<char>,std::allocator<char> >::~basic_string<char,std::char_traits<char>,std::allocator<char> >
__unwindfunclet$?ServerCommand@CPythonNetworkStream@@QAEXPAD@Z$3:
  00013	8d 4d d4	 lea	 ecx, DWORD PTR $T19[ebp]
  00016	e9 00 00 00 00	 jmp	 ??1?$basic_string@DU?$char_traits@D@std@@V?$allocator@D@2@@std@@QAE@XZ ; std::basic_string<char,std::char_traits<char>,std::allocator<char> >::~basic_string<char,std::char_traits<char>,std::allocator<char> >
__unwindfunclet$?ServerCommand@CPythonNetworkStream@@QAEXPAD@Z$4:
  0001b	8d 4d d4	 lea	 ecx, DWORD PTR $T18[ebp]
  0001e	e9 00 00 00 00	 jmp	 ??1?$basic_string@DU?$char_traits@D@std@@V?$allocator@D@2@@std@@QAE@XZ ; std::basic_string<char,std::char_traits<char>,std::allocator<char> >::~basic_string<char,std::char_traits<char>,std::allocator<char> >
__unwindfunclet$?ServerCommand@CPythonNetworkStream@@QAEXPAD@Z$5:
  00023	8d 4d d4	 lea	 ecx, DWORD PTR $T17[ebp]
  00026	e9 00 00 00 00	 jmp	 ??1?$basic_string@DU?$char_traits@D@std@@V?$allocator@D@2@@std@@QAE@XZ ; std::basic_string<char,std::char_traits<char>,std::allocator<char> >::~basic_string<char,std::char_traits<char>,std::allocator<char> >
__unwindfunclet$?ServerCommand@CPythonNetworkStream@@QAEXPAD@Z$6:
  0002b	8d 4d d4	 lea	 ecx, DWORD PTR $T16[ebp]
  0002e	e9 00 00 00 00	 jmp	 ??1?$basic_string@DU?$char_traits@D@std@@V?$allocator@D@2@@std@@QAE@XZ ; std::basic_string<char,std::char_traits<char>,std::allocator<char> >::~basic_string<char,std::char_traits<char>,std::allocator<char> >
__unwindfunclet$?ServerCommand@CPythonNetworkStream@@QAEXPAD@Z$7:
  00033	8d 4d d4	 lea	 ecx, DWORD PTR $T15[ebp]
  00036	e9 00 00 00 00	 jmp	 ??1?$basic_string@DU?$char_traits@D@std@@V?$allocator@D@2@@std@@QAE@XZ ; std::basic_string<char,std::char_traits<char>,std::allocator<char> >::~basic_string<char,std::char_traits<char>,std::allocator<char> >
__unwindfunclet$?ServerCommand@CPythonNetworkStream@@QAEXPAD@Z$8:
  0003b	8d 4d d4	 lea	 ecx, DWORD PTR $T14[ebp]
  0003e	e9 00 00 00 00	 jmp	 ??1?$basic_string@DU?$char_traits@D@std@@V?$allocator@D@2@@std@@QAE@XZ ; std::basic_string<char,std::char_traits<char>,std::allocator<char> >::~basic_string<char,std::char_traits<char>,std::allocator<char> >
__unwindfunclet$?ServerCommand@CPythonNetworkStream@@QAEXPAD@Z$9:
  00043	8d 4d d4	 lea	 ecx, DWORD PTR $T13[ebp]
  00046	e9 00 00 00 00	 jmp	 ??1?$basic_string@DU?$char_traits@D@std@@V?$allocator@D@2@@std@@QAE@XZ ; std::basic_string<char,std::char_traits<char>,std::allocator<char> >::~basic_string<char,std::char_traits<char>,std::allocator<char> >
__unwindfunclet$?ServerCommand@CPythonNetworkStream@@QAEXPAD@Z$10:
  0004b	8d 4d bc	 lea	 ecx, DWORD PTR $T11[ebp]
  0004e	e9 00 00 00 00	 jmp	 ??1?$basic_string@DU?$char_traits@D@std@@V?$allocator@D@2@@std@@QAE@XZ ; std::basic_string<char,std::char_traits<char>,std::allocator<char> >::~basic_string<char,std::char_traits<char>,std::allocator<char> >
__unwindfunclet$?ServerCommand@CPythonNetworkStream@@QAEXPAD@Z$11:
  00053	8d 4d 8c	 lea	 ecx, DWORD PTR $T8[ebp]
  00056	e9 00 00 00 00	 jmp	 ??1?$basic_string@DU?$char_traits@D@std@@V?$allocator@D@2@@std@@QAE@XZ ; std::basic_string<char,std::char_traits<char>,std::allocator<char> >::~basic_string<char,std::char_traits<char>,std::allocator<char> >
__unwindfunclet$?ServerCommand@CPythonNetworkStream@@QAEXPAD@Z$12:
  0005b	8d 8d 74 ff ff
	ff		 lea	 ecx, DWORD PTR $T7[ebp]
  00061	e9 00 00 00 00	 jmp	 ??1?$basic_string@DU?$char_traits@D@std@@V?$allocator@D@2@@std@@QAE@XZ ; std::basic_string<char,std::char_traits<char>,std::allocator<char> >::~basic_string<char,std::char_traits<char>,std::allocator<char> >
__unwindfunclet$?ServerCommand@CPythonNetworkStream@@QAEXPAD@Z$13:
  00066	8d 8d 5c ff ff
	ff		 lea	 ecx, DWORD PTR $T6[ebp]
  0006c	e9 00 00 00 00	 jmp	 ??1?$basic_string@DU?$char_traits@D@std@@V?$allocator@D@2@@std@@QAE@XZ ; std::basic_string<char,std::char_traits<char>,std::allocator<char> >::~basic_string<char,std::char_traits<char>,std::allocator<char> >
__unwindfunclet$?ServerCommand@CPythonNetworkStream@@QAEXPAD@Z$14:
  00071	8d 8d 44 ff ff
	ff		 lea	 ecx, DWORD PTR $T5[ebp]
  00077	e9 00 00 00 00	 jmp	 ??1?$basic_string@DU?$char_traits@D@std@@V?$allocator@D@2@@std@@QAE@XZ ; std::basic_string<char,std::char_traits<char>,std::allocator<char> >::~basic_string<char,std::char_traits<char>,std::allocator<char> >
__unwindfunclet$?ServerCommand@CPythonNetworkStream@@QAEXPAD@Z$15:
  0007c	8d 4d a4	 lea	 ecx, DWORD PTR $T10[ebp]
  0007f	e9 00 00 00 00	 jmp	 ??1?$basic_string@DU?$char_traits@D@std@@V?$allocator@D@2@@std@@QAE@XZ ; std::basic_string<char,std::char_traits<char>,std::allocator<char> >::~basic_string<char,std::char_traits<char>,std::allocator<char> >
__unwindfunclet$?ServerCommand@CPythonNetworkStream@@QAEXPAD@Z$2:
  00084	68 00 00 00 00	 push	 OFFSET ?$TSS0@?NE@??ServerCommand@CPythonNetworkStream@@QAEXPAD@Z@4HA
  00089	e8 00 00 00 00	 call	 __Init_thread_abort
  0008e	59		 pop	 ecx
  0008f	c3		 ret	 0
  00090	cc		 int	 3
  00091	cc		 int	 3
  00092	cc		 int	 3
  00093	cc		 int	 3
  00094	cc		 int	 3
__ehhandler$?ServerCommand@CPythonNetworkStream@@QAEXPAD@Z:
  00095	90		 npad	 1
  00096	90		 npad	 1
  00097	8b 54 24 08	 mov	 edx, DWORD PTR [esp+8]
  0009b	8d 42 0c	 lea	 eax, DWORD PTR [edx+12]
  0009e	8b 8a 20 ff ff
	ff		 mov	 ecx, DWORD PTR [edx-224]
  000a4	33 c8		 xor	 ecx, eax
  000a6	e8 00 00 00 00	 call	 @__security_check_cookie@4
  000ab	8b 4a f8	 mov	 ecx, DWORD PTR [edx-8]
  000ae	33 c8		 xor	 ecx, eax
  000b0	e8 00 00 00 00	 call	 @__security_check_cookie@4
  000b5	b8 00 00 00 00	 mov	 eax, OFFSET __ehfuncinfo$?ServerCommand@CPythonNetworkStream@@QAEXPAD@Z
  000ba	e9 00 00 00 00	 jmp	 ___CxxFrameHandler3
text$x	ENDS
?ServerCommand@CPythonNetworkStream@@QAEXPAD@Z ENDP	; CPythonNetworkStream::ServerCommand
; Function compile flags: /Ogtp
; File C:\Program Files\Microsoft Visual Studio\2022\Community\VC\Tools\MSVC\14.34.31933\include\xtree
; File C:\Program Files\Microsoft Visual Studio\2022\Community\VC\Tools\MSVC\14.34.31933\include\xmemory
;	COMDAT ??__Fs_emotionDict@?NE@??ServerCommand@CPythonNetworkStream@@QAEXPAD@Z@YAXXZ
text$yd	SEGMENT
??__Fs_emotionDict@?NE@??ServerCommand@CPythonNetworkStream@@QAEXPAD@Z@YAXXZ PROC ; `CPythonNetworkStream::ServerCommand'::`212'::`dynamic atexit destructor for 's_emotionDict'', COMDAT
; File C:\Program Files\Microsoft Visual Studio\2022\Community\VC\Tools\MSVC\14.34.31933\include\xtree

; 754  :         _Erase_tree(_Al, _Myhead->_Parent);

  00000	a1 00 00 00 00	 mov	 eax, DWORD PTR ?s_emotionDict@?NE@??ServerCommand@CPythonNetworkStream@@QAEXPAD@Z@4V?$map@V?$basic_string@DU?$char_traits@D@std@@V?$allocator@D@2@@std@@HU?$less@V?$basic_string@DU?$char_traits@D@std@@V?$allocator@D@2@@std@@@2@V?$allocator@U?$pair@$$CBV?$basic_string@DU?$char_traits@D@std@@V?$allocator@D@2@@std@@H@std@@@2@@std@@A
  00005	b9 00 00 00 00	 mov	 ecx, OFFSET ?s_emotionDict@?NE@??ServerCommand@CPythonNetworkStream@@QAEXPAD@Z@4V?$map@V?$basic_string@DU?$char_traits@D@std@@V?$allocator@D@2@@std@@HU?$less@V?$basic_string@DU?$char_traits@D@std@@V?$allocator@D@2@@std@@@2@V?$allocator@U?$pair@$$CBV?$basic_string@DU?$char_traits@D@std@@V?$allocator@D@2@@std@@H@std@@@2@@std@@A
  0000a	ff 70 04	 push	 DWORD PTR [eax+4]
  0000d	68 00 00 00 00	 push	 OFFSET ?s_emotionDict@?NE@??ServerCommand@CPythonNetworkStream@@QAEXPAD@Z@4V?$map@V?$basic_string@DU?$char_traits@D@std@@V?$allocator@D@2@@std@@HU?$less@V?$basic_string@DU?$char_traits@D@std@@V?$allocator@D@2@@std@@@2@V?$allocator@U?$pair@$$CBV?$basic_string@DU?$char_traits@D@std@@V?$allocator@D@2@@std@@H@std@@@2@@std@@A
  00012	e8 00 00 00 00	 call	 ??$_Erase_tree@V?$allocator@U?$_Tree_node@U?$pair@$$CBV?$basic_string@DU?$char_traits@D@std@@V?$allocator@D@2@@std@@H@std@@PAX@std@@@std@@@?$_Tree_val@U?$_Tree_simple_types@U?$pair@$$CBV?$basic_string@DU?$char_traits@D@std@@V?$allocator@D@2@@std@@H@std@@@std@@@std@@QAEXAAV?$allocator@U?$_Tree_node@U?$pair@$$CBV?$basic_string@DU?$char_traits@D@std@@V?$allocator@D@2@@std@@H@std@@PAX@std@@@1@PAU?$_Tree_node@U?$pair@$$CBV?$basic_string@DU?$char_traits@D@std@@V?$allocator@D@2@@std@@H@std@@PAX@1@@Z ; std::_Tree_val<std::_Tree_simple_types<std::pair<std::basic_string<char,std::char_traits<char>,std::allocator<char> > const ,int> > >::_Erase_tree<std::allocator<std::_Tree_node<std::pair<std::basic_string<char,std::char_traits<char>,std::allocator<char> > const ,int>,void *> > >
; File C:\Program Files\Microsoft Visual Studio\2022\Community\VC\Tools\MSVC\14.34.31933\include\xmemory

; 255  :         ::operator delete(_Ptr, _Bytes);

  00017	6a 2c		 push	 44			; 0000002cH
  00019	ff 35 00 00 00
	00		 push	 DWORD PTR ?s_emotionDict@?NE@??ServerCommand@CPythonNetworkStream@@QAEXPAD@Z@4V?$map@V?$basic_string@DU?$char_traits@D@std@@V?$allocator@D@2@@std@@HU?$less@V?$basic_string@DU?$char_traits@D@std@@V?$allocator@D@2@@std@@@2@V?$allocator@U?$pair@$$CBV?$basic_string@DU?$char_traits@D@std@@V?$allocator@D@2@@std@@H@std@@@2@@std@@A
  0001f	e8 00 00 00 00	 call	 ??3@YAXPAXI@Z		; operator delete
  00024	83 c4 08	 add	 esp, 8
  00027	c3		 ret	 0
??__Fs_emotionDict@?NE@??ServerCommand@CPythonNetworkStream@@QAEXPAD@Z@YAXXZ ENDP ; `CPythonNetworkStream::ServerCommand'::`212'::`dynamic atexit destructor for 's_emotionDict''
text$yd	ENDS
; Function compile flags: /Ogtp
; File E:\Metin2_server\SolWayneSF v6\ClientVS22\source\UserInterface\AbstractSingleton.h
;	COMDAT ?GetSingleton@?$TAbstractSingleton@VIAbstractCharacterManager@@@@SAAAVIAbstractCharacterManager@@XZ
_TEXT	SEGMENT
?GetSingleton@?$TAbstractSingleton@VIAbstractCharacterManager@@@@SAAAVIAbstractCharacterManager@@XZ PROC ; TAbstractSingleton<IAbstractCharacterManager>::GetSingleton, COMDAT

; 24   : 		assert(ms_singleton!=NULL);
; 25   : 		return (*ms_singleton);

  00000	a1 00 00 00 00	 mov	 eax, DWORD PTR ?ms_singleton@?$TAbstractSingleton@VIAbstractCharacterManager@@@@0PAVIAbstractCharacterManager@@A ; TAbstractSingleton<IAbstractCharacterManager>::ms_singleton

; 26   : 	}	

  00005	c3		 ret	 0
?GetSingleton@?$TAbstractSingleton@VIAbstractCharacterManager@@@@SAAAVIAbstractCharacterManager@@XZ ENDP ; TAbstractSingleton<IAbstractCharacterManager>::GetSingleton
_TEXT	ENDS
; Function compile flags: /Ogtp
; File C:\Program Files\Microsoft Visual Studio\2022\Community\VC\Tools\MSVC\14.34.31933\include\vector
;	COMDAT ?empty@?$vector@V?$basic_string@DU?$char_traits@D@std@@V?$allocator@D@2@@std@@V?$allocator@V?$basic_string@DU?$char_traits@D@std@@V?$allocator@D@2@@std@@@2@@std@@QBE_NXZ
_TEXT	SEGMENT
?empty@?$vector@V?$basic_string@DU?$char_traits@D@std@@V?$allocator@D@2@@std@@V?$allocator@V?$basic_string@DU?$char_traits@D@std@@V?$allocator@D@2@@std@@@2@@std@@QBE_NXZ PROC ; std::vector<std::basic_string<char,std::char_traits<char>,std::allocator<char> >,std::allocator<std::basic_string<char,std::char_traits<char>,std::allocator<char> > > >::empty, COMDAT
; _this$ = ecx

; 1926 :         auto& _My_data = _Mypair._Myval2;
; 1927 :         return _My_data._Myfirst == _My_data._Mylast;

  00000	8b 01		 mov	 eax, DWORD PTR [ecx]
  00002	3b 41 04	 cmp	 eax, DWORD PTR [ecx+4]
  00005	0f 94 c0	 sete	 al

; 1928 :     }

  00008	c3		 ret	 0
?empty@?$vector@V?$basic_string@DU?$char_traits@D@std@@V?$allocator@D@2@@std@@V?$allocator@V?$basic_string@DU?$char_traits@D@std@@V?$allocator@D@2@@std@@@2@@std@@QBE_NXZ ENDP ; std::vector<std::basic_string<char,std::char_traits<char>,std::allocator<char> >,std::allocator<std::basic_string<char,std::char_traits<char>,std::allocator<char> > > >::empty
_TEXT	ENDS
; Function compile flags: /Ogtp
; File C:\Program Files\Microsoft Visual Studio\2022\Community\VC\Tools\MSVC\14.34.31933\include\vector
;	COMDAT ?reserve@?$vector@V?$basic_string@DU?$char_traits@D@std@@V?$allocator@D@2@@std@@V?$allocator@V?$basic_string@DU?$char_traits@D@std@@V?$allocator@D@2@@std@@@2@@std@@QAEXI@Z
_TEXT	SEGMENT
__Newcapacity$dead$ = 8					; size = 4
?reserve@?$vector@V?$basic_string@DU?$char_traits@D@std@@V?$allocator@D@2@@std@@V?$allocator@V?$basic_string@DU?$char_traits@D@std@@V?$allocator@D@2@@std@@@2@@std@@QAEXI@Z PROC ; std::vector<std::basic_string<char,std::char_traits<char>,std::allocator<char> >,std::allocator<std::basic_string<char,std::char_traits<char>,std::allocator<char> > > >::reserve, COMDAT
; _this$ = ecx

; 1942 :         return static_cast<size_type>(_My_data._Myend - _My_data._Myfirst);

  00000	8b 41 08	 mov	 eax, DWORD PTR [ecx+8]
  00003	2b 01		 sub	 eax, DWORD PTR [ecx]
  00005	c1 f8 03	 sar	 eax, 3
  00008	69 c0 ab aa aa
	aa		 imul	 eax, eax, -1431655765

; 1742 :         // increase capacity to _Newcapacity (without geometric growth), provide strong guarantee
; 1743 :         if (_Newcapacity > capacity()) { // something to do (reserve() never shrinks)

  0000e	83 f8 0a	 cmp	 eax, 10			; 0000000aH
  00011	73 07		 jae	 SHORT $LN2@reserve

; 1744 :             if (_Newcapacity > max_size()) {
; 1745 :                 _Xlength();
; 1746 :             }
; 1747 : 
; 1748 :             _Reallocate_exactly(_Newcapacity);

  00013	6a 0a		 push	 10			; 0000000aH
  00015	e8 00 00 00 00	 call	 ?_Reallocate_exactly@?$vector@V?$basic_string@DU?$char_traits@D@std@@V?$allocator@D@2@@std@@V?$allocator@V?$basic_string@DU?$char_traits@D@std@@V?$allocator@D@2@@std@@@2@@std@@AAEXI@Z ; std::vector<std::basic_string<char,std::char_traits<char>,std::allocator<char> >,std::allocator<std::basic_string<char,std::char_traits<char>,std::allocator<char> > > >::_Reallocate_exactly
$LN2@reserve:

; 1749 :         }
; 1750 :     }

  0001a	c2 04 00	 ret	 4
?reserve@?$vector@V?$basic_string@DU?$char_traits@D@std@@V?$allocator@D@2@@std@@V?$allocator@V?$basic_string@DU?$char_traits@D@std@@V?$allocator@D@2@@std@@@2@@std@@QAEXI@Z ENDP ; std::vector<std::basic_string<char,std::char_traits<char>,std::allocator<char> >,std::allocator<std::basic_string<char,std::char_traits<char>,std::allocator<char> > > >::reserve
_TEXT	ENDS
; Function compile flags: /Ogtp
; File C:\Program Files\Microsoft Visual Studio\2022\Community\VC\Tools\MSVC\14.34.31933\include\xstring
; File C:\Program Files\Microsoft Visual Studio\2022\Community\VC\Tools\MSVC\14.34.31933\include\utility
; File C:\Program Files\Microsoft Visual Studio\2022\Community\VC\Tools\MSVC\14.34.31933\include\xstring
;	COMDAT ?substr@?$basic_string@DU?$char_traits@D@std@@V?$allocator@D@2@@std@@QGBE?AV12@II@Z
_TEXT	SEGMENT
___$ReturnUdt$ = 8					; size = 4
__Off$ = 12						; size = 4
__Count$ = 16						; size = 4
?substr@?$basic_string@DU?$char_traits@D@std@@V?$allocator@D@2@@std@@QGBE?AV12@II@Z PROC ; std::basic_string<char,std::char_traits<char>,std::allocator<char> >::substr, COMDAT
; _this$ = ecx

; 4736 :     {

  00000	55		 push	 ebp
  00001	8b ec		 mov	 ebp, esp
  00003	51		 push	 ecx
  00004	8b 55 10	 mov	 edx, DWORD PTR __Count$[ebp]
  00007	0f 57 c0	 xorps	 xmm0, xmm0
  0000a	56		 push	 esi

; 2339 :         _CONSTEXPR20 _Bxty() noexcept : _Buf() {} // user-provided, for fancy pointers

  0000b	8b 75 08	 mov	 esi, DWORD PTR ___$ReturnUdt$[ebp]

; 4736 :     {

  0000e	57		 push	 edi

; 2317 :         if (_Mysize < _Off) {

  0000f	8b 7d 0c	 mov	 edi, DWORD PTR __Off$[ebp]

; 2339 :         _CONSTEXPR20 _Bxty() noexcept : _Buf() {} // user-provided, for fancy pointers

  00012	0f 11 06	 movups	 XMMWORD PTR [esi], xmm0

; 2348 :     size_type _Mysize = 0; // current length of string

  00015	c7 46 10 00 00
	00 00		 mov	 DWORD PTR [esi+16], 0

; 2349 :     size_type _Myres  = 0; // current storage reserved for string

  0001c	c7 46 14 00 00
	00 00		 mov	 DWORD PTR [esi+20], 0

; 2317 :         if (_Mysize < _Off) {

  00023	8b 41 10	 mov	 eax, DWORD PTR [ecx+16]
  00026	3b c7		 cmp	 eax, edi
  00028	72 24		 jb	 SHORT $LN31@substr

; 2335 :         return (_STD min)(_Size, _Mysize - _Off);

  0002a	2b c7		 sub	 eax, edi
; File C:\Program Files\Microsoft Visual Studio\2022\Community\VC\Tools\MSVC\14.34.31933\include\utility

; 66   :     return _Right < _Left ? _Right : _Left;

  0002c	3b c2		 cmp	 eax, edx
  0002e	0f 42 d0	 cmovb	 edx, eax
; File C:\Program Files\Microsoft Visual Studio\2022\Community\VC\Tools\MSVC\14.34.31933\include\xstring

; 2301 :         return _BUF_SIZE <= _Myres;

  00031	83 79 14 10	 cmp	 DWORD PTR [ecx+20], 16	; 00000010H

; 2293 :         if (_Large_string_engaged()) {

  00035	72 02		 jb	 SHORT $LN24@substr

; 2294 :             _Result = _Unfancy(_Bx._Ptr);

  00037	8b 09		 mov	 ecx, DWORD PTR [ecx]
$LN24@substr:

; 2645 :         _Construct<_Construct_strategy::_From_ptr>(

  00039	03 cf		 add	 ecx, edi
  0003b	52		 push	 edx
  0003c	51		 push	 ecx
  0003d	8b ce		 mov	 ecx, esi
  0003f	e8 00 00 00 00	 call	 ??$_Construct@$00PBD@?$basic_string@DU?$char_traits@D@std@@V?$allocator@D@2@@std@@AAEXQBDI@Z ; std::basic_string<char,std::char_traits<char>,std::allocator<char> >::_Construct<1,char const *>

; 4737 :         // return [_Off, _Off + _Count) as new string, default-constructing its allocator
; 4738 :         return basic_string{*this, _Off, _Count};

  00044	5f		 pop	 edi
  00045	8b c6		 mov	 eax, esi
  00047	5e		 pop	 esi

; 4739 :     }

  00048	8b e5		 mov	 esp, ebp
  0004a	5d		 pop	 ebp
  0004b	c2 0c 00	 ret	 12			; 0000000cH
$LN31@substr:

; 2318 :             _Xran();

  0004e	e8 00 00 00 00	 call	 ?_Xran@?$_String_val@U?$_Simple_types@D@std@@@std@@SAXXZ ; std::_String_val<std::_Simple_types<char> >::_Xran
$LN29@substr:
  00053	cc		 int	 3
?substr@?$basic_string@DU?$char_traits@D@std@@V?$allocator@D@2@@std@@QGBE?AV12@II@Z ENDP ; std::basic_string<char,std::char_traits<char>,std::allocator<char> >::substr
_TEXT	ENDS
; Function compile flags: /Ogtp
; File C:\Program Files\Microsoft Visual Studio\2022\Community\VC\Tools\MSVC\14.34.31933\include\xstring
;	COMDAT ?find_first_not_of@?$basic_string@DU?$char_traits@D@std@@V?$allocator@D@2@@std@@QBEIQBDI@Z
_TEXT	SEGMENT
__Ptr$ = 8						; size = 4
__Off$ = 12						; size = 4
?find_first_not_of@?$basic_string@DU?$char_traits@D@std@@V?$allocator@D@2@@std@@QBEIQBDI@Z PROC ; std::basic_string<char,std::char_traits<char>,std::allocator<char> >::find_first_not_of, COMDAT
; _this$ = ecx

; 4673 :         _In_z_ const _Elem* const _Ptr, size_type _Off = 0) const noexcept /* strengthened */ {

  00000	55		 push	 ebp
  00001	8b ec		 mov	 ebp, esp

; 415  :             return __builtin_strlen(_First);

  00003	8b 45 08	 mov	 eax, DWORD PTR __Ptr$[ebp]

; 4673 :         _In_z_ const _Elem* const _Ptr, size_type _Off = 0) const noexcept /* strengthened */ {

  00006	56		 push	 esi
  00007	8b f1		 mov	 esi, ecx

; 415  :             return __builtin_strlen(_First);

  00009	8d 50 01	 lea	 edx, DWORD PTR [eax+1]
  0000c	0f 1f 40 00	 npad	 4
$LL36@find_first:
  00010	8a 08		 mov	 cl, BYTE PTR [eax]
  00012	40		 inc	 eax
  00013	84 c9		 test	 cl, cl
  00015	75 f9		 jne	 SHORT $LL36@find_first
  00017	2b c2		 sub	 eax, edx

; 2301 :         return _BUF_SIZE <= _Myres;

  00019	83 7e 14 10	 cmp	 DWORD PTR [esi+20], 16	; 00000010H

; 4674 :         // look for one of [_Ptr, <null>) at or after _Off
; 4675 :         return static_cast<size_type>(_Traits_find_first_not_of<_Traits>(

  0001d	8b 56 10	 mov	 edx, DWORD PTR [esi+16]

; 2293 :         if (_Large_string_engaged()) {

  00020	72 02		 jb	 SHORT $LN6@find_first

; 2294 :             _Result = _Unfancy(_Bx._Ptr);

  00022	8b 36		 mov	 esi, DWORD PTR [esi]
$LN6@find_first:

; 4674 :         // look for one of [_Ptr, <null>) at or after _Off
; 4675 :         return static_cast<size_type>(_Traits_find_first_not_of<_Traits>(

  00024	50		 push	 eax
  00025	ff 75 08	 push	 DWORD PTR __Ptr$[ebp]
  00028	8b ce		 mov	 ecx, esi
  0002a	ff 75 0c	 push	 DWORD PTR __Off$[ebp]
  0002d	e8 00 00 00 00	 call	 ??$_Traits_find_first_not_of@U?$char_traits@D@std@@$00@std@@YAIQBDII0I@Z ; std::_Traits_find_first_not_of<std::char_traits<char>,1>
  00032	83 c4 0c	 add	 esp, 12			; 0000000cH

; 4676 :             _Mypair._Myval2._Myptr(), _Mypair._Myval2._Mysize, _Off, _Ptr, _Traits::length(_Ptr)));
; 4677 :     }

  00035	5e		 pop	 esi
  00036	5d		 pop	 ebp
  00037	c2 08 00	 ret	 8
?find_first_not_of@?$basic_string@DU?$char_traits@D@std@@V?$allocator@D@2@@std@@QBEIQBDI@Z ENDP ; std::basic_string<char,std::char_traits<char>,std::allocator<char> >::find_first_not_of
_TEXT	ENDS
; Function compile flags: /Ogtp
; File C:\Program Files\Microsoft Visual Studio\2022\Community\VC\Tools\MSVC\14.34.31933\include\vector
; File C:\Program Files\Microsoft Visual Studio\2022\Community\VC\Tools\MSVC\14.34.31933\include\xmemory
; File C:\Program Files\Microsoft Visual Studio\2022\Community\VC\Tools\MSVC\14.34.31933\include\vector
; File C:\Program Files\Microsoft Visual Studio\2022\Community\VC\Tools\MSVC\14.34.31933\include\xmemory
; File C:\Program Files\Microsoft Visual Studio\2022\Community\VC\Tools\MSVC\14.34.31933\include\vector
; File C:\Program Files\Microsoft Visual Studio\2022\Community\VC\Tools\MSVC\14.34.31933\include\xmemory
; File C:\Program Files\Microsoft Visual Studio\2022\Community\VC\Tools\MSVC\14.34.31933\include\vector
;	COMDAT ?_Reallocate_exactly@?$vector@V?$basic_string@DU?$char_traits@D@std@@V?$allocator@D@2@@std@@V?$allocator@V?$basic_string@DU?$char_traits@D@std@@V?$allocator@D@2@@std@@@2@@std@@AAEXI@Z
_TEXT	SEGMENT
__Size$1$ = -4						; size = 4
__Newcapacity$ = 8					; size = 4
?_Reallocate_exactly@?$vector@V?$basic_string@DU?$char_traits@D@std@@V?$allocator@D@2@@std@@V?$allocator@V?$basic_string@DU?$char_traits@D@std@@V?$allocator@D@2@@std@@@2@@std@@AAEXI@Z PROC ; std::vector<std::basic_string<char,std::char_traits<char>,std::allocator<char> >,std::allocator<std::basic_string<char,std::char_traits<char>,std::allocator<char> > > >::_Reallocate_exactly, COMDAT
; _this$ = ecx

; 1664 :     _CONSTEXPR20 void _Reallocate_exactly(const size_type _Newcapacity) {

  00000	55		 push	 ebp
  00001	8b ec		 mov	 ebp, esp
  00003	51		 push	 ecx
  00004	53		 push	 ebx
; File C:\Program Files\Microsoft Visual Studio\2022\Community\VC\Tools\MSVC\14.34.31933\include\xmemory

; 60   :         if (_Count > _Max_possible) {

  00005	8b 5d 08	 mov	 ebx, DWORD PTR __Newcapacity$[ebp]
; File C:\Program Files\Microsoft Visual Studio\2022\Community\VC\Tools\MSVC\14.34.31933\include\vector

; 1664 :     _CONSTEXPR20 void _Reallocate_exactly(const size_type _Newcapacity) {

  00008	56		 push	 esi
  00009	57		 push	 edi
  0000a	8b f9		 mov	 edi, ecx

; 1665 :         // set capacity to _Newcapacity (without geometric growth), provide strong guarantee
; 1666 :         auto& _Al         = _Getal();
; 1667 :         auto& _My_data    = _Mypair._Myval2;
; 1668 :         pointer& _Myfirst = _My_data._Myfirst;
; 1669 :         pointer& _Mylast  = _My_data._Mylast;
; 1670 : 
; 1671 :         const auto _Size = static_cast<size_type>(_Mylast - _Myfirst);

  0000c	8b 47 04	 mov	 eax, DWORD PTR [edi+4]
  0000f	2b 07		 sub	 eax, DWORD PTR [edi]
  00011	c1 f8 03	 sar	 eax, 3
  00014	69 c0 ab aa aa
	aa		 imul	 eax, eax, -1431655765
  0001a	89 45 fc	 mov	 DWORD PTR __Size$1$[ebp], eax
; File C:\Program Files\Microsoft Visual Studio\2022\Community\VC\Tools\MSVC\14.34.31933\include\xmemory

; 60   :         if (_Count > _Max_possible) {

  0001d	81 fb aa aa aa
	0a		 cmp	 ebx, 178956970		; 0aaaaaaaH
  00023	77 51		 ja	 SHORT $LN24@Reallocate

; 62   :         }
; 63   :     }
; 64   : 
; 65   :     return _Count * _Ty_size;

  00025	8d 04 5b	 lea	 eax, DWORD PTR [ebx+ebx*2]
  00028	c1 e0 03	 shl	 eax, 3

; 228  :         if (_Bytes >= _Big_allocation_threshold) { // boost the alignment of big allocations to help autovectorization

  0002b	3d 00 10 00 00	 cmp	 eax, 4096		; 00001000H
  00030	72 0d		 jb	 SHORT $LN16@Reallocate

; 229  :             return _Allocate_manually_vector_aligned<_Traits>(_Bytes);

  00032	50		 push	 eax
  00033	e8 00 00 00 00	 call	 ??$_Allocate_manually_vector_aligned@U_Default_allocate_traits@std@@@std@@YAPAXI@Z ; std::_Allocate_manually_vector_aligned<std::_Default_allocate_traits>
  00038	83 c4 04	 add	 esp, 4
  0003b	8b f0		 mov	 esi, eax
  0003d	eb 13		 jmp	 SHORT $LN14@Reallocate
$LN16@Reallocate:

; 230  :         }
; 231  :     }
; 232  : #endif // defined(_M_IX86) || defined(_M_X64)
; 233  : 
; 234  :     if (_Bytes != 0) {

  0003f	85 c0		 test	 eax, eax
  00041	74 0d		 je	 SHORT $LN17@Reallocate

; 77   :         return ::operator new(_Bytes);

  00043	50		 push	 eax
  00044	e8 00 00 00 00	 call	 ??2@YAPAXI@Z		; operator new
  00049	83 c4 04	 add	 esp, 4

; 235  :         return _Traits::_Allocate(_Bytes);

  0004c	8b f0		 mov	 esi, eax
  0004e	eb 02		 jmp	 SHORT $LN14@Reallocate
$LN17@Reallocate:

; 236  :     }
; 237  : 
; 238  :     return nullptr;

  00050	33 f6		 xor	 esi, esi
$LN14@Reallocate:
; File C:\Program Files\Microsoft Visual Studio\2022\Community\VC\Tools\MSVC\14.34.31933\include\vector

; 1677 :             _Uninitialized_move(_Myfirst, _Mylast, _Newvec, _Al);

  00052	57		 push	 edi
  00053	56		 push	 esi
  00054	ff 77 04	 push	 DWORD PTR [edi+4]
  00057	ff 37		 push	 DWORD PTR [edi]
  00059	e8 00 00 00 00	 call	 ??$_Uninitialized_move@PAV?$basic_string@DU?$char_traits@D@std@@V?$allocator@D@2@@std@@V?$allocator@V?$basic_string@DU?$char_traits@D@std@@V?$allocator@D@2@@std@@@2@@std@@YAPAV?$basic_string@DU?$char_traits@D@std@@V?$allocator@D@2@@0@QAV10@0PAV10@AAV?$allocator@V?$basic_string@DU?$char_traits@D@std@@V?$allocator@D@2@@std@@@0@@Z ; std::_Uninitialized_move<std::basic_string<char,std::char_traits<char>,std::allocator<char> > *,std::allocator<std::basic_string<char,std::char_traits<char>,std::allocator<char> > > >
  0005e	83 c4 10	 add	 esp, 16			; 00000010H

; 1678 :         } else {
; 1679 :             _Uninitialized_copy(_Myfirst, _Mylast, _Newvec, _Al);
; 1680 :         }
; 1681 :         _CATCH_ALL
; 1682 :         _Al.deallocate(_Newvec, _Newcapacity);
; 1683 :         _RERAISE;
; 1684 :         _CATCH_END
; 1685 : 
; 1686 :         _Change_array(_Newvec, _Size, _Newcapacity);

  00061	8b cf		 mov	 ecx, edi
  00063	53		 push	 ebx
  00064	ff 75 fc	 push	 DWORD PTR __Size$1$[ebp]
  00067	56		 push	 esi
  00068	e8 00 00 00 00	 call	 ?_Change_array@?$vector@V?$basic_string@DU?$char_traits@D@std@@V?$allocator@D@2@@std@@V?$allocator@V?$basic_string@DU?$char_traits@D@std@@V?$allocator@D@2@@std@@@2@@std@@AAEXQAV?$basic_string@DU?$char_traits@D@std@@V?$allocator@D@2@@2@II@Z ; std::vector<std::basic_string<char,std::char_traits<char>,std::allocator<char> >,std::allocator<std::basic_string<char,std::char_traits<char>,std::allocator<char> > > >::_Change_array
  0006d	5f		 pop	 edi
  0006e	5e		 pop	 esi
  0006f	5b		 pop	 ebx

; 1687 :     }

  00070	8b e5		 mov	 esp, ebp
  00072	5d		 pop	 ebp
  00073	c2 04 00	 ret	 4
$LN24@Reallocate:
; File C:\Program Files\Microsoft Visual Studio\2022\Community\VC\Tools\MSVC\14.34.31933\include\xmemory

; 61   :             _Throw_bad_array_new_length(); // multiply overflow

  00076	e8 00 00 00 00	 call	 ?_Throw_bad_array_new_length@std@@YAXXZ ; std::_Throw_bad_array_new_length
$LN22@Reallocate:
  0007b	cc		 int	 3
?_Reallocate_exactly@?$vector@V?$basic_string@DU?$char_traits@D@std@@V?$allocator@D@2@@std@@V?$allocator@V?$basic_string@DU?$char_traits@D@std@@V?$allocator@D@2@@std@@@2@@std@@AAEXI@Z ENDP ; std::vector<std::basic_string<char,std::char_traits<char>,std::allocator<char> >,std::allocator<std::basic_string<char,std::char_traits<char>,std::allocator<char> > > >::_Reallocate_exactly
_TEXT	ENDS
; Function compile flags: /Ogtp
; File C:\Program Files\Microsoft Visual Studio\2022\Community\VC\Tools\MSVC\14.34.31933\include\xstring
;	COMDAT ??$_Traits_find_first_not_of@U?$char_traits@D@std@@$00@std@@YAIQBDII0I@Z
_TEXT	SEGMENT
__Matches$1 = -264					; size = 256
__$ArrayPad$ = -4					; size = 4
__Start_at$ = 8						; size = 4
__Needle$ = 12						; size = 4
__Needle_size$ = 16					; size = 4
??$_Traits_find_first_not_of@U?$char_traits@D@std@@$00@std@@YAIQBDII0I@Z PROC ; std::_Traits_find_first_not_of<std::char_traits<char>,1>, COMDAT
; __Haystack$ = ecx
; __Hay_size$ = edx

; 834  :     const size_t _Needle_size) noexcept {

  00000	55		 push	 ebp
  00001	8b ec		 mov	 ebp, esp
  00003	83 e4 f8	 and	 esp, -8			; fffffff8H
  00006	81 ec 0c 01 00
	00		 sub	 esp, 268		; 0000010cH
  0000c	a1 00 00 00 00	 mov	 eax, DWORD PTR ___security_cookie
  00011	33 c4		 xor	 eax, esp
  00013	89 84 24 08 01
	00 00		 mov	 DWORD PTR __$ArrayPad$[esp+268], eax
  0001a	53		 push	 ebx
  0001b	56		 push	 esi
  0001c	8b 75 0c	 mov	 esi, DWORD PTR __Needle$[ebp]
  0001f	8b da		 mov	 ebx, edx
  00021	57		 push	 edi
  00022	8b f9		 mov	 edi, ecx

; 835  :     // in [_Haystack, _Haystack + _Hay_size), look for none of [_Needle, _Needle + _Needle_size), at/after _Start_at
; 836  :     if (_Start_at < _Hay_size) { // room for match, look for it

  00024	39 5d 08	 cmp	 DWORD PTR __Start_at$[ebp], ebx
  00027	73 46		 jae	 SHORT $LN3@Traits_fin

; 837  :         if constexpr (_Special) {
; 838  :             _String_bitmap<typename _Traits::char_type> _Matches;
; 839  :             if (!_Matches._Mark(_Needle, _Needle + _Needle_size)) { // couldn't put one of the characters into the

  00029	68 00 01 00 00	 push	 256			; 00000100H
  0002e	8d 44 24 14	 lea	 eax, DWORD PTR __Matches$1[esp+284]
  00032	6a 00		 push	 0
  00034	50		 push	 eax
  00035	e8 00 00 00 00	 call	 _memset
  0003a	8b 4d 10	 mov	 ecx, DWORD PTR __Needle_size$[ebp]
  0003d	83 c4 0c	 add	 esp, 12			; 0000000cH
  00040	03 ce		 add	 ecx, esi

; 716  :         for (; _First != _Last; ++_First) {

  00042	3b f1		 cmp	 esi, ecx
  00044	74 0d		 je	 SHORT $LN15@Traits_fin
$LL16@Traits_fin:

; 717  :             _Matches[static_cast<unsigned char>(*_First)] = true;

  00046	0f b6 06	 movzx	 eax, BYTE PTR [esi]
  00049	46		 inc	 esi
  0004a	c6 44 04 10 01	 mov	 BYTE PTR __Matches$1[esp+eax+280], 1
  0004f	3b f1		 cmp	 esi, ecx
  00051	75 f3		 jne	 SHORT $LL16@Traits_fin
$LN15@Traits_fin:

; 840  :                                                                     // bitmap, fall back to the serial algorithm
; 841  :                 return _Traits_find_first_not_of<_Traits, false>(
; 842  :                     _Haystack, _Hay_size, _Start_at, _Needle, _Needle_size);
; 843  :             }
; 844  : 
; 845  :             const auto _End = _Haystack + _Hay_size;
; 846  :             for (auto _Match_try = _Haystack + _Start_at; _Match_try < _End; ++_Match_try) {

  00053	8b 45 08	 mov	 eax, DWORD PTR __Start_at$[ebp]
  00056	8d 14 1f	 lea	 edx, DWORD PTR [edi+ebx]
  00059	03 c7		 add	 eax, edi
  0005b	3b c2		 cmp	 eax, edx
  0005d	73 10		 jae	 SHORT $LN3@Traits_fin
  0005f	90		 npad	 1
$LL4@Traits_fin:

; 724  :         return _Matches[static_cast<unsigned char>(_Ch)];

  00060	0f b6 08	 movzx	 ecx, BYTE PTR [eax]

; 847  :                 if (!_Matches._Match(*_Match_try)) {

  00063	80 7c 0c 10 00	 cmp	 BYTE PTR __Matches$1[esp+ecx+280], 0
  00068	74 1d		 je	 SHORT $LN31@Traits_fin

; 840  :                                                                     // bitmap, fall back to the serial algorithm
; 841  :                 return _Traits_find_first_not_of<_Traits, false>(
; 842  :                     _Haystack, _Hay_size, _Start_at, _Needle, _Needle_size);
; 843  :             }
; 844  : 
; 845  :             const auto _End = _Haystack + _Hay_size;
; 846  :             for (auto _Match_try = _Haystack + _Start_at; _Match_try < _End; ++_Match_try) {

  0006a	40		 inc	 eax
  0006b	3b c2		 cmp	 eax, edx
  0006d	72 f1		 jb	 SHORT $LL4@Traits_fin
$LN3@Traits_fin:

; 848  :                     return static_cast<size_t>(_Match_try - _Haystack); // found a match
; 849  :                 }
; 850  :             }
; 851  :         } else {
; 852  :             const auto _End = _Haystack + _Hay_size;
; 853  :             for (auto _Match_try = _Haystack + _Start_at; _Match_try < _End; ++_Match_try) {
; 854  :                 if (!_Traits::find(_Needle, _Needle_size, *_Match_try)) {
; 855  :                     return static_cast<size_t>(_Match_try - _Haystack); // found a match
; 856  :                 }
; 857  :             }
; 858  :         }
; 859  :     }
; 860  : 
; 861  :     return static_cast<size_t>(-1); // no match

  0006f	83 c8 ff	 or	 eax, -1

; 862  : }

  00072	5f		 pop	 edi
  00073	5e		 pop	 esi
  00074	5b		 pop	 ebx
  00075	8b 8c 24 08 01
	00 00		 mov	 ecx, DWORD PTR __$ArrayPad$[esp+268]
  0007c	33 cc		 xor	 ecx, esp
  0007e	e8 00 00 00 00	 call	 @__security_check_cookie@4
  00083	8b e5		 mov	 esp, ebp
  00085	5d		 pop	 ebp
  00086	c3		 ret	 0
$LN31@Traits_fin:
  00087	8b 8c 24 14 01
	00 00		 mov	 ecx, DWORD PTR __$ArrayPad$[esp+280]
  0008e	2b c7		 sub	 eax, edi
  00090	5f		 pop	 edi
  00091	5e		 pop	 esi
  00092	5b		 pop	 ebx
  00093	33 cc		 xor	 ecx, esp
  00095	e8 00 00 00 00	 call	 @__security_check_cookie@4
  0009a	8b e5		 mov	 esp, ebp
  0009c	5d		 pop	 ebp
  0009d	c3		 ret	 0
??$_Traits_find_first_not_of@U?$char_traits@D@std@@$00@std@@YAIQBDII0I@Z ENDP ; std::_Traits_find_first_not_of<std::char_traits<char>,1>
_TEXT	ENDS
; Function compile flags: /Ogtp
; File C:\Program Files\Microsoft Visual Studio\2022\Community\VC\Tools\MSVC\14.34.31933\include\xstring
;	COMDAT ??$_Traits_find_first_not_of@U?$char_traits@D@std@@$0A@@std@@YAIQBDII0I@Z
_TEXT	SEGMENT
__Haystack$1$ = -4					; size = 4
__Start_at$ = 8						; size = 4
__Needle$ = 12						; size = 4
__Needle_size$ = 16					; size = 4
??$_Traits_find_first_not_of@U?$char_traits@D@std@@$0A@@std@@YAIQBDII0I@Z PROC ; std::_Traits_find_first_not_of<std::char_traits<char>,0>, COMDAT
; __Haystack$ = ecx
; __Hay_size$ = edx

; 834  :     const size_t _Needle_size) noexcept {

  00000	55		 push	 ebp
  00001	8b ec		 mov	 ebp, esp
  00003	51		 push	 ecx

; 835  :     // in [_Haystack, _Haystack + _Hay_size), look for none of [_Needle, _Needle + _Needle_size), at/after _Start_at
; 836  :     if (_Start_at < _Hay_size) { // room for match, look for it

  00004	8b 45 08	 mov	 eax, DWORD PTR __Start_at$[ebp]
  00007	89 4d fc	 mov	 DWORD PTR __Haystack$1$[ebp], ecx
  0000a	53		 push	 ebx
  0000b	56		 push	 esi
  0000c	57		 push	 edi
  0000d	3b c2		 cmp	 eax, edx
  0000f	73 28		 jae	 SHORT $LN3@Traits_fin

; 837  :         if constexpr (_Special) {
; 838  :             _String_bitmap<typename _Traits::char_type> _Matches;
; 839  :             if (!_Matches._Mark(_Needle, _Needle + _Needle_size)) { // couldn't put one of the characters into the
; 840  :                                                                     // bitmap, fall back to the serial algorithm
; 841  :                 return _Traits_find_first_not_of<_Traits, false>(
; 842  :                     _Haystack, _Hay_size, _Start_at, _Needle, _Needle_size);
; 843  :             }
; 844  : 
; 845  :             const auto _End = _Haystack + _Hay_size;
; 846  :             for (auto _Match_try = _Haystack + _Start_at; _Match_try < _End; ++_Match_try) {
; 847  :                 if (!_Matches._Match(*_Match_try)) {
; 848  :                     return static_cast<size_t>(_Match_try - _Haystack); // found a match
; 849  :                 }
; 850  :             }
; 851  :         } else {
; 852  :             const auto _End = _Haystack + _Hay_size;

  00011	8d 3c 11	 lea	 edi, DWORD PTR [ecx+edx]

; 853  :             for (auto _Match_try = _Haystack + _Start_at; _Match_try < _End; ++_Match_try) {

  00014	8d 34 01	 lea	 esi, DWORD PTR [ecx+eax]
  00017	3b f7		 cmp	 esi, edi
  00019	73 1e		 jae	 SHORT $LN3@Traits_fin
  0001b	8b 5d 10	 mov	 ebx, DWORD PTR __Needle_size$[ebp]
  0001e	66 90		 npad	 2
$LL4@Traits_fin:

; 436  :             return __builtin_char_memchr(_First, _Ch, _Count);

  00020	0f be 06	 movsx	 eax, BYTE PTR [esi]
  00023	53		 push	 ebx
  00024	50		 push	 eax
  00025	ff 75 0c	 push	 DWORD PTR __Needle$[ebp]
  00028	e8 00 00 00 00	 call	 _memchr
  0002d	83 c4 0c	 add	 esp, 12			; 0000000cH

; 854  :                 if (!_Traits::find(_Needle, _Needle_size, *_Match_try)) {

  00030	85 c0		 test	 eax, eax
  00032	74 0f		 je	 SHORT $LN11@Traits_fin

; 853  :             for (auto _Match_try = _Haystack + _Start_at; _Match_try < _End; ++_Match_try) {

  00034	46		 inc	 esi
  00035	3b f7		 cmp	 esi, edi
  00037	72 e7		 jb	 SHORT $LL4@Traits_fin
$LN3@Traits_fin:
  00039	5f		 pop	 edi

; 856  :                 }
; 857  :             }
; 858  :         }
; 859  :     }
; 860  : 
; 861  :     return static_cast<size_t>(-1); // no match
; 862  : }

  0003a	5e		 pop	 esi
  0003b	83 c8 ff	 or	 eax, -1
  0003e	5b		 pop	 ebx
  0003f	8b e5		 mov	 esp, ebp
  00041	5d		 pop	 ebp
  00042	c3		 ret	 0
$LN11@Traits_fin:

; 855  :                     return static_cast<size_t>(_Match_try - _Haystack); // found a match

  00043	2b 75 fc	 sub	 esi, DWORD PTR __Haystack$1$[ebp]
  00046	5f		 pop	 edi
  00047	8b c6		 mov	 eax, esi

; 856  :                 }
; 857  :             }
; 858  :         }
; 859  :     }
; 860  : 
; 861  :     return static_cast<size_t>(-1); // no match
; 862  : }

  00049	5e		 pop	 esi
  0004a	5b		 pop	 ebx
  0004b	8b e5		 mov	 esp, ebp
  0004d	5d		 pop	 ebp
  0004e	c3		 ret	 0
??$_Traits_find_first_not_of@U?$char_traits@D@std@@$0A@@std@@YAIQBDII0I@Z ENDP ; std::_Traits_find_first_not_of<std::char_traits<char>,0>
_TEXT	ENDS
; Function compile flags: /Ogtp
; File C:\Program Files\Microsoft Visual Studio\2022\Community\VC\Tools\MSVC\14.34.31933\include\type_traits
;	COMDAT ??$forward@ABV?$allocator@D@std@@@std@@YAABV?$allocator@D@0@ABV10@@Z
_TEXT	SEGMENT
??$forward@ABV?$allocator@D@std@@@std@@YAABV?$allocator@D@0@ABV10@@Z PROC ; std::forward<std::allocator<char> const &>, COMDAT
; __Arg$ = ecx

; 1426 :     return static_cast<_Ty&&>(_Arg);

  00000	8b c1		 mov	 eax, ecx

; 1427 : }

  00002	c3		 ret	 0
??$forward@ABV?$allocator@D@std@@@std@@YAABV?$allocator@D@0@ABV10@@Z ENDP ; std::forward<std::allocator<char> const &>
_TEXT	ENDS
; Function compile flags: /Ogtp
; File C:\Program Files\Microsoft Visual Studio\2022\Community\VC\Tools\MSVC\14.34.31933\include\xmemory
; File C:\Program Files\Microsoft Visual Studio\2022\Community\VC\Tools\MSVC\14.34.31933\include\xstring
; File C:\Program Files\Microsoft Visual Studio\2022\Community\VC\Tools\MSVC\14.34.31933\include\xmemory
;	COMDAT ??$?0ABV?$allocator@D@std@@$$V@?$_Compressed_pair@V?$allocator@D@std@@V?$_String_val@U?$_Simple_types@D@std@@@2@$00@std@@QAE@U_One_then_variadic_args_t@1@ABV?$allocator@D@1@@Z
_TEXT	SEGMENT
___formal$ = 8						; size = 1
__Val1$dead$ = 12					; size = 4
??$?0ABV?$allocator@D@std@@$$V@?$_Compressed_pair@V?$allocator@D@std@@V?$_String_val@U?$_Simple_types@D@std@@@2@$00@std@@QAE@U_One_then_variadic_args_t@1@ABV?$allocator@D@1@@Z PROC ; std::_Compressed_pair<std::allocator<char>,std::_String_val<std::_Simple_types<char> >,1>::_Compressed_pair<std::allocator<char>,std::_String_val<std::_Simple_types<char> >,1><std::allocator<char> const &>, COMDAT
; _this$ = ecx

; 1381 :         : _Ty1(_STD forward<_Other1>(_Val1)), _Myval2(_STD forward<_Other2>(_Val2)...) {}

  00000	0f 57 c0	 xorps	 xmm0, xmm0
  00003	8b c1		 mov	 eax, ecx
; File C:\Program Files\Microsoft Visual Studio\2022\Community\VC\Tools\MSVC\14.34.31933\include\xstring

; 2339 :         _CONSTEXPR20 _Bxty() noexcept : _Buf() {} // user-provided, for fancy pointers

  00005	0f 11 01	 movups	 XMMWORD PTR [ecx], xmm0

; 2348 :     size_type _Mysize = 0; // current length of string

  00008	c7 41 10 00 00
	00 00		 mov	 DWORD PTR [ecx+16], 0

; 2349 :     size_type _Myres  = 0; // current storage reserved for string

  0000f	c7 41 14 00 00
	00 00		 mov	 DWORD PTR [ecx+20], 0
; File C:\Program Files\Microsoft Visual Studio\2022\Community\VC\Tools\MSVC\14.34.31933\include\xmemory

; 1381 :         : _Ty1(_STD forward<_Other1>(_Val1)), _Myval2(_STD forward<_Other2>(_Val2)...) {}

  00016	c2 08 00	 ret	 8
??$?0ABV?$allocator@D@std@@$$V@?$_Compressed_pair@V?$allocator@D@std@@V?$_String_val@U?$_Simple_types@D@std@@@2@$00@std@@QAE@U_One_then_variadic_args_t@1@ABV?$allocator@D@1@@Z ENDP ; std::_Compressed_pair<std::allocator<char>,std::_String_val<std::_Simple_types<char> >,1>::_Compressed_pair<std::allocator<char>,std::_String_val<std::_Simple_types<char> >,1><std::allocator<char> const &>
_TEXT	ENDS
; Function compile flags: /Ogtp
; File C:\Program Files\Microsoft Visual Studio\2022\Community\VC\Tools\MSVC\14.34.31933\include\xstring
;	COMDAT ?_Xran@?$_String_val@U?$_Simple_types@D@std@@@std@@SAXXZ
_TEXT	SEGMENT
?_Xran@?$_String_val@U?$_Simple_types@D@std@@@std@@SAXXZ PROC ; std::_String_val<std::_Simple_types<char> >::_Xran, COMDAT

; 2330 :         _Xout_of_range("invalid string position");

  00000	68 00 00 00 00	 push	 OFFSET ??_C@_0BI@CFPLBAOH@invalid?5string?5position@
  00005	e8 00 00 00 00	 call	 ?_Xout_of_range@std@@YAXPBD@Z ; std::_Xout_of_range
$LN3@Xran:
  0000a	cc		 int	 3
?_Xran@?$_String_val@U?$_Simple_types@D@std@@@std@@SAXXZ ENDP ; std::_String_val<std::_Simple_types<char> >::_Xran
_TEXT	ENDS
; Function compile flags: /Ogtp
; File C:\Program Files\Microsoft Visual Studio\2022\Community\VC\Tools\MSVC\14.34.31933\include\xstring
;	COMDAT ?_Check_offset@?$_String_val@U?$_Simple_types@D@std@@@std@@QBEXI@Z
_TEXT	SEGMENT
__Off$ = 8						; size = 4
?_Check_offset@?$_String_val@U?$_Simple_types@D@std@@@std@@QBEXI@Z PROC ; std::_String_val<std::_Simple_types<char> >::_Check_offset, COMDAT
; _this$ = ecx

; 2315 :     _CONSTEXPR20 void _Check_offset(const size_type _Off) const {

  00000	55		 push	 ebp
  00001	8b ec		 mov	 ebp, esp

; 2316 :         // checks whether _Off is in the bounds of [0, size()]
; 2317 :         if (_Mysize < _Off) {

  00003	8b 41 10	 mov	 eax, DWORD PTR [ecx+16]
  00006	3b 45 08	 cmp	 eax, DWORD PTR __Off$[ebp]
  00009	72 04		 jb	 SHORT $LN6@Check_offs

; 2319 :         }
; 2320 :     }

  0000b	5d		 pop	 ebp
  0000c	c2 04 00	 ret	 4
$LN6@Check_offs:

; 2318 :             _Xran();

  0000f	e8 00 00 00 00	 call	 ?_Xran@?$_String_val@U?$_Simple_types@D@std@@@std@@SAXXZ ; std::_String_val<std::_Simple_types<char> >::_Xran
$LN4@Check_offs:
  00014	cc		 int	 3
?_Check_offset@?$_String_val@U?$_Simple_types@D@std@@@std@@QBEXI@Z ENDP ; std::_String_val<std::_Simple_types<char> >::_Check_offset
_TEXT	ENDS
; Function compile flags: /Ogtp
; File C:\Program Files\Microsoft Visual Studio\2022\Community\VC\Tools\MSVC\14.34.31933\include\xstring
; File C:\Program Files\Microsoft Visual Studio\2022\Community\VC\Tools\MSVC\14.34.31933\include\utility
; File C:\Program Files\Microsoft Visual Studio\2022\Community\VC\Tools\MSVC\14.34.31933\include\xstring
;	COMDAT ?_Clamp_suffix_size@?$_String_val@U?$_Simple_types@D@std@@@std@@QBEIII@Z
_TEXT	SEGMENT
__Off$ = 8						; size = 4
__Size$ = 12						; size = 4
?_Clamp_suffix_size@?$_String_val@U?$_Simple_types@D@std@@@std@@QBEIII@Z PROC ; std::_String_val<std::_Simple_types<char> >::_Clamp_suffix_size, COMDAT
; _this$ = ecx

; 2333 :     _CONSTEXPR20 size_type _Clamp_suffix_size(const size_type _Off, const size_type _Size) const noexcept {

  00000	55		 push	 ebp
  00001	8b ec		 mov	 ebp, esp

; 2334 :         // trims _Size to the longest it can be assuming a string at/after _Off
; 2335 :         return (_STD min)(_Size, _Mysize - _Off);

  00003	8b 49 10	 mov	 ecx, DWORD PTR [ecx+16]
  00006	2b 4d 08	 sub	 ecx, DWORD PTR __Off$[ebp]
; File C:\Program Files\Microsoft Visual Studio\2022\Community\VC\Tools\MSVC\14.34.31933\include\utility

; 66   :     return _Right < _Left ? _Right : _Left;

  00009	8b 45 0c	 mov	 eax, DWORD PTR __Size$[ebp]
  0000c	3b c8		 cmp	 ecx, eax
  0000e	0f 42 c1	 cmovb	 eax, ecx
; File C:\Program Files\Microsoft Visual Studio\2022\Community\VC\Tools\MSVC\14.34.31933\include\xstring

; 2336 :     }

  00011	5d		 pop	 ebp
  00012	c2 08 00	 ret	 8
?_Clamp_suffix_size@?$_String_val@U?$_Simple_types@D@std@@@std@@QBEIII@Z ENDP ; std::_String_val<std::_Simple_types<char> >::_Clamp_suffix_size
_TEXT	ENDS
; Function compile flags: /Ogtp
; File C:\Program Files\Microsoft Visual Studio\2022\Community\VC\Tools\MSVC\14.34.31933\include\xstring
; File C:\Program Files\Microsoft Visual Studio\2022\Community\VC\Tools\MSVC\14.34.31933\include\utility
; File C:\Program Files\Microsoft Visual Studio\2022\Community\VC\Tools\MSVC\14.34.31933\include\xstring
;	COMDAT ??0?$basic_string@DU?$char_traits@D@std@@V?$allocator@D@2@@std@@QAE@ABV01@IIABV?$allocator@D@1@@Z
_TEXT	SEGMENT
__Right$ = 8						; size = 4
__Roff$ = 12						; size = 4
__Count$ = 16						; size = 4
__Al$dead$ = 20						; size = 4
??0?$basic_string@DU?$char_traits@D@std@@V?$allocator@D@2@@std@@QAE@ABV01@IIABV?$allocator@D@1@@Z PROC ; std::basic_string<char,std::char_traits<char>,std::allocator<char> >::basic_string<char,std::char_traits<char>,std::allocator<char> >, COMDAT
; _this$ = ecx

; 2643 :         : _Mypair(_One_then_variadic_args_t{}, _Al) { // construct from _Right [_Roff, _Roff + _Count)

  00000	55		 push	 ebp
  00001	8b ec		 mov	 ebp, esp

; 2317 :         if (_Mysize < _Off) {

  00003	8b 45 08	 mov	 eax, DWORD PTR __Right$[ebp]
  00006	0f 57 c0	 xorps	 xmm0, xmm0

; 2643 :         : _Mypair(_One_then_variadic_args_t{}, _Al) { // construct from _Right [_Roff, _Roff + _Count)

  00009	8b 55 10	 mov	 edx, DWORD PTR __Count$[ebp]
  0000c	56		 push	 esi
  0000d	8b f1		 mov	 esi, ecx
  0000f	57		 push	 edi

; 2317 :         if (_Mysize < _Off) {

  00010	8b 7d 0c	 mov	 edi, DWORD PTR __Roff$[ebp]

; 2339 :         _CONSTEXPR20 _Bxty() noexcept : _Buf() {} // user-provided, for fancy pointers

  00013	0f 11 06	 movups	 XMMWORD PTR [esi], xmm0

; 2348 :     size_type _Mysize = 0; // current length of string

  00016	c7 46 10 00 00
	00 00		 mov	 DWORD PTR [esi+16], 0

; 2349 :     size_type _Myres  = 0; // current storage reserved for string

  0001d	c7 46 14 00 00
	00 00		 mov	 DWORD PTR [esi+20], 0

; 2317 :         if (_Mysize < _Off) {

  00024	8b 48 10	 mov	 ecx, DWORD PTR [eax+16]
  00027	3b cf		 cmp	 ecx, edi
  00029	72 22		 jb	 SHORT $LN26@basic_stri

; 2335 :         return (_STD min)(_Size, _Mysize - _Off);

  0002b	2b cf		 sub	 ecx, edi
; File C:\Program Files\Microsoft Visual Studio\2022\Community\VC\Tools\MSVC\14.34.31933\include\utility

; 66   :     return _Right < _Left ? _Right : _Left;

  0002d	3b ca		 cmp	 ecx, edx
  0002f	0f 42 d1	 cmovb	 edx, ecx
; File C:\Program Files\Microsoft Visual Studio\2022\Community\VC\Tools\MSVC\14.34.31933\include\xstring

; 2301 :         return _BUF_SIZE <= _Myres;

  00032	83 78 14 10	 cmp	 DWORD PTR [eax+20], 16	; 00000010H

; 2293 :         if (_Large_string_engaged()) {

  00036	72 02		 jb	 SHORT $LN20@basic_stri

; 2294 :             _Result = _Unfancy(_Bx._Ptr);

  00038	8b 00		 mov	 eax, DWORD PTR [eax]
$LN20@basic_stri:

; 2644 :         _Right._Mypair._Myval2._Check_offset(_Roff);
; 2645 :         _Construct<_Construct_strategy::_From_ptr>(

  0003a	52		 push	 edx
  0003b	03 c7		 add	 eax, edi
  0003d	8b ce		 mov	 ecx, esi
  0003f	50		 push	 eax
  00040	e8 00 00 00 00	 call	 ??$_Construct@$00PBD@?$basic_string@DU?$char_traits@D@std@@V?$allocator@D@2@@std@@AAEXQBDI@Z ; std::basic_string<char,std::char_traits<char>,std::allocator<char> >::_Construct<1,char const *>

; 2646 :             _Right._Mypair._Myval2._Myptr() + _Roff, _Right._Mypair._Myval2._Clamp_suffix_size(_Roff, _Count));
; 2647 :     }

  00045	5f		 pop	 edi
  00046	8b c6		 mov	 eax, esi
  00048	5e		 pop	 esi
  00049	5d		 pop	 ebp
  0004a	c2 10 00	 ret	 16			; 00000010H
$LN26@basic_stri:

; 2318 :             _Xran();

  0004d	e8 00 00 00 00	 call	 ?_Xran@?$_String_val@U?$_Simple_types@D@std@@@std@@SAXXZ ; std::_String_val<std::_Simple_types<char> >::_Xran
$LN24@basic_stri:
  00052	cc		 int	 3
??0?$basic_string@DU?$char_traits@D@std@@V?$allocator@D@2@@std@@QAE@ABV01@IIABV?$allocator@D@1@@Z ENDP ; std::basic_string<char,std::char_traits<char>,std::allocator<char> >::basic_string<char,std::char_traits<char>,std::allocator<char> >
_TEXT	ENDS
END
