; Listing generated by Microsoft (R) Optimizing Compiler Version 19.34.31937.0 

	TITLE	e:\metin2_server\solwaynesf v6\clientvs22\vs_files\userinterface\distribute\userinterface.obj
	.686P
	.XMM
	include listing.inc
	.model	flat

INCLUDELIB OLDNAMES

PUBLIC	??_C@_0P@KBODAEKE@__future__?4pyc@		; `string'
PUBLIC	??_C@_0N@CMMKLLC@UserDict?4pyc@			; `string'
PUBLIC	??_C@_0O@COBIIGAD@linecache?4pyc@		; `string'
PUBLIC	??_C@_0N@GCNFBOJN@copy_reg?4pyc@		; `string'
PUBLIC	??_C@_06JCOFDJKA@os?4pyc@			; `string'
PUBLIC	??_C@_0L@HJCEJGHC@ntpath?4pyc@			; `string'
PUBLIC	??_C@_08EFIONJOP@stat?4pyc@			; `string'
PUBLIC	??_C@_08FPFMJPEC@site?4pyc@			; `string'
PUBLIC	??_C@_0O@PMKHJGGH@traceback?4pyc@		; `string'
PUBLIC	??_C@_0L@NDKNFNNI@string?4pyc@			; `string'
PUBLIC	??_C@_04HOGMCHDB@lib?2@				; `string'
PUBLIC	??_C@_09EHIBBABK@types?4pyc@			; `string'
PUBLIC	??_C@_0BB@FPBAACEA@metin2client?4dat@		; `string'
PUBLIC	??_C@_01KICIPPFI@?2@				; `string'
PUBLIC	??_C@_02LFNMGJAP@en@				; `string'
PUBLIC	??_C@_07GHKFPDHK@locale?1@			; `string'
PUBLIC	??_C@_0CA@PJKENNIH@FATAL?5ERROR?$CB?5File?5not?5exist?3?5?$CFs@ ; `string'
PUBLIC	??_C@_05FNNGFGLF@Index@				; `string'
PUBLIC	??_C@_04EDDHFNCG@PACK@				; `string'
PUBLIC	??_C@_04PMPMHNFI@FILE@				; `string'
PUBLIC	??_C@_0BG@FJMFFOHK@?$LO?K?$LI?$LC?3?5?F?Q?5?$LI?p?$LF?e?$MA?T?$LE?O?$LE?Y?4?6@ ; `string'
PUBLIC	??_C@_0ED@CBACJNDK@Pack?1Index?5has?5invalid?5syntax?4?5@ ; `string'
PUBLIC	??_C@_04NBFCGMPH@root@				; `string'
PUBLIC	??_C@_09ODEGJGJI@_texcache@			; `string'
PUBLIC	??_C@_0BI@JAFKHBD@RegisterDebugFlag?5Error@	; `string'
PUBLIC	??_C@_0O@GIEHGGHC@__DEBUG__?5?$DN?50@		; `string'
PUBLIC	??_C@_04JFPGDMCL@?9ncs@				; `string'
PUBLIC	??_C@_03MCGAAIEM@?9cs@				; `string'
PUBLIC	??_C@_0BK@DPMNHJLC@RegisterCommandLine?5Error@	; `string'
PUBLIC	??_C@_0BE@FPKDPBJI@__COMMAND_LINE__?5?$DN?5@	; `string'
PUBLIC	??_C@_05PDJBBECF@pause@				; `string'
PUBLIC	??_C@_0BN@KIGJPBEF@?9?9pause?9before?9create?9window@ ; `string'
PUBLIC	??_C@_0O@BEEPKJML@RunMain?5Error@		; `string'
PUBLIC	??_C@_09LEIJOBCA@system?4py@			; `string'
PUBLIC	??_C@_0BB@LLCBDFGP@patchupdater?4exe@		; `string'
PUBLIC	??_C@_0N@JIKFFHPP@newpatch?4exe@		; `string'
PUBLIC	??_C@_0M@PFDHIIAP@eter?4python@			; `string'
PUBLIC	??_C@_0DB@BGMLOPGB@Pack?5Initialization?5failed?4?5Che@ ; `string'
PUBLIC	??_C@_0CN@OHDPHKKH@FATAL?5ERROR?$CB?$CB?5Python?5Library?5fi@ ; `string'
PUBLIC	??_C@_0BA@OEEELOKH@Metin2GameMutex@		; `string'
PUBLIC	??_C@_0BJ@GLODLEBK@Wed?5Jan?511?520?349?357?52023@ ; `string'
PUBLIC	??_C@_0L@HBFAHJLE@?1timestamp@			; `string'
PUBLIC	??_C@_0DL@IHCMKBOK@METIN2?5BINARY?5DISTRIBUTE?5VERSIO@ ; `string'
PUBLIC	??_C@_0DG@JFMPGIL@METIN2?5BINARY?5TEST?5VERSION?5?$CFs?5?5@ ; `string'
PUBLIC	??_C@_0BE@FJLABEAB@?9?9perforce?9revision@	; `string'
PUBLIC	??_C@_08LJMAFCGB@?9?9locale@			; `string'
PUBLIC	??_C@_0L@LCFODDFH@locale?4cfg@			; `string'
PUBLIC	??_C@_0N@FPLLJIDE@?9?9hackshield@		; `string'
PUBLIC	??_C@_04JIBCGPDH@r?$CFd?6@			; `string'
PUBLIC	??_C@_0L@IBAMLFBB@?$CFs?4version@		; `string'
PUBLIC	??_C@_0BK@LJMCIPPN@service?$FL?$CFs?$FN?5code_page?$FL?$CFd?$FN@ ; `string'
PUBLIC	??_C@_0L@IMHJDJJ@locale?4txt@			; `string'
PUBLIC	??_C@_08GKBDCAOF@APP_NAME@			; `string'
PUBLIC	??_C@_0BD@BMCCGKJE@?9?9force?9set?9locale@	; `string'
PUBLIC	??_C@_0BC@PALKPJEA@Invalid?5arguments@		; `string'
PUBLIC	?gs_szErrorString@@3PADA			; gs_szErrorString
PUBLIC	?__IS_TEST_SERVER_MODE__@@3_NA			; __IS_TEST_SERVER_MODE__
EXTRN	__imp__GrannySetLogCallback@4:PROC
EXTRN	?MINMAX@@YAHHHH@Z:PROC				; MINMAX
EXTRN	__imp__timeBeginPeriod@4:PROC
EXTRN	_WebBrowser_Cleanup:PROC
EXTRN	__imp__GlobalFree@4:PROC
EXTRN	__imp__timeGetDevCaps@8:PROC
EXTRN	__imp__MessageBoxA@16:PROC
EXTRN	_WebBrowser_Startup:PROC
EXTRN	__imp__ReleaseMutex@4:PROC
EXTRN	?CommandLineToArgv@@YAPAPADPADPAH@Z:PROC	; CommandLineToArgv
EXTRN	__imp__GetModuleFileNameA@12:PROC
EXTRN	??1CEterPackManager@@UAE@XZ:PROC		; CEterPackManager::~CEterPackManager
EXTRN	??1CLZO@@UAE@XZ:PROC				; CLZO::~CLZO
EXTRN	__imp__CreateMutexA@12:PROC
EXTRN	?Create@CPythonLauncher@@QAE_NPBD@Z:PROC	; CPythonLauncher::Create
EXTRN	__imp__timeEndPeriod@4:PROC
EXTRN	?Clear@CPythonLauncher@@QAEXXZ:PROC		; CPythonLauncher::Clear
EXTRN	?Initialize@CMSApplication@@QAEXPAUHINSTANCE__@@@Z:PROC ; CMSApplication::Initialize
EXTRN	??0CPythonLauncher@@QAE@XZ:PROC			; CPythonLauncher::CPythonLauncher
EXTRN	??1CPythonLauncher@@UAE@XZ:PROC			; CPythonLauncher::~CPythonLauncher
EXTRN	?SetExceptionSender@@YAXPAVIPythonExceptionSender@@@Z:PROC ; SetExceptionSender
EXTRN	??0CEterPackManager@@QAE@XZ:PROC		; CEterPackManager::CEterPackManager
EXTRN	?SetDefaultCodePage@@YA_NK@Z:PROC		; SetDefaultCodePage
EXTRN	??0CLZO@@QAE@XZ:PROC				; CLZO::CLZO
EXTRN	__imp__ilInit@0:PROC
EXTRN	?OpenLogFile@@YAX_N@Z:PROC			; OpenLogFile
EXTRN	?srandom@@YAXK@Z:PROC				; srandom
EXTRN	_srand:PROC
EXTRN	?SetLogLevel@@YAXI@Z:PROC			; SetLogLevel
EXTRN	__imp__DeleteFileA@4:PROC
EXTRN	?base64_decode@@YAXPBDPAD@Z:PROC		; base64_decode
EXTRN	_system:PROC
EXTRN	?initgrpText@@YAXXZ:PROC			; initgrpText
EXTRN	?initwndMgr@@YAXXZ:PROC				; initwndMgr
EXTRN	?RunLine@CPythonLauncher@@QAE_NPBD@Z:PROC	; CPythonLauncher::RunLine
EXTRN	?SplitLine@@YA_NPBD0PAV?$vector@V?$basic_string@DU?$char_traits@D@std@@V?$allocator@D@2@@std@@V?$allocator@V?$basic_string@DU?$char_traits@D@std@@V?$allocator@D@2@@std@@@2@@std@@@Z:PROC ; SplitLine
EXTRN	?RegisterRootPack@CEterPackManager@@QAEXPBD@Z:PROC ; CEterPackManager::RegisterRootPack
EXTRN	?initdbg@@YAXXZ:PROC				; initdbg
EXTRN	?initgrp@@YAXXZ:PROC				; initgrp
EXTRN	?initgrpImage@@YAXXZ:PROC			; initgrpImage
EXTRN	?SetCacheMode@CTextFileLoader@@SAXXZ:PROC	; CTextFileLoader::SetCacheMode
EXTRN	?SetCacheMode@CEterPackManager@@QAEXXZ:PROC	; CEterPackManager::SetCacheMode
EXTRN	?SetSearchMode@CEterPackManager@@QAEX_N@Z:PROC	; CEterPackManager::SetSearchMode
EXTRN	?SetPackMode@CSoundData@@SAXXZ:PROC		; CSoundData::SetPackMode
EXTRN	__imp__LoadStringA@16:PROC
EXTRN	?Create@CMappedFile@@QAEHPBDPAPBXHH@Z:PROC	; CMappedFile::Create
EXTRN	?LogBoxf@@YAXPBDZZ:PROC				; LogBoxf
EXTRN	__imp__lstrlenA@4:PROC
EXTRN	__imp__GetPrivateProfileStringA@24:PROC
EXTRN	__imp__GetCurrentDirectoryA@8:PROC
EXTRN	__imp__MoveFileA@8:PROC
EXTRN	__fltused:DWORD
?gs_szErrorString@@3PADA DB 0200H DUP (?)		; gs_szErrorString
?__IS_TEST_SERVER_MODE__@@3_NA DB 01H DUP (?)		; __IS_TEST_SERVER_MODE__
_BSS	ENDS
;	COMDAT ??_C@_0BC@PALKPJEA@Invalid?5arguments@
CONST	SEGMENT
??_C@_0BC@PALKPJEA@Invalid?5arguments@ DB 'Invalid arguments', 00H ; `string'
CONST	ENDS
;	COMDAT ??_C@_0BD@BMCCGKJE@?9?9force?9set?9locale@
CONST	SEGMENT
??_C@_0BD@BMCCGKJE@?9?9force?9set?9locale@ DB '--force-set-locale', 00H ; `string'
CONST	ENDS
;	COMDAT ??_C@_08GKBDCAOF@APP_NAME@
CONST	SEGMENT
??_C@_08GKBDCAOF@APP_NAME@ DB 'APP_NAME', 00H		; `string'
CONST	ENDS
;	COMDAT ??_C@_0L@IMHJDJJ@locale?4txt@
CONST	SEGMENT
??_C@_0L@IMHJDJJ@locale?4txt@ DB 'locale.txt', 00H	; `string'
CONST	ENDS
;	COMDAT ??_C@_0BK@LJMCIPPN@service?$FL?$CFs?$FN?5code_page?$FL?$CFd?$FN@
CONST	SEGMENT
??_C@_0BK@LJMCIPPN@service?$FL?$CFs?$FN?5code_page?$FL?$CFd?$FN@ DB 'serv'
	DB	'ice[%s] code_page[%d]', 00H			; `string'
CONST	ENDS
;	COMDAT ??_C@_0L@IBAMLFBB@?$CFs?4version@
CONST	SEGMENT
??_C@_0L@IBAMLFBB@?$CFs?4version@ DB '%s.version', 00H	; `string'
CONST	ENDS
;	COMDAT ??_C@_04JIBCGPDH@r?$CFd?6@
CONST	SEGMENT
??_C@_04JIBCGPDH@r?$CFd?6@ DB 'r%d', 0aH, 00H		; `string'
CONST	ENDS
;	COMDAT ??_C@_0N@FPLLJIDE@?9?9hackshield@
CONST	SEGMENT
??_C@_0N@FPLLJIDE@?9?9hackshield@ DB '--hackshield', 00H ; `string'
CONST	ENDS
;	COMDAT ??_C@_0L@LCFODDFH@locale?4cfg@
CONST	SEGMENT
??_C@_0L@LCFODDFH@locale?4cfg@ DB 'locale.cfg', 00H	; `string'
CONST	ENDS
;	COMDAT ??_C@_08LJMAFCGB@?9?9locale@
CONST	SEGMENT
??_C@_08LJMAFCGB@?9?9locale@ DB '--locale', 00H		; `string'
CONST	ENDS
;	COMDAT ??_C@_0BE@FJLABEAB@?9?9perforce?9revision@
CONST	SEGMENT
??_C@_0BE@FJLABEAB@?9?9perforce?9revision@ DB '--perforce-revision', 00H ; `string'
CONST	ENDS
;	COMDAT ??_C@_0DG@JFMPGIL@METIN2?5BINARY?5TEST?5VERSION?5?$CFs?5?5@
CONST	SEGMENT
??_C@_0DG@JFMPGIL@METIN2?5BINARY?5TEST?5VERSION?5?$CFs?5?5@ DB 'METIN2 BI'
	DB	'NARY TEST VERSION %s  ( MS C++ %d Compiled )', 00H ; `string'
CONST	ENDS
;	COMDAT ??_C@_0DL@IHCMKBOK@METIN2?5BINARY?5DISTRIBUTE?5VERSIO@
CONST	SEGMENT
??_C@_0DL@IHCMKBOK@METIN2?5BINARY?5DISTRIBUTE?5VERSIO@ DB 'METIN2 BINARY '
	DB	'DISTRIBUTE VERSION %s ( MS C++ %d Compiled )', 00H ; `string'
CONST	ENDS
;	COMDAT ??_C@_0L@HBFAHJLE@?1timestamp@
CONST	SEGMENT
??_C@_0L@HBFAHJLE@?1timestamp@ DB '/timestamp', 00H	; `string'
CONST	ENDS
;	COMDAT ??_C@_0BJ@GLODLEBK@Wed?5Jan?511?520?349?357?52023@
CONST	SEGMENT
??_C@_0BJ@GLODLEBK@Wed?5Jan?511?520?349?357?52023@ DB 'Wed Jan 11 20:49:5'
	DB	'7 2023', 00H				; `string'
CONST	ENDS
;	COMDAT ??_C@_0BA@OEEELOKH@Metin2GameMutex@
CONST	SEGMENT
??_C@_0BA@OEEELOKH@Metin2GameMutex@ DB 'Metin2GameMutex', 00H ; `string'
CONST	ENDS
;	COMDAT ??_C@_0CN@OHDPHKKH@FATAL?5ERROR?$CB?$CB?5Python?5Library?5fi@
CONST	SEGMENT
??_C@_0CN@OHDPHKKH@FATAL?5ERROR?$CB?$CB?5Python?5Library?5fi@ DB 'FATAL E'
	DB	'RROR!! Python Library file not exist!', 00H	; `string'
CONST	ENDS
;	COMDAT ??_C@_0DB@BGMLOPGB@Pack?5Initialization?5failed?4?5Che@
CONST	SEGMENT
??_C@_0DB@BGMLOPGB@Pack?5Initialization?5failed?4?5Che@ DB 'Pack Initiali'
	DB	'zation failed. Check log.txt file..', 00H	; `string'
CONST	ENDS
;	COMDAT ??_C@_0M@PFDHIIAP@eter?4python@
CONST	SEGMENT
??_C@_0M@PFDHIIAP@eter?4python@ DB 'eter.python', 00H	; `string'
CONST	ENDS
;	COMDAT ??_C@_0N@JIKFFHPP@newpatch?4exe@
CONST	SEGMENT
??_C@_0N@JIKFFHPP@newpatch?4exe@ DB 'newpatch.exe', 00H	; `string'
CONST	ENDS
;	COMDAT ??_C@_0BB@LLCBDFGP@patchupdater?4exe@
CONST	SEGMENT
??_C@_0BB@LLCBDFGP@patchupdater?4exe@ DB 'patchupdater.exe', 00H ; `string'
CONST	ENDS
;	COMDAT ??_C@_09LEIJOBCA@system?4py@
CONST	SEGMENT
??_C@_09LEIJOBCA@system?4py@ DB 'system.py', 00H	; `string'
CONST	ENDS
;	COMDAT ??_C@_0O@BEEPKJML@RunMain?5Error@
CONST	SEGMENT
??_C@_0O@BEEPKJML@RunMain?5Error@ DB 'RunMain Error', 00H ; `string'
CONST	ENDS
;	COMDAT ??_C@_0BN@KIGJPBEF@?9?9pause?9before?9create?9window@
CONST	SEGMENT
??_C@_0BN@KIGJPBEF@?9?9pause?9before?9create?9window@ DB '--pause-before-'
	DB	'create-window', 00H				; `string'
CONST	ENDS
;	COMDAT ??_C@_05PDJBBECF@pause@
CONST	SEGMENT
??_C@_05PDJBBECF@pause@ DB 'pause', 00H			; `string'
CONST	ENDS
;	COMDAT ??_C@_0BE@FPKDPBJI@__COMMAND_LINE__?5?$DN?5@
CONST	SEGMENT
??_C@_0BE@FPKDPBJI@__COMMAND_LINE__?5?$DN?5@ DB '__COMMAND_LINE__ = ', 00H ; `string'
CONST	ENDS
;	COMDAT ??_C@_0BK@DPMNHJLC@RegisterCommandLine?5Error@
CONST	SEGMENT
??_C@_0BK@DPMNHJLC@RegisterCommandLine?5Error@ DB 'RegisterCommandLine Er'
	DB	'ror', 00H					; `string'
CONST	ENDS
;	COMDAT ??_C@_03MCGAAIEM@?9cs@
CONST	SEGMENT
??_C@_03MCGAAIEM@?9cs@ DB '-cs', 00H			; `string'
CONST	ENDS
;	COMDAT ??_C@_04JFPGDMCL@?9ncs@
CONST	SEGMENT
??_C@_04JFPGDMCL@?9ncs@ DB '-ncs', 00H			; `string'
CONST	ENDS
;	COMDAT ??_C@_0O@GIEHGGHC@__DEBUG__?5?$DN?50@
CONST	SEGMENT
??_C@_0O@GIEHGGHC@__DEBUG__?5?$DN?50@ DB '__DEBUG__ = 0', 00H ; `string'
CONST	ENDS
;	COMDAT ??_C@_0BI@JAFKHBD@RegisterDebugFlag?5Error@
CONST	SEGMENT
??_C@_0BI@JAFKHBD@RegisterDebugFlag?5Error@ DB 'RegisterDebugFlag Error', 00H ; `string'
CONST	ENDS
;	COMDAT ??_C@_09ODEGJGJI@_texcache@
CONST	SEGMENT
??_C@_09ODEGJGJI@_texcache@ DB '_texcache', 00H		; `string'
CONST	ENDS
;	COMDAT ??_C@_04NBFCGMPH@root@
CONST	SEGMENT
??_C@_04NBFCGMPH@root@ DB 'root', 00H			; `string'
CONST	ENDS
;	COMDAT ??_C@_0ED@CBACJNDK@Pack?1Index?5has?5invalid?5syntax?4?5@
CONST	SEGMENT
??_C@_0ED@CBACJNDK@Pack?1Index?5has?5invalid?5syntax?4?5@ DB 'Pack/Index '
	DB	'has invalid syntax. First line must be ''PACK'' or ''FILE''', 00H ; `string'
CONST	ENDS
;	COMDAT ??_C@_0BG@FJMFFOHK@?$LO?K?$LI?$LC?3?5?F?Q?5?$LI?p?$LF?e?$MA?T?$LE?O?$LE?Y?4?6@
CONST	SEGMENT
??_C@_0BG@FJMFFOHK@?$LO?K?$LI?$LC?3?5?F?Q?5?$LI?p?$LF?e?$MA?T?$LE?O?$LE?Y?4?6@ DB 0beH
	DB	0cbH, 0b8H, 0b2H, ': ', 0c6H, 0d1H, ' ', 0b8H, 0f0H, 0b5H, 0e5H
	DB	0c0H, 0d4H, 0b4H, 0cfH, 0b4H, 0d9H, '.', 0aH, 00H ; `string'
CONST	ENDS
;	COMDAT ??_C@_04PMPMHNFI@FILE@
CONST	SEGMENT
??_C@_04PMPMHNFI@FILE@ DB 'FILE', 00H			; `string'
CONST	ENDS
;	COMDAT ??_C@_04EDDHFNCG@PACK@
CONST	SEGMENT
??_C@_04EDDHFNCG@PACK@ DB 'PACK', 00H			; `string'
CONST	ENDS
;	COMDAT ??_C@_05FNNGFGLF@Index@
CONST	SEGMENT
??_C@_05FNNGFGLF@Index@ DB 'Index', 00H			; `string'
CONST	ENDS
;	COMDAT ??_C@_0CA@PJKENNIH@FATAL?5ERROR?$CB?5File?5not?5exist?3?5?$CFs@
CONST	SEGMENT
??_C@_0CA@PJKENNIH@FATAL?5ERROR?$CB?5File?5not?5exist?3?5?$CFs@ DB 'FATAL'
	DB	' ERROR! File not exist: %s', 00H		; `string'
CONST	ENDS
;	COMDAT ??_C@_07GHKFPDHK@locale?1@
CONST	SEGMENT
??_C@_07GHKFPDHK@locale?1@ DB 'locale/', 00H		; `string'
CONST	ENDS
;	COMDAT ??_C@_02LFNMGJAP@en@
CONST	SEGMENT
??_C@_02LFNMGJAP@en@ DB 'en', 00H			; `string'
CONST	ENDS
;	COMDAT ??_C@_01KICIPPFI@?2@
CONST	SEGMENT
??_C@_01KICIPPFI@?2@ DB '\', 00H			; `string'
CONST	ENDS
;	COMDAT ??_C@_0BB@FPBAACEA@metin2client?4dat@
CONST	SEGMENT
??_C@_0BB@FPBAACEA@metin2client?4dat@ DB 'metin2client.dat', 00H ; `string'
CONST	ENDS
;	COMDAT ??_C@_09EHIBBABK@types?4pyc@
CONST	SEGMENT
??_C@_09EHIBBABK@types?4pyc@ DB 'types.pyc', 00H	; `string'
CONST	ENDS
;	COMDAT ??_C@_04HOGMCHDB@lib?2@
CONST	SEGMENT
??_C@_04HOGMCHDB@lib?2@ DB 'lib\', 00H			; `string'
CONST	ENDS
;	COMDAT ??_C@_0L@NDKNFNNI@string?4pyc@
CONST	SEGMENT
??_C@_0L@NDKNFNNI@string?4pyc@ DB 'string.pyc', 00H	; `string'
CONST	ENDS
;	COMDAT ??_C@_0O@PMKHJGGH@traceback?4pyc@
CONST	SEGMENT
??_C@_0O@PMKHJGGH@traceback?4pyc@ DB 'traceback.pyc', 00H ; `string'
CONST	ENDS
;	COMDAT ??_C@_08FPFMJPEC@site?4pyc@
CONST	SEGMENT
??_C@_08FPFMJPEC@site?4pyc@ DB 'site.pyc', 00H		; `string'
CONST	ENDS
;	COMDAT ??_C@_08EFIONJOP@stat?4pyc@
CONST	SEGMENT
??_C@_08EFIONJOP@stat?4pyc@ DB 'stat.pyc', 00H		; `string'
CONST	ENDS
;	COMDAT ??_C@_0L@HJCEJGHC@ntpath?4pyc@
CONST	SEGMENT
??_C@_0L@HJCEJGHC@ntpath?4pyc@ DB 'ntpath.pyc', 00H	; `string'
CONST	ENDS
;	COMDAT ??_C@_06JCOFDJKA@os?4pyc@
CONST	SEGMENT
??_C@_06JCOFDJKA@os?4pyc@ DB 'os.pyc', 00H		; `string'
CONST	ENDS
;	COMDAT ??_C@_0N@GCNFBOJN@copy_reg?4pyc@
CONST	SEGMENT
??_C@_0N@GCNFBOJN@copy_reg?4pyc@ DB 'copy_reg.pyc', 00H	; `string'
CONST	ENDS
;	COMDAT ??_C@_0O@COBIIGAD@linecache?4pyc@
CONST	SEGMENT
??_C@_0O@COBIIGAD@linecache?4pyc@ DB 'linecache.pyc', 00H ; `string'
CONST	ENDS
;	COMDAT ??_C@_0N@CMMKLLC@UserDict?4pyc@
CONST	SEGMENT
??_C@_0N@CMMKLLC@UserDict?4pyc@ DB 'UserDict.pyc', 00H	; `string'
CONST	ENDS
;	COMDAT ??_C@_0P@KBODAEKE@__future__?4pyc@
CONST	SEGMENT
??_C@_0P@KBODAEKE@__future__?4pyc@ DB '__future__.pyc', 00H ; `string'
?sc_apszPythonLibraryFilenames@@3PAPBDA DD FLAT:??_C@_0N@CMMKLLC@UserDict?4pyc@ ; sc_apszPythonLibraryFilenames
	DD	FLAT:??_C@_0P@KBODAEKE@__future__?4pyc@
	DD	FLAT:??_C@_0N@GCNFBOJN@copy_reg?4pyc@
	DD	FLAT:??_C@_0O@COBIIGAD@linecache?4pyc@
	DD	FLAT:??_C@_0L@HJCEJGHC@ntpath?4pyc@
	DD	FLAT:??_C@_06JCOFDJKA@os?4pyc@
	DD	FLAT:??_C@_08FPFMJPEC@site?4pyc@
	DD	FLAT:??_C@_08EFIONJOP@stat?4pyc@
	DD	FLAT:??_C@_0L@NDKNFNNI@string?4pyc@
	DD	FLAT:??_C@_0O@PMKHJGGH@traceback?4pyc@
	DD	FLAT:??_C@_09EHIBBABK@types?4pyc@
	DD	FLAT:??_C@_01EEMJAFIK@?6@
PUBLIC	??$swap@DU?$char_traits@D@std@@V?$allocator@D@2@@std@@YAXAAV?$basic_string@DU?$char_traits@D@std@@V?$allocator@D@2@@0@0@Z ; std::swap<char,std::char_traits<char>,std::allocator<char> >
PUBLIC	?swap@?$basic_string@DU?$char_traits@D@std@@V?$allocator@D@2@@std@@QAEXAAV12@@Z ; std::basic_string<char,std::char_traits<char>,std::allocator<char> >::swap
PUBLIC	?_Swap_data@?$basic_string@DU?$char_traits@D@std@@V?$allocator@D@2@@std@@QAEXAAV12@@Z ; std::basic_string<char,std::char_traits<char>,std::allocator<char> >::_Swap_data
PUBLIC	?_Swap_bx_large_with_small@?$basic_string@DU?$char_traits@D@std@@V?$allocator@D@2@@std@@SAXAAV?$_String_val@U?$_Simple_types@D@std@@@2@0@Z ; std::basic_string<char,std::char_traits<char>,std::allocator<char> >::_Swap_bx_large_with_small
PUBLIC	??$_Swap_adl@PAD@std@@YAXAAPAD0@Z		; std::_Swap_adl<char *>
PUBLIC	??$swap@PAD$0A@@std@@YAXAAPAD0@Z		; std::swap<char *,0>
PUBLIC	??$move@AAPAD@std@@YA$$QAPADAAPAD@Z		; std::move<char * &>
PUBLIC	??$_Pocs@V?$allocator@D@std@@@std@@YAXAAV?$allocator@D@0@0@Z ; std::_Pocs<std::allocator<char> >
PUBLIC	??$addressof@$$CBV?$_Vector_val@U?$_Simple_types@V?$basic_string@DU?$char_traits@D@std@@V?$allocator@D@2@@std@@@std@@@std@@@std@@YAPBV?$_Vector_val@U?$_Simple_types@V?$basic_string@DU?$char_traits@D@std@@V?$allocator@D@2@@std@@@std@@@0@ABV10@@Z ; std::addressof<std::_Vector_val<std::_Simple_types<std::basic_string<char,std::char_traits<char>,std::allocator<char> > > > const >
PUBLIC	?insert@?$basic_string@DU?$char_traits@D@std@@V?$allocator@D@2@@std@@QAEAAV12@IABV12@@Z ; std::basic_string<char,std::char_traits<char>,std::allocator<char> >::insert
PUBLIC	?begin@?$vector@V?$basic_string@DU?$char_traits@D@std@@V?$allocator@D@2@@std@@V?$allocator@V?$basic_string@DU?$char_traits@D@std@@V?$allocator@D@2@@std@@@2@@std@@QBE?AV?$_Vector_const_iterator@V?$_Vector_val@U?$_Simple_types@V?$basic_string@DU?$char_traits@D@std@@V?$allocator@D@2@@std@@@std@@@std@@@2@XZ ; std::vector<std::basic_string<char,std::char_traits<char>,std::allocator<char> >,std::allocator<std::basic_string<char,std::char_traits<char>,std::allocator<char> > > >::begin
PUBLIC	?end@?$vector@V?$basic_string@DU?$char_traits@D@std@@V?$allocator@D@2@@std@@V?$allocator@V?$basic_string@DU?$char_traits@D@std@@V?$allocator@D@2@@std@@@2@@std@@QBE?AV?$_Vector_const_iterator@V?$_Vector_val@U?$_Simple_types@V?$basic_string@DU?$char_traits@D@std@@V?$allocator@D@2@@std@@@std@@@std@@@2@XZ ; std::vector<std::basic_string<char,std::char_traits<char>,std::allocator<char> >,std::allocator<std::basic_string<char,std::char_traits<char>,std::allocator<char> > > >::end
PUBLIC	??E?$_Vector_const_iterator@V?$_Vector_val@U?$_Simple_types@V?$basic_string@DU?$char_traits@D@std@@V?$allocator@D@2@@std@@@std@@@std@@@std@@QAE?AV01@H@Z ; std::_Vector_const_iterator<std::_Vector_val<std::_Simple_types<std::basic_string<char,std::char_traits<char>,std::allocator<char> > > > >::operator++
PUBLIC	??F?$_Vector_const_iterator@V?$_Vector_val@U?$_Simple_types@V?$basic_string@DU?$char_traits@D@std@@V?$allocator@D@2@@std@@@std@@@std@@@std@@QAEAAV01@XZ ; std::_Vector_const_iterator<std::_Vector_val<std::_Simple_types<std::basic_string<char,std::char_traits<char>,std::allocator<char> > > > >::operator--
PUBLIC	??$_Reallocate_grow_by@V<lambda_1>@?1??push_back@?$basic_string@DU?$char_traits@D@std@@V?$allocator@D@2@@std@@QAEXD@Z@D@?$basic_string@DU?$char_traits@D@std@@V?$allocator@D@2@@std@@AAEAAV01@IV<lambda_1>@?1??push_back@01@QAEXD@Z@D@Z ; std::basic_string<char,std::char_traits<char>,std::allocator<char> >::_Reallocate_grow_by<`std::basic_string<char,std::char_traits<char>,std::allocator<char> >::push_back'::`2'::<lambda_1>,char>
PUBLIC	??$string_join@V?$vector@V?$basic_string@DU?$char_traits@D@std@@V?$allocator@D@2@@std@@V?$allocator@V?$basic_string@DU?$char_traits@D@std@@V?$allocator@D@2@@std@@@2@@std@@@@YAXABV?$basic_string@DU?$char_traits@D@std@@V?$allocator@D@2@@std@@ABV?$vector@V?$basic_string@DU?$char_traits@D@std@@V?$allocator@D@2@@std@@V?$allocator@V?$basic_string@DU?$char_traits@D@std@@V?$allocator@D@2@@std@@@2@@1@PAV01@@Z ; string_join<std::vector<std::basic_string<char,std::char_traits<char>,std::allocator<char> >,std::allocator<std::basic_string<char,std::char_traits<char>,std::allocator<char> > > > >
PUBLIC	??$?HDU?$char_traits@D@std@@V?$allocator@D@1@@std@@YA?AV?$basic_string@DU?$char_traits@D@std@@V?$allocator@D@2@@0@ABV10@$$QAV10@@Z ; std::operator+<char,std::char_traits<char>,std::allocator<char> >
PUBLIC	??R<lambda_1>@?1??push_back@?$basic_string@DU?$char_traits@D@std@@V?$allocator@D@2@@std@@QAEXD@Z@QBE@QADQBDID@Z ; `std::basic_string<char,std::char_traits<char>,std::allocator<char> >::push_back'::`2'::<lambda_1>::operator()
PUBLIC	?push_back@?$basic_string@DU?$char_traits@D@std@@V?$allocator@D@2@@std@@QAEXD@Z ; std::basic_string<char,std::char_traits<char>,std::allocator<char> >::push_back
PUBLIC	??Y?$basic_string@DU?$char_traits@D@std@@V?$allocator@D@2@@std@@QAEAAV01@D@Z ; std::basic_string<char,std::char_traits<char>,std::allocator<char> >::operator+=
PUBLIC	?Setup@@YAHPAD@Z				; Setup
PUBLIC	_WinMain@16
PUBLIC	?__IsLocaleVersion@@YA_NPAD@Z			; __IsLocaleVersion
PUBLIC	?__IsLocaleOption@@YA_NPAD@Z			; __IsLocaleOption
PUBLIC	?__PrintTimeStamp@@YAXXZ			; __PrintTimeStamp
PUBLIC	?__IsTimeStampOption@@YA_NPAD@Z			; __IsTimeStampOption
PUBLIC	?__ErrorPythonLibraryIsNotExist@@YAXXZ		; __ErrorPythonLibraryIsNotExist
PUBLIC	?Main@@YA_NPAUHINSTANCE__@@PAD@Z		; Main
PUBLIC	?RunMainScript@@YA_NAAVCPythonLauncher@@PBD@Z	; RunMainScript
PUBLIC	?PackInitialize@@YA_NPBD@Z			; PackInitialize
PUBLIC	?ApplicationStringTable_GetString@@YAABV?$basic_string@DU?$char_traits@D@std@@V?$allocator@D@2@@std@@KPBD@Z ; ApplicationStringTable_GetString
PUBLIC	?ApplicationStringTable_Initialize@@YAXPAUHINSTANCE__@@@Z ; ApplicationStringTable_Initialize
PUBLIC	??1ApplicationStringTable@@QAE@XZ		; ApplicationStringTable::~ApplicationStringTable
PUBLIC	??0ApplicationStringTable@@QAE@XZ		; ApplicationStringTable::ApplicationStringTable
PUBLIC	?CheckPythonLibraryFilenames@@YA_NXZ		; CheckPythonLibraryFilenames
PUBLIC	?METIN2_GET_VERSION@@YAHXZ			; METIN2_GET_VERSION
PUBLIC	?ApplicationStringTable_GetString@@YAABV?$basic_string@DU?$char_traits@D@std@@V?$allocator@D@2@@std@@K@Z ; ApplicationStringTable_GetString
PUBLIC	?ApplicationStringTable_GetStringz@@YAPBDKPBD@Z	; ApplicationStringTable_GetStringz
PUBLIC	__AVOID_FLOATING_POINT_LIBRARY_BUG
PUBLIC	___iob_func
PUBLIC	?gs_kAppStrTable@@3UApplicationStringTable@@A	; gs_kAppStrTable
__AVOID_FLOATING_POINT_LIBRARY_BUG DD 01H DUP (?)
___iob_func DD	03H DUP (?)
?gs_kAppStrTable@@3UApplicationStringTable@@A DB 0cH DUP (?) ; gs_kAppStrTable
_BSS	ENDS
;	COMDAT ?$TSS0@?1??Main@@YA_NPAUHINSTANCE__@@PAD@Z@4HA
_BSS	SEGMENT
?$TSS0@?1??Main@@YA_NPAUHINSTANCE__@@PAD@Z@4HA DD 01H DUP (?) ; `Main'::`2'::$TSS0
_BSS	ENDS
;	COMDAT ?lzo@?1??Main@@YA_NPAUHINSTANCE__@@PAD@Z@4VCLZO@@A
_BSS	SEGMENT
?lzo@?1??Main@@YA_NPAUHINSTANCE__@@PAD@Z@4VCLZO@@A DQ 01H DUP (?) ; `Main'::`2'::lzo
_BSS	ENDS
;	COMDAT ?$TSS1@?1??Main@@YA_NPAUHINSTANCE__@@PAD@Z@4HA
_BSS	SEGMENT
?$TSS1@?1??Main@@YA_NPAUHINSTANCE__@@PAD@Z@4HA DD 01H DUP (?) ; `Main'::`2'::$TSS1
_BSS	ENDS
;	COMDAT ?EterPackManager@?1??Main@@YA_NPAUHINSTANCE__@@PAD@Z@4VCEterPackManager@@A
_BSS	SEGMENT
?EterPackManager@?1??Main@@YA_NPAUHINSTANCE__@@PAD@Z@4VCEterPackManager@@A DB 014a8H DUP (?) ; `Main'::`2'::EterPackManager
_BSS	ENDS
;	COMDAT voltbl
voltbl	SEGMENT
_volmd	DB	05H
voltbl	ENDS
;	COMDAT xdata$x
xdata$x	SEGMENT
__ehfuncinfo$?CheckPythonLibraryFilenames@@YA_NXZ DD 019930522H
	DD	01H
	DD	FLAT:__unwindtable$?CheckPythonLibraryFilenames@@YA_NXZ
	DD	2 DUP(00H)
	DD	2 DUP(00H)
	DD	00H
	DD	01H
__unwindtable$?CheckPythonLibraryFilenames@@YA_NXZ DD 0ffffffffH
	DD	FLAT:__unwindfunclet$?CheckPythonLibraryFilenames@@YA_NXZ$0
xdata$x	ENDS
;	COMDAT xdata$x
xdata$x	SEGMENT
__ehfuncinfo$?PackInitialize@@YA_NPBD@Z DD 019930522H
	DD	08H
	DD	FLAT:__unwindtable$?PackInitialize@@YA_NPBD@Z
	DD	2 DUP(00H)
	DD	2 DUP(00H)
	DD	00H
	DD	01H
	ORG $+4
__unwindtable$?PackInitialize@@YA_NPBD@Z DD 0ffffffffH
	DD	FLAT:__unwindfunclet$?PackInitialize@@YA_NPBD@Z$0
	DD	00H
	DD	FLAT:__unwindfunclet$?PackInitialize@@YA_NPBD@Z$1
	DD	01H
	DD	FLAT:__unwindfunclet$?PackInitialize@@YA_NPBD@Z$2
	DD	02H
	DD	FLAT:__unwindfunclet$?PackInitialize@@YA_NPBD@Z$3
	DD	03H
	DD	FLAT:__unwindfunclet$?PackInitialize@@YA_NPBD@Z$4
	DD	04H
	DD	FLAT:__unwindfunclet$?PackInitialize@@YA_NPBD@Z$5
	DD	05H
	DD	FLAT:__unwindfunclet$?PackInitialize@@YA_NPBD@Z$8
	DD	06H
	DD	FLAT:__unwindfunclet$?PackInitialize@@YA_NPBD@Z$9
xdata$x	ENDS
;	COMDAT xdata$x
xdata$x	SEGMENT
__ehfuncinfo$?RunMainScript@@YA_NAAVCPythonLauncher@@PBD@Z DD 019930522H
	DD	07H
	DD	FLAT:__unwindtable$?RunMainScript@@YA_NAAVCPythonLauncher@@PBD@Z
	DD	2 DUP(00H)
	DD	2 DUP(00H)
	DD	00H
	DD	01H
__unwindtable$?RunMainScript@@YA_NAAVCPythonLauncher@@PBD@Z DD 0ffffffffH
	DD	FLAT:__unwindfunclet$?RunMainScript@@YA_NAAVCPythonLauncher@@PBD@Z$0
	DD	0ffffffffH
	DD	FLAT:__unwindfunclet$?RunMainScript@@YA_NAAVCPythonLauncher@@PBD@Z$1
	DD	01H
	DD	FLAT:__unwindfunclet$?RunMainScript@@YA_NAAVCPythonLauncher@@PBD@Z$2
	DD	02H
	DD	FLAT:__unwindfunclet$?RunMainScript@@YA_NAAVCPythonLauncher@@PBD@Z$3
	DD	03H
	DD	FLAT:__unwindfunclet$?RunMainScript@@YA_NAAVCPythonLauncher@@PBD@Z$4
	DD	03H
	DD	FLAT:__unwindfunclet$?RunMainScript@@YA_NAAVCPythonLauncher@@PBD@Z$5
	DD	0ffffffffH
	DD	FLAT:__unwindfunclet$?RunMainScript@@YA_NAAVCPythonLauncher@@PBD@Z$6
xdata$x	ENDS
;	COMDAT xdata$x
xdata$x	SEGMENT
__ehfuncinfo$?Main@@YA_NPAUHINSTANCE__@@PAD@Z DD 019930522H
	DD	05H
	DD	FLAT:__unwindtable$?Main@@YA_NPAUHINSTANCE__@@PAD@Z
	DD	2 DUP(00H)
	DD	2 DUP(00H)
	DD	00H
	DD	01H
__unwindtable$?Main@@YA_NPAUHINSTANCE__@@PAD@Z DD 0ffffffffH
	DD	FLAT:__unwindfunclet$?Main@@YA_NPAUHINSTANCE__@@PAD@Z$0
	DD	0ffffffffH
	DD	FLAT:__unwindfunclet$?Main@@YA_NPAUHINSTANCE__@@PAD@Z$1
	DD	0ffffffffH
	DD	FLAT:__unwindfunclet$?Main@@YA_NPAUHINSTANCE__@@PAD@Z$2
	DD	0ffffffffH
	DD	FLAT:__unwindfunclet$?Main@@YA_NPAUHINSTANCE__@@PAD@Z$3
	DD	03H
	DD	FLAT:__unwindfunclet$?Main@@YA_NPAUHINSTANCE__@@PAD@Z$4
xdata$x	ENDS
;	COMDAT xdata$x
xdata$x	SEGMENT
__ehfuncinfo$??$string_join@V?$vector@V?$basic_string@DU?$char_traits@D@std@@V?$allocator@D@2@@std@@V?$allocator@V?$basic_string@DU?$char_traits@D@std@@V?$allocator@D@2@@std@@@2@@std@@@@YAXABV?$basic_string@DU?$char_traits@D@std@@V?$allocator@D@2@@std@@ABV?$vector@V?$basic_string@DU?$char_traits@D@std@@V?$allocator@D@2@@std@@V?$allocator@V?$basic_string@DU?$char_traits@D@std@@V?$allocator@D@2@@std@@@2@@1@PAV01@@Z DD 019930522H
	DD	01H
	DD	FLAT:__unwindtable$??$string_join@V?$vector@V?$basic_string@DU?$char_traits@D@std@@V?$allocator@D@2@@std@@V?$allocator@V?$basic_string@DU?$char_traits@D@std@@V?$allocator@D@2@@std@@@2@@std@@@@YAXABV?$basic_string@DU?$char_traits@D@std@@V?$allocator@D@2@@std@@ABV?$vector@V?$basic_string@DU?$char_traits@D@std@@V?$allocator@D@2@@std@@V?$allocator@V?$basic_string@DU?$char_traits@D@std@@V?$allocator@D@2@@std@@@2@@1@PAV01@@Z
	DD	2 DUP(00H)
	DD	2 DUP(00H)
	DD	00H
	DD	01H
__unwindtable$??$string_join@V?$vector@V?$basic_string@DU?$char_traits@D@std@@V?$allocator@D@2@@std@@V?$allocator@V?$basic_string@DU?$char_traits@D@std@@V?$allocator@D@2@@std@@@2@@std@@@@YAXABV?$basic_string@DU?$char_traits@D@std@@V?$allocator@D@2@@std@@ABV?$vector@V?$basic_string@DU?$char_traits@D@std@@V?$allocator@D@2@@std@@V?$allocator@V?$basic_string@DU?$char_traits@D@std@@V?$allocator@D@2@@std@@@2@@1@PAV01@@Z DD 0ffffffffH
	DD	FLAT:__unwindfunclet$??$string_join@V?$vector@V?$basic_string@DU?$char_traits@D@std@@V?$allocator@D@2@@std@@V?$allocator@V?$basic_string@DU?$char_traits@D@std@@V?$allocator@D@2@@std@@@2@@std@@@@YAXABV?$basic_string@DU?$char_traits@D@std@@V?$allocator@D@2@@std@@ABV?$vector@V?$basic_string@DU?$char_traits@D@std@@V?$allocator@D@2@@std@@V?$allocator@V?$basic_string@DU?$char_traits@D@std@@V?$allocator@D@2@@std@@@2@@1@PAV01@@Z$0
?_AVOID_FLOATING_POINT_LIBRARY_BUG$initializer$@@3P6AXXZA DD FLAT:??__E_AVOID_FLOATING_POINT_LIBRARY_BUG@@YAXXZ ; _AVOID_FLOATING_POINT_LIBRARY_BUG$initializer$
?__iob_func$initializer$@@3P6AXXZA DD FLAT:??__E__iob_func@@YAXXZ ; __iob_func$initializer$
?gs_kAppStrTable$initializer$@@3P6AXXZA DD FLAT:??__Egs_kAppStrTable@@YAXXZ ; gs_kAppStrTable$initializer$
; Function compile flags: /Ogtp
; File E:\Metin2_server\SolWayneSF v6\ClientVS22\source\UserInterface\UserInterface.cpp
; File C:\Program Files\Microsoft Visual Studio\2022\Community\VC\Tools\MSVC\14.34.31933\include\xstring
; File E:\Metin2_server\SolWayneSF v6\ClientVS22\source\UserInterface\UserInterface.cpp
;	COMDAT ?ApplicationStringTable_GetStringz@@YAPBDKPBD@Z
_TEXT	SEGMENT
?ApplicationStringTable_GetStringz@@YAPBDKPBD@Z PROC	; ApplicationStringTable_GetStringz, COMDAT
; _dwID$ = ecx
; _szKey$ = edx

; 149  : {

  00000	51		 push	 ecx

; 150  : 	return ApplicationStringTable_GetString(dwID, szKey).c_str();

  00001	e8 00 00 00 00	 call	 ?ApplicationStringTable_GetString@@YAABV?$basic_string@DU?$char_traits@D@std@@V?$allocator@D@2@@std@@KPBD@Z ; ApplicationStringTable_GetString
; File C:\Program Files\Microsoft Visual Studio\2022\Community\VC\Tools\MSVC\14.34.31933\include\xstring

; 2301 :         return _BUF_SIZE <= _Myres;

  00006	83 78 14 10	 cmp	 DWORD PTR [eax+20], 16	; 00000010H

; 2293 :         if (_Large_string_engaged()) {

  0000a	72 02		 jb	 SHORT $LN6@Applicatio
; File E:\Metin2_server\SolWayneSF v6\ClientVS22\source\UserInterface\UserInterface.cpp

; 150  : 	return ApplicationStringTable_GetString(dwID, szKey).c_str();

  0000c	8b 00		 mov	 eax, DWORD PTR [eax]
$LN6@Applicatio:

; 151  : }

  0000e	59		 pop	 ecx
  0000f	c3		 ret	 0
?ApplicationStringTable_GetStringz@@YAPBDKPBD@Z ENDP	; ApplicationStringTable_GetStringz
_TEXT	ENDS
; Function compile flags: /Ogtp
; File E:\Metin2_server\SolWayneSF v6\ClientVS22\source\UserInterface\UserInterface.cpp
; File C:\Program Files\Microsoft Visual Studio\2022\Community\VC\Tools\MSVC\14.34.31933\include\xstring
; File E:\Metin2_server\SolWayneSF v6\ClientVS22\source\UserInterface\UserInterface.cpp
; File C:\Program Files\Microsoft Visual Studio\2022\Community\VC\Tools\MSVC\14.34.31933\include\xstring
; File E:\Metin2_server\SolWayneSF v6\ClientVS22\source\UserInterface\UserInterface.cpp
;	COMDAT ?ApplicationStringTable_GetString@@YAABV?$basic_string@DU?$char_traits@D@std@@V?$allocator@D@2@@std@@K@Z
_TEXT	SEGMENT
_dwID$ = -524						; size = 4
_szBuffer$ = -520					; size = 512
__$ArrayPad$ = -4					; size = 4
?ApplicationStringTable_GetString@@YAABV?$basic_string@DU?$char_traits@D@std@@V?$allocator@D@2@@std@@K@Z PROC ; ApplicationStringTable_GetString, COMDAT
; _dwID$dead$ = ecx

; 138  : {

  00000	55		 push	 ebp
  00001	8b ec		 mov	 ebp, esp
  00003	81 ec 14 02 00
	00		 sub	 esp, 532		; 00000214H
  00009	a1 00 00 00 00	 mov	 eax, DWORD PTR ___security_cookie
  0000e	33 c5		 xor	 eax, ebp
  00010	89 45 fc	 mov	 DWORD PTR __$ArrayPad$[ebp], eax
  00013	56		 push	 esi

; 139  : 	char szBuffer[512];
; 140  : 
; 141  : 	LoadString(gs_kAppStrTable.m_hInstance, dwID, szBuffer, sizeof(szBuffer)-1);

  00014	68 ff 01 00 00	 push	 511			; 000001ffH
  00019	8d 85 f8 fd ff
	ff		 lea	 eax, DWORD PTR _szBuffer$[ebp]
  0001f	c7 85 f4 fd ff
	ff 02 00 00 00	 mov	 DWORD PTR _dwID$[ebp], 2
  00029	50		 push	 eax
  0002a	6a 02		 push	 2
  0002c	ff 35 00 00 00
	00		 push	 DWORD PTR ?gs_kAppStrTable@@3UApplicationStringTable@@A
  00032	ff 15 00 00 00
	00		 call	 DWORD PTR __imp__LoadStringA@16

; 142  : 	std::string& rstLocale=gs_kAppStrTable.m_kMap_dwID_stLocale[dwID];

  00038	8d 85 f4 fd ff
	ff		 lea	 eax, DWORD PTR _dwID$[ebp]
  0003e	b9 04 00 00 00	 mov	 ecx, OFFSET ?gs_kAppStrTable@@3UApplicationStringTable@@A+4
  00043	50		 push	 eax
  00044	e8 00 00 00 00	 call	 ??A?$map@KV?$basic_string@DU?$char_traits@D@std@@V?$allocator@D@2@@std@@U?$less@K@2@V?$allocator@U?$pair@$$CBKV?$basic_string@DU?$char_traits@D@std@@V?$allocator@D@2@@std@@@std@@@2@@std@@QAEAAV?$basic_string@DU?$char_traits@D@std@@V?$allocator@D@2@@1@ABK@Z ; std::map<unsigned long,std::basic_string<char,std::char_traits<char>,std::allocator<char> >,std::less<unsigned long>,std::allocator<std::pair<unsigned long const ,std::basic_string<char,std::char_traits<char>,std::allocator<char> > > > >::operator[]
; File C:\Program Files\Microsoft Visual Studio\2022\Community\VC\Tools\MSVC\14.34.31933\include\xstring

; 415  :             return __builtin_strlen(_First);

  00049	8d 8d f8 fd ff
	ff		 lea	 ecx, DWORD PTR _szBuffer$[ebp]
; File E:\Metin2_server\SolWayneSF v6\ClientVS22\source\UserInterface\UserInterface.cpp

; 142  : 	std::string& rstLocale=gs_kAppStrTable.m_kMap_dwID_stLocale[dwID];

  0004f	8b f0		 mov	 esi, eax
; File C:\Program Files\Microsoft Visual Studio\2022\Community\VC\Tools\MSVC\14.34.31933\include\xstring

; 415  :             return __builtin_strlen(_First);

  00051	8d 51 01	 lea	 edx, DWORD PTR [ecx+1]
$LL9@Applicatio:
  00054	8a 01		 mov	 al, BYTE PTR [ecx]
  00056	41		 inc	 ecx
  00057	84 c0		 test	 al, al
  00059	75 f9		 jne	 SHORT $LL9@Applicatio
  0005b	2b ca		 sub	 ecx, edx

; 3546 :         return assign(_Ptr, _Convert_size<size_type>(_Traits::length(_Ptr)));

  0005d	8d 85 f8 fd ff
	ff		 lea	 eax, DWORD PTR _szBuffer$[ebp]
  00063	51		 push	 ecx
  00064	50		 push	 eax
  00065	8b ce		 mov	 ecx, esi
  00067	e8 00 00 00 00	 call	 ?assign@?$basic_string@DU?$char_traits@D@std@@V?$allocator@D@2@@std@@QAEAAV12@QBDI@Z ; std::basic_string<char,std::char_traits<char>,std::allocator<char> >::assign
; File E:\Metin2_server\SolWayneSF v6\ClientVS22\source\UserInterface\UserInterface.cpp

; 146  : }

  0006c	8b 4d fc	 mov	 ecx, DWORD PTR __$ArrayPad$[ebp]
  0006f	8b c6		 mov	 eax, esi
  00071	33 cd		 xor	 ecx, ebp
  00073	5e		 pop	 esi
  00074	e8 00 00 00 00	 call	 @__security_check_cookie@4
  00079	8b e5		 mov	 esp, ebp
  0007b	5d		 pop	 ebp
  0007c	c3		 ret	 0
?ApplicationStringTable_GetString@@YAABV?$basic_string@DU?$char_traits@D@std@@V?$allocator@D@2@@std@@K@Z ENDP ; ApplicationStringTable_GetString
_TEXT	ENDS
; Function compile flags: /Ogtp
; File E:\Metin2_server\SolWayneSF v6\ClientVS22\source\UserInterface\Version.h
;	COMDAT ?METIN2_GET_VERSION@@YAHXZ
_TEXT	SEGMENT
?METIN2_GET_VERSION@@YAHXZ PROC				; METIN2_GET_VERSION, COMDAT

; 3    : int METIN2_GET_VERSION() { return 28249; }

  00000	b8 59 6e 00 00	 mov	 eax, 28249		; 00006e59H
  00005	c3		 ret	 0
?METIN2_GET_VERSION@@YAHXZ ENDP				; METIN2_GET_VERSION
_TEXT	ENDS
; Function compile flags: /Ogtp
; File E:\Metin2_server\SolWayneSF v6\ClientVS22\source\UserInterface\UserInterface.cpp
;	COMDAT ??__E_AVOID_FLOATING_POINT_LIBRARY_BUG@@YAXXZ
text$di	SEGMENT
??__E_AVOID_FLOATING_POINT_LIBRARY_BUG@@YAXXZ PROC	; `dynamic initializer for '_AVOID_FLOATING_POINT_LIBRARY_BUG'', COMDAT

; 25   : volatile int _AVOID_FLOATING_POINT_LIBRARY_BUG = _fltused;  

  00000	a1 00 00 00 00	 mov	 eax, DWORD PTR __fltused
  00005	a3 00 00 00 00	 mov	 DWORD PTR __AVOID_FLOATING_POINT_LIBRARY_BUG, eax
  0000a	c3		 ret	 0
??__E_AVOID_FLOATING_POINT_LIBRARY_BUG@@YAXXZ ENDP	; `dynamic initializer for '_AVOID_FLOATING_POINT_LIBRARY_BUG''
text$di	ENDS
; Function compile flags: /Ogtp
; File E:\Metin2_server\SolWayneSF v6\ClientVS22\source\UserInterface\UserInterface.cpp
;	COMDAT ??__E__iob_func@@YAXXZ
text$di	SEGMENT
??__E__iob_func@@YAXXZ PROC				; `dynamic initializer for '__iob_func'', COMDAT

; 27   : extern "C" { FILE __iob_func[3] = { *stdin,*stdout,*stderr }; }

  00000	6a 00		 push	 0
  00002	e8 00 00 00 00	 call	 ___acrt_iob_func
  00007	6a 01		 push	 1
  00009	8b 00		 mov	 eax, DWORD PTR [eax]
  0000b	a3 00 00 00 00	 mov	 DWORD PTR ___iob_func, eax
  00010	e8 00 00 00 00	 call	 ___acrt_iob_func
  00015	6a 02		 push	 2
  00017	8b 00		 mov	 eax, DWORD PTR [eax]
  00019	a3 04 00 00 00	 mov	 DWORD PTR ___iob_func+4, eax
  0001e	e8 00 00 00 00	 call	 ___acrt_iob_func
  00023	83 c4 0c	 add	 esp, 12			; 0000000cH
  00026	8b 00		 mov	 eax, DWORD PTR [eax]
  00028	a3 08 00 00 00	 mov	 DWORD PTR ___iob_func+8, eax
  0002d	c3		 ret	 0
??__E__iob_func@@YAXXZ ENDP				; `dynamic initializer for '__iob_func''
text$di	ENDS
; Function compile flags: /Ogtp
; File E:\Metin2_server\SolWayneSF v6\ClientVS22\source\UserInterface\UserInterface.cpp
; File C:\Program Files\Microsoft Visual Studio\2022\Community\VC\Tools\MSVC\14.34.31933\include\xstring
; File E:\Metin2_server\SolWayneSF v6\ClientVS22\source\UserInterface\UserInterface.cpp
; File C:\Program Files\Microsoft Visual Studio\2022\Community\VC\Tools\MSVC\14.34.31933\include\xstring
; File E:\Metin2_server\SolWayneSF v6\ClientVS22\source\UserInterface\UserInterface.cpp
; File C:\Program Files\Microsoft Visual Studio\2022\Community\VC\Tools\MSVC\14.34.31933\include\xstring
; File E:\Metin2_server\SolWayneSF v6\ClientVS22\source\UserInterface\UserInterface.cpp
; File C:\Program Files\Microsoft Visual Studio\2022\Community\VC\Tools\MSVC\14.34.31933\include\xstring
; File E:\Metin2_server\SolWayneSF v6\ClientVS22\source\UserInterface\UserInterface.cpp
; File C:\Program Files\Microsoft Visual Studio\2022\Community\VC\Tools\MSVC\14.34.31933\include\xstring
; File E:\Metin2_server\SolWayneSF v6\ClientVS22\source\UserInterface\UserInterface.cpp
; File C:\Program Files\Microsoft Visual Studio\2022\Community\VC\Tools\MSVC\14.34.31933\include\xstring
; File C:\Program Files\Microsoft Visual Studio\2022\Community\VC\Tools\MSVC\14.34.31933\include\xmemory
; File C:\Program Files\Microsoft Visual Studio\2022\Community\VC\Tools\MSVC\14.34.31933\include\xstring
; File C:\Program Files\Microsoft Visual Studio\2022\Community\VC\Tools\MSVC\14.34.31933\include\xmemory
; File E:\Metin2_server\SolWayneSF v6\ClientVS22\source\UserInterface\UserInterface.cpp
; File C:\Program Files\Microsoft Visual Studio\2022\Community\VC\Tools\MSVC\14.34.31933\include\xstring
; File C:\Program Files\Microsoft Visual Studio\2022\Community\VC\Tools\MSVC\14.34.31933\include\xmemory
; File C:\Program Files\Microsoft Visual Studio\2022\Community\VC\Tools\MSVC\14.34.31933\include\xstring
; File C:\Program Files\Microsoft Visual Studio\2022\Community\VC\Tools\MSVC\14.34.31933\include\xmemory
; File E:\Metin2_server\SolWayneSF v6\ClientVS22\source\UserInterface\UserInterface.cpp
; File C:\Program Files\Microsoft Visual Studio\2022\Community\VC\Tools\MSVC\14.34.31933\include\xmemory
; File E:\Metin2_server\SolWayneSF v6\ClientVS22\source\UserInterface\UserInterface.cpp
;	COMDAT ?CheckPythonLibraryFilenames@@YA_NXZ
_TEXT	SEGMENT
_stFilename$2 = -40					; size = 24
__$ArrayPad$ = -16					; size = 4
__$EHRec$ = -12						; size = 12
?CheckPythonLibraryFilenames@@YA_NXZ PROC		; CheckPythonLibraryFilenames, COMDAT

; 81   : {

  00000	55		 push	 ebp
  00001	8b ec		 mov	 ebp, esp
  00003	6a ff		 push	 -1
  00005	68 00 00 00 00	 push	 __ehhandler$?CheckPythonLibraryFilenames@@YA_NXZ
  0000a	64 a1 00 00 00
	00		 mov	 eax, DWORD PTR fs:0
  00010	50		 push	 eax
  00011	83 ec 1c	 sub	 esp, 28			; 0000001cH
  00014	a1 00 00 00 00	 mov	 eax, DWORD PTR ___security_cookie
  00019	33 c5		 xor	 eax, ebp
  0001b	89 45 f0	 mov	 DWORD PTR __$ArrayPad$[ebp], eax
  0001e	56		 push	 esi
  0001f	57		 push	 edi
  00020	50		 push	 eax
  00021	8d 45 f4	 lea	 eax, DWORD PTR __$EHRec$[ebp]
  00024	64 a3 00 00 00
	00		 mov	 DWORD PTR fs:0, eax

; 82   : 	for (int i = 0; *sc_apszPythonLibraryFilenames[i] != '\n'; ++i)

  0002a	a1 00 00 00 00	 mov	 eax, DWORD PTR ?sc_apszPythonLibraryFilenames@@3PAPBDA
  0002f	33 ff		 xor	 edi, edi
  00031	80 38 0a	 cmp	 BYTE PTR [eax], 10	; 0000000aH
  00034	0f 84 b7 00 00
	00		 je	 $LN3@CheckPytho
  0003a	66 0f 1f 44 00
	00		 npad	 6
$LL4@CheckPytho:
  00040	0f 57 c0	 xorps	 xmm0, xmm0
; File C:\Program Files\Microsoft Visual Studio\2022\Community\VC\Tools\MSVC\14.34.31933\include\xstring

; 2748 :             _My_data._Mysize = _Count;

  00043	c7 45 e8 04 00
	00 00		 mov	 DWORD PTR _stFilename$2[ebp+16], 4

; 2339 :         _CONSTEXPR20 _Bxty() noexcept : _Buf() {} // user-provided, for fancy pointers

  0004a	0f 11 45 d8	 movups	 XMMWORD PTR _stFilename$2[ebp], xmm0

; 2749 :             _My_data._Myres  = _BUF_SIZE - 1;

  0004e	c7 45 ec 0f 00
	00 00		 mov	 DWORD PTR _stFilename$2[ebp+20], 15 ; 0000000fH

; 117  :         _CSTD memmove(_First1, _First2, _Count * sizeof(_Elem));

  00055	c7 45 d8 6c 69
	62 5c		 mov	 DWORD PTR _stFilename$2[ebp], 1549953388 ; 5c62696cH

; 3383 :         return append(_Ptr);

  0005c	50		 push	 eax
  0005d	8d 4d d8	 lea	 ecx, DWORD PTR _stFilename$2[ebp]
; File E:\Metin2_server\SolWayneSF v6\ClientVS22\source\UserInterface\UserInterface.cpp

; 84   : 		std::string stFilename = "lib\\";

  00060	c7 45 fc 00 00
	00 00		 mov	 DWORD PTR __$EHRec$[ebp+8], 0
; File C:\Program Files\Microsoft Visual Studio\2022\Community\VC\Tools\MSVC\14.34.31933\include\xstring

; 3383 :         return append(_Ptr);

  00067	e8 00 00 00 00	 call	 ?append@?$basic_string@DU?$char_traits@D@std@@V?$allocator@D@2@@std@@QAEAAV12@QBD@Z ; std::basic_string<char,std::char_traits<char>,std::allocator<char> >::append

; 2293 :         if (_Large_string_engaged()) {

  0006c	83 7d ec 10	 cmp	 DWORD PTR _stFilename$2[ebp+20], 16 ; 00000010H
  00070	8d 45 d8	 lea	 eax, DWORD PTR _stFilename$2[ebp]
; File E:\Metin2_server\SolWayneSF v6\ClientVS22\source\UserInterface\UserInterface.cpp

; 87   : 		if (_access(stFilename.c_str(), 0) != 0)

  00073	6a 00		 push	 0
; File C:\Program Files\Microsoft Visual Studio\2022\Community\VC\Tools\MSVC\14.34.31933\include\xstring

; 2293 :         if (_Large_string_engaged()) {

  00075	0f 43 45 d8	 cmovae	 eax, DWORD PTR _stFilename$2[ebp]
; File E:\Metin2_server\SolWayneSF v6\ClientVS22\source\UserInterface\UserInterface.cpp

; 87   : 		if (_access(stFilename.c_str(), 0) != 0)

  00079	50		 push	 eax
  0007a	e8 00 00 00 00	 call	 __access
  0007f	83 c4 08	 add	 esp, 8
  00082	85 c0		 test	 eax, eax
  00084	0f 85 84 00 00
	00		 jne	 $LN170@CheckPytho
; File C:\Program Files\Microsoft Visual Studio\2022\Community\VC\Tools\MSVC\14.34.31933\include\xstring

; 2301 :         return _BUF_SIZE <= _Myres;

  0008a	83 7d ec 10	 cmp	 DWORD PTR _stFilename$2[ebp+20], 16 ; 00000010H

; 2292 :         const value_type* _Result = _Bx._Buf;

  0008e	8d 75 d8	 lea	 esi, DWORD PTR _stFilename$2[ebp]
  00091	8d 4d d8	 lea	 ecx, DWORD PTR _stFilename$2[ebp]

; 2293 :         if (_Large_string_engaged()) {

  00094	0f 43 75 d8	 cmovae	 esi, DWORD PTR _stFilename$2[ebp]

; 2301 :         return _BUF_SIZE <= _Myres;

  00098	0f 93 c2	 setae	 dl

; 2293 :         if (_Large_string_engaged()) {

  0009b	84 d2		 test	 dl, dl
; File E:\Metin2_server\SolWayneSF v6\ClientVS22\source\UserInterface\UserInterface.cpp

; 92   : 		MoveFile(stFilename.c_str(), stFilename.c_str());

  0009d	56		 push	 esi
; File C:\Program Files\Microsoft Visual Studio\2022\Community\VC\Tools\MSVC\14.34.31933\include\xstring

; 2293 :         if (_Large_string_engaged()) {

  0009e	0f 45 4d d8	 cmovne	 ecx, DWORD PTR _stFilename$2[ebp]
; File E:\Metin2_server\SolWayneSF v6\ClientVS22\source\UserInterface\UserInterface.cpp

; 92   : 		MoveFile(stFilename.c_str(), stFilename.c_str());

  000a2	51		 push	 ecx
  000a3	ff 15 00 00 00
	00		 call	 DWORD PTR __imp__MoveFileA@8

; 93   : 	}

  000a9	c7 45 fc ff ff
	ff ff		 mov	 DWORD PTR __$EHRec$[ebp+8], -1
; File C:\Program Files\Microsoft Visual Studio\2022\Community\VC\Tools\MSVC\14.34.31933\include\xstring

; 2301 :         return _BUF_SIZE <= _Myres;

  000b0	8b 4d ec	 mov	 ecx, DWORD PTR _stFilename$2[ebp+20]
  000b3	83 f9 10	 cmp	 ecx, 16			; 00000010H

; 5008 :         if (_My_data._Large_string_engaged()) {

  000b6	72 28		 jb	 SHORT $LN144@CheckPytho
; File C:\Program Files\Microsoft Visual Studio\2022\Community\VC\Tools\MSVC\14.34.31933\include\xmemory

; 830  :         _Deallocate<_New_alignof<_Ty>>(_Ptr, sizeof(_Ty) * _Count);

  000b8	8b 55 d8	 mov	 edx, DWORD PTR _stFilename$2[ebp]
; File C:\Program Files\Microsoft Visual Studio\2022\Community\VC\Tools\MSVC\14.34.31933\include\xstring

; 5013 :             _Al.deallocate(_Ptr, _My_data._Myres + 1);

  000bb	41		 inc	 ecx
; File C:\Program Files\Microsoft Visual Studio\2022\Community\VC\Tools\MSVC\14.34.31933\include\xmemory

; 830  :         _Deallocate<_New_alignof<_Ty>>(_Ptr, sizeof(_Ty) * _Count);

  000bc	8b c2		 mov	 eax, edx

; 251  :         if (_Bytes >= _Big_allocation_threshold) { // boost the alignment of big allocations to help autovectorization

  000be	81 f9 00 10 00
	00		 cmp	 ecx, 4096		; 00001000H
  000c4	72 10		 jb	 SHORT $LN156@CheckPytho

; 150  :     const uintptr_t _Ptr_container   = _Ptr_user[-1];

  000c6	8b 50 fc	 mov	 edx, DWORD PTR [eax-4]
  000c9	83 c1 23	 add	 ecx, 35			; 00000023H
  000cc	2b c2		 sub	 eax, edx

; 164  :     _STL_VERIFY(_Back_shift >= _Min_back_shift && _Back_shift <= _Non_user_size, "invalid argument");

  000ce	83 c0 fc	 add	 eax, -4			; fffffffcH
  000d1	83 f8 1f	 cmp	 eax, 31			; 0000001fH
  000d4	77 6c		 ja	 SHORT $LN153@CheckPytho
$LN156@CheckPytho:

; 255  :         ::operator delete(_Ptr, _Bytes);

  000d6	51		 push	 ecx
  000d7	52		 push	 edx
  000d8	e8 00 00 00 00	 call	 ??3@YAXPAXI@Z		; operator delete
  000dd	83 c4 08	 add	 esp, 8
$LN144@CheckPytho:
; File E:\Metin2_server\SolWayneSF v6\ClientVS22\source\UserInterface\UserInterface.cpp

; 82   : 	for (int i = 0; *sc_apszPythonLibraryFilenames[i] != '\n'; ++i)

  000e0	8b 04 bd 04 00
	00 00		 mov	 eax, DWORD PTR ?sc_apszPythonLibraryFilenames@@3PAPBDA[edi*4+4]
  000e7	47		 inc	 edi
  000e8	80 38 0a	 cmp	 BYTE PTR [eax], 10	; 0000000aH
  000eb	0f 85 4f ff ff
	ff		 jne	 $LL4@CheckPytho
$LN3@CheckPytho:

; 94   : 
; 95   : 	return true;

  000f1	b0 01		 mov	 al, 1
$LN1@CheckPytho:

; 96   : }

  000f3	8b 4d f4	 mov	 ecx, DWORD PTR __$EHRec$[ebp]
  000f6	64 89 0d 00 00
	00 00		 mov	 DWORD PTR fs:0, ecx
  000fd	59		 pop	 ecx
  000fe	5f		 pop	 edi
  000ff	5e		 pop	 esi
  00100	8b 4d f0	 mov	 ecx, DWORD PTR __$ArrayPad$[ebp]
  00103	33 cd		 xor	 ecx, ebp
  00105	e8 00 00 00 00	 call	 @__security_check_cookie@4
  0010a	8b e5		 mov	 esp, ebp
  0010c	5d		 pop	 ebp
  0010d	c3		 ret	 0
$LN170@CheckPytho:
; File C:\Program Files\Microsoft Visual Studio\2022\Community\VC\Tools\MSVC\14.34.31933\include\xstring

; 2301 :         return _BUF_SIZE <= _Myres;

  0010e	8b 4d ec	 mov	 ecx, DWORD PTR _stFilename$2[ebp+20]
  00111	83 f9 10	 cmp	 ecx, 16			; 00000010H

; 5008 :         if (_My_data._Large_string_engaged()) {

  00114	72 28		 jb	 SHORT $LN101@CheckPytho
; File C:\Program Files\Microsoft Visual Studio\2022\Community\VC\Tools\MSVC\14.34.31933\include\xmemory

; 830  :         _Deallocate<_New_alignof<_Ty>>(_Ptr, sizeof(_Ty) * _Count);

  00116	8b 55 d8	 mov	 edx, DWORD PTR _stFilename$2[ebp]
; File C:\Program Files\Microsoft Visual Studio\2022\Community\VC\Tools\MSVC\14.34.31933\include\xstring

; 5013 :             _Al.deallocate(_Ptr, _My_data._Myres + 1);

  00119	41		 inc	 ecx
; File C:\Program Files\Microsoft Visual Studio\2022\Community\VC\Tools\MSVC\14.34.31933\include\xmemory

; 830  :         _Deallocate<_New_alignof<_Ty>>(_Ptr, sizeof(_Ty) * _Count);

  0011a	8b c2		 mov	 eax, edx

; 251  :         if (_Bytes >= _Big_allocation_threshold) { // boost the alignment of big allocations to help autovectorization

  0011c	81 f9 00 10 00
	00		 cmp	 ecx, 4096		; 00001000H
  00122	72 10		 jb	 SHORT $LN113@CheckPytho

; 150  :     const uintptr_t _Ptr_container   = _Ptr_user[-1];

  00124	8b 50 fc	 mov	 edx, DWORD PTR [eax-4]
  00127	83 c1 23	 add	 ecx, 35			; 00000023H
  0012a	2b c2		 sub	 eax, edx

; 164  :     _STL_VERIFY(_Back_shift >= _Min_back_shift && _Back_shift <= _Non_user_size, "invalid argument");

  0012c	83 c0 fc	 add	 eax, -4			; fffffffcH
  0012f	83 f8 1f	 cmp	 eax, 31			; 0000001fH
  00132	77 0e		 ja	 SHORT $LN153@CheckPytho
$LN113@CheckPytho:

; 255  :         ::operator delete(_Ptr, _Bytes);

  00134	51		 push	 ecx
  00135	52		 push	 edx
  00136	e8 00 00 00 00	 call	 ??3@YAXPAXI@Z		; operator delete
  0013b	83 c4 08	 add	 esp, 8
$LN101@CheckPytho:
; File E:\Metin2_server\SolWayneSF v6\ClientVS22\source\UserInterface\UserInterface.cpp

; 89   : 			return false;

  0013e	32 c0		 xor	 al, al
  00140	eb b1		 jmp	 SHORT $LN1@CheckPytho
$LN153@CheckPytho:
; File C:\Program Files\Microsoft Visual Studio\2022\Community\VC\Tools\MSVC\14.34.31933\include\xmemory

; 164  :     _STL_VERIFY(_Back_shift >= _Min_back_shift && _Back_shift <= _Non_user_size, "invalid argument");

  00142	e8 00 00 00 00	 call	 __invalid_parameter_noinfo_noreturn
$LN194@CheckPytho:
  00147	cc		 int	 3
_TEXT	ENDS
;	COMDAT text$x
text$x	SEGMENT
__unwindfunclet$?CheckPythonLibraryFilenames@@YA_NXZ$0:
  00000	8d 4d d8	 lea	 ecx, DWORD PTR _stFilename$2[ebp]
  00003	e9 00 00 00 00	 jmp	 ??1?$basic_string@DU?$char_traits@D@std@@V?$allocator@D@2@@std@@QAE@XZ ; std::basic_string<char,std::char_traits<char>,std::allocator<char> >::~basic_string<char,std::char_traits<char>,std::allocator<char> >
  00008	cc		 int	 3
  00009	cc		 int	 3
  0000a	cc		 int	 3
  0000b	cc		 int	 3
  0000c	cc		 int	 3
__ehhandler$?CheckPythonLibraryFilenames@@YA_NXZ:
  0000d	90		 npad	 1
  0000e	90		 npad	 1
  0000f	8b 54 24 08	 mov	 edx, DWORD PTR [esp+8]
  00013	8d 42 0c	 lea	 eax, DWORD PTR [edx+12]
  00016	8b 4a d8	 mov	 ecx, DWORD PTR [edx-40]
  00019	33 c8		 xor	 ecx, eax
  0001b	e8 00 00 00 00	 call	 @__security_check_cookie@4
  00020	8b 4a fc	 mov	 ecx, DWORD PTR [edx-4]
  00023	33 c8		 xor	 ecx, eax
  00025	e8 00 00 00 00	 call	 @__security_check_cookie@4
  0002a	b8 00 00 00 00	 mov	 eax, OFFSET __ehfuncinfo$?CheckPythonLibraryFilenames@@YA_NXZ
  0002f	e9 00 00 00 00	 jmp	 ___CxxFrameHandler3
text$x	ENDS
?CheckPythonLibraryFilenames@@YA_NXZ ENDP		; CheckPythonLibraryFilenames
; Function compile flags: /Ogtp
; File E:\Metin2_server\SolWayneSF v6\ClientVS22\source\UserInterface\UserInterface.cpp
; File C:\Program Files\Microsoft Visual Studio\2022\Community\VC\Tools\MSVC\14.34.31933\include\xmemory
; File E:\Metin2_server\SolWayneSF v6\ClientVS22\source\UserInterface\UserInterface.cpp
; File C:\Program Files\Microsoft Visual Studio\2022\Community\VC\Tools\MSVC\14.34.31933\include\xtree
; File E:\Metin2_server\SolWayneSF v6\ClientVS22\source\UserInterface\UserInterface.cpp
;	COMDAT ??__Egs_kAppStrTable@@YAXXZ
text$di	SEGMENT
??__Egs_kAppStrTable@@YAXXZ PROC			; `dynamic initializer for 'gs_kAppStrTable'', COMDAT

; 102  : } gs_kAppStrTable;

  00000	55		 push	 ebp
  00001	8b ec		 mov	 ebp, esp
  00003	51		 push	 ecx
; File C:\Program Files\Microsoft Visual Studio\2022\Community\VC\Tools\MSVC\14.34.31933\include\xmemory

; 77   :         return ::operator new(_Bytes);

  00004	6a 2c		 push	 44			; 0000002cH
  00006	e8 00 00 00 00	 call	 ??2@YAPAXI@Z		; operator new
; File E:\Metin2_server\SolWayneSF v6\ClientVS22\source\UserInterface\UserInterface.cpp

; 102  : } gs_kAppStrTable;

  0000b	68 00 00 00 00	 push	 OFFSET ??__Fgs_kAppStrTable@@YAXXZ ; `dynamic atexit destructor for 'gs_kAppStrTable''
; File C:\Program Files\Microsoft Visual Studio\2022\Community\VC\Tools\MSVC\14.34.31933\include\xtree

; 347  :         _Construct_in_place(_Pnode->_Left, _Pnode);

  00010	89 00		 mov	 DWORD PTR [eax], eax

; 348  :         _Construct_in_place(_Pnode->_Parent, _Pnode);

  00012	89 40 04	 mov	 DWORD PTR [eax+4], eax

; 349  :         _Construct_in_place(_Pnode->_Right, _Pnode);

  00015	89 40 08	 mov	 DWORD PTR [eax+8], eax

; 350  :         _Pnode->_Color = _Black;

  00018	66 c7 40 0c 01
	01		 mov	 WORD PTR [eax+12], 257	; 00000101H

; 1941 :         _Scary->_Myhead = _Node::_Buyheadnode(_Getal());

  0001e	a3 04 00 00 00	 mov	 DWORD PTR ?gs_kAppStrTable@@3UApplicationStringTable@@A+4, eax
; File E:\Metin2_server\SolWayneSF v6\ClientVS22\source\UserInterface\UserInterface.cpp

; 102  : } gs_kAppStrTable;

  00023	e8 00 00 00 00	 call	 _atexit
  00028	83 c4 08	 add	 esp, 8
  0002b	8b e5		 mov	 esp, ebp
  0002d	5d		 pop	 ebp
  0002e	c3		 ret	 0
??__Egs_kAppStrTable@@YAXXZ ENDP			; `dynamic initializer for 'gs_kAppStrTable''
text$di	ENDS
; Function compile flags: /Ogtp
; File C:\Program Files\Microsoft Visual Studio\2022\Community\VC\Tools\MSVC\14.34.31933\include\xtree
; File C:\Program Files\Microsoft Visual Studio\2022\Community\VC\Tools\MSVC\14.34.31933\include\xmemory
;	COMDAT ??__Fgs_kAppStrTable@@YAXXZ
text$yd	SEGMENT
??__Fgs_kAppStrTable@@YAXXZ PROC			; `dynamic atexit destructor for 'gs_kAppStrTable'', COMDAT
; File C:\Program Files\Microsoft Visual Studio\2022\Community\VC\Tools\MSVC\14.34.31933\include\xtree

; 754  :         _Erase_tree(_Al, _Myhead->_Parent);

  00000	a1 04 00 00 00	 mov	 eax, DWORD PTR ?gs_kAppStrTable@@3UApplicationStringTable@@A+4
  00005	b9 04 00 00 00	 mov	 ecx, OFFSET ?gs_kAppStrTable@@3UApplicationStringTable@@A+4
  0000a	ff 70 04	 push	 DWORD PTR [eax+4]
  0000d	68 04 00 00 00	 push	 OFFSET ?gs_kAppStrTable@@3UApplicationStringTable@@A+4
  00012	e8 00 00 00 00	 call	 ??$_Erase_tree@V?$allocator@U?$_Tree_node@U?$pair@$$CBKV?$basic_string@DU?$char_traits@D@std@@V?$allocator@D@2@@std@@@std@@PAX@std@@@std@@@?$_Tree_val@U?$_Tree_simple_types@U?$pair@$$CBKV?$basic_string@DU?$char_traits@D@std@@V?$allocator@D@2@@std@@@std@@@std@@@std@@QAEXAAV?$allocator@U?$_Tree_node@U?$pair@$$CBKV?$basic_string@DU?$char_traits@D@std@@V?$allocator@D@2@@std@@@std@@PAX@std@@@1@PAU?$_Tree_node@U?$pair@$$CBKV?$basic_string@DU?$char_traits@D@std@@V?$allocator@D@2@@std@@@std@@PAX@1@@Z ; std::_Tree_val<std::_Tree_simple_types<std::pair<unsigned long const ,std::basic_string<char,std::char_traits<char>,std::allocator<char> > > > >::_Erase_tree<std::allocator<std::_Tree_node<std::pair<unsigned long const ,std::basic_string<char,std::char_traits<char>,std::allocator<char> > >,void *> > >
; File C:\Program Files\Microsoft Visual Studio\2022\Community\VC\Tools\MSVC\14.34.31933\include\xmemory

; 255  :         ::operator delete(_Ptr, _Bytes);

  00017	6a 2c		 push	 44			; 0000002cH
  00019	ff 35 04 00 00
	00		 push	 DWORD PTR ?gs_kAppStrTable@@3UApplicationStringTable@@A+4
  0001f	e8 00 00 00 00	 call	 ??3@YAXPAXI@Z		; operator delete
  00024	83 c4 08	 add	 esp, 8
  00027	c3		 ret	 0
??__Fgs_kAppStrTable@@YAXXZ ENDP			; `dynamic atexit destructor for 'gs_kAppStrTable''
text$yd	ENDS
; Function compile flags: /Ogtp
; File C:\Program Files\Microsoft Visual Studio\2022\Community\VC\Tools\MSVC\14.34.31933\include\xmemory
; File C:\Program Files\Microsoft Visual Studio\2022\Community\VC\Tools\MSVC\14.34.31933\include\xtree
; File C:\Program Files\Microsoft Visual Studio\2022\Community\VC\Tools\MSVC\14.34.31933\include\xmemory
; File C:\Program Files\Microsoft Visual Studio\2022\Community\VC\Tools\MSVC\14.34.31933\include\xtree
;	COMDAT ??0ApplicationStringTable@@QAE@XZ
_TEXT	SEGMENT
??0ApplicationStringTable@@QAE@XZ PROC			; ApplicationStringTable::ApplicationStringTable, COMDAT
; _this$dead$ = ecx
  00000	55		 push	 ebp
  00001	8b ec		 mov	 ebp, esp
  00003	51		 push	 ecx
; File C:\Program Files\Microsoft Visual Studio\2022\Community\VC\Tools\MSVC\14.34.31933\include\xmemory

; 77   :         return ::operator new(_Bytes);

  00004	6a 2c		 push	 44			; 0000002cH
; File C:\Program Files\Microsoft Visual Studio\2022\Community\VC\Tools\MSVC\14.34.31933\include\xtree

; 437  :     _Tree_val() noexcept : _Myhead(), _Mysize(0) {}

  00006	c7 05 04 00 00
	00 00 00 00 00	 mov	 DWORD PTR ?gs_kAppStrTable@@3UApplicationStringTable@@A+4, 0
  00010	c7 05 08 00 00
	00 00 00 00 00	 mov	 DWORD PTR ?gs_kAppStrTable@@3UApplicationStringTable@@A+8, 0
; File C:\Program Files\Microsoft Visual Studio\2022\Community\VC\Tools\MSVC\14.34.31933\include\xmemory

; 77   :         return ::operator new(_Bytes);

  0001a	e8 00 00 00 00	 call	 ??2@YAPAXI@Z		; operator new
  0001f	83 c4 04	 add	 esp, 4
; File C:\Program Files\Microsoft Visual Studio\2022\Community\VC\Tools\MSVC\14.34.31933\include\xtree

; 347  :         _Construct_in_place(_Pnode->_Left, _Pnode);

  00022	89 00		 mov	 DWORD PTR [eax], eax

; 348  :         _Construct_in_place(_Pnode->_Parent, _Pnode);

  00024	89 40 04	 mov	 DWORD PTR [eax+4], eax

; 349  :         _Construct_in_place(_Pnode->_Right, _Pnode);

  00027	89 40 08	 mov	 DWORD PTR [eax+8], eax

; 350  :         _Pnode->_Color = _Black;

  0002a	66 c7 40 0c 01
	01		 mov	 WORD PTR [eax+12], 257	; 00000101H

; 1941 :         _Scary->_Myhead = _Node::_Buyheadnode(_Getal());

  00030	a3 04 00 00 00	 mov	 DWORD PTR ?gs_kAppStrTable@@3UApplicationStringTable@@A+4, eax
  00035	b8 00 00 00 00	 mov	 eax, OFFSET ?gs_kAppStrTable@@3UApplicationStringTable@@A ; gs_kAppStrTable
  0003a	8b e5		 mov	 esp, ebp
  0003c	5d		 pop	 ebp
  0003d	c3		 ret	 0
??0ApplicationStringTable@@QAE@XZ ENDP			; ApplicationStringTable::ApplicationStringTable
_TEXT	ENDS
; Function compile flags: /Ogtp
; File C:\Program Files\Microsoft Visual Studio\2022\Community\VC\Tools\MSVC\14.34.31933\include\xtree
; File C:\Program Files\Microsoft Visual Studio\2022\Community\VC\Tools\MSVC\14.34.31933\include\xmemory
;	COMDAT ??1ApplicationStringTable@@QAE@XZ
_TEXT	SEGMENT
??1ApplicationStringTable@@QAE@XZ PROC			; ApplicationStringTable::~ApplicationStringTable, COMDAT
; _this$ = ecx
; File C:\Program Files\Microsoft Visual Studio\2022\Community\VC\Tools\MSVC\14.34.31933\include\xtree

; 754  :         _Erase_tree(_Al, _Myhead->_Parent);

  00000	8b 41 04	 mov	 eax, DWORD PTR [ecx+4]
  00003	56		 push	 esi
  00004	8d 71 04	 lea	 esi, DWORD PTR [ecx+4]
  00007	8b ce		 mov	 ecx, esi
  00009	ff 70 04	 push	 DWORD PTR [eax+4]
  0000c	56		 push	 esi
  0000d	e8 00 00 00 00	 call	 ??$_Erase_tree@V?$allocator@U?$_Tree_node@U?$pair@$$CBKV?$basic_string@DU?$char_traits@D@std@@V?$allocator@D@2@@std@@@std@@PAX@std@@@std@@@?$_Tree_val@U?$_Tree_simple_types@U?$pair@$$CBKV?$basic_string@DU?$char_traits@D@std@@V?$allocator@D@2@@std@@@std@@@std@@@std@@QAEXAAV?$allocator@U?$_Tree_node@U?$pair@$$CBKV?$basic_string@DU?$char_traits@D@std@@V?$allocator@D@2@@std@@@std@@PAX@std@@@1@PAU?$_Tree_node@U?$pair@$$CBKV?$basic_string@DU?$char_traits@D@std@@V?$allocator@D@2@@std@@@std@@PAX@1@@Z ; std::_Tree_val<std::_Tree_simple_types<std::pair<unsigned long const ,std::basic_string<char,std::char_traits<char>,std::allocator<char> > > > >::_Erase_tree<std::allocator<std::_Tree_node<std::pair<unsigned long const ,std::basic_string<char,std::char_traits<char>,std::allocator<char> > >,void *> > >
; File C:\Program Files\Microsoft Visual Studio\2022\Community\VC\Tools\MSVC\14.34.31933\include\xmemory

; 255  :         ::operator delete(_Ptr, _Bytes);

  00012	6a 2c		 push	 44			; 0000002cH
  00014	ff 36		 push	 DWORD PTR [esi]
  00016	e8 00 00 00 00	 call	 ??3@YAXPAXI@Z		; operator delete
  0001b	83 c4 08	 add	 esp, 8
  0001e	5e		 pop	 esi
  0001f	c3		 ret	 0
??1ApplicationStringTable@@QAE@XZ ENDP			; ApplicationStringTable::~ApplicationStringTable
_TEXT	ENDS
; Function compile flags: /Ogtp
; File E:\Metin2_server\SolWayneSF v6\ClientVS22\source\UserInterface\UserInterface.cpp
;	COMDAT ?ApplicationStringTable_Initialize@@YAXPAUHINSTANCE__@@@Z
_TEXT	SEGMENT
?ApplicationStringTable_Initialize@@YAXPAUHINSTANCE__@@@Z PROC ; ApplicationStringTable_Initialize, COMDAT
; _hInstance$ = ecx

; 106  : 	gs_kAppStrTable.m_hInstance=hInstance;

  00000	89 0d 00 00 00
	00		 mov	 DWORD PTR ?gs_kAppStrTable@@3UApplicationStringTable@@A, ecx

; 107  : }

  00006	c3		 ret	 0
?ApplicationStringTable_Initialize@@YAXPAUHINSTANCE__@@@Z ENDP ; ApplicationStringTable_Initialize
_TEXT	ENDS
; Function compile flags: /Ogtp
; File E:\Metin2_server\SolWayneSF v6\ClientVS22\source\UserInterface\UserInterface.cpp
; File C:\Program Files\Microsoft Visual Studio\2022\Community\VC\Tools\MSVC\14.34.31933\include\xstring
; File E:\Metin2_server\SolWayneSF v6\ClientVS22\source\UserInterface\UserInterface.cpp
; File C:\Program Files\Microsoft Visual Studio\2022\Community\VC\Tools\MSVC\14.34.31933\include\xstring
; File E:\Metin2_server\SolWayneSF v6\ClientVS22\source\UserInterface\UserInterface.cpp
;	COMDAT ?ApplicationStringTable_GetString@@YAABV?$basic_string@DU?$char_traits@D@std@@V?$allocator@D@2@@std@@KPBD@Z
_TEXT	SEGMENT
_dwID$ = -1036						; size = 4
_szLocale$ = -1032					; size = 256
_szBuffer$ = -776					; size = 512
_szIniFileName$ = -264					; size = 256
__$ArrayPad$ = -4					; size = 4
?ApplicationStringTable_GetString@@YAABV?$basic_string@DU?$char_traits@D@std@@V?$allocator@D@2@@std@@KPBD@Z PROC ; ApplicationStringTable_GetString, COMDAT
; _dwID$ = ecx
; _szKey$ = edx

; 110  : {

  00000	55		 push	 ebp
  00001	8b ec		 mov	 ebp, esp
  00003	81 ec 0c 04 00
	00		 sub	 esp, 1036		; 0000040cH
  00009	a1 00 00 00 00	 mov	 eax, DWORD PTR ___security_cookie
  0000e	33 c5		 xor	 eax, ebp
  00010	89 45 fc	 mov	 DWORD PTR __$ArrayPad$[ebp], eax
  00013	53		 push	 ebx
  00014	56		 push	 esi
  00015	57		 push	 edi

; 111  : 	char szBuffer[512];
; 112  : 	char szIniFileName[256];
; 113  : 	char szLocale[256];
; 114  : 
; 115  : 	::GetCurrentDirectory(sizeof(szIniFileName), szIniFileName);

  00016	8d 85 f8 fe ff
	ff		 lea	 eax, DWORD PTR _szIniFileName$[ebp]
  0001c	89 8d f4 fb ff
	ff		 mov	 DWORD PTR _dwID$[ebp], ecx
  00022	50		 push	 eax
  00023	68 00 01 00 00	 push	 256			; 00000100H
  00028	8b f2		 mov	 esi, edx
  0002a	ff 15 00 00 00
	00		 call	 DWORD PTR __imp__GetCurrentDirectoryA@8

; 116  : 	if(szIniFileName[lstrlen(szIniFileName)-1] != '\\')

  00030	8d 85 f8 fe ff
	ff		 lea	 eax, DWORD PTR _szIniFileName$[ebp]
  00036	50		 push	 eax
  00037	ff 15 00 00 00
	00		 call	 DWORD PTR __imp__lstrlenA@4
  0003d	80 bc 05 f7 fe
	ff ff 5c	 cmp	 BYTE PTR _szIniFileName$[ebp+eax-1], 92 ; 0000005cH
  00045	74 1c		 je	 SHORT $LN2@Applicatio

; 117  : 		strcat(szIniFileName, "\\");

  00047	8d bd f8 fe ff
	ff		 lea	 edi, DWORD PTR _szIniFileName$[ebp]
  0004d	4f		 dec	 edi
  0004e	66 90		 npad	 2
$LL26@Applicatio:
  00050	8a 47 01	 mov	 al, BYTE PTR [edi+1]
  00053	8d 7f 01	 lea	 edi, DWORD PTR [edi+1]
  00056	84 c0		 test	 al, al
  00058	75 f6		 jne	 SHORT $LL26@Applicatio
  0005a	66 a1 00 00 00
	00		 mov	 ax, WORD PTR ??_C@_01KICIPPFI@?2@
  00060	66 89 07	 mov	 WORD PTR [edi], ax
$LN2@Applicatio:

; 118  : 	strcat(szIniFileName, "metin2client.dat");

  00063	8d 8d f8 fe ff
	ff		 lea	 ecx, DWORD PTR _szIniFileName$[ebp]
  00069	49		 dec	 ecx
  0006a	66 0f 1f 44 00
	00		 npad	 6
$LL27@Applicatio:
  00070	8a 41 01	 mov	 al, BYTE PTR [ecx+1]
  00073	8d 49 01	 lea	 ecx, DWORD PTR [ecx+1]
  00076	84 c0		 test	 al, al
  00078	75 f6		 jne	 SHORT $LL27@Applicatio
  0007a	a1 00 00 00 00	 mov	 eax, DWORD PTR ??_C@_0BB@FPBAACEA@metin2client?4dat@
  0007f	89 01		 mov	 DWORD PTR [ecx], eax
  00081	a1 04 00 00 00	 mov	 eax, DWORD PTR ??_C@_0BB@FPBAACEA@metin2client?4dat@+4
  00086	89 41 04	 mov	 DWORD PTR [ecx+4], eax
  00089	a1 08 00 00 00	 mov	 eax, DWORD PTR ??_C@_0BB@FPBAACEA@metin2client?4dat@+8
  0008e	89 41 08	 mov	 DWORD PTR [ecx+8], eax
  00091	a1 0c 00 00 00	 mov	 eax, DWORD PTR ??_C@_0BB@FPBAACEA@metin2client?4dat@+12
  00096	89 41 0c	 mov	 DWORD PTR [ecx+12], eax
  00099	a0 10 00 00 00	 mov	 al, BYTE PTR ??_C@_0BB@FPBAACEA@metin2client?4dat@+16
  0009e	88 41 10	 mov	 BYTE PTR [ecx+16], al

; 119  : 
; 120  : 	strcpy(szLocale, LocaleService_GetLocalePath());

  000a1	e8 00 00 00 00	 call	 ?LocaleService_GetLocalePath@@YAPBDXZ ; LocaleService_GetLocalePath
  000a6	8b d8		 mov	 ebx, eax
  000a8	8d bd f8 fb ff
	ff		 lea	 edi, DWORD PTR _szLocale$[ebp]
  000ae	8b d3		 mov	 edx, ebx
  000b0	2b fb		 sub	 edi, ebx
$LL8@Applicatio:
  000b2	8a 0a		 mov	 cl, BYTE PTR [edx]
  000b4	8d 52 01	 lea	 edx, DWORD PTR [edx+1]
  000b7	88 4c 17 ff	 mov	 BYTE PTR [edi+edx-1], cl
  000bb	84 c9		 test	 cl, cl
  000bd	75 f3		 jne	 SHORT $LL8@Applicatio

; 121  : 	if(strnicmp(szLocale, "locale/", strlen("locale/")) == 0)

  000bf	6a 07		 push	 7
  000c1	8d 85 f8 fb ff
	ff		 lea	 eax, DWORD PTR _szLocale$[ebp]
  000c7	68 00 00 00 00	 push	 OFFSET ??_C@_07GHKFPDHK@locale?1@
  000cc	50		 push	 eax
  000cd	e8 00 00 00 00	 call	 __strnicmp
  000d2	83 c4 0c	 add	 esp, 12			; 0000000cH
  000d5	85 c0		 test	 eax, eax
  000d7	75 18		 jne	 SHORT $LN3@Applicatio

; 122  : 		strcpy(szLocale, LocaleService_GetLocalePath() + strlen("locale/"));

  000d9	8d 4b 07	 lea	 ecx, DWORD PTR [ebx+7]
  000dc	8d 95 f8 fb ff
	ff		 lea	 edx, DWORD PTR _szLocale$[ebp]
  000e2	2b d1		 sub	 edx, ecx
$LL9@Applicatio:
  000e4	8a 01		 mov	 al, BYTE PTR [ecx]
  000e6	8d 49 01	 lea	 ecx, DWORD PTR [ecx+1]
  000e9	88 44 0a ff	 mov	 BYTE PTR [edx+ecx-1], al
  000ed	84 c0		 test	 al, al
  000ef	75 f3		 jne	 SHORT $LL9@Applicatio
$LN3@Applicatio:

; 123  : 	::GetPrivateProfileString(szLocale, szKey, NULL, szBuffer, sizeof(szBuffer)-1, szIniFileName);

  000f1	8b 3d 00 00 00
	00		 mov	 edi, DWORD PTR __imp__GetPrivateProfileStringA@24
  000f7	8d 85 f8 fe ff
	ff		 lea	 eax, DWORD PTR _szIniFileName$[ebp]
  000fd	50		 push	 eax
  000fe	68 ff 01 00 00	 push	 511			; 000001ffH
  00103	8d 85 f8 fc ff
	ff		 lea	 eax, DWORD PTR _szBuffer$[ebp]
  00109	50		 push	 eax
  0010a	6a 00		 push	 0
  0010c	56		 push	 esi
  0010d	8d 85 f8 fb ff
	ff		 lea	 eax, DWORD PTR _szLocale$[ebp]
  00113	50		 push	 eax
  00114	ff d7		 call	 edi

; 124  : 	if(szBuffer[0] == '\0')

  00116	80 bd f8 fc ff
	ff 00		 cmp	 BYTE PTR _szBuffer$[ebp], 0
  0011d	75 62		 jne	 SHORT $LN6@Applicatio

; 125  : 		LoadString(gs_kAppStrTable.m_hInstance, dwID, szBuffer, sizeof(szBuffer)-1);

  0011f	68 ff 01 00 00	 push	 511			; 000001ffH
  00124	8d 85 f8 fc ff
	ff		 lea	 eax, DWORD PTR _szBuffer$[ebp]
  0012a	50		 push	 eax
  0012b	ff b5 f4 fb ff
	ff		 push	 DWORD PTR _dwID$[ebp]
  00131	ff 35 00 00 00
	00		 push	 DWORD PTR ?gs_kAppStrTable@@3UApplicationStringTable@@A
  00137	ff 15 00 00 00
	00		 call	 DWORD PTR __imp__LoadStringA@16

; 126  : 	if(szBuffer[0] == '\0')

  0013d	80 bd f8 fc ff
	ff 00		 cmp	 BYTE PTR _szBuffer$[ebp], 0
  00144	75 3b		 jne	 SHORT $LN6@Applicatio

; 127  : 		::GetPrivateProfileString("en", szKey, NULL, szBuffer, sizeof(szBuffer)-1, szIniFileName);

  00146	8d 85 f8 fe ff
	ff		 lea	 eax, DWORD PTR _szIniFileName$[ebp]
  0014c	50		 push	 eax
  0014d	68 ff 01 00 00	 push	 511			; 000001ffH
  00152	8d 85 f8 fc ff
	ff		 lea	 eax, DWORD PTR _szBuffer$[ebp]
  00158	50		 push	 eax
  00159	6a 00		 push	 0
  0015b	56		 push	 esi
  0015c	68 00 00 00 00	 push	 OFFSET ??_C@_02LFNMGJAP@en@
  00161	ff d7		 call	 edi

; 128  : 	if(szBuffer[0] == '\0')

  00163	80 bd f8 fc ff
	ff 00		 cmp	 BYTE PTR _szBuffer$[ebp], 0
  0016a	75 15		 jne	 SHORT $LN6@Applicatio

; 129  : 		strcpy(szBuffer, szKey);

  0016c	8d 8d f8 fc ff
	ff		 lea	 ecx, DWORD PTR _szBuffer$[ebp]
  00172	2b ce		 sub	 ecx, esi
$LL10@Applicatio:
  00174	8a 06		 mov	 al, BYTE PTR [esi]
  00176	8d 76 01	 lea	 esi, DWORD PTR [esi+1]
  00179	88 44 31 ff	 mov	 BYTE PTR [ecx+esi-1], al
  0017d	84 c0		 test	 al, al
  0017f	75 f3		 jne	 SHORT $LL10@Applicatio
$LN6@Applicatio:

; 131  : 	std::string& rstLocale=gs_kAppStrTable.m_kMap_dwID_stLocale[dwID];

  00181	8d 85 f4 fb ff
	ff		 lea	 eax, DWORD PTR _dwID$[ebp]
  00187	b9 04 00 00 00	 mov	 ecx, OFFSET ?gs_kAppStrTable@@3UApplicationStringTable@@A+4
  0018c	50		 push	 eax
  0018d	e8 00 00 00 00	 call	 ??A?$map@KV?$basic_string@DU?$char_traits@D@std@@V?$allocator@D@2@@std@@U?$less@K@2@V?$allocator@U?$pair@$$CBKV?$basic_string@DU?$char_traits@D@std@@V?$allocator@D@2@@std@@@std@@@2@@std@@QAEAAV?$basic_string@DU?$char_traits@D@std@@V?$allocator@D@2@@1@ABK@Z ; std::map<unsigned long,std::basic_string<char,std::char_traits<char>,std::allocator<char> >,std::less<unsigned long>,std::allocator<std::pair<unsigned long const ,std::basic_string<char,std::char_traits<char>,std::allocator<char> > > > >::operator[]
; File C:\Program Files\Microsoft Visual Studio\2022\Community\VC\Tools\MSVC\14.34.31933\include\xstring

; 415  :             return __builtin_strlen(_First);

  00192	8d 8d f8 fc ff
	ff		 lea	 ecx, DWORD PTR _szBuffer$[ebp]
; File E:\Metin2_server\SolWayneSF v6\ClientVS22\source\UserInterface\UserInterface.cpp

; 131  : 	std::string& rstLocale=gs_kAppStrTable.m_kMap_dwID_stLocale[dwID];

  00198	8b f0		 mov	 esi, eax
; File C:\Program Files\Microsoft Visual Studio\2022\Community\VC\Tools\MSVC\14.34.31933\include\xstring

; 415  :             return __builtin_strlen(_First);

  0019a	8d 51 01	 lea	 edx, DWORD PTR [ecx+1]
  0019d	0f 1f 00	 npad	 3
$LL28@Applicatio:
  001a0	8a 01		 mov	 al, BYTE PTR [ecx]
  001a2	41		 inc	 ecx
  001a3	84 c0		 test	 al, al
  001a5	75 f9		 jne	 SHORT $LL28@Applicatio
  001a7	2b ca		 sub	 ecx, edx

; 3546 :         return assign(_Ptr, _Convert_size<size_type>(_Traits::length(_Ptr)));

  001a9	8d 85 f8 fc ff
	ff		 lea	 eax, DWORD PTR _szBuffer$[ebp]
  001af	51		 push	 ecx
  001b0	50		 push	 eax
  001b1	8b ce		 mov	 ecx, esi
  001b3	e8 00 00 00 00	 call	 ?assign@?$basic_string@DU?$char_traits@D@std@@V?$allocator@D@2@@std@@QAEAAV12@QBDI@Z ; std::basic_string<char,std::char_traits<char>,std::allocator<char> >::assign
; File E:\Metin2_server\SolWayneSF v6\ClientVS22\source\UserInterface\UserInterface.cpp

; 135  : }

  001b8	8b 4d fc	 mov	 ecx, DWORD PTR __$ArrayPad$[ebp]
  001bb	8b c6		 mov	 eax, esi
  001bd	5f		 pop	 edi
  001be	5e		 pop	 esi
  001bf	33 cd		 xor	 ecx, ebp
  001c1	5b		 pop	 ebx
  001c2	e8 00 00 00 00	 call	 @__security_check_cookie@4
  001c7	8b e5		 mov	 esp, ebp
  001c9	5d		 pop	 ebp
  001ca	c3		 ret	 0
?ApplicationStringTable_GetString@@YAABV?$basic_string@DU?$char_traits@D@std@@V?$allocator@D@2@@std@@KPBD@Z ENDP ; ApplicationStringTable_GetString
_TEXT	ENDS
; Function compile flags: /Ogtp
; File E:\Metin2_server\SolWayneSF v6\ClientVS22\source\UserInterface\UserInterface.cpp
; File C:\Program Files\Microsoft Visual Studio\2022\Community\VC\Tools\MSVC\14.34.31933\include\xstring
; File E:\Metin2_server\SolWayneSF v6\ClientVS22\source\UserInterface\UserInterface.cpp
; File C:\Program Files\Microsoft Visual Studio\2022\Community\VC\Tools\MSVC\14.34.31933\include\xstring
; File E:\Metin2_server\SolWayneSF v6\ClientVS22\source\UserInterface\UserInterface.cpp
; File C:\Program Files\Microsoft Visual Studio\2022\Community\VC\Tools\MSVC\14.34.31933\include\xstring
; File E:\Metin2_server\SolWayneSF v6\ClientVS22\source\UserInterface\UserInterface.cpp
; File C:\Program Files\Microsoft Visual Studio\2022\Community\VC\Tools\MSVC\14.34.31933\include\xstring
; File E:\Metin2_server\SolWayneSF v6\ClientVS22\source\UserInterface\UserInterface.cpp
; File C:\Program Files\Microsoft Visual Studio\2022\Community\VC\Tools\MSVC\14.34.31933\include\xstring
; File E:\Metin2_server\SolWayneSF v6\ClientVS22\source\UserInterface\UserInterface.cpp
; File C:\Program Files\Microsoft Visual Studio\2022\Community\VC\Tools\MSVC\14.34.31933\include\xstring
; File E:\Metin2_server\SolWayneSF v6\ClientVS22\source\UserInterface\UserInterface.cpp
; File C:\Program Files\Microsoft Visual Studio\2022\Community\VC\Tools\MSVC\14.34.31933\include\xstring
; File E:\Metin2_server\SolWayneSF v6\ClientVS22\source\UserInterface\UserInterface.cpp
; File C:\Program Files\Microsoft Visual Studio\2022\Community\VC\Tools\MSVC\14.34.31933\include\xstring
; File E:\Metin2_server\SolWayneSF v6\ClientVS22\source\UserInterface\UserInterface.cpp
; File C:\Program Files\Microsoft Visual Studio\2022\Community\VC\Tools\MSVC\14.34.31933\include\xstring
; File E:\Metin2_server\SolWayneSF v6\ClientVS22\source\UserInterface\UserInterface.cpp
; File C:\Program Files\Microsoft Visual Studio\2022\Community\VC\Tools\MSVC\14.34.31933\include\xstring
; File E:\Metin2_server\SolWayneSF v6\ClientVS22\source\UserInterface\UserInterface.cpp
; File C:\Program Files\Microsoft Visual Studio\2022\Community\VC\Tools\MSVC\14.34.31933\include\xstring
; File C:\Program Files\Microsoft Visual Studio\2022\Community\VC\Tools\MSVC\14.34.31933\include\xmemory
; File C:\Program Files\Microsoft Visual Studio\2022\Community\VC\Tools\MSVC\14.34.31933\include\xstring
; File C:\Program Files\Microsoft Visual Studio\2022\Community\VC\Tools\MSVC\14.34.31933\include\xmemory
; File C:\Program Files\Microsoft Visual Studio\2022\Community\VC\Tools\MSVC\14.34.31933\include\xstring
; File C:\Program Files\Microsoft Visual Studio\2022\Community\VC\Tools\MSVC\14.34.31933\include\xmemory
; File C:\Program Files\Microsoft Visual Studio\2022\Community\VC\Tools\MSVC\14.34.31933\include\xstring
; File C:\Program Files\Microsoft Visual Studio\2022\Community\VC\Tools\MSVC\14.34.31933\include\xmemory
; File C:\Program Files\Microsoft Visual Studio\2022\Community\VC\Tools\MSVC\14.34.31933\include\xstring
; File E:\Metin2_server\SolWayneSF v6\ClientVS22\source\UserInterface\UserInterface.cpp
; File C:\Program Files\Microsoft Visual Studio\2022\Community\VC\Tools\MSVC\14.34.31933\include\xstring
; File E:\Metin2_server\SolWayneSF v6\ClientVS22\source\UserInterface\UserInterface.cpp
; File C:\Program Files\Microsoft Visual Studio\2022\Community\VC\Tools\MSVC\14.34.31933\include\xstring
; File E:\Metin2_server\SolWayneSF v6\ClientVS22\source\UserInterface\UserInterface.cpp
; File C:\Program Files\Microsoft Visual Studio\2022\Community\VC\Tools\MSVC\14.34.31933\include\xstring
; File E:\Metin2_server\SolWayneSF v6\ClientVS22\source\UserInterface\UserInterface.cpp
; File C:\Program Files\Microsoft Visual Studio\2022\Community\VC\Tools\MSVC\14.34.31933\include\xstring
; File E:\Metin2_server\SolWayneSF v6\ClientVS22\source\UserInterface\UserInterface.cpp
; File C:\Program Files\Microsoft Visual Studio\2022\Community\VC\Tools\MSVC\14.34.31933\include\xstring
; File E:\Metin2_server\SolWayneSF v6\ClientVS22\source\UserInterface\UserInterface.cpp
; File C:\Program Files\Microsoft Visual Studio\2022\Community\VC\Tools\MSVC\14.34.31933\include\xstring
; File E:\Metin2_server\SolWayneSF v6\ClientVS22\source\UserInterface\UserInterface.cpp
; File C:\Program Files\Microsoft Visual Studio\2022\Community\VC\Tools\MSVC\14.34.31933\include\xstring
; File E:\Metin2_server\SolWayneSF v6\ClientVS22\source\UserInterface\UserInterface.cpp
; File C:\Program Files\Microsoft Visual Studio\2022\Community\VC\Tools\MSVC\14.34.31933\include\xstring
; File C:\Program Files\Microsoft Visual Studio\2022\Community\VC\Tools\MSVC\14.34.31933\include\xmemory
; File C:\Program Files\Microsoft Visual Studio\2022\Community\VC\Tools\MSVC\14.34.31933\include\xstring
; File C:\Program Files\Microsoft Visual Studio\2022\Community\VC\Tools\MSVC\14.34.31933\include\xmemory
; File C:\Program Files\Microsoft Visual Studio\2022\Community\VC\Tools\MSVC\14.34.31933\include\xstring
; File C:\Program Files\Microsoft Visual Studio\2022\Community\VC\Tools\MSVC\14.34.31933\include\xmemory
; File C:\Program Files\Microsoft Visual Studio\2022\Community\VC\Tools\MSVC\14.34.31933\include\xstring
; File C:\Program Files\Microsoft Visual Studio\2022\Community\VC\Tools\MSVC\14.34.31933\include\xmemory
; File E:\Metin2_server\SolWayneSF v6\ClientVS22\source\UserInterface\UserInterface.cpp
; File C:\Program Files\Microsoft Visual Studio\2022\Community\VC\Tools\MSVC\14.34.31933\include\xstring
; File E:\Metin2_server\SolWayneSF v6\ClientVS22\source\UserInterface\UserInterface.cpp
; File C:\Program Files\Microsoft Visual Studio\2022\Community\VC\Tools\MSVC\14.34.31933\include\xstring
; File C:\Program Files\Microsoft Visual Studio\2022\Community\VC\Tools\MSVC\14.34.31933\include\xmemory
; File C:\Program Files\Microsoft Visual Studio\2022\Community\VC\Tools\MSVC\14.34.31933\include\xstring
; File C:\Program Files\Microsoft Visual Studio\2022\Community\VC\Tools\MSVC\14.34.31933\include\xmemory
; File C:\Program Files\Microsoft Visual Studio\2022\Community\VC\Tools\MSVC\14.34.31933\include\xstring
; File C:\Program Files\Microsoft Visual Studio\2022\Community\VC\Tools\MSVC\14.34.31933\include\xmemory
; File C:\Program Files\Microsoft Visual Studio\2022\Community\VC\Tools\MSVC\14.34.31933\include\xstring
; File C:\Program Files\Microsoft Visual Studio\2022\Community\VC\Tools\MSVC\14.34.31933\include\xmemory
; File C:\Program Files\Microsoft Visual Studio\2022\Community\VC\Tools\MSVC\14.34.31933\include\xstring
; File E:\Metin2_server\SolWayneSF v6\ClientVS22\source\UserInterface\UserInterface.cpp
; File C:\Program Files\Microsoft Visual Studio\2022\Community\VC\Tools\MSVC\14.34.31933\include\xstring
; File C:\Program Files\Microsoft Visual Studio\2022\Community\VC\Tools\MSVC\14.34.31933\include\xmemory
; File C:\Program Files\Microsoft Visual Studio\2022\Community\VC\Tools\MSVC\14.34.31933\include\xstring
; File C:\Program Files\Microsoft Visual Studio\2022\Community\VC\Tools\MSVC\14.34.31933\include\xmemory
; File C:\Program Files\Microsoft Visual Studio\2022\Community\VC\Tools\MSVC\14.34.31933\include\xstring
; File C:\Program Files\Microsoft Visual Studio\2022\Community\VC\Tools\MSVC\14.34.31933\include\xmemory
; File C:\Program Files\Microsoft Visual Studio\2022\Community\VC\Tools\MSVC\14.34.31933\include\xstring
; File C:\Program Files\Microsoft Visual Studio\2022\Community\VC\Tools\MSVC\14.34.31933\include\xmemory
; File E:\Metin2_server\SolWayneSF v6\ClientVS22\source\UserInterface\UserInterface.cpp
; File C:\Program Files\Microsoft Visual Studio\2022\Community\VC\Tools\MSVC\14.34.31933\include\xmemory
; File C:\Program Files\Microsoft Visual Studio\2022\Community\VC\Tools\MSVC\14.34.31933\include\xstring
; File C:\Program Files\Microsoft Visual Studio\2022\Community\VC\Tools\MSVC\14.34.31933\include\xmemory
; File E:\Metin2_server\SolWayneSF v6\ClientVS22\source\UserInterface\UserInterface.cpp
;	COMDAT ?PackInitialize@@YA_NPBD@Z
_TEXT	SEGMENT
_TextLoader$ = -508					; size = 16
$T2 = -492						; size = 1
$T3 = -492						; size = 1
$T4 = -492						; size = 1
$T5 = -492						; size = 1
_pvData$ = -492						; size = 4
$T6 = -485						; size = 1
_file$ = -484						; size = 324
$T7 = -160						; size = 24
$T8 = -160						; size = 24
$T9 = -136						; size = 24
$T10 = -136						; size = 24
_strTexCachePackName$ = -112				; size = 24
_strPackName$ = -88					; size = 24
_stFileName$ = -64					; size = 24
_stFolder$ = -40					; size = 24
__$ArrayPad$ = -16					; size = 4
__$EHRec$ = -12						; size = 12
?PackInitialize@@YA_NPBD@Z PROC				; PackInitialize, COMDAT
; _c_pszFolder$dead$ = ecx

; 163  : {

  00000	55		 push	 ebp
  00001	8b ec		 mov	 ebp, esp
  00003	6a ff		 push	 -1
  00005	68 00 00 00 00	 push	 __ehhandler$?PackInitialize@@YA_NPBD@Z
  0000a	64 a1 00 00 00
	00		 mov	 eax, DWORD PTR fs:0
  00010	50		 push	 eax
  00011	81 ec f0 01 00
	00		 sub	 esp, 496		; 000001f0H
  00017	a1 00 00 00 00	 mov	 eax, DWORD PTR ___security_cookie
  0001c	33 c5		 xor	 eax, ebp
  0001e	89 45 f0	 mov	 DWORD PTR __$ArrayPad$[ebp], eax
  00021	53		 push	 ebx
  00022	56		 push	 esi
  00023	57		 push	 edi
  00024	50		 push	 eax
  00025	8d 45 f4	 lea	 eax, DWORD PTR __$EHRec$[ebp]
  00028	64 a3 00 00 00
	00		 mov	 DWORD PTR fs:0, eax

; 164  : 	NANOBEGIN

  0002e	eb		 DB	 -21			; ffffffebH
  0002f	03		 DB	 3
  00030	d6		 DB	 -42			; ffffffd6H
  00031	d7		 DB	 -41			; ffffffd7H
  00032	01		 DB	 1
  00033	6a 00		 push	 0
  00035	68 00 00 00 00	 push	 OFFSET ??_C@_04IPANLPFO@pack@
  0003a	e8 00 00 00 00	 call	 __access
  0003f	83 c4 08	 add	 esp, 8
  00042	85 c0		 test	 eax, eax
  00044	74 07		 je	 SHORT $LN5@PackInitia

; 165  : 	if (_access(c_pszFolder, 0) != 0)
; 166  : 		return true;

  00046	b0 01		 mov	 al, 1
  00048	e9 2c 06 00 00	 jmp	 $LN1@PackInitia
$LN5@PackInitia:
; File C:\Program Files\Microsoft Visual Studio\2022\Community\VC\Tools\MSVC\14.34.31933\include\xstring

; 2674 :         _Construct<_Construct_strategy::_From_ptr>(_Ptr, _Convert_size<size_type>(_Traits::length(_Ptr)));

  0004d	6a 04		 push	 4
  0004f	0f 57 c0	 xorps	 xmm0, xmm0

; 2348 :     size_type _Mysize = 0; // current length of string

  00052	c7 45 e8 00 00
	00 00		 mov	 DWORD PTR _stFolder$[ebp+16], 0

; 2674 :         _Construct<_Construct_strategy::_From_ptr>(_Ptr, _Convert_size<size_type>(_Traits::length(_Ptr)));

  00059	68 00 00 00 00	 push	 OFFSET ??_C@_04IPANLPFO@pack@
  0005e	8d 4d d8	 lea	 ecx, DWORD PTR _stFolder$[ebp]

; 2349 :     size_type _Myres  = 0; // current storage reserved for string

  00061	c7 45 ec 00 00
	00 00		 mov	 DWORD PTR _stFolder$[ebp+20], 0

; 2339 :         _CONSTEXPR20 _Bxty() noexcept : _Buf() {} // user-provided, for fancy pointers

  00068	0f 11 45 d8	 movups	 XMMWORD PTR _stFolder$[ebp], xmm0

; 2674 :         _Construct<_Construct_strategy::_From_ptr>(_Ptr, _Convert_size<size_type>(_Traits::length(_Ptr)));

  0006c	e8 00 00 00 00	 call	 ??$_Construct@$00PBD@?$basic_string@DU?$char_traits@D@std@@V?$allocator@D@2@@std@@AAEXQBDI@Z ; std::basic_string<char,std::char_traits<char>,std::allocator<char> >::_Construct<1,char const *>
; File E:\Metin2_server\SolWayneSF v6\ClientVS22\source\UserInterface\UserInterface.cpp

; 168  : 	std::string stFolder(c_pszFolder);

  00071	c7 45 fc 00 00
	00 00		 mov	 DWORD PTR __$EHRec$[ebp+8], 0
; File C:\Program Files\Microsoft Visual Studio\2022\Community\VC\Tools\MSVC\14.34.31933\include\xstring

; 3421 :         const size_type _Old_size = _Mypair._Myval2._Mysize;

  00078	8b 55 ec	 mov	 edx, DWORD PTR _stFolder$[ebp+20]
  0007b	8b c2		 mov	 eax, edx
  0007d	8b 4d e8	 mov	 ecx, DWORD PTR _stFolder$[ebp+16]
  00080	2b c1		 sub	 eax, ecx

; 3422 :         if (_Count <= _Mypair._Myval2._Myres - _Old_size) {

  00082	83 f8 01	 cmp	 eax, 1
  00085	72 18		 jb	 SHORT $LN537@PackInitia

; 3423 :             _ASAN_STRING_MODIFY(static_cast<difference_type>(_Count));
; 3424 :             _Mypair._Myval2._Mysize = _Old_size + _Count;

  00087	8d 41 01	 lea	 eax, DWORD PTR [ecx+1]

; 2284 :         if (_Large_string_engaged()) {

  0008a	83 fa 10	 cmp	 edx, 16			; 00000010H

; 3424 :             _Mypair._Myval2._Mysize = _Old_size + _Count;

  0008d	89 45 e8	 mov	 DWORD PTR _stFolder$[ebp+16], eax

; 2283 :         value_type* _Result = _Bx._Buf;

  00090	8d 45 d8	 lea	 eax, DWORD PTR _stFolder$[ebp]

; 2284 :         if (_Large_string_engaged()) {

  00093	0f 43 45 d8	 cmovae	 eax, DWORD PTR _stFolder$[ebp]

; 117  :         _CSTD memmove(_First1, _First2, _Count * sizeof(_Elem));

  00097	66 c7 04 08 2f
	00		 mov	 WORD PTR [eax+ecx], 47	; 0000002fH

; 3428 :             return *this;

  0009d	eb 17		 jmp	 SHORT $LN536@PackInitia
$LN537@PackInitia:

; 3429 :         }
; 3430 : 
; 3431 :         return _Reallocate_grow_by(

  0009f	6a 01		 push	 1
  000a1	68 00 00 00 00	 push	 OFFSET ??_C@_01KMDKNFGN@?1@
  000a6	ff b5 14 fe ff
	ff		 push	 DWORD PTR $T5[ebp]
  000ac	8d 4d d8	 lea	 ecx, DWORD PTR _stFolder$[ebp]
  000af	6a 01		 push	 1
  000b1	e8 00 00 00 00	 call	 ??$_Reallocate_grow_by@V<lambda_1>@?1??append@?$basic_string@DU?$char_traits@D@std@@V?$allocator@D@2@@std@@QAEAAV34@QBDI@Z@PBDI@?$basic_string@DU?$char_traits@D@std@@V?$allocator@D@2@@std@@AAEAAV01@IV<lambda_1>@?1??append@01@QAEAAV01@QBDI@Z@PBDI@Z ; std::basic_string<char,std::char_traits<char>,std::allocator<char> >::_Reallocate_grow_by<`std::basic_string<char,std::char_traits<char>,std::allocator<char> >::append'::`2'::<lambda_1>,char const *,unsigned int>
$LN536@PackInitia:
; File E:\Metin2_server\SolWayneSF v6\ClientVS22\source\UserInterface\UserInterface.cpp

; 171  : 	std::string stFileName(stFolder);

  000b6	8d 45 d8	 lea	 eax, DWORD PTR _stFolder$[ebp]
  000b9	50		 push	 eax
  000ba	8d 4d c0	 lea	 ecx, DWORD PTR _stFileName$[ebp]
  000bd	e8 00 00 00 00	 call	 ??0?$basic_string@DU?$char_traits@D@std@@V?$allocator@D@2@@std@@QAE@ABV01@@Z ; std::basic_string<char,std::char_traits<char>,std::allocator<char> >::basic_string<char,std::char_traits<char>,std::allocator<char> >
  000c2	c6 45 fc 01	 mov	 BYTE PTR __$EHRec$[ebp+8], 1
; File C:\Program Files\Microsoft Visual Studio\2022\Community\VC\Tools\MSVC\14.34.31933\include\xstring

; 3421 :         const size_type _Old_size = _Mypair._Myval2._Mysize;

  000c6	8b 55 d4	 mov	 edx, DWORD PTR _stFileName$[ebp+20]
  000c9	8b c2		 mov	 eax, edx
  000cb	8b 4d d0	 mov	 ecx, DWORD PTR _stFileName$[ebp+16]
  000ce	2b c1		 sub	 eax, ecx

; 3422 :         if (_Count <= _Mypair._Myval2._Myres - _Old_size) {

  000d0	6a 05		 push	 5
  000d2	68 00 00 00 00	 push	 OFFSET ??_C@_05FNNGFGLF@Index@
  000d7	83 f8 05	 cmp	 eax, 5
  000da	72 21		 jb	 SHORT $LN566@PackInitia

; 2284 :         if (_Large_string_engaged()) {

  000dc	83 fa 10	 cmp	 edx, 16			; 00000010H
  000df	8d 75 c0	 lea	 esi, DWORD PTR _stFileName$[ebp]

; 3424 :             _Mypair._Myval2._Mysize = _Old_size + _Count;

  000e2	8d 41 05	 lea	 eax, DWORD PTR [ecx+5]

; 2284 :         if (_Large_string_engaged()) {

  000e5	0f 43 75 c0	 cmovae	 esi, DWORD PTR _stFileName$[ebp]

; 3426 :             _Traits::move(_Old_ptr + _Old_size, _Ptr, _Count);

  000e9	03 f1		 add	 esi, ecx
  000eb	89 45 d0	 mov	 DWORD PTR _stFileName$[ebp+16], eax

; 117  :         _CSTD memmove(_First1, _First2, _Count * sizeof(_Elem));

  000ee	56		 push	 esi
  000ef	e8 00 00 00 00	 call	 _memmove
  000f4	83 c4 0c	 add	 esp, 12			; 0000000cH

; 3427 :             _Traits::assign(_Old_ptr[_Old_size + _Count], _Elem());

  000f7	c6 46 05 00	 mov	 BYTE PTR [esi+5], 0

; 3428 :             return *this;

  000fb	eb 10		 jmp	 SHORT $LN565@PackInitia
$LN566@PackInitia:

; 3429 :         }
; 3430 : 
; 3431 :         return _Reallocate_grow_by(

  000fd	ff b5 14 fe ff
	ff		 push	 DWORD PTR $T4[ebp]
  00103	8d 4d c0	 lea	 ecx, DWORD PTR _stFileName$[ebp]
  00106	6a 05		 push	 5
  00108	e8 00 00 00 00	 call	 ??$_Reallocate_grow_by@V<lambda_1>@?1??append@?$basic_string@DU?$char_traits@D@std@@V?$allocator@D@2@@std@@QAEAAV34@QBDI@Z@PBDI@?$basic_string@DU?$char_traits@D@std@@V?$allocator@D@2@@std@@AAEAAV01@IV<lambda_1>@?1??append@01@QAEAAV01@QBDI@Z@PBDI@Z ; std::basic_string<char,std::char_traits<char>,std::allocator<char> >::_Reallocate_grow_by<`std::basic_string<char,std::char_traits<char>,std::allocator<char> >::append'::`2'::<lambda_1>,char const *,unsigned int>
$LN565@PackInitia:
; File E:\Metin2_server\SolWayneSF v6\ClientVS22\source\UserInterface\UserInterface.cpp

; 174  : 	CMappedFile file;

  0010d	8d 8d 1c fe ff
	ff		 lea	 ecx, DWORD PTR _file$[ebp]
  00113	e8 00 00 00 00	 call	 ??0CMappedFile@@QAE@XZ	; CMappedFile::CMappedFile

; 177  : 	if (!file.Create(stFileName.c_str(), &pvData, 0, 0))

  00118	6a 00		 push	 0
  0011a	c6 45 fc 02	 mov	 BYTE PTR __$EHRec$[ebp+8], 2
  0011e	8d 8d 14 fe ff
	ff		 lea	 ecx, DWORD PTR _pvData$[ebp]
; File C:\Program Files\Microsoft Visual Studio\2022\Community\VC\Tools\MSVC\14.34.31933\include\xstring

; 2293 :         if (_Large_string_engaged()) {

  00124	83 7d d4 10	 cmp	 DWORD PTR _stFileName$[ebp+20], 16 ; 00000010H
  00128	8d 45 c0	 lea	 eax, DWORD PTR _stFileName$[ebp]
; File E:\Metin2_server\SolWayneSF v6\ClientVS22\source\UserInterface\UserInterface.cpp

; 177  : 	if (!file.Create(stFileName.c_str(), &pvData, 0, 0))

  0012b	6a 00		 push	 0
; File C:\Program Files\Microsoft Visual Studio\2022\Community\VC\Tools\MSVC\14.34.31933\include\xstring

; 2293 :         if (_Large_string_engaged()) {

  0012d	0f 43 45 c0	 cmovae	 eax, DWORD PTR _stFileName$[ebp]
; File E:\Metin2_server\SolWayneSF v6\ClientVS22\source\UserInterface\UserInterface.cpp

; 177  : 	if (!file.Create(stFileName.c_str(), &pvData, 0, 0))

  00131	51		 push	 ecx
  00132	50		 push	 eax
  00133	8d 8d 1c fe ff
	ff		 lea	 ecx, DWORD PTR _file$[ebp]
  00139	e8 00 00 00 00	 call	 ?Create@CMappedFile@@QAEHPBDPAPBXHH@Z ; CMappedFile::Create
  0013e	85 c0		 test	 eax, eax
  00140	75 3b		 jne	 SHORT $LN6@PackInitia
; File C:\Program Files\Microsoft Visual Studio\2022\Community\VC\Tools\MSVC\14.34.31933\include\xstring

; 2301 :         return _BUF_SIZE <= _Myres;

  00142	83 7d d4 10	 cmp	 DWORD PTR _stFileName$[ebp+20], 16 ; 00000010H

; 2292 :         const value_type* _Result = _Bx._Buf;

  00146	8d 45 c0	 lea	 eax, DWORD PTR _stFileName$[ebp]

; 2293 :         if (_Large_string_engaged()) {

  00149	0f 43 45 c0	 cmovae	 eax, DWORD PTR _stFileName$[ebp]
; File E:\Metin2_server\SolWayneSF v6\ClientVS22\source\UserInterface\UserInterface.cpp

; 179  : 		LogBoxf("FATAL ERROR! File not exist: %s", stFileName.c_str());

  0014d	50		 push	 eax
  0014e	68 00 00 00 00	 push	 OFFSET ??_C@_0CA@PJKENNIH@FATAL?5ERROR?$CB?5File?5not?5exist?3?5?$CFs@
  00153	e8 00 00 00 00	 call	 ?LogBoxf@@YAXPBDZZ	; LogBoxf
; File C:\Program Files\Microsoft Visual Studio\2022\Community\VC\Tools\MSVC\14.34.31933\include\xstring

; 2301 :         return _BUF_SIZE <= _Myres;

  00158	83 7d d4 10	 cmp	 DWORD PTR _stFileName$[ebp+20], 16 ; 00000010H

; 2292 :         const value_type* _Result = _Bx._Buf;

  0015c	8d 45 c0	 lea	 eax, DWORD PTR _stFileName$[ebp]

; 2293 :         if (_Large_string_engaged()) {

  0015f	0f 43 45 c0	 cmovae	 eax, DWORD PTR _stFileName$[ebp]
; File E:\Metin2_server\SolWayneSF v6\ClientVS22\source\UserInterface\UserInterface.cpp

; 180  : 		TraceError("FATAL ERROR! File not exist: %s", stFileName.c_str());

  00163	50		 push	 eax
  00164	68 00 00 00 00	 push	 OFFSET ??_C@_0CA@PJKENNIH@FATAL?5ERROR?$CB?5File?5not?5exist?3?5?$CFs@
  00169	e8 00 00 00 00	 call	 ?TraceError@@YAXPBDZZ	; TraceError
  0016e	83 c4 10	 add	 esp, 16			; 00000010H
  00171	c6 85 1b fe ff
	ff 01		 mov	 BYTE PTR $T6[ebp], 1
  00178	e9 79 04 00 00	 jmp	 $LN19@PackInitia
$LN6@PackInitia:

; 181  : 		return true;
; 182  : 	}
; 183  : 
; 184  : 	CMemoryTextFileLoader TextLoader;

  0017d	8d 8d 04 fe ff
	ff		 lea	 ecx, DWORD PTR _TextLoader$[ebp]
  00183	e8 00 00 00 00	 call	 ??0CMemoryTextFileLoader@@QAE@XZ ; CMemoryTextFileLoader::CMemoryTextFileLoader
  00188	c6 45 fc 03	 mov	 BYTE PTR __$EHRec$[ebp+8], 3

; 185  : 	TextLoader.Bind(file.Size(), pvData);

  0018c	8d 8d 1c fe ff
	ff		 lea	 ecx, DWORD PTR _file$[ebp]
  00192	8b b5 14 fe ff
	ff		 mov	 esi, DWORD PTR _pvData$[ebp]
  00198	e8 00 00 00 00	 call	 ?Size@CMappedFile@@QAEKXZ ; CMappedFile::Size
  0019d	56		 push	 esi
  0019e	50		 push	 eax
  0019f	8d 8d 04 fe ff
	ff		 lea	 ecx, DWORD PTR _TextLoader$[ebp]
  001a5	e8 00 00 00 00	 call	 ?Bind@CMemoryTextFileLoader@@QAEXHPBX@Z ; CMemoryTextFileLoader::Bind

; 186  : 
; 187  : 	bool bPackFirst = TRUE;
; 188  : 
; 189  : 	const std::string& strPackType = TextLoader.GetLineString(0);

  001aa	6a 00		 push	 0
  001ac	8d 8d 04 fe ff
	ff		 lea	 ecx, DWORD PTR _TextLoader$[ebp]
  001b2	e8 00 00 00 00	 call	 ?GetLineString@CMemoryTextFileLoader@@QAEABV?$basic_string@DU?$char_traits@D@std@@V?$allocator@D@2@@std@@K@Z ; CMemoryTextFileLoader::GetLineString
  001b7	8b f0		 mov	 esi, eax
; File C:\Program Files\Microsoft Visual Studio\2022\Community\VC\Tools\MSVC\14.34.31933\include\xstring

; 2293 :         if (_Large_string_engaged()) {

  001b9	83 7e 14 10	 cmp	 DWORD PTR [esi+20], 16	; 00000010H

; 4814 :         return _Traits_compare<_Traits>(_Mypair._Myval2._Myptr(), _Mypair._Myval2._Mysize, _Ptr, _Traits::length(_Ptr));

  001bd	8b 7e 10	 mov	 edi, DWORD PTR [esi+16]

; 2293 :         if (_Large_string_engaged()) {

  001c0	72 02		 jb	 SHORT $LN803@PackInitia

; 2294 :             _Result = _Unfancy(_Bx._Ptr);

  001c2	8b 06		 mov	 eax, DWORD PTR [esi]
$LN803@PackInitia:

; 4814 :         return _Traits_compare<_Traits>(_Mypair._Myval2._Myptr(), _Mypair._Myval2._Mysize, _Ptr, _Traits::length(_Ptr));

  001c4	6a 04		 push	 4
  001c6	68 00 00 00 00	 push	 OFFSET ??_C@_04PMPMHNFI@FILE@
  001cb	57		 push	 edi
  001cc	50		 push	 eax
  001cd	e8 00 00 00 00	 call	 ??$_Traits_compare@U?$char_traits@D@std@@@std@@YAHQBDI0I@Z ; std::_Traits_compare<std::char_traits<char> >
  001d2	83 c4 10	 add	 esp, 16			; 00000010H
; File E:\Metin2_server\SolWayneSF v6\ClientVS22\source\UserInterface\UserInterface.cpp

; 191  : 	if (strPackType.compare("FILE") && strPackType.compare("PACK"))

  001d5	85 c0		 test	 eax, eax
  001d7	74 36		 je	 SHORT $LN7@PackInitia
; File C:\Program Files\Microsoft Visual Studio\2022\Community\VC\Tools\MSVC\14.34.31933\include\xstring

; 2293 :         if (_Large_string_engaged()) {

  001d9	83 7e 14 10	 cmp	 DWORD PTR [esi+20], 16	; 00000010H
  001dd	72 02		 jb	 SHORT $LN661@PackInitia

; 2294 :             _Result = _Unfancy(_Bx._Ptr);

  001df	8b 36		 mov	 esi, DWORD PTR [esi]
$LN661@PackInitia:

; 4814 :         return _Traits_compare<_Traits>(_Mypair._Myval2._Myptr(), _Mypair._Myval2._Mysize, _Ptr, _Traits::length(_Ptr));

  001e1	6a 04		 push	 4
  001e3	68 00 00 00 00	 push	 OFFSET ??_C@_04EDDHFNCG@PACK@
  001e8	57		 push	 edi
  001e9	56		 push	 esi
  001ea	e8 00 00 00 00	 call	 ??$_Traits_compare@U?$char_traits@D@std@@@std@@YAHQBDI0I@Z ; std::_Traits_compare<std::char_traits<char> >
  001ef	83 c4 10	 add	 esp, 16			; 00000010H
; File E:\Metin2_server\SolWayneSF v6\ClientVS22\source\UserInterface\UserInterface.cpp

; 191  : 	if (strPackType.compare("FILE") && strPackType.compare("PACK"))

  001f2	85 c0		 test	 eax, eax
  001f4	74 19		 je	 SHORT $LN7@PackInitia

; 192  : 	{
; 193  : 		TraceError("Pack/Index has invalid syntax. First line must be 'PACK' or 'FILE'");

  001f6	68 00 00 00 00	 push	 OFFSET ??_C@_0ED@CBACJNDK@Pack?1Index?5has?5invalid?5syntax?4?5@
  001fb	e8 00 00 00 00	 call	 ?TraceError@@YAXPBDZZ	; TraceError
  00200	83 c4 04	 add	 esp, 4
  00203	c6 85 1b fe ff
	ff 00		 mov	 BYTE PTR $T6[ebp], 0
  0020a	e9 dc 03 00 00	 jmp	 $LN348@PackInitia
$LN7@PackInitia:

; 194  : 		return false;
; 195  : 	}
; 196  : 
; 197  : #ifdef _DISTRIBUTE
; 198  : 	Tracef(":  .\n");

  0020f	68 00 00 00 00	 push	 OFFSET ??_C@_0BG@FJMFFOHK@?$LO?K?$LI?$LC?3?5?F?Q?5?$LI?p?$LF?e?$MA?T?$LE?O?$LE?Y?4?6@
  00214	e8 00 00 00 00	 call	 ?Tracef@@YAXPBDZZ	; Tracef
  00219	83 c4 04	 add	 esp, 4

; 199  : 	
; 200  : 	//if (0 == strPackType.compare("FILE"))
; 201  : 	//{
; 202  : 	//	bPackFirst = FALSE;
; 203  : 	//	Tracef(":  .\n");
; 204  : 	//}
; 205  : 	//else
; 206  : 	//{
; 207  : 	//	Tracef(":  .\n");
; 208  : 	//}
; 209  : #else
; 210  : 	bPackFirst = FALSE;
; 211  : 	Tracef(":  .\n");
; 212  : #endif
; 213  : 
; 214  : 	CTextFileLoader::SetCacheMode();

  0021c	e8 00 00 00 00	 call	 ?SetCacheMode@CTextFileLoader@@SAXXZ ; CTextFileLoader::SetCacheMode

; 215  : #if defined(USE_RELATIVE_PATH)
; 216  : 	CEterPackManager::Instance().SetRelativePathMode();
; 217  : #endif
; 218  : 	CEterPackManager::Instance().SetCacheMode();

  00221	8b 0d 00 00 00
	00		 mov	 ecx, DWORD PTR ?ms_singleton@?$CSingleton@VCEterPackManager@@@@0PAVCEterPackManager@@A ; CSingleton<CEterPackManager>::ms_singleton
  00227	e8 00 00 00 00	 call	 ?SetCacheMode@CEterPackManager@@QAEXXZ ; CEterPackManager::SetCacheMode

; 219  : 	CEterPackManager::Instance().SetSearchMode(bPackFirst);

  0022c	8b 0d 00 00 00
	00		 mov	 ecx, DWORD PTR ?ms_singleton@?$CSingleton@VCEterPackManager@@@@0PAVCEterPackManager@@A ; CSingleton<CEterPackManager>::ms_singleton
  00232	6a 01		 push	 1
  00234	e8 00 00 00 00	 call	 ?SetSearchMode@CEterPackManager@@QAEX_N@Z ; CEterPackManager::SetSearchMode

; 220  : 
; 221  : 	CSoundData::SetPackMode(); // Miles   

  00239	e8 00 00 00 00	 call	 ?SetPackMode@CSoundData@@SAXXZ ; CSoundData::SetPackMode
  0023e	0f 57 c0	 xorps	 xmm0, xmm0
; File C:\Program Files\Microsoft Visual Studio\2022\Community\VC\Tools\MSVC\14.34.31933\include\xstring

; 4995 :         _My_data._Mysize = 0;

  00241	c7 45 b8 00 00
	00 00		 mov	 DWORD PTR _strPackName$[ebp+16], 0

; 2339 :         _CONSTEXPR20 _Bxty() noexcept : _Buf() {} // user-provided, for fancy pointers

  00248	0f 11 45 a8	 movups	 XMMWORD PTR _strPackName$[ebp], xmm0

; 4996 :         _My_data._Myres  = _BUF_SIZE - 1;

  0024c	c7 45 bc 0f 00
	00 00		 mov	 DWORD PTR _strPackName$[ebp+20], 15 ; 0000000fH

; 4997 :         _My_data._Activate_SSO_buffer();
; 4998 : 
; 4999 :         // the _Traits::assign is last so the codegen doesn't think the char write can alias this
; 5000 :         _Traits::assign(_My_data._Bx._Buf[0], _Elem());

  00253	c6 45 a8 00	 mov	 BYTE PTR _strPackName$[ebp], 0

; 2339 :         _CONSTEXPR20 _Bxty() noexcept : _Buf() {} // user-provided, for fancy pointers

  00257	0f 11 45 90	 movups	 XMMWORD PTR _strTexCachePackName$[ebp], xmm0

; 4995 :         _My_data._Mysize = 0;

  0025b	c7 45 a0 00 00
	00 00		 mov	 DWORD PTR _strTexCachePackName$[ebp+16], 0

; 4996 :         _My_data._Myres  = _BUF_SIZE - 1;

  00262	c7 45 a4 0f 00
	00 00		 mov	 DWORD PTR _strTexCachePackName$[ebp+20], 15 ; 0000000fH

; 4997 :         _My_data._Activate_SSO_buffer();
; 4998 : 
; 4999 :         // the _Traits::assign is last so the codegen doesn't think the char write can alias this
; 5000 :         _Traits::assign(_My_data._Bx._Buf[0], _Elem());

  00269	c6 45 90 00	 mov	 BYTE PTR _strTexCachePackName$[ebp], 0
; File E:\Metin2_server\SolWayneSF v6\ClientVS22\source\UserInterface\UserInterface.cpp

; 224  : 	for (DWORD i = 1; i < TextLoader.GetLineCount() - 1; i += 2)

  0026d	8d 8d 04 fe ff
	ff		 lea	 ecx, DWORD PTR _TextLoader$[ebp]
  00273	c6 45 fc 05	 mov	 BYTE PTR __$EHRec$[ebp+8], 5
  00277	bf 01 00 00 00	 mov	 edi, 1
  0027c	e8 00 00 00 00	 call	 ?GetLineCount@CMemoryTextFileLoader@@QAEKXZ ; CMemoryTextFileLoader::GetLineCount
  00281	48		 dec	 eax
  00282	3b c7		 cmp	 eax, edi
  00284	0f 86 9b 01 00
	00		 jbe	 $LN3@PackInitia
  0028a	66 0f 1f 44 00
	00		 npad	 6
$LL4@PackInitia:

; 225  : 	{
; 226  : 		const std::string & c_rstFolder = TextLoader.GetLineString(i);

  00290	57		 push	 edi
  00291	8d 8d 04 fe ff
	ff		 lea	 ecx, DWORD PTR _TextLoader$[ebp]
  00297	e8 00 00 00 00	 call	 ?GetLineString@CMemoryTextFileLoader@@QAEABV?$basic_string@DU?$char_traits@D@std@@V?$allocator@D@2@@std@@K@Z ; CMemoryTextFileLoader::GetLineString
  0029c	8b f0		 mov	 esi, eax

; 227  : 		const std::string & c_rstName = TextLoader.GetLineString(i + 1);

  0029e	8d 8d 04 fe ff
	ff		 lea	 ecx, DWORD PTR _TextLoader$[ebp]
  002a4	8d 47 01	 lea	 eax, DWORD PTR [edi+1]
  002a7	50		 push	 eax
  002a8	e8 00 00 00 00	 call	 ?GetLineString@CMemoryTextFileLoader@@QAEABV?$basic_string@DU?$char_traits@D@std@@V?$allocator@D@2@@std@@K@Z ; CMemoryTextFileLoader::GetLineString
; File C:\Program Files\Microsoft Visual Studio\2022\Community\VC\Tools\MSVC\14.34.31933\include\xstring

; 5078 :     if (_Left.max_size() - _Left_size < _Right_size) {

  002ad	b9 ff ff ff 7f	 mov	 ecx, 2147483647		; 7fffffffH
  002b2	2b 4d e8	 sub	 ecx, DWORD PTR _stFolder$[ebp+16]
  002b5	8b 50 10	 mov	 edx, DWORD PTR [eax+16]
  002b8	3b ca		 cmp	 ecx, edx
  002ba	0f 82 da 03 00
	00		 jb	 $LN744@PackInitia

; 2293 :         if (_Large_string_engaged()) {

  002c0	83 7d ec 10	 cmp	 DWORD PTR _stFolder$[ebp+20], 16 ; 00000010H
  002c4	8d 4d d8	 lea	 ecx, DWORD PTR _stFolder$[ebp]
  002c7	0f 43 4d d8	 cmovae	 ecx, DWORD PTR _stFolder$[ebp]
  002cb	83 78 14 10	 cmp	 DWORD PTR [eax+20], 16	; 00000010H
  002cf	72 02		 jb	 SHORT $LN387@PackInitia

; 2294 :             _Result = _Unfancy(_Bx._Ptr);

  002d1	8b 00		 mov	 eax, DWORD PTR [eax]
$LN387@PackInitia:

; 5082 :     return {_String_constructor_concat_tag{}, _Left, _Left.c_str(), _Left_size, _Right.c_str(), _Right_size};

  002d3	52		 push	 edx
  002d4	50		 push	 eax
  002d5	ff 75 e8	 push	 DWORD PTR _stFolder$[ebp+16]
  002d8	8d 45 d8	 lea	 eax, DWORD PTR _stFolder$[ebp]
  002db	51		 push	 ecx
  002dc	50		 push	 eax
  002dd	ff b5 14 fe ff
	ff		 push	 DWORD PTR $T3[ebp]
  002e3	8d 8d 60 ff ff
	ff		 lea	 ecx, DWORD PTR $T8[ebp]
  002e9	e8 00 00 00 00	 call	 ??0?$basic_string@DU?$char_traits@D@std@@V?$allocator@D@2@@std@@QAE@U_String_constructor_concat_tag@1@ABV01@QBDI2I@Z ; std::basic_string<char,std::char_traits<char>,std::allocator<char> >::basic_string<char,std::char_traits<char>,std::allocator<char> >

; 5008 :         if (_My_data._Large_string_engaged()) {

  002ee	8b 4d bc	 mov	 ecx, DWORD PTR _strPackName$[ebp+20]
  002f1	83 f9 10	 cmp	 ecx, 16			; 00000010H
  002f4	72 2c		 jb	 SHORT $LN403@PackInitia
; File C:\Program Files\Microsoft Visual Studio\2022\Community\VC\Tools\MSVC\14.34.31933\include\xmemory

; 830  :         _Deallocate<_New_alignof<_Ty>>(_Ptr, sizeof(_Ty) * _Count);

  002f6	8b 55 a8	 mov	 edx, DWORD PTR _strPackName$[ebp]
; File C:\Program Files\Microsoft Visual Studio\2022\Community\VC\Tools\MSVC\14.34.31933\include\xstring

; 5013 :             _Al.deallocate(_Ptr, _My_data._Myres + 1);

  002f9	41		 inc	 ecx
; File C:\Program Files\Microsoft Visual Studio\2022\Community\VC\Tools\MSVC\14.34.31933\include\xmemory

; 830  :         _Deallocate<_New_alignof<_Ty>>(_Ptr, sizeof(_Ty) * _Count);

  002fa	8b c2		 mov	 eax, edx

; 251  :         if (_Bytes >= _Big_allocation_threshold) { // boost the alignment of big allocations to help autovectorization

  002fc	81 f9 00 10 00
	00		 cmp	 ecx, 4096		; 00001000H
  00302	72 14		 jb	 SHORT $LN415@PackInitia

; 150  :     const uintptr_t _Ptr_container   = _Ptr_user[-1];

  00304	8b 50 fc	 mov	 edx, DWORD PTR [eax-4]
  00307	83 c1 23	 add	 ecx, 35			; 00000023H
  0030a	2b c2		 sub	 eax, edx

; 164  :     _STL_VERIFY(_Back_shift >= _Min_back_shift && _Back_shift <= _Non_user_size, "invalid argument");

  0030c	83 c0 fc	 add	 eax, -4			; fffffffcH
  0030f	83 f8 1f	 cmp	 eax, 31			; 0000001fH
  00312	0f 87 87 03 00
	00		 ja	 $LN42@PackInitia
$LN415@PackInitia:

; 255  :         ::operator delete(_Ptr, _Bytes);

  00318	51		 push	 ecx
  00319	52		 push	 edx
  0031a	e8 00 00 00 00	 call	 ??3@YAXPAXI@Z		; operator delete
  0031f	83 c4 08	 add	 esp, 8
$LN403@PackInitia:
; File C:\Program Files\Microsoft Visual Studio\2022\Community\VC\Tools\MSVC\14.34.31933\include\xstring

; 3137 :         _CSTD memcpy(_My_data_mem, _Right_data_mem, _Memcpy_val_size);

  00322	0f 10 85 60 ff
	ff ff		 movups	 xmm0, XMMWORD PTR $T8[ebp]

; 5115 :     if (_Left.max_size() - _Left_size < _Right_size) {

  00329	8b 8d 70 ff ff
	ff		 mov	 ecx, DWORD PTR $T8[ebp+16]
  0032f	b8 ff ff ff 7f	 mov	 eax, 2147483647		; 7fffffffH
  00334	2b c1		 sub	 eax, ecx

; 3137 :         _CSTD memcpy(_My_data_mem, _Right_data_mem, _Memcpy_val_size);

  00336	0f 11 45 a8	 movups	 XMMWORD PTR _strPackName$[ebp], xmm0
  0033a	f3 0f 7e 85 70
	ff ff ff	 movq	 xmm0, QWORD PTR $T8[ebp+16]
  00342	66 0f d6 45 b8	 movq	 QWORD PTR _strPackName$[ebp+16], xmm0

; 5115 :     if (_Left.max_size() - _Left_size < _Right_size) {

  00347	83 f8 09	 cmp	 eax, 9
  0034a	0f 82 4a 03 00
	00		 jb	 $LN744@PackInitia

; 2293 :         if (_Large_string_engaged()) {

  00350	83 bd 74 ff ff
	ff 10		 cmp	 DWORD PTR $T8[ebp+20], 16 ; 00000010H
  00357	8d 45 a8	 lea	 eax, DWORD PTR _strPackName$[ebp]

; 5119 :     return {_String_constructor_concat_tag{}, _Left, _Left.c_str(), _Left_size, _Right, _Right_size};

  0035a	6a 09		 push	 9

; 2293 :         if (_Large_string_engaged()) {

  0035c	0f 43 85 60 ff
	ff ff		 cmovae	 eax, DWORD PTR $T8[ebp]

; 5119 :     return {_String_constructor_concat_tag{}, _Left, _Left.c_str(), _Left_size, _Right, _Right_size};

  00363	68 00 00 00 00	 push	 OFFSET ??_C@_09ODEGJGJI@_texcache@
  00368	51		 push	 ecx
  00369	50		 push	 eax
  0036a	8d 45 a8	 lea	 eax, DWORD PTR _strPackName$[ebp]
  0036d	50		 push	 eax
  0036e	ff b5 14 fe ff
	ff		 push	 DWORD PTR $T2[ebp]
  00374	8d 8d 78 ff ff
	ff		 lea	 ecx, DWORD PTR $T10[ebp]
  0037a	e8 00 00 00 00	 call	 ??0?$basic_string@DU?$char_traits@D@std@@V?$allocator@D@2@@std@@QAE@U_String_constructor_concat_tag@1@ABV01@QBDI2I@Z ; std::basic_string<char,std::char_traits<char>,std::allocator<char> >::basic_string<char,std::char_traits<char>,std::allocator<char> >

; 5008 :         if (_My_data._Large_string_engaged()) {

  0037f	8b 4d a4	 mov	 ecx, DWORD PTR _strTexCachePackName$[ebp+20]
  00382	83 f9 10	 cmp	 ecx, 16			; 00000010H
  00385	72 2c		 jb	 SHORT $LN494@PackInitia
; File C:\Program Files\Microsoft Visual Studio\2022\Community\VC\Tools\MSVC\14.34.31933\include\xmemory

; 830  :         _Deallocate<_New_alignof<_Ty>>(_Ptr, sizeof(_Ty) * _Count);

  00387	8b 55 90	 mov	 edx, DWORD PTR _strTexCachePackName$[ebp]
; File C:\Program Files\Microsoft Visual Studio\2022\Community\VC\Tools\MSVC\14.34.31933\include\xstring

; 5013 :             _Al.deallocate(_Ptr, _My_data._Myres + 1);

  0038a	41		 inc	 ecx
; File C:\Program Files\Microsoft Visual Studio\2022\Community\VC\Tools\MSVC\14.34.31933\include\xmemory

; 830  :         _Deallocate<_New_alignof<_Ty>>(_Ptr, sizeof(_Ty) * _Count);

  0038b	8b c2		 mov	 eax, edx

; 251  :         if (_Bytes >= _Big_allocation_threshold) { // boost the alignment of big allocations to help autovectorization

  0038d	81 f9 00 10 00
	00		 cmp	 ecx, 4096		; 00001000H
  00393	72 14		 jb	 SHORT $LN506@PackInitia

; 150  :     const uintptr_t _Ptr_container   = _Ptr_user[-1];

  00395	8b 50 fc	 mov	 edx, DWORD PTR [eax-4]
  00398	83 c1 23	 add	 ecx, 35			; 00000023H
  0039b	2b c2		 sub	 eax, edx

; 164  :     _STL_VERIFY(_Back_shift >= _Min_back_shift && _Back_shift <= _Non_user_size, "invalid argument");

  0039d	83 c0 fc	 add	 eax, -4			; fffffffcH
  003a0	83 f8 1f	 cmp	 eax, 31			; 0000001fH
  003a3	0f 87 f6 02 00
	00		 ja	 $LN42@PackInitia
$LN506@PackInitia:

; 255  :         ::operator delete(_Ptr, _Bytes);

  003a9	51		 push	 ecx
  003aa	52		 push	 edx
  003ab	e8 00 00 00 00	 call	 ??3@YAXPAXI@Z		; operator delete
  003b0	83 c4 08	 add	 esp, 8
$LN494@PackInitia:
; File C:\Program Files\Microsoft Visual Studio\2022\Community\VC\Tools\MSVC\14.34.31933\include\xstring

; 3137 :         _CSTD memcpy(_My_data_mem, _Right_data_mem, _Memcpy_val_size);

  003b3	0f 10 85 78 ff
	ff ff		 movups	 xmm0, XMMWORD PTR $T10[ebp]

; 2292 :         const value_type* _Result = _Bx._Buf;

  003ba	8b ce		 mov	 ecx, esi

; 3137 :         _CSTD memcpy(_My_data_mem, _Right_data_mem, _Memcpy_val_size);

  003bc	0f 11 45 90	 movups	 XMMWORD PTR _strTexCachePackName$[ebp], xmm0
  003c0	f3 0f 7e 45 88	 movq	 xmm0, QWORD PTR $T10[ebp+16]
  003c5	66 0f d6 45 a0	 movq	 QWORD PTR _strTexCachePackName$[ebp+16], xmm0

; 2293 :         if (_Large_string_engaged()) {

  003ca	83 7e 14 10	 cmp	 DWORD PTR [esi+20], 16	; 00000010H
  003ce	72 02		 jb	 SHORT $LN804@PackInitia

; 2294 :             _Result = _Unfancy(_Bx._Ptr);

  003d0	8b 0e		 mov	 ecx, DWORD PTR [esi]
$LN804@PackInitia:

; 2293 :         if (_Large_string_engaged()) {

  003d2	83 7d bc 10	 cmp	 DWORD PTR _strPackName$[ebp+20], 16 ; 00000010H
  003d6	8d 45 a8	 lea	 eax, DWORD PTR _strPackName$[ebp]
; File E:\Metin2_server\SolWayneSF v6\ClientVS22\source\UserInterface\UserInterface.cpp

; 232  : 		CEterPackManager::Instance().RegisterPack(strPackName.c_str(), c_rstFolder.c_str());

  003d9	6a 00		 push	 0
; File C:\Program Files\Microsoft Visual Studio\2022\Community\VC\Tools\MSVC\14.34.31933\include\xstring

; 2293 :         if (_Large_string_engaged()) {

  003db	0f 43 45 a8	 cmovae	 eax, DWORD PTR _strPackName$[ebp]
; File E:\Metin2_server\SolWayneSF v6\ClientVS22\source\UserInterface\UserInterface.cpp

; 232  : 		CEterPackManager::Instance().RegisterPack(strPackName.c_str(), c_rstFolder.c_str());

  003df	51		 push	 ecx
  003e0	8b 0d 00 00 00
	00		 mov	 ecx, DWORD PTR ?ms_singleton@?$CSingleton@VCEterPackManager@@@@0PAVCEterPackManager@@A ; CSingleton<CEterPackManager>::ms_singleton
  003e6	50		 push	 eax
  003e7	e8 00 00 00 00	 call	 ?RegisterPack@CEterPackManager@@QAE_NPBD0PBE@Z ; CEterPackManager::RegisterPack
; File C:\Program Files\Microsoft Visual Studio\2022\Community\VC\Tools\MSVC\14.34.31933\include\xstring

; 2293 :         if (_Large_string_engaged()) {

  003ec	83 7e 14 10	 cmp	 DWORD PTR [esi+20], 16	; 00000010H
  003f0	72 02		 jb	 SHORT $LN126@PackInitia

; 2294 :             _Result = _Unfancy(_Bx._Ptr);

  003f2	8b 36		 mov	 esi, DWORD PTR [esi]
$LN126@PackInitia:

; 2293 :         if (_Large_string_engaged()) {

  003f4	83 7d a4 10	 cmp	 DWORD PTR _strTexCachePackName$[ebp+20], 16 ; 00000010H
  003f8	8d 45 90	 lea	 eax, DWORD PTR _strTexCachePackName$[ebp]
; File E:\Metin2_server\SolWayneSF v6\ClientVS22\source\UserInterface\UserInterface.cpp

; 233  : 		CEterPackManager::Instance().RegisterPack(strTexCachePackName.c_str(), c_rstFolder.c_str());

  003fb	8b 0d 00 00 00
	00		 mov	 ecx, DWORD PTR ?ms_singleton@?$CSingleton@VCEterPackManager@@@@0PAVCEterPackManager@@A ; CSingleton<CEterPackManager>::ms_singleton
; File C:\Program Files\Microsoft Visual Studio\2022\Community\VC\Tools\MSVC\14.34.31933\include\xstring

; 2293 :         if (_Large_string_engaged()) {

  00401	0f 43 45 90	 cmovae	 eax, DWORD PTR _strTexCachePackName$[ebp]
; File E:\Metin2_server\SolWayneSF v6\ClientVS22\source\UserInterface\UserInterface.cpp

; 233  : 		CEterPackManager::Instance().RegisterPack(strTexCachePackName.c_str(), c_rstFolder.c_str());

  00405	6a 00		 push	 0
  00407	56		 push	 esi
  00408	50		 push	 eax
  00409	e8 00 00 00 00	 call	 ?RegisterPack@CEterPackManager@@QAE_NPBD0PBE@Z ; CEterPackManager::RegisterPack
  0040e	8d 8d 04 fe ff
	ff		 lea	 ecx, DWORD PTR _TextLoader$[ebp]
  00414	83 c7 02	 add	 edi, 2
  00417	e8 00 00 00 00	 call	 ?GetLineCount@CMemoryTextFileLoader@@QAEKXZ ; CMemoryTextFileLoader::GetLineCount
  0041c	48		 dec	 eax
  0041d	3b f8		 cmp	 edi, eax
  0041f	0f 82 6b fe ff
	ff		 jb	 $LL4@PackInitia
$LN3@PackInitia:

; 236  : 	CEterPackManager::Instance().RegisterRootPack((stFolder + std::string("root")).c_str());

  00425	8b 35 00 00 00
	00		 mov	 esi, DWORD PTR ?ms_singleton@?$CSingleton@VCEterPackManager@@@@0PAVCEterPackManager@@A ; CSingleton<CEterPackManager>::ms_singleton
  0042b	0f 57 c0	 xorps	 xmm0, xmm0
; File C:\Program Files\Microsoft Visual Studio\2022\Community\VC\Tools\MSVC\14.34.31933\include\xstring

; 2339 :         _CONSTEXPR20 _Bxty() noexcept : _Buf() {} // user-provided, for fancy pointers

  0042e	0f 11 85 60 ff
	ff ff		 movups	 XMMWORD PTR $T7[ebp], xmm0

; 2748 :             _My_data._Mysize = _Count;

  00435	c7 85 70 ff ff
	ff 04 00 00 00	 mov	 DWORD PTR $T7[ebp+16], 4

; 2749 :             _My_data._Myres  = _BUF_SIZE - 1;

  0043f	c7 85 74 ff ff
	ff 0f 00 00 00	 mov	 DWORD PTR $T7[ebp+20], 15 ; 0000000fH

; 117  :         _CSTD memmove(_First1, _First2, _Count * sizeof(_Elem));

  00449	c7 85 60 ff ff
	ff 72 6f 6f 74	 mov	 DWORD PTR $T7[ebp], 1953460082 ; 746f6f72H
; File E:\Metin2_server\SolWayneSF v6\ClientVS22\source\UserInterface\UserInterface.cpp

; 236  : 	CEterPackManager::Instance().RegisterRootPack((stFolder + std::string("root")).c_str());

  00453	c6 45 fc 06	 mov	 BYTE PTR __$EHRec$[ebp+8], 6
; File C:\Program Files\Microsoft Visual Studio\2022\Community\VC\Tools\MSVC\14.34.31933\include\xstring

; 2292 :         const value_type* _Result = _Bx._Buf;

  00457	8d 45 d8	 lea	 eax, DWORD PTR _stFolder$[ebp]

; 2293 :         if (_Large_string_engaged()) {

  0045a	83 7d ec 10	 cmp	 DWORD PTR _stFolder$[ebp+20], 16 ; 00000010H

; 3609 :         return insert(_Off, _Right._Mypair._Myval2._Myptr(), _Right._Mypair._Myval2._Mysize);

  0045e	8d 8d 60 ff ff
	ff		 lea	 ecx, DWORD PTR $T7[ebp]
  00464	ff 75 e8	 push	 DWORD PTR _stFolder$[ebp+16]

; 2293 :         if (_Large_string_engaged()) {

  00467	0f 43 45 d8	 cmovae	 eax, DWORD PTR _stFolder$[ebp]

; 3609 :         return insert(_Off, _Right._Mypair._Myval2._Myptr(), _Right._Mypair._Myval2._Mysize);

  0046b	50		 push	 eax
  0046c	6a 00		 push	 0
  0046e	e8 00 00 00 00	 call	 ?insert@?$basic_string@DU?$char_traits@D@std@@V?$allocator@D@2@@std@@QAEAAV12@IQBDI@Z ; std::basic_string<char,std::char_traits<char>,std::allocator<char> >::insert
  00473	0f 57 c0	 xorps	 xmm0, xmm0

; 2348 :     size_type _Mysize = 0; // current length of string

  00476	c7 45 88 00 00
	00 00		 mov	 DWORD PTR $T9[ebp+16], 0

; 2339 :         _CONSTEXPR20 _Bxty() noexcept : _Buf() {} // user-provided, for fancy pointers

  0047d	0f 11 85 78 ff
	ff ff		 movups	 XMMWORD PTR $T9[ebp], xmm0

; 2349 :     size_type _Myres  = 0; // current storage reserved for string

  00484	c7 45 8c 00 00
	00 00		 mov	 DWORD PTR $T9[ebp+20], 0

; 3137 :         _CSTD memcpy(_My_data_mem, _Right_data_mem, _Memcpy_val_size);

  0048b	0f 10 00	 movups	 xmm0, XMMWORD PTR [eax]
  0048e	0f 11 85 78 ff
	ff ff		 movups	 XMMWORD PTR $T9[ebp], xmm0
  00495	f3 0f 7e 40 10	 movq	 xmm0, QWORD PTR [eax+16]
  0049a	66 0f d6 45 88	 movq	 QWORD PTR $T9[ebp+16], xmm0
; File E:\Metin2_server\SolWayneSF v6\ClientVS22\source\UserInterface\UserInterface.cpp

; 236  : 	CEterPackManager::Instance().RegisterRootPack((stFolder + std::string("root")).c_str());

  0049f	c7 40 10 00 00
	00 00		 mov	 DWORD PTR [eax+16], 0
  004a6	8b ce		 mov	 ecx, esi
  004a8	c7 40 14 0f 00
	00 00		 mov	 DWORD PTR [eax+20], 15	; 0000000fH
  004af	c6 00 00	 mov	 BYTE PTR [eax], 0
; File C:\Program Files\Microsoft Visual Studio\2022\Community\VC\Tools\MSVC\14.34.31933\include\xstring

; 2292 :         const value_type* _Result = _Bx._Buf;

  004b2	8d 85 78 ff ff
	ff		 lea	 eax, DWORD PTR $T9[ebp]
; File E:\Metin2_server\SolWayneSF v6\ClientVS22\source\UserInterface\UserInterface.cpp

; 236  : 	CEterPackManager::Instance().RegisterRootPack((stFolder + std::string("root")).c_str());

  004b8	c6 45 fc 07	 mov	 BYTE PTR __$EHRec$[ebp+8], 7
; File C:\Program Files\Microsoft Visual Studio\2022\Community\VC\Tools\MSVC\14.34.31933\include\xstring

; 2301 :         return _BUF_SIZE <= _Myres;

  004bc	83 7d 8c 10	 cmp	 DWORD PTR $T9[ebp+20], 16 ; 00000010H

; 2293 :         if (_Large_string_engaged()) {

  004c0	0f 43 85 78 ff
	ff ff		 cmovae	 eax, DWORD PTR $T9[ebp]
; File E:\Metin2_server\SolWayneSF v6\ClientVS22\source\UserInterface\UserInterface.cpp

; 236  : 	CEterPackManager::Instance().RegisterRootPack((stFolder + std::string("root")).c_str());

  004c7	50		 push	 eax
  004c8	e8 00 00 00 00	 call	 ?RegisterRootPack@CEterPackManager@@QAEXPBD@Z ; CEterPackManager::RegisterRootPack
; File C:\Program Files\Microsoft Visual Studio\2022\Community\VC\Tools\MSVC\14.34.31933\include\xstring

; 2301 :         return _BUF_SIZE <= _Myres;

  004cd	8b 4d 8c	 mov	 ecx, DWORD PTR $T9[ebp+20]
  004d0	83 f9 10	 cmp	 ecx, 16			; 00000010H

; 5008 :         if (_My_data._Large_string_engaged()) {

  004d3	72 2f		 jb	 SHORT $LN268@PackInitia
; File C:\Program Files\Microsoft Visual Studio\2022\Community\VC\Tools\MSVC\14.34.31933\include\xmemory

; 830  :         _Deallocate<_New_alignof<_Ty>>(_Ptr, sizeof(_Ty) * _Count);

  004d5	8b 95 78 ff ff
	ff		 mov	 edx, DWORD PTR $T9[ebp]
; File C:\Program Files\Microsoft Visual Studio\2022\Community\VC\Tools\MSVC\14.34.31933\include\xstring

; 5013 :             _Al.deallocate(_Ptr, _My_data._Myres + 1);

  004db	41		 inc	 ecx
; File C:\Program Files\Microsoft Visual Studio\2022\Community\VC\Tools\MSVC\14.34.31933\include\xmemory

; 830  :         _Deallocate<_New_alignof<_Ty>>(_Ptr, sizeof(_Ty) * _Count);

  004dc	8b c2		 mov	 eax, edx

; 251  :         if (_Bytes >= _Big_allocation_threshold) { // boost the alignment of big allocations to help autovectorization

  004de	81 f9 00 10 00
	00		 cmp	 ecx, 4096		; 00001000H
  004e4	72 14		 jb	 SHORT $LN280@PackInitia

; 150  :     const uintptr_t _Ptr_container   = _Ptr_user[-1];

  004e6	8b 50 fc	 mov	 edx, DWORD PTR [eax-4]
  004e9	83 c1 23	 add	 ecx, 35			; 00000023H
  004ec	2b c2		 sub	 eax, edx

; 164  :     _STL_VERIFY(_Back_shift >= _Min_back_shift && _Back_shift <= _Non_user_size, "invalid argument");

  004ee	83 c0 fc	 add	 eax, -4			; fffffffcH
  004f1	83 f8 1f	 cmp	 eax, 31			; 0000001fH
  004f4	0f 87 9b 01 00
	00		 ja	 $LN306@PackInitia
$LN280@PackInitia:

; 255  :         ::operator delete(_Ptr, _Bytes);

  004fa	51		 push	 ecx
  004fb	52		 push	 edx
  004fc	e8 00 00 00 00	 call	 ??3@YAXPAXI@Z		; operator delete
  00501	83 c4 08	 add	 esp, 8
$LN268@PackInitia:
; File C:\Program Files\Microsoft Visual Studio\2022\Community\VC\Tools\MSVC\14.34.31933\include\xstring

; 2301 :         return _BUF_SIZE <= _Myres;

  00504	8b 8d 74 ff ff
	ff		 mov	 ecx, DWORD PTR $T7[ebp+20]

; 5016 :         _My_data._Mysize = 0;

  0050a	c7 45 88 00 00
	00 00		 mov	 DWORD PTR $T9[ebp+16], 0

; 5017 :         _My_data._Myres  = _BUF_SIZE - 1;

  00511	c7 45 8c 0f 00
	00 00		 mov	 DWORD PTR $T9[ebp+20], 15 ; 0000000fH

; 5018 :         // the _Traits::assign is last so the codegen doesn't think the char write can alias this
; 5019 :         _Traits::assign(_My_data._Bx._Buf[0], _Elem());

  00518	c6 85 78 ff ff
	ff 00		 mov	 BYTE PTR $T9[ebp], 0

; 2301 :         return _BUF_SIZE <= _Myres;

  0051f	83 f9 10	 cmp	 ecx, 16			; 00000010H

; 5008 :         if (_My_data._Large_string_engaged()) {

  00522	72 2f		 jb	 SHORT $LN297@PackInitia
; File C:\Program Files\Microsoft Visual Studio\2022\Community\VC\Tools\MSVC\14.34.31933\include\xmemory

; 830  :         _Deallocate<_New_alignof<_Ty>>(_Ptr, sizeof(_Ty) * _Count);

  00524	8b 95 60 ff ff
	ff		 mov	 edx, DWORD PTR $T7[ebp]
; File C:\Program Files\Microsoft Visual Studio\2022\Community\VC\Tools\MSVC\14.34.31933\include\xstring

; 5013 :             _Al.deallocate(_Ptr, _My_data._Myres + 1);

  0052a	41		 inc	 ecx
; File C:\Program Files\Microsoft Visual Studio\2022\Community\VC\Tools\MSVC\14.34.31933\include\xmemory

; 830  :         _Deallocate<_New_alignof<_Ty>>(_Ptr, sizeof(_Ty) * _Count);

  0052b	8b c2		 mov	 eax, edx

; 251  :         if (_Bytes >= _Big_allocation_threshold) { // boost the alignment of big allocations to help autovectorization

  0052d	81 f9 00 10 00
	00		 cmp	 ecx, 4096		; 00001000H
  00533	72 14		 jb	 SHORT $LN309@PackInitia

; 150  :     const uintptr_t _Ptr_container   = _Ptr_user[-1];

  00535	8b 50 fc	 mov	 edx, DWORD PTR [eax-4]
  00538	83 c1 23	 add	 ecx, 35			; 00000023H
  0053b	2b c2		 sub	 eax, edx

; 164  :     _STL_VERIFY(_Back_shift >= _Min_back_shift && _Back_shift <= _Non_user_size, "invalid argument");

  0053d	83 c0 fc	 add	 eax, -4			; fffffffcH
  00540	83 f8 1f	 cmp	 eax, 31			; 0000001fH
  00543	0f 87 4c 01 00
	00		 ja	 $LN306@PackInitia
$LN309@PackInitia:

; 255  :         ::operator delete(_Ptr, _Bytes);

  00549	51		 push	 ecx
  0054a	52		 push	 edx
  0054b	e8 00 00 00 00	 call	 ??3@YAXPAXI@Z		; operator delete
  00550	83 c4 08	 add	 esp, 8
$LN297@PackInitia:
; File E:\Metin2_server\SolWayneSF v6\ClientVS22\source\UserInterface\UserInterface.cpp

; 237  : 	NANOEND

  00553	eb		 DB	 -21			; ffffffebH
  00554	03		 DB	 3
  00555	d6		 DB	 -42			; ffffffd6H
  00556	d7		 DB	 -41			; ffffffd7H
  00557	00		 DB	 0
; File C:\Program Files\Microsoft Visual Studio\2022\Community\VC\Tools\MSVC\14.34.31933\include\xstring

; 2301 :         return _BUF_SIZE <= _Myres;

  00558	8b 4d a4	 mov	 ecx, DWORD PTR _strTexCachePackName$[ebp+20]
; File E:\Metin2_server\SolWayneSF v6\ClientVS22\source\UserInterface\UserInterface.cpp

; 237  : 	NANOEND

  0055b	c6 85 1b fe ff
	ff 01		 mov	 BYTE PTR $T6[ebp], 1
; File C:\Program Files\Microsoft Visual Studio\2022\Community\VC\Tools\MSVC\14.34.31933\include\xstring

; 2301 :         return _BUF_SIZE <= _Myres;

  00562	83 f9 10	 cmp	 ecx, 16			; 00000010H

; 5008 :         if (_My_data._Large_string_engaged()) {

  00565	72 2c		 jb	 SHORT $LN326@PackInitia
; File C:\Program Files\Microsoft Visual Studio\2022\Community\VC\Tools\MSVC\14.34.31933\include\xmemory

; 830  :         _Deallocate<_New_alignof<_Ty>>(_Ptr, sizeof(_Ty) * _Count);

  00567	8b 55 90	 mov	 edx, DWORD PTR _strTexCachePackName$[ebp]
; File C:\Program Files\Microsoft Visual Studio\2022\Community\VC\Tools\MSVC\14.34.31933\include\xstring

; 5013 :             _Al.deallocate(_Ptr, _My_data._Myres + 1);

  0056a	41		 inc	 ecx
; File C:\Program Files\Microsoft Visual Studio\2022\Community\VC\Tools\MSVC\14.34.31933\include\xmemory

; 830  :         _Deallocate<_New_alignof<_Ty>>(_Ptr, sizeof(_Ty) * _Count);

  0056b	8b c2		 mov	 eax, edx

; 251  :         if (_Bytes >= _Big_allocation_threshold) { // boost the alignment of big allocations to help autovectorization

  0056d	81 f9 00 10 00
	00		 cmp	 ecx, 4096		; 00001000H
  00573	72 14		 jb	 SHORT $LN338@PackInitia

; 150  :     const uintptr_t _Ptr_container   = _Ptr_user[-1];

  00575	8b 50 fc	 mov	 edx, DWORD PTR [eax-4]
  00578	83 c1 23	 add	 ecx, 35			; 00000023H
  0057b	2b c2		 sub	 eax, edx

; 164  :     _STL_VERIFY(_Back_shift >= _Min_back_shift && _Back_shift <= _Non_user_size, "invalid argument");

  0057d	83 c0 fc	 add	 eax, -4			; fffffffcH
  00580	83 f8 1f	 cmp	 eax, 31			; 0000001fH
  00583	0f 87 16 01 00
	00		 ja	 $LN42@PackInitia
$LN338@PackInitia:

; 255  :         ::operator delete(_Ptr, _Bytes);

  00589	51		 push	 ecx
  0058a	52		 push	 edx
  0058b	e8 00 00 00 00	 call	 ??3@YAXPAXI@Z		; operator delete
  00590	83 c4 08	 add	 esp, 8
$LN326@PackInitia:
; File C:\Program Files\Microsoft Visual Studio\2022\Community\VC\Tools\MSVC\14.34.31933\include\xstring

; 2301 :         return _BUF_SIZE <= _Myres;

  00593	8b 4d bc	 mov	 ecx, DWORD PTR _strPackName$[ebp+20]

; 5016 :         _My_data._Mysize = 0;

  00596	c7 45 a0 00 00
	00 00		 mov	 DWORD PTR _strTexCachePackName$[ebp+16], 0

; 5017 :         _My_data._Myres  = _BUF_SIZE - 1;

  0059d	c7 45 a4 0f 00
	00 00		 mov	 DWORD PTR _strTexCachePackName$[ebp+20], 15 ; 0000000fH

; 5018 :         // the _Traits::assign is last so the codegen doesn't think the char write can alias this
; 5019 :         _Traits::assign(_My_data._Bx._Buf[0], _Elem());

  005a4	c6 45 90 00	 mov	 BYTE PTR _strTexCachePackName$[ebp], 0

; 2301 :         return _BUF_SIZE <= _Myres;

  005a8	83 f9 10	 cmp	 ecx, 16			; 00000010H

; 5008 :         if (_My_data._Large_string_engaged()) {

  005ab	72 2c		 jb	 SHORT $LN355@PackInitia
; File C:\Program Files\Microsoft Visual Studio\2022\Community\VC\Tools\MSVC\14.34.31933\include\xmemory

; 830  :         _Deallocate<_New_alignof<_Ty>>(_Ptr, sizeof(_Ty) * _Count);

  005ad	8b 55 a8	 mov	 edx, DWORD PTR _strPackName$[ebp]
; File C:\Program Files\Microsoft Visual Studio\2022\Community\VC\Tools\MSVC\14.34.31933\include\xstring

; 5013 :             _Al.deallocate(_Ptr, _My_data._Myres + 1);

  005b0	41		 inc	 ecx
; File C:\Program Files\Microsoft Visual Studio\2022\Community\VC\Tools\MSVC\14.34.31933\include\xmemory

; 830  :         _Deallocate<_New_alignof<_Ty>>(_Ptr, sizeof(_Ty) * _Count);

  005b1	8b c2		 mov	 eax, edx

; 251  :         if (_Bytes >= _Big_allocation_threshold) { // boost the alignment of big allocations to help autovectorization

  005b3	81 f9 00 10 00
	00		 cmp	 ecx, 4096		; 00001000H
  005b9	72 14		 jb	 SHORT $LN367@PackInitia

; 150  :     const uintptr_t _Ptr_container   = _Ptr_user[-1];

  005bb	8b 50 fc	 mov	 edx, DWORD PTR [eax-4]
  005be	83 c1 23	 add	 ecx, 35			; 00000023H
  005c1	2b c2		 sub	 eax, edx

; 164  :     _STL_VERIFY(_Back_shift >= _Min_back_shift && _Back_shift <= _Non_user_size, "invalid argument");

  005c3	83 c0 fc	 add	 eax, -4			; fffffffcH
  005c6	83 f8 1f	 cmp	 eax, 31			; 0000001fH
  005c9	0f 87 d0 00 00
	00		 ja	 $LN42@PackInitia
$LN367@PackInitia:

; 255  :         ::operator delete(_Ptr, _Bytes);

  005cf	51		 push	 ecx
  005d0	52		 push	 edx
  005d1	e8 00 00 00 00	 call	 ??3@YAXPAXI@Z		; operator delete
  005d6	83 c4 08	 add	 esp, 8
$LN355@PackInitia:
; File C:\Program Files\Microsoft Visual Studio\2022\Community\VC\Tools\MSVC\14.34.31933\include\xstring

; 5016 :         _My_data._Mysize = 0;

  005d9	c7 45 b8 00 00
	00 00		 mov	 DWORD PTR _strPackName$[ebp+16], 0

; 5017 :         _My_data._Myres  = _BUF_SIZE - 1;

  005e0	c7 45 bc 0f 00
	00 00		 mov	 DWORD PTR _strPackName$[ebp+20], 15 ; 0000000fH

; 5018 :         // the _Traits::assign is last so the codegen doesn't think the char write can alias this
; 5019 :         _Traits::assign(_My_data._Bx._Buf[0], _Elem());

  005e7	c6 45 a8 00	 mov	 BYTE PTR _strPackName$[ebp], 0
$LN348@PackInitia:
; File E:\Metin2_server\SolWayneSF v6\ClientVS22\source\UserInterface\UserInterface.cpp

; 237  : 	NANOEND

  005eb	8d 8d 04 fe ff
	ff		 lea	 ecx, DWORD PTR _TextLoader$[ebp]
  005f1	e8 00 00 00 00	 call	 ??1CMemoryTextFileLoader@@UAE@XZ ; CMemoryTextFileLoader::~CMemoryTextFileLoader
$LN19@PackInitia:
  005f6	8d 8d 1c fe ff
	ff		 lea	 ecx, DWORD PTR _file$[ebp]
  005fc	e8 00 00 00 00	 call	 ??1CMappedFile@@UAE@XZ	; CMappedFile::~CMappedFile
; File C:\Program Files\Microsoft Visual Studio\2022\Community\VC\Tools\MSVC\14.34.31933\include\xstring

; 2301 :         return _BUF_SIZE <= _Myres;

  00601	8b 4d d4	 mov	 ecx, DWORD PTR _stFileName$[ebp+20]
  00604	83 f9 10	 cmp	 ecx, 16			; 00000010H

; 5008 :         if (_My_data._Large_string_engaged()) {

  00607	72 28		 jb	 SHORT $LN63@PackInitia
; File C:\Program Files\Microsoft Visual Studio\2022\Community\VC\Tools\MSVC\14.34.31933\include\xmemory

; 830  :         _Deallocate<_New_alignof<_Ty>>(_Ptr, sizeof(_Ty) * _Count);

  00609	8b 55 c0	 mov	 edx, DWORD PTR _stFileName$[ebp]
; File C:\Program Files\Microsoft Visual Studio\2022\Community\VC\Tools\MSVC\14.34.31933\include\xstring

; 5013 :             _Al.deallocate(_Ptr, _My_data._Myres + 1);

  0060c	41		 inc	 ecx
; File C:\Program Files\Microsoft Visual Studio\2022\Community\VC\Tools\MSVC\14.34.31933\include\xmemory

; 830  :         _Deallocate<_New_alignof<_Ty>>(_Ptr, sizeof(_Ty) * _Count);

  0060d	8b c2		 mov	 eax, edx

; 251  :         if (_Bytes >= _Big_allocation_threshold) { // boost the alignment of big allocations to help autovectorization

  0060f	81 f9 00 10 00
	00		 cmp	 ecx, 4096		; 00001000H
  00615	72 10		 jb	 SHORT $LN75@PackInitia

; 150  :     const uintptr_t _Ptr_container   = _Ptr_user[-1];

  00617	8b 50 fc	 mov	 edx, DWORD PTR [eax-4]
  0061a	83 c1 23	 add	 ecx, 35			; 00000023H
  0061d	2b c2		 sub	 eax, edx

; 164  :     _STL_VERIFY(_Back_shift >= _Min_back_shift && _Back_shift <= _Non_user_size, "invalid argument");

  0061f	83 c0 fc	 add	 eax, -4			; fffffffcH
  00622	83 f8 1f	 cmp	 eax, 31			; 0000001fH
  00625	77 78		 ja	 SHORT $LN42@PackInitia
$LN75@PackInitia:

; 255  :         ::operator delete(_Ptr, _Bytes);

  00627	51		 push	 ecx
  00628	52		 push	 edx
  00629	e8 00 00 00 00	 call	 ??3@YAXPAXI@Z		; operator delete
  0062e	83 c4 08	 add	 esp, 8
$LN63@PackInitia:
; File C:\Program Files\Microsoft Visual Studio\2022\Community\VC\Tools\MSVC\14.34.31933\include\xstring

; 2301 :         return _BUF_SIZE <= _Myres;

  00631	8b 4d ec	 mov	 ecx, DWORD PTR _stFolder$[ebp+20]

; 5016 :         _My_data._Mysize = 0;

  00634	c7 45 d0 00 00
	00 00		 mov	 DWORD PTR _stFileName$[ebp+16], 0

; 5017 :         _My_data._Myres  = _BUF_SIZE - 1;

  0063b	c7 45 d4 0f 00
	00 00		 mov	 DWORD PTR _stFileName$[ebp+20], 15 ; 0000000fH

; 5018 :         // the _Traits::assign is last so the codegen doesn't think the char write can alias this
; 5019 :         _Traits::assign(_My_data._Bx._Buf[0], _Elem());

  00642	c6 45 c0 00	 mov	 BYTE PTR _stFileName$[ebp], 0

; 2301 :         return _BUF_SIZE <= _Myres;

  00646	83 f9 10	 cmp	 ecx, 16			; 00000010H

; 5008 :         if (_My_data._Large_string_engaged()) {

  00649	72 28		 jb	 SHORT $LN33@PackInitia
; File C:\Program Files\Microsoft Visual Studio\2022\Community\VC\Tools\MSVC\14.34.31933\include\xmemory

; 830  :         _Deallocate<_New_alignof<_Ty>>(_Ptr, sizeof(_Ty) * _Count);

  0064b	8b 55 d8	 mov	 edx, DWORD PTR _stFolder$[ebp]
; File C:\Program Files\Microsoft Visual Studio\2022\Community\VC\Tools\MSVC\14.34.31933\include\xstring

; 5013 :             _Al.deallocate(_Ptr, _My_data._Myres + 1);

  0064e	41		 inc	 ecx
; File C:\Program Files\Microsoft Visual Studio\2022\Community\VC\Tools\MSVC\14.34.31933\include\xmemory

; 830  :         _Deallocate<_New_alignof<_Ty>>(_Ptr, sizeof(_Ty) * _Count);

  0064f	8b c2		 mov	 eax, edx

; 251  :         if (_Bytes >= _Big_allocation_threshold) { // boost the alignment of big allocations to help autovectorization

  00651	81 f9 00 10 00
	00		 cmp	 ecx, 4096		; 00001000H
  00657	72 10		 jb	 SHORT $LN45@PackInitia

; 150  :     const uintptr_t _Ptr_container   = _Ptr_user[-1];

  00659	8b 50 fc	 mov	 edx, DWORD PTR [eax-4]
  0065c	83 c1 23	 add	 ecx, 35			; 00000023H
  0065f	2b c2		 sub	 eax, edx

; 164  :     _STL_VERIFY(_Back_shift >= _Min_back_shift && _Back_shift <= _Non_user_size, "invalid argument");

  00661	83 c0 fc	 add	 eax, -4			; fffffffcH
  00664	83 f8 1f	 cmp	 eax, 31			; 0000001fH
  00667	77 36		 ja	 SHORT $LN42@PackInitia
$LN45@PackInitia:

; 255  :         ::operator delete(_Ptr, _Bytes);

  00669	51		 push	 ecx
  0066a	52		 push	 edx
  0066b	e8 00 00 00 00	 call	 ??3@YAXPAXI@Z		; operator delete
  00670	83 c4 08	 add	 esp, 8
$LN33@PackInitia:
; File E:\Metin2_server\SolWayneSF v6\ClientVS22\source\UserInterface\UserInterface.cpp

; 237  : 	NANOEND

  00673	8a 85 1b fe ff
	ff		 mov	 al, BYTE PTR $T6[ebp]
$LN1@PackInitia:

; 239  : }

  00679	8b 4d f4	 mov	 ecx, DWORD PTR __$EHRec$[ebp]
  0067c	64 89 0d 00 00
	00 00		 mov	 DWORD PTR fs:0, ecx
  00683	59		 pop	 ecx
  00684	5f		 pop	 edi
  00685	5e		 pop	 esi
  00686	5b		 pop	 ebx
  00687	8b 4d f0	 mov	 ecx, DWORD PTR __$ArrayPad$[ebp]
  0068a	33 cd		 xor	 ecx, ebp
  0068c	e8 00 00 00 00	 call	 @__security_check_cookie@4
  00691	8b e5		 mov	 esp, ebp
  00693	5d		 pop	 ebp
  00694	c3		 ret	 0
$LN306@PackInitia:
; File C:\Program Files\Microsoft Visual Studio\2022\Community\VC\Tools\MSVC\14.34.31933\include\xmemory

; 164  :     _STL_VERIFY(_Back_shift >= _Min_back_shift && _Back_shift <= _Non_user_size, "invalid argument");

  00695	e8 00 00 00 00	 call	 __invalid_parameter_noinfo_noreturn
$LN744@PackInitia:
; File C:\Program Files\Microsoft Visual Studio\2022\Community\VC\Tools\MSVC\14.34.31933\include\xstring

; 5116 :         _Xlen_string();

  0069a	e8 00 00 00 00	 call	 ?_Xlen_string@std@@YAXXZ ; std::_Xlen_string
$LN42@PackInitia:
; File C:\Program Files\Microsoft Visual Studio\2022\Community\VC\Tools\MSVC\14.34.31933\include\xmemory

; 164  :     _STL_VERIFY(_Back_shift >= _Min_back_shift && _Back_shift <= _Non_user_size, "invalid argument");

  0069f	e8 00 00 00 00	 call	 __invalid_parameter_noinfo_noreturn
$LN806@PackInitia:
  006a4	cc		 int	 3
_TEXT	ENDS
;	COMDAT text$x
text$x	SEGMENT
__unwindfunclet$?PackInitialize@@YA_NPBD@Z$0:
  00000	8d 4d d8	 lea	 ecx, DWORD PTR _stFolder$[ebp]
  00003	e9 00 00 00 00	 jmp	 ??1?$basic_string@DU?$char_traits@D@std@@V?$allocator@D@2@@std@@QAE@XZ ; std::basic_string<char,std::char_traits<char>,std::allocator<char> >::~basic_string<char,std::char_traits<char>,std::allocator<char> >
__unwindfunclet$?PackInitialize@@YA_NPBD@Z$1:
  00008	8d 4d c0	 lea	 ecx, DWORD PTR _stFileName$[ebp]
  0000b	e9 00 00 00 00	 jmp	 ??1?$basic_string@DU?$char_traits@D@std@@V?$allocator@D@2@@std@@QAE@XZ ; std::basic_string<char,std::char_traits<char>,std::allocator<char> >::~basic_string<char,std::char_traits<char>,std::allocator<char> >
__unwindfunclet$?PackInitialize@@YA_NPBD@Z$2:
  00010	8d 8d 1c fe ff
	ff		 lea	 ecx, DWORD PTR _file$[ebp]
  00016	e9 00 00 00 00	 jmp	 ??1CMappedFile@@UAE@XZ	; CMappedFile::~CMappedFile
__unwindfunclet$?PackInitialize@@YA_NPBD@Z$3:
  0001b	8d 8d 04 fe ff
	ff		 lea	 ecx, DWORD PTR _TextLoader$[ebp]
  00021	e9 00 00 00 00	 jmp	 ??1CMemoryTextFileLoader@@UAE@XZ ; CMemoryTextFileLoader::~CMemoryTextFileLoader
__unwindfunclet$?PackInitialize@@YA_NPBD@Z$4:
  00026	8d 4d a8	 lea	 ecx, DWORD PTR _strPackName$[ebp]
  00029	e9 00 00 00 00	 jmp	 ??1?$basic_string@DU?$char_traits@D@std@@V?$allocator@D@2@@std@@QAE@XZ ; std::basic_string<char,std::char_traits<char>,std::allocator<char> >::~basic_string<char,std::char_traits<char>,std::allocator<char> >
__unwindfunclet$?PackInitialize@@YA_NPBD@Z$5:
  0002e	8d 4d 90	 lea	 ecx, DWORD PTR _strTexCachePackName$[ebp]
  00031	e9 00 00 00 00	 jmp	 ??1?$basic_string@DU?$char_traits@D@std@@V?$allocator@D@2@@std@@QAE@XZ ; std::basic_string<char,std::char_traits<char>,std::allocator<char> >::~basic_string<char,std::char_traits<char>,std::allocator<char> >
__unwindfunclet$?PackInitialize@@YA_NPBD@Z$8:
  00036	8d 8d 60 ff ff
	ff		 lea	 ecx, DWORD PTR $T7[ebp]
  0003c	e9 00 00 00 00	 jmp	 ??1?$basic_string@DU?$char_traits@D@std@@V?$allocator@D@2@@std@@QAE@XZ ; std::basic_string<char,std::char_traits<char>,std::allocator<char> >::~basic_string<char,std::char_traits<char>,std::allocator<char> >
__unwindfunclet$?PackInitialize@@YA_NPBD@Z$9:
  00041	8d 8d 78 ff ff
	ff		 lea	 ecx, DWORD PTR $T9[ebp]
  00047	e9 00 00 00 00	 jmp	 ??1?$basic_string@DU?$char_traits@D@std@@V?$allocator@D@2@@std@@QAE@XZ ; std::basic_string<char,std::char_traits<char>,std::allocator<char> >::~basic_string<char,std::char_traits<char>,std::allocator<char> >
  0004c	cc		 int	 3
  0004d	cc		 int	 3
  0004e	cc		 int	 3
  0004f	cc		 int	 3
  00050	cc		 int	 3
__ehhandler$?PackInitialize@@YA_NPBD@Z:
  00051	90		 npad	 1
  00052	90		 npad	 1
  00053	8b 54 24 08	 mov	 edx, DWORD PTR [esp+8]
  00057	8d 42 0c	 lea	 eax, DWORD PTR [edx+12]
  0005a	8b 8a 00 fe ff
	ff		 mov	 ecx, DWORD PTR [edx-512]
  00060	33 c8		 xor	 ecx, eax
  00062	e8 00 00 00 00	 call	 @__security_check_cookie@4
  00067	8b 4a fc	 mov	 ecx, DWORD PTR [edx-4]
  0006a	33 c8		 xor	 ecx, eax
  0006c	e8 00 00 00 00	 call	 @__security_check_cookie@4
  00071	b8 00 00 00 00	 mov	 eax, OFFSET __ehfuncinfo$?PackInitialize@@YA_NPBD@Z
  00076	e9 00 00 00 00	 jmp	 ___CxxFrameHandler3
text$x	ENDS
?PackInitialize@@YA_NPBD@Z ENDP				; PackInitialize
; Function compile flags: /Ogtp
; File E:\Metin2_server\SolWayneSF v6\ClientVS22\source\UserInterface\UserInterface.cpp
; File C:\Program Files\Microsoft Visual Studio\2022\Community\VC\Tools\MSVC\14.34.31933\include\xstring
; File E:\Metin2_server\SolWayneSF v6\ClientVS22\source\UserInterface\UserInterface.cpp
; File C:\Program Files\Microsoft Visual Studio\2022\Community\VC\Tools\MSVC\14.34.31933\include\xstring
; File E:\Metin2_server\SolWayneSF v6\ClientVS22\source\UserInterface\UserInterface.cpp
; File C:\Program Files\Microsoft Visual Studio\2022\Community\VC\Tools\MSVC\14.34.31933\include\xstring
; File E:\Metin2_server\SolWayneSF v6\ClientVS22\source\UserInterface\UserInterface.cpp
; File C:\Program Files\Microsoft Visual Studio\2022\Community\VC\Tools\MSVC\14.34.31933\include\xstring
; File E:\Metin2_server\SolWayneSF v6\ClientVS22\source\UserInterface\UserInterface.cpp
; File C:\Program Files\Microsoft Visual Studio\2022\Community\VC\Tools\MSVC\14.34.31933\include\xstring
; File C:\Program Files\Microsoft Visual Studio\2022\Community\VC\Tools\MSVC\14.34.31933\include\xmemory
; File C:\Program Files\Microsoft Visual Studio\2022\Community\VC\Tools\MSVC\14.34.31933\include\xstring
; File C:\Program Files\Microsoft Visual Studio\2022\Community\VC\Tools\MSVC\14.34.31933\include\xmemory
; File C:\Program Files\Microsoft Visual Studio\2022\Community\VC\Tools\MSVC\14.34.31933\include\xstring
; File E:\Metin2_server\SolWayneSF v6\ClientVS22\source\UserInterface\UserInterface.cpp
; File C:\Program Files\Microsoft Visual Studio\2022\Community\VC\Tools\MSVC\14.34.31933\include\xstring
; File C:\Program Files\Microsoft Visual Studio\2022\Community\VC\Tools\MSVC\14.34.31933\include\xmemory
; File C:\Program Files\Microsoft Visual Studio\2022\Community\VC\Tools\MSVC\14.34.31933\include\xstring
; File C:\Program Files\Microsoft Visual Studio\2022\Community\VC\Tools\MSVC\14.34.31933\include\xmemory
; File C:\Program Files\Microsoft Visual Studio\2022\Community\VC\Tools\MSVC\14.34.31933\include\xstring
; File E:\Metin2_server\SolWayneSF v6\ClientVS22\source\UserInterface\UserInterface.cpp
; File C:\Program Files\Microsoft Visual Studio\2022\Community\VC\Tools\MSVC\14.34.31933\include\xstring
; File C:\Program Files\Microsoft Visual Studio\2022\Community\VC\Tools\MSVC\14.34.31933\include\vector
; File E:\Metin2_server\SolWayneSF v6\ClientVS22\source\UserInterface\UserInterface.cpp
; File C:\Program Files\Microsoft Visual Studio\2022\Community\VC\Tools\MSVC\14.34.31933\include\vector
; File E:\Metin2_server\SolWayneSF v6\ClientVS22\source\UserInterface\UserInterface.cpp
; File C:\Program Files\Microsoft Visual Studio\2022\Community\VC\Tools\MSVC\14.34.31933\include\vector
; File E:\Metin2_server\SolWayneSF v6\ClientVS22\source\UserInterface\UserInterface.cpp
; File C:\Program Files\Microsoft Visual Studio\2022\Community\VC\Tools\MSVC\14.34.31933\include\xstring
; File E:\Metin2_server\SolWayneSF v6\ClientVS22\source\UserInterface\UserInterface.cpp
; File C:\Program Files\Microsoft Visual Studio\2022\Community\VC\Tools\MSVC\14.34.31933\include\xstring
; File C:\Program Files\Microsoft Visual Studio\2022\Community\VC\Tools\MSVC\14.34.31933\include\vector
; File C:\Program Files\Microsoft Visual Studio\2022\Community\VC\Tools\MSVC\14.34.31933\include\xstring
; File E:\Metin2_server\SolWayneSF v6\ClientVS22\source\UserInterface\UserInterface.cpp
; File C:\Program Files\Microsoft Visual Studio\2022\Community\VC\Tools\MSVC\14.34.31933\include\vector
; File C:\Program Files\Microsoft Visual Studio\2022\Community\VC\Tools\MSVC\14.34.31933\include\xstring
; File E:\Metin2_server\SolWayneSF v6\ClientVS22\source\UserInterface\UserInterface.cpp
; File C:\Program Files\Microsoft Visual Studio\2022\Community\VC\Tools\MSVC\14.34.31933\include\xstring
; File E:\Metin2_server\SolWayneSF v6\ClientVS22\source\UserInterface\UserInterface.cpp
; File C:\Program Files\Microsoft Visual Studio\2022\Community\VC\Tools\MSVC\14.34.31933\include\xstring
; File E:\Metin2_server\SolWayneSF v6\ClientVS22\source\UserInterface\UserInterface.cpp
; File C:\Program Files\Microsoft Visual Studio\2022\Community\VC\Tools\MSVC\14.34.31933\include\xstring
; File E:\Metin2_server\SolWayneSF v6\ClientVS22\source\UserInterface\UserInterface.cpp
; File C:\Program Files\Microsoft Visual Studio\2022\Community\VC\Tools\MSVC\14.34.31933\include\xstring
; File C:\Program Files\Microsoft Visual Studio\2022\Community\VC\Tools\MSVC\14.34.31933\include\xmemory
; File C:\Program Files\Microsoft Visual Studio\2022\Community\VC\Tools\MSVC\14.34.31933\include\xstring
; File C:\Program Files\Microsoft Visual Studio\2022\Community\VC\Tools\MSVC\14.34.31933\include\xmemory
; File E:\Metin2_server\SolWayneSF v6\ClientVS22\source\UserInterface\UserInterface.cpp
; File C:\Program Files\Microsoft Visual Studio\2022\Community\VC\Tools\MSVC\14.34.31933\include\xstring
; File C:\Program Files\Microsoft Visual Studio\2022\Community\VC\Tools\MSVC\14.34.31933\include\utility
; File C:\Program Files\Microsoft Visual Studio\2022\Community\VC\Tools\MSVC\14.34.31933\include\xstring
; File C:\Program Files\Microsoft Visual Studio\2022\Community\VC\Tools\MSVC\14.34.31933\include\xmemory
; File C:\Program Files\Microsoft Visual Studio\2022\Community\VC\Tools\MSVC\14.34.31933\include\xstring
; File C:\Program Files\Microsoft Visual Studio\2022\Community\VC\Tools\MSVC\14.34.31933\include\xmemory
; File C:\Program Files\Microsoft Visual Studio\2022\Community\VC\Tools\MSVC\14.34.31933\include\xstring
; File C:\Program Files\Microsoft Visual Studio\2022\Community\VC\Tools\MSVC\14.34.31933\include\utility
; File C:\Program Files\Microsoft Visual Studio\2022\Community\VC\Tools\MSVC\14.34.31933\include\xstring
; File C:\Program Files\Microsoft Visual Studio\2022\Community\VC\Tools\MSVC\14.34.31933\include\utility
; File C:\Program Files\Microsoft Visual Studio\2022\Community\VC\Tools\MSVC\14.34.31933\include\xstring
; File C:\Program Files\Microsoft Visual Studio\2022\Community\VC\Tools\MSVC\14.34.31933\include\xmemory
; File C:\Program Files\Microsoft Visual Studio\2022\Community\VC\Tools\MSVC\14.34.31933\include\xstring
; File C:\Program Files\Microsoft Visual Studio\2022\Community\VC\Tools\MSVC\14.34.31933\include\xmemory
; File C:\Program Files\Microsoft Visual Studio\2022\Community\VC\Tools\MSVC\14.34.31933\include\xstring
; File E:\Metin2_server\SolWayneSF v6\ClientVS22\source\UserInterface\UserInterface.cpp
; File C:\Program Files\Microsoft Visual Studio\2022\Community\VC\Tools\MSVC\14.34.31933\include\xstring
; File E:\Metin2_server\SolWayneSF v6\ClientVS22\source\UserInterface\UserInterface.cpp
; File C:\Program Files\Microsoft Visual Studio\2022\Community\VC\Tools\MSVC\14.34.31933\include\vector
; File E:\Metin2_server\SolWayneSF v6\ClientVS22\source\UserInterface\UserInterface.cpp
; File C:\Program Files\Microsoft Visual Studio\2022\Community\VC\Tools\MSVC\14.34.31933\include\vector
; File C:\Program Files\Microsoft Visual Studio\2022\Community\VC\Tools\MSVC\14.34.31933\include\xmemory
; File C:\Program Files\Microsoft Visual Studio\2022\Community\VC\Tools\MSVC\14.34.31933\include\xstring
; File C:\Program Files\Microsoft Visual Studio\2022\Community\VC\Tools\MSVC\14.34.31933\include\xmemory
; File C:\Program Files\Microsoft Visual Studio\2022\Community\VC\Tools\MSVC\14.34.31933\include\xstring
; File C:\Program Files\Microsoft Visual Studio\2022\Community\VC\Tools\MSVC\14.34.31933\include\xmemory
; File C:\Program Files\Microsoft Visual Studio\2022\Community\VC\Tools\MSVC\14.34.31933\include\xstring
; File C:\Program Files\Microsoft Visual Studio\2022\Community\VC\Tools\MSVC\14.34.31933\include\xmemory
; File C:\Program Files\Microsoft Visual Studio\2022\Community\VC\Tools\MSVC\14.34.31933\include\vector
; File C:\Program Files\Microsoft Visual Studio\2022\Community\VC\Tools\MSVC\14.34.31933\include\xmemory
; File C:\Program Files\Microsoft Visual Studio\2022\Community\VC\Tools\MSVC\14.34.31933\include\vector
; File C:\Program Files\Microsoft Visual Studio\2022\Community\VC\Tools\MSVC\14.34.31933\include\xstring
; File C:\Program Files\Microsoft Visual Studio\2022\Community\VC\Tools\MSVC\14.34.31933\include\xmemory
; File C:\Program Files\Microsoft Visual Studio\2022\Community\VC\Tools\MSVC\14.34.31933\include\xstring
; File C:\Program Files\Microsoft Visual Studio\2022\Community\VC\Tools\MSVC\14.34.31933\include\xmemory
; File C:\Program Files\Microsoft Visual Studio\2022\Community\VC\Tools\MSVC\14.34.31933\include\xstring
; File C:\Program Files\Microsoft Visual Studio\2022\Community\VC\Tools\MSVC\14.34.31933\include\xmemory
; File C:\Program Files\Microsoft Visual Studio\2022\Community\VC\Tools\MSVC\14.34.31933\include\xstring
; File C:\Program Files\Microsoft Visual Studio\2022\Community\VC\Tools\MSVC\14.34.31933\include\xmemory
; File C:\Program Files\Microsoft Visual Studio\2022\Community\VC\Tools\MSVC\14.34.31933\include\xstring
; File E:\Metin2_server\SolWayneSF v6\ClientVS22\source\UserInterface\UserInterface.cpp
; File C:\Program Files\Microsoft Visual Studio\2022\Community\VC\Tools\MSVC\14.34.31933\include\vector
; File C:\Program Files\Microsoft Visual Studio\2022\Community\VC\Tools\MSVC\14.34.31933\include\xmemory
; File C:\Program Files\Microsoft Visual Studio\2022\Community\VC\Tools\MSVC\14.34.31933\include\xstring
; File C:\Program Files\Microsoft Visual Studio\2022\Community\VC\Tools\MSVC\14.34.31933\include\xmemory
; File C:\Program Files\Microsoft Visual Studio\2022\Community\VC\Tools\MSVC\14.34.31933\include\xstring
; File C:\Program Files\Microsoft Visual Studio\2022\Community\VC\Tools\MSVC\14.34.31933\include\xmemory
; File C:\Program Files\Microsoft Visual Studio\2022\Community\VC\Tools\MSVC\14.34.31933\include\vector
; File C:\Program Files\Microsoft Visual Studio\2022\Community\VC\Tools\MSVC\14.34.31933\include\xmemory
; File C:\Program Files\Microsoft Visual Studio\2022\Community\VC\Tools\MSVC\14.34.31933\include\vector
; File E:\Metin2_server\SolWayneSF v6\ClientVS22\source\UserInterface\UserInterface.cpp
; File C:\Program Files\Microsoft Visual Studio\2022\Community\VC\Tools\MSVC\14.34.31933\include\xstring
; File C:\Program Files\Microsoft Visual Studio\2022\Community\VC\Tools\MSVC\14.34.31933\include\xmemory
; File C:\Program Files\Microsoft Visual Studio\2022\Community\VC\Tools\MSVC\14.34.31933\include\xstring
; File C:\Program Files\Microsoft Visual Studio\2022\Community\VC\Tools\MSVC\14.34.31933\include\xmemory
; File E:\Metin2_server\SolWayneSF v6\ClientVS22\source\UserInterface\UserInterface.cpp
; File C:\Program Files\Microsoft Visual Studio\2022\Community\VC\Tools\MSVC\14.34.31933\include\xstring
; File C:\Program Files\Microsoft Visual Studio\2022\Community\VC\Tools\MSVC\14.34.31933\include\xmemory
; File C:\Program Files\Microsoft Visual Studio\2022\Community\VC\Tools\MSVC\14.34.31933\include\xstring
; File C:\Program Files\Microsoft Visual Studio\2022\Community\VC\Tools\MSVC\14.34.31933\include\xmemory
; File C:\Program Files\Microsoft Visual Studio\2022\Community\VC\Tools\MSVC\14.34.31933\include\vector
; File E:\Metin2_server\SolWayneSF v6\ClientVS22\source\UserInterface\UserInterface.cpp
; File C:\Program Files\Microsoft Visual Studio\2022\Community\VC\Tools\MSVC\14.34.31933\include\vector
; File E:\Metin2_server\SolWayneSF v6\ClientVS22\source\UserInterface\UserInterface.cpp
; File C:\Program Files\Microsoft Visual Studio\2022\Community\VC\Tools\MSVC\14.34.31933\include\vector
; File E:\Metin2_server\SolWayneSF v6\ClientVS22\source\UserInterface\UserInterface.cpp
; File C:\Program Files\Microsoft Visual Studio\2022\Community\VC\Tools\MSVC\14.34.31933\include\xstring
; File E:\Metin2_server\SolWayneSF v6\ClientVS22\source\UserInterface\UserInterface.cpp
; File C:\Program Files\Microsoft Visual Studio\2022\Community\VC\Tools\MSVC\14.34.31933\include\vector
; File E:\Metin2_server\SolWayneSF v6\ClientVS22\source\UserInterface\UserInterface.cpp
; File C:\Program Files\Microsoft Visual Studio\2022\Community\VC\Tools\MSVC\14.34.31933\include\vector
; File C:\Program Files\Microsoft Visual Studio\2022\Community\VC\Tools\MSVC\14.34.31933\include\xmemory
; File C:\Program Files\Microsoft Visual Studio\2022\Community\VC\Tools\MSVC\14.34.31933\include\xstring
; File C:\Program Files\Microsoft Visual Studio\2022\Community\VC\Tools\MSVC\14.34.31933\include\xmemory
; File C:\Program Files\Microsoft Visual Studio\2022\Community\VC\Tools\MSVC\14.34.31933\include\xstring
; File C:\Program Files\Microsoft Visual Studio\2022\Community\VC\Tools\MSVC\14.34.31933\include\xmemory
; File C:\Program Files\Microsoft Visual Studio\2022\Community\VC\Tools\MSVC\14.34.31933\include\xstring
; File C:\Program Files\Microsoft Visual Studio\2022\Community\VC\Tools\MSVC\14.34.31933\include\xmemory
; File C:\Program Files\Microsoft Visual Studio\2022\Community\VC\Tools\MSVC\14.34.31933\include\vector
; File E:\Metin2_server\SolWayneSF v6\ClientVS22\source\UserInterface\UserInterface.cpp
; File C:\Program Files\Microsoft Visual Studio\2022\Community\VC\Tools\MSVC\14.34.31933\include\vector
; File C:\Program Files\Microsoft Visual Studio\2022\Community\VC\Tools\MSVC\14.34.31933\include\xmemory
; File C:\Program Files\Microsoft Visual Studio\2022\Community\VC\Tools\MSVC\14.34.31933\include\vector
; File E:\Metin2_server\SolWayneSF v6\ClientVS22\source\UserInterface\UserInterface.cpp
; File C:\Program Files\Microsoft Visual Studio\2022\Community\VC\Tools\MSVC\14.34.31933\include\xstring
; File E:\Metin2_server\SolWayneSF v6\ClientVS22\source\UserInterface\UserInterface.cpp
; File C:\Program Files\Microsoft Visual Studio\2022\Community\VC\Tools\MSVC\14.34.31933\include\xmemory
; File E:\Metin2_server\SolWayneSF v6\ClientVS22\source\UserInterface\UserInterface.cpp
;	COMDAT ?RunMainScript@@YA_NAAVCPythonLauncher@@PBD@Z
_TEXT	SEGMENT
__Old_size$1$ = -388					; size = 4
$T2 = -388						; size = 1
_lpCmdLine$GSCopy$1$ = -384				; size = 4
_pyLauncher$GSCopy$1$ = -380				; size = 4
tv4492 = -376						; size = 4
__Masked$3 = -376					; size = 4
__Masked$4 = -376					; size = 4
__Old_size$1$ = -372					; size = 4
__Old_size$1$ = -372					; size = 4
tv4493 = -372						; size = 4
$T5 = -372						; size = 4
__Old_capacity$1$ = -368				; size = 4
__Old_capacity$1$ = -368				; size = 4
tv4466 = -368						; size = 4
$T6 = -364						; size = 4
$T7 = -364						; size = 4
tv4474 = -364						; size = 4
$T8 = -364						; size = 4
_stVec$9 = -360						; size = 12
_stVec$10 = -360					; size = 12
$T11 = -348						; size = 24
$T12 = -348						; size = 24
_stCmdLine$13 = -324					; size = 24
_stRegisterDebugFlag$14 = -324				; size = 24
_stRegisterCmdLine$15 = -300				; size = 24
_buf$16 = -276						; size = 260
__$ArrayPad$ = -16					; size = 4
__$EHRec$ = -12						; size = 12
?RunMainScript@@YA_NAAVCPythonLauncher@@PBD@Z PROC	; RunMainScript, COMDAT
; _pyLauncher$ = ecx
; _lpCmdLine$ = edx

; 242  : {

  00000	55		 push	 ebp
  00001	8b ec		 mov	 ebp, esp
  00003	6a ff		 push	 -1
  00005	68 00 00 00 00	 push	 __ehhandler$?RunMainScript@@YA_NAAVCPythonLauncher@@PBD@Z
  0000a	64 a1 00 00 00
	00		 mov	 eax, DWORD PTR fs:0
  00010	50		 push	 eax
  00011	81 ec 78 01 00
	00		 sub	 esp, 376		; 00000178H
  00017	a1 00 00 00 00	 mov	 eax, DWORD PTR ___security_cookie
  0001c	33 c5		 xor	 eax, ebp
  0001e	89 45 f0	 mov	 DWORD PTR __$ArrayPad$[ebp], eax
  00021	53		 push	 ebx
  00022	56		 push	 esi
  00023	57		 push	 edi
  00024	50		 push	 eax
  00025	8d 45 f4	 lea	 eax, DWORD PTR __$EHRec$[ebp]
  00028	64 a3 00 00 00
	00		 mov	 DWORD PTR fs:0, eax
  0002e	89 95 80 fe ff
	ff		 mov	 DWORD PTR _lpCmdLine$GSCopy$1$[ebp], edx
  00034	89 8d 84 fe ff
	ff		 mov	 DWORD PTR _pyLauncher$GSCopy$1$[ebp], ecx

; 243  : 	initpack();

  0003a	e8 00 00 00 00	 call	 ?initpack@@YAXXZ	; initpack

; 244  : 	initdbg();

  0003f	e8 00 00 00 00	 call	 ?initdbg@@YAXXZ		; initdbg

; 245  : 	initime();

  00044	e8 00 00 00 00	 call	 ?initime@@YAXXZ		; initime

; 246  : 	initgrp();

  00049	e8 00 00 00 00	 call	 ?initgrp@@YAXXZ		; initgrp

; 247  : 	initgrpImage();

  0004e	e8 00 00 00 00	 call	 ?initgrpImage@@YAXXZ	; initgrpImage

; 248  : 	initgrpText();

  00053	e8 00 00 00 00	 call	 ?initgrpText@@YAXXZ	; initgrpText

; 249  : 	initwndMgr();

  00058	e8 00 00 00 00	 call	 ?initwndMgr@@YAXXZ	; initwndMgr

; 250  : 	/////////////////////////////////////////////
; 251  : 	initudp();
; 252  : 	initapp();

  0005d	e8 00 00 00 00	 call	 ?initapp@@YAXXZ		; initapp

; 253  : 	initsystem();

  00062	e8 00 00 00 00	 call	 ?initsystem@@YAXXZ	; initsystem

; 254  : 	initchr();

  00067	e8 00 00 00 00	 call	 ?initchr@@YAXXZ		; initchr

; 255  : 	initchrmgr();

  0006c	e8 00 00 00 00	 call	 ?initchrmgr@@YAXXZ	; initchrmgr

; 256  : 	initPlayer();

  00071	e8 00 00 00 00	 call	 ?initPlayer@@YAXXZ	; initPlayer

; 257  : 	initItem();

  00076	e8 00 00 00 00	 call	 ?initItem@@YAXXZ	; initItem

; 258  : 	initNonPlayer();

  0007b	e8 00 00 00 00	 call	 ?initNonPlayer@@YAXXZ	; initNonPlayer

; 259  : 	initTrade();

  00080	e8 00 00 00 00	 call	 ?initTrade@@YAXXZ	; initTrade

; 260  : 	initChat();

  00085	e8 00 00 00 00	 call	 ?initChat@@YAXXZ	; initChat

; 261  : 	initTextTail();

  0008a	e8 00 00 00 00	 call	 ?initTextTail@@YAXXZ	; initTextTail

; 262  : 	initnet();

  0008f	e8 00 00 00 00	 call	 ?initnet@@YAXXZ		; initnet

; 263  : 	initMiniMap();

  00094	e8 00 00 00 00	 call	 ?initMiniMap@@YAXXZ	; initMiniMap

; 264  : 	initProfiler();

  00099	e8 00 00 00 00	 call	 ?initProfiler@@YAXXZ	; initProfiler

; 265  : 	initEvent();

  0009e	e8 00 00 00 00	 call	 ?initEvent@@YAXXZ	; initEvent

; 266  : 	initeffect();

  000a3	e8 00 00 00 00	 call	 ?initeffect@@YAXXZ	; initeffect

; 267  : 	initfly();

  000a8	e8 00 00 00 00	 call	 ?initfly@@YAXXZ		; initfly

; 268  : 	initsnd();

  000ad	e8 00 00 00 00	 call	 ?initsnd@@YAXXZ		; initsnd

; 269  : 	initeventmgr();

  000b2	e8 00 00 00 00	 call	 ?initeventmgr@@YAXXZ	; initeventmgr

; 270  : 	initshop();

  000b7	e8 00 00 00 00	 call	 ?initshop@@YAXXZ	; initshop

; 271  : 	initskill();

  000bc	e8 00 00 00 00	 call	 ?initskill@@YAXXZ	; initskill

; 272  : #ifdef NEW_PET_SYSTEM
; 273  : 	initskillpet();

  000c1	e8 00 00 00 00	 call	 ?initskillpet@@YAXXZ	; initskillpet

; 274  : #endif
; 275  : 	initquest();

  000c6	e8 00 00 00 00	 call	 ?initquest@@YAXXZ	; initquest

; 276  : 	initBackground();

  000cb	e8 00 00 00 00	 call	 ?initBackground@@YAXXZ	; initBackground

; 277  : 	initMessenger();

  000d0	e8 00 00 00 00	 call	 ?initMessenger@@YAXXZ	; initMessenger

; 278  : 	#ifdef ENABLE_SASH_SYSTEM
; 279  : 	initSash();

  000d5	e8 00 00 00 00	 call	 ?initSash@@YAXXZ	; initSash

; 280  : 	#endif
; 281  : 	initsafebox();

  000da	e8 00 00 00 00	 call	 ?initsafebox@@YAXXZ	; initsafebox

; 282  : 	initguild();

  000df	e8 00 00 00 00	 call	 ?initguild@@YAXXZ	; initguild

; 283  : 	initServerStateChecker();

  000e4	e8 00 00 00 00	 call	 ?initServerStateChecker@@YAXXZ ; initServerStateChecker

; 284  : 
; 285  : 	NANOBEGIN

  000e9	eb		 DB	 -21			; ffffffebH
  000ea	03		 DB	 3
  000eb	d6		 DB	 -42			; ffffffd6H
  000ec	d7		 DB	 -41			; ffffffd7H
  000ed	01		 DB	 1
  000ee	0f 57 c0	 xorps	 xmm0, xmm0
; File C:\Program Files\Microsoft Visual Studio\2022\Community\VC\Tools\MSVC\14.34.31933\include\xstring

; 4996 :         _My_data._Myres  = _BUF_SIZE - 1;

  000f1	b9 0f 00 00 00	 mov	 ecx, 15			; 0000000fH

; 2339 :         _CONSTEXPR20 _Bxty() noexcept : _Buf() {} // user-provided, for fancy pointers

  000f6	0f 11 85 bc fe
	ff ff		 movups	 XMMWORD PTR _stRegisterDebugFlag$14[ebp], xmm0

; 4996 :         _My_data._Myres  = _BUF_SIZE - 1;

  000fd	89 8d d0 fe ff
	ff		 mov	 DWORD PTR _stRegisterDebugFlag$14[ebp+20], ecx

; 4997 :         _My_data._Activate_SSO_buffer();
; 4998 : 
; 4999 :         // the _Traits::assign is last so the codegen doesn't think the char write can alias this
; 5000 :         _Traits::assign(_My_data._Bx._Buf[0], _Elem());

  00103	c6 85 bc fe ff
	ff 00		 mov	 BYTE PTR _stRegisterDebugFlag$14[ebp], 0
; File E:\Metin2_server\SolWayneSF v6\ClientVS22\source\UserInterface\UserInterface.cpp

; 295  : 		if (!pyLauncher.RunLine(stRegisterDebugFlag.c_str()))

  0010a	8b 8d 84 fe ff
	ff		 mov	 ecx, DWORD PTR _pyLauncher$GSCopy$1$[ebp]
  00110	c7 45 fc 00 00
	00 00		 mov	 DWORD PTR __$EHRec$[ebp+8], 0
; File C:\Program Files\Microsoft Visual Studio\2022\Community\VC\Tools\MSVC\14.34.31933\include\xstring

; 117  :         _CSTD memmove(_First1, _First2, _Count * sizeof(_Elem));

  00117	a1 08 00 00 00	 mov	 eax, DWORD PTR ??_C@_0O@GIEHGGHC@__DEBUG__?5?$DN?50@+8
  0011c	f3 0f 7e 05 00
	00 00 00	 movq	 xmm0, QWORD PTR ??_C@_0O@GIEHGGHC@__DEBUG__?5?$DN?50@
  00124	89 85 c4 fe ff
	ff		 mov	 DWORD PTR _stRegisterDebugFlag$14[ebp+8], eax
  0012a	a0 0c 00 00 00	 mov	 al, BYTE PTR ??_C@_0O@GIEHGGHC@__DEBUG__?5?$DN?50@+12
  0012f	88 85 c8 fe ff
	ff		 mov	 BYTE PTR _stRegisterDebugFlag$14[ebp+12], al

; 2292 :         const value_type* _Result = _Bx._Buf;

  00135	8d 85 bc fe ff
	ff		 lea	 eax, DWORD PTR _stRegisterDebugFlag$14[ebp]
; File E:\Metin2_server\SolWayneSF v6\ClientVS22\source\UserInterface\UserInterface.cpp

; 295  : 		if (!pyLauncher.RunLine(stRegisterDebugFlag.c_str()))

  0013b	50		 push	 eax
; File C:\Program Files\Microsoft Visual Studio\2022\Community\VC\Tools\MSVC\14.34.31933\include\xstring

; 3530 :             _Mypair._Myval2._Mysize = _Count;

  0013c	c7 85 cc fe ff
	ff 0d 00 00 00	 mov	 DWORD PTR _stRegisterDebugFlag$14[ebp+16], 13 ; 0000000dH

; 117  :         _CSTD memmove(_First1, _First2, _Count * sizeof(_Elem));

  00146	66 0f d6 85 bc
	fe ff ff	 movq	 QWORD PTR _stRegisterDebugFlag$14[ebp], xmm0

; 3532 :             _Traits::assign(_Old_ptr[_Count], _Elem());

  0014e	c6 85 c9 fe ff
	ff 00		 mov	 BYTE PTR _stRegisterDebugFlag$14[ebp+13], 0
; File E:\Metin2_server\SolWayneSF v6\ClientVS22\source\UserInterface\UserInterface.cpp

; 295  : 		if (!pyLauncher.RunLine(stRegisterDebugFlag.c_str()))

  00155	e8 00 00 00 00	 call	 ?RunLine@CPythonLauncher@@QAE_NPBD@Z ; CPythonLauncher::RunLine
  0015a	84 c0		 test	 al, al
  0015c	75 50		 jne	 SHORT $LN2@RunMainScr

; 297  : 			TraceError("RegisterDebugFlag Error");

  0015e	68 00 00 00 00	 push	 OFFSET ??_C@_0BI@JAFKHBD@RegisterDebugFlag?5Error@
  00163	e8 00 00 00 00	 call	 ?TraceError@@YAXPBDZZ	; TraceError
; File C:\Program Files\Microsoft Visual Studio\2022\Community\VC\Tools\MSVC\14.34.31933\include\xstring

; 2301 :         return _BUF_SIZE <= _Myres;

  00168	8b 8d d0 fe ff
	ff		 mov	 ecx, DWORD PTR _stRegisterDebugFlag$14[ebp+20]
; File E:\Metin2_server\SolWayneSF v6\ClientVS22\source\UserInterface\UserInterface.cpp

; 297  : 			TraceError("RegisterDebugFlag Error");

  0016e	83 c4 04	 add	 esp, 4
; File C:\Program Files\Microsoft Visual Studio\2022\Community\VC\Tools\MSVC\14.34.31933\include\xstring

; 2301 :         return _BUF_SIZE <= _Myres;

  00171	83 f9 10	 cmp	 ecx, 16			; 00000010H

; 5008 :         if (_My_data._Large_string_engaged()) {

  00174	0f 82 1c 0a 00
	00		 jb	 $LN850@RunMainScr
; File C:\Program Files\Microsoft Visual Studio\2022\Community\VC\Tools\MSVC\14.34.31933\include\xmemory

; 830  :         _Deallocate<_New_alignof<_Ty>>(_Ptr, sizeof(_Ty) * _Count);

  0017a	8b 95 bc fe ff
	ff		 mov	 edx, DWORD PTR _stRegisterDebugFlag$14[ebp]
; File C:\Program Files\Microsoft Visual Studio\2022\Community\VC\Tools\MSVC\14.34.31933\include\xstring

; 5013 :             _Al.deallocate(_Ptr, _My_data._Myres + 1);

  00180	41		 inc	 ecx
; File C:\Program Files\Microsoft Visual Studio\2022\Community\VC\Tools\MSVC\14.34.31933\include\xmemory

; 830  :         _Deallocate<_New_alignof<_Ty>>(_Ptr, sizeof(_Ty) * _Count);

  00181	8b c2		 mov	 eax, edx

; 251  :         if (_Bytes >= _Big_allocation_threshold) { // boost the alignment of big allocations to help autovectorization

  00183	81 f9 00 10 00
	00		 cmp	 ecx, 4096		; 00001000H
  00189	72 14		 jb	 SHORT $LN161@RunMainScr

; 150  :     const uintptr_t _Ptr_container   = _Ptr_user[-1];

  0018b	8b 50 fc	 mov	 edx, DWORD PTR [eax-4]
  0018e	83 c1 23	 add	 ecx, 35			; 00000023H
  00191	2b c2		 sub	 eax, edx

; 164  :     _STL_VERIFY(_Back_shift >= _Min_back_shift && _Back_shift <= _Non_user_size, "invalid argument");

  00193	83 c0 fc	 add	 eax, -4			; fffffffcH
  00196	83 f8 1f	 cmp	 eax, 31			; 0000001fH
  00199	0f 87 69 0a 00
	00		 ja	 $LN187@RunMainScr
$LN161@RunMainScr:

; 255  :         ::operator delete(_Ptr, _Bytes);

  0019f	51		 push	 ecx
  001a0	52		 push	 edx
  001a1	e8 00 00 00 00	 call	 ??3@YAXPAXI@Z		; operator delete
  001a6	83 c4 08	 add	 esp, 8
; File C:\Program Files\Microsoft Visual Studio\2022\Community\VC\Tools\MSVC\14.34.31933\include\xstring

; 4936 :         if (max_size() - _Old_size < _Size_increase) {

  001a9	e9 e8 09 00 00	 jmp	 $LN850@RunMainScr
$LN2@RunMainScr:
; File E:\Metin2_server\SolWayneSF v6\ClientVS22\source\UserInterface\UserInterface.cpp

; 300  : 	}

  001ae	c7 45 fc ff ff
	ff ff		 mov	 DWORD PTR __$EHRec$[ebp+8], -1
; File C:\Program Files\Microsoft Visual Studio\2022\Community\VC\Tools\MSVC\14.34.31933\include\xstring

; 5008 :         if (_My_data._Large_string_engaged()) {

  001b5	8b 8d d0 fe ff
	ff		 mov	 ecx, DWORD PTR _stRegisterDebugFlag$14[ebp+20]
  001bb	83 f9 10	 cmp	 ecx, 16			; 00000010H
  001be	72 2f		 jb	 SHORT $LN178@RunMainScr
; File C:\Program Files\Microsoft Visual Studio\2022\Community\VC\Tools\MSVC\14.34.31933\include\xmemory

; 830  :         _Deallocate<_New_alignof<_Ty>>(_Ptr, sizeof(_Ty) * _Count);

  001c0	8b 95 bc fe ff
	ff		 mov	 edx, DWORD PTR _stRegisterDebugFlag$14[ebp]
; File C:\Program Files\Microsoft Visual Studio\2022\Community\VC\Tools\MSVC\14.34.31933\include\xstring

; 5013 :             _Al.deallocate(_Ptr, _My_data._Myres + 1);

  001c6	41		 inc	 ecx
; File C:\Program Files\Microsoft Visual Studio\2022\Community\VC\Tools\MSVC\14.34.31933\include\xmemory

; 830  :         _Deallocate<_New_alignof<_Ty>>(_Ptr, sizeof(_Ty) * _Count);

  001c7	8b c2		 mov	 eax, edx

; 251  :         if (_Bytes >= _Big_allocation_threshold) { // boost the alignment of big allocations to help autovectorization

  001c9	81 f9 00 10 00
	00		 cmp	 ecx, 4096		; 00001000H
  001cf	72 14		 jb	 SHORT $LN190@RunMainScr

; 150  :     const uintptr_t _Ptr_container   = _Ptr_user[-1];

  001d1	8b 50 fc	 mov	 edx, DWORD PTR [eax-4]
  001d4	83 c1 23	 add	 ecx, 35			; 00000023H
  001d7	2b c2		 sub	 eax, edx

; 164  :     _STL_VERIFY(_Back_shift >= _Min_back_shift && _Back_shift <= _Non_user_size, "invalid argument");

  001d9	83 c0 fc	 add	 eax, -4			; fffffffcH
  001dc	83 f8 1f	 cmp	 eax, 31			; 0000001fH
  001df	0f 87 23 0a 00
	00		 ja	 $LN187@RunMainScr
$LN190@RunMainScr:

; 255  :         ::operator delete(_Ptr, _Bytes);

  001e5	51		 push	 ecx
  001e6	52		 push	 edx
  001e7	e8 00 00 00 00	 call	 ??3@YAXPAXI@Z		; operator delete
  001ec	83 c4 08	 add	 esp, 8
$LN178@RunMainScr:
  001ef	0f 57 c0	 xorps	 xmm0, xmm0
; File C:\Program Files\Microsoft Visual Studio\2022\Community\VC\Tools\MSVC\14.34.31933\include\xstring

; 4995 :         _My_data._Mysize = 0;

  001f2	c7 85 e4 fe ff
	ff 00 00 00 00	 mov	 DWORD PTR _stRegisterCmdLine$15[ebp+16], 0

; 2339 :         _CONSTEXPR20 _Bxty() noexcept : _Buf() {} // user-provided, for fancy pointers

  001fc	0f 11 85 d4 fe
	ff ff		 movups	 XMMWORD PTR _stRegisterCmdLine$15[ebp], xmm0

; 4996 :         _My_data._Myres  = _BUF_SIZE - 1;

  00203	c7 85 e8 fe ff
	ff 0f 00 00 00	 mov	 DWORD PTR _stRegisterCmdLine$15[ebp+20], 15 ; 0000000fH

; 4997 :         _My_data._Activate_SSO_buffer();
; 4998 : 
; 4999 :         // the _Traits::assign is last so the codegen doesn't think the char write can alias this
; 5000 :         _Traits::assign(_My_data._Bx._Buf[0], _Elem());

  0020d	c6 85 d4 fe ff
	ff 00		 mov	 BYTE PTR _stRegisterCmdLine$15[ebp], 0
; File E:\Metin2_server\SolWayneSF v6\ClientVS22\source\UserInterface\UserInterface.cpp

; 304  : 		std::string stRegisterCmdLine;

  00214	c7 45 fc 01 00
	00 00		 mov	 DWORD PTR __$EHRec$[ebp+8], 1
; File C:\Program Files\Microsoft Visual Studio\2022\Community\VC\Tools\MSVC\14.34.31933\include\xstring

; 2339 :         _CONSTEXPR20 _Bxty() noexcept : _Buf() {} // user-provided, for fancy pointers

  0021b	0f 11 85 bc fe
	ff ff		 movups	 XMMWORD PTR _stCmdLine$13[ebp], xmm0

; 4995 :         _My_data._Mysize = 0;

  00222	c7 85 cc fe ff
	ff 00 00 00 00	 mov	 DWORD PTR _stCmdLine$13[ebp+16], 0

; 4996 :         _My_data._Myres  = _BUF_SIZE - 1;

  0022c	c7 85 d0 fe ff
	ff 0f 00 00 00	 mov	 DWORD PTR _stCmdLine$13[ebp+20], 15 ; 0000000fH

; 4997 :         _My_data._Activate_SSO_buffer();
; 4998 : 
; 4999 :         // the _Traits::assign is last so the codegen doesn't think the char write can alias this
; 5000 :         _Traits::assign(_My_data._Bx._Buf[0], _Elem());

  00236	c6 85 bc fe ff
	ff 00		 mov	 BYTE PTR _stCmdLine$13[ebp], 0
; File C:\Program Files\Microsoft Visual Studio\2022\Community\VC\Tools\MSVC\14.34.31933\include\vector

; 390  :     _CONSTEXPR20 _Vector_val() noexcept : _Myfirst(), _Mylast(), _Myend() {}

  0023d	c7 85 98 fe ff
	ff 00 00 00 00	 mov	 DWORD PTR _stVec$10[ebp], 0
  00247	c7 85 9c fe ff
	ff 00 00 00 00	 mov	 DWORD PTR _stVec$10[ebp+4], 0
  00251	c7 85 a0 fe ff
	ff 00 00 00 00	 mov	 DWORD PTR _stVec$10[ebp+8], 0
; File E:\Metin2_server\SolWayneSF v6\ClientVS22\source\UserInterface\UserInterface.cpp

; 313  : 		SplitLine(lpCmdLine,seperator,&stVec);

  0025b	8b bd 80 fe ff
	ff		 mov	 edi, DWORD PTR _lpCmdLine$GSCopy$1$[ebp]
  00261	8d 85 98 fe ff
	ff		 lea	 eax, DWORD PTR _stVec$10[ebp]
  00267	50		 push	 eax
  00268	68 00 00 00 00	 push	 OFFSET ??_C@_01CLKCMJKC@?5@
  0026d	57		 push	 edi
  0026e	c6 45 fc 03	 mov	 BYTE PTR __$EHRec$[ebp+8], 3
  00272	e8 00 00 00 00	 call	 ?SplitLine@@YA_NPBD0PAV?$vector@V?$basic_string@DU?$char_traits@D@std@@V?$allocator@D@2@@std@@V?$allocator@V?$basic_string@DU?$char_traits@D@std@@V?$allocator@D@2@@std@@@2@@std@@@Z ; SplitLine
; File C:\Program Files\Microsoft Visual Studio\2022\Community\VC\Tools\MSVC\14.34.31933\include\vector

; 1932 :         return static_cast<size_type>(_My_data._Mylast - _My_data._Myfirst);

  00277	8b 85 9c fe ff
	ff		 mov	 eax, DWORD PTR _stVec$10[ebp+4]
; File E:\Metin2_server\SolWayneSF v6\ClientVS22\source\UserInterface\UserInterface.cpp

; 313  : 		SplitLine(lpCmdLine,seperator,&stVec);

  0027d	83 c4 0c	 add	 esp, 12			; 0000000cH
; File C:\Program Files\Microsoft Visual Studio\2022\Community\VC\Tools\MSVC\14.34.31933\include\vector

; 1932 :         return static_cast<size_type>(_My_data._Mylast - _My_data._Myfirst);

  00280	8b b5 98 fe ff
	ff		 mov	 esi, DWORD PTR _stVec$10[ebp]
  00286	2b c6		 sub	 eax, esi
  00288	c1 f8 03	 sar	 eax, 3
  0028b	69 c0 ab aa aa
	aa		 imul	 eax, eax, -1431655765
  00291	89 85 90 fe ff
	ff		 mov	 DWORD PTR tv4466[ebp], eax
; File E:\Metin2_server\SolWayneSF v6\ClientVS22\source\UserInterface\UserInterface.cpp

; 314  : 		if (CmdSize == stVec.size() && stVec[0]==loginMark)

  00297	83 f8 03	 cmp	 eax, 3
  0029a	0f 85 d5 00 00
	00		 jne	 $LN1177@RunMainScr
; File C:\Program Files\Microsoft Visual Studio\2022\Community\VC\Tools\MSVC\14.34.31933\include\xstring

; 2292 :         const value_type* _Result = _Bx._Buf;

  002a0	8b c6		 mov	 eax, esi
  002a2	8b f8		 mov	 edi, eax

; 2293 :         if (_Large_string_engaged()) {

  002a4	83 7f 14 10	 cmp	 DWORD PTR [edi+20], 16	; 00000010H
  002a8	72 02		 jb	 SHORT $LN1167@RunMainScr

; 2294 :             _Result = _Unfancy(_Bx._Ptr);

  002aa	8b 06		 mov	 eax, DWORD PTR [esi]
$LN1167@RunMainScr:

; 4756 :         return _Traits_equal<_Traits>(_Mypair._Myval2._Myptr(), _Mypair._Myval2._Mysize, _Ptr, _Traits::length(_Ptr));

  002ac	6a 03		 push	 3
  002ae	68 00 00 00 00	 push	 OFFSET ??_C@_03MCGAAIEM@?9cs@
  002b3	ff 76 10	 push	 DWORD PTR [esi+16]
  002b6	50		 push	 eax
  002b7	e8 00 00 00 00	 call	 ??$_Traits_equal@U?$char_traits@D@std@@@std@@YA_NQBDI0I@Z ; std::_Traits_equal<std::char_traits<char> >
  002bc	83 c4 10	 add	 esp, 16			; 00000010H
; File E:\Metin2_server\SolWayneSF v6\ClientVS22\source\UserInterface\UserInterface.cpp

; 314  : 		if (CmdSize == stVec.size() && stVec[0]==loginMark)

  002bf	84 c0		 test	 al, al
  002c1	0f 84 9f 00 00
	00		 je	 $LN1174@RunMainScr
; File C:\Program Files\Microsoft Visual Studio\2022\Community\VC\Tools\MSVC\14.34.31933\include\xstring

; 2293 :         if (_Large_string_engaged()) {

  002c7	83 7f 44 10	 cmp	 DWORD PTR [edi+68], 16	; 00000010H
; File C:\Program Files\Microsoft Visual Studio\2022\Community\VC\Tools\MSVC\14.34.31933\include\vector

; 1952 :         return _My_data._Myfirst[_Pos];

  002cb	8d 47 30	 lea	 eax, DWORD PTR [edi+48]
; File C:\Program Files\Microsoft Visual Studio\2022\Community\VC\Tools\MSVC\14.34.31933\include\xstring

; 2293 :         if (_Large_string_engaged()) {

  002ce	72 02		 jb	 SHORT $LN751@RunMainScr

; 2294 :             _Result = _Unfancy(_Bx._Ptr);

  002d0	8b 00		 mov	 eax, DWORD PTR [eax]
$LN751@RunMainScr:
; File E:\Metin2_server\SolWayneSF v6\ClientVS22\source\UserInterface\UserInterface.cpp

; 317  : 			base64_decode(stVec[2].c_str(),buf);

  002d2	8d 8d ec fe ff
	ff		 lea	 ecx, DWORD PTR _buf$16[ebp]
  002d8	51		 push	 ecx
  002d9	50		 push	 eax
  002da	e8 00 00 00 00	 call	 ?base64_decode@@YAXPBDPAD@Z ; base64_decode
; File C:\Program Files\Microsoft Visual Studio\2022\Community\VC\Tools\MSVC\14.34.31933\include\vector

; 1952 :         return _My_data._Myfirst[_Pos];

  002df	8b 95 98 fe ff
	ff		 mov	 edx, DWORD PTR _stVec$10[ebp]
; File C:\Program Files\Microsoft Visual Studio\2022\Community\VC\Tools\MSVC\14.34.31933\include\xstring

; 415  :             return __builtin_strlen(_First);

  002e5	8d 8d ec fe ff
	ff		 lea	 ecx, DWORD PTR _buf$16[ebp]
; File E:\Metin2_server\SolWayneSF v6\ClientVS22\source\UserInterface\UserInterface.cpp

; 317  : 			base64_decode(stVec[2].c_str(),buf);

  002eb	83 c4 08	 add	 esp, 8
; File C:\Program Files\Microsoft Visual Studio\2022\Community\VC\Tools\MSVC\14.34.31933\include\xstring

; 415  :             return __builtin_strlen(_First);

  002ee	8d 71 01	 lea	 esi, DWORD PTR [ecx+1]
$LL1171@RunMainScr:
  002f1	8a 01		 mov	 al, BYTE PTR [ecx]
  002f3	41		 inc	 ecx
  002f4	84 c0		 test	 al, al
  002f6	75 f9		 jne	 SHORT $LL1171@RunMainScr
  002f8	2b ce		 sub	 ecx, esi

; 3546 :         return assign(_Ptr, _Convert_size<size_type>(_Traits::length(_Ptr)));

  002fa	8d 85 ec fe ff
	ff		 lea	 eax, DWORD PTR _buf$16[ebp]
  00300	51		 push	 ecx
  00301	50		 push	 eax
  00302	8d 4a 30	 lea	 ecx, DWORD PTR [edx+48]
  00305	e8 00 00 00 00	 call	 ?assign@?$basic_string@DU?$char_traits@D@std@@V?$allocator@D@2@@std@@QAEAAV12@QBDI@Z ; std::basic_string<char,std::char_traits<char>,std::allocator<char> >::assign

; 117  :         _CSTD memmove(_First1, _First2, _Count * sizeof(_Elem));

  0030a	a0 00 00 00 00	 mov	 al, BYTE PTR ??_C@_01CLKCMJKC@?5@
  0030f	0f 57 c0	 xorps	 xmm0, xmm0

; 2339 :         _CONSTEXPR20 _Bxty() noexcept : _Buf() {} // user-provided, for fancy pointers

  00312	0f 11 85 a4 fe
	ff ff		 movups	 XMMWORD PTR $T12[ebp], xmm0

; 2748 :             _My_data._Mysize = _Count;

  00319	c7 85 b4 fe ff
	ff 01 00 00 00	 mov	 DWORD PTR $T12[ebp+16], 1

; 2749 :             _My_data._Myres  = _BUF_SIZE - 1;

  00323	c7 85 b8 fe ff
	ff 0f 00 00 00	 mov	 DWORD PTR $T12[ebp+20], 15 ; 0000000fH

; 117  :         _CSTD memmove(_First1, _First2, _Count * sizeof(_Elem));

  0032d	88 85 a4 fe ff
	ff		 mov	 BYTE PTR $T12[ebp], al
; File E:\Metin2_server\SolWayneSF v6\ClientVS22\source\UserInterface\UserInterface.cpp

; 319  : 			string_join(seperator,stVec,&stCmdLine);

  00333	8d 85 bc fe ff
	ff		 lea	 eax, DWORD PTR _stCmdLine$13[ebp]
  00339	c6 45 fc 04	 mov	 BYTE PTR __$EHRec$[ebp+8], 4
  0033d	50		 push	 eax
  0033e	8d 95 98 fe ff
	ff		 lea	 edx, DWORD PTR _stVec$10[ebp]
  00344	8d 8d a4 fe ff
	ff		 lea	 ecx, DWORD PTR $T12[ebp]
  0034a	e8 00 00 00 00	 call	 ??$string_join@V?$vector@V?$basic_string@DU?$char_traits@D@std@@V?$allocator@D@2@@std@@V?$allocator@V?$basic_string@DU?$char_traits@D@std@@V?$allocator@D@2@@std@@@2@@std@@@@YAXABV?$basic_string@DU?$char_traits@D@std@@V?$allocator@D@2@@std@@ABV?$vector@V?$basic_string@DU?$char_traits@D@std@@V?$allocator@D@2@@std@@V?$allocator@V?$basic_string@DU?$char_traits@D@std@@V?$allocator@D@2@@std@@@2@@1@PAV01@@Z ; string_join<std::vector<std::basic_string<char,std::char_traits<char>,std::allocator<char> >,std::allocator<std::basic_string<char,std::char_traits<char>,std::allocator<char> > > > >
  0034f	83 c4 04	 add	 esp, 4
  00352	c6 45 fc 03	 mov	 BYTE PTR __$EHRec$[ebp+8], 3
  00356	8d 8d a4 fe ff
	ff		 lea	 ecx, DWORD PTR $T12[ebp]
  0035c	e8 00 00 00 00	 call	 ??1?$basic_string@DU?$char_traits@D@std@@V?$allocator@D@2@@std@@QAE@XZ ; std::basic_string<char,std::char_traits<char>,std::allocator<char> >::~basic_string<char,std::char_traits<char>,std::allocator<char> >

; 320  : 		}

  00361	e9 e7 00 00 00	 jmp	 $LN6@RunMainScr
$LN1174@RunMainScr:

; 314  : 		if (CmdSize == stVec.size() && stVec[0]==loginMark)

  00366	8b 85 90 fe ff
	ff		 mov	 eax, DWORD PTR tv4466[ebp]

; 321  : 		else if (CmdSize <= stVec.size() && stVec[0]==loginMark_NonEncode)

  0036c	83 f8 03	 cmp	 eax, 3
  0036f	8b bd 80 fe ff
	ff		 mov	 edi, DWORD PTR _lpCmdLine$GSCopy$1$[ebp]
$LN1177@RunMainScr:
  00375	0f 82 b7 00 00
	00		 jb	 $LN5@RunMainScr
; File C:\Program Files\Microsoft Visual Studio\2022\Community\VC\Tools\MSVC\14.34.31933\include\xstring

; 2292 :         const value_type* _Result = _Bx._Buf;

  0037b	8b c6		 mov	 eax, esi

; 2293 :         if (_Large_string_engaged()) {

  0037d	83 78 14 10	 cmp	 DWORD PTR [eax+20], 16	; 00000010H
  00381	72 02		 jb	 SHORT $LN740@RunMainScr

; 2294 :             _Result = _Unfancy(_Bx._Ptr);

  00383	8b 06		 mov	 eax, DWORD PTR [esi]
$LN740@RunMainScr:

; 4756 :         return _Traits_equal<_Traits>(_Mypair._Myval2._Myptr(), _Mypair._Myval2._Mysize, _Ptr, _Traits::length(_Ptr));

  00385	6a 04		 push	 4
  00387	68 00 00 00 00	 push	 OFFSET ??_C@_04JFPGDMCL@?9ncs@
  0038c	ff 76 10	 push	 DWORD PTR [esi+16]
  0038f	50		 push	 eax
  00390	e8 00 00 00 00	 call	 ??$_Traits_equal@U?$char_traits@D@std@@@std@@YA_NQBDI0I@Z ; std::_Traits_equal<std::char_traits<char> >
  00395	83 c4 10	 add	 esp, 16			; 00000010H
; File E:\Metin2_server\SolWayneSF v6\ClientVS22\source\UserInterface\UserInterface.cpp

; 321  : 		else if (CmdSize <= stVec.size() && stVec[0]==loginMark_NonEncode)

  00398	84 c0		 test	 al, al
  0039a	0f 84 92 00 00
	00		 je	 $LN5@RunMainScr
; File C:\Program Files\Microsoft Visual Studio\2022\Community\VC\Tools\MSVC\14.34.31933\include\xstring

; 3546 :         return assign(_Ptr, _Convert_size<size_type>(_Traits::length(_Ptr)));

  003a0	6a 03		 push	 3
  003a2	68 00 00 00 00	 push	 OFFSET ??_C@_03MCGAAIEM@?9cs@
  003a7	8b ce		 mov	 ecx, esi
  003a9	e8 00 00 00 00	 call	 ?assign@?$basic_string@DU?$char_traits@D@std@@V?$allocator@D@2@@std@@QAEAAV12@QBDI@Z ; std::basic_string<char,std::char_traits<char>,std::allocator<char> >::assign
  003ae	0f 57 c0	 xorps	 xmm0, xmm0

; 2748 :             _My_data._Mysize = _Count;

  003b1	c7 85 b4 fe ff
	ff 01 00 00 00	 mov	 DWORD PTR $T11[ebp+16], 1

; 2339 :         _CONSTEXPR20 _Bxty() noexcept : _Buf() {} // user-provided, for fancy pointers

  003bb	0f 11 85 a4 fe
	ff ff		 movups	 XMMWORD PTR $T11[ebp], xmm0

; 2749 :             _My_data._Myres  = _BUF_SIZE - 1;

  003c2	c7 85 b8 fe ff
	ff 0f 00 00 00	 mov	 DWORD PTR $T11[ebp+20], 15 ; 0000000fH

; 117  :         _CSTD memmove(_First1, _First2, _Count * sizeof(_Elem));

  003cc	c6 85 a4 fe ff
	ff 20		 mov	 BYTE PTR $T11[ebp], 32	; 00000020H
; File E:\Metin2_server\SolWayneSF v6\ClientVS22\source\UserInterface\UserInterface.cpp

; 324  : 			string_join(" ",stVec,&stCmdLine);

  003d3	8d 85 bc fe ff
	ff		 lea	 eax, DWORD PTR _stCmdLine$13[ebp]
  003d9	c6 45 fc 05	 mov	 BYTE PTR __$EHRec$[ebp+8], 5
  003dd	50		 push	 eax
  003de	8d 95 98 fe ff
	ff		 lea	 edx, DWORD PTR _stVec$10[ebp]
  003e4	8d 8d a4 fe ff
	ff		 lea	 ecx, DWORD PTR $T11[ebp]
  003ea	e8 00 00 00 00	 call	 ??$string_join@V?$vector@V?$basic_string@DU?$char_traits@D@std@@V?$allocator@D@2@@std@@V?$allocator@V?$basic_string@DU?$char_traits@D@std@@V?$allocator@D@2@@std@@@2@@std@@@@YAXABV?$basic_string@DU?$char_traits@D@std@@V?$allocator@D@2@@std@@ABV?$vector@V?$basic_string@DU?$char_traits@D@std@@V?$allocator@D@2@@std@@V?$allocator@V?$basic_string@DU?$char_traits@D@std@@V?$allocator@D@2@@std@@@2@@1@PAV01@@Z ; string_join<std::vector<std::basic_string<char,std::char_traits<char>,std::allocator<char> >,std::allocator<std::basic_string<char,std::char_traits<char>,std::allocator<char> > > > >
  003ef	c6 45 fc 03	 mov	 BYTE PTR __$EHRec$[ebp+8], 3
  003f3	83 c4 04	 add	 esp, 4
; File C:\Program Files\Microsoft Visual Studio\2022\Community\VC\Tools\MSVC\14.34.31933\include\xstring

; 5008 :         if (_My_data._Large_string_engaged()) {

  003f6	8b 8d b8 fe ff
	ff		 mov	 ecx, DWORD PTR $T11[ebp+20]
  003fc	83 f9 10	 cmp	 ecx, 16			; 00000010H
  003ff	72 4c		 jb	 SHORT $LN6@RunMainScr
; File C:\Program Files\Microsoft Visual Studio\2022\Community\VC\Tools\MSVC\14.34.31933\include\xmemory

; 830  :         _Deallocate<_New_alignof<_Ty>>(_Ptr, sizeof(_Ty) * _Count);

  00401	8b 95 a4 fe ff
	ff		 mov	 edx, DWORD PTR $T11[ebp]
; File C:\Program Files\Microsoft Visual Studio\2022\Community\VC\Tools\MSVC\14.34.31933\include\xstring

; 5013 :             _Al.deallocate(_Ptr, _My_data._Myres + 1);

  00407	41		 inc	 ecx
; File C:\Program Files\Microsoft Visual Studio\2022\Community\VC\Tools\MSVC\14.34.31933\include\xmemory

; 830  :         _Deallocate<_New_alignof<_Ty>>(_Ptr, sizeof(_Ty) * _Count);

  00408	8b c2		 mov	 eax, edx

; 251  :         if (_Bytes >= _Big_allocation_threshold) { // boost the alignment of big allocations to help autovectorization

  0040a	81 f9 00 10 00
	00		 cmp	 ecx, 4096		; 00001000H
  00410	72 14		 jb	 SHORT $LN997@RunMainScr

; 150  :     const uintptr_t _Ptr_container   = _Ptr_user[-1];

  00412	8b 50 fc	 mov	 edx, DWORD PTR [eax-4]
  00415	83 c1 23	 add	 ecx, 35			; 00000023H
  00418	2b c2		 sub	 eax, edx

; 164  :     _STL_VERIFY(_Back_shift >= _Min_back_shift && _Back_shift <= _Non_user_size, "invalid argument");

  0041a	83 c0 fc	 add	 eax, -4			; fffffffcH
  0041d	83 f8 1f	 cmp	 eax, 31			; 0000001fH
  00420	0f 87 e7 07 00
	00		 ja	 $LN517@RunMainScr
$LN997@RunMainScr:

; 255  :         ::operator delete(_Ptr, _Bytes);

  00426	51		 push	 ecx
  00427	52		 push	 edx
  00428	e8 00 00 00 00	 call	 ??3@YAXPAXI@Z		; operator delete
  0042d	83 c4 08	 add	 esp, 8
; File E:\Metin2_server\SolWayneSF v6\ClientVS22\source\UserInterface\UserInterface.cpp

; 325  : 		}

  00430	eb 1b		 jmp	 SHORT $LN6@RunMainScr
$LN5@RunMainScr:
; File C:\Program Files\Microsoft Visual Studio\2022\Community\VC\Tools\MSVC\14.34.31933\include\xstring

; 415  :             return __builtin_strlen(_First);

  00432	8b cf		 mov	 ecx, edi
  00434	8d 51 01	 lea	 edx, DWORD PTR [ecx+1]
$LL1172@RunMainScr:
  00437	8a 01		 mov	 al, BYTE PTR [ecx]
  00439	41		 inc	 ecx
  0043a	84 c0		 test	 al, al
  0043c	75 f9		 jne	 SHORT $LL1172@RunMainScr
  0043e	2b ca		 sub	 ecx, edx

; 3546 :         return assign(_Ptr, _Convert_size<size_type>(_Traits::length(_Ptr)));

  00440	51		 push	 ecx
  00441	57		 push	 edi
  00442	8d 8d bc fe ff
	ff		 lea	 ecx, DWORD PTR _stCmdLine$13[ebp]
  00448	e8 00 00 00 00	 call	 ?assign@?$basic_string@DU?$char_traits@D@std@@V?$allocator@D@2@@std@@QAEAAV12@QBDI@Z ; std::basic_string<char,std::char_traits<char>,std::allocator<char> >::assign
$LN6@RunMainScr:
  0044d	6a 13		 push	 19			; 00000013H
  0044f	68 00 00 00 00	 push	 OFFSET ??_C@_0BE@FPKDPBJI@__COMMAND_LINE__?5?$DN?5@
  00454	8d 8d d4 fe ff
	ff		 lea	 ecx, DWORD PTR _stRegisterCmdLine$15[ebp]
  0045a	e8 00 00 00 00	 call	 ?assign@?$basic_string@DU?$char_traits@D@std@@V?$allocator@D@2@@std@@QAEAAV12@QBDI@Z ; std::basic_string<char,std::char_traits<char>,std::allocator<char> >::assign

; 4195 :         const size_type _Old_size = _Mypair._Myval2._Mysize;

  0045f	8b b5 e4 fe ff
	ff		 mov	 esi, DWORD PTR _stRegisterCmdLine$15[ebp+16]
  00465	bf ff ff ff 7f	 mov	 edi, 2147483647		; 7fffffffH
  0046a	8b 8d e8 fe ff
	ff		 mov	 ecx, DWORD PTR _stRegisterCmdLine$15[ebp+20]
  00470	89 b5 8c fe ff
	ff		 mov	 DWORD PTR __Old_size$1$[ebp], esi
  00476	89 8d 90 fe ff
	ff		 mov	 DWORD PTR __Old_capacity$1$[ebp], ecx
  0047c	3b f1		 cmp	 esi, ecx

; 4196 :         if (_Old_size < _Mypair._Myval2._Myres) {

  0047e	73 2a		 jae	 SHORT $LN232@RunMainScr

; 4197 :             _ASAN_STRING_MODIFY(1);
; 4198 :             _Mypair._Myval2._Mysize = _Old_size + 1;

  00480	8d 46 01	 lea	 eax, DWORD PTR [esi+1]

; 2284 :         if (_Large_string_engaged()) {

  00483	83 f9 10	 cmp	 ecx, 16			; 00000010H

; 4198 :             _Mypair._Myval2._Mysize = _Old_size + 1;

  00486	89 85 e4 fe ff
	ff		 mov	 DWORD PTR _stRegisterCmdLine$15[ebp+16], eax

; 2283 :         value_type* _Result = _Bx._Buf;

  0048c	8d 85 d4 fe ff
	ff		 lea	 eax, DWORD PTR _stRegisterCmdLine$15[ebp]

; 2284 :         if (_Large_string_engaged()) {

  00492	0f 43 85 d4 fe
	ff ff		 cmovae	 eax, DWORD PTR _stRegisterCmdLine$15[ebp]

; 4200 :             _Traits::assign(_Ptr[_Old_size], _Ch);

  00499	66 c7 04 30 22
	00		 mov	 WORD PTR [eax+esi], 34	; 00000022H

; 4201 :             _Traits::assign(_Ptr[_Old_size + 1], _Elem());
; 4202 :             return;

  0049f	8b bd d4 fe ff
	ff		 mov	 edi, DWORD PTR _stRegisterCmdLine$15[ebp]
  004a5	e9 22 01 00 00	 jmp	 $LN243@RunMainScr
$LN232@RunMainScr:

; 4935 :         const size_type _Old_size = _My_data._Mysize;

  004aa	8b c7		 mov	 eax, edi
  004ac	2b c6		 sub	 eax, esi

; 4936 :         if (max_size() - _Old_size < _Size_increase) {

  004ae	83 f8 01	 cmp	 eax, 1
  004b1	0f 82 4c 07 00
	00		 jb	 $LN1168@RunMainScr

; 4938 :         }
; 4939 : 
; 4940 :         const size_type _New_size     = _Old_size + _Size_increase;

  004b7	8d 56 01	 lea	 edx, DWORD PTR [esi+1]

; 4880 :         const size_type _Masked = _Requested | _ALLOC_MASK;

  004ba	83 ca 0f	 or	 edx, 15			; 0000000fH
  004bd	89 95 88 fe ff
	ff		 mov	 DWORD PTR __Masked$4[ebp], edx
  004c3	3b d7		 cmp	 edx, edi

; 4881 :         if (_Masked > _Max) { // the mask overflows, settle for max_size()

  004c5	76 04		 jbe	 SHORT $LN248@RunMainScr

; 4882 :             return _Max;

  004c7	8b c7		 mov	 eax, edi
  004c9	eb 3b		 jmp	 SHORT $LN1178@RunMainScr
$LN248@RunMainScr:

; 4883 :         }
; 4884 : 
; 4885 :         if (_Old > _Max - _Old / 2) { // similarly, geometric overflows

  004cb	8b c1		 mov	 eax, ecx
  004cd	d1 e8		 shr	 eax, 1
  004cf	89 85 94 fe ff
	ff		 mov	 DWORD PTR tv4474[ebp], eax
  004d5	8b c7		 mov	 eax, edi
  004d7	8b bd 94 fe ff
	ff		 mov	 edi, DWORD PTR tv4474[ebp]
  004dd	2b c7		 sub	 eax, edi
  004df	3b c8		 cmp	 ecx, eax
  004e1	76 07		 jbe	 SHORT $LN249@RunMainScr

; 4886 :             return _Max;

  004e3	b8 ff ff ff 7f	 mov	 eax, 2147483647		; 7fffffffH
  004e8	eb 1c		 jmp	 SHORT $LN1178@RunMainScr
$LN249@RunMainScr:

; 4889 :         return (_STD max)(_Masked, _Old + _Old / 2);

  004ea	8d 04 0f	 lea	 eax, DWORD PTR [edi+ecx]
  004ed	3b d0		 cmp	 edx, eax
  004ef	89 85 94 fe ff
	ff		 mov	 DWORD PTR $T8[ebp], eax
; File C:\Program Files\Microsoft Visual Studio\2022\Community\VC\Tools\MSVC\14.34.31933\include\utility

; 43   :     return _Left < _Right ? _Right : _Left;

  004f5	8d 8d 94 fe ff
	ff		 lea	 ecx, DWORD PTR $T8[ebp]
  004fb	8d bd 88 fe ff
	ff		 lea	 edi, DWORD PTR __Masked$4[ebp]
  00501	0f 43 cf	 cmovae	 ecx, edi
; File C:\Program Files\Microsoft Visual Studio\2022\Community\VC\Tools\MSVC\14.34.31933\include\xstring

; 4889 :         return (_STD max)(_Masked, _Old + _Old / 2);

  00504	8b 01		 mov	 eax, DWORD PTR [ecx]
$LN1178@RunMainScr:

; 4944 :         const pointer _New_ptr        = _Al.allocate(_New_capacity + 1); // throws

  00506	89 85 94 fe ff
	ff		 mov	 DWORD PTR $T7[ebp], eax
  0050c	40		 inc	 eax
; File C:\Program Files\Microsoft Visual Studio\2022\Community\VC\Tools\MSVC\14.34.31933\include\xmemory

; 228  :         if (_Bytes >= _Big_allocation_threshold) { // boost the alignment of big allocations to help autovectorization

  0050d	3d 00 10 00 00	 cmp	 eax, 4096		; 00001000H
  00512	72 0d		 jb	 SHORT $LN257@RunMainScr

; 229  :             return _Allocate_manually_vector_aligned<_Traits>(_Bytes);

  00514	50		 push	 eax
  00515	e8 00 00 00 00	 call	 ??$_Allocate_manually_vector_aligned@U_Default_allocate_traits@std@@@std@@YAPAXI@Z ; std::_Allocate_manually_vector_aligned<std::_Default_allocate_traits>
  0051a	83 c4 04	 add	 esp, 4
  0051d	8b f8		 mov	 edi, eax
  0051f	eb 13		 jmp	 SHORT $LN255@RunMainScr
$LN257@RunMainScr:

; 230  :         }
; 231  :     }
; 232  : #endif // defined(_M_IX86) || defined(_M_X64)
; 233  : 
; 234  :     if (_Bytes != 0) {

  00521	85 c0		 test	 eax, eax
  00523	74 0d		 je	 SHORT $LN258@RunMainScr

; 77   :         return ::operator new(_Bytes);

  00525	50		 push	 eax
  00526	e8 00 00 00 00	 call	 ??2@YAPAXI@Z		; operator new
  0052b	83 c4 04	 add	 esp, 4

; 235  :         return _Traits::_Allocate(_Bytes);

  0052e	8b f8		 mov	 edi, eax
  00530	eb 02		 jmp	 SHORT $LN255@RunMainScr
$LN258@RunMainScr:

; 236  :     }
; 237  : 
; 238  :     return nullptr;

  00532	33 ff		 xor	 edi, edi
$LN255@RunMainScr:
; File C:\Program Files\Microsoft Visual Studio\2022\Community\VC\Tools\MSVC\14.34.31933\include\xstring

; 4956 :         if (_BUF_SIZE <= _Old_capacity) {

  00534	83 bd 90 fe ff
	ff 10		 cmp	 DWORD PTR __Old_capacity$1$[ebp], 16 ; 00000010H
  0053b	8d 46 01	 lea	 eax, DWORD PTR [esi+1]
  0053e	89 85 e4 fe ff
	ff		 mov	 DWORD PTR _stRegisterCmdLine$15[ebp+16], eax
  00544	8b 85 94 fe ff
	ff		 mov	 eax, DWORD PTR $T7[ebp]
  0054a	89 85 e8 fe ff
	ff		 mov	 DWORD PTR _stRegisterCmdLine$15[ebp+20], eax
  00550	8d 04 37	 lea	 eax, DWORD PTR [edi+esi]
  00553	89 85 88 fe ff
	ff		 mov	 DWORD PTR tv4492[ebp], eax
  00559	72 52		 jb	 SHORT $LN242@RunMainScr

; 64   :         _CSTD memcpy(_First1, _First2, _Count * sizeof(_Elem));

  0055b	ff b5 8c fe ff
	ff		 push	 DWORD PTR __Old_size$1$[ebp]

; 4957 :             const pointer _Old_ptr = _My_data._Bx._Ptr;

  00561	8b b5 d4 fe ff
	ff		 mov	 esi, DWORD PTR _stRegisterCmdLine$15[ebp]

; 64   :         _CSTD memcpy(_First1, _First2, _Count * sizeof(_Elem));

  00567	56		 push	 esi
  00568	57		 push	 edi
  00569	e8 00 00 00 00	 call	 _memcpy

; 4209 :                 _Traits::assign(_New_ptr[_Old_size], _Ch);

  0056e	8b 85 88 fe ff
	ff		 mov	 eax, DWORD PTR tv4492[ebp]

; 64   :         _CSTD memcpy(_First1, _First2, _Count * sizeof(_Elem));

  00574	83 c4 0c	 add	 esp, 12			; 0000000cH

; 4959 :             _Al.deallocate(_Old_ptr, _Old_capacity + 1);

  00577	8b 8d 90 fe ff
	ff		 mov	 ecx, DWORD PTR __Old_capacity$1$[ebp]
  0057d	41		 inc	 ecx

; 4209 :                 _Traits::assign(_New_ptr[_Old_size], _Ch);

  0057e	66 c7 00 22 00	 mov	 WORD PTR [eax], 34	; 00000022H
; File C:\Program Files\Microsoft Visual Studio\2022\Community\VC\Tools\MSVC\14.34.31933\include\xmemory

; 251  :         if (_Bytes >= _Big_allocation_threshold) { // boost the alignment of big allocations to help autovectorization

  00583	81 f9 00 10 00
	00		 cmp	 ecx, 4096		; 00001000H
  00589	72 16		 jb	 SHORT $LN301@RunMainScr

; 150  :     const uintptr_t _Ptr_container   = _Ptr_user[-1];

  0058b	8b 56 fc	 mov	 edx, DWORD PTR [esi-4]
  0058e	83 c1 23	 add	 ecx, 35			; 00000023H

; 151  : 
; 152  :     // If the following asserts, it likely means that we are performing
; 153  :     // an aligned delete on memory coming from an unaligned allocation.
; 154  :     _STL_ASSERT(_Ptr_user[-2] == _Big_allocation_sentinel, "invalid argument");
; 155  : 
; 156  :     // Extra paranoia on aligned allocation/deallocation; ensure _Ptr_container is
; 157  :     // in range [_Min_back_shift, _Non_user_size]
; 158  : #ifdef _DEBUG
; 159  :     constexpr uintptr_t _Min_back_shift = 2 * sizeof(void*);
; 160  : #else // ^^^ _DEBUG ^^^ // vvv !_DEBUG vvv
; 161  :     constexpr uintptr_t _Min_back_shift = sizeof(void*);
; 162  : #endif // _DEBUG
; 163  :     const uintptr_t _Back_shift = reinterpret_cast<uintptr_t>(_Ptr) - _Ptr_container;

  00591	2b f2		 sub	 esi, edx

; 164  :     _STL_VERIFY(_Back_shift >= _Min_back_shift && _Back_shift <= _Non_user_size, "invalid argument");

  00593	8d 46 fc	 lea	 eax, DWORD PTR [esi-4]
  00596	83 f8 1f	 cmp	 eax, 31			; 0000001fH
  00599	0f 87 6e 06 00
	00		 ja	 $LN517@RunMainScr

; 165  :     _Ptr = reinterpret_cast<void*>(_Ptr_container);

  0059f	8b f2		 mov	 esi, edx
$LN301@RunMainScr:

; 255  :         ::operator delete(_Ptr, _Bytes);

  005a1	51		 push	 ecx
  005a2	56		 push	 esi
  005a3	e8 00 00 00 00	 call	 ??3@YAXPAXI@Z		; operator delete
  005a8	83 c4 08	 add	 esp, 8
; File C:\Program Files\Microsoft Visual Studio\2022\Community\VC\Tools\MSVC\14.34.31933\include\xstring

; 4961 :         } else {

  005ab	eb 19		 jmp	 SHORT $LN1179@RunMainScr
$LN242@RunMainScr:

; 64   :         _CSTD memcpy(_First1, _First2, _Count * sizeof(_Elem));

  005ad	56		 push	 esi
  005ae	8d 85 d4 fe ff
	ff		 lea	 eax, DWORD PTR _stRegisterCmdLine$15[ebp]
  005b4	50		 push	 eax
  005b5	57		 push	 edi
  005b6	e8 00 00 00 00	 call	 _memcpy

; 4209 :                 _Traits::assign(_New_ptr[_Old_size], _Ch);

  005bb	8d 04 37	 lea	 eax, DWORD PTR [edi+esi]

; 64   :         _CSTD memcpy(_First1, _First2, _Count * sizeof(_Elem));

  005be	83 c4 0c	 add	 esp, 12			; 0000000cH

; 4209 :                 _Traits::assign(_New_ptr[_Old_size], _Ch);

  005c1	66 c7 00 22 00	 mov	 WORD PTR [eax], 34	; 00000022H
$LN1179@RunMainScr:

; 2292 :         const value_type* _Result = _Bx._Buf;

  005c6	89 bd d4 fe ff
	ff		 mov	 DWORD PTR _stRegisterCmdLine$15[ebp], edi
$LN243@RunMainScr:

; 2293 :         if (_Large_string_engaged()) {

  005cc	83 bd d0 fe ff
	ff 10		 cmp	 DWORD PTR _stCmdLine$13[ebp+20], 16 ; 00000010H
  005d3	8d 95 bc fe ff
	ff		 lea	 edx, DWORD PTR _stCmdLine$13[ebp]

; 3421 :         const size_type _Old_size = _Mypair._Myval2._Mysize;

  005d9	8b b5 e4 fe ff
	ff		 mov	 esi, DWORD PTR _stRegisterCmdLine$15[ebp+16]

; 2293 :         if (_Large_string_engaged()) {

  005df	0f 43 95 bc fe
	ff ff		 cmovae	 edx, DWORD PTR _stCmdLine$13[ebp]

; 3421 :         const size_type _Old_size = _Mypair._Myval2._Mysize;

  005e6	8b 85 e8 fe ff
	ff		 mov	 eax, DWORD PTR _stRegisterCmdLine$15[ebp+20]

; 3422 :         if (_Count <= _Mypair._Myval2._Myres - _Old_size) {

  005ec	8b 8d cc fe ff
	ff		 mov	 ecx, DWORD PTR _stCmdLine$13[ebp+16]
  005f2	2b c6		 sub	 eax, esi
  005f4	89 b5 8c fe ff
	ff		 mov	 DWORD PTR __Old_size$1$[ebp], esi
  005fa	51		 push	 ecx
  005fb	52		 push	 edx
  005fc	3b c8		 cmp	 ecx, eax
  005fe	77 3a		 ja	 SHORT $LN325@RunMainScr

; 2284 :         if (_Large_string_engaged()) {

  00600	83 bd e8 fe ff
	ff 10		 cmp	 DWORD PTR _stRegisterCmdLine$15[ebp+20], 16 ; 00000010H

; 3424 :             _Mypair._Myval2._Mysize = _Old_size + _Count;

  00607	8d 04 0e	 lea	 eax, DWORD PTR [esi+ecx]

; 2283 :         value_type* _Result = _Bx._Buf;

  0060a	8d b5 d4 fe ff
	ff		 lea	 esi, DWORD PTR _stRegisterCmdLine$15[ebp]

; 3424 :             _Mypair._Myval2._Mysize = _Old_size + _Count;

  00610	89 85 e4 fe ff
	ff		 mov	 DWORD PTR _stRegisterCmdLine$15[ebp+16], eax

; 2284 :         if (_Large_string_engaged()) {

  00616	0f 43 f7	 cmovae	 esi, edi

; 3426 :             _Traits::move(_Old_ptr + _Old_size, _Ptr, _Count);

  00619	8b bd 8c fe ff
	ff		 mov	 edi, DWORD PTR __Old_size$1$[ebp]
  0061f	8d 04 3e	 lea	 eax, DWORD PTR [esi+edi]

; 117  :         _CSTD memmove(_First1, _First2, _Count * sizeof(_Elem));

  00622	50		 push	 eax
  00623	e8 00 00 00 00	 call	 _memmove

; 3427 :             _Traits::assign(_Old_ptr[_Old_size + _Count], _Elem());

  00628	8b 8d cc fe ff
	ff		 mov	 ecx, DWORD PTR _stCmdLine$13[ebp+16]
  0062e	8d 04 3e	 lea	 eax, DWORD PTR [esi+edi]

; 117  :         _CSTD memmove(_First1, _First2, _Count * sizeof(_Elem));

  00631	83 c4 0c	 add	 esp, 12			; 0000000cH

; 3427 :             _Traits::assign(_Old_ptr[_Old_size + _Count], _Elem());

  00634	c6 04 08 00	 mov	 BYTE PTR [eax+ecx], 0

; 3428 :             return *this;

  00638	eb 12		 jmp	 SHORT $LN324@RunMainScr
$LN325@RunMainScr:

; 3429 :         }
; 3430 : 
; 3431 :         return _Reallocate_grow_by(

  0063a	ff b5 7c fe ff
	ff		 push	 DWORD PTR $T2[ebp]
  00640	51		 push	 ecx
  00641	8d 8d d4 fe ff
	ff		 lea	 ecx, DWORD PTR _stRegisterCmdLine$15[ebp]
  00647	e8 00 00 00 00	 call	 ??$_Reallocate_grow_by@V<lambda_1>@?1??append@?$basic_string@DU?$char_traits@D@std@@V?$allocator@D@2@@std@@QAEAAV34@QBDI@Z@PBDI@?$basic_string@DU?$char_traits@D@std@@V?$allocator@D@2@@std@@AAEAAV01@IV<lambda_1>@?1??append@01@QAEAAV01@QBDI@Z@PBDI@Z ; std::basic_string<char,std::char_traits<char>,std::allocator<char> >::_Reallocate_grow_by<`std::basic_string<char,std::char_traits<char>,std::allocator<char> >::append'::`2'::<lambda_1>,char const *,unsigned int>
$LN324@RunMainScr:

; 4195 :         const size_type _Old_size = _Mypair._Myval2._Mysize;

  0064c	8b bd e4 fe ff
	ff		 mov	 edi, DWORD PTR _stRegisterCmdLine$15[ebp+16]
  00652	8b 8d e8 fe ff
	ff		 mov	 ecx, DWORD PTR _stRegisterCmdLine$15[ebp+20]
  00658	89 bd 7c fe ff
	ff		 mov	 DWORD PTR __Old_size$1$[ebp], edi
  0065e	89 8d 90 fe ff
	ff		 mov	 DWORD PTR __Old_capacity$1$[ebp], ecx
  00664	3b f9		 cmp	 edi, ecx

; 4196 :         if (_Old_size < _Mypair._Myval2._Myres) {

  00666	73 2a		 jae	 SHORT $LN363@RunMainScr

; 4197 :             _ASAN_STRING_MODIFY(1);
; 4198 :             _Mypair._Myval2._Mysize = _Old_size + 1;

  00668	8d 47 01	 lea	 eax, DWORD PTR [edi+1]

; 2284 :         if (_Large_string_engaged()) {

  0066b	83 f9 10	 cmp	 ecx, 16			; 00000010H

; 4198 :             _Mypair._Myval2._Mysize = _Old_size + 1;

  0066e	89 85 e4 fe ff
	ff		 mov	 DWORD PTR _stRegisterCmdLine$15[ebp+16], eax

; 2283 :         value_type* _Result = _Bx._Buf;

  00674	8d 85 d4 fe ff
	ff		 lea	 eax, DWORD PTR _stRegisterCmdLine$15[ebp]

; 2284 :         if (_Large_string_engaged()) {

  0067a	0f 43 85 d4 fe
	ff ff		 cmovae	 eax, DWORD PTR _stRegisterCmdLine$15[ebp]

; 4200 :             _Traits::assign(_Ptr[_Old_size], _Ch);

  00681	66 c7 04 38 22
	00		 mov	 WORD PTR [eax+edi], 34	; 00000022H

; 4201 :             _Traits::assign(_Ptr[_Old_size + 1], _Elem());
; 4202 :             return;

  00687	8b b5 d4 fe ff
	ff		 mov	 esi, DWORD PTR _stRegisterCmdLine$15[ebp]
  0068d	e9 18 01 00 00	 jmp	 $LN374@RunMainScr
$LN363@RunMainScr:

; 4935 :         const size_type _Old_size = _My_data._Mysize;

  00692	be ff ff ff 7f	 mov	 esi, 2147483647		; 7fffffffH
  00697	8b c6		 mov	 eax, esi
  00699	2b c7		 sub	 eax, edi

; 4936 :         if (max_size() - _Old_size < _Size_increase) {

  0069b	83 f8 01	 cmp	 eax, 1
  0069e	0f 82 5f 05 00
	00		 jb	 $LN1168@RunMainScr

; 4938 :         }
; 4939 : 
; 4940 :         const size_type _New_size     = _Old_size + _Size_increase;

  006a4	8d 57 01	 lea	 edx, DWORD PTR [edi+1]

; 4880 :         const size_type _Masked = _Requested | _ALLOC_MASK;

  006a7	83 ca 0f	 or	 edx, 15			; 0000000fH
  006aa	89 95 88 fe ff
	ff		 mov	 DWORD PTR __Masked$3[ebp], edx
  006b0	3b d6		 cmp	 edx, esi

; 4881 :         if (_Masked > _Max) { // the mask overflows, settle for max_size()

  006b2	76 04		 jbe	 SHORT $LN379@RunMainScr

; 4882 :             return _Max;

  006b4	8b c6		 mov	 eax, esi
  006b6	eb 2c		 jmp	 SHORT $LN1180@RunMainScr
$LN379@RunMainScr:

; 4883 :         }
; 4884 : 
; 4885 :         if (_Old > _Max - _Old / 2) { // similarly, geometric overflows

  006b8	8b c1		 mov	 eax, ecx
  006ba	d1 e8		 shr	 eax, 1
  006bc	2b f0		 sub	 esi, eax
  006be	3b ce		 cmp	 ecx, esi
  006c0	76 07		 jbe	 SHORT $LN380@RunMainScr

; 4886 :             return _Max;

  006c2	b8 ff ff ff 7f	 mov	 eax, 2147483647		; 7fffffffH
  006c7	eb 1b		 jmp	 SHORT $LN1180@RunMainScr
$LN380@RunMainScr:

; 4889 :         return (_STD max)(_Masked, _Old + _Old / 2);

  006c9	03 c1		 add	 eax, ecx
; File C:\Program Files\Microsoft Visual Studio\2022\Community\VC\Tools\MSVC\14.34.31933\include\utility

; 43   :     return _Left < _Right ? _Right : _Left;

  006cb	8d b5 88 fe ff
	ff		 lea	 esi, DWORD PTR __Masked$3[ebp]
; File C:\Program Files\Microsoft Visual Studio\2022\Community\VC\Tools\MSVC\14.34.31933\include\xstring

; 4889 :         return (_STD max)(_Masked, _Old + _Old / 2);

  006d1	3b d0		 cmp	 edx, eax
  006d3	89 85 8c fe ff
	ff		 mov	 DWORD PTR $T5[ebp], eax
; File C:\Program Files\Microsoft Visual Studio\2022\Community\VC\Tools\MSVC\14.34.31933\include\utility

; 43   :     return _Left < _Right ? _Right : _Left;

  006d9	8d 8d 8c fe ff
	ff		 lea	 ecx, DWORD PTR $T5[ebp]
  006df	0f 43 ce	 cmovae	 ecx, esi
; File C:\Program Files\Microsoft Visual Studio\2022\Community\VC\Tools\MSVC\14.34.31933\include\xstring

; 4889 :         return (_STD max)(_Masked, _Old + _Old / 2);

  006e2	8b 01		 mov	 eax, DWORD PTR [ecx]
$LN1180@RunMainScr:

; 4944 :         const pointer _New_ptr        = _Al.allocate(_New_capacity + 1); // throws

  006e4	89 85 94 fe ff
	ff		 mov	 DWORD PTR $T6[ebp], eax
  006ea	40		 inc	 eax
; File C:\Program Files\Microsoft Visual Studio\2022\Community\VC\Tools\MSVC\14.34.31933\include\xmemory

; 228  :         if (_Bytes >= _Big_allocation_threshold) { // boost the alignment of big allocations to help autovectorization

  006eb	3d 00 10 00 00	 cmp	 eax, 4096		; 00001000H
  006f0	72 0d		 jb	 SHORT $LN388@RunMainScr

; 229  :             return _Allocate_manually_vector_aligned<_Traits>(_Bytes);

  006f2	50		 push	 eax
  006f3	e8 00 00 00 00	 call	 ??$_Allocate_manually_vector_aligned@U_Default_allocate_traits@std@@@std@@YAPAXI@Z ; std::_Allocate_manually_vector_aligned<std::_Default_allocate_traits>
  006f8	83 c4 04	 add	 esp, 4
  006fb	8b f0		 mov	 esi, eax
  006fd	eb 13		 jmp	 SHORT $LN386@RunMainScr
$LN388@RunMainScr:

; 230  :         }
; 231  :     }
; 232  : #endif // defined(_M_IX86) || defined(_M_X64)
; 233  : 
; 234  :     if (_Bytes != 0) {

  006ff	85 c0		 test	 eax, eax
  00701	74 0d		 je	 SHORT $LN389@RunMainScr

; 77   :         return ::operator new(_Bytes);

  00703	50		 push	 eax
  00704	e8 00 00 00 00	 call	 ??2@YAPAXI@Z		; operator new
  00709	83 c4 04	 add	 esp, 4

; 235  :         return _Traits::_Allocate(_Bytes);

  0070c	8b f0		 mov	 esi, eax
  0070e	eb 02		 jmp	 SHORT $LN386@RunMainScr
$LN389@RunMainScr:

; 236  :     }
; 237  : 
; 238  :     return nullptr;

  00710	33 f6		 xor	 esi, esi
$LN386@RunMainScr:
; File C:\Program Files\Microsoft Visual Studio\2022\Community\VC\Tools\MSVC\14.34.31933\include\xstring

; 4956 :         if (_BUF_SIZE <= _Old_capacity) {

  00712	83 bd 90 fe ff
	ff 10		 cmp	 DWORD PTR __Old_capacity$1$[ebp], 16 ; 00000010H
  00719	8d 47 01	 lea	 eax, DWORD PTR [edi+1]
  0071c	89 85 e4 fe ff
	ff		 mov	 DWORD PTR _stRegisterCmdLine$15[ebp+16], eax
  00722	8b 85 94 fe ff
	ff		 mov	 eax, DWORD PTR $T6[ebp]
  00728	89 85 e8 fe ff
	ff		 mov	 DWORD PTR _stRegisterCmdLine$15[ebp+20], eax
  0072e	8d 04 3e	 lea	 eax, DWORD PTR [esi+edi]
  00731	89 85 8c fe ff
	ff		 mov	 DWORD PTR tv4493[ebp], eax
  00737	72 52		 jb	 SHORT $LN373@RunMainScr

; 64   :         _CSTD memcpy(_First1, _First2, _Count * sizeof(_Elem));

  00739	ff b5 7c fe ff
	ff		 push	 DWORD PTR __Old_size$1$[ebp]

; 4957 :             const pointer _Old_ptr = _My_data._Bx._Ptr;

  0073f	8b bd d4 fe ff
	ff		 mov	 edi, DWORD PTR _stRegisterCmdLine$15[ebp]

; 64   :         _CSTD memcpy(_First1, _First2, _Count * sizeof(_Elem));

  00745	57		 push	 edi
  00746	56		 push	 esi
  00747	e8 00 00 00 00	 call	 _memcpy

; 4209 :                 _Traits::assign(_New_ptr[_Old_size], _Ch);

  0074c	8b 85 8c fe ff
	ff		 mov	 eax, DWORD PTR tv4493[ebp]

; 64   :         _CSTD memcpy(_First1, _First2, _Count * sizeof(_Elem));

  00752	83 c4 0c	 add	 esp, 12			; 0000000cH

; 4959 :             _Al.deallocate(_Old_ptr, _Old_capacity + 1);

  00755	8b 8d 90 fe ff
	ff		 mov	 ecx, DWORD PTR __Old_capacity$1$[ebp]
  0075b	41		 inc	 ecx

; 4209 :                 _Traits::assign(_New_ptr[_Old_size], _Ch);

  0075c	66 c7 00 22 00	 mov	 WORD PTR [eax], 34	; 00000022H
; File C:\Program Files\Microsoft Visual Studio\2022\Community\VC\Tools\MSVC\14.34.31933\include\xmemory

; 251  :         if (_Bytes >= _Big_allocation_threshold) { // boost the alignment of big allocations to help autovectorization

  00761	81 f9 00 10 00
	00		 cmp	 ecx, 4096		; 00001000H
  00767	72 16		 jb	 SHORT $LN432@RunMainScr

; 150  :     const uintptr_t _Ptr_container   = _Ptr_user[-1];

  00769	8b 57 fc	 mov	 edx, DWORD PTR [edi-4]
  0076c	83 c1 23	 add	 ecx, 35			; 00000023H

; 151  : 
; 152  :     // If the following asserts, it likely means that we are performing
; 153  :     // an aligned delete on memory coming from an unaligned allocation.
; 154  :     _STL_ASSERT(_Ptr_user[-2] == _Big_allocation_sentinel, "invalid argument");
; 155  : 
; 156  :     // Extra paranoia on aligned allocation/deallocation; ensure _Ptr_container is
; 157  :     // in range [_Min_back_shift, _Non_user_size]
; 158  : #ifdef _DEBUG
; 159  :     constexpr uintptr_t _Min_back_shift = 2 * sizeof(void*);
; 160  : #else // ^^^ _DEBUG ^^^ // vvv !_DEBUG vvv
; 161  :     constexpr uintptr_t _Min_back_shift = sizeof(void*);
; 162  : #endif // _DEBUG
; 163  :     const uintptr_t _Back_shift = reinterpret_cast<uintptr_t>(_Ptr) - _Ptr_container;

  0076f	2b fa		 sub	 edi, edx

; 164  :     _STL_VERIFY(_Back_shift >= _Min_back_shift && _Back_shift <= _Non_user_size, "invalid argument");

  00771	8d 47 fc	 lea	 eax, DWORD PTR [edi-4]
  00774	83 f8 1f	 cmp	 eax, 31			; 0000001fH
  00777	0f 87 90 04 00
	00		 ja	 $LN517@RunMainScr

; 165  :     _Ptr = reinterpret_cast<void*>(_Ptr_container);

  0077d	8b fa		 mov	 edi, edx
$LN432@RunMainScr:

; 255  :         ::operator delete(_Ptr, _Bytes);

  0077f	51		 push	 ecx
  00780	57		 push	 edi
  00781	e8 00 00 00 00	 call	 ??3@YAXPAXI@Z		; operator delete
  00786	83 c4 08	 add	 esp, 8
; File C:\Program Files\Microsoft Visual Studio\2022\Community\VC\Tools\MSVC\14.34.31933\include\xstring

; 4961 :         } else {

  00789	eb 19		 jmp	 SHORT $LN1181@RunMainScr
$LN373@RunMainScr:

; 64   :         _CSTD memcpy(_First1, _First2, _Count * sizeof(_Elem));

  0078b	57		 push	 edi
  0078c	8d 85 d4 fe ff
	ff		 lea	 eax, DWORD PTR _stRegisterCmdLine$15[ebp]
  00792	50		 push	 eax
  00793	56		 push	 esi
  00794	e8 00 00 00 00	 call	 _memcpy

; 4209 :                 _Traits::assign(_New_ptr[_Old_size], _Ch);

  00799	8d 04 3e	 lea	 eax, DWORD PTR [esi+edi]

; 64   :         _CSTD memcpy(_First1, _First2, _Count * sizeof(_Elem));

  0079c	83 c4 0c	 add	 esp, 12			; 0000000cH

; 4209 :                 _Traits::assign(_New_ptr[_Old_size], _Ch);

  0079f	66 c7 00 22 00	 mov	 WORD PTR [eax], 34	; 00000022H
$LN1181@RunMainScr:

; 2292 :         const value_type* _Result = _Bx._Buf;

  007a4	89 b5 d4 fe ff
	ff		 mov	 DWORD PTR _stRegisterCmdLine$15[ebp], esi
$LN374@RunMainScr:

; 2293 :         if (_Large_string_engaged()) {

  007aa	83 bd e8 fe ff
	ff 10		 cmp	 DWORD PTR _stRegisterCmdLine$15[ebp+20], 16 ; 00000010H
  007b1	8d 85 d4 fe ff
	ff		 lea	 eax, DWORD PTR _stRegisterCmdLine$15[ebp]
; File E:\Metin2_server\SolWayneSF v6\ClientVS22\source\UserInterface\UserInterface.cpp

; 335  : 		if (!pyLauncher.RunLine(c_szRegisterCmdLine))

  007b7	8b bd 84 fe ff
	ff		 mov	 edi, DWORD PTR _pyLauncher$GSCopy$1$[ebp]
  007bd	8b cf		 mov	 ecx, edi
; File C:\Program Files\Microsoft Visual Studio\2022\Community\VC\Tools\MSVC\14.34.31933\include\xstring

; 2293 :         if (_Large_string_engaged()) {

  007bf	0f 43 c6	 cmovae	 eax, esi
; File E:\Metin2_server\SolWayneSF v6\ClientVS22\source\UserInterface\UserInterface.cpp

; 335  : 		if (!pyLauncher.RunLine(c_szRegisterCmdLine))

  007c2	50		 push	 eax
  007c3	e8 00 00 00 00	 call	 ?RunLine@CPythonLauncher@@QAE_NPBD@Z ; CPythonLauncher::RunLine
  007c8	84 c0		 test	 al, al
  007ca	0f 85 52 01 00
	00		 jne	 $LN7@RunMainScr

; 337  : 			TraceError("RegisterCommandLine Error");

  007d0	68 00 00 00 00	 push	 OFFSET ??_C@_0BK@DPMNHJLC@RegisterCommandLine?5Error@
  007d5	e8 00 00 00 00	 call	 ?TraceError@@YAXPBDZZ	; TraceError
; File C:\Program Files\Microsoft Visual Studio\2022\Community\VC\Tools\MSVC\14.34.31933\include\vector

; 2107 :         if (_Myfirst) { // destroy and deallocate old array

  007da	8b b5 98 fe ff
	ff		 mov	 esi, DWORD PTR _stVec$10[ebp]
; File E:\Metin2_server\SolWayneSF v6\ClientVS22\source\UserInterface\UserInterface.cpp

; 337  : 			TraceError("RegisterCommandLine Error");

  007e0	83 c4 04	 add	 esp, 4
; File C:\Program Files\Microsoft Visual Studio\2022\Community\VC\Tools\MSVC\14.34.31933\include\vector

; 2107 :         if (_Myfirst) { // destroy and deallocate old array

  007e3	85 f6		 test	 esi, esi
  007e5	0f 84 b8 00 00
	00		 je	 $LN536@RunMainScr

; 2108 :             _Destroy_range(_Myfirst, _Mylast, _Al);

  007eb	8b bd 9c fe ff
	ff		 mov	 edi, DWORD PTR _stVec$10[ebp+4]
  007f1	3b f7		 cmp	 esi, edi
; File C:\Program Files\Microsoft Visual Studio\2022\Community\VC\Tools\MSVC\14.34.31933\include\xmemory

; 947  :         for (; _First != _Last; ++_First) {

  007f3	74 51		 je	 SHORT $LN540@RunMainScr
$LL541@RunMainScr:
; File C:\Program Files\Microsoft Visual Studio\2022\Community\VC\Tools\MSVC\14.34.31933\include\xstring

; 2301 :         return _BUF_SIZE <= _Myres;

  007f5	8b 4e 14	 mov	 ecx, DWORD PTR [esi+20]
  007f8	83 f9 10	 cmp	 ecx, 16			; 00000010H

; 5008 :         if (_My_data._Large_string_engaged()) {

  007fb	72 2b		 jb	 SHORT $LN562@RunMainScr
; File C:\Program Files\Microsoft Visual Studio\2022\Community\VC\Tools\MSVC\14.34.31933\include\xmemory

; 830  :         _Deallocate<_New_alignof<_Ty>>(_Ptr, sizeof(_Ty) * _Count);

  007fd	8b 06		 mov	 eax, DWORD PTR [esi]
; File C:\Program Files\Microsoft Visual Studio\2022\Community\VC\Tools\MSVC\14.34.31933\include\xstring

; 5013 :             _Al.deallocate(_Ptr, _My_data._Myres + 1);

  007ff	41		 inc	 ecx
; File C:\Program Files\Microsoft Visual Studio\2022\Community\VC\Tools\MSVC\14.34.31933\include\xmemory

; 251  :         if (_Bytes >= _Big_allocation_threshold) { // boost the alignment of big allocations to help autovectorization

  00800	81 f9 00 10 00
	00		 cmp	 ecx, 4096		; 00001000H
  00806	72 16		 jb	 SHORT $LN574@RunMainScr

; 150  :     const uintptr_t _Ptr_container   = _Ptr_user[-1];

  00808	8b 50 fc	 mov	 edx, DWORD PTR [eax-4]
  0080b	83 c1 23	 add	 ecx, 35			; 00000023H

; 151  : 
; 152  :     // If the following asserts, it likely means that we are performing
; 153  :     // an aligned delete on memory coming from an unaligned allocation.
; 154  :     _STL_ASSERT(_Ptr_user[-2] == _Big_allocation_sentinel, "invalid argument");
; 155  : 
; 156  :     // Extra paranoia on aligned allocation/deallocation; ensure _Ptr_container is
; 157  :     // in range [_Min_back_shift, _Non_user_size]
; 158  : #ifdef _DEBUG
; 159  :     constexpr uintptr_t _Min_back_shift = 2 * sizeof(void*);
; 160  : #else // ^^^ _DEBUG ^^^ // vvv !_DEBUG vvv
; 161  :     constexpr uintptr_t _Min_back_shift = sizeof(void*);
; 162  : #endif // _DEBUG
; 163  :     const uintptr_t _Back_shift = reinterpret_cast<uintptr_t>(_Ptr) - _Ptr_container;

  0080e	2b c2		 sub	 eax, edx

; 164  :     _STL_VERIFY(_Back_shift >= _Min_back_shift && _Back_shift <= _Non_user_size, "invalid argument");

  00810	83 c0 fc	 add	 eax, -4			; fffffffcH
  00813	83 f8 1f	 cmp	 eax, 31			; 0000001fH
  00816	0f 87 f1 03 00
	00		 ja	 $LN517@RunMainScr

; 165  :     _Ptr = reinterpret_cast<void*>(_Ptr_container);

  0081c	8b c2		 mov	 eax, edx
$LN574@RunMainScr:

; 255  :         ::operator delete(_Ptr, _Bytes);

  0081e	51		 push	 ecx
  0081f	50		 push	 eax
  00820	e8 00 00 00 00	 call	 ??3@YAXPAXI@Z		; operator delete
  00825	83 c4 08	 add	 esp, 8
$LN562@RunMainScr:
; File C:\Program Files\Microsoft Visual Studio\2022\Community\VC\Tools\MSVC\14.34.31933\include\xstring

; 5016 :         _My_data._Mysize = 0;

  00828	c7 46 10 00 00
	00 00		 mov	 DWORD PTR [esi+16], 0

; 5017 :         _My_data._Myres  = _BUF_SIZE - 1;

  0082f	c7 46 14 0f 00
	00 00		 mov	 DWORD PTR [esi+20], 15	; 0000000fH

; 5018 :         // the _Traits::assign is last so the codegen doesn't think the char write can alias this
; 5019 :         _Traits::assign(_My_data._Bx._Buf[0], _Elem());

  00836	c6 06 00	 mov	 BYTE PTR [esi], 0
; File C:\Program Files\Microsoft Visual Studio\2022\Community\VC\Tools\MSVC\14.34.31933\include\xmemory

; 947  :         for (; _First != _Last; ++_First) {

  00839	83 c6 18	 add	 esi, 24			; 00000018H
  0083c	3b f7		 cmp	 esi, edi
  0083e	75 b5		 jne	 SHORT $LL541@RunMainScr
  00840	8b b5 98 fe ff
	ff		 mov	 esi, DWORD PTR _stVec$10[ebp]
$LN540@RunMainScr:
; File C:\Program Files\Microsoft Visual Studio\2022\Community\VC\Tools\MSVC\14.34.31933\include\vector

; 2110 :             _Al.deallocate(_Myfirst, static_cast<size_type>(_Myend - _Myfirst));

  00846	8b 85 a0 fe ff
	ff		 mov	 eax, DWORD PTR _stVec$10[ebp+8]
  0084c	2b c6		 sub	 eax, esi
  0084e	c1 f8 03	 sar	 eax, 3
  00851	69 c0 ab aa aa
	aa		 imul	 eax, eax, -1431655765
; File C:\Program Files\Microsoft Visual Studio\2022\Community\VC\Tools\MSVC\14.34.31933\include\xmemory

; 830  :         _Deallocate<_New_alignof<_Ty>>(_Ptr, sizeof(_Ty) * _Count);

  00857	8d 0c 40	 lea	 ecx, DWORD PTR [eax+eax*2]
  0085a	8b c6		 mov	 eax, esi
  0085c	c1 e1 03	 shl	 ecx, 3

; 251  :         if (_Bytes >= _Big_allocation_threshold) { // boost the alignment of big allocations to help autovectorization

  0085f	81 f9 00 10 00
	00		 cmp	 ecx, 4096		; 00001000H
  00865	72 14		 jb	 SHORT $LN600@RunMainScr

; 150  :     const uintptr_t _Ptr_container   = _Ptr_user[-1];

  00867	8b 70 fc	 mov	 esi, DWORD PTR [eax-4]
  0086a	83 c1 23	 add	 ecx, 35			; 00000023H
  0086d	2b c6		 sub	 eax, esi

; 164  :     _STL_VERIFY(_Back_shift >= _Min_back_shift && _Back_shift <= _Non_user_size, "invalid argument");

  0086f	83 c0 fc	 add	 eax, -4			; fffffffcH
  00872	83 f8 1f	 cmp	 eax, 31			; 0000001fH
  00875	0f 87 92 03 00
	00		 ja	 $LN517@RunMainScr
$LN600@RunMainScr:

; 255  :         ::operator delete(_Ptr, _Bytes);

  0087b	51		 push	 ecx
  0087c	56		 push	 esi
  0087d	e8 00 00 00 00	 call	 ??3@YAXPAXI@Z		; operator delete
  00882	83 c4 08	 add	 esp, 8
; File C:\Program Files\Microsoft Visual Studio\2022\Community\VC\Tools\MSVC\14.34.31933\include\vector

; 2112 :             _Myfirst = nullptr;

  00885	c7 85 98 fe ff
	ff 00 00 00 00	 mov	 DWORD PTR _stVec$10[ebp], 0

; 2113 :             _Mylast  = nullptr;

  0088f	c7 85 9c fe ff
	ff 00 00 00 00	 mov	 DWORD PTR _stVec$10[ebp+4], 0

; 2114 :             _Myend   = nullptr;

  00899	c7 85 a0 fe ff
	ff 00 00 00 00	 mov	 DWORD PTR _stVec$10[ebp+8], 0
$LN536@RunMainScr:
; File C:\Program Files\Microsoft Visual Studio\2022\Community\VC\Tools\MSVC\14.34.31933\include\xstring

; 2301 :         return _BUF_SIZE <= _Myres;

  008a3	8b 85 d0 fe ff
	ff		 mov	 eax, DWORD PTR _stCmdLine$13[ebp+20]
  008a9	83 f8 10	 cmp	 eax, 16			; 00000010H

; 5008 :         if (_My_data._Large_string_engaged()) {

  008ac	72 31		 jb	 SHORT $LN616@RunMainScr
; File C:\Program Files\Microsoft Visual Studio\2022\Community\VC\Tools\MSVC\14.34.31933\include\xmemory

; 830  :         _Deallocate<_New_alignof<_Ty>>(_Ptr, sizeof(_Ty) * _Count);

  008ae	8b 95 bc fe ff
	ff		 mov	 edx, DWORD PTR _stCmdLine$13[ebp]
; File C:\Program Files\Microsoft Visual Studio\2022\Community\VC\Tools\MSVC\14.34.31933\include\xstring

; 5013 :             _Al.deallocate(_Ptr, _My_data._Myres + 1);

  008b4	8d 48 01	 lea	 ecx, DWORD PTR [eax+1]
; File C:\Program Files\Microsoft Visual Studio\2022\Community\VC\Tools\MSVC\14.34.31933\include\xmemory

; 830  :         _Deallocate<_New_alignof<_Ty>>(_Ptr, sizeof(_Ty) * _Count);

  008b7	8b c2		 mov	 eax, edx

; 251  :         if (_Bytes >= _Big_allocation_threshold) { // boost the alignment of big allocations to help autovectorization

  008b9	81 f9 00 10 00
	00		 cmp	 ecx, 4096		; 00001000H
  008bf	72 14		 jb	 SHORT $LN628@RunMainScr

; 150  :     const uintptr_t _Ptr_container   = _Ptr_user[-1];

  008c1	8b 50 fc	 mov	 edx, DWORD PTR [eax-4]
  008c4	83 c1 23	 add	 ecx, 35			; 00000023H
  008c7	2b c2		 sub	 eax, edx

; 164  :     _STL_VERIFY(_Back_shift >= _Min_back_shift && _Back_shift <= _Non_user_size, "invalid argument");

  008c9	83 c0 fc	 add	 eax, -4			; fffffffcH
  008cc	83 f8 1f	 cmp	 eax, 31			; 0000001fH
  008cf	0f 87 38 03 00
	00		 ja	 $LN517@RunMainScr
$LN628@RunMainScr:

; 255  :         ::operator delete(_Ptr, _Bytes);

  008d5	51		 push	 ecx
  008d6	52		 push	 edx
  008d7	e8 00 00 00 00	 call	 ??3@YAXPAXI@Z		; operator delete
  008dc	83 c4 08	 add	 esp, 8
$LN616@RunMainScr:
; File C:\Program Files\Microsoft Visual Studio\2022\Community\VC\Tools\MSVC\14.34.31933\include\xstring

; 2301 :         return _BUF_SIZE <= _Myres;

  008df	8b 8d e8 fe ff
	ff		 mov	 ecx, DWORD PTR _stRegisterCmdLine$15[ebp+20]
  008e5	83 f9 10	 cmp	 ecx, 16			; 00000010H

; 5008 :         if (_My_data._Large_string_engaged()) {

  008e8	0f 82 a8 02 00
	00		 jb	 $LN850@RunMainScr
; File C:\Program Files\Microsoft Visual Studio\2022\Community\VC\Tools\MSVC\14.34.31933\include\xmemory

; 830  :         _Deallocate<_New_alignof<_Ty>>(_Ptr, sizeof(_Ty) * _Count);

  008ee	8b 95 d4 fe ff
	ff		 mov	 edx, DWORD PTR _stRegisterCmdLine$15[ebp]
; File C:\Program Files\Microsoft Visual Studio\2022\Community\VC\Tools\MSVC\14.34.31933\include\xstring

; 5013 :             _Al.deallocate(_Ptr, _My_data._Myres + 1);

  008f4	41		 inc	 ecx
; File C:\Program Files\Microsoft Visual Studio\2022\Community\VC\Tools\MSVC\14.34.31933\include\xmemory

; 830  :         _Deallocate<_New_alignof<_Ty>>(_Ptr, sizeof(_Ty) * _Count);

  008f5	8b c2		 mov	 eax, edx

; 251  :         if (_Bytes >= _Big_allocation_threshold) { // boost the alignment of big allocations to help autovectorization

  008f7	81 f9 00 10 00
	00		 cmp	 ecx, 4096		; 00001000H
  008fd	72 14		 jb	 SHORT $LN657@RunMainScr

; 150  :     const uintptr_t _Ptr_container   = _Ptr_user[-1];

  008ff	8b 50 fc	 mov	 edx, DWORD PTR [eax-4]
  00902	83 c1 23	 add	 ecx, 35			; 00000023H
  00905	2b c2		 sub	 eax, edx

; 164  :     _STL_VERIFY(_Back_shift >= _Min_back_shift && _Back_shift <= _Non_user_size, "invalid argument");

  00907	83 c0 fc	 add	 eax, -4			; fffffffcH
  0090a	83 f8 1f	 cmp	 eax, 31			; 0000001fH
  0090d	0f 87 fa 02 00
	00		 ja	 $LN517@RunMainScr
$LN657@RunMainScr:

; 255  :         ::operator delete(_Ptr, _Bytes);

  00913	51		 push	 ecx
  00914	52		 push	 edx
  00915	e8 00 00 00 00	 call	 ??3@YAXPAXI@Z		; operator delete
  0091a	83 c4 08	 add	 esp, 8
; File C:\Program Files\Microsoft Visual Studio\2022\Community\VC\Tools\MSVC\14.34.31933\include\xstring

; 2294 :             _Result = _Unfancy(_Bx._Ptr);

  0091d	e9 74 02 00 00	 jmp	 $LN850@RunMainScr
$LN7@RunMainScr:
; File E:\Metin2_server\SolWayneSF v6\ClientVS22\source\UserInterface\UserInterface.cpp

; 340  : 	}

  00922	c6 45 fc 02	 mov	 BYTE PTR __$EHRec$[ebp+8], 2
; File C:\Program Files\Microsoft Visual Studio\2022\Community\VC\Tools\MSVC\14.34.31933\include\vector

; 2107 :         if (_Myfirst) { // destroy and deallocate old array

  00926	8b b5 98 fe ff
	ff		 mov	 esi, DWORD PTR _stVec$10[ebp]
  0092c	85 f6		 test	 esi, esi
  0092e	0f 84 c0 00 00
	00		 je	 $LN665@RunMainScr

; 2108 :             _Destroy_range(_Myfirst, _Mylast, _Al);

  00934	8b bd 9c fe ff
	ff		 mov	 edi, DWORD PTR _stVec$10[ebp+4]
  0093a	3b f7		 cmp	 esi, edi
; File C:\Program Files\Microsoft Visual Studio\2022\Community\VC\Tools\MSVC\14.34.31933\include\xmemory

; 947  :         for (; _First != _Last; ++_First) {

  0093c	74 53		 je	 SHORT $LN669@RunMainScr
  0093e	66 90		 npad	 2
$LL670@RunMainScr:
; File C:\Program Files\Microsoft Visual Studio\2022\Community\VC\Tools\MSVC\14.34.31933\include\xstring

; 2301 :         return _BUF_SIZE <= _Myres;

  00940	8b 4e 14	 mov	 ecx, DWORD PTR [esi+20]

; 5008 :         if (_My_data._Large_string_engaged()) {

  00943	83 f9 10	 cmp	 ecx, 16			; 00000010H
  00946	72 2b		 jb	 SHORT $LN691@RunMainScr

; 5009 :             const pointer _Ptr = _My_data._Bx._Ptr;

  00948	8b 06		 mov	 eax, DWORD PTR [esi]

; 5013 :             _Al.deallocate(_Ptr, _My_data._Myres + 1);

  0094a	41		 inc	 ecx
; File C:\Program Files\Microsoft Visual Studio\2022\Community\VC\Tools\MSVC\14.34.31933\include\xmemory

; 251  :         if (_Bytes >= _Big_allocation_threshold) { // boost the alignment of big allocations to help autovectorization

  0094b	81 f9 00 10 00
	00		 cmp	 ecx, 4096		; 00001000H
  00951	72 16		 jb	 SHORT $LN703@RunMainScr

; 150  :     const uintptr_t _Ptr_container   = _Ptr_user[-1];

  00953	8b 50 fc	 mov	 edx, DWORD PTR [eax-4]
  00956	83 c1 23	 add	 ecx, 35			; 00000023H

; 151  : 
; 152  :     // If the following asserts, it likely means that we are performing
; 153  :     // an aligned delete on memory coming from an unaligned allocation.
; 154  :     _STL_ASSERT(_Ptr_user[-2] == _Big_allocation_sentinel, "invalid argument");
; 155  : 
; 156  :     // Extra paranoia on aligned allocation/deallocation; ensure _Ptr_container is
; 157  :     // in range [_Min_back_shift, _Non_user_size]
; 158  : #ifdef _DEBUG
; 159  :     constexpr uintptr_t _Min_back_shift = 2 * sizeof(void*);
; 160  : #else // ^^^ _DEBUG ^^^ // vvv !_DEBUG vvv
; 161  :     constexpr uintptr_t _Min_back_shift = sizeof(void*);
; 162  : #endif // _DEBUG
; 163  :     const uintptr_t _Back_shift = reinterpret_cast<uintptr_t>(_Ptr) - _Ptr_container;

  00959	2b c2		 sub	 eax, edx

; 164  :     _STL_VERIFY(_Back_shift >= _Min_back_shift && _Back_shift <= _Non_user_size, "invalid argument");

  0095b	83 c0 fc	 add	 eax, -4			; fffffffcH
  0095e	83 f8 1f	 cmp	 eax, 31			; 0000001fH
  00961	0f 87 a6 02 00
	00		 ja	 $LN517@RunMainScr

; 165  :     _Ptr = reinterpret_cast<void*>(_Ptr_container);

  00967	8b c2		 mov	 eax, edx
$LN703@RunMainScr:

; 255  :         ::operator delete(_Ptr, _Bytes);

  00969	51		 push	 ecx
  0096a	50		 push	 eax
  0096b	e8 00 00 00 00	 call	 ??3@YAXPAXI@Z		; operator delete
  00970	83 c4 08	 add	 esp, 8
$LN691@RunMainScr:
; File C:\Program Files\Microsoft Visual Studio\2022\Community\VC\Tools\MSVC\14.34.31933\include\xstring

; 5016 :         _My_data._Mysize = 0;

  00973	c7 46 10 00 00
	00 00		 mov	 DWORD PTR [esi+16], 0

; 5017 :         _My_data._Myres  = _BUF_SIZE - 1;

  0097a	c7 46 14 0f 00
	00 00		 mov	 DWORD PTR [esi+20], 15	; 0000000fH

; 5018 :         // the _Traits::assign is last so the codegen doesn't think the char write can alias this
; 5019 :         _Traits::assign(_My_data._Bx._Buf[0], _Elem());

  00981	c6 06 00	 mov	 BYTE PTR [esi], 0
; File C:\Program Files\Microsoft Visual Studio\2022\Community\VC\Tools\MSVC\14.34.31933\include\xmemory

; 947  :         for (; _First != _Last; ++_First) {

  00984	83 c6 18	 add	 esi, 24			; 00000018H
  00987	3b f7		 cmp	 esi, edi
  00989	75 b5		 jne	 SHORT $LL670@RunMainScr
  0098b	8b b5 98 fe ff
	ff		 mov	 esi, DWORD PTR _stVec$10[ebp]
$LN669@RunMainScr:
; File C:\Program Files\Microsoft Visual Studio\2022\Community\VC\Tools\MSVC\14.34.31933\include\vector

; 2110 :             _Al.deallocate(_Myfirst, static_cast<size_type>(_Myend - _Myfirst));

  00991	8b 85 a0 fe ff
	ff		 mov	 eax, DWORD PTR _stVec$10[ebp+8]
  00997	2b c6		 sub	 eax, esi
  00999	c1 f8 03	 sar	 eax, 3
  0099c	69 c0 ab aa aa
	aa		 imul	 eax, eax, -1431655765
; File C:\Program Files\Microsoft Visual Studio\2022\Community\VC\Tools\MSVC\14.34.31933\include\xmemory

; 830  :         _Deallocate<_New_alignof<_Ty>>(_Ptr, sizeof(_Ty) * _Count);

  009a2	8d 0c 40	 lea	 ecx, DWORD PTR [eax+eax*2]
  009a5	8b c6		 mov	 eax, esi
  009a7	c1 e1 03	 shl	 ecx, 3

; 251  :         if (_Bytes >= _Big_allocation_threshold) { // boost the alignment of big allocations to help autovectorization

  009aa	81 f9 00 10 00
	00		 cmp	 ecx, 4096		; 00001000H
  009b0	72 14		 jb	 SHORT $LN729@RunMainScr

; 150  :     const uintptr_t _Ptr_container   = _Ptr_user[-1];

  009b2	8b 70 fc	 mov	 esi, DWORD PTR [eax-4]
  009b5	83 c1 23	 add	 ecx, 35			; 00000023H
  009b8	2b c6		 sub	 eax, esi

; 164  :     _STL_VERIFY(_Back_shift >= _Min_back_shift && _Back_shift <= _Non_user_size, "invalid argument");

  009ba	83 c0 fc	 add	 eax, -4			; fffffffcH
  009bd	83 f8 1f	 cmp	 eax, 31			; 0000001fH
  009c0	0f 87 47 02 00
	00		 ja	 $LN517@RunMainScr
$LN729@RunMainScr:

; 255  :         ::operator delete(_Ptr, _Bytes);

  009c6	51		 push	 ecx
  009c7	56		 push	 esi
  009c8	e8 00 00 00 00	 call	 ??3@YAXPAXI@Z		; operator delete
  009cd	8b bd 84 fe ff
	ff		 mov	 edi, DWORD PTR _pyLauncher$GSCopy$1$[ebp]
  009d3	83 c4 08	 add	 esp, 8
; File C:\Program Files\Microsoft Visual Studio\2022\Community\VC\Tools\MSVC\14.34.31933\include\vector

; 2112 :             _Myfirst = nullptr;

  009d6	c7 85 98 fe ff
	ff 00 00 00 00	 mov	 DWORD PTR _stVec$10[ebp], 0

; 2113 :             _Mylast  = nullptr;

  009e0	c7 85 9c fe ff
	ff 00 00 00 00	 mov	 DWORD PTR _stVec$10[ebp+4], 0

; 2114 :             _Myend   = nullptr;

  009ea	c7 85 a0 fe ff
	ff 00 00 00 00	 mov	 DWORD PTR _stVec$10[ebp+8], 0
$LN665@RunMainScr:
; File E:\Metin2_server\SolWayneSF v6\ClientVS22\source\UserInterface\UserInterface.cpp

; 340  : 	}

  009f4	c6 45 fc 01	 mov	 BYTE PTR __$EHRec$[ebp+8], 1
; File C:\Program Files\Microsoft Visual Studio\2022\Community\VC\Tools\MSVC\14.34.31933\include\xstring

; 5008 :         if (_My_data._Large_string_engaged()) {

  009f8	8b 85 d0 fe ff
	ff		 mov	 eax, DWORD PTR _stCmdLine$13[ebp+20]
  009fe	83 f8 10	 cmp	 eax, 16			; 00000010H
  00a01	72 31		 jb	 SHORT $LN479@RunMainScr
; File C:\Program Files\Microsoft Visual Studio\2022\Community\VC\Tools\MSVC\14.34.31933\include\xmemory

; 830  :         _Deallocate<_New_alignof<_Ty>>(_Ptr, sizeof(_Ty) * _Count);

  00a03	8b 95 bc fe ff
	ff		 mov	 edx, DWORD PTR _stCmdLine$13[ebp]
; File C:\Program Files\Microsoft Visual Studio\2022\Community\VC\Tools\MSVC\14.34.31933\include\xstring

; 5013 :             _Al.deallocate(_Ptr, _My_data._Myres + 1);

  00a09	8d 48 01	 lea	 ecx, DWORD PTR [eax+1]
; File C:\Program Files\Microsoft Visual Studio\2022\Community\VC\Tools\MSVC\14.34.31933\include\xmemory

; 830  :         _Deallocate<_New_alignof<_Ty>>(_Ptr, sizeof(_Ty) * _Count);

  00a0c	8b c2		 mov	 eax, edx

; 251  :         if (_Bytes >= _Big_allocation_threshold) { // boost the alignment of big allocations to help autovectorization

  00a0e	81 f9 00 10 00
	00		 cmp	 ecx, 4096		; 00001000H
  00a14	72 14		 jb	 SHORT $LN491@RunMainScr

; 150  :     const uintptr_t _Ptr_container   = _Ptr_user[-1];

  00a16	8b 50 fc	 mov	 edx, DWORD PTR [eax-4]
  00a19	83 c1 23	 add	 ecx, 35			; 00000023H
  00a1c	2b c2		 sub	 eax, edx

; 164  :     _STL_VERIFY(_Back_shift >= _Min_back_shift && _Back_shift <= _Non_user_size, "invalid argument");

  00a1e	83 c0 fc	 add	 eax, -4			; fffffffcH
  00a21	83 f8 1f	 cmp	 eax, 31			; 0000001fH
  00a24	0f 87 e3 01 00
	00		 ja	 $LN517@RunMainScr
$LN491@RunMainScr:

; 255  :         ::operator delete(_Ptr, _Bytes);

  00a2a	51		 push	 ecx
  00a2b	52		 push	 edx
  00a2c	e8 00 00 00 00	 call	 ??3@YAXPAXI@Z		; operator delete
  00a31	83 c4 08	 add	 esp, 8
$LN479@RunMainScr:
; File E:\Metin2_server\SolWayneSF v6\ClientVS22\source\UserInterface\UserInterface.cpp

; 340  : 	}

  00a34	c7 45 fc ff ff
	ff ff		 mov	 DWORD PTR __$EHRec$[ebp+8], -1
; File C:\Program Files\Microsoft Visual Studio\2022\Community\VC\Tools\MSVC\14.34.31933\include\xstring

; 5008 :         if (_My_data._Large_string_engaged()) {

  00a3b	8b 8d e8 fe ff
	ff		 mov	 ecx, DWORD PTR _stRegisterCmdLine$15[ebp+20]
  00a41	83 f9 10	 cmp	 ecx, 16			; 00000010H
  00a44	72 2f		 jb	 SHORT $LN508@RunMainScr
; File C:\Program Files\Microsoft Visual Studio\2022\Community\VC\Tools\MSVC\14.34.31933\include\xmemory

; 830  :         _Deallocate<_New_alignof<_Ty>>(_Ptr, sizeof(_Ty) * _Count);

  00a46	8b 95 d4 fe ff
	ff		 mov	 edx, DWORD PTR _stRegisterCmdLine$15[ebp]
; File C:\Program Files\Microsoft Visual Studio\2022\Community\VC\Tools\MSVC\14.34.31933\include\xstring

; 5013 :             _Al.deallocate(_Ptr, _My_data._Myres + 1);

  00a4c	41		 inc	 ecx
; File C:\Program Files\Microsoft Visual Studio\2022\Community\VC\Tools\MSVC\14.34.31933\include\xmemory

; 830  :         _Deallocate<_New_alignof<_Ty>>(_Ptr, sizeof(_Ty) * _Count);

  00a4d	8b c2		 mov	 eax, edx

; 251  :         if (_Bytes >= _Big_allocation_threshold) { // boost the alignment of big allocations to help autovectorization

  00a4f	81 f9 00 10 00
	00		 cmp	 ecx, 4096		; 00001000H
  00a55	72 14		 jb	 SHORT $LN520@RunMainScr

; 150  :     const uintptr_t _Ptr_container   = _Ptr_user[-1];

  00a57	8b 50 fc	 mov	 edx, DWORD PTR [eax-4]
  00a5a	83 c1 23	 add	 ecx, 35			; 00000023H
  00a5d	2b c2		 sub	 eax, edx

; 164  :     _STL_VERIFY(_Back_shift >= _Min_back_shift && _Back_shift <= _Non_user_size, "invalid argument");

  00a5f	83 c0 fc	 add	 eax, -4			; fffffffcH
  00a62	83 f8 1f	 cmp	 eax, 31			; 0000001fH
  00a65	0f 87 a2 01 00
	00		 ja	 $LN517@RunMainScr
$LN520@RunMainScr:

; 255  :         ::operator delete(_Ptr, _Bytes);

  00a6b	51		 push	 ecx
  00a6c	52		 push	 edx
  00a6d	e8 00 00 00 00	 call	 ??3@YAXPAXI@Z		; operator delete
  00a72	83 c4 08	 add	 esp, 8
$LN508@RunMainScr:
; File C:\Program Files\Microsoft Visual Studio\2022\Community\VC\Tools\MSVC\14.34.31933\include\vector

; 390  :     _CONSTEXPR20 _Vector_val() noexcept : _Myfirst(), _Mylast(), _Myend() {}

  00a75	c7 85 98 fe ff
	ff 00 00 00 00	 mov	 DWORD PTR _stVec$9[ebp], 0
  00a7f	c7 85 9c fe ff
	ff 00 00 00 00	 mov	 DWORD PTR _stVec$9[ebp+4], 0
  00a89	c7 85 a0 fe ff
	ff 00 00 00 00	 mov	 DWORD PTR _stVec$9[ebp+8], 0
; File E:\Metin2_server\SolWayneSF v6\ClientVS22\source\UserInterface\UserInterface.cpp

; 343  : 		SplitLine(lpCmdLine," " ,&stVec);

  00a93	8b 95 80 fe ff
	ff		 mov	 edx, DWORD PTR _lpCmdLine$GSCopy$1$[ebp]
  00a99	8d 85 98 fe ff
	ff		 lea	 eax, DWORD PTR _stVec$9[ebp]
  00a9f	50		 push	 eax
  00aa0	68 00 00 00 00	 push	 OFFSET ??_C@_01CLKCMJKC@?5@
  00aa5	52		 push	 edx
  00aa6	c7 45 fc 06 00
	00 00		 mov	 DWORD PTR __$EHRec$[ebp+8], 6
  00aad	e8 00 00 00 00	 call	 ?SplitLine@@YA_NPBD0PAV?$vector@V?$basic_string@DU?$char_traits@D@std@@V?$allocator@D@2@@std@@V?$allocator@V?$basic_string@DU?$char_traits@D@std@@V?$allocator@D@2@@std@@@2@@std@@@Z ; SplitLine
; File C:\Program Files\Microsoft Visual Studio\2022\Community\VC\Tools\MSVC\14.34.31933\include\vector

; 1932 :         return static_cast<size_type>(_My_data._Mylast - _My_data._Myfirst);

  00ab2	8b 85 9c fe ff
	ff		 mov	 eax, DWORD PTR _stVec$9[ebp+4]
; File E:\Metin2_server\SolWayneSF v6\ClientVS22\source\UserInterface\UserInterface.cpp

; 343  : 		SplitLine(lpCmdLine," " ,&stVec);

  00ab8	83 c4 0c	 add	 esp, 12			; 0000000cH
; File C:\Program Files\Microsoft Visual Studio\2022\Community\VC\Tools\MSVC\14.34.31933\include\vector

; 1932 :         return static_cast<size_type>(_My_data._Mylast - _My_data._Myfirst);

  00abb	8b 8d 98 fe ff
	ff		 mov	 ecx, DWORD PTR _stVec$9[ebp]
  00ac1	2b c1		 sub	 eax, ecx
; File E:\Metin2_server\SolWayneSF v6\ClientVS22\source\UserInterface\UserInterface.cpp

; 345  : 		if (stVec.size() != 0 && "--pause-before-create-window" == stVec[0])

  00ac3	74 2d		 je	 SHORT $LN8@RunMainScr
; File C:\Program Files\Microsoft Visual Studio\2022\Community\VC\Tools\MSVC\14.34.31933\include\xstring

; 2301 :         return _BUF_SIZE <= _Myres;

  00ac5	83 79 14 10	 cmp	 DWORD PTR [ecx+20], 16	; 00000010H

; 4756 :         return _Traits_equal<_Traits>(_Mypair._Myval2._Myptr(), _Mypair._Myval2._Mysize, _Ptr, _Traits::length(_Ptr));

  00ac9	8b 41 10	 mov	 eax, DWORD PTR [ecx+16]

; 2293 :         if (_Large_string_engaged()) {

  00acc	72 02		 jb	 SHORT $LN843@RunMainScr

; 2294 :             _Result = _Unfancy(_Bx._Ptr);

  00ace	8b 09		 mov	 ecx, DWORD PTR [ecx]
$LN843@RunMainScr:

; 4756 :         return _Traits_equal<_Traits>(_Mypair._Myval2._Myptr(), _Mypair._Myval2._Mysize, _Ptr, _Traits::length(_Ptr));

  00ad0	6a 1c		 push	 28			; 0000001cH
  00ad2	68 00 00 00 00	 push	 OFFSET ??_C@_0BN@KIGJPBEF@?9?9pause?9before?9create?9window@
  00ad7	50		 push	 eax
  00ad8	51		 push	 ecx
  00ad9	e8 00 00 00 00	 call	 ??$_Traits_equal@U?$char_traits@D@std@@@std@@YA_NQBDI0I@Z ; std::_Traits_equal<std::char_traits<char> >
  00ade	83 c4 10	 add	 esp, 16			; 00000010H
; File E:\Metin2_server\SolWayneSF v6\ClientVS22\source\UserInterface\UserInterface.cpp

; 345  : 		if (stVec.size() != 0 && "--pause-before-create-window" == stVec[0])

  00ae1	84 c0		 test	 al, al
  00ae3	74 0d		 je	 SHORT $LN8@RunMainScr

; 346  : 		{
; 347  : #ifdef XTRAP_CLIENT_ENABLE
; 348  : 			if (!XTrap_CheckInit())
; 349  : 				return false;
; 350  : #endif
; 351  : 			system("pause");

  00ae5	68 00 00 00 00	 push	 OFFSET ??_C@_05PDJBBECF@pause@
  00aea	e8 00 00 00 00	 call	 _system
  00aef	83 c4 04	 add	 esp, 4
$LN8@RunMainScr:

; 352  : 		}
; 353  : 		if (!pyLauncher.RunFile("system.py"))

  00af2	68 00 00 00 00	 push	 OFFSET ??_C@_09LEIJOBCA@system?4py@
  00af7	8b cf		 mov	 ecx, edi
  00af9	e8 00 00 00 00	 call	 ?RunFile@CPythonLauncher@@QAE_NPBD@Z ; CPythonLauncher::RunFile
  00afe	84 c0		 test	 al, al
  00b00	0f 85 ae 00 00
	00		 jne	 $LN9@RunMainScr

; 355  : 			TraceError("RunMain Error");

  00b06	68 00 00 00 00	 push	 OFFSET ??_C@_0O@BEEPKJML@RunMain?5Error@
  00b0b	e8 00 00 00 00	 call	 ?TraceError@@YAXPBDZZ	; TraceError
; File C:\Program Files\Microsoft Visual Studio\2022\Community\VC\Tools\MSVC\14.34.31933\include\vector

; 2107 :         if (_Myfirst) { // destroy and deallocate old array

  00b10	8b b5 98 fe ff
	ff		 mov	 esi, DWORD PTR _stVec$9[ebp]
; File E:\Metin2_server\SolWayneSF v6\ClientVS22\source\UserInterface\UserInterface.cpp

; 355  : 			TraceError("RunMain Error");

  00b16	83 c4 04	 add	 esp, 4
; File C:\Program Files\Microsoft Visual Studio\2022\Community\VC\Tools\MSVC\14.34.31933\include\vector

; 2107 :         if (_Myfirst) { // destroy and deallocate old array

  00b19	85 f6		 test	 esi, esi
  00b1b	74 79		 je	 SHORT $LN850@RunMainScr

; 2108 :             _Destroy_range(_Myfirst, _Mylast, _Al);

  00b1d	8b bd 9c fe ff
	ff		 mov	 edi, DWORD PTR _stVec$9[ebp+4]
  00b23	3b f7		 cmp	 esi, edi
; File C:\Program Files\Microsoft Visual Studio\2022\Community\VC\Tools\MSVC\14.34.31933\include\xmemory

; 947  :         for (; _First != _Last; ++_First) {

  00b25	74 51		 je	 SHORT $LN1170@RunMainScr
$LL855@RunMainScr:
; File C:\Program Files\Microsoft Visual Studio\2022\Community\VC\Tools\MSVC\14.34.31933\include\xstring

; 2301 :         return _BUF_SIZE <= _Myres;

  00b27	8b 4e 14	 mov	 ecx, DWORD PTR [esi+20]
  00b2a	83 f9 10	 cmp	 ecx, 16			; 00000010H

; 5008 :         if (_My_data._Large_string_engaged()) {

  00b2d	72 2b		 jb	 SHORT $LN876@RunMainScr
; File C:\Program Files\Microsoft Visual Studio\2022\Community\VC\Tools\MSVC\14.34.31933\include\xmemory

; 830  :         _Deallocate<_New_alignof<_Ty>>(_Ptr, sizeof(_Ty) * _Count);

  00b2f	8b 06		 mov	 eax, DWORD PTR [esi]
; File C:\Program Files\Microsoft Visual Studio\2022\Community\VC\Tools\MSVC\14.34.31933\include\xstring

; 5013 :             _Al.deallocate(_Ptr, _My_data._Myres + 1);

  00b31	41		 inc	 ecx
; File C:\Program Files\Microsoft Visual Studio\2022\Community\VC\Tools\MSVC\14.34.31933\include\xmemory

; 251  :         if (_Bytes >= _Big_allocation_threshold) { // boost the alignment of big allocations to help autovectorization

  00b32	81 f9 00 10 00
	00		 cmp	 ecx, 4096		; 00001000H
  00b38	72 16		 jb	 SHORT $LN888@RunMainScr

; 150  :     const uintptr_t _Ptr_container   = _Ptr_user[-1];

  00b3a	8b 50 fc	 mov	 edx, DWORD PTR [eax-4]
  00b3d	83 c1 23	 add	 ecx, 35			; 00000023H

; 151  : 
; 152  :     // If the following asserts, it likely means that we are performing
; 153  :     // an aligned delete on memory coming from an unaligned allocation.
; 154  :     _STL_ASSERT(_Ptr_user[-2] == _Big_allocation_sentinel, "invalid argument");
; 155  : 
; 156  :     // Extra paranoia on aligned allocation/deallocation; ensure _Ptr_container is
; 157  :     // in range [_Min_back_shift, _Non_user_size]
; 158  : #ifdef _DEBUG
; 159  :     constexpr uintptr_t _Min_back_shift = 2 * sizeof(void*);
; 160  : #else // ^^^ _DEBUG ^^^ // vvv !_DEBUG vvv
; 161  :     constexpr uintptr_t _Min_back_shift = sizeof(void*);
; 162  : #endif // _DEBUG
; 163  :     const uintptr_t _Back_shift = reinterpret_cast<uintptr_t>(_Ptr) - _Ptr_container;

  00b40	2b c2		 sub	 eax, edx

; 164  :     _STL_VERIFY(_Back_shift >= _Min_back_shift && _Back_shift <= _Non_user_size, "invalid argument");

  00b42	83 c0 fc	 add	 eax, -4			; fffffffcH
  00b45	83 f8 1f	 cmp	 eax, 31			; 0000001fH
  00b48	0f 87 ba 00 00
	00		 ja	 $LN187@RunMainScr

; 165  :     _Ptr = reinterpret_cast<void*>(_Ptr_container);

  00b4e	8b c2		 mov	 eax, edx
$LN888@RunMainScr:

; 255  :         ::operator delete(_Ptr, _Bytes);

  00b50	51		 push	 ecx
  00b51	50		 push	 eax
  00b52	e8 00 00 00 00	 call	 ??3@YAXPAXI@Z		; operator delete
  00b57	83 c4 08	 add	 esp, 8
$LN876@RunMainScr:
; File C:\Program Files\Microsoft Visual Studio\2022\Community\VC\Tools\MSVC\14.34.31933\include\xstring

; 5016 :         _My_data._Mysize = 0;

  00b5a	c7 46 10 00 00
	00 00		 mov	 DWORD PTR [esi+16], 0

; 5017 :         _My_data._Myres  = _BUF_SIZE - 1;

  00b61	c7 46 14 0f 00
	00 00		 mov	 DWORD PTR [esi+20], 15	; 0000000fH

; 5018 :         // the _Traits::assign is last so the codegen doesn't think the char write can alias this
; 5019 :         _Traits::assign(_My_data._Bx._Buf[0], _Elem());

  00b68	c6 06 00	 mov	 BYTE PTR [esi], 0
; File C:\Program Files\Microsoft Visual Studio\2022\Community\VC\Tools\MSVC\14.34.31933\include\xmemory

; 947  :         for (; _First != _Last; ++_First) {

  00b6b	83 c6 18	 add	 esi, 24			; 00000018H
  00b6e	3b f7		 cmp	 esi, edi
  00b70	75 b5		 jne	 SHORT $LL855@RunMainScr
  00b72	8b b5 98 fe ff
	ff		 mov	 esi, DWORD PTR _stVec$9[ebp]
$LN1170@RunMainScr:
; File C:\Program Files\Microsoft Visual Studio\2022\Community\VC\Tools\MSVC\14.34.31933\include\vector

; 2110 :             _Al.deallocate(_Myfirst, static_cast<size_type>(_Myend - _Myfirst));

  00b78	8b 85 a0 fe ff
	ff		 mov	 eax, DWORD PTR _stVec$9[ebp+8]
  00b7e	8d 8d 98 fe ff
	ff		 lea	 ecx, DWORD PTR _stVec$9[ebp]
  00b84	2b c6		 sub	 eax, esi
  00b86	c1 f8 03	 sar	 eax, 3
  00b89	69 c0 ab aa aa
	aa		 imul	 eax, eax, -1431655765
  00b8f	50		 push	 eax
  00b90	56		 push	 esi
  00b91	e8 00 00 00 00	 call	 ?deallocate@?$allocator@V?$basic_string@DU?$char_traits@D@std@@V?$allocator@D@2@@std@@@std@@QAEXQAV?$basic_string@DU?$char_traits@D@std@@V?$allocator@D@2@@2@I@Z ; std::allocator<std::basic_string<char,std::char_traits<char>,std::allocator<char> > >::deallocate
$LN850@RunMainScr:
; File E:\Metin2_server\SolWayneSF v6\ClientVS22\source\UserInterface\UserInterface.cpp

; 356  : 			return false;

  00b96	32 c0		 xor	 al, al
$LN1@RunMainScr:

; 362  : }

  00b98	8b 4d f4	 mov	 ecx, DWORD PTR __$EHRec$[ebp]
  00b9b	64 89 0d 00 00
	00 00		 mov	 DWORD PTR fs:0, ecx
  00ba2	59		 pop	 ecx
  00ba3	5f		 pop	 edi
  00ba4	5e		 pop	 esi
  00ba5	5b		 pop	 ebx
  00ba6	8b 4d f0	 mov	 ecx, DWORD PTR __$ArrayPad$[ebp]
  00ba9	33 cd		 xor	 ecx, ebp
  00bab	e8 00 00 00 00	 call	 @__security_check_cookie@4
  00bb0	8b e5		 mov	 esp, ebp
  00bb2	5d		 pop	 ebp
  00bb3	c3		 ret	 0
$LN9@RunMainScr:
; File C:\Program Files\Microsoft Visual Studio\2022\Community\VC\Tools\MSVC\14.34.31933\include\vector

; 2107 :         if (_Myfirst) { // destroy and deallocate old array

  00bb4	8b b5 98 fe ff
	ff		 mov	 esi, DWORD PTR _stVec$9[ebp]
  00bba	85 f6		 test	 esi, esi
  00bbc	74 3c		 je	 SHORT $LN902@RunMainScr

; 2108 :             _Destroy_range(_Myfirst, _Mylast, _Al);

  00bbe	8b bd 9c fe ff
	ff		 mov	 edi, DWORD PTR _stVec$9[ebp+4]
  00bc4	3b f7		 cmp	 esi, edi
; File C:\Program Files\Microsoft Visual Studio\2022\Community\VC\Tools\MSVC\14.34.31933\include\xmemory

; 947  :         for (; _First != _Last; ++_First) {

  00bc6	74 14		 je	 SHORT $LN906@RunMainScr
$LL907@RunMainScr:

; 687  :         _STD destroy_at(_Ptr);

  00bc8	8b ce		 mov	 ecx, esi
  00bca	e8 00 00 00 00	 call	 ??$destroy_at@V?$basic_string@DU?$char_traits@D@std@@V?$allocator@D@2@@std@@@std@@YAXQAV?$basic_string@DU?$char_traits@D@std@@V?$allocator@D@2@@0@@Z ; std::destroy_at<std::basic_string<char,std::char_traits<char>,std::allocator<char> > >

; 947  :         for (; _First != _Last; ++_First) {

  00bcf	83 c6 18	 add	 esi, 24			; 00000018H
  00bd2	3b f7		 cmp	 esi, edi
  00bd4	75 f2		 jne	 SHORT $LL907@RunMainScr
  00bd6	8b b5 98 fe ff
	ff		 mov	 esi, DWORD PTR _stVec$9[ebp]
$LN906@RunMainScr:
; File C:\Program Files\Microsoft Visual Studio\2022\Community\VC\Tools\MSVC\14.34.31933\include\vector

; 2110 :             _Al.deallocate(_Myfirst, static_cast<size_type>(_Myend - _Myfirst));

  00bdc	8b 85 a0 fe ff
	ff		 mov	 eax, DWORD PTR _stVec$9[ebp+8]
  00be2	8d 8d 98 fe ff
	ff		 lea	 ecx, DWORD PTR _stVec$9[ebp]
  00be8	2b c6		 sub	 eax, esi
  00bea	c1 f8 03	 sar	 eax, 3
  00bed	69 c0 ab aa aa
	aa		 imul	 eax, eax, -1431655765
  00bf3	50		 push	 eax
  00bf4	56		 push	 esi
  00bf5	e8 00 00 00 00	 call	 ?deallocate@?$allocator@V?$basic_string@DU?$char_traits@D@std@@V?$allocator@D@2@@std@@@std@@QAEXQAV?$basic_string@DU?$char_traits@D@std@@V?$allocator@D@2@@2@I@Z ; std::allocator<std::basic_string<char,std::char_traits<char>,std::allocator<char> > >::deallocate
$LN902@RunMainScr:
; File E:\Metin2_server\SolWayneSF v6\ClientVS22\source\UserInterface\UserInterface.cpp

; 360  : 	NANOEND

  00bfa	eb		 DB	 -21			; ffffffebH
  00bfb	03		 DB	 3
  00bfc	d6		 DB	 -42			; ffffffd6H
  00bfd	d7		 DB	 -41			; ffffffd7H
  00bfe	00		 DB	 0
  00bff	b0 01		 mov	 al, 1
  00c01	eb 95		 jmp	 SHORT $LN1@RunMainScr
$LN1168@RunMainScr:
; File C:\Program Files\Microsoft Visual Studio\2022\Community\VC\Tools\MSVC\14.34.31933\include\xstring

; 4937 :             _Xlen_string(); // result too long

  00c03	e8 00 00 00 00	 call	 ?_Xlen_string@std@@YAXXZ ; std::_Xlen_string
$LN187@RunMainScr:
; File E:\Metin2_server\SolWayneSF v6\ClientVS22\source\UserInterface\UserInterface.cpp

; 362  : }

  00c08	e8 00 00 00 00	 call	 __invalid_parameter_noinfo_noreturn
$LN517@RunMainScr:
; File C:\Program Files\Microsoft Visual Studio\2022\Community\VC\Tools\MSVC\14.34.31933\include\xmemory

; 164  :     _STL_VERIFY(_Back_shift >= _Min_back_shift && _Back_shift <= _Non_user_size, "invalid argument");

  00c0d	e8 00 00 00 00	 call	 __invalid_parameter_noinfo_noreturn
$LN1176@RunMainScr:
  00c12	cc		 int	 3
_TEXT	ENDS
;	COMDAT text$x
text$x	SEGMENT
__unwindfunclet$?RunMainScript@@YA_NAAVCPythonLauncher@@PBD@Z$0:
  00000	8d 8d bc fe ff
	ff		 lea	 ecx, DWORD PTR _stRegisterDebugFlag$14[ebp]
  00006	e9 00 00 00 00	 jmp	 ??1?$basic_string@DU?$char_traits@D@std@@V?$allocator@D@2@@std@@QAE@XZ ; std::basic_string<char,std::char_traits<char>,std::allocator<char> >::~basic_string<char,std::char_traits<char>,std::allocator<char> >
__unwindfunclet$?RunMainScript@@YA_NAAVCPythonLauncher@@PBD@Z$1:
  0000b	8d 8d d4 fe ff
	ff		 lea	 ecx, DWORD PTR _stRegisterCmdLine$15[ebp]
  00011	e9 00 00 00 00	 jmp	 ??1?$basic_string@DU?$char_traits@D@std@@V?$allocator@D@2@@std@@QAE@XZ ; std::basic_string<char,std::char_traits<char>,std::allocator<char> >::~basic_string<char,std::char_traits<char>,std::allocator<char> >
__unwindfunclet$?RunMainScript@@YA_NAAVCPythonLauncher@@PBD@Z$2:
  00016	8d 8d bc fe ff
	ff		 lea	 ecx, DWORD PTR _stCmdLine$13[ebp]
  0001c	e9 00 00 00 00	 jmp	 ??1?$basic_string@DU?$char_traits@D@std@@V?$allocator@D@2@@std@@QAE@XZ ; std::basic_string<char,std::char_traits<char>,std::allocator<char> >::~basic_string<char,std::char_traits<char>,std::allocator<char> >
__unwindfunclet$?RunMainScript@@YA_NAAVCPythonLauncher@@PBD@Z$3:
  00021	8d 8d 98 fe ff
	ff		 lea	 ecx, DWORD PTR _stVec$10[ebp]
  00027	e9 00 00 00 00	 jmp	 ??1?$vector@V?$basic_string@DU?$char_traits@D@std@@V?$allocator@D@2@@std@@V?$allocator@V?$basic_string@DU?$char_traits@D@std@@V?$allocator@D@2@@std@@@2@@std@@QAE@XZ ; std::vector<std::basic_string<char,std::char_traits<char>,std::allocator<char> >,std::allocator<std::basic_string<char,std::char_traits<char>,std::allocator<char> > > >::~vector<std::basic_string<char,std::char_traits<char>,std::allocator<char> >,std::allocator<std::basic_string<char,std::char_traits<char>,std::allocator<char> > > >
__unwindfunclet$?RunMainScript@@YA_NAAVCPythonLauncher@@PBD@Z$4:
  0002c	8d 8d a4 fe ff
	ff		 lea	 ecx, DWORD PTR $T12[ebp]
  00032	e9 00 00 00 00	 jmp	 ??1?$basic_string@DU?$char_traits@D@std@@V?$allocator@D@2@@std@@QAE@XZ ; std::basic_string<char,std::char_traits<char>,std::allocator<char> >::~basic_string<char,std::char_traits<char>,std::allocator<char> >
__unwindfunclet$?RunMainScript@@YA_NAAVCPythonLauncher@@PBD@Z$5:
  00037	8d 8d a4 fe ff
	ff		 lea	 ecx, DWORD PTR $T11[ebp]
  0003d	e9 00 00 00 00	 jmp	 ??1?$basic_string@DU?$char_traits@D@std@@V?$allocator@D@2@@std@@QAE@XZ ; std::basic_string<char,std::char_traits<char>,std::allocator<char> >::~basic_string<char,std::char_traits<char>,std::allocator<char> >
__unwindfunclet$?RunMainScript@@YA_NAAVCPythonLauncher@@PBD@Z$6:
  00042	8d 8d 98 fe ff
	ff		 lea	 ecx, DWORD PTR _stVec$9[ebp]
  00048	e9 00 00 00 00	 jmp	 ??1?$vector@V?$basic_string@DU?$char_traits@D@std@@V?$allocator@D@2@@std@@V?$allocator@V?$basic_string@DU?$char_traits@D@std@@V?$allocator@D@2@@std@@@2@@std@@QAE@XZ ; std::vector<std::basic_string<char,std::char_traits<char>,std::allocator<char> >,std::allocator<std::basic_string<char,std::char_traits<char>,std::allocator<char> > > >::~vector<std::basic_string<char,std::char_traits<char>,std::allocator<char> >,std::allocator<std::basic_string<char,std::char_traits<char>,std::allocator<char> > > >
  0004d	cc		 int	 3
  0004e	cc		 int	 3
  0004f	cc		 int	 3
  00050	cc		 int	 3
  00051	cc		 int	 3
__ehhandler$?RunMainScript@@YA_NAAVCPythonLauncher@@PBD@Z:
  00052	90		 npad	 1
  00053	90		 npad	 1
  00054	8b 54 24 08	 mov	 edx, DWORD PTR [esp+8]
  00058	8d 42 0c	 lea	 eax, DWORD PTR [edx+12]
  0005b	8b 8a 78 fe ff
	ff		 mov	 ecx, DWORD PTR [edx-392]
  00061	33 c8		 xor	 ecx, eax
  00063	e8 00 00 00 00	 call	 @__security_check_cookie@4
  00068	8b 4a fc	 mov	 ecx, DWORD PTR [edx-4]
  0006b	33 c8		 xor	 ecx, eax
  0006d	e8 00 00 00 00	 call	 @__security_check_cookie@4
  00072	b8 00 00 00 00	 mov	 eax, OFFSET __ehfuncinfo$?RunMainScript@@YA_NAAVCPythonLauncher@@PBD@Z
  00077	e9 00 00 00 00	 jmp	 ___CxxFrameHandler3
text$x	ENDS
?RunMainScript@@YA_NAAVCPythonLauncher@@PBD@Z ENDP	; RunMainScript
; Function compile flags: /Ogtp
; File E:\Metin2_server\SolWayneSF v6\ClientVS22\source\UserInterface\UserInterface.cpp
; File C:\Program Files (x86)\Windows Kits\10\Include\10.0.22000.0\ucrt\time.h
; File E:\Metin2_server\SolWayneSF v6\ClientVS22\source\UserInterface\UserInterface.cpp
;	COMDAT ?Main@@YA_NPAUHINSTANCE__@@PAD@Z
_TEXT	SEGMENT
$T2 = -68						; size = 4
_pyLauncher$3 = -64					; size = 12
_pyExceptionSender$4 = -52				; size = 36
__$ArrayPad$ = -16					; size = 4
__$EHRec$ = -12						; size = 12
?Main@@YA_NPAUHINSTANCE__@@PAD@Z PROC			; Main, COMDAT
; _hInstance$ = ecx
; _lpCmdLine$ = edx

; 365  : {

  00000	55		 push	 ebp
  00001	8b ec		 mov	 ebp, esp
  00003	6a ff		 push	 -1
  00005	68 00 00 00 00	 push	 __ehhandler$?Main@@YA_NPAUHINSTANCE__@@PAD@Z
  0000a	64 a1 00 00 00
	00		 mov	 eax, DWORD PTR fs:0
  00010	50		 push	 eax
  00011	83 ec 38	 sub	 esp, 56			; 00000038H
  00014	a1 00 00 00 00	 mov	 eax, DWORD PTR ___security_cookie
  00019	33 c5		 xor	 eax, ebp
  0001b	89 45 f0	 mov	 DWORD PTR __$ArrayPad$[ebp], eax
  0001e	53		 push	 ebx
  0001f	56		 push	 esi
  00020	57		 push	 edi
  00021	50		 push	 eax
  00022	8d 45 f4	 lea	 eax, DWORD PTR __$EHRec$[ebp]
  00025	64 a3 00 00 00
	00		 mov	 DWORD PTR fs:0, eax
  0002b	8b fa		 mov	 edi, edx
  0002d	8b d9		 mov	 ebx, ecx
; File C:\Program Files (x86)\Windows Kits\10\Include\10.0.22000.0\ucrt\time.h

; 426  :             return _time32(_Time);

  0002f	6a 00		 push	 0
  00031	e8 00 00 00 00	 call	 __time32
  00036	83 c4 04	 add	 esp, 4
  00039	8b f0		 mov	 esi, eax
; File E:\Metin2_server\SolWayneSF v6\ClientVS22\source\UserInterface\UserInterface.cpp

; 371  : 	DWORD dwRandSeed=time(NULL)+DWORD(GetCurrentProcess());

  0003b	ff 15 00 00 00
	00		 call	 DWORD PTR __imp__GetCurrentProcess@0
  00041	03 c6		 add	 eax, esi

; 372  : 	srandom(dwRandSeed);

  00043	50		 push	 eax
  00044	e8 00 00 00 00	 call	 ?srandom@@YAXK@Z	; srandom

; 373  : 	srand(random());

  00049	e8 00 00 00 00	 call	 ?random@@YAKXZ		; random
  0004e	50		 push	 eax
  0004f	e8 00 00 00 00	 call	 _srand

; 374  : 
; 375  : 	SetLogLevel(1);

  00054	6a 01		 push	 1
  00056	e8 00 00 00 00	 call	 ?SetLogLevel@@YAXI@Z	; SetLogLevel

; 376  : 
; 377  : #ifdef LOCALE_SERVICE_VIETNAM_MILD
; 378  : 	extern BOOL USE_VIETNAM_CONVERT_WEAPON_VNUM;
; 379  : 	USE_VIETNAM_CONVERT_WEAPON_VNUM = true;
; 380  : #endif
; 381  : 
; 382  : 	if (_access("perf_game_update.txt", 0)==0)

  0005b	6a 00		 push	 0
  0005d	68 00 00 00 00	 push	 OFFSET ??_C@_0BF@NHIIGIH@perf_game_update?4txt@
  00062	e8 00 00 00 00	 call	 __access
  00067	83 c4 14	 add	 esp, 20			; 00000014H
  0006a	85 c0		 test	 eax, eax
  0006c	75 0b		 jne	 SHORT $LN4@Main

; 383  : 	{
; 384  : 		DeleteFile("perf_game_update.txt");

  0006e	68 00 00 00 00	 push	 OFFSET ??_C@_0BF@NHIIGIH@perf_game_update?4txt@
  00073	ff 15 00 00 00
	00		 call	 DWORD PTR __imp__DeleteFileA@4
$LN4@Main:

; 385  : 	}
; 386  : 
; 387  : 	if (_access("newpatch.exe", 0)==0)

  00079	6a 00		 push	 0
  0007b	68 00 00 00 00	 push	 OFFSET ??_C@_0N@JIKFFHPP@newpatch?4exe@
  00080	e8 00 00 00 00	 call	 __access
  00085	83 c4 08	 add	 esp, 8
  00088	85 c0		 test	 eax, eax
  0008a	75 14		 jne	 SHORT $LN5@Main

; 388  : 	{		
; 389  : 		system("patchupdater.exe");

  0008c	68 00 00 00 00	 push	 OFFSET ??_C@_0BB@LLCBDFGP@patchupdater?4exe@
  00091	e8 00 00 00 00	 call	 _system
  00096	83 c4 04	 add	 esp, 4
$LN23@Main:

; 445  : }

  00099	32 c0		 xor	 al, al
  0009b	e9 33 01 00 00	 jmp	 $LN1@Main
$LN5@Main:

; 390  : 		return false;
; 391  : 	}
; 392  : #ifndef __VTUNE__
; 393  : 	ilInit();

  000a0	ff 15 00 00 00
	00		 call	 DWORD PTR __imp__ilInit@0

; 394  : #endif
; 395  : 	if (!Setup(lpCmdLine))

  000a6	e8 00 00 00 00	 call	 ?Setup@@YAHPAD@Z	; Setup
  000ab	85 c0		 test	 eax, eax
  000ad	74 ea		 je	 SHORT $LN23@Main

; 396  : 		return false;
; 397  : 
; 398  : #ifdef _DEBUG
; 399  : 	OpenConsoleWindow();
; 400  : 	OpenLogFile(true); // true == uses syserr.txt and log.txt
; 401  : #else
; 402  : 	OpenLogFile(false); // false == uses syserr.txt only

  000af	6a 00		 push	 0
  000b1	e8 00 00 00 00	 call	 ?OpenLogFile@@YAX_N@Z	; OpenLogFile

; 403  : #endif
; 404  : 
; 405  : 	static CLZO				lzo;

  000b6	64 a1 00 00 00
	00		 mov	 eax, DWORD PTR fs:__tls_array
  000bc	83 c4 04	 add	 esp, 4
  000bf	8b 30		 mov	 esi, DWORD PTR [eax]
  000c1	a1 00 00 00 00	 mov	 eax, DWORD PTR ?$TSS0@?1??Main@@YA_NPAUHINSTANCE__@@PAD@Z@4HA
  000c6	3b 86 00 00 00
	00		 cmp	 eax, DWORD PTR __Init_thread_epoch[esi]
  000cc	0f 8f 1d 01 00
	00		 jg	 $LN25@Main
$LN2@Main:

; 406  : 	static CEterPackManager	EterPackManager;

  000d2	a1 00 00 00 00	 mov	 eax, DWORD PTR ?$TSS1@?1??Main@@YA_NPAUHINSTANCE__@@PAD@Z@4HA
  000d7	3b 86 00 00 00
	00		 cmp	 eax, DWORD PTR __Init_thread_epoch[esi]
  000dd	0f 8f 5a 01 00
	00		 jg	 $LN26@Main
$LN3@Main:

; 407  : 
; 408  : 	if (!PackInitialize("pack"))

  000e3	e8 00 00 00 00	 call	 ?PackInitialize@@YA_NPBD@Z ; PackInitialize
  000e8	84 c0		 test	 al, al
  000ea	75 18		 jne	 SHORT $LN7@Main

; 409  : 	{
; 410  : 		LogBox("Pack Initialization failed. Check log.txt file..");

  000ec	6a 00		 push	 0
  000ee	6a 00		 push	 0
  000f0	68 00 00 00 00	 push	 OFFSET ??_C@_0DB@BGMLOPGB@Pack?5Initialization?5failed?4?5Che@
  000f5	e8 00 00 00 00	 call	 ?LogBox@@YAXPBD0PAUHWND__@@@Z ; LogBox
  000fa	83 c4 0c	 add	 esp, 12			; 0000000cH

; 411  : 		return false;

  000fd	32 c0		 xor	 al, al
  000ff	e9 cf 00 00 00	 jmp	 $LN1@Main
$LN7@Main:

; 412  : 	}
; 413  : 
; 414  : 	if(LocaleService_LoadGlobal(hInstance))

  00104	e8 00 00 00 00	 call	 ?LocaleService_LoadGlobal@@YA_NPAUHINSTANCE__@@@Z ; LocaleService_LoadGlobal
  00109	84 c0		 test	 al, al
  0010b	74 0e		 je	 SHORT $LN8@Main

; 415  : 		SetDefaultCodePage(LocaleService_GetCodePage());

  0010d	e8 00 00 00 00	 call	 ?LocaleService_GetCodePage@@YAIXZ ; LocaleService_GetCodePage
  00112	50		 push	 eax
  00113	e8 00 00 00 00	 call	 ?SetDefaultCodePage@@YA_NK@Z ; SetDefaultCodePage
  00118	83 c4 04	 add	 esp, 4
$LN8@Main:

; 416  : 
; 417  : 	CPythonApplication * app = new CPythonApplication;

  0011b	68 70 3e 02 00	 push	 147056			; 00023e70H
  00120	e8 00 00 00 00	 call	 ??2@YAPAXI@Z		; operator new
  00125	83 c4 04	 add	 esp, 4
  00128	89 45 bc	 mov	 DWORD PTR $T2[ebp], eax
  0012b	8b c8		 mov	 ecx, eax
  0012d	c7 45 fc 02 00
	00 00		 mov	 DWORD PTR __$EHRec$[ebp+8], 2
  00134	e8 00 00 00 00	 call	 ??0CPythonApplication@@QAE@XZ ; CPythonApplication::CPythonApplication
  00139	8b f0		 mov	 esi, eax
  0013b	c7 45 fc ff ff
	ff ff		 mov	 DWORD PTR __$EHRec$[ebp+8], -1

; 418  : 
; 419  : 	app->Initialize(hInstance);

  00142	53		 push	 ebx
  00143	8b ce		 mov	 ecx, esi
  00145	e8 00 00 00 00	 call	 ?Initialize@CMSApplication@@QAEXPAUHINSTANCE__@@@Z ; CMSApplication::Initialize

; 420  : 
; 421  : 	bool ret=false;
; 422  : 	{
; 423  : 		CPythonLauncher pyLauncher;

  0014a	8d 4d c0	 lea	 ecx, DWORD PTR _pyLauncher$3[ebp]
  0014d	32 db		 xor	 bl, bl
  0014f	e8 00 00 00 00	 call	 ??0CPythonLauncher@@QAE@XZ ; CPythonLauncher::CPythonLauncher

; 424  : 		CPythonExceptionSender pyExceptionSender;

  00154	8d 4d cc	 lea	 ecx, DWORD PTR _pyExceptionSender$4[ebp]
  00157	c7 45 fc 03 00
	00 00		 mov	 DWORD PTR __$EHRec$[ebp+8], 3
  0015e	e8 00 00 00 00	 call	 ??0CPythonExceptionSender@@QAE@XZ ; CPythonExceptionSender::CPythonExceptionSender

; 425  : 		SetExceptionSender(&pyExceptionSender);

  00163	8d 45 cc	 lea	 eax, DWORD PTR _pyExceptionSender$4[ebp]
  00166	c6 45 fc 04	 mov	 BYTE PTR __$EHRec$[ebp+8], 4
  0016a	50		 push	 eax
  0016b	e8 00 00 00 00	 call	 ?SetExceptionSender@@YAXPAVIPythonExceptionSender@@@Z ; SetExceptionSender
  00170	83 c4 04	 add	 esp, 4

; 426  : 
; 427  : 		if (pyLauncher.Create())

  00173	8d 4d c0	 lea	 ecx, DWORD PTR _pyLauncher$3[ebp]
  00176	68 00 00 00 00	 push	 OFFSET ??_C@_0M@PFDHIIAP@eter?4python@
  0017b	e8 00 00 00 00	 call	 ?Create@CPythonLauncher@@QAE_NPBD@Z ; CPythonLauncher::Create
  00180	84 c0		 test	 al, al
  00182	74 0c		 je	 SHORT $LN9@Main

; 428  : 		{
; 429  : 			ret=RunMainScript(pyLauncher, lpCmdLine);	//    .

  00184	8b d7		 mov	 edx, edi
  00186	8d 4d c0	 lea	 ecx, DWORD PTR _pyLauncher$3[ebp]
  00189	e8 00 00 00 00	 call	 ?RunMainScript@@YA_NAAVCPythonLauncher@@PBD@Z ; RunMainScript
  0018e	8a d8		 mov	 bl, al
$LN9@Main:

; 430  : 		}
; 431  : 
; 432  : 		//ProcessScanner_ReleaseQuitEvent();
; 433  : 		
; 434  : 		// .
; 435  : 		app->Clear();

  00190	8b ce		 mov	 ecx, esi
  00192	e8 00 00 00 00	 call	 ?Clear@CPythonApplication@@QAEXXZ ; CPythonApplication::Clear

; 436  : 
; 437  : 		timeEndPeriod(1);

  00197	6a 01		 push	 1
  00199	ff 15 00 00 00
	00		 call	 DWORD PTR __imp__timeEndPeriod@4

; 438  : 		pyLauncher.Clear();

  0019f	8d 4d c0	 lea	 ecx, DWORD PTR _pyLauncher$3[ebp]
  001a2	e8 00 00 00 00	 call	 ?Clear@CPythonLauncher@@QAEXXZ ; CPythonLauncher::Clear

; 439  : 	}

  001a7	8d 4d cc	 lea	 ecx, DWORD PTR _pyExceptionSender$4[ebp]
  001aa	e8 00 00 00 00	 call	 ??1CPythonExceptionSender@@UAE@XZ ; CPythonExceptionSender::~CPythonExceptionSender
  001af	8d 4d c0	 lea	 ecx, DWORD PTR _pyLauncher$3[ebp]
  001b2	c7 45 fc ff ff
	ff ff		 mov	 DWORD PTR __$EHRec$[ebp+8], -1
  001b9	e8 00 00 00 00	 call	 ??1CPythonLauncher@@UAE@XZ ; CPythonLauncher::~CPythonLauncher

; 440  : 
; 441  : 	app->Destroy();

  001be	8b ce		 mov	 ecx, esi
  001c0	e8 00 00 00 00	 call	 ?Destroy@CPythonApplication@@QAEXXZ ; CPythonApplication::Destroy

; 442  : 	delete app;

  001c5	85 f6		 test	 esi, esi
  001c7	74 08		 je	 SHORT $LN13@Main
  001c9	8b 06		 mov	 eax, DWORD PTR [esi]
  001cb	8b ce		 mov	 ecx, esi
  001cd	6a 01		 push	 1
  001cf	ff 10		 call	 DWORD PTR [eax]
$LN13@Main:

; 443  : 	
; 444  : 	return ret;

  001d1	8a c3		 mov	 al, bl
$LN1@Main:

; 445  : }

  001d3	8b 4d f4	 mov	 ecx, DWORD PTR __$EHRec$[ebp]
  001d6	64 89 0d 00 00
	00 00		 mov	 DWORD PTR fs:0, ecx
  001dd	59		 pop	 ecx
  001de	5f		 pop	 edi
  001df	5e		 pop	 esi
  001e0	5b		 pop	 ebx
  001e1	8b 4d f0	 mov	 ecx, DWORD PTR __$ArrayPad$[ebp]
  001e4	33 cd		 xor	 ecx, ebp
  001e6	e8 00 00 00 00	 call	 @__security_check_cookie@4
  001eb	8b e5		 mov	 esp, ebp
  001ed	5d		 pop	 ebp
  001ee	c3		 ret	 0
$LN25@Main:

; 403  : #endif
; 404  : 
; 405  : 	static CLZO				lzo;

  001ef	68 00 00 00 00	 push	 OFFSET ?$TSS0@?1??Main@@YA_NPAUHINSTANCE__@@PAD@Z@4HA
  001f4	e8 00 00 00 00	 call	 __Init_thread_header
  001f9	83 c4 04	 add	 esp, 4
  001fc	83 3d 00 00 00
	00 ff		 cmp	 DWORD PTR ?$TSS0@?1??Main@@YA_NPAUHINSTANCE__@@PAD@Z@4HA, -1
  00203	0f 85 c9 fe ff
	ff		 jne	 $LN2@Main
  00209	b9 00 00 00 00	 mov	 ecx, OFFSET ?lzo@?1??Main@@YA_NPAUHINSTANCE__@@PAD@Z@4VCLZO@@A
  0020e	c7 45 fc 00 00
	00 00		 mov	 DWORD PTR __$EHRec$[ebp+8], 0
  00215	e8 00 00 00 00	 call	 ??0CLZO@@QAE@XZ		; CLZO::CLZO
  0021a	68 00 00 00 00	 push	 OFFSET ??__Flzo@?1??Main@@YA_NPAUHINSTANCE__@@PAD@Z@YAXXZ ; `Main'::`2'::`dynamic atexit destructor for 'lzo''
  0021f	e8 00 00 00 00	 call	 _atexit
  00224	68 00 00 00 00	 push	 OFFSET ?$TSS0@?1??Main@@YA_NPAUHINSTANCE__@@PAD@Z@4HA
  00229	c7 45 fc ff ff
	ff ff		 mov	 DWORD PTR __$EHRec$[ebp+8], -1
  00230	e8 00 00 00 00	 call	 __Init_thread_footer
  00235	83 c4 08	 add	 esp, 8
  00238	e9 95 fe ff ff	 jmp	 $LN2@Main
$LN26@Main:

; 406  : 	static CEterPackManager	EterPackManager;

  0023d	68 00 00 00 00	 push	 OFFSET ?$TSS1@?1??Main@@YA_NPAUHINSTANCE__@@PAD@Z@4HA
  00242	e8 00 00 00 00	 call	 __Init_thread_header
  00247	83 c4 04	 add	 esp, 4
  0024a	83 3d 00 00 00
	00 ff		 cmp	 DWORD PTR ?$TSS1@?1??Main@@YA_NPAUHINSTANCE__@@PAD@Z@4HA, -1
  00251	0f 85 8c fe ff
	ff		 jne	 $LN3@Main
  00257	b9 00 00 00 00	 mov	 ecx, OFFSET ?EterPackManager@?1??Main@@YA_NPAUHINSTANCE__@@PAD@Z@4VCEterPackManager@@A
  0025c	c7 45 fc 01 00
	00 00		 mov	 DWORD PTR __$EHRec$[ebp+8], 1
  00263	e8 00 00 00 00	 call	 ??0CEterPackManager@@QAE@XZ ; CEterPackManager::CEterPackManager
  00268	68 00 00 00 00	 push	 OFFSET ??__FEterPackManager@?1??Main@@YA_NPAUHINSTANCE__@@PAD@Z@YAXXZ ; `Main'::`2'::`dynamic atexit destructor for 'EterPackManager''
  0026d	e8 00 00 00 00	 call	 _atexit
  00272	68 00 00 00 00	 push	 OFFSET ?$TSS1@?1??Main@@YA_NPAUHINSTANCE__@@PAD@Z@4HA
  00277	c7 45 fc ff ff
	ff ff		 mov	 DWORD PTR __$EHRec$[ebp+8], -1
  0027e	e8 00 00 00 00	 call	 __Init_thread_footer
  00283	83 c4 08	 add	 esp, 8
  00286	e9 58 fe ff ff	 jmp	 $LN3@Main
_TEXT	ENDS
;	COMDAT text$x
text$x	SEGMENT
__unwindfunclet$?Main@@YA_NPAUHINSTANCE__@@PAD@Z$2:
  00000	68 70 3e 02 00	 push	 147056			; 00023e70H
  00005	8b 45 bc	 mov	 eax, DWORD PTR $T2[ebp]
  00008	50		 push	 eax
  00009	e8 00 00 00 00	 call	 ??3@YAXPAXI@Z		; operator delete
  0000e	83 c4 08	 add	 esp, 8
  00011	c3		 ret	 0
__unwindfunclet$?Main@@YA_NPAUHINSTANCE__@@PAD@Z$3:
  00012	8d 4d c0	 lea	 ecx, DWORD PTR _pyLauncher$3[ebp]
  00015	e9 00 00 00 00	 jmp	 ??1CPythonLauncher@@UAE@XZ ; CPythonLauncher::~CPythonLauncher
__unwindfunclet$?Main@@YA_NPAUHINSTANCE__@@PAD@Z$4:
  0001a	8d 4d cc	 lea	 ecx, DWORD PTR _pyExceptionSender$4[ebp]
  0001d	e9 00 00 00 00	 jmp	 ??1CPythonExceptionSender@@UAE@XZ ; CPythonExceptionSender::~CPythonExceptionSender
__unwindfunclet$?Main@@YA_NPAUHINSTANCE__@@PAD@Z$0:
  00022	68 00 00 00 00	 push	 OFFSET ?$TSS0@?1??Main@@YA_NPAUHINSTANCE__@@PAD@Z@4HA
  00027	e8 00 00 00 00	 call	 __Init_thread_abort
  0002c	59		 pop	 ecx
  0002d	c3		 ret	 0
__unwindfunclet$?Main@@YA_NPAUHINSTANCE__@@PAD@Z$1:
  0002e	68 00 00 00 00	 push	 OFFSET ?$TSS1@?1??Main@@YA_NPAUHINSTANCE__@@PAD@Z@4HA
  00033	e8 00 00 00 00	 call	 __Init_thread_abort
  00038	59		 pop	 ecx
  00039	c3		 ret	 0
  0003a	cc		 int	 3
  0003b	cc		 int	 3
  0003c	cc		 int	 3
  0003d	cc		 int	 3
  0003e	cc		 int	 3
__ehhandler$?Main@@YA_NPAUHINSTANCE__@@PAD@Z:
  0003f	90		 npad	 1
  00040	90		 npad	 1
  00041	8b 54 24 08	 mov	 edx, DWORD PTR [esp+8]
  00045	8d 42 0c	 lea	 eax, DWORD PTR [edx+12]
  00048	8b 4a b8	 mov	 ecx, DWORD PTR [edx-72]
  0004b	33 c8		 xor	 ecx, eax
  0004d	e8 00 00 00 00	 call	 @__security_check_cookie@4
  00052	8b 4a fc	 mov	 ecx, DWORD PTR [edx-4]
  00055	33 c8		 xor	 ecx, eax
  00057	e8 00 00 00 00	 call	 @__security_check_cookie@4
  0005c	b8 00 00 00 00	 mov	 eax, OFFSET __ehfuncinfo$?Main@@YA_NPAUHINSTANCE__@@PAD@Z
  00061	e9 00 00 00 00	 jmp	 ___CxxFrameHandler3
text$x	ENDS
?Main@@YA_NPAUHINSTANCE__@@PAD@Z ENDP			; Main
; Function compile flags: /Ogtp
;	COMDAT ??__FEterPackManager@?1??Main@@YA_NPAUHINSTANCE__@@PAD@Z@YAXXZ
text$yd	SEGMENT
??__FEterPackManager@?1??Main@@YA_NPAUHINSTANCE__@@PAD@Z@YAXXZ PROC ; `Main'::`2'::`dynamic atexit destructor for 'EterPackManager'', COMDAT
  00000	b9 00 00 00 00	 mov	 ecx, OFFSET ?EterPackManager@?1??Main@@YA_NPAUHINSTANCE__@@PAD@Z@4VCEterPackManager@@A
  00005	e9 00 00 00 00	 jmp	 ??1CEterPackManager@@UAE@XZ ; CEterPackManager::~CEterPackManager
??__FEterPackManager@?1??Main@@YA_NPAUHINSTANCE__@@PAD@Z@YAXXZ ENDP ; `Main'::`2'::`dynamic atexit destructor for 'EterPackManager''
text$yd	ENDS
; Function compile flags: /Ogtp
;	COMDAT ??__Flzo@?1??Main@@YA_NPAUHINSTANCE__@@PAD@Z@YAXXZ
text$yd	SEGMENT
??__Flzo@?1??Main@@YA_NPAUHINSTANCE__@@PAD@Z@YAXXZ PROC	; `Main'::`2'::`dynamic atexit destructor for 'lzo'', COMDAT
  00000	b9 00 00 00 00	 mov	 ecx, OFFSET ?lzo@?1??Main@@YA_NPAUHINSTANCE__@@PAD@Z@4VCLZO@@A
  00005	e9 00 00 00 00	 jmp	 ??1CLZO@@UAE@XZ		; CLZO::~CLZO
??__Flzo@?1??Main@@YA_NPAUHINSTANCE__@@PAD@Z@YAXXZ ENDP	; `Main'::`2'::`dynamic atexit destructor for 'lzo''
text$yd	ENDS
; Function compile flags: /Ogtp
; File E:\Metin2_server\SolWayneSF v6\ClientVS22\source\UserInterface\UserInterface.cpp
;	COMDAT ?__ErrorPythonLibraryIsNotExist@@YAXXZ
_TEXT	SEGMENT
?__ErrorPythonLibraryIsNotExist@@YAXXZ PROC		; __ErrorPythonLibraryIsNotExist, COMDAT

; 469  : 	LogBoxf("FATAL ERROR!! Python Library file not exist!");

  00000	68 00 00 00 00	 push	 OFFSET ??_C@_0CN@OHDPHKKH@FATAL?5ERROR?$CB?$CB?5Python?5Library?5fi@
  00005	e8 00 00 00 00	 call	 ?LogBoxf@@YAXPBDZZ	; LogBoxf
  0000a	59		 pop	 ecx

; 470  : }

  0000b	c3		 ret	 0
?__ErrorPythonLibraryIsNotExist@@YAXXZ ENDP		; __ErrorPythonLibraryIsNotExist
_TEXT	ENDS
; Function compile flags: /Ogtp
; File E:\Metin2_server\SolWayneSF v6\ClientVS22\source\UserInterface\UserInterface.cpp
;	COMDAT ?__IsTimeStampOption@@YA_NPAD@Z
_TEXT	SEGMENT
?__IsTimeStampOption@@YA_NPAD@Z PROC			; __IsTimeStampOption, COMDAT
; _lpCmdLine$ = ecx

; 474  : 	const char* TIMESTAMP = "/timestamp";
; 475  : 	return (strncmp(lpCmdLine, TIMESTAMP, strlen(TIMESTAMP))==0);

  00000	6a 0a		 push	 10			; 0000000aH
  00002	68 00 00 00 00	 push	 OFFSET ??_C@_0L@HBFAHJLE@?1timestamp@
  00007	51		 push	 ecx
  00008	e8 00 00 00 00	 call	 _strncmp
  0000d	83 c4 0c	 add	 esp, 12			; 0000000cH
  00010	85 c0		 test	 eax, eax
  00012	0f 94 c0	 sete	 al

; 476  : }

  00015	c3		 ret	 0
?__IsTimeStampOption@@YA_NPAD@Z ENDP			; __IsTimeStampOption
_TEXT	ENDS
; Function compile flags: /Ogtp
; File E:\Metin2_server\SolWayneSF v6\ClientVS22\source\UserInterface\UserInterface.cpp
;	COMDAT ?__PrintTimeStamp@@YAXXZ
_TEXT	SEGMENT
?__PrintTimeStamp@@YAXXZ PROC				; __PrintTimeStamp, COMDAT

; 480  : #ifdef	_DEBUG
; 481  : 	if (__IS_TEST_SERVER_MODE__)
; 482  : 		LogBoxf("METIN2 BINARY TEST DEBUG VERSION %s  ( MS C++ %d Compiled )", __TIMESTAMP__, _MSC_VER);
; 483  : 	else
; 484  : 		LogBoxf("METIN2 BINARY DEBUG VERSION %s ( MS C++ %d Compiled )", __TIMESTAMP__, _MSC_VER);
; 485  : 	
; 486  : #else
; 487  : 	if (__IS_TEST_SERVER_MODE__)

  00000	80 3d 00 00 00
	00 00		 cmp	 BYTE PTR ?__IS_TEST_SERVER_MODE__@@3_NA, 0 ; __IS_TEST_SERVER_MODE__
  00007	b9 00 00 00 00	 mov	 ecx, OFFSET ??_C@_0DL@IHCMKBOK@METIN2?5BINARY?5DISTRIBUTE?5VERSIO@

; 488  : 		LogBoxf("METIN2 BINARY TEST VERSION %s  ( MS C++ %d Compiled )", __TIMESTAMP__, _MSC_VER);
; 489  : 	else
; 490  : 		LogBoxf("METIN2 BINARY DISTRIBUTE VERSION %s ( MS C++ %d Compiled )", __TIMESTAMP__, _MSC_VER);			
; 491  : #endif			
; 492  : }

  0000c	68 8e 07 00 00	 push	 1934			; 0000078eH
  00011	b8 00 00 00 00	 mov	 eax, OFFSET ??_C@_0DG@JFMPGIL@METIN2?5BINARY?5TEST?5VERSION?5?$CFs?5?5@
  00016	0f 44 c1	 cmove	 eax, ecx
  00019	68 00 00 00 00	 push	 OFFSET ??_C@_0BJ@GLODLEBK@Wed?5Jan?511?520?349?357?52023@
  0001e	50		 push	 eax
  0001f	e8 00 00 00 00	 call	 ?LogBoxf@@YAXPBDZZ	; LogBoxf
  00024	83 c4 0c	 add	 esp, 12			; 0000000cH
  00027	c3		 ret	 0
?__PrintTimeStamp@@YAXXZ ENDP				; __PrintTimeStamp
_TEXT	ENDS
; Function compile flags: /Ogtp
; File E:\Metin2_server\SolWayneSF v6\ClientVS22\source\UserInterface\UserInterface.cpp
;	COMDAT ?__IsLocaleOption@@YA_NPAD@Z
_TEXT	SEGMENT
?__IsLocaleOption@@YA_NPAD@Z PROC			; __IsLocaleOption, COMDAT
; _lpCmdLine$ = ecx

; 496  : 	return (strcmp(lpCmdLine, "--locale") == 0);

  00000	b8 00 00 00 00	 mov	 eax, OFFSET ??_C@_08LJMAFCGB@?9?9locale@
$LL3@IsLocaleOp:
  00005	8a 11		 mov	 dl, BYTE PTR [ecx]
  00007	3a 10		 cmp	 dl, BYTE PTR [eax]
  00009	75 1e		 jne	 SHORT $LN4@IsLocaleOp
  0000b	84 d2		 test	 dl, dl
  0000d	74 12		 je	 SHORT $LN5@IsLocaleOp
  0000f	8a 51 01	 mov	 dl, BYTE PTR [ecx+1]
  00012	3a 50 01	 cmp	 dl, BYTE PTR [eax+1]
  00015	75 12		 jne	 SHORT $LN4@IsLocaleOp
  00017	83 c1 02	 add	 ecx, 2
  0001a	83 c0 02	 add	 eax, 2
  0001d	84 d2		 test	 dl, dl
  0001f	75 e4		 jne	 SHORT $LL3@IsLocaleOp
$LN5@IsLocaleOp:
  00021	33 c0		 xor	 eax, eax
  00023	85 c0		 test	 eax, eax
  00025	0f 94 c0	 sete	 al

; 497  : }

  00028	c3		 ret	 0
$LN4@IsLocaleOp:

; 496  : 	return (strcmp(lpCmdLine, "--locale") == 0);

  00029	1b c0		 sbb	 eax, eax
  0002b	83 c8 01	 or	 eax, 1
  0002e	85 c0		 test	 eax, eax
  00030	0f 94 c0	 sete	 al

; 497  : }

  00033	c3		 ret	 0
?__IsLocaleOption@@YA_NPAD@Z ENDP			; __IsLocaleOption
_TEXT	ENDS
; Function compile flags: /Ogtp
; File E:\Metin2_server\SolWayneSF v6\ClientVS22\source\UserInterface\UserInterface.cpp
;	COMDAT ?__IsLocaleVersion@@YA_NPAD@Z
_TEXT	SEGMENT
?__IsLocaleVersion@@YA_NPAD@Z PROC			; __IsLocaleVersion, COMDAT
; _lpCmdLine$ = ecx

; 501  : 	return (strcmp(lpCmdLine, "--perforce-revision") == 0);

  00000	b8 00 00 00 00	 mov	 eax, OFFSET ??_C@_0BE@FJLABEAB@?9?9perforce?9revision@
$LL3@IsLocaleVe:
  00005	8a 11		 mov	 dl, BYTE PTR [ecx]
  00007	3a 10		 cmp	 dl, BYTE PTR [eax]
  00009	75 1e		 jne	 SHORT $LN4@IsLocaleVe
  0000b	84 d2		 test	 dl, dl
  0000d	74 12		 je	 SHORT $LN5@IsLocaleVe
  0000f	8a 51 01	 mov	 dl, BYTE PTR [ecx+1]
  00012	3a 50 01	 cmp	 dl, BYTE PTR [eax+1]
  00015	75 12		 jne	 SHORT $LN4@IsLocaleVe
  00017	83 c1 02	 add	 ecx, 2
  0001a	83 c0 02	 add	 eax, 2
  0001d	84 d2		 test	 dl, dl
  0001f	75 e4		 jne	 SHORT $LL3@IsLocaleVe
$LN5@IsLocaleVe:
  00021	33 c0		 xor	 eax, eax
  00023	85 c0		 test	 eax, eax
  00025	0f 94 c0	 sete	 al

; 502  : }

  00028	c3		 ret	 0
$LN4@IsLocaleVe:

; 501  : 	return (strcmp(lpCmdLine, "--perforce-revision") == 0);

  00029	1b c0		 sbb	 eax, eax
  0002b	83 c8 01	 or	 eax, 1
  0002e	85 c0		 test	 eax, eax
  00030	0f 94 c0	 sete	 al

; 502  : }

  00033	c3		 ret	 0
?__IsLocaleVersion@@YA_NPAD@Z ENDP			; __IsLocaleVersion
_TEXT	ENDS
; Function compile flags: /Ogtp
; File E:\Metin2_server\SolWayneSF v6\ClientVS22\source\UserInterface\UserInterface.cpp
; File C:\Program Files (x86)\Windows Kits\10\Include\10.0.22000.0\ucrt\string.h
; File E:\Metin2_server\SolWayneSF v6\ClientVS22\source\UserInterface\UserInterface.cpp
; File C:\Program Files (x86)\Windows Kits\10\Include\10.0.22000.0\ucrt\string.h
; File E:\Metin2_server\SolWayneSF v6\ClientVS22\source\UserInterface\UserInterface.cpp
;	COMDAT _WinMain@16
_TEXT	SEGMENT
_hInstance$GSCopy$1$ = -548				; size = 4
_lpCmdLine$GSCopy$1$ = -544				; size = 4
tv314 = -540						; size = 4
_nArgc$ = -536						; size = 4
_szArgv$1$ = -532					; size = 4
_bQuit$1$ = -525					; size = 1
_szVersionPath$1 = -524					; size = 260
_szModuleName$2 = -264					; size = 260
__$ArrayPad$ = -4					; size = 4
_hInstance$ = 8						; size = 4
_hPrevInstance$ = 12					; size = 4
_lpCmdLine$ = 16					; size = 4
_nCmdShow$ = 20						; size = 4
_WinMain@16 PROC					; COMDAT

; 519  : {

  00000	55		 push	 ebp
  00001	8b ec		 mov	 ebp, esp
  00003	81 ec 24 02 00
	00		 sub	 esp, 548		; 00000224H
  00009	a1 00 00 00 00	 mov	 eax, DWORD PTR ___security_cookie
  0000e	33 c5		 xor	 eax, ebp
  00010	89 45 fc	 mov	 DWORD PTR __$ArrayPad$[ebp], eax
  00013	53		 push	 ebx
  00014	8b 5d 10	 mov	 ebx, DWORD PTR _lpCmdLine$[ebp]
  00017	56		 push	 esi
  00018	8b 75 08	 mov	 esi, DWORD PTR _hInstance$[ebp]
; File C:\Program Files (x86)\Windows Kits\10\Include\10.0.22000.0\ucrt\string.h

; 520  :         return const_cast<char*>(strstr(static_cast<char const*>(_String), _SubString));

  0001b	68 00 00 00 00	 push	 OFFSET ??_C@_0N@FPLLJIDE@?9?9hackshield@
  00020	53		 push	 ebx
; File E:\Metin2_server\SolWayneSF v6\ClientVS22\source\UserInterface\UserInterface.cpp

; 519  : {

  00021	89 b5 dc fd ff
	ff		 mov	 DWORD PTR _hInstance$GSCopy$1$[ebp], esi
  00027	89 9d e0 fd ff
	ff		 mov	 DWORD PTR _lpCmdLine$GSCopy$1$[ebp], ebx
; File C:\Program Files (x86)\Windows Kits\10\Include\10.0.22000.0\ucrt\string.h

; 520  :         return const_cast<char*>(strstr(static_cast<char const*>(_String), _SubString));

  0002d	e8 00 00 00 00	 call	 _strstr
  00032	83 c4 08	 add	 esp, 8
; File E:\Metin2_server\SolWayneSF v6\ClientVS22\source\UserInterface\UserInterface.cpp

; 520  : 	if (strstr(lpCmdLine, "--hackshield") != 0)

  00035	85 c0		 test	 eax, eax
  00037	0f 85 65 02 00
	00		 jne	 $LN39@WinMain

; 521  : 		return 0;
; 522  : 
; 523  : #ifdef _DEBUG
; 524  : 	_CrtSetDbgFlag( _CRTDBG_ALLOC_MEM_DF | _CRTDBG_CHECK_CRT_DF | _CRTDBG_LEAK_CHECK_DF );
; 525  : 	//_CrtSetBreakAlloc( 110247 ); 
; 526  : #endif
; 527  : 
; 528  : 	ApplicationStringTable_Initialize(hInstance);

  0003d	57		 push	 edi
  0003e	8b ce		 mov	 ecx, esi
  00040	e8 00 00 00 00	 call	 ?ApplicationStringTable_Initialize@@YAXPAUHINSTANCE__@@@Z ; ApplicationStringTable_Initialize

; 529  : 
; 530  : 	LocaleService_LoadConfig("locale.cfg");

  00045	e8 00 00 00 00	 call	 ?LocaleService_LoadConfig@@YAXPBD@Z ; LocaleService_LoadConfig

; 531  : 	SetDefaultCodePage(LocaleService_GetCodePage());	

  0004a	e8 00 00 00 00	 call	 ?LocaleService_GetCodePage@@YAIXZ ; LocaleService_GetCodePage
  0004f	50		 push	 eax
  00050	e8 00 00 00 00	 call	 ?SetDefaultCodePage@@YA_NK@Z ; SetDefaultCodePage

; 532  : 
; 533  : #ifdef XTRAP_CLIENT_ENABLE
; 534  : 	if (!XTrap_Init())
; 535  : 		return 0;
; 536  : #endif
; 537  : 
; 538  : #ifdef USE_AHNLAB_HACKSHIELD
; 539  : 	if (!HackShield_Init())
; 540  : 		return 0;
; 541  : #endif
; 542  : 
; 543  : #ifdef USE_NPROTECT_GAMEGUARD
; 544  : 	if (!GameGuard_Init())
; 545  : 		return 0;
; 546  : #endif
; 547  : 
; 548  : #if defined(CHECK_LATEST_DATA_FILES)
; 549  : 	if (!CheckLatestFiles())
; 550  : 		return 0;
; 551  : #endif
; 552  : 
; 553  : 	bool bQuit = false;
; 554  : 	bool bAuthKeyChecked = false;	//OpenID      .
; 555  : 	int nArgc = 0;
; 556  : 	PCHAR* szArgv = CommandLineToArgv( lpCmdLine, &nArgc );

  00055	8d 85 e8 fd ff
	ff		 lea	 eax, DWORD PTR _nArgc$[ebp]
  0005b	c6 85 f3 fd ff
	ff 00		 mov	 BYTE PTR _bQuit$1$[ebp], 0
  00062	50		 push	 eax
  00063	53		 push	 ebx
  00064	c7 85 e8 fd ff
	ff 00 00 00 00	 mov	 DWORD PTR _nArgc$[ebp], 0
  0006e	e8 00 00 00 00	 call	 ?CommandLineToArgv@@YAPAPADPADPAH@Z ; CommandLineToArgv

; 557  : 
; 558  : 	for( int i=0; i < nArgc; i++ ) {

  00073	33 ff		 xor	 edi, edi
  00075	83 c4 0c	 add	 esp, 12			; 0000000cH
  00078	8b c8		 mov	 ecx, eax
  0007a	89 8d ec fd ff
	ff		 mov	 DWORD PTR _szArgv$1$[ebp], ecx
  00080	39 bd e8 fd ff
	ff		 cmp	 DWORD PTR _nArgc$[ebp], edi
  00086	0f 8e 8e 01 00
	00		 jle	 $LN31@WinMain

; 521  : 		return 0;
; 522  : 
; 523  : #ifdef _DEBUG
; 524  : 	_CrtSetDbgFlag( _CRTDBG_ALLOC_MEM_DF | _CRTDBG_CHECK_CRT_DF | _CRTDBG_LEAK_CHECK_DF );
; 525  : 	//_CrtSetBreakAlloc( 110247 ); 
; 526  : #endif
; 527  : 
; 528  : 	ApplicationStringTable_Initialize(hInstance);

  0008c	8d 59 08	 lea	 ebx, DWORD PTR [ecx+8]
  0008f	90		 npad	 1
$LL4@WinMain:

; 559  : 		if(szArgv[i] == 0)

  00090	8d 04 bd 00 00
	00 00		 lea	 eax, DWORD PTR [edi*4]
  00097	8b 34 08	 mov	 esi, DWORD PTR [eax+ecx]
  0009a	89 85 e4 fd ff
	ff		 mov	 DWORD PTR tv314[ebp], eax
  000a0	85 f6		 test	 esi, esi
  000a2	0f 84 8b 01 00
	00		 je	 $LN41@WinMain

; 560  : 			continue;
; 561  : 		if (__IsLocaleVersion(szArgv[i])) // #0000829: [M2EU]       

  000a8	8b ce		 mov	 ecx, esi
  000aa	e8 00 00 00 00	 call	 ?__IsLocaleVersion@@YA_NPAD@Z ; __IsLocaleVersion
  000af	84 c0		 test	 al, al
  000b1	74 6d		 je	 SHORT $LN7@WinMain

; 562  : 		{
; 563  : 			char szModuleName[MAX_PATH];
; 564  : 			char szVersionPath[MAX_PATH];
; 565  : 			GetModuleFileName(NULL, szModuleName, sizeof(szModuleName));

  000b3	68 04 01 00 00	 push	 260			; 00000104H
  000b8	8d 85 f8 fe ff
	ff		 lea	 eax, DWORD PTR _szModuleName$2[ebp]
  000be	50		 push	 eax
  000bf	6a 00		 push	 0
  000c1	ff 15 00 00 00
	00		 call	 DWORD PTR __imp__GetModuleFileNameA@12

; 566  : 			sprintf(szVersionPath, "%s.version", szModuleName);

  000c7	8d 85 f8 fe ff
	ff		 lea	 eax, DWORD PTR _szModuleName$2[ebp]
  000cd	50		 push	 eax
  000ce	8d 85 f4 fd ff
	ff		 lea	 eax, DWORD PTR _szVersionPath$1[ebp]
  000d4	68 00 00 00 00	 push	 OFFSET ??_C@_0L@IBAMLFBB@?$CFs?4version@
  000d9	50		 push	 eax
  000da	e8 00 00 00 00	 call	 _sprintf

; 567  : 			FILE* fp = fopen(szVersionPath, "wt");

  000df	8d 85 f4 fd ff
	ff		 lea	 eax, DWORD PTR _szVersionPath$1[ebp]
  000e5	68 00 00 00 00	 push	 OFFSET ??_C@_02BKFDOEMK@wt@
  000ea	50		 push	 eax
  000eb	e8 00 00 00 00	 call	 _fopen
  000f0	8b f0		 mov	 esi, eax
  000f2	83 c4 14	 add	 esp, 20			; 00000014H

; 568  : 			if (fp)

  000f5	85 f6		 test	 esi, esi
  000f7	74 1a		 je	 SHORT $LN9@WinMain

; 569  : 			{
; 570  : 				extern int METIN2_GET_VERSION();
; 571  : 				fprintf(fp, "r%d\n", METIN2_GET_VERSION());

  000f9	e8 00 00 00 00	 call	 ?METIN2_GET_VERSION@@YAHXZ ; METIN2_GET_VERSION
  000fe	50		 push	 eax
  000ff	68 00 00 00 00	 push	 OFFSET ??_C@_04JIBCGPDH@r?$CFd?6@
  00104	56		 push	 esi
  00105	e8 00 00 00 00	 call	 _fprintf

; 572  : 				fclose(fp);

  0010a	56		 push	 esi
  0010b	e8 00 00 00 00	 call	 _fclose
  00110	83 c4 10	 add	 esp, 16			; 00000010H
$LN9@WinMain:

; 573  : 			}
; 574  : 			bQuit = true;

  00113	b0 01		 mov	 al, 1
  00115	88 85 f3 fd ff
	ff		 mov	 BYTE PTR _bQuit$1$[ebp], al
  0011b	e9 d0 00 00 00	 jmp	 $LN43@WinMain
$LN7@WinMain:

; 575  : 		} else if (__IsLocaleOption(szArgv[i]))

  00120	8b ce		 mov	 ecx, esi
  00122	e8 00 00 00 00	 call	 ?__IsLocaleOption@@YA_NPAD@Z ; __IsLocaleOption
  00127	84 c0		 test	 al, al
  00129	74 41		 je	 SHORT $LN10@WinMain

; 576  : 		{
; 577  : 			FILE* fp=fopen("locale.txt", "wt");

  0012b	68 00 00 00 00	 push	 OFFSET ??_C@_02BKFDOEMK@wt@
  00130	68 00 00 00 00	 push	 OFFSET ??_C@_0L@IMHJDJJ@locale?4txt@
  00135	e8 00 00 00 00	 call	 _fopen
  0013a	83 c4 08	 add	 esp, 8
  0013d	8b f0		 mov	 esi, eax

; 578  : 			fprintf(fp, "service[%s] code_page[%d]", 

  0013f	e8 00 00 00 00	 call	 ?LocaleService_GetCodePage@@YAIXZ ; LocaleService_GetCodePage
  00144	50		 push	 eax
  00145	e8 00 00 00 00	 call	 ?LocaleService_GetName@@YAPBDXZ ; LocaleService_GetName
  0014a	50		 push	 eax
  0014b	68 00 00 00 00	 push	 OFFSET ??_C@_0BK@LJMCIPPN@service?$FL?$CFs?$FN?5code_page?$FL?$CFd?$FN@
  00150	56		 push	 esi
  00151	e8 00 00 00 00	 call	 _fprintf

; 579  : 				LocaleService_GetName(), LocaleService_GetCodePage());
; 580  : 			fclose(fp);

  00156	56		 push	 esi
  00157	e8 00 00 00 00	 call	 _fclose

; 581  : 			bQuit = true;

  0015c	b0 01		 mov	 al, 1
  0015e	83 c4 14	 add	 esp, 20			; 00000014H
  00161	88 85 f3 fd ff
	ff		 mov	 BYTE PTR _bQuit$1$[ebp], al
  00167	e9 84 00 00 00	 jmp	 $LN43@WinMain
$LN10@WinMain:

; 582  : 		} else if (__IsTimeStampOption(szArgv[i]))

  0016c	8b ce		 mov	 ecx, esi
  0016e	e8 00 00 00 00	 call	 ?__IsTimeStampOption@@YA_NPAD@Z ; __IsTimeStampOption
  00173	84 c0		 test	 al, al
  00175	74 0f		 je	 SHORT $LN12@WinMain

; 583  : 		{
; 584  : 			__PrintTimeStamp();

  00177	e8 00 00 00 00	 call	 ?__PrintTimeStamp@@YAXXZ ; __PrintTimeStamp

; 585  : 			bQuit = true;

  0017c	b0 01		 mov	 al, 1
  0017e	88 85 f3 fd ff
	ff		 mov	 BYTE PTR _bQuit$1$[ebp], al
  00184	eb 6a		 jmp	 SHORT $LN43@WinMain
$LN12@WinMain:

; 586  : 		} else if ((strcmp(szArgv[i], "--force-set-locale") == 0))

  00186	8b b5 e4 fd ff
	ff		 mov	 esi, DWORD PTR tv314[ebp]
  0018c	b9 00 00 00 00	 mov	 ecx, OFFSET ??_C@_0BD@BMCCGKJE@?9?9force?9set?9locale@
  00191	8b 85 ec fd ff
	ff		 mov	 eax, DWORD PTR _szArgv$1$[ebp]
  00197	8b 04 06	 mov	 eax, DWORD PTR [esi+eax]
  0019a	66 0f 1f 44 00
	00		 npad	 6
$LL34@WinMain:
  001a0	8a 10		 mov	 dl, BYTE PTR [eax]
  001a2	3a 11		 cmp	 dl, BYTE PTR [ecx]
  001a4	75 1a		 jne	 SHORT $LN35@WinMain
  001a6	84 d2		 test	 dl, dl
  001a8	74 12		 je	 SHORT $LN36@WinMain
  001aa	8a 50 01	 mov	 dl, BYTE PTR [eax+1]
  001ad	3a 51 01	 cmp	 dl, BYTE PTR [ecx+1]
  001b0	75 0e		 jne	 SHORT $LN35@WinMain
  001b2	83 c0 02	 add	 eax, 2
  001b5	83 c1 02	 add	 ecx, 2
  001b8	84 d2		 test	 dl, dl
  001ba	75 e4		 jne	 SHORT $LL34@WinMain
$LN36@WinMain:
  001bc	33 c0		 xor	 eax, eax
  001be	eb 05		 jmp	 SHORT $LN37@WinMain
$LN35@WinMain:
  001c0	1b c0		 sbb	 eax, eax
  001c2	83 c8 01	 or	 eax, 1
$LN37@WinMain:
  001c5	85 c0		 test	 eax, eax
  001c7	75 21		 jne	 SHORT $LN42@WinMain

; 587  : 		{
; 588  : 			// locale       ( ,  )
; 589  : 			if (nArgc <= i + 2)

  001c9	8d 47 02	 lea	 eax, DWORD PTR [edi+2]
  001cc	8b f8		 mov	 edi, eax
  001ce	39 85 e8 fd ff
	ff		 cmp	 DWORD PTR _nArgc$[ebp], eax
  001d4	7e 65		 jle	 SHORT $LN27@WinMain

; 592  : 				goto Clean;
; 593  : 			}
; 594  : 
; 595  : 			const char* localeName = szArgv[++i];
; 596  : 			const char* localePath = szArgv[++i];
; 597  : 
; 598  : 			LocaleService_ForceSetLocale(localeName, localePath);

  001d6	8b 85 ec fd ff
	ff		 mov	 eax, DWORD PTR _szArgv$1$[ebp]
  001dc	8b 13		 mov	 edx, DWORD PTR [ebx]
  001de	8b 4c 06 04	 mov	 ecx, DWORD PTR [esi+eax+4]
  001e2	e8 00 00 00 00	 call	 ?LocaleService_ForceSetLocale@@YAXPBD0@Z ; LocaleService_ForceSetLocale
  001e7	83 c3 08	 add	 ebx, 8
$LN42@WinMain:

; 557  : 
; 558  : 	for( int i=0; i < nArgc; i++ ) {

  001ea	8a 85 f3 fd ff
	ff		 mov	 al, BYTE PTR _bQuit$1$[ebp]
$LN43@WinMain:
  001f0	8b 8d ec fd ff
	ff		 mov	 ecx, DWORD PTR _szArgv$1$[ebp]
$LN2@WinMain:
  001f6	47		 inc	 edi
  001f7	83 c3 04	 add	 ebx, 4
  001fa	3b bd e8 fd ff
	ff		 cmp	 edi, DWORD PTR _nArgc$[ebp]
  00200	0f 8c 8a fe ff
	ff		 jl	 $LL4@WinMain

; 599  : 		}
; 600  : #ifdef USE_OPENID
; 601  : 		else if (__IsOpenIDAuthKeyOption(szArgv[i]))	//2012.07.16 OpenID : 
; 602  : 		{
; 603  : 			//        ()
; 604  : 			if (nArgc <= i + 1)
; 605  : 			{
; 606  : 				MessageBox(NULL, "Invalid arguments", ApplicationStringTable_GetStringz(IDS_APP_NAME, "APP_NAME"), MB_ICONSTOP);
; 607  : 				goto Clean;
; 608  : 			}
; 609  : 
; 610  : 			const char* authKey = szArgv[++i];
; 611  : 
; 612  : 			//ongoing (2012.07.16)
; 613  : 			//  
; 614  : 			LocaleService_SetOpenIDAuthKey(authKey);
; 615  : 
; 616  : 			bAuthKeyChecked = true;
; 617  : 		}
; 618  : 		else if (__IsOpenIDTestOption(szArgv[i]))
; 619  : 		{
; 620  : 			openid_test = 1;
; 621  : 
; 622  : 		}
; 623  : #endif /* USE_OPENID */
; 624  : 	}
; 625  : 
; 626  : #ifdef USE_OPENID
; 627  : 	//OpenID
; 628  : 	//OpenID      (   )  .
; 629  : 	
; 630  : 	if (false == bAuthKeyChecked && !openid_test)
; 631  : 	{
; 632  : 		MessageBox(NULL, "Invalid execution", ApplicationStringTable_GetStringz(IDS_APP_NAME, "APP_NAME"), MB_ICONSTOP);
; 633  : 		goto Clean;
; 634  : 	}
; 635  : #endif /* USE_OPENID */
; 636  : 
; 637  : 
; 638  : 	if(bQuit)

  00206	84 c0		 test	 al, al
  00208	0f 85 82 00 00
	00		 jne	 $Clean$46
  0020e	8b 9d e0 fd ff
	ff		 mov	 ebx, DWORD PTR _lpCmdLine$GSCopy$1$[ebp]
  00214	8b b5 dc fd ff
	ff		 mov	 esi, DWORD PTR _hInstance$GSCopy$1$[ebp]
$LN31@WinMain:

; 639  : 		goto Clean;
; 640  : 
; 641  : #if defined(NEEDED_COMMAND_ARGUMENT)
; 642  : 	//     ,  
; 643  : 	if (strstr(lpCmdLine, NEEDED_COMMAND_ARGUMENT) == 0) {
; 644  : 		MessageBox(NULL, ApplicationStringTable_GetStringz(IDS_ERR_MUST_LAUNCH_FROM_PATCHER, "ERR_MUST_LAUNCH_FROM_PATCHER"), ApplicationStringTable_GetStringz(IDS_APP_NAME, "APP_NAME"), MB_ICONSTOP);
; 645  : 			goto Clean;
; 646  : 	}
; 647  : #endif
; 648  : 
; 649  : #if defined(NEEDED_COMMAND_CLIPBOARD)
; 650  : 	{
; 651  : 		CHAR szSecKey[256];
; 652  : 		CPostIt cPostIt( "VOLUME1" );
; 653  : 
; 654  : 		if( cPostIt.Get( "SEC_KEY", szSecKey, sizeof(szSecKey) ) == FALSE ) {
; 655  : 			MessageBox(NULL, ApplicationStringTable_GetStringz(IDS_ERR_MUST_LAUNCH_FROM_PATCHER, "ERR_MUST_LAUNCH_FROM_PATCHER"), ApplicationStringTable_GetStringz(IDS_APP_NAME, "APP_NAME"), MB_ICONSTOP);
; 656  : 			goto Clean;
; 657  : 		}
; 658  : 		if( strstr(szSecKey, NEEDED_COMMAND_CLIPBOARD) == 0 ) {
; 659  : 			MessageBox(NULL, ApplicationStringTable_GetStringz(IDS_ERR_MUST_LAUNCH_FROM_PATCHER, "ERR_MUST_LAUNCH_FROM_PATCHER"), ApplicationStringTable_GetStringz(IDS_APP_NAME, "APP_NAME"), MB_ICONSTOP);
; 660  : 			goto Clean;
; 661  : 		}
; 662  : 		cPostIt.Empty();
; 663  : 	}
; 664  : #endif
; 665  : 
; 666  : 	WebBrowser_Startup(hInstance);

  0021a	56		 push	 esi
  0021b	e8 00 00 00 00	 call	 _WebBrowser_Startup
  00220	83 c4 04	 add	 esp, 4

; 667  : 
; 668  : 	if (!CheckPythonLibraryFilenames())

  00223	e8 00 00 00 00	 call	 ?CheckPythonLibraryFilenames@@YA_NXZ ; CheckPythonLibraryFilenames
  00228	84 c0		 test	 al, al
  0022a	75 28		 jne	 SHORT $LN19@WinMain

; 669  : 	{
; 670  : 		__ErrorPythonLibraryIsNotExist();

  0022c	e8 00 00 00 00	 call	 ?__ErrorPythonLibraryIsNotExist@@YAXXZ ; __ErrorPythonLibraryIsNotExist

; 671  : 		goto Clean;

  00231	eb 5d		 jmp	 SHORT $Clean$46
$LN41@WinMain:

; 559  : 		if(szArgv[i] == 0)

  00233	8a 85 f3 fd ff
	ff		 mov	 al, BYTE PTR _bQuit$1$[ebp]
  00239	eb bb		 jmp	 SHORT $LN2@WinMain
$LN27@WinMain:

; 590  : 			{
; 591  : 				MessageBox(NULL, "Invalid arguments", ApplicationStringTable_GetStringz(IDS_APP_NAME, "APP_NAME"), MB_ICONSTOP);

  0023b	6a 10		 push	 16			; 00000010H
  0023d	ba 00 00 00 00	 mov	 edx, OFFSET ??_C@_08GKBDCAOF@APP_NAME@
  00242	b9 01 00 00 00	 mov	 ecx, 1
  00247	e8 00 00 00 00	 call	 ?ApplicationStringTable_GetStringz@@YAPBDKPBD@Z ; ApplicationStringTable_GetStringz
  0024c	50		 push	 eax
  0024d	68 00 00 00 00	 push	 OFFSET ??_C@_0BC@PALKPJEA@Invalid?5arguments@

; 686  : 
; 687  : Clean:

  00252	eb 34		 jmp	 SHORT $LN44@WinMain
$LN19@WinMain:

; 672  : 	}
; 673  : 
; 674  : 	Main(hInstance, lpCmdLine);

  00254	8b d3		 mov	 edx, ebx
  00256	8b ce		 mov	 ecx, esi
  00258	e8 00 00 00 00	 call	 ?Main@@YA_NPAUHINSTANCE__@@PAD@Z ; Main

; 675  : 
; 676  : #ifdef USE_NPROTECT_GAMEGUARD
; 677  : 	GameGuard_NoticeMessage();
; 678  : #endif
; 679  : 
; 680  : 	WebBrowser_Cleanup();

  0025d	e8 00 00 00 00	 call	 _WebBrowser_Cleanup

; 681  : 
; 682  : 	::CoUninitialize();

  00262	ff 15 00 00 00
	00		 call	 DWORD PTR __imp__CoUninitialize@0

; 683  : 
; 684  : 	if(gs_szErrorString[0])

  00268	80 3d 00 00 00
	00 00		 cmp	 BYTE PTR ?gs_szErrorString@@3PADA, 0
  0026f	74 1f		 je	 SHORT $Clean$46

; 685  : 		MessageBox(NULL, gs_szErrorString, ApplicationStringTable_GetStringz(IDS_APP_NAME, "APP_NAME"), MB_ICONSTOP);

  00271	6a 10		 push	 16			; 00000010H
  00273	ba 00 00 00 00	 mov	 edx, OFFSET ??_C@_08GKBDCAOF@APP_NAME@
  00278	b9 01 00 00 00	 mov	 ecx, 1
  0027d	e8 00 00 00 00	 call	 ?ApplicationStringTable_GetStringz@@YAPBDKPBD@Z ; ApplicationStringTable_GetStringz
  00282	50		 push	 eax
  00283	68 00 00 00 00	 push	 OFFSET ?gs_szErrorString@@3PADA ; gs_szErrorString
$LN44@WinMain:

; 688  : #ifdef USE_AHNLAB_HACKSHIELD
; 689  : 	HackShield_Shutdown();
; 690  : #endif
; 691  : 	SAFE_FREE_GLOBAL(szArgv);

  00288	6a 00		 push	 0
  0028a	ff 15 00 00 00
	00		 call	 DWORD PTR __imp__MessageBoxA@16
$Clean$46:
  00290	8b 85 ec fd ff
	ff		 mov	 eax, DWORD PTR _szArgv$1$[ebp]
  00296	5f		 pop	 edi
  00297	85 c0		 test	 eax, eax
  00299	74 07		 je	 SHORT $LN39@WinMain
  0029b	50		 push	 eax
  0029c	ff 15 00 00 00
	00		 call	 DWORD PTR __imp__GlobalFree@4
$LN39@WinMain:

; 692  : 
; 693  : 	return 0;
; 694  : }

  002a2	8b 4d fc	 mov	 ecx, DWORD PTR __$ArrayPad$[ebp]
  002a5	33 c0		 xor	 eax, eax
  002a7	5e		 pop	 esi
  002a8	33 cd		 xor	 ecx, ebp
  002aa	5b		 pop	 ebx
  002ab	e8 00 00 00 00	 call	 @__security_check_cookie@4
  002b0	8b e5		 mov	 esp, ebp
  002b2	5d		 pop	 ebp
  002b3	c2 10 00	 ret	 16			; 00000010H
_WinMain@16 ENDP
_TEXT	ENDS
; Function compile flags: /Ogtp
; File E:\Metin2_server\SolWayneSF v6\ClientVS22\source\UserInterface\UserInterface.cpp
;	COMDAT ?Setup@@YAHPAD@Z
_TEXT	SEGMENT
_Callback$ = -16					; size = 8
_tc$ = -8						; size = 8
?Setup@@YAHPAD@Z PROC					; Setup, COMDAT
; _lpCmdLine$dead$ = ecx

; 707  : {

  00000	55		 push	 ebp
  00001	8b ec		 mov	 ebp, esp
  00003	83 ec 10	 sub	 esp, 16			; 00000010H

; 708  : 	/* 
; 709  : 	 *	  .
; 710  : 	 */
; 711  : 	TIMECAPS tc; 
; 712  : 	UINT wTimerRes; 
; 713  : 
; 714  : 	if (timeGetDevCaps(&tc, sizeof(TIMECAPS)) != TIMERR_NOERROR) 

  00006	8d 45 f8	 lea	 eax, DWORD PTR _tc$[ebp]
  00009	6a 08		 push	 8
  0000b	50		 push	 eax
  0000c	ff 15 00 00 00
	00		 call	 DWORD PTR __imp__timeGetDevCaps@8
  00012	85 c0		 test	 eax, eax
  00014	74 06		 je	 SHORT $LN2@Setup

; 715  : 		return 0;

  00016	33 c0		 xor	 eax, eax

; 729  : }

  00018	8b e5		 mov	 esp, ebp
  0001a	5d		 pop	 ebp
  0001b	c3		 ret	 0
$LN2@Setup:

; 716  : 
; 717  : 	wTimerRes = MINMAX(tc.wPeriodMin, 1, tc.wPeriodMax); 

  0001c	ff 75 fc	 push	 DWORD PTR _tc$[ebp+4]
  0001f	6a 01		 push	 1
  00021	ff 75 f8	 push	 DWORD PTR _tc$[ebp]
  00024	e8 00 00 00 00	 call	 ?MINMAX@@YAHHHH@Z	; MINMAX
  00029	83 c4 0c	 add	 esp, 12			; 0000000cH

; 718  : 	timeBeginPeriod(wTimerRes); 

  0002c	50		 push	 eax
  0002d	ff 15 00 00 00
	00		 call	 DWORD PTR __imp__timeBeginPeriod@4

; 719  : 
; 720  : 	/*
; 721  : 	 *	  
; 722  : 	 */
; 723  : 
; 724  : 	granny_log_callback Callback;
; 725  :     Callback.Function = nullptr;
; 726  :     Callback.UserData = 0;
; 727  :     GrannySetLogCallback(&Callback);

  00033	8d 45 f0	 lea	 eax, DWORD PTR _Callback$[ebp]
  00036	c7 45 f0 00 00
	00 00		 mov	 DWORD PTR _Callback$[ebp], 0
  0003d	50		 push	 eax
  0003e	c7 45 f4 00 00
	00 00		 mov	 DWORD PTR _Callback$[ebp+4], 0
  00045	ff 15 00 00 00
	00		 call	 DWORD PTR __imp__GrannySetLogCallback@4

; 728  : 	return 1;

  0004b	b8 01 00 00 00	 mov	 eax, 1

; 729  : }

  00050	8b e5		 mov	 esp, ebp
  00052	5d		 pop	 ebp
  00053	c3		 ret	 0
?Setup@@YAHPAD@Z ENDP					; Setup
_TEXT	ENDS
; Function compile flags: /Ogtp
; File C:\Program Files\Microsoft Visual Studio\2022\Community\VC\Tools\MSVC\14.34.31933\include\xstring
;	COMDAT ??Y?$basic_string@DU?$char_traits@D@std@@V?$allocator@D@2@@std@@QAEAAV01@D@Z
_TEXT	SEGMENT
__Ch$ = 8						; size = 1
??Y?$basic_string@DU?$char_traits@D@std@@V?$allocator@D@2@@std@@QAEAAV01@D@Z PROC ; std::basic_string<char,std::char_traits<char>,std::allocator<char> >::operator+=, COMDAT
; _this$ = ecx

; 3386 :     _CONSTEXPR20 basic_string& operator+=(_Elem _Ch) {

  00000	55		 push	 ebp
  00001	8b ec		 mov	 ebp, esp
  00003	56		 push	 esi

; 3387 :         push_back(_Ch);

  00004	ff 75 08	 push	 DWORD PTR __Ch$[ebp]
  00007	8b f1		 mov	 esi, ecx
  00009	e8 00 00 00 00	 call	 ?push_back@?$basic_string@DU?$char_traits@D@std@@V?$allocator@D@2@@std@@QAEXD@Z ; std::basic_string<char,std::char_traits<char>,std::allocator<char> >::push_back

; 3388 :         return *this;

  0000e	8b c6		 mov	 eax, esi
  00010	5e		 pop	 esi

; 3389 :     }

  00011	5d		 pop	 ebp
  00012	c2 04 00	 ret	 4
??Y?$basic_string@DU?$char_traits@D@std@@V?$allocator@D@2@@std@@QAEAAV01@D@Z ENDP ; std::basic_string<char,std::char_traits<char>,std::allocator<char> >::operator+=
_TEXT	ENDS
; Function compile flags: /Ogtp
; File C:\Program Files\Microsoft Visual Studio\2022\Community\VC\Tools\MSVC\14.34.31933\include\xstring
; File C:\Program Files\Microsoft Visual Studio\2022\Community\VC\Tools\MSVC\14.34.31933\include\xmemory
; File C:\Program Files\Microsoft Visual Studio\2022\Community\VC\Tools\MSVC\14.34.31933\include\xstring
; File C:\Program Files\Microsoft Visual Studio\2022\Community\VC\Tools\MSVC\14.34.31933\include\xmemory
; File C:\Program Files\Microsoft Visual Studio\2022\Community\VC\Tools\MSVC\14.34.31933\include\xstring
; File C:\Program Files\Microsoft Visual Studio\2022\Community\VC\Tools\MSVC\14.34.31933\include\utility
; File C:\Program Files\Microsoft Visual Studio\2022\Community\VC\Tools\MSVC\14.34.31933\include\xstring
; File C:\Program Files\Microsoft Visual Studio\2022\Community\VC\Tools\MSVC\14.34.31933\include\xmemory
; File C:\Program Files\Microsoft Visual Studio\2022\Community\VC\Tools\MSVC\14.34.31933\include\xstring
; File C:\Program Files\Microsoft Visual Studio\2022\Community\VC\Tools\MSVC\14.34.31933\include\xmemory
; File C:\Program Files\Microsoft Visual Studio\2022\Community\VC\Tools\MSVC\14.34.31933\include\xstring
; File C:\Program Files\Microsoft Visual Studio\2022\Community\VC\Tools\MSVC\14.34.31933\include\xmemory
; File C:\Program Files\Microsoft Visual Studio\2022\Community\VC\Tools\MSVC\14.34.31933\include\xstring
; File C:\Program Files\Microsoft Visual Studio\2022\Community\VC\Tools\MSVC\14.34.31933\include\xmemory
; File C:\Program Files\Microsoft Visual Studio\2022\Community\VC\Tools\MSVC\14.34.31933\include\xstring
;	COMDAT ?push_back@?$basic_string@DU?$char_traits@D@std@@V?$allocator@D@2@@std@@QAEXD@Z
_TEXT	SEGMENT
tv586 = -12						; size = 4
$T1 = -8						; size = 4
$T2 = -4						; size = 4
__Ch$ = 8						; size = 1
?push_back@?$basic_string@DU?$char_traits@D@std@@V?$allocator@D@2@@std@@QAEXD@Z PROC ; std::basic_string<char,std::char_traits<char>,std::allocator<char> >::push_back, COMDAT
; _this$ = ecx

; 4194 :     _CONSTEXPR20 void push_back(const _Elem _Ch) { // insert element at end

  00000	55		 push	 ebp
  00001	8b ec		 mov	 ebp, esp
  00003	83 ec 0c	 sub	 esp, 12			; 0000000cH
  00006	53		 push	 ebx
  00007	56		 push	 esi
  00008	8b f1		 mov	 esi, ecx

; 4195 :         const size_type _Old_size = _Mypair._Myval2._Mysize;
; 4196 :         if (_Old_size < _Mypair._Myval2._Myres) {

  0000a	8b 4e 14	 mov	 ecx, DWORD PTR [esi+20]
  0000d	8b 5e 10	 mov	 ebx, DWORD PTR [esi+16]
  00010	89 4d f8	 mov	 DWORD PTR $T1[ebp], ecx
  00013	3b d9		 cmp	 ebx, ecx
  00015	73 20		 jae	 SHORT $LN2@push_back

; 4197 :             _ASAN_STRING_MODIFY(1);
; 4198 :             _Mypair._Myval2._Mysize = _Old_size + 1;

  00017	8d 43 01	 lea	 eax, DWORD PTR [ebx+1]
  0001a	89 46 10	 mov	 DWORD PTR [esi+16], eax

; 2301 :         return _BUF_SIZE <= _Myres;

  0001d	83 f9 10	 cmp	 ecx, 16			; 00000010H

; 2284 :         if (_Large_string_engaged()) {

  00020	72 02		 jb	 SHORT $LN5@push_back

; 2285 :             _Result = _Unfancy(_Bx._Ptr);

  00022	8b 36		 mov	 esi, DWORD PTR [esi]
$LN5@push_back:

; 4199 :             _Elem* const _Ptr       = _Mypair._Myval2._Myptr();
; 4200 :             _Traits::assign(_Ptr[_Old_size], _Ch);

  00024	8a 45 08	 mov	 al, BYTE PTR __Ch$[ebp]
  00027	88 04 1e	 mov	 BYTE PTR [esi+ebx], al

; 4201 :             _Traits::assign(_Ptr[_Old_size + 1], _Elem());

  0002a	c6 44 1e 01 00	 mov	 BYTE PTR [esi+ebx+1], 0
  0002f	5e		 pop	 esi

; 4213 :     }

  00030	5b		 pop	 ebx
  00031	8b e5		 mov	 esp, ebp
  00033	5d		 pop	 ebp
  00034	c2 04 00	 ret	 4
$LN2@push_back:

; 4936 :         if (max_size() - _Old_size < _Size_increase) {

  00037	ba ff ff ff 7f	 mov	 edx, 2147483647		; 7fffffffH
  0003c	8b c2		 mov	 eax, edx
  0003e	2b c3		 sub	 eax, ebx
  00040	83 f8 01	 cmp	 eax, 1
  00043	0f 82 fc 00 00
	00		 jb	 $LN110@push_back
  00049	57		 push	 edi

; 4938 :         }
; 4939 : 
; 4940 :         const size_type _New_size     = _Old_size + _Size_increase;

  0004a	8d 7b 01	 lea	 edi, DWORD PTR [ebx+1]

; 4880 :         const size_type _Masked = _Requested | _ALLOC_MASK;

  0004d	83 cf 0f	 or	 edi, 15			; 0000000fH
  00050	3b fa		 cmp	 edi, edx

; 4881 :         if (_Masked > _Max) { // the mask overflows, settle for max_size()

  00052	76 15		 jbe	 SHORT $LN18@push_back

; 4882 :             return _Max;

  00054	b8 00 00 00 80	 mov	 eax, -2147483648	; 80000000H
  00059	8b fa		 mov	 edi, edx
; File C:\Program Files\Microsoft Visual Studio\2022\Community\VC\Tools\MSVC\14.34.31933\include\xmemory

; 229  :             return _Allocate_manually_vector_aligned<_Traits>(_Bytes);

  0005b	50		 push	 eax
  0005c	e8 00 00 00 00	 call	 ??$_Allocate_manually_vector_aligned@U_Default_allocate_traits@std@@@std@@YAPAXI@Z ; std::_Allocate_manually_vector_aligned<std::_Default_allocate_traits>
  00061	8b 4d f8	 mov	 ecx, DWORD PTR $T1[ebp]
  00064	83 c4 04	 add	 esp, 4
  00067	eb 55		 jmp	 SHORT $LN107@push_back
$LN18@push_back:
; File C:\Program Files\Microsoft Visual Studio\2022\Community\VC\Tools\MSVC\14.34.31933\include\xstring

; 4885 :         if (_Old > _Max - _Old / 2) { // similarly, geometric overflows

  00069	8b c1		 mov	 eax, ecx
  0006b	d1 e8		 shr	 eax, 1
  0006d	2b d0		 sub	 edx, eax
  0006f	3b ca		 cmp	 ecx, edx
  00071	76 18		 jbe	 SHORT $LN19@push_back

; 4886 :             return _Max;

  00073	b8 00 00 00 80	 mov	 eax, -2147483648	; 80000000H
  00078	bf ff ff ff 7f	 mov	 edi, 2147483647		; 7fffffffH
; File C:\Program Files\Microsoft Visual Studio\2022\Community\VC\Tools\MSVC\14.34.31933\include\xmemory

; 229  :             return _Allocate_manually_vector_aligned<_Traits>(_Bytes);

  0007d	50		 push	 eax
  0007e	e8 00 00 00 00	 call	 ??$_Allocate_manually_vector_aligned@U_Default_allocate_traits@std@@@std@@YAPAXI@Z ; std::_Allocate_manually_vector_aligned<std::_Default_allocate_traits>
  00083	8b 4d f8	 mov	 ecx, DWORD PTR $T1[ebp]
  00086	83 c4 04	 add	 esp, 4
  00089	eb 33		 jmp	 SHORT $LN107@push_back
$LN19@push_back:
; File C:\Program Files\Microsoft Visual Studio\2022\Community\VC\Tools\MSVC\14.34.31933\include\xstring

; 4889 :         return (_STD max)(_Masked, _Old + _Old / 2);

  0008b	03 c1		 add	 eax, ecx
; File C:\Program Files\Microsoft Visual Studio\2022\Community\VC\Tools\MSVC\14.34.31933\include\utility

; 43   :     return _Left < _Right ? _Right : _Left;

  0008d	3b f8		 cmp	 edi, eax
  0008f	0f 42 f8	 cmovb	 edi, eax
; File C:\Program Files\Microsoft Visual Studio\2022\Community\VC\Tools\MSVC\14.34.31933\include\xstring

; 4944 :         const pointer _New_ptr        = _Al.allocate(_New_capacity + 1); // throws

  00092	8d 47 01	 lea	 eax, DWORD PTR [edi+1]
; File C:\Program Files\Microsoft Visual Studio\2022\Community\VC\Tools\MSVC\14.34.31933\include\xmemory

; 228  :         if (_Bytes >= _Big_allocation_threshold) { // boost the alignment of big allocations to help autovectorization

  00095	3d 00 10 00 00	 cmp	 eax, 4096		; 00001000H
  0009a	72 0e		 jb	 SHORT $LN27@push_back

; 229  :             return _Allocate_manually_vector_aligned<_Traits>(_Bytes);

  0009c	50		 push	 eax
  0009d	e8 00 00 00 00	 call	 ??$_Allocate_manually_vector_aligned@U_Default_allocate_traits@std@@@std@@YAPAXI@Z ; std::_Allocate_manually_vector_aligned<std::_Default_allocate_traits>
  000a2	8b 4d f8	 mov	 ecx, DWORD PTR $T1[ebp]
  000a5	83 c4 04	 add	 esp, 4
  000a8	eb 14		 jmp	 SHORT $LN107@push_back
$LN27@push_back:

; 230  :         }
; 231  :     }
; 232  : #endif // defined(_M_IX86) || defined(_M_X64)
; 233  : 
; 234  :     if (_Bytes != 0) {

  000aa	85 c0		 test	 eax, eax
  000ac	74 0e		 je	 SHORT $LN28@push_back

; 77   :         return ::operator new(_Bytes);

  000ae	50		 push	 eax
  000af	e8 00 00 00 00	 call	 ??2@YAPAXI@Z		; operator new

; 235  :         return _Traits::_Allocate(_Bytes);

  000b4	8b 4d f8	 mov	 ecx, DWORD PTR $T1[ebp]

; 77   :         return ::operator new(_Bytes);

  000b7	83 c4 04	 add	 esp, 4

; 235  :         return _Traits::_Allocate(_Bytes);

  000ba	eb 02		 jmp	 SHORT $LN107@push_back
$LN28@push_back:

; 236  :     }
; 237  : 
; 238  :     return nullptr;

  000bc	33 c0		 xor	 eax, eax
$LN107@push_back:
; File C:\Program Files\Microsoft Visual Studio\2022\Community\VC\Tools\MSVC\14.34.31933\include\xstring

; 4954 :         _My_data._Myres       = _New_capacity;

  000be	89 7e 14	 mov	 DWORD PTR [esi+20], edi
  000c1	8d 53 01	 lea	 edx, DWORD PTR [ebx+1]
  000c4	89 45 fc	 mov	 DWORD PTR $T2[ebp], eax
  000c7	8d 3c 03	 lea	 edi, DWORD PTR [ebx+eax]
  000ca	89 56 10	 mov	 DWORD PTR [esi+16], edx
  000cd	89 7d f4	 mov	 DWORD PTR tv586[ebp], edi

; 4955 :         _Elem* const _Raw_new = _Unfancy(_New_ptr);
; 4956 :         if (_BUF_SIZE <= _Old_capacity) {

  000d0	53		 push	 ebx
  000d1	83 f9 10	 cmp	 ecx, 16			; 00000010H
  000d4	72 4e		 jb	 SHORT $LN12@push_back

; 4957 :             const pointer _Old_ptr = _My_data._Bx._Ptr;

  000d6	8b 3e		 mov	 edi, DWORD PTR [esi]

; 64   :         _CSTD memcpy(_First1, _First2, _Count * sizeof(_Elem));

  000d8	57		 push	 edi
  000d9	50		 push	 eax
  000da	e8 00 00 00 00	 call	 _memcpy

; 4209 :                 _Traits::assign(_New_ptr[_Old_size], _Ch);

  000df	8b 4d f4	 mov	 ecx, DWORD PTR tv586[ebp]

; 64   :         _CSTD memcpy(_First1, _First2, _Count * sizeof(_Elem));

  000e2	83 c4 0c	 add	 esp, 12			; 0000000cH

; 4209 :                 _Traits::assign(_New_ptr[_Old_size], _Ch);

  000e5	8a 45 08	 mov	 al, BYTE PTR __Ch$[ebp]
  000e8	88 01		 mov	 BYTE PTR [ecx], al

; 4210 :                 _Traits::assign(_New_ptr[_Old_size + 1], _Elem());

  000ea	c6 41 01 00	 mov	 BYTE PTR [ecx+1], 0

; 4959 :             _Al.deallocate(_Old_ptr, _Old_capacity + 1);

  000ee	8b 4d f8	 mov	 ecx, DWORD PTR $T1[ebp]
  000f1	41		 inc	 ecx
; File C:\Program Files\Microsoft Visual Studio\2022\Community\VC\Tools\MSVC\14.34.31933\include\xmemory

; 251  :         if (_Bytes >= _Big_allocation_threshold) { // boost the alignment of big allocations to help autovectorization

  000f2	81 f9 00 10 00
	00		 cmp	 ecx, 4096		; 00001000H
  000f8	72 12		 jb	 SHORT $LN71@push_back

; 150  :     const uintptr_t _Ptr_container   = _Ptr_user[-1];

  000fa	8b 57 fc	 mov	 edx, DWORD PTR [edi-4]
  000fd	83 c1 23	 add	 ecx, 35			; 00000023H

; 151  : 
; 152  :     // If the following asserts, it likely means that we are performing
; 153  :     // an aligned delete on memory coming from an unaligned allocation.
; 154  :     _STL_ASSERT(_Ptr_user[-2] == _Big_allocation_sentinel, "invalid argument");
; 155  : 
; 156  :     // Extra paranoia on aligned allocation/deallocation; ensure _Ptr_container is
; 157  :     // in range [_Min_back_shift, _Non_user_size]
; 158  : #ifdef _DEBUG
; 159  :     constexpr uintptr_t _Min_back_shift = 2 * sizeof(void*);
; 160  : #else // ^^^ _DEBUG ^^^ // vvv !_DEBUG vvv
; 161  :     constexpr uintptr_t _Min_back_shift = sizeof(void*);
; 162  : #endif // _DEBUG
; 163  :     const uintptr_t _Back_shift = reinterpret_cast<uintptr_t>(_Ptr) - _Ptr_container;

  00100	2b fa		 sub	 edi, edx

; 164  :     _STL_VERIFY(_Back_shift >= _Min_back_shift && _Back_shift <= _Non_user_size, "invalid argument");

  00102	8d 47 fc	 lea	 eax, DWORD PTR [edi-4]
  00105	83 f8 1f	 cmp	 eax, 31			; 0000001fH
  00108	77 40		 ja	 SHORT $LN68@push_back

; 165  :     _Ptr = reinterpret_cast<void*>(_Ptr_container);

  0010a	8b fa		 mov	 edi, edx
$LN71@push_back:

; 255  :         ::operator delete(_Ptr, _Bytes);

  0010c	51		 push	 ecx
  0010d	57		 push	 edi
  0010e	e8 00 00 00 00	 call	 ??3@YAXPAXI@Z		; operator delete
; File C:\Program Files\Microsoft Visual Studio\2022\Community\VC\Tools\MSVC\14.34.31933\include\xstring

; 4963 :             _Construct_in_place(_My_data._Bx._Ptr, _New_ptr);

  00113	8b 45 fc	 mov	 eax, DWORD PTR $T2[ebp]
; File C:\Program Files\Microsoft Visual Studio\2022\Community\VC\Tools\MSVC\14.34.31933\include\xmemory

; 255  :         ::operator delete(_Ptr, _Bytes);

  00116	83 c4 08	 add	 esp, 8
; File C:\Program Files\Microsoft Visual Studio\2022\Community\VC\Tools\MSVC\14.34.31933\include\xstring

; 4963 :             _Construct_in_place(_My_data._Bx._Ptr, _New_ptr);

  00119	89 06		 mov	 DWORD PTR [esi], eax
  0011b	5f		 pop	 edi
  0011c	5e		 pop	 esi

; 4213 :     }

  0011d	5b		 pop	 ebx
  0011e	8b e5		 mov	 esp, ebp
  00120	5d		 pop	 ebp
  00121	c2 04 00	 ret	 4
$LN12@push_back:

; 64   :         _CSTD memcpy(_First1, _First2, _Count * sizeof(_Elem));

  00124	56		 push	 esi
  00125	50		 push	 eax
  00126	e8 00 00 00 00	 call	 _memcpy

; 4209 :                 _Traits::assign(_New_ptr[_Old_size], _Ch);

  0012b	8a 45 08	 mov	 al, BYTE PTR __Ch$[ebp]

; 64   :         _CSTD memcpy(_First1, _First2, _Count * sizeof(_Elem));

  0012e	83 c4 0c	 add	 esp, 12			; 0000000cH

; 4209 :                 _Traits::assign(_New_ptr[_Old_size], _Ch);

  00131	88 07		 mov	 BYTE PTR [edi], al

; 4963 :             _Construct_in_place(_My_data._Bx._Ptr, _New_ptr);

  00133	8b 45 fc	 mov	 eax, DWORD PTR $T2[ebp]

; 4210 :                 _Traits::assign(_New_ptr[_Old_size + 1], _Elem());

  00136	c6 47 01 00	 mov	 BYTE PTR [edi+1], 0
  0013a	5f		 pop	 edi

; 4963 :             _Construct_in_place(_My_data._Bx._Ptr, _New_ptr);

  0013b	89 06		 mov	 DWORD PTR [esi], eax
  0013d	5e		 pop	 esi

; 4213 :     }

  0013e	5b		 pop	 ebx
  0013f	8b e5		 mov	 esp, ebp
  00141	5d		 pop	 ebp
  00142	c2 04 00	 ret	 4
$LN110@push_back:

; 4937 :             _Xlen_string(); // result too long

  00145	e8 00 00 00 00	 call	 ?_Xlen_string@std@@YAXXZ ; std::_Xlen_string
$LN68@push_back:
; File C:\Program Files\Microsoft Visual Studio\2022\Community\VC\Tools\MSVC\14.34.31933\include\xmemory

; 164  :     _STL_VERIFY(_Back_shift >= _Min_back_shift && _Back_shift <= _Non_user_size, "invalid argument");

  0014a	e8 00 00 00 00	 call	 __invalid_parameter_noinfo_noreturn
$LN106@push_back:
  0014f	cc		 int	 3
?push_back@?$basic_string@DU?$char_traits@D@std@@V?$allocator@D@2@@std@@QAEXD@Z ENDP ; std::basic_string<char,std::char_traits<char>,std::allocator<char> >::push_back
_TEXT	ENDS
; Function compile flags: /Ogtp
; File C:\Program Files\Microsoft Visual Studio\2022\Community\VC\Tools\MSVC\14.34.31933\include\xstring
;	COMDAT ??R<lambda_1>@?1??push_back@?$basic_string@DU?$char_traits@D@std@@V?$allocator@D@2@@std@@QAEXD@Z@QBE@QADQBDID@Z
_TEXT	SEGMENT
__New_ptr$ = 8						; size = 4
__Old_ptr$ = 12						; size = 4
__Old_size$ = 16					; size = 4
__Ch$ = 20						; size = 1
??R<lambda_1>@?1??push_back@?$basic_string@DU?$char_traits@D@std@@V?$allocator@D@2@@std@@QAEXD@Z@QBE@QADQBDID@Z PROC ; `std::basic_string<char,std::char_traits<char>,std::allocator<char> >::push_back'::`2'::<lambda_1>::operator(), COMDAT
; _this$ = ecx

; 4207 :             [](_Elem* const _New_ptr, const _Elem* const _Old_ptr, const size_type _Old_size, const _Elem _Ch) {

  00000	55		 push	 ebp
  00001	8b ec		 mov	 ebp, esp
  00003	56		 push	 esi

; 64   :         _CSTD memcpy(_First1, _First2, _Count * sizeof(_Elem));

  00004	8b 75 08	 mov	 esi, DWORD PTR __New_ptr$[ebp]

; 4207 :             [](_Elem* const _New_ptr, const _Elem* const _Old_ptr, const size_type _Old_size, const _Elem _Ch) {

  00007	57		 push	 edi

; 64   :         _CSTD memcpy(_First1, _First2, _Count * sizeof(_Elem));

  00008	8b 7d 10	 mov	 edi, DWORD PTR __Old_size$[ebp]
  0000b	57		 push	 edi
  0000c	ff 75 0c	 push	 DWORD PTR __Old_ptr$[ebp]
  0000f	56		 push	 esi
  00010	e8 00 00 00 00	 call	 _memcpy

; 4208 :                 _Traits::copy(_New_ptr, _Old_ptr, _Old_size);
; 4209 :                 _Traits::assign(_New_ptr[_Old_size], _Ch);

  00015	8a 45 14	 mov	 al, BYTE PTR __Ch$[ebp]

; 64   :         _CSTD memcpy(_First1, _First2, _Count * sizeof(_Elem));

  00018	83 c4 0c	 add	 esp, 12			; 0000000cH

; 4208 :                 _Traits::copy(_New_ptr, _Old_ptr, _Old_size);
; 4209 :                 _Traits::assign(_New_ptr[_Old_size], _Ch);

  0001b	88 04 3e	 mov	 BYTE PTR [esi+edi], al

; 4210 :                 _Traits::assign(_New_ptr[_Old_size + 1], _Elem());

  0001e	c6 44 3e 01 00	 mov	 BYTE PTR [esi+edi+1], 0
  00023	5f		 pop	 edi
  00024	5e		 pop	 esi

; 4211 :             },

  00025	5d		 pop	 ebp
  00026	c2 10 00	 ret	 16			; 00000010H
??R<lambda_1>@?1??push_back@?$basic_string@DU?$char_traits@D@std@@V?$allocator@D@2@@std@@QAEXD@Z@QBE@QADQBDID@Z ENDP ; `std::basic_string<char,std::char_traits<char>,std::allocator<char> >::push_back'::`2'::<lambda_1>::operator()
_TEXT	ENDS
; Function compile flags: /Ogtp
; File C:\Program Files\Microsoft Visual Studio\2022\Community\VC\Tools\MSVC\14.34.31933\include\xstring
;	COMDAT ??$?HDU?$char_traits@D@std@@V?$allocator@D@1@@std@@YA?AV?$basic_string@DU?$char_traits@D@std@@V?$allocator@D@2@@0@ABV10@$$QAV10@@Z
_TEXT	SEGMENT
___$ReturnUdt$ = -4					; size = 4
__Right$ = 8						; size = 4
??$?HDU?$char_traits@D@std@@V?$allocator@D@1@@std@@YA?AV?$basic_string@DU?$char_traits@D@std@@V?$allocator@D@2@@0@ABV10@$$QAV10@@Z PROC ; std::operator+<char,std::char_traits<char>,std::allocator<char> >, COMDAT
; ___$ReturnUdt$ = ecx
; __Left$ = edx

; 5135 :     const basic_string<_Elem, _Traits, _Alloc>& _Left, basic_string<_Elem, _Traits, _Alloc>&& _Right) {

  00000	55		 push	 ebp
  00001	8b ec		 mov	 ebp, esp
  00003	83 ec 08	 sub	 esp, 8

; 2301 :         return _BUF_SIZE <= _Myres;

  00006	83 7a 14 10	 cmp	 DWORD PTR [edx+20], 16	; 00000010H

; 3609 :         return insert(_Off, _Right._Mypair._Myval2._Myptr(), _Right._Mypair._Myval2._Mysize);

  0000a	8b 42 10	 mov	 eax, DWORD PTR [edx+16]

; 5135 :     const basic_string<_Elem, _Traits, _Alloc>& _Left, basic_string<_Elem, _Traits, _Alloc>&& _Right) {

  0000d	56		 push	 esi
  0000e	8b f1		 mov	 esi, ecx
  00010	89 75 fc	 mov	 DWORD PTR ___$ReturnUdt$[ebp], esi

; 2293 :         if (_Large_string_engaged()) {

  00013	72 02		 jb	 SHORT $LN8@operator

; 2294 :             _Result = _Unfancy(_Bx._Ptr);

  00015	8b 12		 mov	 edx, DWORD PTR [edx]
$LN8@operator:

; 3609 :         return insert(_Off, _Right._Mypair._Myval2._Myptr(), _Right._Mypair._Myval2._Mysize);

  00017	8b 4d 08	 mov	 ecx, DWORD PTR __Right$[ebp]
  0001a	50		 push	 eax
  0001b	52		 push	 edx
  0001c	6a 00		 push	 0
  0001e	e8 00 00 00 00	 call	 ?insert@?$basic_string@DU?$char_traits@D@std@@V?$allocator@D@2@@std@@QAEAAV12@IQBDI@Z ; std::basic_string<char,std::char_traits<char>,std::allocator<char> >::insert
  00023	0f 57 c0	 xorps	 xmm0, xmm0

; 2339 :         _CONSTEXPR20 _Bxty() noexcept : _Buf() {} // user-provided, for fancy pointers

  00026	0f 11 06	 movups	 XMMWORD PTR [esi], xmm0

; 2348 :     size_type _Mysize = 0; // current length of string

  00029	c7 46 10 00 00
	00 00		 mov	 DWORD PTR [esi+16], 0

; 2349 :     size_type _Myres  = 0; // current storage reserved for string

  00030	c7 46 14 00 00
	00 00		 mov	 DWORD PTR [esi+20], 0

; 3137 :         _CSTD memcpy(_My_data_mem, _Right_data_mem, _Memcpy_val_size);

  00037	0f 10 00	 movups	 xmm0, XMMWORD PTR [eax]
  0003a	0f 11 06	 movups	 XMMWORD PTR [esi], xmm0
  0003d	f3 0f 7e 40 10	 movq	 xmm0, QWORD PTR [eax+16]
  00042	66 0f d6 46 10	 movq	 QWORD PTR [esi+16], xmm0

; 5136 :     return _STD move(_Right.insert(0, _Left));

  00047	c7 40 10 00 00
	00 00		 mov	 DWORD PTR [eax+16], 0
  0004e	c7 40 14 0f 00
	00 00		 mov	 DWORD PTR [eax+20], 15	; 0000000fH
  00055	c6 00 00	 mov	 BYTE PTR [eax], 0
  00058	8b c6		 mov	 eax, esi
  0005a	5e		 pop	 esi

; 5137 : }

  0005b	8b e5		 mov	 esp, ebp
  0005d	5d		 pop	 ebp
  0005e	c3		 ret	 0
??$?HDU?$char_traits@D@std@@V?$allocator@D@1@@std@@YA?AV?$basic_string@DU?$char_traits@D@std@@V?$allocator@D@2@@0@ABV10@$$QAV10@@Z ENDP ; std::operator+<char,std::char_traits<char>,std::allocator<char> >
_TEXT	ENDS
; Function compile flags: /Ogtp
; File E:\Metin2_server\SolWayneSF v6\ClientVS22\source\eterBase\Utils.h
; File C:\Program Files\Microsoft Visual Studio\2022\Community\VC\Tools\MSVC\14.34.31933\include\vector
; File E:\Metin2_server\SolWayneSF v6\ClientVS22\source\eterBase\Utils.h
; File C:\Program Files\Microsoft Visual Studio\2022\Community\VC\Tools\MSVC\14.34.31933\include\vector
; File E:\Metin2_server\SolWayneSF v6\ClientVS22\source\eterBase\Utils.h
; File C:\Program Files\Microsoft Visual Studio\2022\Community\VC\Tools\MSVC\14.34.31933\include\vector
; File E:\Metin2_server\SolWayneSF v6\ClientVS22\source\eterBase\Utils.h
; File C:\Program Files\Microsoft Visual Studio\2022\Community\VC\Tools\MSVC\14.34.31933\include\vector
; File E:\Metin2_server\SolWayneSF v6\ClientVS22\source\eterBase\Utils.h
; File C:\Program Files\Microsoft Visual Studio\2022\Community\VC\Tools\MSVC\14.34.31933\include\xstring
; File E:\Metin2_server\SolWayneSF v6\ClientVS22\source\eterBase\Utils.h
; File C:\Program Files\Microsoft Visual Studio\2022\Community\VC\Tools\MSVC\14.34.31933\include\vector
; File E:\Metin2_server\SolWayneSF v6\ClientVS22\source\eterBase\Utils.h
; File C:\Program Files\Microsoft Visual Studio\2022\Community\VC\Tools\MSVC\14.34.31933\include\vector
; File C:\Program Files\Microsoft Visual Studio\2022\Community\VC\Tools\MSVC\14.34.31933\include\xstring
; File C:\Program Files\Microsoft Visual Studio\2022\Community\VC\Tools\MSVC\14.34.31933\include\vector
; File E:\Metin2_server\SolWayneSF v6\ClientVS22\source\eterBase\Utils.h
; File C:\Program Files\Microsoft Visual Studio\2022\Community\VC\Tools\MSVC\14.34.31933\include\xstring
; File C:\Program Files\Microsoft Visual Studio\2022\Community\VC\Tools\MSVC\14.34.31933\include\xmemory
; File C:\Program Files\Microsoft Visual Studio\2022\Community\VC\Tools\MSVC\14.34.31933\include\xstring
; File C:\Program Files\Microsoft Visual Studio\2022\Community\VC\Tools\MSVC\14.34.31933\include\xmemory
; File E:\Metin2_server\SolWayneSF v6\ClientVS22\source\eterBase\Utils.h
; File C:\Program Files\Microsoft Visual Studio\2022\Community\VC\Tools\MSVC\14.34.31933\include\xmemory
; File E:\Metin2_server\SolWayneSF v6\ClientVS22\source\eterBase\Utils.h
;	COMDAT ??$string_join@V?$vector@V?$basic_string@DU?$char_traits@D@std@@V?$allocator@D@2@@std@@V?$allocator@V?$basic_string@DU?$char_traits@D@std@@V?$allocator@D@2@@std@@@2@@std@@@@YAXABV?$basic_string@DU?$char_traits@D@std@@V?$allocator@D@2@@std@@ABV?$vector@V?$basic_string@DU?$char_traits@D@std@@V?$allocator@D@2@@std@@V?$allocator@V?$basic_string@DU?$char_traits@D@std@@V?$allocator@D@2@@std@@@2@@1@PAV01@@Z
_TEXT	SEGMENT
_sep$GSCopy$1$ = -60					; size = 4
_ret$GSCopy$1$ = -56					; size = 4
$T2 = -56						; size = 1
$T3 = -56						; size = 1
__Result$2$ = -52					; size = 4
__Result$2$ = -52					; size = 4
$T4 = -48						; size = 4
$T5 = -48						; size = 4
_container$1$ = -48					; size = 4
__Old_size$1$ = -44					; size = 4
__Old_size$1$ = -44					; size = 4
_buf$ = -40						; size = 24
__$ArrayPad$ = -16					; size = 4
__$EHRec$ = -12						; size = 12
_ret$ = 8						; size = 4
??$string_join@V?$vector@V?$basic_string@DU?$char_traits@D@std@@V?$allocator@D@2@@std@@V?$allocator@V?$basic_string@DU?$char_traits@D@std@@V?$allocator@D@2@@std@@@2@@std@@@@YAXABV?$basic_string@DU?$char_traits@D@std@@V?$allocator@D@2@@std@@ABV?$vector@V?$basic_string@DU?$char_traits@D@std@@V?$allocator@D@2@@std@@V?$allocator@V?$basic_string@DU?$char_traits@D@std@@V?$allocator@D@2@@std@@@2@@1@PAV01@@Z PROC ; string_join<std::vector<std::basic_string<char,std::char_traits<char>,std::allocator<char> >,std::allocator<std::basic_string<char,std::char_traits<char>,std::allocator<char> > > > >, COMDAT
; _sep$ = ecx
; _container$ = edx

; 117  : {

  00000	55		 push	 ebp
  00001	8b ec		 mov	 ebp, esp
  00003	6a ff		 push	 -1
  00005	68 00 00 00 00	 push	 __ehhandler$??$string_join@V?$vector@V?$basic_string@DU?$char_traits@D@std@@V?$allocator@D@2@@std@@V?$allocator@V?$basic_string@DU?$char_traits@D@std@@V?$allocator@D@2@@std@@@2@@std@@@@YAXABV?$basic_string@DU?$char_traits@D@std@@V?$allocator@D@2@@std@@ABV?$vector@V?$basic_string@DU?$char_traits@D@std@@V?$allocator@D@2@@std@@V?$allocator@V?$basic_string@DU?$char_traits@D@std@@V?$allocator@D@2@@std@@@2@@1@PAV01@@Z
  0000a	64 a1 00 00 00
	00		 mov	 eax, DWORD PTR fs:0
  00010	50		 push	 eax
  00011	83 ec 30	 sub	 esp, 48			; 00000030H
  00014	a1 00 00 00 00	 mov	 eax, DWORD PTR ___security_cookie
  00019	33 c5		 xor	 eax, ebp
  0001b	89 45 f0	 mov	 DWORD PTR __$ArrayPad$[ebp], eax
  0001e	56		 push	 esi
  0001f	57		 push	 edi
  00020	50		 push	 eax
  00021	8d 45 f4	 lea	 eax, DWORD PTR __$EHRec$[ebp]
  00024	64 a3 00 00 00
	00		 mov	 DWORD PTR fs:0, eax
  0002a	8b c2		 mov	 eax, edx
  0002c	89 45 d0	 mov	 DWORD PTR _container$1$[ebp], eax
  0002f	8b f1		 mov	 esi, ecx
  00031	89 75 c4	 mov	 DWORD PTR _sep$GSCopy$1$[ebp], esi
; File C:\Program Files\Microsoft Visual Studio\2022\Community\VC\Tools\MSVC\14.34.31933\include\vector

; 1932 :         return static_cast<size_type>(_My_data._Mylast - _My_data._Myfirst);

  00034	8b 78 04	 mov	 edi, DWORD PTR [eax+4]
  00037	8b d7		 mov	 edx, edi
  00039	8b 00		 mov	 eax, DWORD PTR [eax]
  0003b	2b d0		 sub	 edx, eax
; File E:\Metin2_server\SolWayneSF v6\ClientVS22\source\eterBase\Utils.h

; 117  : {

  0003d	8b 4d 08	 mov	 ecx, DWORD PTR _ret$[ebp]
; File C:\Program Files\Microsoft Visual Studio\2022\Community\VC\Tools\MSVC\14.34.31933\include\vector

; 1932 :         return static_cast<size_type>(_My_data._Mylast - _My_data._Myfirst);

  00040	c1 fa 03	 sar	 edx, 3
; File E:\Metin2_server\SolWayneSF v6\ClientVS22\source\eterBase\Utils.h

; 117  : {

  00043	89 4d c8	 mov	 DWORD PTR _ret$GSCopy$1$[ebp], ecx
; File C:\Program Files\Microsoft Visual Studio\2022\Community\VC\Tools\MSVC\14.34.31933\include\vector

; 1932 :         return static_cast<size_type>(_My_data._Mylast - _My_data._Myfirst);

  00046	69 ca ab aa aa
	aa		 imul	 ecx, edx, -1431655765
; File E:\Metin2_server\SolWayneSF v6\ClientVS22\source\eterBase\Utils.h

; 118  : 	unsigned int capacity = sep.length() * container.size() - 1;

  0004c	8b 56 10	 mov	 edx, DWORD PTR [esi+16]
  0004f	0f af d1	 imul	 edx, ecx
  00052	4a		 dec	 edx

; 122  :         for (auto i = container.begin(); i != container.end(); ++i)

  00053	3b c7		 cmp	 eax, edi
  00055	74 0a		 je	 SHORT $LN3@string_joi
$LL82@string_joi:

; 123  :             capacity += (*i).length();

  00057	03 50 10	 add	 edx, DWORD PTR [eax+16]
; File C:\Program Files\Microsoft Visual Studio\2022\Community\VC\Tools\MSVC\14.34.31933\include\vector

; 74   :         ++_Ptr;

  0005a	83 c0 18	 add	 eax, 24			; 00000018H
; File E:\Metin2_server\SolWayneSF v6\ClientVS22\source\eterBase\Utils.h

; 122  :         for (auto i = container.begin(); i != container.end(); ++i)

  0005d	3b c7		 cmp	 eax, edi
  0005f	75 f6		 jne	 SHORT $LL82@string_joi
$LN3@string_joi:
  00061	0f 57 c0	 xorps	 xmm0, xmm0
; File C:\Program Files\Microsoft Visual Studio\2022\Community\VC\Tools\MSVC\14.34.31933\include\xstring

; 4995 :         _My_data._Mysize = 0;

  00064	c7 45 e8 00 00
	00 00		 mov	 DWORD PTR _buf$[ebp+16], 0

; 2339 :         _CONSTEXPR20 _Bxty() noexcept : _Buf() {} // user-provided, for fancy pointers

  0006b	0f 11 45 d8	 movups	 XMMWORD PTR _buf$[ebp], xmm0

; 4996 :         _My_data._Myres  = _BUF_SIZE - 1;

  0006f	c7 45 ec 0f 00
	00 00		 mov	 DWORD PTR _buf$[ebp+20], 15 ; 0000000fH

; 4997 :         _My_data._Activate_SSO_buffer();
; 4998 : 
; 4999 :         // the _Traits::assign is last so the codegen doesn't think the char write can alias this
; 5000 :         _Traits::assign(_My_data._Bx._Buf[0], _Elem());

  00076	c6 45 d8 00	 mov	 BYTE PTR _buf$[ebp], 0
; File E:\Metin2_server\SolWayneSF v6\ClientVS22\source\eterBase\Utils.h

; 127  :     buf.reserve(capacity);

  0007a	52		 push	 edx
  0007b	8d 4d d8	 lea	 ecx, DWORD PTR _buf$[ebp]
  0007e	c7 45 fc 00 00
	00 00		 mov	 DWORD PTR __$EHRec$[ebp+8], 0
  00085	e8 00 00 00 00	 call	 ?reserve@?$basic_string@DU?$char_traits@D@std@@V?$allocator@D@2@@std@@QAEXI@Z ; std::basic_string<char,std::char_traits<char>,std::allocator<char> >::reserve
; File C:\Program Files\Microsoft Visual Studio\2022\Community\VC\Tools\MSVC\14.34.31933\include\vector

; 41   :     _CONSTEXPR20 _Vector_const_iterator(_Tptr _Parg, const _Container_base* _Pvector) noexcept : _Ptr(_Parg) {

  0008a	8b 7d d0	 mov	 edi, DWORD PTR _container$1$[ebp]
  0008d	8b 37		 mov	 esi, DWORD PTR [edi]

; 91   :         --_Ptr;

  0008f	8b 7f 04	 mov	 edi, DWORD PTR [edi+4]
  00092	83 ef 18	 sub	 edi, 24			; 00000018H

; 156  :         return _Ptr == _Right._Ptr;

  00095	3b f7		 cmp	 esi, edi
; File E:\Metin2_server\SolWayneSF v6\ClientVS22\source\eterBase\Utils.h

; 135  :         while (cur != end)

  00097	0f 84 d4 00 00
	00		 je	 $LN6@string_joi
  0009d	0f 1f 00	 npad	 3
$LL5@string_joi:
; File C:\Program Files\Microsoft Visual Studio\2022\Community\VC\Tools\MSVC\14.34.31933\include\vector

; 79   :         _Vector_const_iterator _Tmp = *this;

  000a0	8b ce		 mov	 ecx, esi

; 74   :         ++_Ptr;

  000a2	83 c6 18	 add	 esi, 24			; 00000018H
; File C:\Program Files\Microsoft Visual Studio\2022\Community\VC\Tools\MSVC\14.34.31933\include\xstring

; 2301 :         return _BUF_SIZE <= _Myres;

  000a5	83 79 14 10	 cmp	 DWORD PTR [ecx+20], 16	; 00000010H

; 3392 :         return append(_Right._Mypair._Myval2._Myptr(), _Right._Mypair._Myval2._Mysize);

  000a9	8b 51 10	 mov	 edx, DWORD PTR [ecx+16]
  000ac	89 55 d0	 mov	 DWORD PTR $T5[ebp], edx

; 2293 :         if (_Large_string_engaged()) {

  000af	72 02		 jb	 SHORT $LN18@string_joi

; 2294 :             _Result = _Unfancy(_Bx._Ptr);

  000b1	8b 09		 mov	 ecx, DWORD PTR [ecx]
$LN18@string_joi:

; 3421 :         const size_type _Old_size = _Mypair._Myval2._Mysize;

  000b3	8b 45 e8	 mov	 eax, DWORD PTR _buf$[ebp+16]

; 3422 :         if (_Count <= _Mypair._Myval2._Myres - _Old_size) {

  000b6	8b 55 d0	 mov	 edx, DWORD PTR $T5[ebp]
  000b9	89 45 d4	 mov	 DWORD PTR __Old_size$1$[ebp], eax
  000bc	8b 45 ec	 mov	 eax, DWORD PTR _buf$[ebp+20]
  000bf	2b 45 d4	 sub	 eax, DWORD PTR __Old_size$1$[ebp]
  000c2	3b d0		 cmp	 edx, eax
  000c4	77 33		 ja	 SHORT $LN23@string_joi

; 3423 :             _ASAN_STRING_MODIFY(static_cast<difference_type>(_Count));
; 3424 :             _Mypair._Myval2._Mysize = _Old_size + _Count;

  000c6	8b 45 d4	 mov	 eax, DWORD PTR __Old_size$1$[ebp]
  000c9	03 c2		 add	 eax, edx

; 2301 :         return _BUF_SIZE <= _Myres;

  000cb	83 7d ec 10	 cmp	 DWORD PTR _buf$[ebp+20], 16 ; 00000010H

; 3424 :             _Mypair._Myval2._Mysize = _Old_size + _Count;

  000cf	89 45 e8	 mov	 DWORD PTR _buf$[ebp+16], eax

; 2283 :         value_type* _Result = _Bx._Buf;

  000d2	8d 45 d8	 lea	 eax, DWORD PTR _buf$[ebp]

; 2284 :         if (_Large_string_engaged()) {

  000d5	0f 43 45 d8	 cmovae	 eax, DWORD PTR _buf$[ebp]

; 117  :         _CSTD memmove(_First1, _First2, _Count * sizeof(_Elem));

  000d9	52		 push	 edx

; 2284 :         if (_Large_string_engaged()) {

  000da	89 45 cc	 mov	 DWORD PTR __Result$2$[ebp], eax

; 3426 :             _Traits::move(_Old_ptr + _Old_size, _Ptr, _Count);

  000dd	03 45 d4	 add	 eax, DWORD PTR __Old_size$1$[ebp]

; 117  :         _CSTD memmove(_First1, _First2, _Count * sizeof(_Elem));

  000e0	51		 push	 ecx
  000e1	50		 push	 eax
  000e2	e8 00 00 00 00	 call	 _memmove

; 3427 :             _Traits::assign(_Old_ptr[_Old_size + _Count], _Elem());

  000e7	8b 45 cc	 mov	 eax, DWORD PTR __Result$2$[ebp]

; 117  :         _CSTD memmove(_First1, _First2, _Count * sizeof(_Elem));

  000ea	83 c4 0c	 add	 esp, 12			; 0000000cH

; 3427 :             _Traits::assign(_Old_ptr[_Old_size + _Count], _Elem());

  000ed	03 45 d0	 add	 eax, DWORD PTR $T5[ebp]
  000f0	8b 4d d4	 mov	 ecx, DWORD PTR __Old_size$1$[ebp]
  000f3	c6 04 08 00	 mov	 BYTE PTR [eax+ecx], 0

; 3428 :             return *this;

  000f7	eb 0e		 jmp	 SHORT $LN22@string_joi
$LN23@string_joi:

; 3429 :         }
; 3430 : 
; 3431 :         return _Reallocate_grow_by(

  000f9	52		 push	 edx
  000fa	51		 push	 ecx
  000fb	ff 75 c8	 push	 DWORD PTR $T3[ebp]
  000fe	8d 4d d8	 lea	 ecx, DWORD PTR _buf$[ebp]
  00101	52		 push	 edx
  00102	e8 00 00 00 00	 call	 ??$_Reallocate_grow_by@V<lambda_1>@?1??append@?$basic_string@DU?$char_traits@D@std@@V?$allocator@D@2@@std@@QAEAAV34@QBDI@Z@PBDI@?$basic_string@DU?$char_traits@D@std@@V?$allocator@D@2@@std@@AAEAAV01@IV<lambda_1>@?1??append@01@QAEAAV01@QBDI@Z@PBDI@Z ; std::basic_string<char,std::char_traits<char>,std::allocator<char> >::_Reallocate_grow_by<`std::basic_string<char,std::char_traits<char>,std::allocator<char> >::append'::`2'::<lambda_1>,char const *,unsigned int>
$LN22@string_joi:

; 3392 :         return append(_Right._Mypair._Myval2._Myptr(), _Right._Mypair._Myval2._Mysize);

  00107	8b 45 c4	 mov	 eax, DWORD PTR _sep$GSCopy$1$[ebp]

; 2292 :         const value_type* _Result = _Bx._Buf;

  0010a	8b d0		 mov	 edx, eax

; 2301 :         return _BUF_SIZE <= _Myres;

  0010c	83 78 14 10	 cmp	 DWORD PTR [eax+20], 16	; 00000010H

; 3392 :         return append(_Right._Mypair._Myval2._Myptr(), _Right._Mypair._Myval2._Mysize);

  00110	8b 48 10	 mov	 ecx, DWORD PTR [eax+16]
  00113	89 4d d0	 mov	 DWORD PTR $T4[ebp], ecx

; 2293 :         if (_Large_string_engaged()) {

  00116	72 02		 jb	 SHORT $LN48@string_joi

; 2294 :             _Result = _Unfancy(_Bx._Ptr);

  00118	8b 10		 mov	 edx, DWORD PTR [eax]
$LN48@string_joi:

; 3421 :         const size_type _Old_size = _Mypair._Myval2._Mysize;

  0011a	8b 45 e8	 mov	 eax, DWORD PTR _buf$[ebp+16]
  0011d	89 45 d4	 mov	 DWORD PTR __Old_size$1$[ebp], eax
  00120	8b 45 ec	 mov	 eax, DWORD PTR _buf$[ebp+20]
  00123	2b 45 d4	 sub	 eax, DWORD PTR __Old_size$1$[ebp]

; 3422 :         if (_Count <= _Mypair._Myval2._Myres - _Old_size) {

  00126	51		 push	 ecx
  00127	52		 push	 edx
  00128	3b c8		 cmp	 ecx, eax
  0012a	77 31		 ja	 SHORT $LN53@string_joi

; 3423 :             _ASAN_STRING_MODIFY(static_cast<difference_type>(_Count));
; 3424 :             _Mypair._Myval2._Mysize = _Old_size + _Count;

  0012c	8b 45 d4	 mov	 eax, DWORD PTR __Old_size$1$[ebp]
  0012f	03 c1		 add	 eax, ecx

; 2301 :         return _BUF_SIZE <= _Myres;

  00131	83 7d ec 10	 cmp	 DWORD PTR _buf$[ebp+20], 16 ; 00000010H

; 3424 :             _Mypair._Myval2._Mysize = _Old_size + _Count;

  00135	89 45 e8	 mov	 DWORD PTR _buf$[ebp+16], eax

; 2283 :         value_type* _Result = _Bx._Buf;

  00138	8d 45 d8	 lea	 eax, DWORD PTR _buf$[ebp]

; 2284 :         if (_Large_string_engaged()) {

  0013b	0f 43 45 d8	 cmovae	 eax, DWORD PTR _buf$[ebp]
  0013f	89 45 cc	 mov	 DWORD PTR __Result$2$[ebp], eax

; 3426 :             _Traits::move(_Old_ptr + _Old_size, _Ptr, _Count);

  00142	03 45 d4	 add	 eax, DWORD PTR __Old_size$1$[ebp]

; 117  :         _CSTD memmove(_First1, _First2, _Count * sizeof(_Elem));

  00145	50		 push	 eax
  00146	e8 00 00 00 00	 call	 _memmove

; 3427 :             _Traits::assign(_Old_ptr[_Old_size + _Count], _Elem());

  0014b	8b 45 cc	 mov	 eax, DWORD PTR __Result$2$[ebp]

; 117  :         _CSTD memmove(_First1, _First2, _Count * sizeof(_Elem));

  0014e	83 c4 0c	 add	 esp, 12			; 0000000cH

; 3427 :             _Traits::assign(_Old_ptr[_Old_size + _Count], _Elem());

  00151	03 45 d0	 add	 eax, DWORD PTR $T4[ebp]
  00154	8b 4d d4	 mov	 ecx, DWORD PTR __Old_size$1$[ebp]
  00157	c6 04 08 00	 mov	 BYTE PTR [eax+ecx], 0

; 3428 :             return *this;

  0015b	eb 0c		 jmp	 SHORT $LN52@string_joi
$LN53@string_joi:

; 3429 :         }
; 3430 : 
; 3431 :         return _Reallocate_grow_by(

  0015d	ff 75 c8	 push	 DWORD PTR $T2[ebp]
  00160	51		 push	 ecx
  00161	8d 4d d8	 lea	 ecx, DWORD PTR _buf$[ebp]
  00164	e8 00 00 00 00	 call	 ??$_Reallocate_grow_by@V<lambda_1>@?1??append@?$basic_string@DU?$char_traits@D@std@@V?$allocator@D@2@@std@@QAEAAV34@QBDI@Z@PBDI@?$basic_string@DU?$char_traits@D@std@@V?$allocator@D@2@@std@@AAEAAV01@IV<lambda_1>@?1??append@01@QAEAAV01@QBDI@Z@PBDI@Z ; std::basic_string<char,std::char_traits<char>,std::allocator<char> >::_Reallocate_grow_by<`std::basic_string<char,std::char_traits<char>,std::allocator<char> >::append'::`2'::<lambda_1>,char const *,unsigned int>
$LN52@string_joi:
; File C:\Program Files\Microsoft Visual Studio\2022\Community\VC\Tools\MSVC\14.34.31933\include\vector

; 156  :         return _Ptr == _Right._Ptr;

  00169	3b f7		 cmp	 esi, edi
; File E:\Metin2_server\SolWayneSF v6\ClientVS22\source\eterBase\Utils.h

; 135  :         while (cur != end)

  0016b	0f 85 2f ff ff
	ff		 jne	 $LL5@string_joi
$LN6@string_joi:

; 136  :         {
; 137  :             buf.append(*cur++);
; 138  :             buf.append(sep);
; 139  :         }
; 140  :         buf.append(*cur);

  00171	56		 push	 esi
  00172	8d 4d d8	 lea	 ecx, DWORD PTR _buf$[ebp]
  00175	e8 00 00 00 00	 call	 ?append@?$basic_string@DU?$char_traits@D@std@@V?$allocator@D@2@@std@@QAEAAV12@ABV12@@Z ; std::basic_string<char,std::char_traits<char>,std::allocator<char> >::append
; File C:\Program Files\Microsoft Visual Studio\2022\Community\VC\Tools\MSVC\14.34.31933\include\xstring

; 4476 :         if (this != _STD addressof(_Right)) {

  0017a	8b 45 c8	 mov	 eax, DWORD PTR _ret$GSCopy$1$[ebp]
  0017d	8d 4d d8	 lea	 ecx, DWORD PTR _buf$[ebp]
  00180	3b c1		 cmp	 eax, ecx
  00182	74 22		 je	 SHORT $LN127@string_joi

; 4434 :                 _CSTD memcpy(_My_data_mem, _Right_data_mem, _Memcpy_val_size);

  00184	0f 10 45 d8	 movups	 xmm0, XMMWORD PTR _buf$[ebp]
  00188	0f 10 08	 movups	 xmm1, XMMWORD PTR [eax]
  0018b	f3 0f 7e 50 10	 movq	 xmm2, QWORD PTR [eax+16]
  00190	0f 11 00	 movups	 XMMWORD PTR [eax], xmm0
  00193	f3 0f 7e 45 e8	 movq	 xmm0, QWORD PTR _buf$[ebp+16]
  00198	66 0f d6 40 10	 movq	 QWORD PTR [eax+16], xmm0

; 4435 :                 _CSTD memcpy(_Right_data_mem, _Temp_mem, _Memcpy_val_size);

  0019d	0f 11 4d d8	 movups	 XMMWORD PTR _buf$[ebp], xmm1
  001a1	66 0f d6 55 e8	 movq	 QWORD PTR _buf$[ebp+16], xmm2
$LN127@string_joi:

; 2301 :         return _BUF_SIZE <= _Myres;

  001a6	8b 4d ec	 mov	 ecx, DWORD PTR _buf$[ebp+20]
  001a9	83 f9 10	 cmp	 ecx, 16			; 00000010H

; 5008 :         if (_My_data._Large_string_engaged()) {

  001ac	72 28		 jb	 SHORT $LN178@string_joi
; File C:\Program Files\Microsoft Visual Studio\2022\Community\VC\Tools\MSVC\14.34.31933\include\xmemory

; 830  :         _Deallocate<_New_alignof<_Ty>>(_Ptr, sizeof(_Ty) * _Count);

  001ae	8b 55 d8	 mov	 edx, DWORD PTR _buf$[ebp]
; File C:\Program Files\Microsoft Visual Studio\2022\Community\VC\Tools\MSVC\14.34.31933\include\xstring

; 5013 :             _Al.deallocate(_Ptr, _My_data._Myres + 1);

  001b1	41		 inc	 ecx
; File C:\Program Files\Microsoft Visual Studio\2022\Community\VC\Tools\MSVC\14.34.31933\include\xmemory

; 830  :         _Deallocate<_New_alignof<_Ty>>(_Ptr, sizeof(_Ty) * _Count);

  001b2	8b c2		 mov	 eax, edx

; 251  :         if (_Bytes >= _Big_allocation_threshold) { // boost the alignment of big allocations to help autovectorization

  001b4	81 f9 00 10 00
	00		 cmp	 ecx, 4096		; 00001000H
  001ba	72 10		 jb	 SHORT $LN190@string_joi

; 150  :     const uintptr_t _Ptr_container   = _Ptr_user[-1];

  001bc	8b 50 fc	 mov	 edx, DWORD PTR [eax-4]
  001bf	83 c1 23	 add	 ecx, 35			; 00000023H
  001c2	2b c2		 sub	 eax, edx

; 164  :     _STL_VERIFY(_Back_shift >= _Min_back_shift && _Back_shift <= _Non_user_size, "invalid argument");

  001c4	83 c0 fc	 add	 eax, -4			; fffffffcH
  001c7	83 f8 1f	 cmp	 eax, 31			; 0000001fH
  001ca	77 25		 ja	 SHORT $LN279@string_joi
$LN190@string_joi:

; 255  :         ::operator delete(_Ptr, _Bytes);

  001cc	51		 push	 ecx
  001cd	52		 push	 edx
  001ce	e8 00 00 00 00	 call	 ??3@YAXPAXI@Z		; operator delete
  001d3	83 c4 08	 add	 esp, 8
$LN178@string_joi:
; File E:\Metin2_server\SolWayneSF v6\ClientVS22\source\eterBase\Utils.h

; 144  : }

  001d6	8b 4d f4	 mov	 ecx, DWORD PTR __$EHRec$[ebp]
  001d9	64 89 0d 00 00
	00 00		 mov	 DWORD PTR fs:0, ecx
  001e0	59		 pop	 ecx
  001e1	5f		 pop	 edi
  001e2	5e		 pop	 esi
  001e3	8b 4d f0	 mov	 ecx, DWORD PTR __$ArrayPad$[ebp]
  001e6	33 cd		 xor	 ecx, ebp
  001e8	e8 00 00 00 00	 call	 @__security_check_cookie@4
  001ed	8b e5		 mov	 esp, ebp
  001ef	5d		 pop	 ebp
  001f0	c3		 ret	 0
$LN279@string_joi:
; File C:\Program Files\Microsoft Visual Studio\2022\Community\VC\Tools\MSVC\14.34.31933\include\xmemory

; 164  :     _STL_VERIFY(_Back_shift >= _Min_back_shift && _Back_shift <= _Non_user_size, "invalid argument");

  001f1	e8 00 00 00 00	 call	 __invalid_parameter_noinfo_noreturn
$LN277@string_joi:
  001f6	cc		 int	 3
_TEXT	ENDS
;	COMDAT text$x
text$x	SEGMENT
__unwindfunclet$??$string_join@V?$vector@V?$basic_string@DU?$char_traits@D@std@@V?$allocator@D@2@@std@@V?$allocator@V?$basic_string@DU?$char_traits@D@std@@V?$allocator@D@2@@std@@@2@@std@@@@YAXABV?$basic_string@DU?$char_traits@D@std@@V?$allocator@D@2@@std@@ABV?$vector@V?$basic_string@DU?$char_traits@D@std@@V?$allocator@D@2@@std@@V?$allocator@V?$basic_string@DU?$char_traits@D@std@@V?$allocator@D@2@@std@@@2@@1@PAV01@@Z$0:
  00000	8d 4d d8	 lea	 ecx, DWORD PTR _buf$[ebp]
  00003	e9 00 00 00 00	 jmp	 ??1?$basic_string@DU?$char_traits@D@std@@V?$allocator@D@2@@std@@QAE@XZ ; std::basic_string<char,std::char_traits<char>,std::allocator<char> >::~basic_string<char,std::char_traits<char>,std::allocator<char> >
  00008	cc		 int	 3
  00009	cc		 int	 3
  0000a	cc		 int	 3
  0000b	cc		 int	 3
  0000c	cc		 int	 3
__ehhandler$??$string_join@V?$vector@V?$basic_string@DU?$char_traits@D@std@@V?$allocator@D@2@@std@@V?$allocator@V?$basic_string@DU?$char_traits@D@std@@V?$allocator@D@2@@std@@@2@@std@@@@YAXABV?$basic_string@DU?$char_traits@D@std@@V?$allocator@D@2@@std@@ABV?$vector@V?$basic_string@DU?$char_traits@D@std@@V?$allocator@D@2@@std@@V?$allocator@V?$basic_string@DU?$char_traits@D@std@@V?$allocator@D@2@@std@@@2@@1@PAV01@@Z:
  0000d	90		 npad	 1
  0000e	90		 npad	 1
  0000f	8b 54 24 08	 mov	 edx, DWORD PTR [esp+8]
  00013	8d 42 0c	 lea	 eax, DWORD PTR [edx+12]
  00016	8b 4a c4	 mov	 ecx, DWORD PTR [edx-60]
  00019	33 c8		 xor	 ecx, eax
  0001b	e8 00 00 00 00	 call	 @__security_check_cookie@4
  00020	8b 4a fc	 mov	 ecx, DWORD PTR [edx-4]
  00023	33 c8		 xor	 ecx, eax
  00025	e8 00 00 00 00	 call	 @__security_check_cookie@4
  0002a	b8 00 00 00 00	 mov	 eax, OFFSET __ehfuncinfo$??$string_join@V?$vector@V?$basic_string@DU?$char_traits@D@std@@V?$allocator@D@2@@std@@V?$allocator@V?$basic_string@DU?$char_traits@D@std@@V?$allocator@D@2@@std@@@2@@std@@@@YAXABV?$basic_string@DU?$char_traits@D@std@@V?$allocator@D@2@@std@@ABV?$vector@V?$basic_string@DU?$char_traits@D@std@@V?$allocator@D@2@@std@@V?$allocator@V?$basic_string@DU?$char_traits@D@std@@V?$allocator@D@2@@std@@@2@@1@PAV01@@Z
  0002f	e9 00 00 00 00	 jmp	 ___CxxFrameHandler3
text$x	ENDS
??$string_join@V?$vector@V?$basic_string@DU?$char_traits@D@std@@V?$allocator@D@2@@std@@V?$allocator@V?$basic_string@DU?$char_traits@D@std@@V?$allocator@D@2@@std@@@2@@std@@@@YAXABV?$basic_string@DU?$char_traits@D@std@@V?$allocator@D@2@@std@@ABV?$vector@V?$basic_string@DU?$char_traits@D@std@@V?$allocator@D@2@@std@@V?$allocator@V?$basic_string@DU?$char_traits@D@std@@V?$allocator@D@2@@std@@@2@@1@PAV01@@Z ENDP ; string_join<std::vector<std::basic_string<char,std::char_traits<char>,std::allocator<char> >,std::allocator<std::basic_string<char,std::char_traits<char>,std::allocator<char> > > > >
; Function compile flags: /Ogtp
; File C:\Program Files\Microsoft Visual Studio\2022\Community\VC\Tools\MSVC\14.34.31933\include\xstring
; File C:\Program Files\Microsoft Visual Studio\2022\Community\VC\Tools\MSVC\14.34.31933\include\xmemory
; File C:\Program Files\Microsoft Visual Studio\2022\Community\VC\Tools\MSVC\14.34.31933\include\xstring
; File C:\Program Files\Microsoft Visual Studio\2022\Community\VC\Tools\MSVC\14.34.31933\include\xmemory
; File C:\Program Files\Microsoft Visual Studio\2022\Community\VC\Tools\MSVC\14.34.31933\include\xstring
; File C:\Program Files\Microsoft Visual Studio\2022\Community\VC\Tools\MSVC\14.34.31933\include\utility
; File C:\Program Files\Microsoft Visual Studio\2022\Community\VC\Tools\MSVC\14.34.31933\include\xstring
; File C:\Program Files\Microsoft Visual Studio\2022\Community\VC\Tools\MSVC\14.34.31933\include\xmemory
; File C:\Program Files\Microsoft Visual Studio\2022\Community\VC\Tools\MSVC\14.34.31933\include\xstring
; File C:\Program Files\Microsoft Visual Studio\2022\Community\VC\Tools\MSVC\14.34.31933\include\xmemory
; File C:\Program Files\Microsoft Visual Studio\2022\Community\VC\Tools\MSVC\14.34.31933\include\xstring
; File C:\Program Files\Microsoft Visual Studio\2022\Community\VC\Tools\MSVC\14.34.31933\include\xmemory
; File C:\Program Files\Microsoft Visual Studio\2022\Community\VC\Tools\MSVC\14.34.31933\include\xstring
;	COMDAT ??$_Reallocate_grow_by@V<lambda_1>@?1??push_back@?$basic_string@DU?$char_traits@D@std@@V?$allocator@D@2@@std@@QAEXD@Z@D@?$basic_string@DU?$char_traits@D@std@@V?$allocator@D@2@@std@@AAEAAV01@IV<lambda_1>@?1??push_back@01@QAEXD@Z@D@Z
_TEXT	SEGMENT
__New_size$1$ = -8					; size = 4
__Old_size$1$ = -4					; size = 4
$T1 = 8							; size = 4
__Size_increase$ = 8					; size = 4
__Fn$ = 12						; size = 1
_<_Args_0>$ = 16					; size = 1
??$_Reallocate_grow_by@V<lambda_1>@?1??push_back@?$basic_string@DU?$char_traits@D@std@@V?$allocator@D@2@@std@@QAEXD@Z@D@?$basic_string@DU?$char_traits@D@std@@V?$allocator@D@2@@std@@AAEAAV01@IV<lambda_1>@?1??push_back@01@QAEXD@Z@D@Z PROC ; std::basic_string<char,std::char_traits<char>,std::allocator<char> >::_Reallocate_grow_by<`std::basic_string<char,std::char_traits<char>,std::allocator<char> >::push_back'::`2'::<lambda_1>,char>, COMDAT
; _this$ = ecx

; 4931 :     _CONSTEXPR20 basic_string& _Reallocate_grow_by(const size_type _Size_increase, _Fty _Fn, _ArgTys... _Args) {

  00000	55		 push	 ebp
  00001	8b ec		 mov	 ebp, esp
  00003	83 ec 08	 sub	 esp, 8
  00006	53		 push	 ebx
  00007	56		 push	 esi

; 4932 :         // reallocate to increase size by _Size_increase elements, new buffer prepared by
; 4933 :         // _Fn(_New_ptr, _Old_ptr, _Old_size, _Args...)
; 4934 :         auto& _My_data            = _Mypair._Myval2;
; 4935 :         const size_type _Old_size = _My_data._Mysize;
; 4936 :         if (max_size() - _Old_size < _Size_increase) {

  00008	8b 75 08	 mov	 esi, DWORD PTR __Size_increase$[ebp]
  0000b	ba ff ff ff 7f	 mov	 edx, 2147483647		; 7fffffffH
  00010	57		 push	 edi
  00011	8b f9		 mov	 edi, ecx
  00013	8b c2		 mov	 eax, edx
  00015	8b 4f 10	 mov	 ecx, DWORD PTR [edi+16]
  00018	2b c1		 sub	 eax, ecx
  0001a	89 4d fc	 mov	 DWORD PTR __Old_size$1$[ebp], ecx
  0001d	3b c6		 cmp	 eax, esi
  0001f	0f 82 0b 01 00
	00		 jb	 $LN98@Reallocate

; 4941 :         const size_type _Old_capacity = _My_data._Myres;

  00025	8b 47 14	 mov	 eax, DWORD PTR [edi+20]
  00028	8d 1c 31	 lea	 ebx, DWORD PTR [ecx+esi]

; 4880 :         const size_type _Masked = _Requested | _ALLOC_MASK;

  0002b	8b f3		 mov	 esi, ebx

; 4938 :         }
; 4939 : 
; 4940 :         const size_type _New_size     = _Old_size + _Size_increase;

  0002d	89 5d f8	 mov	 DWORD PTR __New_size$1$[ebp], ebx

; 4880 :         const size_type _Masked = _Requested | _ALLOC_MASK;

  00030	83 ce 0f	 or	 esi, 15			; 0000000fH

; 4941 :         const size_type _Old_capacity = _My_data._Myres;

  00033	89 45 08	 mov	 DWORD PTR $T1[ebp], eax

; 4880 :         const size_type _Masked = _Requested | _ALLOC_MASK;

  00036	3b f2		 cmp	 esi, edx

; 4881 :         if (_Masked > _Max) { // the mask overflows, settle for max_size()

  00038	76 17		 jbe	 SHORT $LN10@Reallocate

; 4882 :             return _Max;

  0003a	b8 00 00 00 80	 mov	 eax, -2147483648	; 80000000H
  0003f	8b f2		 mov	 esi, edx
; File C:\Program Files\Microsoft Visual Studio\2022\Community\VC\Tools\MSVC\14.34.31933\include\xmemory

; 229  :             return _Allocate_manually_vector_aligned<_Traits>(_Bytes);

  00041	50		 push	 eax
  00042	e8 00 00 00 00	 call	 ??$_Allocate_manually_vector_aligned@U_Default_allocate_traits@std@@@std@@YAPAXI@Z ; std::_Allocate_manually_vector_aligned<std::_Default_allocate_traits>
  00047	8b 4d fc	 mov	 ecx, DWORD PTR __Old_size$1$[ebp]
  0004a	83 c4 04	 add	 esp, 4
  0004d	8b d8		 mov	 ebx, eax
  0004f	eb 5b		 jmp	 SHORT $LN17@Reallocate
$LN10@Reallocate:
; File C:\Program Files\Microsoft Visual Studio\2022\Community\VC\Tools\MSVC\14.34.31933\include\xstring

; 4885 :         if (_Old > _Max - _Old / 2) { // similarly, geometric overflows

  00051	8b d8		 mov	 ebx, eax
  00053	d1 eb		 shr	 ebx, 1
  00055	2b d3		 sub	 edx, ebx
  00057	3b c2		 cmp	 eax, edx
  00059	76 1a		 jbe	 SHORT $LN11@Reallocate

; 4886 :             return _Max;

  0005b	b8 00 00 00 80	 mov	 eax, -2147483648	; 80000000H
  00060	be ff ff ff 7f	 mov	 esi, 2147483647		; 7fffffffH
; File C:\Program Files\Microsoft Visual Studio\2022\Community\VC\Tools\MSVC\14.34.31933\include\xmemory

; 229  :             return _Allocate_manually_vector_aligned<_Traits>(_Bytes);

  00065	50		 push	 eax
  00066	e8 00 00 00 00	 call	 ??$_Allocate_manually_vector_aligned@U_Default_allocate_traits@std@@@std@@YAPAXI@Z ; std::_Allocate_manually_vector_aligned<std::_Default_allocate_traits>
  0006b	8b 4d fc	 mov	 ecx, DWORD PTR __Old_size$1$[ebp]
  0006e	83 c4 04	 add	 esp, 4
  00071	8b d8		 mov	 ebx, eax
  00073	eb 37		 jmp	 SHORT $LN17@Reallocate
$LN11@Reallocate:
; File C:\Program Files\Microsoft Visual Studio\2022\Community\VC\Tools\MSVC\14.34.31933\include\xstring

; 4889 :         return (_STD max)(_Masked, _Old + _Old / 2);

  00075	03 c3		 add	 eax, ebx
; File C:\Program Files\Microsoft Visual Studio\2022\Community\VC\Tools\MSVC\14.34.31933\include\utility

; 43   :     return _Left < _Right ? _Right : _Left;

  00077	3b f0		 cmp	 esi, eax
  00079	0f 42 f0	 cmovb	 esi, eax
; File C:\Program Files\Microsoft Visual Studio\2022\Community\VC\Tools\MSVC\14.34.31933\include\xstring

; 4944 :         const pointer _New_ptr        = _Al.allocate(_New_capacity + 1); // throws

  0007c	8d 46 01	 lea	 eax, DWORD PTR [esi+1]
; File C:\Program Files\Microsoft Visual Studio\2022\Community\VC\Tools\MSVC\14.34.31933\include\xmemory

; 228  :         if (_Bytes >= _Big_allocation_threshold) { // boost the alignment of big allocations to help autovectorization

  0007f	3d 00 10 00 00	 cmp	 eax, 4096		; 00001000H
  00084	72 10		 jb	 SHORT $LN19@Reallocate

; 229  :             return _Allocate_manually_vector_aligned<_Traits>(_Bytes);

  00086	50		 push	 eax
  00087	e8 00 00 00 00	 call	 ??$_Allocate_manually_vector_aligned@U_Default_allocate_traits@std@@@std@@YAPAXI@Z ; std::_Allocate_manually_vector_aligned<std::_Default_allocate_traits>
  0008c	8b 4d fc	 mov	 ecx, DWORD PTR __Old_size$1$[ebp]
  0008f	83 c4 04	 add	 esp, 4
  00092	8b d8		 mov	 ebx, eax
  00094	eb 16		 jmp	 SHORT $LN17@Reallocate
$LN19@Reallocate:

; 230  :         }
; 231  :     }
; 232  : #endif // defined(_M_IX86) || defined(_M_X64)
; 233  : 
; 234  :     if (_Bytes != 0) {

  00096	85 c0		 test	 eax, eax
  00098	74 10		 je	 SHORT $LN20@Reallocate

; 77   :         return ::operator new(_Bytes);

  0009a	50		 push	 eax
  0009b	e8 00 00 00 00	 call	 ??2@YAPAXI@Z		; operator new

; 235  :         return _Traits::_Allocate(_Bytes);

  000a0	8b 4d fc	 mov	 ecx, DWORD PTR __Old_size$1$[ebp]

; 77   :         return ::operator new(_Bytes);

  000a3	83 c4 04	 add	 esp, 4

; 235  :         return _Traits::_Allocate(_Bytes);

  000a6	8b d8		 mov	 ebx, eax
  000a8	eb 02		 jmp	 SHORT $LN17@Reallocate
$LN20@Reallocate:

; 236  :     }
; 237  : 
; 238  :     return nullptr;

  000aa	33 db		 xor	 ebx, ebx
$LN17@Reallocate:
; File C:\Program Files\Microsoft Visual Studio\2022\Community\VC\Tools\MSVC\14.34.31933\include\xstring

; 4956 :         if (_BUF_SIZE <= _Old_capacity) {

  000ac	83 7d 08 10	 cmp	 DWORD PTR $T1[ebp], 16	; 00000010H
  000b0	8b 45 f8	 mov	 eax, DWORD PTR __New_size$1$[ebp]
  000b3	89 47 10	 mov	 DWORD PTR [edi+16], eax
  000b6	89 77 14	 mov	 DWORD PTR [edi+20], esi
  000b9	51		 push	 ecx
  000ba	72 4f		 jb	 SHORT $LN4@Reallocate

; 4957 :             const pointer _Old_ptr = _My_data._Bx._Ptr;

  000bc	8b 37		 mov	 esi, DWORD PTR [edi]

; 64   :         _CSTD memcpy(_First1, _First2, _Count * sizeof(_Elem));

  000be	56		 push	 esi
  000bf	53		 push	 ebx
  000c0	e8 00 00 00 00	 call	 _memcpy

; 4209 :                 _Traits::assign(_New_ptr[_Old_size], _Ch);

  000c5	8b 4d fc	 mov	 ecx, DWORD PTR __Old_size$1$[ebp]

; 64   :         _CSTD memcpy(_First1, _First2, _Count * sizeof(_Elem));

  000c8	83 c4 0c	 add	 esp, 12			; 0000000cH

; 4209 :                 _Traits::assign(_New_ptr[_Old_size], _Ch);

  000cb	8a 45 10	 mov	 al, BYTE PTR _<_Args_0>$[ebp]
  000ce	88 04 19	 mov	 BYTE PTR [ecx+ebx], al

; 4210 :                 _Traits::assign(_New_ptr[_Old_size + 1], _Elem());

  000d1	c6 44 19 01 00	 mov	 BYTE PTR [ecx+ebx+1], 0

; 4958 :             _Fn(_Raw_new, _Unfancy(_Old_ptr), _Old_size, _Args...);
; 4959 :             _Al.deallocate(_Old_ptr, _Old_capacity + 1);

  000d6	8b 4d 08	 mov	 ecx, DWORD PTR $T1[ebp]
  000d9	41		 inc	 ecx
; File C:\Program Files\Microsoft Visual Studio\2022\Community\VC\Tools\MSVC\14.34.31933\include\xmemory

; 251  :         if (_Bytes >= _Big_allocation_threshold) { // boost the alignment of big allocations to help autovectorization

  000da	81 f9 00 10 00
	00		 cmp	 ecx, 4096		; 00001000H
  000e0	72 12		 jb	 SHORT $LN63@Reallocate

; 150  :     const uintptr_t _Ptr_container   = _Ptr_user[-1];

  000e2	8b 56 fc	 mov	 edx, DWORD PTR [esi-4]
  000e5	83 c1 23	 add	 ecx, 35			; 00000023H

; 151  : 
; 152  :     // If the following asserts, it likely means that we are performing
; 153  :     // an aligned delete on memory coming from an unaligned allocation.
; 154  :     _STL_ASSERT(_Ptr_user[-2] == _Big_allocation_sentinel, "invalid argument");
; 155  : 
; 156  :     // Extra paranoia on aligned allocation/deallocation; ensure _Ptr_container is
; 157  :     // in range [_Min_back_shift, _Non_user_size]
; 158  : #ifdef _DEBUG
; 159  :     constexpr uintptr_t _Min_back_shift = 2 * sizeof(void*);
; 160  : #else // ^^^ _DEBUG ^^^ // vvv !_DEBUG vvv
; 161  :     constexpr uintptr_t _Min_back_shift = sizeof(void*);
; 162  : #endif // _DEBUG
; 163  :     const uintptr_t _Back_shift = reinterpret_cast<uintptr_t>(_Ptr) - _Ptr_container;

  000e8	2b f2		 sub	 esi, edx

; 164  :     _STL_VERIFY(_Back_shift >= _Min_back_shift && _Back_shift <= _Non_user_size, "invalid argument");

  000ea	8d 46 fc	 lea	 eax, DWORD PTR [esi-4]
  000ed	83 f8 1f	 cmp	 eax, 31			; 0000001fH
  000f0	77 43		 ja	 SHORT $LN60@Reallocate

; 165  :     _Ptr = reinterpret_cast<void*>(_Ptr_container);

  000f2	8b f2		 mov	 esi, edx
$LN63@Reallocate:

; 255  :         ::operator delete(_Ptr, _Bytes);

  000f4	51		 push	 ecx
  000f5	56		 push	 esi
  000f6	e8 00 00 00 00	 call	 ??3@YAXPAXI@Z		; operator delete
  000fb	83 c4 08	 add	 esp, 8
; File C:\Program Files\Microsoft Visual Studio\2022\Community\VC\Tools\MSVC\14.34.31933\include\xstring

; 4967 :         return *this;

  000fe	89 1f		 mov	 DWORD PTR [edi], ebx
  00100	8b c7		 mov	 eax, edi
  00102	5f		 pop	 edi
  00103	5e		 pop	 esi
  00104	5b		 pop	 ebx

; 4968 :     }

  00105	8b e5		 mov	 esp, ebp
  00107	5d		 pop	 ebp
  00108	c2 0c 00	 ret	 12			; 0000000cH
$LN4@Reallocate:

; 64   :         _CSTD memcpy(_First1, _First2, _Count * sizeof(_Elem));

  0010b	57		 push	 edi
  0010c	53		 push	 ebx
  0010d	e8 00 00 00 00	 call	 _memcpy

; 4209 :                 _Traits::assign(_New_ptr[_Old_size], _Ch);

  00112	8b 4d fc	 mov	 ecx, DWORD PTR __Old_size$1$[ebp]

; 64   :         _CSTD memcpy(_First1, _First2, _Count * sizeof(_Elem));

  00115	83 c4 0c	 add	 esp, 12			; 0000000cH

; 4209 :                 _Traits::assign(_New_ptr[_Old_size], _Ch);

  00118	8a 45 10	 mov	 al, BYTE PTR _<_Args_0>$[ebp]
  0011b	88 04 19	 mov	 BYTE PTR [ecx+ebx], al

; 4967 :         return *this;

  0011e	8b c7		 mov	 eax, edi

; 4210 :                 _Traits::assign(_New_ptr[_Old_size + 1], _Elem());

  00120	c6 44 19 01 00	 mov	 BYTE PTR [ecx+ebx+1], 0

; 4967 :         return *this;

  00125	89 1f		 mov	 DWORD PTR [edi], ebx
  00127	5f		 pop	 edi
  00128	5e		 pop	 esi
  00129	5b		 pop	 ebx

; 4968 :     }

  0012a	8b e5		 mov	 esp, ebp
  0012c	5d		 pop	 ebp
  0012d	c2 0c 00	 ret	 12			; 0000000cH
$LN98@Reallocate:

; 4937 :             _Xlen_string(); // result too long

  00130	e8 00 00 00 00	 call	 ?_Xlen_string@std@@YAXXZ ; std::_Xlen_string
$LN60@Reallocate:
; File C:\Program Files\Microsoft Visual Studio\2022\Community\VC\Tools\MSVC\14.34.31933\include\xmemory

; 164  :     _STL_VERIFY(_Back_shift >= _Min_back_shift && _Back_shift <= _Non_user_size, "invalid argument");

  00135	e8 00 00 00 00	 call	 __invalid_parameter_noinfo_noreturn
$LN96@Reallocate:
  0013a	cc		 int	 3
??$_Reallocate_grow_by@V<lambda_1>@?1??push_back@?$basic_string@DU?$char_traits@D@std@@V?$allocator@D@2@@std@@QAEXD@Z@D@?$basic_string@DU?$char_traits@D@std@@V?$allocator@D@2@@std@@AAEAAV01@IV<lambda_1>@?1??push_back@01@QAEXD@Z@D@Z ENDP ; std::basic_string<char,std::char_traits<char>,std::allocator<char> >::_Reallocate_grow_by<`std::basic_string<char,std::char_traits<char>,std::allocator<char> >::push_back'::`2'::<lambda_1>,char>
_TEXT	ENDS
; Function compile flags: /Ogtp
; File C:\Program Files\Microsoft Visual Studio\2022\Community\VC\Tools\MSVC\14.34.31933\include\vector
;	COMDAT ??F?$_Vector_const_iterator@V?$_Vector_val@U?$_Simple_types@V?$basic_string@DU?$char_traits@D@std@@V?$allocator@D@2@@std@@@std@@@std@@@std@@QAEAAV01@XZ
_TEXT	SEGMENT
??F?$_Vector_const_iterator@V?$_Vector_val@U?$_Simple_types@V?$basic_string@DU?$char_traits@D@std@@V?$allocator@D@2@@std@@@std@@@std@@@std@@QAEAAV01@XZ PROC ; std::_Vector_const_iterator<std::_Vector_val<std::_Simple_types<std::basic_string<char,std::char_traits<char>,std::allocator<char> > > > >::operator--, COMDAT
; _this$ = ecx

; 85   : #if _ITERATOR_DEBUG_LEVEL != 0
; 86   :         const auto _Mycont = static_cast<const _Myvec*>(this->_Getcont());
; 87   :         _STL_VERIFY(_Ptr, "can't decrement value-initialized vector iterator");
; 88   :         _STL_VERIFY(_Mycont->_Myfirst < _Ptr, "can't decrement vector iterator before begin");
; 89   : #endif // _ITERATOR_DEBUG_LEVEL != 0
; 90   : 
; 91   :         --_Ptr;

  00000	83 01 e8	 add	 DWORD PTR [ecx], -24	; ffffffe8H

; 92   :         return *this;

  00003	8b c1		 mov	 eax, ecx

; 93   :     }

  00005	c3		 ret	 0
??F?$_Vector_const_iterator@V?$_Vector_val@U?$_Simple_types@V?$basic_string@DU?$char_traits@D@std@@V?$allocator@D@2@@std@@@std@@@std@@@std@@QAEAAV01@XZ ENDP ; std::_Vector_const_iterator<std::_Vector_val<std::_Simple_types<std::basic_string<char,std::char_traits<char>,std::allocator<char> > > > >::operator--
_TEXT	ENDS
; Function compile flags: /Ogtp
; File C:\Program Files\Microsoft Visual Studio\2022\Community\VC\Tools\MSVC\14.34.31933\include\vector
;	COMDAT ??E?$_Vector_const_iterator@V?$_Vector_val@U?$_Simple_types@V?$basic_string@DU?$char_traits@D@std@@V?$allocator@D@2@@std@@@std@@@std@@@std@@QAE?AV01@H@Z
_TEXT	SEGMENT
___$ReturnUdt$ = 8					; size = 4
___formal$dead$ = 12					; size = 4
??E?$_Vector_const_iterator@V?$_Vector_val@U?$_Simple_types@V?$basic_string@DU?$char_traits@D@std@@V?$allocator@D@2@@std@@@std@@@std@@@std@@QAE?AV01@H@Z PROC ; std::_Vector_const_iterator<std::_Vector_val<std::_Simple_types<std::basic_string<char,std::char_traits<char>,std::allocator<char> > > > >::operator++, COMDAT
; _this$ = ecx

; 78   :     _CONSTEXPR20 _Vector_const_iterator operator++(int) noexcept {

  00000	55		 push	 ebp
  00001	8b ec		 mov	 ebp, esp

; 79   :         _Vector_const_iterator _Tmp = *this;

  00003	8b 45 08	 mov	 eax, DWORD PTR ___$ReturnUdt$[ebp]
  00006	8b 11		 mov	 edx, DWORD PTR [ecx]
  00008	89 10		 mov	 DWORD PTR [eax], edx

; 74   :         ++_Ptr;

  0000a	83 c2 18	 add	 edx, 24			; 00000018H
  0000d	89 11		 mov	 DWORD PTR [ecx], edx

; 80   :         ++*this;
; 81   :         return _Tmp;
; 82   :     }

  0000f	5d		 pop	 ebp
  00010	c2 08 00	 ret	 8
??E?$_Vector_const_iterator@V?$_Vector_val@U?$_Simple_types@V?$basic_string@DU?$char_traits@D@std@@V?$allocator@D@2@@std@@@std@@@std@@@std@@QAE?AV01@H@Z ENDP ; std::_Vector_const_iterator<std::_Vector_val<std::_Simple_types<std::basic_string<char,std::char_traits<char>,std::allocator<char> > > > >::operator++
_TEXT	ENDS
; Function compile flags: /Ogtp
; File C:\Program Files\Microsoft Visual Studio\2022\Community\VC\Tools\MSVC\14.34.31933\include\vector
;	COMDAT ?end@?$vector@V?$basic_string@DU?$char_traits@D@std@@V?$allocator@D@2@@std@@V?$allocator@V?$basic_string@DU?$char_traits@D@std@@V?$allocator@D@2@@std@@@2@@std@@QBE?AV?$_Vector_const_iterator@V?$_Vector_val@U?$_Simple_types@V?$basic_string@DU?$char_traits@D@std@@V?$allocator@D@2@@std@@@std@@@std@@@2@XZ
_TEXT	SEGMENT
___$ReturnUdt$ = 8					; size = 4
?end@?$vector@V?$basic_string@DU?$char_traits@D@std@@V?$allocator@D@2@@std@@V?$allocator@V?$basic_string@DU?$char_traits@D@std@@V?$allocator@D@2@@std@@@2@@std@@QBE?AV?$_Vector_const_iterator@V?$_Vector_val@U?$_Simple_types@V?$basic_string@DU?$char_traits@D@std@@V?$allocator@D@2@@std@@@std@@@std@@@2@XZ PROC ; std::vector<std::basic_string<char,std::char_traits<char>,std::allocator<char> >,std::allocator<std::basic_string<char,std::char_traits<char>,std::allocator<char> > > >::end, COMDAT
; _this$ = ecx

; 1872 :     _NODISCARD _CONSTEXPR20 const_iterator end() const noexcept {

  00000	55		 push	 ebp
  00001	8b ec		 mov	 ebp, esp

; 41   :     _CONSTEXPR20 _Vector_const_iterator(_Tptr _Parg, const _Container_base* _Pvector) noexcept : _Ptr(_Parg) {

  00003	8b 45 08	 mov	 eax, DWORD PTR ___$ReturnUdt$[ebp]
  00006	8b 49 04	 mov	 ecx, DWORD PTR [ecx+4]
  00009	89 08		 mov	 DWORD PTR [eax], ecx

; 1873 :         auto& _My_data = _Mypair._Myval2;
; 1874 :         return const_iterator(_My_data._Mylast, _STD addressof(_My_data));
; 1875 :     }

  0000b	5d		 pop	 ebp
  0000c	c2 04 00	 ret	 4
?end@?$vector@V?$basic_string@DU?$char_traits@D@std@@V?$allocator@D@2@@std@@V?$allocator@V?$basic_string@DU?$char_traits@D@std@@V?$allocator@D@2@@std@@@2@@std@@QBE?AV?$_Vector_const_iterator@V?$_Vector_val@U?$_Simple_types@V?$basic_string@DU?$char_traits@D@std@@V?$allocator@D@2@@std@@@std@@@std@@@2@XZ ENDP ; std::vector<std::basic_string<char,std::char_traits<char>,std::allocator<char> >,std::allocator<std::basic_string<char,std::char_traits<char>,std::allocator<char> > > >::end
_TEXT	ENDS
; Function compile flags: /Ogtp
; File C:\Program Files\Microsoft Visual Studio\2022\Community\VC\Tools\MSVC\14.34.31933\include\vector
;	COMDAT ?begin@?$vector@V?$basic_string@DU?$char_traits@D@std@@V?$allocator@D@2@@std@@V?$allocator@V?$basic_string@DU?$char_traits@D@std@@V?$allocator@D@2@@std@@@2@@std@@QBE?AV?$_Vector_const_iterator@V?$_Vector_val@U?$_Simple_types@V?$basic_string@DU?$char_traits@D@std@@V?$allocator@D@2@@std@@@std@@@std@@@2@XZ
_TEXT	SEGMENT
___$ReturnUdt$ = 8					; size = 4
?begin@?$vector@V?$basic_string@DU?$char_traits@D@std@@V?$allocator@D@2@@std@@V?$allocator@V?$basic_string@DU?$char_traits@D@std@@V?$allocator@D@2@@std@@@2@@std@@QBE?AV?$_Vector_const_iterator@V?$_Vector_val@U?$_Simple_types@V?$basic_string@DU?$char_traits@D@std@@V?$allocator@D@2@@std@@@std@@@std@@@2@XZ PROC ; std::vector<std::basic_string<char,std::char_traits<char>,std::allocator<char> >,std::allocator<std::basic_string<char,std::char_traits<char>,std::allocator<char> > > >::begin, COMDAT
; _this$ = ecx

; 1862 :     _NODISCARD _CONSTEXPR20 const_iterator begin() const noexcept {

  00000	55		 push	 ebp
  00001	8b ec		 mov	 ebp, esp

; 41   :     _CONSTEXPR20 _Vector_const_iterator(_Tptr _Parg, const _Container_base* _Pvector) noexcept : _Ptr(_Parg) {

  00003	8b 45 08	 mov	 eax, DWORD PTR ___$ReturnUdt$[ebp]
  00006	8b 09		 mov	 ecx, DWORD PTR [ecx]
  00008	89 08		 mov	 DWORD PTR [eax], ecx

; 1863 :         auto& _My_data = _Mypair._Myval2;
; 1864 :         return const_iterator(_My_data._Myfirst, _STD addressof(_My_data));
; 1865 :     }

  0000a	5d		 pop	 ebp
  0000b	c2 04 00	 ret	 4
?begin@?$vector@V?$basic_string@DU?$char_traits@D@std@@V?$allocator@D@2@@std@@V?$allocator@V?$basic_string@DU?$char_traits@D@std@@V?$allocator@D@2@@std@@@2@@std@@QBE?AV?$_Vector_const_iterator@V?$_Vector_val@U?$_Simple_types@V?$basic_string@DU?$char_traits@D@std@@V?$allocator@D@2@@std@@@std@@@std@@@2@XZ ENDP ; std::vector<std::basic_string<char,std::char_traits<char>,std::allocator<char> >,std::allocator<std::basic_string<char,std::char_traits<char>,std::allocator<char> > > >::begin
_TEXT	ENDS
; Function compile flags: /Ogtp
; File C:\Program Files\Microsoft Visual Studio\2022\Community\VC\Tools\MSVC\14.34.31933\include\xstring
;	COMDAT ?insert@?$basic_string@DU?$char_traits@D@std@@V?$allocator@D@2@@std@@QAEAAV12@IABV12@@Z
_TEXT	SEGMENT
__Off$dead$ = 8						; size = 4
__Right$ = 12						; size = 4
?insert@?$basic_string@DU?$char_traits@D@std@@V?$allocator@D@2@@std@@QAEAAV12@IABV12@@Z PROC ; std::basic_string<char,std::char_traits<char>,std::allocator<char> >::insert, COMDAT
; _this$ = ecx

; 3607 :     _CONSTEXPR20 basic_string& insert(const size_type _Off, const basic_string& _Right) {

  00000	55		 push	 ebp
  00001	8b ec		 mov	 ebp, esp

; 3608 :         // insert _Right at _Off
; 3609 :         return insert(_Off, _Right._Mypair._Myval2._Myptr(), _Right._Mypair._Myval2._Mysize);

  00003	8b 45 0c	 mov	 eax, DWORD PTR __Right$[ebp]

; 2301 :         return _BUF_SIZE <= _Myres;

  00006	83 78 14 10	 cmp	 DWORD PTR [eax+20], 16	; 00000010H

; 3608 :         // insert _Right at _Off
; 3609 :         return insert(_Off, _Right._Mypair._Myval2._Myptr(), _Right._Mypair._Myval2._Mysize);

  0000a	8b 50 10	 mov	 edx, DWORD PTR [eax+16]

; 2293 :         if (_Large_string_engaged()) {

  0000d	72 02		 jb	 SHORT $LN4@insert

; 2294 :             _Result = _Unfancy(_Bx._Ptr);

  0000f	8b 00		 mov	 eax, DWORD PTR [eax]
$LN4@insert:

; 3608 :         // insert _Right at _Off
; 3609 :         return insert(_Off, _Right._Mypair._Myval2._Myptr(), _Right._Mypair._Myval2._Mysize);

  00011	52		 push	 edx
  00012	50		 push	 eax
  00013	6a 00		 push	 0
  00015	e8 00 00 00 00	 call	 ?insert@?$basic_string@DU?$char_traits@D@std@@V?$allocator@D@2@@std@@QAEAAV12@IQBDI@Z ; std::basic_string<char,std::char_traits<char>,std::allocator<char> >::insert

; 3610 :     }

  0001a	5d		 pop	 ebp
  0001b	c2 08 00	 ret	 8
?insert@?$basic_string@DU?$char_traits@D@std@@V?$allocator@D@2@@std@@QAEAAV12@IABV12@@Z ENDP ; std::basic_string<char,std::char_traits<char>,std::allocator<char> >::insert
_TEXT	ENDS
; Function compile flags: /Ogtp
; File C:\Program Files\Microsoft Visual Studio\2022\Community\VC\Tools\MSVC\14.34.31933\include\xstddef
;	COMDAT ??$addressof@$$CBV?$_Vector_val@U?$_Simple_types@V?$basic_string@DU?$char_traits@D@std@@V?$allocator@D@2@@std@@@std@@@std@@@std@@YAPBV?$_Vector_val@U?$_Simple_types@V?$basic_string@DU?$char_traits@D@std@@V?$allocator@D@2@@std@@@std@@@0@ABV10@@Z
_TEXT	SEGMENT
??$addressof@$$CBV?$_Vector_val@U?$_Simple_types@V?$basic_string@DU?$char_traits@D@std@@V?$allocator@D@2@@std@@@std@@@std@@@std@@YAPBV?$_Vector_val@U?$_Simple_types@V?$basic_string@DU?$char_traits@D@std@@V?$allocator@D@2@@std@@@std@@@0@ABV10@@Z PROC ; std::addressof<std::_Vector_val<std::_Simple_types<std::basic_string<char,std::char_traits<char>,std::allocator<char> > > > const >, COMDAT
; __Val$ = ecx

; 281  :     return __builtin_addressof(_Val);

  00000	8b c1		 mov	 eax, ecx

; 282  : }

  00002	c3		 ret	 0
??$addressof@$$CBV?$_Vector_val@U?$_Simple_types@V?$basic_string@DU?$char_traits@D@std@@V?$allocator@D@2@@std@@@std@@@std@@@std@@YAPBV?$_Vector_val@U?$_Simple_types@V?$basic_string@DU?$char_traits@D@std@@V?$allocator@D@2@@std@@@std@@@0@ABV10@@Z ENDP ; std::addressof<std::_Vector_val<std::_Simple_types<std::basic_string<char,std::char_traits<char>,std::allocator<char> > > > const >
_TEXT	ENDS
; Function compile flags: /Ogtp
; File C:\Program Files\Microsoft Visual Studio\2022\Community\VC\Tools\MSVC\14.34.31933\include\xmemory
;	COMDAT ??$_Pocs@V?$allocator@D@std@@@std@@YAXAAV?$allocator@D@0@0@Z
_TEXT	SEGMENT
??$_Pocs@V?$allocator@D@std@@@std@@YAXAAV?$allocator@D@0@0@Z PROC ; std::_Pocs<std::allocator<char> >, COMDAT
; __Left$dead$ = ecx
; __Right$dead$ = edx

; 935  :     if constexpr (allocator_traits<_Alloc>::propagate_on_container_swap::value) {
; 936  :         _Swap_adl(_Left, _Right);
; 937  :     } else {
; 938  :         _STL_ASSERT(_Left == _Right, "containers incompatible for swap");
; 939  :     }
; 940  : }

  00000	c2 00 00	 ret	 0
??$_Pocs@V?$allocator@D@std@@@std@@YAXAAV?$allocator@D@0@0@Z ENDP ; std::_Pocs<std::allocator<char> >
_TEXT	ENDS
; Function compile flags: /Ogtp
; File C:\Program Files\Microsoft Visual Studio\2022\Community\VC\Tools\MSVC\14.34.31933\include\type_traits
;	COMDAT ??$move@AAPAD@std@@YA$$QAPADAAPAD@Z
_TEXT	SEGMENT
??$move@AAPAD@std@@YA$$QAPADAAPAD@Z PROC		; std::move<char * &>, COMDAT
; __Arg$ = ecx

; 1437 :     return static_cast<remove_reference_t<_Ty>&&>(_Arg);

  00000	8b c1		 mov	 eax, ecx

; 1438 : }

  00002	c3		 ret	 0
??$move@AAPAD@std@@YA$$QAPADAAPAD@Z ENDP		; std::move<char * &>
_TEXT	ENDS
; Function compile flags: /Ogtp
; File C:\Program Files\Microsoft Visual Studio\2022\Community\VC\Tools\MSVC\14.34.31933\include\utility
;	COMDAT ??$swap@PAD$0A@@std@@YAXAAPAD0@Z
_TEXT	SEGMENT
??$swap@PAD$0A@@std@@YAXAAPAD0@Z PROC			; std::swap<char *,0>, COMDAT
; __Left$ = ecx
; __Right$ = edx

; 100  :     _Ty _Tmp = _STD move(_Left);
; 101  :     _Left    = _STD move(_Right);

  00000	8b 02		 mov	 eax, DWORD PTR [edx]
  00002	56		 push	 esi
  00003	8b 31		 mov	 esi, DWORD PTR [ecx]
  00005	89 01		 mov	 DWORD PTR [ecx], eax

; 102  :     _Right   = _STD move(_Tmp);

  00007	89 32		 mov	 DWORD PTR [edx], esi
  00009	5e		 pop	 esi

; 103  : }

  0000a	c3		 ret	 0
??$swap@PAD$0A@@std@@YAXAAPAD0@Z ENDP			; std::swap<char *,0>
_TEXT	ENDS
; Function compile flags: /Ogtp
; File C:\Program Files\Microsoft Visual Studio\2022\Community\VC\Tools\MSVC\14.34.31933\include\utility
;	COMDAT ??$_Swap_adl@PAD@std@@YAXAAPAD0@Z
_TEXT	SEGMENT
??$_Swap_adl@PAD@std@@YAXAAPAD0@Z PROC			; std::_Swap_adl<char *>, COMDAT
; __Left$ = ecx
; __Right$ = edx

; 101  :     _Left    = _STD move(_Right);

  00000	8b 02		 mov	 eax, DWORD PTR [edx]

; 106  : _CONSTEXPR20 void _Swap_adl(_Ty& _Left, _Ty& _Right) noexcept(_Is_nothrow_swappable<_Ty>::value) {

  00002	56		 push	 esi

; 100  :     _Ty _Tmp = _STD move(_Left);

  00003	8b 31		 mov	 esi, DWORD PTR [ecx]

; 101  :     _Left    = _STD move(_Right);

  00005	89 01		 mov	 DWORD PTR [ecx], eax

; 102  :     _Right   = _STD move(_Tmp);

  00007	89 32		 mov	 DWORD PTR [edx], esi
  00009	5e		 pop	 esi

; 107  :     swap(_Left, _Right);
; 108  : }

  0000a	c3		 ret	 0
??$_Swap_adl@PAD@std@@YAXAAPAD0@Z ENDP			; std::_Swap_adl<char *>
_TEXT	ENDS
; Function compile flags: /Ogtp
; File C:\Program Files\Microsoft Visual Studio\2022\Community\VC\Tools\MSVC\14.34.31933\include\xstring
;	COMDAT ?_Swap_bx_large_with_small@?$basic_string@DU?$char_traits@D@std@@V?$allocator@D@2@@std@@SAXAAV?$_String_val@U?$_Simple_types@D@std@@@2@0@Z
_TEXT	SEGMENT
?_Swap_bx_large_with_small@?$basic_string@DU?$char_traits@D@std@@V?$allocator@D@2@@std@@SAXAAV?$_String_val@U?$_Simple_types@D@std@@@2@0@Z PROC ; std::basic_string<char,std::char_traits<char>,std::allocator<char> >::_Swap_bx_large_with_small, COMDAT
; __Starts_large$ = ecx
; __Starts_small$ = edx

; 64   :         _CSTD memcpy(_First1, _First2, _Count * sizeof(_Elem));

  00000	0f 10 02	 movups	 xmm0, XMMWORD PTR [edx]

; 4396 :         // exchange a string in large mode with one in small mode
; 4397 :         const pointer _Ptr = _Starts_large._Bx._Ptr;

  00003	8b 01		 mov	 eax, DWORD PTR [ecx]

; 64   :         _CSTD memcpy(_First1, _First2, _Count * sizeof(_Elem));

  00005	0f 11 01	 movups	 XMMWORD PTR [ecx], xmm0

; 4398 :         _Destroy_in_place(_Starts_large._Bx._Ptr);
; 4399 :         _Starts_large._Activate_SSO_buffer();
; 4400 :         _Traits::copy(_Starts_large._Bx._Buf, _Starts_small._Bx._Buf, _BUF_SIZE);
; 4401 :         _Construct_in_place(_Starts_small._Bx._Ptr, _Ptr);

  00008	89 02		 mov	 DWORD PTR [edx], eax

; 4402 :     }

  0000a	c3		 ret	 0
?_Swap_bx_large_with_small@?$basic_string@DU?$char_traits@D@std@@V?$allocator@D@2@@std@@SAXAAV?$_String_val@U?$_Simple_types@D@std@@@2@0@Z ENDP ; std::basic_string<char,std::char_traits<char>,std::allocator<char> >::_Swap_bx_large_with_small
_TEXT	ENDS
; Function compile flags: /Ogtp
; File C:\Program Files\Microsoft Visual Studio\2022\Community\VC\Tools\MSVC\14.34.31933\include\xstring
;	COMDAT ?_Swap_data@?$basic_string@DU?$char_traits@D@std@@V?$allocator@D@2@@std@@QAEXAAV12@@Z
_TEXT	SEGMENT
__Right$ = 8						; size = 4
?_Swap_data@?$basic_string@DU?$char_traits@D@std@@V?$allocator@D@2@@std@@QAEXAAV12@@Z PROC ; std::basic_string<char,std::char_traits<char>,std::allocator<char> >::_Swap_data, COMDAT
; _this$ = ecx

; 4404 :     _CONSTEXPR20 void _Swap_data(basic_string& _Right) {

  00000	55		 push	 ebp
  00001	8b ec		 mov	 ebp, esp
  00003	8b 45 08	 mov	 eax, DWORD PTR __Right$[ebp]

; 4405 :         auto& _My_data    = _Mypair._Myval2;
; 4406 :         auto& _Right_data = _Right._Mypair._Myval2;
; 4407 : 
; 4408 :         const bool _My_large    = _My_data._Large_string_engaged();
; 4409 :         const bool _Right_large = _Right_data._Large_string_engaged();
; 4410 : #ifdef _INSERT_STRING_ANNOTATION
; 4411 :         if (_My_large && _Right_large) {
; 4412 :             // nothing
; 4413 :         } else if (_My_large) {
; 4414 :             _ASAN_STRING_REMOVE(_Right);
; 4415 :         } else if (_Right_large) {
; 4416 :             _ASAN_STRING_REMOVE(*this);
; 4417 :         } else {
; 4418 :             _ASAN_STRING_REMOVE(_Right);
; 4419 :             _ASAN_STRING_REMOVE(*this);
; 4420 :         }
; 4421 : #endif // _INSERT_STRING_ANNOTATION
; 4422 : 
; 4423 :         if constexpr (_Can_memcpy_val) {
; 4424 : #if _HAS_CXX20
; 4425 :             if (!_STD is_constant_evaluated())
; 4426 : #endif // _HAS_CXX20
; 4427 :             {
; 4428 :                 const auto _My_data_mem =
; 4429 :                     reinterpret_cast<unsigned char*>(_STD addressof(_My_data)) + _Memcpy_val_offset;
; 4430 :                 const auto _Right_data_mem =
; 4431 :                     reinterpret_cast<unsigned char*>(_STD addressof(_Right_data)) + _Memcpy_val_offset;
; 4432 :                 unsigned char _Temp_mem[_Memcpy_val_size];
; 4433 :                 _CSTD memcpy(_Temp_mem, _My_data_mem, _Memcpy_val_size);

  00006	0f 10 09	 movups	 xmm1, XMMWORD PTR [ecx]
  00009	f3 0f 7e 51 10	 movq	 xmm2, QWORD PTR [ecx+16]

; 4434 :                 _CSTD memcpy(_My_data_mem, _Right_data_mem, _Memcpy_val_size);

  0000e	0f 10 00	 movups	 xmm0, XMMWORD PTR [eax]
  00011	0f 11 01	 movups	 XMMWORD PTR [ecx], xmm0
  00014	f3 0f 7e 40 10	 movq	 xmm0, QWORD PTR [eax+16]
  00019	66 0f d6 41 10	 movq	 QWORD PTR [ecx+16], xmm0

; 4435 :                 _CSTD memcpy(_Right_data_mem, _Temp_mem, _Memcpy_val_size);

  0001e	0f 11 08	 movups	 XMMWORD PTR [eax], xmm1
  00021	66 0f d6 50 10	 movq	 QWORD PTR [eax+16], xmm2

; 4436 : 
; 4437 : #ifdef _INSERT_STRING_ANNOTATION
; 4438 :                 if (_My_large && _Right_large) {
; 4439 :                     // nothing
; 4440 :                 } else if (_My_large) {
; 4441 :                     _ASAN_STRING_CREATE(*this);
; 4442 :                 } else if (_Right_large) {
; 4443 :                     _ASAN_STRING_CREATE(_Right);
; 4444 :                 } else {
; 4445 :                     _ASAN_STRING_CREATE(_Right);
; 4446 :                     _ASAN_STRING_CREATE(*this);
; 4447 :                 }
; 4448 : #endif // _INSERT_STRING_ANNOTATION
; 4449 : 
; 4450 :                 return;
; 4451 :             }
; 4452 :         }
; 4453 : 
; 4454 :         if (_My_large && _Right_large) { // swap buffers, iterators preserved
; 4455 :             _Swap_adl(_My_data._Bx._Ptr, _Right_data._Bx._Ptr);
; 4456 :         } else if (_My_large) { // swap large with small
; 4457 :             _Swap_bx_large_with_small(_My_data, _Right_data);
; 4458 :             _ASAN_STRING_CREATE(*this);
; 4459 :         } else if (_Right_large) { // swap small with large
; 4460 :             _Swap_bx_large_with_small(_Right_data, _My_data);
; 4461 :             _ASAN_STRING_CREATE(_Right);
; 4462 :         } else {
; 4463 :             _Elem _Temp_buf[_BUF_SIZE];
; 4464 :             _Traits::copy(_Temp_buf, _My_data._Bx._Buf, _My_data._Mysize + 1);
; 4465 :             _Traits::copy(_My_data._Bx._Buf, _Right_data._Bx._Buf, _Right_data._Mysize + 1);
; 4466 :             _Traits::copy(_Right_data._Bx._Buf, _Temp_buf, _My_data._Mysize + 1);
; 4467 :             _ASAN_STRING_CREATE(_Right);
; 4468 :             _ASAN_STRING_CREATE(*this);
; 4469 :         }
; 4470 : 
; 4471 :         _STD swap(_My_data._Mysize, _Right_data._Mysize);
; 4472 :         _STD swap(_My_data._Myres, _Right_data._Myres);
; 4473 :     }

  00026	5d		 pop	 ebp
  00027	c2 04 00	 ret	 4
?_Swap_data@?$basic_string@DU?$char_traits@D@std@@V?$allocator@D@2@@std@@QAEXAAV12@@Z ENDP ; std::basic_string<char,std::char_traits<char>,std::allocator<char> >::_Swap_data
_TEXT	ENDS
; Function compile flags: /Ogtp
; File C:\Program Files\Microsoft Visual Studio\2022\Community\VC\Tools\MSVC\14.34.31933\include\xstring
;	COMDAT ?swap@?$basic_string@DU?$char_traits@D@std@@V?$allocator@D@2@@std@@QAEXAAV12@@Z
_TEXT	SEGMENT
__Right$ = 8						; size = 4
?swap@?$basic_string@DU?$char_traits@D@std@@V?$allocator@D@2@@std@@QAEXAAV12@@Z PROC ; std::basic_string<char,std::char_traits<char>,std::allocator<char> >::swap, COMDAT
; _this$ = ecx

; 4475 :     _CONSTEXPR20 void swap(basic_string& _Right) noexcept /* strengthened */ {

  00000	55		 push	 ebp
  00001	8b ec		 mov	 ebp, esp
  00003	8b 45 08	 mov	 eax, DWORD PTR __Right$[ebp]

; 4476 :         if (this != _STD addressof(_Right)) {

  00006	3b c8		 cmp	 ecx, eax
  00008	74 20		 je	 SHORT $LN20@swap

; 4434 :                 _CSTD memcpy(_My_data_mem, _Right_data_mem, _Memcpy_val_size);

  0000a	0f 10 00	 movups	 xmm0, XMMWORD PTR [eax]
  0000d	0f 10 09	 movups	 xmm1, XMMWORD PTR [ecx]
  00010	f3 0f 7e 51 10	 movq	 xmm2, QWORD PTR [ecx+16]
  00015	0f 11 01	 movups	 XMMWORD PTR [ecx], xmm0
  00018	f3 0f 7e 40 10	 movq	 xmm0, QWORD PTR [eax+16]
  0001d	66 0f d6 41 10	 movq	 QWORD PTR [ecx+16], xmm0

; 4435 :                 _CSTD memcpy(_Right_data_mem, _Temp_mem, _Memcpy_val_size);

  00022	0f 11 08	 movups	 XMMWORD PTR [eax], xmm1
  00025	66 0f d6 50 10	 movq	 QWORD PTR [eax+16], xmm2
$LN20@swap:

; 4477 :             _Pocs(_Getal(), _Right._Getal());
; 4478 : 
; 4479 : #if _ITERATOR_DEBUG_LEVEL != 0
; 4480 :             auto& _My_data    = _Mypair._Myval2;
; 4481 :             auto& _Right_data = _Right._Mypair._Myval2;
; 4482 : 
; 4483 :             if (!_My_data._Large_string_engaged()) {
; 4484 :                 _My_data._Orphan_all();
; 4485 :             }
; 4486 : 
; 4487 :             if (!_Right_data._Large_string_engaged()) {
; 4488 :                 _Right_data._Orphan_all();
; 4489 :             }
; 4490 : 
; 4491 :             _My_data._Swap_proxy_and_iterators(_Right_data);
; 4492 : #endif // _ITERATOR_DEBUG_LEVEL != 0
; 4493 : 
; 4494 :             _Swap_data(_Right);
; 4495 :         }
; 4496 :     }

  0002a	5d		 pop	 ebp
  0002b	c2 04 00	 ret	 4
?swap@?$basic_string@DU?$char_traits@D@std@@V?$allocator@D@2@@std@@QAEXAAV12@@Z ENDP ; std::basic_string<char,std::char_traits<char>,std::allocator<char> >::swap
_TEXT	ENDS
; Function compile flags: /Ogtp
; File C:\Program Files\Microsoft Visual Studio\2022\Community\VC\Tools\MSVC\14.34.31933\include\xstring
;	COMDAT ??$swap@DU?$char_traits@D@std@@V?$allocator@D@2@@std@@YAXAAV?$basic_string@DU?$char_traits@D@std@@V?$allocator@D@2@@0@0@Z
_TEXT	SEGMENT
??$swap@DU?$char_traits@D@std@@V?$allocator@D@2@@std@@YAXAAV?$basic_string@DU?$char_traits@D@std@@V?$allocator@D@2@@0@0@Z PROC ; std::swap<char,std::char_traits<char>,std::allocator<char> >, COMDAT
; __Left$ = ecx
; __Right$ = edx

; 4476 :         if (this != _STD addressof(_Right)) {

  00000	3b ca		 cmp	 ecx, edx
  00002	74 20		 je	 SHORT $LN22@swap

; 4434 :                 _CSTD memcpy(_My_data_mem, _Right_data_mem, _Memcpy_val_size);

  00004	0f 10 02	 movups	 xmm0, XMMWORD PTR [edx]
  00007	0f 10 09	 movups	 xmm1, XMMWORD PTR [ecx]
  0000a	f3 0f 7e 51 10	 movq	 xmm2, QWORD PTR [ecx+16]
  0000f	0f 11 01	 movups	 XMMWORD PTR [ecx], xmm0
  00012	f3 0f 7e 42 10	 movq	 xmm0, QWORD PTR [edx+16]
  00017	66 0f d6 41 10	 movq	 QWORD PTR [ecx+16], xmm0

; 4435 :                 _CSTD memcpy(_Right_data_mem, _Temp_mem, _Memcpy_val_size);

  0001c	0f 11 0a	 movups	 XMMWORD PTR [edx], xmm1
  0001f	66 0f d6 52 10	 movq	 QWORD PTR [edx+16], xmm2
$LN22@swap:

; 5070 :     _Left.swap(_Right);
; 5071 : }

  00024	c3		 ret	 0
??$swap@DU?$char_traits@D@std@@V?$allocator@D@2@@std@@YAXAAV?$basic_string@DU?$char_traits@D@std@@V?$allocator@D@2@@0@0@Z ENDP ; std::swap<char,std::char_traits<char>,std::allocator<char> >
_TEXT	ENDS
; Function compile flags: /Ogtp
; File C:\Program Files (x86)\Windows Kits\10\Include\10.0.22000.0\ucrt\time.h
;	COMDAT _time
_TEXT	SEGMENT
_time	PROC						; COMDAT
; __Time$dead$ = ecx

; 426  :             return _time32(_Time);

  00000	6a 00		 push	 0
  00002	e8 00 00 00 00	 call	 __time32
  00007	83 c4 04	 add	 esp, 4

; 427  :         }

  0000a	c3		 ret	 0
_time	ENDP
_TEXT	ENDS
END
